


Disassembly of section .init:

0000000000002710 <_init>:
2710:	48 83 ec 08          	sub    rsp,0x8
2714:	48 8b 05 c5 78 21 00 	mov    rax,QWORD PTR [rip+0x2178c5]        # 219fe0 <__gmon_start__>
271b:	48 85 c0             	test   rax,rax
271e:	74 02                	je     2722 <_init+0x12>
2720:	ff d0                	call   rax
2722:	48 83 c4 08          	add    rsp,0x8
2726:	c3                   	ret

Disassembly of section .plt:

0000000000002730 <.plt>:
2730:	ff 35 1a 75 21 00    	push   QWORD PTR [rip+0x21751a]        # 219c50 <_GLOBAL_OFFSET_TABLE_+0x8>
2736:	ff 25 1c 75 21 00    	jmp    QWORD PTR [rip+0x21751c]        # 219c58 <_GLOBAL_OFFSET_TABLE_+0x10>
273c:	0f 1f 40 00          	nop    DWORD PTR [rax+0x0]

0000000000002740 <getenv@plt>:
2740:	ff 25 1a 75 21 00    	jmp    QWORD PTR [rip+0x21751a]        # 219c60 <getenv@GLIBC_2.2.5>
2746:	68 00 00 00 00       	push   0x0
274b:	e9 e0 ff ff ff       	jmp    2730 <.plt>

0000000000002750 <utimensat@plt>:
2750:	ff 25 12 75 21 00    	jmp    QWORD PTR [rip+0x217512]        # 219c68 <utimensat@GLIBC_2.6>
2756:	68 01 00 00 00       	push   0x1
275b:	e9 d0 ff ff ff       	jmp    2730 <.plt>

0000000000002760 <abort@plt>:
2760:	ff 25 0a 75 21 00    	jmp    QWORD PTR [rip+0x21750a]        # 219c70 <abort@GLIBC_2.2.5>
2766:	68 02 00 00 00       	push   0x2
276b:	e9 c0 ff ff ff       	jmp    2730 <.plt>

0000000000002770 <__errno_location@plt>:
2770:	ff 25 02 75 21 00    	jmp    QWORD PTR [rip+0x217502]        # 219c78 <__errno_location@GLIBC_2.2.5>
2776:	68 03 00 00 00       	push   0x3
277b:	e9 b0 ff ff ff       	jmp    2730 <.plt>

0000000000002780 <unlink@plt>:
2780:	ff 25 fa 74 21 00    	jmp    QWORD PTR [rip+0x2174fa]        # 219c80 <unlink@GLIBC_2.2.5>
2786:	68 04 00 00 00       	push   0x4
278b:	e9 a0 ff ff ff       	jmp    2730 <.plt>

0000000000002790 <strncmp@plt>:
2790:	ff 25 f2 74 21 00    	jmp    QWORD PTR [rip+0x2174f2]        # 219c88 <strncmp@GLIBC_2.2.5>
2796:	68 05 00 00 00       	push   0x5
279b:	e9 90 ff ff ff       	jmp    2730 <.plt>

00000000000027a0 <_exit@plt>:
27a0:	ff 25 ea 74 21 00    	jmp    QWORD PTR [rip+0x2174ea]        # 219c90 <_exit@GLIBC_2.2.5>
27a6:	68 06 00 00 00       	push   0x6
27ab:	e9 80 ff ff ff       	jmp    2730 <.plt>

00000000000027b0 <strcpy@plt>:
27b0:	ff 25 e2 74 21 00    	jmp    QWORD PTR [rip+0x2174e2]        # 219c98 <strcpy@GLIBC_2.2.5>
27b6:	68 07 00 00 00       	push   0x7
27bb:	e9 70 ff ff ff       	jmp    2730 <.plt>

00000000000027c0 <__fpending@plt>:
27c0:	ff 25 da 74 21 00    	jmp    QWORD PTR [rip+0x2174da]        # 219ca0 <__fpending@GLIBC_2.2.5>
27c6:	68 08 00 00 00       	push   0x8
27cb:	e9 60 ff ff ff       	jmp    2730 <.plt>

00000000000027d0 <__read_chk@plt>:
27d0:	ff 25 d2 74 21 00    	jmp    QWORD PTR [rip+0x2174d2]        # 219ca8 <__read_chk@GLIBC_2.4>
27d6:	68 09 00 00 00       	push   0x9
27db:	e9 50 ff ff ff       	jmp    2730 <.plt>

00000000000027e0 <mkdir@plt>:
27e0:	ff 25 ca 74 21 00    	jmp    QWORD PTR [rip+0x2174ca]        # 219cb0 <mkdir@GLIBC_2.2.5>
27e6:	68 0a 00 00 00       	push   0xa
27eb:	e9 40 ff ff ff       	jmp    2730 <.plt>

00000000000027f0 <unlinkat@plt>:
27f0:	ff 25 c2 74 21 00    	jmp    QWORD PTR [rip+0x2174c2]        # 219cb8 <unlinkat@GLIBC_2.4>
27f6:	68 0b 00 00 00       	push   0xb
27fb:	e9 30 ff ff ff       	jmp    2730 <.plt>

0000000000002800 <qsort@plt>:
2800:	ff 25 ba 74 21 00    	jmp    QWORD PTR [rip+0x2174ba]        # 219cc0 <qsort@GLIBC_2.2.5>
2806:	68 0c 00 00 00       	push   0xc
280b:	e9 20 ff ff ff       	jmp    2730 <.plt>

0000000000002810 <readlink@plt>:
2810:	ff 25 b2 74 21 00    	jmp    QWORD PTR [rip+0x2174b2]        # 219cc8 <readlink@GLIBC_2.2.5>
2816:	68 0d 00 00 00       	push   0xd
281b:	e9 10 ff ff ff       	jmp    2730 <.plt>

0000000000002820 <fcntl@plt>:
2820:	ff 25 aa 74 21 00    	jmp    QWORD PTR [rip+0x2174aa]        # 219cd0 <fcntl@GLIBC_2.2.5>
2826:	68 0e 00 00 00       	push   0xe
282b:	e9 00 ff ff ff       	jmp    2730 <.plt>

0000000000002830 <clock_gettime@plt>:
2830:	ff 25 a2 74 21 00    	jmp    QWORD PTR [rip+0x2174a2]        # 219cd8 <clock_gettime@GLIBC_2.17>
2836:	68 0f 00 00 00       	push   0xf
283b:	e9 f0 fe ff ff       	jmp    2730 <.plt>

0000000000002840 <write@plt>:
2840:	ff 25 9a 74 21 00    	jmp    QWORD PTR [rip+0x21749a]        # 219ce0 <write@GLIBC_2.2.5>
2846:	68 10 00 00 00       	push   0x10
284b:	e9 e0 fe ff ff       	jmp    2730 <.plt>

0000000000002850 <getpid@plt>:
2850:	ff 25 92 74 21 00    	jmp    QWORD PTR [rip+0x217492]        # 219ce8 <getpid@GLIBC_2.2.5>
2856:	68 11 00 00 00       	push   0x11
285b:	e9 d0 fe ff ff       	jmp    2730 <.plt>

0000000000002860 <fread_unlocked@plt>:
2860:	ff 25 8a 74 21 00    	jmp    QWORD PTR [rip+0x21748a]        # 219cf0 <fread_unlocked@GLIBC_2.2.5>
2866:	68 12 00 00 00       	push   0x12
286b:	e9 c0 fe ff ff       	jmp    2730 <.plt>

0000000000002870 <textdomain@plt>:
2870:	ff 25 82 74 21 00    	jmp    QWORD PTR [rip+0x217482]        # 219cf8 <textdomain@GLIBC_2.2.5>
2876:	68 13 00 00 00       	push   0x13
287b:	e9 b0 fe ff ff       	jmp    2730 <.plt>

0000000000002880 <pathconf@plt>:
2880:	ff 25 7a 74 21 00    	jmp    QWORD PTR [rip+0x21747a]        # 219d00 <pathconf@GLIBC_2.2.5>
2886:	68 14 00 00 00       	push   0x14
288b:	e9 a0 fe ff ff       	jmp    2730 <.plt>

0000000000002890 <fclose@plt>:
2890:	ff 25 72 74 21 00    	jmp    QWORD PTR [rip+0x217472]        # 219d08 <fclose@GLIBC_2.2.5>
2896:	68 15 00 00 00       	push   0x15
289b:	e9 90 fe ff ff       	jmp    2730 <.plt>

00000000000028a0 <opendir@plt>:
28a0:	ff 25 6a 74 21 00    	jmp    QWORD PTR [rip+0x21746a]        # 219d10 <opendir@GLIBC_2.2.5>
28a6:	68 16 00 00 00       	push   0x16
28ab:	e9 80 fe ff ff       	jmp    2730 <.plt>

00000000000028b0 <bindtextdomain@plt>:
28b0:	ff 25 62 74 21 00    	jmp    QWORD PTR [rip+0x217462]        # 219d18 <bindtextdomain@GLIBC_2.2.5>
28b6:	68 17 00 00 00       	push   0x17
28bb:	e9 70 fe ff ff       	jmp    2730 <.plt>

00000000000028c0 <stpcpy@plt>:
28c0:	ff 25 5a 74 21 00    	jmp    QWORD PTR [rip+0x21745a]        # 219d20 <stpcpy@GLIBC_2.2.5>
28c6:	68 18 00 00 00       	push   0x18
28cb:	e9 60 fe ff ff       	jmp    2730 <.plt>

00000000000028d0 <rmdir@plt>:
28d0:	ff 25 52 74 21 00    	jmp    QWORD PTR [rip+0x217452]        # 219d28 <rmdir@GLIBC_2.2.5>
28d6:	68 19 00 00 00       	push   0x19
28db:	e9 50 fe ff ff       	jmp    2730 <.plt>

00000000000028e0 <dcgettext@plt>:
28e0:	ff 25 4a 74 21 00    	jmp    QWORD PTR [rip+0x21744a]        # 219d30 <dcgettext@GLIBC_2.2.5>
28e6:	68 1a 00 00 00       	push   0x1a
28eb:	e9 40 fe ff ff       	jmp    2730 <.plt>

00000000000028f0 <__ctype_get_mb_cur_max@plt>:
28f0:	ff 25 42 74 21 00    	jmp    QWORD PTR [rip+0x217442]        # 219d38 <__ctype_get_mb_cur_max@GLIBC_2.2.5>
28f6:	68 1b 00 00 00       	push   0x1b
28fb:	e9 30 fe ff ff       	jmp    2730 <.plt>

0000000000002900 <strlen@plt>:
2900:	ff 25 3a 74 21 00    	jmp    QWORD PTR [rip+0x21743a]        # 219d40 <strlen@GLIBC_2.2.5>
2906:	68 1c 00 00 00       	push   0x1c
290b:	e9 20 fe ff ff       	jmp    2730 <.plt>

0000000000002910 <__lxstat@plt>:
2910:	ff 25 32 74 21 00    	jmp    QWORD PTR [rip+0x217432]        # 219d48 <__lxstat@GLIBC_2.2.5>
2916:	68 1d 00 00 00       	push   0x1d
291b:	e9 10 fe ff ff       	jmp    2730 <.plt>

0000000000002920 <openat@plt>:
2920:	ff 25 2a 74 21 00    	jmp    QWORD PTR [rip+0x21742a]        # 219d50 <openat@GLIBC_2.4>
2926:	68 1e 00 00 00       	push   0x1e
292b:	e9 00 fe ff ff       	jmp    2730 <.plt>

0000000000002930 <__stack_chk_fail@plt>:
2930:	ff 25 22 74 21 00    	jmp    QWORD PTR [rip+0x217422]        # 219d58 <__stack_chk_fail@GLIBC_2.4>
2936:	68 1f 00 00 00       	push   0x1f
293b:	e9 f0 fd ff ff       	jmp    2730 <.plt>

0000000000002940 <getuid@plt>:
2940:	ff 25 1a 74 21 00    	jmp    QWORD PTR [rip+0x21741a]        # 219d60 <getuid@GLIBC_2.2.5>
2946:	68 20 00 00 00       	push   0x20
294b:	e9 e0 fd ff ff       	jmp    2730 <.plt>

0000000000002950 <getopt_long@plt>:
2950:	ff 25 12 74 21 00    	jmp    QWORD PTR [rip+0x217412]        # 219d68 <getopt_long@GLIBC_2.2.5>
2956:	68 21 00 00 00       	push   0x21
295b:	e9 d0 fd ff ff       	jmp    2730 <.plt>

0000000000002960 <mbrtowc@plt>:
2960:	ff 25 0a 74 21 00    	jmp    QWORD PTR [rip+0x21740a]        # 219d70 <mbrtowc@GLIBC_2.2.5>
2966:	68 22 00 00 00       	push   0x22
296b:	e9 c0 fd ff ff       	jmp    2730 <.plt>

0000000000002970 <strchr@plt>:
2970:	ff 25 02 74 21 00    	jmp    QWORD PTR [rip+0x217402]        # 219d78 <strchr@GLIBC_2.2.5>
2976:	68 23 00 00 00       	push   0x23
297b:	e9 b0 fd ff ff       	jmp    2730 <.plt>

0000000000002980 <__fxstatat@plt>:
2980:	ff 25 fa 73 21 00    	jmp    QWORD PTR [rip+0x2173fa]        # 219d80 <__fxstatat@GLIBC_2.4>
2986:	68 24 00 00 00       	push   0x24
298b:	e9 a0 fd ff ff       	jmp    2730 <.plt>

0000000000002990 <__overflow@plt>:
2990:	ff 25 f2 73 21 00    	jmp    QWORD PTR [rip+0x2173f2]        # 219d88 <__overflow@GLIBC_2.2.5>
2996:	68 25 00 00 00       	push   0x25
299b:	e9 90 fd ff ff       	jmp    2730 <.plt>

00000000000029a0 <strrchr@plt>:
29a0:	ff 25 ea 73 21 00    	jmp    QWORD PTR [rip+0x2173ea]        # 219d90 <strrchr@GLIBC_2.2.5>
29a6:	68 26 00 00 00       	push   0x26
29ab:	e9 80 fd ff ff       	jmp    2730 <.plt>

00000000000029b0 <ftruncate@plt>:
29b0:	ff 25 e2 73 21 00    	jmp    QWORD PTR [rip+0x2173e2]        # 219d98 <ftruncate@GLIBC_2.2.5>
29b6:	68 27 00 00 00       	push   0x27
29bb:	e9 70 fd ff ff       	jmp    2730 <.plt>

00000000000029c0 <lseek@plt>:
29c0:	ff 25 da 73 21 00    	jmp    QWORD PTR [rip+0x2173da]        # 219da0 <lseek@GLIBC_2.2.5>
29c6:	68 28 00 00 00       	push   0x28
29cb:	e9 60 fd ff ff       	jmp    2730 <.plt>

00000000000029d0 <gettimeofday@plt>:
29d0:	ff 25 d2 73 21 00    	jmp    QWORD PTR [rip+0x2173d2]        # 219da8 <gettimeofday@GLIBC_2.2.5>
29d6:	68 29 00 00 00       	push   0x29
29db:	e9 50 fd ff ff       	jmp    2730 <.plt>

00000000000029e0 <__assert_fail@plt>:
29e0:	ff 25 ca 73 21 00    	jmp    QWORD PTR [rip+0x2173ca]        # 219db0 <__assert_fail@GLIBC_2.2.5>
29e6:	68 2a 00 00 00       	push   0x2a
29eb:	e9 40 fd ff ff       	jmp    2730 <.plt>

00000000000029f0 <memset@plt>:
29f0:	ff 25 c2 73 21 00    	jmp    QWORD PTR [rip+0x2173c2]        # 219db8 <memset@GLIBC_2.2.5>
29f6:	68 2b 00 00 00       	push   0x2b
29fb:	e9 30 fd ff ff       	jmp    2730 <.plt>

0000000000002a00 <geteuid@plt>:
2a00:	ff 25 ba 73 21 00    	jmp    QWORD PTR [rip+0x2173ba]        # 219dc0 <geteuid@GLIBC_2.2.5>
2a06:	68 2c 00 00 00       	push   0x2c
2a0b:	e9 20 fd ff ff       	jmp    2730 <.plt>

0000000000002a10 <ioctl@plt>:
2a10:	ff 25 b2 73 21 00    	jmp    QWORD PTR [rip+0x2173b2]        # 219dc8 <ioctl@GLIBC_2.2.5>
2a16:	68 2d 00 00 00       	push   0x2d
2a1b:	e9 10 fd ff ff       	jmp    2730 <.plt>

0000000000002a20 <canonicalize_file_name@plt>:
2a20:	ff 25 aa 73 21 00    	jmp    QWORD PTR [rip+0x2173aa]        # 219dd0 <canonicalize_file_name@GLIBC_2.2.5>
2a26:	68 2e 00 00 00       	push   0x2e
2a2b:	e9 00 fd ff ff       	jmp    2730 <.plt>

0000000000002a30 <close@plt>:
2a30:	ff 25 a2 73 21 00    	jmp    QWORD PTR [rip+0x2173a2]        # 219dd8 <close@GLIBC_2.2.5>
2a36:	68 2f 00 00 00       	push   0x2f
2a3b:	e9 f0 fc ff ff       	jmp    2730 <.plt>

0000000000002a40 <rewinddir@plt>:
2a40:	ff 25 9a 73 21 00    	jmp    QWORD PTR [rip+0x21739a]        # 219de0 <rewinddir@GLIBC_2.2.5>
2a46:	68 30 00 00 00       	push   0x30
2a4b:	e9 e0 fc ff ff       	jmp    2730 <.plt>

0000000000002a50 <strspn@plt>:
2a50:	ff 25 92 73 21 00    	jmp    QWORD PTR [rip+0x217392]        # 219de8 <strspn@GLIBC_2.2.5>
2a56:	68 31 00 00 00       	push   0x31
2a5b:	e9 d0 fc ff ff       	jmp    2730 <.plt>

0000000000002a60 <closedir@plt>:
2a60:	ff 25 8a 73 21 00    	jmp    QWORD PTR [rip+0x21738a]        # 219df0 <closedir@GLIBC_2.2.5>
2a66:	68 32 00 00 00       	push   0x32
2a6b:	e9 c0 fc ff ff       	jmp    2730 <.plt>

0000000000002a70 <posix_fadvise@plt>:
2a70:	ff 25 82 73 21 00    	jmp    QWORD PTR [rip+0x217382]        # 219df8 <posix_fadvise@GLIBC_2.2.5>
2a76:	68 33 00 00 00       	push   0x33
2a7b:	e9 b0 fc ff ff       	jmp    2730 <.plt>

0000000000002a80 <read@plt>:
2a80:	ff 25 7a 73 21 00    	jmp    QWORD PTR [rip+0x21737a]        # 219e00 <read@GLIBC_2.2.5>
2a86:	68 34 00 00 00       	push   0x34
2a8b:	e9 a0 fc ff ff       	jmp    2730 <.plt>

0000000000002a90 <memcmp@plt>:
2a90:	ff 25 72 73 21 00    	jmp    QWORD PTR [rip+0x217372]        # 219e08 <memcmp@GLIBC_2.2.5>
2a96:	68 35 00 00 00       	push   0x35
2a9b:	e9 90 fc ff ff       	jmp    2730 <.plt>

0000000000002aa0 <fallocate@plt>:
2aa0:	ff 25 6a 73 21 00    	jmp    QWORD PTR [rip+0x21736a]        # 219e10 <fallocate@GLIBC_2.10>
2aa6:	68 36 00 00 00       	push   0x36
2aab:	e9 80 fc ff ff       	jmp    2730 <.plt>

0000000000002ab0 <fputs_unlocked@plt>:
2ab0:	ff 25 62 73 21 00    	jmp    QWORD PTR [rip+0x217362]        # 219e18 <fputs_unlocked@GLIBC_2.2.5>
2ab6:	68 37 00 00 00       	push   0x37
2abb:	e9 70 fc ff ff       	jmp    2730 <.plt>

0000000000002ac0 <utimes@plt>:
2ac0:	ff 25 5a 73 21 00    	jmp    QWORD PTR [rip+0x21735a]        # 219e20 <utimes@GLIBC_2.2.5>
2ac6:	68 38 00 00 00       	push   0x38
2acb:	e9 60 fc ff ff       	jmp    2730 <.plt>

0000000000002ad0 <calloc@plt>:
2ad0:	ff 25 52 73 21 00    	jmp    QWORD PTR [rip+0x217352]        # 219e28 <calloc@GLIBC_2.2.5>
2ad6:	68 39 00 00 00       	push   0x39
2adb:	e9 50 fc ff ff       	jmp    2730 <.plt>

0000000000002ae0 <__getdelim@plt>:
2ae0:	ff 25 4a 73 21 00    	jmp    QWORD PTR [rip+0x21734a]        # 219e30 <__getdelim@GLIBC_2.2.5>
2ae6:	68 3a 00 00 00       	push   0x3a
2aeb:	e9 40 fc ff ff       	jmp    2730 <.plt>

0000000000002af0 <strcmp@plt>:
2af0:	ff 25 42 73 21 00    	jmp    QWORD PTR [rip+0x217342]        # 219e38 <strcmp@GLIBC_2.2.5>
2af6:	68 3b 00 00 00       	push   0x3b
2afb:	e9 30 fc ff ff       	jmp    2730 <.plt>

0000000000002b00 <dirfd@plt>:
2b00:	ff 25 3a 73 21 00    	jmp    QWORD PTR [rip+0x21733a]        # 219e40 <dirfd@GLIBC_2.2.5>
2b06:	68 3c 00 00 00       	push   0x3c
2b0b:	e9 20 fc ff ff       	jmp    2730 <.plt>

0000000000002b10 <fpathconf@plt>:
2b10:	ff 25 32 73 21 00    	jmp    QWORD PTR [rip+0x217332]        # 219e48 <fpathconf@GLIBC_2.2.5>
2b16:	68 3d 00 00 00       	push   0x3d
2b1b:	e9 10 fc ff ff       	jmp    2730 <.plt>

0000000000002b20 <rpmatch@plt>:
2b20:	ff 25 2a 73 21 00    	jmp    QWORD PTR [rip+0x21732a]        # 219e50 <rpmatch@GLIBC_2.2.5>
2b26:	68 3e 00 00 00       	push   0x3e
2b2b:	e9 00 fc ff ff       	jmp    2730 <.plt>

0000000000002b30 <syscall@plt>:
2b30:	ff 25 22 73 21 00    	jmp    QWORD PTR [rip+0x217322]        # 219e58 <syscall@GLIBC_2.2.5>
2b36:	68 3f 00 00 00       	push   0x3f
2b3b:	e9 f0 fb ff ff       	jmp    2730 <.plt>

0000000000002b40 <mkfifo@plt>:
2b40:	ff 25 1a 73 21 00    	jmp    QWORD PTR [rip+0x21731a]        # 219e60 <mkfifo@GLIBC_2.2.5>
2b46:	68 40 00 00 00       	push   0x40
2b4b:	e9 e0 fb ff ff       	jmp    2730 <.plt>

0000000000002b50 <umask@plt>:
2b50:	ff 25 12 73 21 00    	jmp    QWORD PTR [rip+0x217312]        # 219e68 <umask@GLIBC_2.2.5>
2b56:	68 41 00 00 00       	push   0x41
2b5b:	e9 d0 fb ff ff       	jmp    2730 <.plt>

0000000000002b60 <memcpy@plt>:
2b60:	ff 25 0a 73 21 00    	jmp    QWORD PTR [rip+0x21730a]        # 219e70 <memcpy@GLIBC_2.14>
2b66:	68 42 00 00 00       	push   0x42
2b6b:	e9 c0 fb ff ff       	jmp    2730 <.plt>

0000000000002b70 <__xmknod@plt>:
2b70:	ff 25 02 73 21 00    	jmp    QWORD PTR [rip+0x217302]        # 219e78 <__xmknod@GLIBC_2.2.5>
2b76:	68 43 00 00 00       	push   0x43
2b7b:	e9 b0 fb ff ff       	jmp    2730 <.plt>

0000000000002b80 <fileno@plt>:
2b80:	ff 25 fa 72 21 00    	jmp    QWORD PTR [rip+0x2172fa]        # 219e80 <fileno@GLIBC_2.2.5>
2b86:	68 44 00 00 00       	push   0x44
2b8b:	e9 a0 fb ff ff       	jmp    2730 <.plt>

0000000000002b90 <getgid@plt>:
2b90:	ff 25 f2 72 21 00    	jmp    QWORD PTR [rip+0x2172f2]        # 219e88 <getgid@GLIBC_2.2.5>
2b96:	68 45 00 00 00       	push   0x45
2b9b:	e9 90 fb ff ff       	jmp    2730 <.plt>

0000000000002ba0 <__xstat@plt>:
2ba0:	ff 25 ea 72 21 00    	jmp    QWORD PTR [rip+0x2172ea]        # 219e90 <__xstat@GLIBC_2.2.5>
2ba6:	68 46 00 00 00       	push   0x46
2bab:	e9 80 fb ff ff       	jmp    2730 <.plt>

0000000000002bb0 <readdir@plt>:
2bb0:	ff 25 e2 72 21 00    	jmp    QWORD PTR [rip+0x2172e2]        # 219e98 <readdir@GLIBC_2.2.5>
2bb6:	68 47 00 00 00       	push   0x47
2bbb:	e9 70 fb ff ff       	jmp    2730 <.plt>

0000000000002bc0 <malloc@plt>:
2bc0:	ff 25 da 72 21 00    	jmp    QWORD PTR [rip+0x2172da]        # 219ea0 <malloc@GLIBC_2.2.5>
2bc6:	68 48 00 00 00       	push   0x48
2bcb:	e9 60 fb ff ff       	jmp    2730 <.plt>

0000000000002bd0 <fflush@plt>:
2bd0:	ff 25 d2 72 21 00    	jmp    QWORD PTR [rip+0x2172d2]        # 219ea8 <fflush@GLIBC_2.2.5>
2bd6:	68 49 00 00 00       	push   0x49
2bdb:	e9 50 fb ff ff       	jmp    2730 <.plt>

0000000000002be0 <nl_langinfo@plt>:
2be0:	ff 25 ca 72 21 00    	jmp    QWORD PTR [rip+0x2172ca]        # 219eb0 <nl_langinfo@GLIBC_2.2.5>
2be6:	68 4a 00 00 00       	push   0x4a
2beb:	e9 40 fb ff ff       	jmp    2730 <.plt>

0000000000002bf0 <__fxstat@plt>:
2bf0:	ff 25 c2 72 21 00    	jmp    QWORD PTR [rip+0x2172c2]        # 219eb8 <__fxstat@GLIBC_2.2.5>
2bf6:	68 4b 00 00 00       	push   0x4b
2bfb:	e9 30 fb ff ff       	jmp    2730 <.plt>

0000000000002c00 <lchown@plt>:
2c00:	ff 25 ba 72 21 00    	jmp    QWORD PTR [rip+0x2172ba]        # 219ec0 <lchown@GLIBC_2.2.5>
2c06:	68 4c 00 00 00       	push   0x4c
2c0b:	e9 20 fb ff ff       	jmp    2730 <.plt>

0000000000002c10 <__freading@plt>:
2c10:	ff 25 b2 72 21 00    	jmp    QWORD PTR [rip+0x2172b2]        # 219ec8 <__freading@GLIBC_2.2.5>
2c16:	68 4d 00 00 00       	push   0x4d
2c1b:	e9 10 fb ff ff       	jmp    2730 <.plt>

0000000000002c20 <realloc@plt>:
2c20:	ff 25 aa 72 21 00    	jmp    QWORD PTR [rip+0x2172aa]        # 219ed0 <realloc@GLIBC_2.2.5>
2c26:	68 4e 00 00 00       	push   0x4e
2c2b:	e9 00 fb ff ff       	jmp    2730 <.plt>

0000000000002c30 <fdopen@plt>:
2c30:	ff 25 a2 72 21 00    	jmp    QWORD PTR [rip+0x2172a2]        # 219ed8 <fdopen@GLIBC_2.2.5>
2c36:	68 4f 00 00 00       	push   0x4f
2c3b:	e9 f0 fa ff ff       	jmp    2730 <.plt>

0000000000002c40 <linkat@plt>:
2c40:	ff 25 9a 72 21 00    	jmp    QWORD PTR [rip+0x21729a]        # 219ee0 <linkat@GLIBC_2.4>
2c46:	68 50 00 00 00       	push   0x50
2c4b:	e9 e0 fa ff ff       	jmp    2730 <.plt>

0000000000002c50 <setlocale@plt>:
2c50:	ff 25 92 72 21 00    	jmp    QWORD PTR [rip+0x217292]        # 219ee8 <setlocale@GLIBC_2.2.5>
2c56:	68 51 00 00 00       	push   0x51
2c5b:	e9 d0 fa ff ff       	jmp    2730 <.plt>

0000000000002c60 <__printf_chk@plt>:
2c60:	ff 25 8a 72 21 00    	jmp    QWORD PTR [rip+0x21728a]        # 219ef0 <__printf_chk@GLIBC_2.3.4>
2c66:	68 52 00 00 00       	push   0x52
2c6b:	e9 c0 fa ff ff       	jmp    2730 <.plt>

0000000000002c70 <fchmod@plt>:
2c70:	ff 25 82 72 21 00    	jmp    QWORD PTR [rip+0x217282]        # 219ef8 <fchmod@GLIBC_2.2.5>
2c76:	68 53 00 00 00       	push   0x53
2c7b:	e9 b0 fa ff ff       	jmp    2730 <.plt>

0000000000002c80 <setvbuf@plt>:
2c80:	ff 25 7a 72 21 00    	jmp    QWORD PTR [rip+0x21727a]        # 219f00 <setvbuf@GLIBC_2.2.5>
2c86:	68 54 00 00 00       	push   0x54
2c8b:	e9 a0 fa ff ff       	jmp    2730 <.plt>

0000000000002c90 <chmod@plt>:
2c90:	ff 25 72 72 21 00    	jmp    QWORD PTR [rip+0x217272]        # 219f08 <chmod@GLIBC_2.2.5>
2c96:	68 55 00 00 00       	push   0x55
2c9b:	e9 90 fa ff ff       	jmp    2730 <.plt>

0000000000002ca0 <mempcpy@plt>:
2ca0:	ff 25 6a 72 21 00    	jmp    QWORD PTR [rip+0x21726a]        # 219f10 <mempcpy@GLIBC_2.2.5>
2ca6:	68 56 00 00 00       	push   0x56
2cab:	e9 80 fa ff ff       	jmp    2730 <.plt>

0000000000002cb0 <error@plt>:
2cb0:	ff 25 62 72 21 00    	jmp    QWORD PTR [rip+0x217262]        # 219f18 <error@GLIBC_2.2.5>
2cb6:	68 57 00 00 00       	push   0x57
2cbb:	e9 70 fa ff ff       	jmp    2730 <.plt>

0000000000002cc0 <__explicit_bzero_chk@plt>:
2cc0:	ff 25 5a 72 21 00    	jmp    QWORD PTR [rip+0x21725a]        # 219f20 <__explicit_bzero_chk@GLIBC_2.25>
2cc6:	68 58 00 00 00       	push   0x58
2ccb:	e9 60 fa ff ff       	jmp    2730 <.plt>

0000000000002cd0 <open@plt>:
2cd0:	ff 25 52 72 21 00    	jmp    QWORD PTR [rip+0x217252]        # 219f28 <open@GLIBC_2.2.5>
2cd6:	68 59 00 00 00       	push   0x59
2cdb:	e9 50 fa ff ff       	jmp    2730 <.plt>

0000000000002ce0 <fseeko@plt>:
2ce0:	ff 25 4a 72 21 00    	jmp    QWORD PTR [rip+0x21724a]        # 219f30 <fseeko@GLIBC_2.2.5>
2ce6:	68 5a 00 00 00       	push   0x5a
2ceb:	e9 40 fa ff ff       	jmp    2730 <.plt>

0000000000002cf0 <fchown@plt>:
2cf0:	ff 25 42 72 21 00    	jmp    QWORD PTR [rip+0x217242]        # 219f38 <fchown@GLIBC_2.2.5>
2cf6:	68 5b 00 00 00       	push   0x5b
2cfb:	e9 30 fa ff ff       	jmp    2730 <.plt>

0000000000002d00 <fopen@plt>:
2d00:	ff 25 3a 72 21 00    	jmp    QWORD PTR [rip+0x21723a]        # 219f40 <fopen@GLIBC_2.2.5>
2d06:	68 5c 00 00 00       	push   0x5c
2d0b:	e9 20 fa ff ff       	jmp    2730 <.plt>

0000000000002d10 <rename@plt>:
2d10:	ff 25 32 72 21 00    	jmp    QWORD PTR [rip+0x217232]        # 219f48 <rename@GLIBC_2.2.5>
2d16:	68 5d 00 00 00       	push   0x5d
2d1b:	e9 10 fa ff ff       	jmp    2730 <.plt>

0000000000002d20 <fdopendir@plt>:
2d20:	ff 25 2a 72 21 00    	jmp    QWORD PTR [rip+0x21722a]        # 219f50 <fdopendir@GLIBC_2.4>
2d26:	68 5e 00 00 00       	push   0x5e
2d2b:	e9 00 fa ff ff       	jmp    2730 <.plt>

0000000000002d30 <futimens@plt>:
2d30:	ff 25 22 72 21 00    	jmp    QWORD PTR [rip+0x217222]        # 219f58 <futimens@GLIBC_2.6>
2d36:	68 5f 00 00 00       	push   0x5f
2d3b:	e9 f0 f9 ff ff       	jmp    2730 <.plt>

0000000000002d40 <euidaccess@plt>:
2d40:	ff 25 1a 72 21 00    	jmp    QWORD PTR [rip+0x21721a]        # 219f60 <euidaccess@GLIBC_2.2.5>
2d46:	68 60 00 00 00       	push   0x60
2d4b:	e9 e0 f9 ff ff       	jmp    2730 <.plt>

0000000000002d50 <__cxa_atexit@plt>:
2d50:	ff 25 12 72 21 00    	jmp    QWORD PTR [rip+0x217212]        # 219f68 <__cxa_atexit@GLIBC_2.2.5>
2d56:	68 61 00 00 00       	push   0x61
2d5b:	e9 d0 f9 ff ff       	jmp    2730 <.plt>

0000000000002d60 <renameat@plt>:
2d60:	ff 25 0a 72 21 00    	jmp    QWORD PTR [rip+0x21720a]        # 219f70 <renameat@GLIBC_2.4>
2d66:	68 62 00 00 00       	push   0x62
2d6b:	e9 c0 f9 ff ff       	jmp    2730 <.plt>

0000000000002d70 <getpagesize@plt>:
2d70:	ff 25 02 72 21 00    	jmp    QWORD PTR [rip+0x217202]        # 219f78 <getpagesize@GLIBC_2.2.5>
2d76:	68 63 00 00 00       	push   0x63
2d7b:	e9 b0 f9 ff ff       	jmp    2730 <.plt>

0000000000002d80 <getppid@plt>:
2d80:	ff 25 fa 71 21 00    	jmp    QWORD PTR [rip+0x2171fa]        # 219f80 <getppid@GLIBC_2.2.5>
2d86:	68 64 00 00 00       	push   0x64
2d8b:	e9 a0 f9 ff ff       	jmp    2730 <.plt>

0000000000002d90 <exit@plt>:
2d90:	ff 25 f2 71 21 00    	jmp    QWORD PTR [rip+0x2171f2]        # 219f88 <exit@GLIBC_2.2.5>
2d96:	68 65 00 00 00       	push   0x65
2d9b:	e9 90 f9 ff ff       	jmp    2730 <.plt>

0000000000002da0 <fwrite@plt>:
2da0:	ff 25 ea 71 21 00    	jmp    QWORD PTR [rip+0x2171ea]        # 219f90 <fwrite@GLIBC_2.2.5>
2da6:	68 66 00 00 00       	push   0x66
2dab:	e9 80 f9 ff ff       	jmp    2730 <.plt>

0000000000002db0 <__fprintf_chk@plt>:
2db0:	ff 25 e2 71 21 00    	jmp    QWORD PTR [rip+0x2171e2]        # 219f98 <__fprintf_chk@GLIBC_2.3.4>
2db6:	68 67 00 00 00       	push   0x67
2dbb:	e9 70 f9 ff ff       	jmp    2730 <.plt>

0000000000002dc0 <mbsinit@plt>:
2dc0:	ff 25 da 71 21 00    	jmp    QWORD PTR [rip+0x2171da]        # 219fa0 <mbsinit@GLIBC_2.2.5>
2dc6:	68 68 00 00 00       	push   0x68
2dcb:	e9 60 f9 ff ff       	jmp    2730 <.plt>

0000000000002dd0 <symlinkat@plt>:
2dd0:	ff 25 d2 71 21 00    	jmp    QWORD PTR [rip+0x2171d2]        # 219fa8 <symlinkat@GLIBC_2.4>
2dd6:	68 69 00 00 00       	push   0x69
2ddb:	e9 50 f9 ff ff       	jmp    2730 <.plt>

0000000000002de0 <iswprint@plt>:
2de0:	ff 25 ca 71 21 00    	jmp    QWORD PTR [rip+0x2171ca]        # 219fb0 <iswprint@GLIBC_2.2.5>
2de6:	68 6a 00 00 00       	push   0x6a
2deb:	e9 40 f9 ff ff       	jmp    2730 <.plt>

0000000000002df0 <futimesat@plt>:
2df0:	ff 25 c2 71 21 00    	jmp    QWORD PTR [rip+0x2171c2]        # 219fb8 <futimesat@GLIBC_2.4>
2df6:	68 6b 00 00 00       	push   0x6b
2dfb:	e9 30 f9 ff ff       	jmp    2730 <.plt>

0000000000002e00 <__ctype_b_loc@plt>:
2e00:	ff 25 ba 71 21 00    	jmp    QWORD PTR [rip+0x2171ba]        # 219fc0 <__ctype_b_loc@GLIBC_2.3>
2e06:	68 6c 00 00 00       	push   0x6c
2e0b:	e9 20 f9 ff ff       	jmp    2730 <.plt>

Disassembly of section .plt.got:

0000000000002e10 <free@plt>:
2e10:	ff 25 b2 71 21 00    	jmp    QWORD PTR [rip+0x2171b2]        # 219fc8 <free@GLIBC_2.2.5>
2e16:	66 90                	xchg   ax,ax

0000000000002e18 <__cxa_finalize@plt>:
2e18:	ff 25 d2 71 21 00    	jmp    QWORD PTR [rip+0x2171d2]        # 219ff0 <__cxa_finalize@GLIBC_2.2.5>
2e1e:	66 90                	xchg   ax,ax

Disassembly of section .text:

0000000000002e20 <fchmod_or_lchmod>:
2e20:	85 ff                	test   edi,edi
2e22:	48 89 f0             	mov    rax,rsi
2e25:	89 d6                	mov    esi,edx
2e27:	78 05                	js     2e2e <fchmod_or_lchmod+0xe>
2e29:	e9 42 fe ff ff       	jmp    2c70 <fchmod@plt>
2e2e:	48 89 c7             	mov    rdi,rax
2e31:	e9 5a fe ff ff       	jmp    2c90 <chmod@plt>

0000000000002e36 <restore_default_fscreatecon_or_die>:
2e36:	53                   	push   rbx
2e37:	e8 34 f9 ff ff       	call   2770 <__errno_location@plt>
2e3c:	48 8d 35 05 19 01 00 	lea    rsi,[rip+0x11905]        # 14748 <sparse_type+0x16c8>
2e43:	48 89 c3             	mov    rbx,rax
2e46:	ba 05 00 00 00       	mov    edx,0x5
2e4b:	31 ff                	xor    edi,edi
2e4d:	c7 00 5f 00 00 00    	mov    DWORD PTR [rax],0x5f
2e53:	e8 88 fa ff ff       	call   28e0 <dcgettext@plt>
2e58:	8b 33                	mov    esi,DWORD PTR [rbx]
2e5a:	48 89 c2             	mov    rdx,rax
2e5d:	bf 01 00 00 00       	mov    edi,0x1
2e62:	31 c0                	xor    eax,eax
2e64:	e8 47 fe ff ff       	call   2cb0 <error@plt>
2e69:	0f 1f 80 00 00 00 00 	nop    DWORD PTR [rax+0x0]

0000000000002e70 <main>:
2e70:	41 57                	push   r15
2e72:	41 56                	push   r14
2e74:	41 be 01 00 00 00    	mov    r14d,0x1
2e7a:	41 55                	push   r13
2e7c:	41 54                	push   r12
2e7e:	41 89 fc             	mov    r12d,edi
2e81:	55                   	push   rbp
2e82:	53                   	push   rbx
2e83:	48 89 f5             	mov    rbp,rsi
2e86:	4c 8d 2d f3 66 21 00 	lea    r13,[rip+0x2166f3]        # 219580 <long_opts>
2e8d:	48 8d 1d 88 fd 00 00 	lea    rbx,[rip+0xfd88]        # 12c1c <_IO_stdin_used+0x33c>
2e94:	48 81 ec 28 01 00 00 	sub    rsp,0x128
2e9b:	48 8b 3e             	mov    rdi,QWORD PTR [rsi]
2e9e:	64 48 8b 04 25 28 00 	mov    rax,QWORD PTR fs:0x28
2ea5:	00 00
2ea7:	48 89 84 24 18 01 00 	mov    QWORD PTR [rsp+0x118],rax
2eae:	00
2eaf:	31 c0                	xor    eax,eax
2eb1:	4c 8d 7c 24 30       	lea    r15,[rsp+0x30]
2eb6:	e8 d5 a0 00 00       	call   cf90 <set_program_name>
2ebb:	48 8d 35 84 21 01 00 	lea    rsi,[rip+0x12184]        # 15046 <sparse_type+0x1fc6>
2ec2:	bf 06 00 00 00       	mov    edi,0x6
2ec7:	e8 84 fd ff ff       	call   2c50 <setlocale@plt>
2ecc:	48 8d 35 68 fb 00 00 	lea    rsi,[rip+0xfb68]        # 12a3b <_IO_stdin_used+0x15b>
2ed3:	48 8d 3d e8 fa 00 00 	lea    rdi,[rip+0xfae8]        # 129c2 <_IO_stdin_used+0xe2>
2eda:	e8 d1 f9 ff ff       	call   28b0 <bindtextdomain@plt>
2edf:	48 8d 3d dc fa 00 00 	lea    rdi,[rip+0xfadc]        # 129c2 <_IO_stdin_used+0xe2>
2ee6:	e8 85 f9 ff ff       	call   2870 <textdomain@plt>
2eeb:	48 8d 3d de 83 00 00 	lea    rdi,[rip+0x83de]        # b2d0 <close_stdin>
2ef2:	e8 b9 f9 00 00       	call   128b0 <atexit>
2ef7:	4c 89 ff             	mov    rdi,r15
2efa:	c6 05 51 72 21 00 00 	mov    BYTE PTR [rip+0x217251],0x0        # 21a152 <selinux_enabled>
2f01:	e8 ca 28 00 00       	call   57d0 <cp_options_default>
2f06:	48 8d 3d 46 fb 00 00 	lea    rdi,[rip+0xfb46]        # 12a53 <_IO_stdin_used+0x173>
2f0d:	c6 44 24 44 01       	mov    BYTE PTR [rsp+0x44],0x1
2f12:	c7 44 24 34 01 00 00 	mov    DWORD PTR [rsp+0x34],0x1
2f19:	00
2f1a:	c6 44 24 45 00       	mov    BYTE PTR [rsp+0x45],0x0
2f1f:	c6 44 24 46 00       	mov    BYTE PTR [rsp+0x46],0x0
2f24:	c6 44 24 47 00       	mov    BYTE PTR [rsp+0x47],0x0
2f29:	c7 44 24 38 04 00 00 	mov    DWORD PTR [rsp+0x38],0x4
2f30:	00
2f31:	c6 44 24 48 00       	mov    BYTE PTR [rsp+0x48],0x0
2f36:	c6 44 24 49 00       	mov    BYTE PTR [rsp+0x49],0x0
2f3b:	c6 44 24 4c 00       	mov    BYTE PTR [rsp+0x4c],0x0
2f40:	c7 44 24 68 00 00 00 	mov    DWORD PTR [rsp+0x68],0x0
2f47:	00
2f48:	c6 44 24 4d 00       	mov    BYTE PTR [rsp+0x4d],0x0
2f4d:	c6 44 24 52 00       	mov    BYTE PTR [rsp+0x52],0x0
2f52:	c6 44 24 4e 00       	mov    BYTE PTR [rsp+0x4e],0x0
2f57:	c6 44 24 4f 00       	mov    BYTE PTR [rsp+0x4f],0x0
2f5c:	c6 44 24 50 00       	mov    BYTE PTR [rsp+0x50],0x0
2f61:	c6 44 24 55 00       	mov    BYTE PTR [rsp+0x55],0x0
2f66:	c6 44 24 56 00       	mov    BYTE PTR [rsp+0x56],0x0
2f6b:	c6 44 24 51 00       	mov    BYTE PTR [rsp+0x51],0x0
2f70:	c6 44 24 57 00       	mov    BYTE PTR [rsp+0x57],0x0
2f75:	c6 44 24 59 00       	mov    BYTE PTR [rsp+0x59],0x0
2f7a:	c6 44 24 58 00       	mov    BYTE PTR [rsp+0x58],0x0
2f7f:	c6 44 24 53 01       	mov    BYTE PTR [rsp+0x53],0x1
2f84:	c6 44 24 54 00       	mov    BYTE PTR [rsp+0x54],0x0
2f89:	c6 44 24 5a 00       	mov    BYTE PTR [rsp+0x5a],0x0
2f8e:	c7 44 24 3c 02 00 00 	mov    DWORD PTR [rsp+0x3c],0x2
2f95:	00
2f96:	c6 44 24 5c 00       	mov    BYTE PTR [rsp+0x5c],0x0
2f9b:	c6 44 24 5b 00       	mov    BYTE PTR [rsp+0x5b],0x0
2fa0:	c7 44 24 40 00 00 00 	mov    DWORD PTR [rsp+0x40],0x0
2fa7:	00
2fa8:	c6 44 24 5f 00       	mov    BYTE PTR [rsp+0x5f],0x0
2fad:	c6 44 24 5d 00       	mov    BYTE PTR [rsp+0x5d],0x0
2fb2:	c6 44 24 5e 00       	mov    BYTE PTR [rsp+0x5e],0x0
2fb7:	e8 84 f7 ff ff       	call   2740 <getenv@plt>
2fbc:	48 85 c0             	test   rax,rax
2fbf:	48 8d 84 24 80 00 00 	lea    rax,[rsp+0x80]
2fc6:	00
2fc7:	48 c7 44 24 70 00 00 	mov    QWORD PTR [rsp+0x70],0x0
2fce:	00 00
2fd0:	0f 95 44 24 60       	setne  BYTE PTR [rsp+0x60]
2fd5:	48 c7 44 24 78 00 00 	mov    QWORD PTR [rsp+0x78],0x0
2fdc:	00 00
2fde:	48 c7 44 24 20 00 00 	mov    QWORD PTR [rsp+0x20],0x0
2fe5:	00 00
2fe7:	c6 44 24 1e 00       	mov    BYTE PTR [rsp+0x1e],0x0
2fec:	48 c7 04 24 00 00 00 	mov    QWORD PTR [rsp],0x0
2ff3:	00
2ff4:	c6 44 24 1f 00       	mov    BYTE PTR [rsp+0x1f],0x0
2ff9:	48 c7 44 24 08 00 00 	mov    QWORD PTR [rsp+0x8],0x0
3000:	00 00
3002:	48 c7 44 24 10 00 00 	mov    QWORD PTR [rsp+0x10],0x0
3009:	00 00
300b:	c6 44 24 1d 00       	mov    BYTE PTR [rsp+0x1d],0x0
3010:	48 89 44 24 28       	mov    QWORD PTR [rsp+0x28],rax
3015:	0f 1f 00             	nop    DWORD PTR [rax]
3018:	48 8d 15 86 fa 00 00 	lea    rdx,[rip+0xfa86]        # 12aa5 <_IO_stdin_used+0x1c5>
301f:	45 31 c0             	xor    r8d,r8d
3022:	4c 89 e9             	mov    rcx,r13
3025:	48 89 ee             	mov    rsi,rbp
3028:	44 89 e7             	mov    edi,r12d
302b:	e8 20 f9 ff ff       	call   2950 <getopt_long@plt>
3030:	83 f8 ff             	cmp    eax,0xffffffff
3033:	0f 84 67 03 00 00    	je     33a0 <main+0x530>
3039:	05 83 00 00 00       	add    eax,0x83
303e:	3d 0b 01 00 00       	cmp    eax,0x10b
3043:	0f 87 a3 05 00 00    	ja     35ec <main+0x77c>
3049:	48 63 04 83          	movsxd rax,DWORD PTR [rbx+rax*4]
304d:	48 01 d8             	add    rax,rbx
3050:	ff e0                	jmp    rax
3052:	48 8b 3d 67 70 21 00 	mov    rdi,QWORD PTR [rip+0x217067]        # 21a0c0 <optarg@@GLIBC_2.2.5>
3059:	48 85 ff             	test   rdi,rdi
305c:	0f 85 eb 02 00 00    	jne    334d <main+0x4dd>
3062:	44 88 74 24 4d       	mov    BYTE PTR [rsp+0x4d],r14b
3067:	44 88 74 24 4e       	mov    BYTE PTR [rsp+0x4e],r14b
306c:	44 88 74 24 4f       	mov    BYTE PTR [rsp+0x4f],r14b
3071:	44 88 74 24 54       	mov    BYTE PTR [rsp+0x54],r14b
3076:	eb a0                	jmp    3018 <main+0x1a8>
3078:	c7 44 24 38 02 00 00 	mov    DWORD PTR [rsp+0x38],0x2
307f:	00
3080:	eb 96                	jmp    3018 <main+0x1a8>
3082:	44 88 74 24 47       	mov    BYTE PTR [rsp+0x47],r14b
3087:	eb 8f                	jmp    3018 <main+0x1a8>
3089:	c7 44 24 38 03 00 00 	mov    DWORD PTR [rsp+0x38],0x3
3090:	00
3091:	eb 85                	jmp    3018 <main+0x1a8>
3093:	44 88 74 24 46       	mov    BYTE PTR [rsp+0x46],r14b
3098:	e9 7b ff ff ff       	jmp    3018 <main+0x1a8>
309d:	44 88 74 24 52       	mov    BYTE PTR [rsp+0x52],r14b
30a2:	c7 44 24 34 02 00 00 	mov    DWORD PTR [rsp+0x34],0x2
30a9:	00
30aa:	e9 69 ff ff ff       	jmp    3018 <main+0x1a8>
30af:	48 8b 05 0a 70 21 00 	mov    rax,QWORD PTR [rip+0x21700a]        # 21a0c0 <optarg@@GLIBC_2.2.5>
30b6:	c6 44 24 1d 01       	mov    BYTE PTR [rsp+0x1d],0x1
30bb:	48 85 c0             	test   rax,rax
30be:	48 0f 44 44 24 08    	cmove  rax,QWORD PTR [rsp+0x8]
30c4:	48 89 44 24 08       	mov    QWORD PTR [rsp+0x8],rax
30c9:	e9 4a ff ff ff       	jmp    3018 <main+0x1a8>
30ce:	80 3d 7d 70 21 00 00 	cmp    BYTE PTR [rip+0x21707d],0x0        # 21a152 <selinux_enabled>
30d5:	c7 44 24 34 02 00 00 	mov    DWORD PTR [rsp+0x34],0x2
30dc:	00
30dd:	44 88 74 24 52       	mov    BYTE PTR [rsp+0x52],r14b
30e2:	44 88 74 24 4d       	mov    BYTE PTR [rsp+0x4d],r14b
30e7:	44 88 74 24 4e       	mov    BYTE PTR [rsp+0x4e],r14b
30ec:	44 88 74 24 4f       	mov    BYTE PTR [rsp+0x4f],r14b
30f1:	44 88 74 24 54       	mov    BYTE PTR [rsp+0x54],r14b
30f6:	74 05                	je     30fd <main+0x28d>
30f8:	44 88 74 24 55       	mov    BYTE PTR [rsp+0x55],r14b
30fd:	44 88 74 24 57       	mov    BYTE PTR [rsp+0x57],r14b
3102:	44 88 74 24 59       	mov    BYTE PTR [rsp+0x59],r14b
3107:	44 88 74 24 5a       	mov    BYTE PTR [rsp+0x5a],r14b
310c:	e9 07 ff ff ff       	jmp    3018 <main+0x1a8>
3111:	80 3d 3a 70 21 00 00 	cmp    BYTE PTR [rip+0x21703a],0x0        # 21a152 <selinux_enabled>
3118:	48 8b 05 a1 6f 21 00 	mov    rax,QWORD PTR [rip+0x216fa1]        # 21a0c0 <optarg@@GLIBC_2.2.5>
311f:	0f 84 3f 02 00 00    	je     3364 <main+0x4f4>
3125:	48 85 c0             	test   rax,rax
3128:	0f 84 43 04 00 00    	je     3571 <main+0x701>
312e:	48 89 44 24 20       	mov    QWORD PTR [rsp+0x20],rax
3133:	e9 e0 fe ff ff       	jmp    3018 <main+0x1a8>
3138:	c6 44 24 1e 01       	mov    BYTE PTR [rsp+0x1e],0x1
313d:	e9 d6 fe ff ff       	jmp    3018 <main+0x1a8>
3142:	48 8b 05 77 6f 21 00 	mov    rax,QWORD PTR [rip+0x216f77]        # 21a0c0 <optarg@@GLIBC_2.2.5>
3149:	c6 44 24 1d 01       	mov    BYTE PTR [rsp+0x1d],0x1
314e:	48 89 44 24 10       	mov    QWORD PTR [rsp+0x10],rax
3153:	e9 c0 fe ff ff       	jmp    3018 <main+0x1a8>
3158:	44 88 74 24 5a       	mov    BYTE PTR [rsp+0x5a],r14b
315d:	e9 b6 fe ff ff       	jmp    3018 <main+0x1a8>
3162:	c7 44 24 34 02 00 00 	mov    DWORD PTR [rsp+0x34],0x2
3169:	00
316a:	e9 a9 fe ff ff       	jmp    3018 <main+0x1a8>
316f:	c7 44 24 34 04 00 00 	mov    DWORD PTR [rsp+0x34],0x4
3176:	00
3177:	e9 9c fe ff ff       	jmp    3018 <main+0x1a8>
317c:	c7 44 24 34 03 00 00 	mov    DWORD PTR [rsp+0x34],0x3
3183:	00
3184:	e9 8f fe ff ff       	jmp    3018 <main+0x1a8>
3189:	48 8d 05 08 f9 00 00 	lea    rax,[rip+0xf908]        # 12a98 <_IO_stdin_used+0x1b8>
3190:	48 8b 3d 11 6f 21 00 	mov    rdi,QWORD PTR [rip+0x216f11]        # 21a0a8 <stdout@@GLIBC_2.2.5>
3197:	48 8b 0d 82 6e 21 00 	mov    rcx,QWORD PTR [rip+0x216e82]        # 21a020 <Version>
319e:	6a 00                	push   0x0
31a0:	4c 8d 0d cf f8 00 00 	lea    r9,[rip+0xf8cf]        # 12a76 <_IO_stdin_used+0x196>
31a7:	4c 8d 05 d8 f8 00 00 	lea    r8,[rip+0xf8d8]        # 12a86 <_IO_stdin_used+0x1a6>
31ae:	50                   	push   rax
31af:	48 8d 15 08 f8 00 00 	lea    rdx,[rip+0xf808]        # 129be <_IO_stdin_used+0xde>
31b6:	48 8d 35 88 f7 00 00 	lea    rsi,[rip+0xf788]        # 12945 <_IO_stdin_used+0x65>
31bd:	31 c0                	xor    eax,eax
31bf:	e8 bc dc 00 00       	call   10e80 <version_etc>
31c4:	31 ff                	xor    edi,edi
31c6:	e8 c5 fb ff ff       	call   2d90 <exit@plt>
31cb:	44 88 74 24 45       	mov    BYTE PTR [rsp+0x45],r14b
31d0:	e9 43 fe ff ff       	jmp    3018 <main+0x1a8>
31d5:	44 88 35 74 6f 21 00 	mov    BYTE PTR [rip+0x216f74],r14b        # 21a150 <remove_trailing_slashes>
31dc:	e9 37 fe ff ff       	jmp    3018 <main+0x1a8>
31e1:	4c 8b 0d 40 6e 21 00 	mov    r9,QWORD PTR [rip+0x216e40]        # 21a028 <argmatch_die>
31e8:	48 8b 35 d1 6e 21 00 	mov    rsi,QWORD PTR [rip+0x216ed1]        # 21a0c0 <optarg@@GLIBC_2.2.5>
31ef:	48 8d 15 6a 67 21 00 	lea    rdx,[rip+0x21676a]        # 219960 <sparse_type_string>
31f6:	48 8d 0d 83 fe 00 00 	lea    rcx,[rip+0xfe83]        # 13080 <sparse_type>
31fd:	48 8d 3d 5f f8 00 00 	lea    rdi,[rip+0xf85f]        # 12a63 <_IO_stdin_used+0x183>
3204:	41 b8 04 00 00 00    	mov    r8d,0x4
320a:	e8 31 78 00 00       	call   aa40 <__xargmatch_internal>
320f:	48 8d 15 6a fe 00 00 	lea    rdx,[rip+0xfe6a]        # 13080 <sparse_type>
3216:	8b 04 82             	mov    eax,DWORD PTR [rdx+rax*4]
3219:	89 44 24 3c          	mov    DWORD PTR [rsp+0x3c],eax
321d:	e9 f6 fd ff ff       	jmp    3018 <main+0x1a8>
3222:	48 8b 35 97 6e 21 00 	mov    rsi,QWORD PTR [rip+0x216e97]        # 21a0c0 <optarg@@GLIBC_2.2.5>
3229:	48 85 f6             	test   rsi,rsi
322c:	0f 84 61 01 00 00    	je     3393 <main+0x523>
3232:	4c 8b 0d ef 6d 21 00 	mov    r9,QWORD PTR [rip+0x216def]        # 21a028 <argmatch_die>
3239:	48 8d 15 00 67 21 00 	lea    rdx,[rip+0x216700]        # 219940 <reflink_type_string>
3240:	48 8d 0d 29 fe 00 00 	lea    rcx,[rip+0xfe29]        # 13070 <reflink_type>
3247:	48 8d 3d 1e f8 00 00 	lea    rdi,[rip+0xf81e]        # 12a6c <_IO_stdin_used+0x18c>
324e:	41 b8 04 00 00 00    	mov    r8d,0x4
3254:	e8 e7 77 00 00       	call   aa40 <__xargmatch_internal>
3259:	48 8d 15 10 fe 00 00 	lea    rdx,[rip+0xfe10]        # 13070 <reflink_type>
3260:	8b 04 82             	mov    eax,DWORD PTR [rdx+rax*4]
3263:	89 44 24 68          	mov    DWORD PTR [rsp+0x68],eax
3267:	e9 ac fd ff ff       	jmp    3018 <main+0x1a8>
326c:	44 88 35 de 6e 21 00 	mov    BYTE PTR [rip+0x216ede],r14b        # 21a151 <parents_option>
3273:	e9 a0 fd ff ff       	jmp    3018 <main+0x1a8>
3278:	48 8b 3d 41 6e 21 00 	mov    rdi,QWORD PTR [rip+0x216e41]        # 21a0c0 <optarg@@GLIBC_2.2.5>
327f:	31 d2                	xor    edx,edx
3281:	4c 89 fe             	mov    rsi,r15
3284:	e8 57 05 00 00       	call   37e0 <decode_preserve_arg>
3289:	e9 8a fd ff ff       	jmp    3018 <main+0x1a8>
328e:	c6 44 24 1f 01       	mov    BYTE PTR [rsp+0x1f],0x1
3293:	e9 80 fd ff ff       	jmp    3018 <main+0x1a8>
3298:	c6 44 24 53 00       	mov    BYTE PTR [rsp+0x53],0x0
329d:	e9 76 fd ff ff       	jmp    3018 <main+0x1a8>
32a2:	44 88 74 24 4c       	mov    BYTE PTR [rsp+0x4c],r14b
32a7:	e9 6c fd ff ff       	jmp    3018 <main+0x1a8>
32ac:	44 88 74 24 5e       	mov    BYTE PTR [rsp+0x5e],r14b
32b1:	e9 62 fd ff ff       	jmp    3018 <main+0x1a8>
32b6:	44 88 74 24 5d       	mov    BYTE PTR [rsp+0x5d],r14b
32bb:	e9 58 fd ff ff       	jmp    3018 <main+0x1a8>
32c0:	48 83 3c 24 00       	cmp    QWORD PTR [rsp],0x0
32c5:	0f 85 2b 03 00 00    	jne    35f6 <main+0x786>
32cb:	48 8b 54 24 28       	mov    rdx,QWORD PTR [rsp+0x28]
32d0:	48 8b 35 e9 6d 21 00 	mov    rsi,QWORD PTR [rip+0x216de9]        # 21a0c0 <optarg@@GLIBC_2.2.5>
32d7:	bf 01 00 00 00       	mov    edi,0x1
32dc:	e8 bf f8 ff ff       	call   2ba0 <__xstat@plt>
32e1:	85 c0                	test   eax,eax
32e3:	0f 85 9c 03 00 00    	jne    3685 <main+0x815>
32e9:	48 8b 05 d0 6d 21 00 	mov    rax,QWORD PTR [rip+0x216dd0]        # 21a0c0 <optarg@@GLIBC_2.2.5>
32f0:	48 89 04 24          	mov    QWORD PTR [rsp],rax
32f4:	8b 84 24 98 00 00 00 	mov    eax,DWORD PTR [rsp+0x98]
32fb:	25 00 f0 00 00       	and    eax,0xf000
3300:	3d 00 40 00 00       	cmp    eax,0x4000
3305:	0f 84 0d fd ff ff    	je     3018 <main+0x1a8>
330b:	48 8b 34 24          	mov    rsi,QWORD PTR [rsp]
330f:	bf 04 00 00 00       	mov    edi,0x4
3314:	e8 97 b7 00 00       	call   eab0 <quotearg_style>
3319:	48 8d 35 fb f6 00 00 	lea    rsi,[rip+0xf6fb]        # 12a1b <_IO_stdin_used+0x13b>
3320:	48 89 c3             	mov    rbx,rax
3323:	ba 05 00 00 00       	mov    edx,0x5
3328:	31 ff                	xor    edi,edi
332a:	e8 b1 f5 ff ff       	call   28e0 <dcgettext@plt>
332f:	48 89 d9             	mov    rcx,rbx
3332:	48 89 c2             	mov    rdx,rax
3335:	31 f6                	xor    esi,esi
3337:	bf 01 00 00 00       	mov    edi,0x1
333c:	31 c0                	xor    eax,eax
333e:	e8 6d f9 ff ff       	call   2cb0 <error@plt>
3343:	44 88 74 24 5c       	mov    BYTE PTR [rsp+0x5c],r14b
3348:	e9 cb fc ff ff       	jmp    3018 <main+0x1a8>
334d:	ba 01 00 00 00       	mov    edx,0x1
3352:	4c 89 fe             	mov    rsi,r15
3355:	e8 86 04 00 00       	call   37e0 <decode_preserve_arg>
335a:	44 88 74 24 54       	mov    BYTE PTR [rsp+0x54],r14b
335f:	e9 b4 fc ff ff       	jmp    3018 <main+0x1a8>
3364:	48 85 c0             	test   rax,rax
3367:	0f 84 ab fc ff ff    	je     3018 <main+0x1a8>
336d:	48 8d 35 f4 11 01 00 	lea    rsi,[rip+0x111f4]        # 14568 <sparse_type+0x14e8>
3374:	31 ff                	xor    edi,edi
3376:	ba 05 00 00 00       	mov    edx,0x5
337b:	e8 60 f5 ff ff       	call   28e0 <dcgettext@plt>
3380:	31 f6                	xor    esi,esi
3382:	48 89 c2             	mov    rdx,rax
3385:	31 ff                	xor    edi,edi
3387:	31 c0                	xor    eax,eax
3389:	e8 22 f9 ff ff       	call   2cb0 <error@plt>
338e:	e9 85 fc ff ff       	jmp    3018 <main+0x1a8>
3393:	c7 44 24 68 02 00 00 	mov    DWORD PTR [rsp+0x68],0x2
339a:	00
339b:	e9 78 fc ff ff       	jmp    3018 <main+0x1a8>
33a0:	80 7c 24 47 00       	cmp    BYTE PTR [rsp+0x47],0x0
33a5:	0f 85 f7 00 00 00    	jne    34a2 <main+0x632>
33ab:	83 7c 24 38 02       	cmp    DWORD PTR [rsp+0x38],0x2
33b0:	0f 84 08 01 00 00    	je     34be <main+0x64e>
33b6:	80 7c 24 1d 00       	cmp    BYTE PTR [rsp+0x1d],0x0
33bb:	0f 84 0d 01 00 00    	je     34ce <main+0x65e>
33c1:	83 7c 24 68 02       	cmp    DWORD PTR [rsp+0x68],0x2
33c6:	0f 84 af 01 00 00    	je     357b <main+0x70b>
33cc:	48 8d 35 ea f6 00 00 	lea    rsi,[rip+0xf6ea]        # 12abd <_IO_stdin_used+0x1dd>
33d3:	31 ff                	xor    edi,edi
33d5:	ba 05 00 00 00       	mov    edx,0x5
33da:	e8 01 f5 ff ff       	call   28e0 <dcgettext@plt>
33df:	48 8b 74 24 08       	mov    rsi,QWORD PTR [rsp+0x8]
33e4:	48 89 c7             	mov    rdi,rax
33e7:	e8 14 7e 00 00       	call   b200 <xget_version>
33ec:	48 8b 7c 24 10       	mov    rdi,QWORD PTR [rsp+0x10]
33f1:	89 44 24 30          	mov    DWORD PTR [rsp+0x30],eax
33f5:	e8 06 77 00 00       	call   ab00 <set_simple_backup_suffix>
33fa:	83 7c 24 34 01       	cmp    DWORD PTR [rsp+0x34],0x1
33ff:	0f 84 f2 00 00 00    	je     34f7 <main+0x687>
3405:	80 7c 24 5a 00       	cmp    BYTE PTR [rsp+0x5a],0x0
340a:	0f 85 fd 00 00 00    	jne    350d <main+0x69d>
3410:	80 7c 24 51 00       	cmp    BYTE PTR [rsp+0x51],0x0
3415:	0f b6 44 24 56       	movzx  eax,BYTE PTR [rsp+0x56]
341a:	75 0c                	jne    3428 <main+0x5b8>
341c:	48 83 7c 24 20 00    	cmp    QWORD PTR [rsp+0x20],0x0
3422:	0f 84 1e 01 00 00    	je     3546 <main+0x6d6>
3428:	84 c0                	test   al,al
342a:	0f 85 eb 00 00 00    	jne    351b <main+0x6ab>
3430:	c6 44 24 55 00       	mov    BYTE PTR [rsp+0x55],0x0
3435:	48 83 7c 24 20 00    	cmp    QWORD PTR [rsp+0x20],0x0
343b:	0f 85 02 02 00 00    	jne    3643 <main+0x7d3>
3441:	80 7c 24 58 00       	cmp    BYTE PTR [rsp+0x58],0x0
3446:	0f 85 d3 01 00 00    	jne    361f <main+0x7af>
344c:	e8 4f 6a 00 00       	call   9ea0 <hash_init>
3451:	48 63 15 60 6c 21 00 	movsxd rdx,DWORD PTR [rip+0x216c60]        # 21a0b8 <optind@@GLIBC_2.2.5>
3458:	0f b6 4c 24 1e       	movzx  ecx,BYTE PTR [rsp+0x1e]
345d:	44 89 e7             	mov    edi,r12d
3460:	4d 89 f8             	mov    r8,r15
3463:	29 d7                	sub    edi,edx
3465:	48 8d 74 d5 00       	lea    rsi,[rbp+rdx*8+0x0]
346a:	48 8b 14 24          	mov    rdx,QWORD PTR [rsp]
346e:	e8 6d 13 00 00       	call   47e0 <do_copy>
3473:	83 f0 01             	xor    eax,0x1
3476:	48 8b 8c 24 18 01 00 	mov    rcx,QWORD PTR [rsp+0x118]
347d:	00
347e:	64 48 33 0c 25 28 00 	xor    rcx,QWORD PTR fs:0x28
3485:	00 00
3487:	0f b6 c0             	movzx  eax,al
348a:	0f 85 8a 01 00 00    	jne    361a <main+0x7aa>
3490:	48 81 c4 28 01 00 00 	add    rsp,0x128
3497:	5b                   	pop    rbx
3498:	5d                   	pop    rbp
3499:	41 5c                	pop    r12
349b:	41 5d                	pop    r13
349d:	41 5e                	pop    r14
349f:	41 5f                	pop    r15
34a1:	c3                   	ret
34a2:	80 7c 24 5c 00       	cmp    BYTE PTR [rsp+0x5c],0x0
34a7:	0f 84 fe fe ff ff    	je     33ab <main+0x53b>
34ad:	ba 05 00 00 00       	mov    edx,0x5
34b2:	48 8d 35 f7 10 01 00 	lea    rsi,[rip+0x110f7]        # 145b0 <sparse_type+0x1530>
34b9:	e9 19 01 00 00       	jmp    35d7 <main+0x767>
34be:	80 7c 24 1d 00       	cmp    BYTE PTR [rsp+0x1d],0x0
34c3:	c6 44 24 5d 00       	mov    BYTE PTR [rsp+0x5d],0x0
34c8:	0f 85 fd 00 00 00    	jne    35cb <main+0x75b>
34ce:	31 c0                	xor    eax,eax
34d0:	83 7c 24 68 02       	cmp    DWORD PTR [rsp+0x68],0x2
34d5:	0f 85 11 ff ff ff    	jne    33ec <main+0x57c>
34db:	83 7c 24 3c 02       	cmp    DWORD PTR [rsp+0x3c],0x2
34e0:	0f 84 06 ff ff ff    	je     33ec <main+0x57c>
34e6:	ba 05 00 00 00       	mov    edx,0x5
34eb:	48 8d 35 2e 11 01 00 	lea    rsi,[rip+0x1112e]        # 14620 <sparse_type+0x15a0>
34f2:	e9 e0 00 00 00       	jmp    35d7 <main+0x767>
34f7:	80 7c 24 5a 00       	cmp    BYTE PTR [rsp+0x5a],0x0
34fc:	74 66                	je     3564 <main+0x6f4>
34fe:	80 7c 24 47 00       	cmp    BYTE PTR [rsp+0x47],0x0
3503:	75 5f                	jne    3564 <main+0x6f4>
3505:	c7 44 24 34 02 00 00 	mov    DWORD PTR [rsp+0x34],0x2
350c:	00
350d:	0f b6 44 24 1f       	movzx  eax,BYTE PTR [rsp+0x1f]
3512:	88 44 24 44          	mov    BYTE PTR [rsp+0x44],al
3516:	e9 f5 fe ff ff       	jmp    3410 <main+0x5a0>
351b:	80 7c 24 55 00       	cmp    BYTE PTR [rsp+0x55],0x0
3520:	74 33                	je     3555 <main+0x6e5>
3522:	48 8d 35 27 11 01 00 	lea    rsi,[rip+0x11127]        # 14650 <sparse_type+0x15d0>
3529:	ba 05 00 00 00       	mov    edx,0x5
352e:	31 ff                	xor    edi,edi
3530:	e8 ab f3 ff ff       	call   28e0 <dcgettext@plt>
3535:	31 f6                	xor    esi,esi
3537:	48 89 c2             	mov    rdx,rax
353a:	bf 01 00 00 00       	mov    edi,0x1
353f:	31 c0                	xor    eax,eax
3541:	e8 6a f7 ff ff       	call   2cb0 <error@plt>
3546:	80 7c 24 55 00       	cmp    BYTE PTR [rsp+0x55],0x0
354b:	74 3e                	je     358b <main+0x71b>
354d:	84 c0                	test   al,al
354f:	0f 84 ec fe ff ff    	je     3441 <main+0x5d1>
3555:	80 3d f6 6b 21 00 00 	cmp    BYTE PTR [rip+0x216bf6],0x0        # 21a152 <selinux_enabled>
355c:	0f 85 d3 fe ff ff    	jne    3435 <main+0x5c5>
3562:	eb 3c                	jmp    35a0 <main+0x730>
3564:	c7 44 24 34 04 00 00 	mov    DWORD PTR [rsp+0x34],0x4
356b:	00
356c:	e9 94 fe ff ff       	jmp    3405 <main+0x595>
3571:	44 88 74 24 51       	mov    BYTE PTR [rsp+0x51],r14b
3576:	e9 9d fa ff ff       	jmp    3018 <main+0x1a8>
357b:	83 7c 24 3c 02       	cmp    DWORD PTR [rsp+0x3c],0x2
3580:	0f 84 46 fe ff ff    	je     33cc <main+0x55c>
3586:	e9 5b ff ff ff       	jmp    34e6 <main+0x676>
358b:	84 c0                	test   al,al
358d:	0f 84 ae fe ff ff    	je     3441 <main+0x5d1>
3593:	80 3d b8 6b 21 00 00 	cmp    BYTE PTR [rip+0x216bb8],0x0        # 21a152 <selinux_enabled>
359a:	0f 85 a1 fe ff ff    	jne    3441 <main+0x5d1>
35a0:	48 8d 35 d9 10 01 00 	lea    rsi,[rip+0x110d9]        # 14680 <sparse_type+0x1600>
35a7:	ba 05 00 00 00       	mov    edx,0x5
35ac:	31 ff                	xor    edi,edi
35ae:	e8 2d f3 ff ff       	call   28e0 <dcgettext@plt>
35b3:	31 f6                	xor    esi,esi
35b5:	48 89 c2             	mov    rdx,rax
35b8:	bf 01 00 00 00       	mov    edi,0x1
35bd:	31 c0                	xor    eax,eax
35bf:	e8 ec f6 ff ff       	call   2cb0 <error@plt>
35c4:	31 ff                	xor    edi,edi
35c6:	e8 55 0c 00 00       	call   4220 <usage>
35cb:	48 8d 35 0e 10 01 00 	lea    rsi,[rip+0x1100e]        # 145e0 <sparse_type+0x1560>
35d2:	ba 05 00 00 00       	mov    edx,0x5
35d7:	31 ff                	xor    edi,edi
35d9:	e8 02 f3 ff ff       	call   28e0 <dcgettext@plt>
35de:	31 f6                	xor    esi,esi
35e0:	48 89 c2             	mov    rdx,rax
35e3:	31 ff                	xor    edi,edi
35e5:	31 c0                	xor    eax,eax
35e7:	e8 c4 f6 ff ff       	call   2cb0 <error@plt>
35ec:	bf 01 00 00 00       	mov    edi,0x1
35f1:	e8 2a 0c 00 00       	call   4220 <usage>
35f6:	48 8d 35 43 0f 01 00 	lea    rsi,[rip+0x10f43]        # 14540 <sparse_type+0x14c0>
35fd:	ba 05 00 00 00       	mov    edx,0x5
3602:	31 ff                	xor    edi,edi
3604:	e8 d7 f2 ff ff       	call   28e0 <dcgettext@plt>
3609:	31 f6                	xor    esi,esi
360b:	48 89 c2             	mov    rdx,rax
360e:	bf 01 00 00 00       	mov    edi,0x1
3613:	31 c0                	xor    eax,eax
3615:	e8 96 f6 ff ff       	call   2cb0 <error@plt>
361a:	e8 11 f3 ff ff       	call   2930 <__stack_chk_fail@plt>
361f:	48 8d 35 da 10 01 00 	lea    rsi,[rip+0x110da]        # 14700 <sparse_type+0x1680>
3626:	ba 05 00 00 00       	mov    edx,0x5
362b:	31 ff                	xor    edi,edi
362d:	e8 ae f2 ff ff       	call   28e0 <dcgettext@plt>
3632:	31 f6                	xor    esi,esi
3634:	48 89 c2             	mov    rdx,rax
3637:	bf 01 00 00 00       	mov    edi,0x1
363c:	31 c0                	xor    eax,eax
363e:	e8 6d f6 ff ff       	call   2cb0 <error@plt>
3643:	e8 28 f1 ff ff       	call   2770 <__errno_location@plt>
3648:	48 8b 7c 24 20       	mov    rdi,QWORD PTR [rsp+0x20]
364d:	c7 00 5f 00 00 00    	mov    DWORD PTR [rax],0x5f
3653:	48 89 c3             	mov    rbx,rax
3656:	e8 25 b7 00 00       	call   ed80 <quote>
365b:	48 8d 35 66 10 01 00 	lea    rsi,[rip+0x11066]        # 146c8 <sparse_type+0x1648>
3662:	ba 05 00 00 00       	mov    edx,0x5
3667:	31 ff                	xor    edi,edi
3669:	48 89 c5             	mov    rbp,rax
366c:	e8 6f f2 ff ff       	call   28e0 <dcgettext@plt>
3671:	8b 33                	mov    esi,DWORD PTR [rbx]
3673:	48 89 c2             	mov    rdx,rax
3676:	48 89 e9             	mov    rcx,rbp
3679:	bf 01 00 00 00       	mov    edi,0x1
367e:	31 c0                	xor    eax,eax
3680:	e8 2b f6 ff ff       	call   2cb0 <error@plt>
3685:	48 8b 35 34 6a 21 00 	mov    rsi,QWORD PTR [rip+0x216a34]        # 21a0c0 <optarg@@GLIBC_2.2.5>
368c:	bf 04 00 00 00       	mov    edi,0x4
3691:	e8 1a b4 00 00       	call   eab0 <quotearg_style>
3696:	48 8d 35 60 f2 00 00 	lea    rsi,[rip+0xf260]        # 128fd <_IO_stdin_used+0x1d>
369d:	ba 05 00 00 00       	mov    edx,0x5
36a2:	31 ff                	xor    edi,edi
36a4:	48 89 c5             	mov    rbp,rax
36a7:	e8 34 f2 ff ff       	call   28e0 <dcgettext@plt>
36ac:	48 89 c3             	mov    rbx,rax
36af:	e8 bc f0 ff ff       	call   2770 <__errno_location@plt>
36b4:	8b 30                	mov    esi,DWORD PTR [rax]
36b6:	48 89 e9             	mov    rcx,rbp
36b9:	48 89 da             	mov    rdx,rbx
36bc:	bf 01 00 00 00       	mov    edi,0x1
36c1:	31 c0                	xor    eax,eax
36c3:	e8 e8 f5 ff ff       	call   2cb0 <error@plt>
36c8:	0f 1f 84 00 00 00 00 	nop    DWORD PTR [rax+rax*1+0x0]
36cf:	00

00000000000036d0 <_start>:
36d0:	31 ed                	xor    ebp,ebp
36d2:	49 89 d1             	mov    r9,rdx
36d5:	5e                   	pop    rsi
36d6:	48 89 e2             	mov    rdx,rsp
36d9:	48 83 e4 f0          	and    rsp,0xfffffffffffffff0
36dd:	50                   	push   rax
36de:	54                   	push   rsp
36df:	4c 8d 05 ba f1 00 00 	lea    r8,[rip+0xf1ba]        # 128a0 <__libc_csu_fini>
36e6:	48 8d 0d 43 f1 00 00 	lea    rcx,[rip+0xf143]        # 12830 <__libc_csu_init>
36ed:	48 8d 3d 7c f7 ff ff 	lea    rdi,[rip+0xfffffffffffff77c]        # 2e70 <main>
36f4:	ff 15 de 68 21 00    	call   QWORD PTR [rip+0x2168de]        # 219fd8 <__libc_start_main@GLIBC_2.2.5>
36fa:	f4                   	hlt
36fb:	0f 1f 44 00 00       	nop    DWORD PTR [rax+rax*1+0x0]

0000000000003700 <deregister_tm_clones>:
3700:	48 8d 3d 99 69 21 00 	lea    rdi,[rip+0x216999]        # 21a0a0 <__progname@@GLIBC_2.2.5>
3707:	55                   	push   rbp
3708:	48 8d 05 91 69 21 00 	lea    rax,[rip+0x216991]        # 21a0a0 <__progname@@GLIBC_2.2.5>
370f:	48 39 f8             	cmp    rax,rdi
3712:	48 89 e5             	mov    rbp,rsp
3715:	74 19                	je     3730 <deregister_tm_clones+0x30>
3717:	48 8b 05 b2 68 21 00 	mov    rax,QWORD PTR [rip+0x2168b2]        # 219fd0 <_ITM_deregisterTMCloneTable>
371e:	48 85 c0             	test   rax,rax
3721:	74 0d                	je     3730 <deregister_tm_clones+0x30>
3723:	5d                   	pop    rbp
3724:	ff e0                	jmp    rax
3726:	66 2e 0f 1f 84 00 00 	nop    WORD PTR cs:[rax+rax*1+0x0]
372d:	00 00 00
3730:	5d                   	pop    rbp
3731:	c3                   	ret
3732:	0f 1f 40 00          	nop    DWORD PTR [rax+0x0]
3736:	66 2e 0f 1f 84 00 00 	nop    WORD PTR cs:[rax+rax*1+0x0]
373d:	00 00 00

0000000000003740 <register_tm_clones>:
3740:	48 8d 3d 59 69 21 00 	lea    rdi,[rip+0x216959]        # 21a0a0 <__progname@@GLIBC_2.2.5>
3747:	48 8d 35 52 69 21 00 	lea    rsi,[rip+0x216952]        # 21a0a0 <__progname@@GLIBC_2.2.5>
374e:	55                   	push   rbp
374f:	48 29 fe             	sub    rsi,rdi
3752:	48 89 e5             	mov    rbp,rsp
3755:	48 c1 fe 03          	sar    rsi,0x3
3759:	48 89 f0             	mov    rax,rsi
375c:	48 c1 e8 3f          	shr    rax,0x3f
3760:	48 01 c6             	add    rsi,rax
3763:	48 d1 fe             	sar    rsi,1
3766:	74 18                	je     3780 <register_tm_clones+0x40>
3768:	48 8b 05 79 68 21 00 	mov    rax,QWORD PTR [rip+0x216879]        # 219fe8 <_ITM_registerTMCloneTable>
376f:	48 85 c0             	test   rax,rax
3772:	74 0c                	je     3780 <register_tm_clones+0x40>
3774:	5d                   	pop    rbp
3775:	ff e0                	jmp    rax
3777:	66 0f 1f 84 00 00 00 	nop    WORD PTR [rax+rax*1+0x0]
377e:	00 00
3780:	5d                   	pop    rbp
3781:	c3                   	ret
3782:	0f 1f 40 00          	nop    DWORD PTR [rax+0x0]
3786:	66 2e 0f 1f 84 00 00 	nop    WORD PTR cs:[rax+rax*1+0x0]
378d:	00 00 00

0000000000003790 <__do_global_dtors_aux>:
3790:	80 3d 51 69 21 00 00 	cmp    BYTE PTR [rip+0x216951],0x0        # 21a0e8 <completed.7697>
3797:	75 2f                	jne    37c8 <__do_global_dtors_aux+0x38>
3799:	48 83 3d 4f 68 21 00 	cmp    QWORD PTR [rip+0x21684f],0x0        # 219ff0 <__cxa_finalize@GLIBC_2.2.5>
37a0:	00
37a1:	55                   	push   rbp
37a2:	48 89 e5             	mov    rbp,rsp
37a5:	74 0c                	je     37b3 <__do_global_dtors_aux+0x23>
37a7:	48 8b 3d 5a 68 21 00 	mov    rdi,QWORD PTR [rip+0x21685a]        # 21a008 <__dso_handle>
37ae:	e8 65 f6 ff ff       	call   2e18 <__cxa_finalize@plt>
37b3:	e8 48 ff ff ff       	call   3700 <deregister_tm_clones>
37b8:	c6 05 29 69 21 00 01 	mov    BYTE PTR [rip+0x216929],0x1        # 21a0e8 <completed.7697>
37bf:	5d                   	pop    rbp
37c0:	c3                   	ret
37c1:	0f 1f 80 00 00 00 00 	nop    DWORD PTR [rax+0x0]
37c8:	f3 c3                	repz ret
37ca:	66 0f 1f 44 00 00    	nop    WORD PTR [rax+rax*1+0x0]

00000000000037d0 <frame_dummy>:
37d0:	55                   	push   rbp
37d1:	48 89 e5             	mov    rbp,rsp
37d4:	5d                   	pop    rbp
37d5:	e9 66 ff ff ff       	jmp    3740 <register_tm_clones>
37da:	66 0f 1f 44 00 00    	nop    WORD PTR [rax+rax*1+0x0]

00000000000037e0 <decode_preserve_arg>:
37e0:	41 57                	push   r15
37e2:	41 56                	push   r14
37e4:	4c 8d 35 f9 f0 00 00 	lea    r14,[rip+0xf0f9]        # 128e4 <_IO_stdin_used+0x4>
37eb:	41 55                	push   r13
37ed:	41 54                	push   r12
37ef:	41 89 d4             	mov    r12d,edx
37f2:	55                   	push   rbp
37f3:	53                   	push   rbx
37f4:	48 89 f5             	mov    rbp,rsi
37f7:	89 d3                	mov    ebx,edx
37f9:	4c 8d 2d 50 f8 00 00 	lea    r13,[rip+0xf850]        # 13050 <preserve_vals.7370>
3800:	48 83 ec 18          	sub    rsp,0x18
3804:	e8 47 da 00 00       	call   11250 <xstrdup>
3809:	49 89 c7             	mov    r15,rax
380c:	48 89 44 24 08       	mov    QWORD PTR [rsp+0x8],rax
3811:	48 8d 05 d7 f0 00 00 	lea    rax,[rip+0xf0d7]        # 128ef <_IO_stdin_used+0xf>
3818:	45 84 e4             	test   r12b,r12b
381b:	4c 8d 25 de f3 00 00 	lea    r12,[rip+0xf3de]        # 12c00 <_IO_stdin_used+0x320>
3822:	49 0f 45 c6          	cmovne rax,r14
3826:	48 89 04 24          	mov    QWORD PTR [rsp],rax
382a:	66 0f 1f 44 00 00    	nop    WORD PTR [rax+rax*1+0x0]
3830:	be 2c 00 00 00       	mov    esi,0x2c
3835:	4c 89 ff             	mov    rdi,r15
3838:	45 31 f6             	xor    r14d,r14d
383b:	e8 30 f1 ff ff       	call   2970 <strchr@plt>
3840:	48 85 c0             	test   rax,rax
3843:	74 07                	je     384c <decode_preserve_arg+0x6c>
3845:	4c 8d 70 01          	lea    r14,[rax+0x1]
3849:	c6 00 00             	mov    BYTE PTR [rax],0x0
384c:	4c 8b 0d d5 67 21 00 	mov    r9,QWORD PTR [rip+0x2167d5]        # 21a028 <argmatch_die>
3853:	48 8b 3c 24          	mov    rdi,QWORD PTR [rsp]
3857:	48 8d 0d f2 f7 00 00 	lea    rcx,[rip+0xf7f2]        # 13050 <preserve_vals.7370>
385e:	48 8d 15 db 5c 21 00 	lea    rdx,[rip+0x215cdb]        # 219540 <preserve_args.7371>
3865:	41 b8 04 00 00 00    	mov    r8d,0x4
386b:	4c 89 fe             	mov    rsi,r15
386e:	e8 cd 71 00 00       	call   aa40 <__xargmatch_internal>
3873:	41 83 7c 85 00 06    	cmp    DWORD PTR [r13+rax*4+0x0],0x6
3879:	0f 87 9e 00 00 00    	ja     391d <decode_preserve_arg+0x13d>
387f:	41 8b 44 85 00       	mov    eax,DWORD PTR [r13+rax*4+0x0]
3884:	49 63 04 84          	movsxd rax,DWORD PTR [r12+rax*4]
3888:	4c 01 e0             	add    rax,r12
388b:	ff e0                	jmp    rax
388d:	0f 1f 00             	nop    DWORD PTR [rax]
3890:	88 5d 27             	mov    BYTE PTR [rbp+0x27],bl
3893:	88 5d 28             	mov    BYTE PTR [rbp+0x28],bl
3896:	66 2e 0f 1f 84 00 00 	nop    WORD PTR cs:[rax+rax*1+0x0]
389d:	00 00 00
38a0:	4d 85 f6             	test   r14,r14
38a3:	4d 89 f7             	mov    r15,r14
38a6:	75 88                	jne    3830 <decode_preserve_arg+0x50>
38a8:	48 8b 7c 24 08       	mov    rdi,QWORD PTR [rsp+0x8]
38ad:	48 83 c4 18          	add    rsp,0x18
38b1:	5b                   	pop    rbx
38b2:	5d                   	pop    rbp
38b3:	41 5c                	pop    r12
38b5:	41 5d                	pop    r13
38b7:	41 5e                	pop    r14
38b9:	41 5f                	pop    r15
38bb:	e9 50 f5 ff ff       	jmp    2e10 <free@plt>
38c0:	88 5d 26             	mov    BYTE PTR [rbp+0x26],bl
38c3:	88 5d 25             	mov    BYTE PTR [rbp+0x25],bl
38c6:	eb d8                	jmp    38a0 <decode_preserve_arg+0xc0>
38c8:	0f 1f 84 00 00 00 00 	nop    DWORD PTR [rax+rax*1+0x0]
38cf:	00
38d0:	88 5d 22             	mov    BYTE PTR [rbp+0x22],bl
38d3:	eb cb                	jmp    38a0 <decode_preserve_arg+0xc0>
38d5:	0f 1f 00             	nop    DWORD PTR [rax]
38d8:	88 5d 1d             	mov    BYTE PTR [rbp+0x1d],bl
38db:	eb c3                	jmp    38a0 <decode_preserve_arg+0xc0>
38dd:	0f 1f 00             	nop    DWORD PTR [rax]
38e0:	88 5d 1f             	mov    BYTE PTR [rbp+0x1f],bl
38e3:	eb bb                	jmp    38a0 <decode_preserve_arg+0xc0>
38e5:	0f 1f 00             	nop    DWORD PTR [rax]
38e8:	89 d8                	mov    eax,ebx
38ea:	88 5d 1e             	mov    BYTE PTR [rbp+0x1e],bl
38ed:	83 f0 01             	xor    eax,0x1
38f0:	88 45 20             	mov    BYTE PTR [rbp+0x20],al
38f3:	eb ab                	jmp    38a0 <decode_preserve_arg+0xc0>
38f5:	0f 1f 00             	nop    DWORD PTR [rax]
38f8:	89 d8                	mov    eax,ebx
38fa:	88 5d 1e             	mov    BYTE PTR [rbp+0x1e],bl
38fd:	88 5d 1f             	mov    BYTE PTR [rbp+0x1f],bl
3900:	83 f0 01             	xor    eax,0x1
3903:	80 3d 48 68 21 00 00 	cmp    BYTE PTR [rip+0x216848],0x0        # 21a152 <selinux_enabled>
390a:	88 5d 1d             	mov    BYTE PTR [rbp+0x1d],bl
390d:	88 5d 22             	mov    BYTE PTR [rbp+0x22],bl
3910:	88 45 20             	mov    BYTE PTR [rbp+0x20],al
3913:	74 03                	je     3918 <decode_preserve_arg+0x138>
3915:	88 5d 25             	mov    BYTE PTR [rbp+0x25],bl
3918:	88 5d 27             	mov    BYTE PTR [rbp+0x27],bl
391b:	eb 83                	jmp    38a0 <decode_preserve_arg+0xc0>
391d:	e8 3e ee ff ff       	call   2760 <abort@plt>
3922:	0f 1f 40 00          	nop    DWORD PTR [rax+0x0]
3926:	66 2e 0f 1f 84 00 00 	nop    WORD PTR cs:[rax+rax*1+0x0]
392d:	00 00 00

0000000000003930 <target_directory_operand>:
3930:	41 56                	push   r14
3932:	41 55                	push   r13
3934:	49 89 d6             	mov    r14,rdx
3937:	41 54                	push   r12
3939:	55                   	push   rbp
393a:	48 89 f2             	mov    rdx,rsi
393d:	53                   	push   rbx
393e:	48 89 fd             	mov    rbp,rdi
3941:	48 89 f3             	mov    rbx,rsi
3944:	48 89 fe             	mov    rsi,rdi
3947:	bf 01 00 00 00       	mov    edi,0x1
394c:	41 89 cd             	mov    r13d,ecx
394f:	e8 4c f2 ff ff       	call   2ba0 <__xstat@plt>
3954:	85 c0                	test   eax,eax
3956:	75 1d                	jne    3975 <target_directory_operand+0x45>
3958:	8b 53 18             	mov    edx,DWORD PTR [rbx+0x18]
395b:	81 e2 00 f0 00 00    	and    edx,0xf000
3961:	81 fa 00 40 00 00    	cmp    edx,0x4000
3967:	74 44                	je     39ad <target_directory_operand+0x7d>
3969:	83 e0 01             	and    eax,0x1
396c:	5b                   	pop    rbx
396d:	5d                   	pop    rbp
396e:	41 5c                	pop    r12
3970:	41 5d                	pop    r13
3972:	41 5e                	pop    r14
3974:	c3                   	ret
3975:	e8 f6 ed ff ff       	call   2770 <__errno_location@plt>
397a:	44 8b 20             	mov    r12d,DWORD PTR [rax]
397d:	45 85 e4             	test   r12d,r12d
3980:	75 15                	jne    3997 <target_directory_operand+0x67>
3982:	8b 43 18             	mov    eax,DWORD PTR [rbx+0x18]
3985:	25 00 f0 00 00       	and    eax,0xf000
398a:	3d 00 40 00 00       	cmp    eax,0x4000
398f:	0f 94 c0             	sete   al
3992:	0f b6 c0             	movzx  eax,al
3995:	eb d2                	jmp    3969 <target_directory_operand+0x39>
3997:	41 83 fc 02          	cmp    r12d,0x2
399b:	74 17                	je     39b4 <target_directory_operand+0x84>
399d:	45 84 ed             	test   r13b,r13b
39a0:	74 1a                	je     39bc <target_directory_operand+0x8c>
39a2:	c7 43 18 00 00 00 00 	mov    DWORD PTR [rbx+0x18],0x0
39a9:	31 c0                	xor    eax,eax
39ab:	eb bf                	jmp    396c <target_directory_operand+0x3c>
39ad:	b8 01 00 00 00       	mov    eax,0x1
39b2:	eb b8                	jmp    396c <target_directory_operand+0x3c>
39b4:	41 c6 06 01          	mov    BYTE PTR [r14],0x1
39b8:	31 c0                	xor    eax,eax
39ba:	eb b0                	jmp    396c <target_directory_operand+0x3c>
39bc:	48 89 ee             	mov    rsi,rbp
39bf:	bf 04 00 00 00       	mov    edi,0x4
39c4:	e8 e7 b0 00 00       	call   eab0 <quotearg_style>
39c9:	48 8d 35 2d ef 00 00 	lea    rsi,[rip+0xef2d]        # 128fd <_IO_stdin_used+0x1d>
39d0:	48 89 c3             	mov    rbx,rax
39d3:	ba 05 00 00 00       	mov    edx,0x5
39d8:	31 ff                	xor    edi,edi
39da:	e8 01 ef ff ff       	call   28e0 <dcgettext@plt>
39df:	48 89 d9             	mov    rcx,rbx
39e2:	48 89 c2             	mov    rdx,rax
39e5:	44 89 e6             	mov    esi,r12d
39e8:	bf 01 00 00 00       	mov    edi,0x1
39ed:	31 c0                	xor    eax,eax
39ef:	e8 bc f2 ff ff       	call   2cb0 <error@plt>
39f4:	66 90                	xchg   ax,ax
39f6:	66 2e 0f 1f 84 00 00 	nop    WORD PTR cs:[rax+rax*1+0x0]
39fd:	00 00 00

0000000000003a00 <make_dir_parents_private>:
3a00:	55                   	push   rbp
3a01:	48 89 e5             	mov    rbp,rsp
3a04:	41 57                	push   r15
3a06:	41 56                	push   r14
3a08:	41 55                	push   r13
3a0a:	41 54                	push   r12
3a0c:	4d 89 cd             	mov    r13,r9
3a0f:	53                   	push   rbx
3a10:	49 89 f7             	mov    r15,rsi
3a13:	48 89 fb             	mov    rbx,rdi
3a16:	48 81 ec 68 01 00 00 	sub    rsp,0x168
3a1d:	48 89 8d 80 fe ff ff 	mov    QWORD PTR [rbp-0x180],rcx
3a24:	4c 89 85 88 fe ff ff 	mov    QWORD PTR [rbp-0x178],r8
3a2b:	48 89 95 70 fe ff ff 	mov    QWORD PTR [rbp-0x190],rdx
3a32:	64 48 8b 14 25 28 00 	mov    rdx,QWORD PTR fs:0x28
3a39:	00 00
3a3b:	48 89 55 c8          	mov    QWORD PTR [rbp-0x38],rdx
3a3f:	31 d2                	xor    edx,edx
3a41:	e8 ba ee ff ff       	call   2900 <strlen@plt>
3a46:	48 8d 50 01          	lea    rdx,[rax+0x1]
3a4a:	48 83 c0 1f          	add    rax,0x1f
3a4e:	48 89 de             	mov    rsi,rbx
3a51:	48 83 e0 f0          	and    rax,0xfffffffffffffff0
3a55:	48 29 c4             	sub    rsp,rax
3a58:	48 8d 7c 24 0f       	lea    rdi,[rsp+0xf]
3a5d:	48 83 e7 f0          	and    rdi,0xfffffffffffffff0
3a61:	e8 fa f0 ff ff       	call   2b60 <memcpy@plt>
3a66:	48 89 c7             	mov    rdi,rax
3a69:	49 89 c4             	mov    r12,rax
3a6c:	e8 5f 7a 00 00       	call   b4d0 <dir_len>
3a71:	49 89 c6             	mov    r14,rax
3a74:	48 83 c0 1f          	add    rax,0x1f
3a78:	4c 89 e6             	mov    rsi,r12
3a7b:	48 83 e0 f0          	and    rax,0xfffffffffffffff0
3a7f:	4c 89 f2             	mov    rdx,r14
3a82:	48 29 c4             	sub    rsp,rax
3a85:	48 8d 5c 24 0f       	lea    rbx,[rsp+0xf]
3a8a:	48 83 e3 f0          	and    rbx,0xfffffffffffffff0
3a8e:	48 89 df             	mov    rdi,rbx
3a91:	e8 ca f0 ff ff       	call   2b60 <memcpy@plt>
3a96:	48 8b 85 80 fe ff ff 	mov    rax,QWORD PTR [rbp-0x180]
3a9d:	42 c6 04 33 00       	mov    BYTE PTR [rbx+r14*1],0x0
3aa2:	48 89 de             	mov    rsi,rbx
3aa5:	bf 01 00 00 00       	mov    edi,0x1
3aaa:	48 c7 00 00 00 00 00 	mov    QWORD PTR [rax],0x0
3ab1:	48 8d 85 a0 fe ff ff 	lea    rax,[rbp-0x160]
3ab8:	48 89 c2             	mov    rdx,rax
3abb:	48 89 85 90 fe ff ff 	mov    QWORD PTR [rbp-0x170],rax
3ac2:	e8 d9 f0 ff ff       	call   2ba0 <__xstat@plt>
3ac7:	85 c0                	test   eax,eax
3ac9:	0f 84 b1 03 00 00    	je     3e80 <make_dir_parents_private+0x480>
3acf:	4b 8d 3c 3c          	lea    rdi,[r12+r15*1]
3ad3:	80 3f 2f             	cmp    BYTE PTR [rdi],0x2f
3ad6:	48 89 bd 98 fe ff ff 	mov    QWORD PTR [rbp-0x168],rdi
3add:	0f 85 45 04 00 00    	jne    3f28 <make_dir_parents_private+0x528>
3ae3:	0f 1f 44 00 00       	nop    DWORD PTR [rax+rax*1+0x0]
3ae8:	48 83 c7 01          	add    rdi,0x1
3aec:	80 3f 2f             	cmp    BYTE PTR [rdi],0x2f
3aef:	74 f7                	je     3ae8 <make_dir_parents_private+0xe8>
3af1:	48 8d 85 30 ff ff ff 	lea    rax,[rbp-0xd0]
3af8:	48 89 85 78 fe ff ff 	mov    QWORD PTR [rbp-0x188],rax
3aff:	90                   	nop
3b00:	be 2f 00 00 00       	mov    esi,0x2f
3b05:	e8 66 ee ff ff       	call   2970 <strchr@plt>
3b0a:	48 85 c0             	test   rax,rax
3b0d:	48 89 c3             	mov    rbx,rax
3b10:	0f 84 86 03 00 00    	je     3e9c <make_dir_parents_private+0x49c>
3b16:	48 8b 95 90 fe ff ff 	mov    rdx,QWORD PTR [rbp-0x170]
3b1d:	c6 03 00             	mov    BYTE PTR [rbx],0x0
3b20:	4c 89 e6             	mov    rsi,r12
3b23:	bf 01 00 00 00       	mov    edi,0x1
3b28:	e8 73 f0 ff ff       	call   2ba0 <__xstat@plt>
3b2d:	85 c0                	test   eax,eax
3b2f:	41 89 c6             	mov    r14d,eax
3b32:	0f 85 88 00 00 00    	jne    3bc0 <make_dir_parents_private+0x1c0>
3b38:	41 f7 45 1c 00 ff ff 	test   DWORD PTR [r13+0x1c],0xffffff00
3b3f:	ff
3b40:	75 7e                	jne    3bc0 <make_dir_parents_private+0x1c0>
3b42:	48 8b bd 98 fe ff ff 	mov    rdi,QWORD PTR [rbp-0x168]
3b49:	31 c9                	xor    ecx,ecx
3b4b:	31 d2                	xor    edx,edx
3b4d:	4d 89 e8             	mov    r8,r13
3b50:	4c 89 e6             	mov    rsi,r12
3b53:	e8 c8 1a 00 00       	call   5620 <set_process_security_ctx>
3b58:	84 c0                	test   al,al
3b5a:	0f 84 05 03 00 00    	je     3e65 <make_dir_parents_private+0x465>
3b60:	8b 85 b8 fe ff ff    	mov    eax,DWORD PTR [rbp-0x148]
3b66:	25 00 f0 00 00       	and    eax,0xf000
3b6b:	3d 00 40 00 00       	cmp    eax,0x4000
3b70:	0f 85 01 04 00 00    	jne    3f77 <make_dir_parents_private+0x577>
3b76:	48 8b 85 88 fe ff ff 	mov    rax,QWORD PTR [rbp-0x178]
3b7d:	c6 00 00             	mov    BYTE PTR [rax],0x0
3b80:	48 b8 00 ff 00 00 00 	movabs rax,0xff000000ff00
3b87:	ff 00 00
3b8a:	49 85 45 20          	test   QWORD PTR [r13+0x20],rax
3b8e:	0f 85 ac 02 00 00    	jne    3e40 <make_dir_parents_private+0x440>
3b94:	80 7b 01 2f          	cmp    BYTE PTR [rbx+0x1],0x2f
3b98:	48 8d 7b 01          	lea    rdi,[rbx+0x1]
3b9c:	c6 03 2f             	mov    BYTE PTR [rbx],0x2f
3b9f:	0f 85 5b ff ff ff    	jne    3b00 <make_dir_parents_private+0x100>
3ba5:	0f 1f 00             	nop    DWORD PTR [rax]
3ba8:	48 83 c7 01          	add    rdi,0x1
3bac:	80 3f 2f             	cmp    BYTE PTR [rdi],0x2f
3baf:	74 f7                	je     3ba8 <make_dir_parents_private+0x1a8>
3bb1:	e9 4a ff ff ff       	jmp    3b00 <make_dir_parents_private+0x100>
3bb6:	66 2e 0f 1f 84 00 00 	nop    WORD PTR cs:[rax+rax*1+0x0]
3bbd:	00 00 00
3bc0:	48 8b 95 78 fe ff ff 	mov    rdx,QWORD PTR [rbp-0x188]
3bc7:	48 8b b5 98 fe ff ff 	mov    rsi,QWORD PTR [rbp-0x168]
3bce:	bf 01 00 00 00       	mov    edi,0x1
3bd3:	e8 c8 ef ff ff       	call   2ba0 <__xstat@plt>
3bd8:	85 c0                	test   eax,eax
3bda:	0f 84 d0 01 00 00    	je     3db0 <make_dir_parents_private+0x3b0>
3be0:	e8 8b eb ff ff       	call   2770 <__errno_location@plt>
3be5:	44 8b 00             	mov    r8d,DWORD PTR [rax]
3be8:	45 85 c0             	test   r8d,r8d
3beb:	0f 85 db 01 00 00    	jne    3dcc <make_dir_parents_private+0x3cc>
3bf1:	bf a8 00 00 00       	mov    edi,0xa8
3bf6:	e8 25 d4 00 00       	call   11020 <xmalloc>
3bfb:	66 0f 6f 85 30 ff ff 	movdqa xmm0,XMMWORD PTR [rbp-0xd0]
3c02:	ff
3c03:	49 89 c7             	mov    r15,rax
3c06:	48 8b 8d 80 fe ff ff 	mov    rcx,QWORD PTR [rbp-0x180]
3c0d:	0f 11 00             	movups XMMWORD PTR [rax],xmm0
3c10:	66 0f 6f 85 40 ff ff 	movdqa xmm0,XMMWORD PTR [rbp-0xc0]
3c17:	ff
3c18:	0f 11 40 10          	movups XMMWORD PTR [rax+0x10],xmm0
3c1c:	66 0f 6f 85 50 ff ff 	movdqa xmm0,XMMWORD PTR [rbp-0xb0]
3c23:	ff
3c24:	0f 11 40 20          	movups XMMWORD PTR [rax+0x20],xmm0
3c28:	66 0f 6f 85 60 ff ff 	movdqa xmm0,XMMWORD PTR [rbp-0xa0]
3c2f:	ff
3c30:	0f 11 40 30          	movups XMMWORD PTR [rax+0x30],xmm0
3c34:	66 0f 6f 85 70 ff ff 	movdqa xmm0,XMMWORD PTR [rbp-0x90]
3c3b:	ff
3c3c:	0f 11 40 40          	movups XMMWORD PTR [rax+0x40],xmm0
3c40:	66 0f 6f 45 80       	movdqa xmm0,XMMWORD PTR [rbp-0x80]
3c45:	0f 11 40 50          	movups XMMWORD PTR [rax+0x50],xmm0
3c49:	66 0f 6f 45 90       	movdqa xmm0,XMMWORD PTR [rbp-0x70]
3c4e:	0f 11 40 60          	movups XMMWORD PTR [rax+0x60],xmm0
3c52:	66 0f 6f 45 a0       	movdqa xmm0,XMMWORD PTR [rbp-0x60]
3c57:	0f 11 40 70          	movups XMMWORD PTR [rax+0x70],xmm0
3c5b:	66 0f 6f 45 b0       	movdqa xmm0,XMMWORD PTR [rbp-0x50]
3c60:	0f 11 80 80 00 00 00 	movups XMMWORD PTR [rax+0x80],xmm0
3c67:	48 89 d8             	mov    rax,rbx
3c6a:	41 c6 87 90 00 00 00 	mov    BYTE PTR [r15+0x90],0x0
3c71:	00
3c72:	4c 29 e0             	sub    rax,r12
3c75:	45 85 f6             	test   r14d,r14d
3c78:	49 89 87 98 00 00 00 	mov    QWORD PTR [r15+0x98],rax
3c7f:	48 8b 01             	mov    rax,QWORD PTR [rcx]
3c82:	4c 89 39             	mov    QWORD PTR [rcx],r15
3c85:	49 89 87 a0 00 00 00 	mov    QWORD PTR [r15+0xa0],rax
3c8c:	0f 84 b0 fe ff ff    	je     3b42 <make_dir_parents_private+0x142>
3c92:	41 8b 57 18          	mov    edx,DWORD PTR [r15+0x18]
3c96:	48 8b bd 98 fe ff ff 	mov    rdi,QWORD PTR [rbp-0x168]
3c9d:	4d 89 e8             	mov    r8,r13
3ca0:	b9 01 00 00 00       	mov    ecx,0x1
3ca5:	4c 89 e6             	mov    rsi,r12
3ca8:	e8 73 19 00 00       	call   5620 <set_process_security_ctx>
3cad:	84 c0                	test   al,al
3caf:	0f 84 b0 01 00 00    	je     3e65 <make_dir_parents_private+0x465>
3cb5:	48 8b 85 88 fe ff ff 	mov    rax,QWORD PTR [rbp-0x178]
3cbc:	41 8b 77 18          	mov    esi,DWORD PTR [r15+0x18]
3cc0:	c6 00 01             	mov    BYTE PTR [rax],0x1
3cc3:	41 80 7d 1d 00       	cmp    BYTE PTR [r13+0x1d],0x0
3cc8:	0f 84 52 01 00 00    	je     3e20 <make_dir_parents_private+0x420>
3cce:	41 89 f6             	mov    r14d,esi
3cd1:	41 83 e6 3f          	and    r14d,0x3f
3cd5:	44 89 f0             	mov    eax,r14d
3cd8:	35 ff 0f 00 00       	xor    eax,0xfff
3cdd:	41 80 7d 20 00       	cmp    BYTE PTR [r13+0x20],0x0
3ce2:	ba ff 01 00 00       	mov    edx,0x1ff
3ce7:	4c 89 e7             	mov    rdi,r12
3cea:	0f 45 f2             	cmovne esi,edx
3ced:	21 c6                	and    esi,eax
3cef:	e8 ec ea ff ff       	call   27e0 <mkdir@plt>
3cf4:	85 c0                	test   eax,eax
3cf6:	0f 85 38 02 00 00    	jne    3f34 <make_dir_parents_private+0x534>
3cfc:	48 8b 85 70 fe ff ff 	mov    rax,QWORD PTR [rbp-0x190]
3d03:	48 85 c0             	test   rax,rax
3d06:	74 19                	je     3d21 <make_dir_parents_private+0x321>
3d08:	48 8b 95 98 fe ff ff 	mov    rdx,QWORD PTR [rbp-0x168]
3d0f:	48 89 c6             	mov    rsi,rax
3d12:	4c 89 e1             	mov    rcx,r12
3d15:	bf 01 00 00 00       	mov    edi,0x1
3d1a:	31 c0                	xor    eax,eax
3d1c:	e8 3f ef ff ff       	call   2c60 <__printf_chk@plt>
3d21:	48 8b 95 90 fe ff ff 	mov    rdx,QWORD PTR [rbp-0x170]
3d28:	4c 89 e6             	mov    rsi,r12
3d2b:	bf 01 00 00 00       	mov    edi,0x1
3d30:	e8 db eb ff ff       	call   2910 <__lxstat@plt>
3d35:	85 c0                	test   eax,eax
3d37:	0f 85 42 02 00 00    	jne    3f7f <make_dir_parents_private+0x57f>
3d3d:	41 80 7d 1e 00       	cmp    BYTE PTR [r13+0x1e],0x0
3d42:	8b b5 b8 fe ff ff    	mov    esi,DWORD PTR [rbp-0x148]
3d48:	75 2c                	jne    3d76 <make_dir_parents_private+0x376>
3d4a:	89 f0                	mov    eax,esi
3d4c:	f7 d0                	not    eax
3d4e:	44 85 f0             	test   eax,r14d
3d51:	0f 85 a9 01 00 00    	jne    3f00 <make_dir_parents_private+0x500>
3d57:	89 f0                	mov    eax,esi
3d59:	25 c0 01 00 00       	and    eax,0x1c0
3d5e:	3d c0 01 00 00       	cmp    eax,0x1c0
3d63:	74 35                	je     3d9a <make_dir_parents_private+0x39a>
3d65:	89 f0                	mov    eax,esi
3d67:	41 09 c6             	or     r14d,eax
3d6a:	41 c6 87 90 00 00 00 	mov    BYTE PTR [r15+0x90],0x1
3d71:	01
3d72:	45 89 77 18          	mov    DWORD PTR [r15+0x18],r14d
3d76:	89 f0                	mov    eax,esi
3d78:	25 c0 01 00 00       	and    eax,0x1c0
3d7d:	3d c0 01 00 00       	cmp    eax,0x1c0
3d82:	74 16                	je     3d9a <make_dir_parents_private+0x39a>
3d84:	81 ce c0 01 00 00    	or     esi,0x1c0
3d8a:	4c 89 e7             	mov    rdi,r12
3d8d:	e8 fe ee ff ff       	call   2c90 <chmod@plt>
3d92:	85 c0                	test   eax,eax
3d94:	0f 85 03 02 00 00    	jne    3f9d <make_dir_parents_private+0x59d>
3d9a:	48 8b 85 88 fe ff ff 	mov    rax,QWORD PTR [rbp-0x178]
3da1:	80 38 00             	cmp    BYTE PTR [rax],0x0
3da4:	0f 85 ea fd ff ff    	jne    3b94 <make_dir_parents_private+0x194>
3daa:	e9 d1 fd ff ff       	jmp    3b80 <make_dir_parents_private+0x180>
3daf:	90                   	nop
3db0:	8b 85 48 ff ff ff    	mov    eax,DWORD PTR [rbp-0xb8]
3db6:	25 00 f0 00 00       	and    eax,0xf000
3dbb:	3d 00 40 00 00       	cmp    eax,0x4000
3dc0:	0f 84 2b fe ff ff    	je     3bf1 <make_dir_parents_private+0x1f1>
3dc6:	41 b8 14 00 00 00    	mov    r8d,0x14
3dcc:	48 8b b5 98 fe ff ff 	mov    rsi,QWORD PTR [rbp-0x168]
3dd3:	bf 04 00 00 00       	mov    edi,0x4
3dd8:	44 89 85 90 fe ff ff 	mov    DWORD PTR [rbp-0x170],r8d
3ddf:	e8 cc ac 00 00       	call   eab0 <quotearg_style>
3de4:	48 8d 35 a5 f2 00 00 	lea    rsi,[rip+0xf2a5]        # 13090 <sparse_type+0x10>
3deb:	ba 05 00 00 00       	mov    edx,0x5
3df0:	31 ff                	xor    edi,edi
3df2:	48 89 c3             	mov    rbx,rax
3df5:	e8 e6 ea ff ff       	call   28e0 <dcgettext@plt>
3dfa:	44 8b 85 90 fe ff ff 	mov    r8d,DWORD PTR [rbp-0x170]
3e01:	48 89 c2             	mov    rdx,rax
3e04:	48 89 d9             	mov    rcx,rbx
3e07:	31 c0                	xor    eax,eax
3e09:	31 ff                	xor    edi,edi
3e0b:	44 89 c6             	mov    esi,r8d
3e0e:	e8 9d ee ff ff       	call   2cb0 <error@plt>
3e13:	31 c0                	xor    eax,eax
3e15:	e9 87 00 00 00       	jmp    3ea1 <make_dir_parents_private+0x4a1>
3e1a:	66 0f 1f 44 00 00    	nop    WORD PTR [rax+rax*1+0x0]
3e20:	41 80 7d 1e 00       	cmp    BYTE PTR [r13+0x1e],0x0
3e25:	74 49                	je     3e70 <make_dir_parents_private+0x470>
3e27:	41 89 f6             	mov    r14d,esi
3e2a:	41 83 e6 12          	and    r14d,0x12
3e2e:	44 89 f0             	mov    eax,r14d
3e31:	35 ff 0f 00 00       	xor    eax,0xfff
3e36:	e9 a2 fe ff ff       	jmp    3cdd <make_dir_parents_private+0x2dd>
3e3b:	0f 1f 44 00 00       	nop    DWORD PTR [rax+rax*1+0x0]
3e40:	41 0f b6 75 25       	movzx  esi,BYTE PTR [r13+0x25]
3e45:	31 d2                	xor    edx,edx
3e47:	4c 89 e9             	mov    rcx,r13
3e4a:	4c 89 e7             	mov    rdi,r12
3e4d:	e8 9e 18 00 00       	call   56f0 <set_file_security_ctx>
3e52:	84 c0                	test   al,al
3e54:	0f 85 3a fd ff ff    	jne    3b94 <make_dir_parents_private+0x194>
3e5a:	41 80 7d 26 00       	cmp    BYTE PTR [r13+0x26],0x0
3e5f:	0f 84 2f fd ff ff    	je     3b94 <make_dir_parents_private+0x194>
3e65:	31 c0                	xor    eax,eax
3e67:	eb 38                	jmp    3ea1 <make_dir_parents_private+0x4a1>
3e69:	0f 1f 80 00 00 00 00 	nop    DWORD PTR [rax+0x0]
3e70:	45 31 f6             	xor    r14d,r14d
3e73:	b8 ff 0f 00 00       	mov    eax,0xfff
3e78:	e9 60 fe ff ff       	jmp    3cdd <make_dir_parents_private+0x2dd>
3e7d:	0f 1f 00             	nop    DWORD PTR [rax]
3e80:	8b 85 b8 fe ff ff    	mov    eax,DWORD PTR [rbp-0x148]
3e86:	25 00 f0 00 00       	and    eax,0xf000
3e8b:	3d 00 40 00 00       	cmp    eax,0x4000
3e90:	75 31                	jne    3ec3 <make_dir_parents_private+0x4c3>
3e92:	48 8b 85 88 fe ff ff 	mov    rax,QWORD PTR [rbp-0x178]
3e99:	c6 00 00             	mov    BYTE PTR [rax],0x0
3e9c:	b8 01 00 00 00       	mov    eax,0x1
3ea1:	48 8b 4d c8          	mov    rcx,QWORD PTR [rbp-0x38]
3ea5:	64 48 33 0c 25 28 00 	xor    rcx,QWORD PTR fs:0x28
3eac:	00 00
3eae:	0f 85 07 01 00 00    	jne    3fbb <make_dir_parents_private+0x5bb>
3eb4:	48 8d 65 d8          	lea    rsp,[rbp-0x28]
3eb8:	5b                   	pop    rbx
3eb9:	41 5c                	pop    r12
3ebb:	41 5d                	pop    r13
3ebd:	41 5e                	pop    r14
3ebf:	41 5f                	pop    r15
3ec1:	5d                   	pop    rbp
3ec2:	c3                   	ret
3ec3:	48 89 de             	mov    rsi,rbx
3ec6:	bf 04 00 00 00       	mov    edi,0x4
3ecb:	e8 e0 ab 00 00       	call   eab0 <quotearg_style>
3ed0:	48 8d 35 d9 f1 00 00 	lea    rsi,[rip+0xf1d9]        # 130b0 <sparse_type+0x30>
3ed7:	48 89 c3             	mov    rbx,rax
3eda:	ba 05 00 00 00       	mov    edx,0x5
3edf:	31 ff                	xor    edi,edi
3ee1:	e8 fa e9 ff ff       	call   28e0 <dcgettext@plt>
3ee6:	48 89 d9             	mov    rcx,rbx
3ee9:	48 89 c2             	mov    rdx,rax
3eec:	31 f6                	xor    esi,esi
3eee:	31 c0                	xor    eax,eax
3ef0:	31 ff                	xor    edi,edi
3ef2:	e8 b9 ed ff ff       	call   2cb0 <error@plt>
3ef7:	31 c0                	xor    eax,eax
3ef9:	eb a6                	jmp    3ea1 <make_dir_parents_private+0x4a1>
3efb:	0f 1f 44 00 00       	nop    DWORD PTR [rax+rax*1+0x0]
3f00:	e8 4b 1b 00 00       	call   5a50 <cached_umask>
3f05:	8b b5 b8 fe ff ff    	mov    esi,DWORD PTR [rbp-0x148]
3f0b:	f7 d0                	not    eax
3f0d:	41 21 c6             	and    r14d,eax
3f10:	89 f2                	mov    edx,esi
3f12:	89 f0                	mov    eax,esi
3f14:	f7 d2                	not    edx
3f16:	44 85 f2             	test   edx,r14d
3f19:	0f 85 48 fe ff ff    	jne    3d67 <make_dir_parents_private+0x367>
3f1f:	e9 33 fe ff ff       	jmp    3d57 <make_dir_parents_private+0x357>
3f24:	0f 1f 40 00          	nop    DWORD PTR [rax+0x0]
3f28:	48 8b bd 98 fe ff ff 	mov    rdi,QWORD PTR [rbp-0x168]
3f2f:	e9 bd fb ff ff       	jmp    3af1 <make_dir_parents_private+0xf1>
3f34:	4c 89 e6             	mov    rsi,r12
3f37:	bf 04 00 00 00       	mov    edi,0x4
3f3c:	e8 6f ab 00 00       	call   eab0 <quotearg_style>
3f41:	48 8d 35 c9 e9 00 00 	lea    rsi,[rip+0xe9c9]        # 12911 <_IO_stdin_used+0x31>
3f48:	49 89 c4             	mov    r12,rax
3f4b:	ba 05 00 00 00       	mov    edx,0x5
3f50:	31 ff                	xor    edi,edi
3f52:	e8 89 e9 ff ff       	call   28e0 <dcgettext@plt>
3f57:	48 89 c3             	mov    rbx,rax
3f5a:	e8 11 e8 ff ff       	call   2770 <__errno_location@plt>
3f5f:	8b 30                	mov    esi,DWORD PTR [rax]
3f61:	4c 89 e1             	mov    rcx,r12
3f64:	31 c0                	xor    eax,eax
3f66:	48 89 da             	mov    rdx,rbx
3f69:	31 ff                	xor    edi,edi
3f6b:	e8 40 ed ff ff       	call   2cb0 <error@plt>
3f70:	31 c0                	xor    eax,eax
3f72:	e9 2a ff ff ff       	jmp    3ea1 <make_dir_parents_private+0x4a1>
3f77:	4c 89 e6             	mov    rsi,r12
3f7a:	e9 47 ff ff ff       	jmp    3ec6 <make_dir_parents_private+0x4c6>
3f7f:	4c 89 e6             	mov    rsi,r12
3f82:	bf 04 00 00 00       	mov    edi,0x4
3f87:	e8 24 ab 00 00       	call   eab0 <quotearg_style>
3f8c:	ba 05 00 00 00       	mov    edx,0x5
3f91:	49 89 c4             	mov    r12,rax
3f94:	48 8d 35 f5 f0 00 00 	lea    rsi,[rip+0xf0f5]        # 13090 <sparse_type+0x10>
3f9b:	eb b3                	jmp    3f50 <make_dir_parents_private+0x550>
3f9d:	4c 89 e6             	mov    rsi,r12
3fa0:	bf 04 00 00 00       	mov    edi,0x4
3fa5:	e8 06 ab 00 00       	call   eab0 <quotearg_style>
3faa:	ba 05 00 00 00       	mov    edx,0x5
3faf:	49 89 c4             	mov    r12,rax
3fb2:	48 8d 35 71 e9 00 00 	lea    rsi,[rip+0xe971]        # 1292a <_IO_stdin_used+0x4a>
3fb9:	eb 95                	jmp    3f50 <make_dir_parents_private+0x550>
3fbb:	e8 70 e9 ff ff       	call   2930 <__stack_chk_fail@plt>

0000000000003fc0 <re_protect>:
3fc0:	55                   	push   rbp
3fc1:	48 89 e5             	mov    rbp,rsp
3fc4:	41 57                	push   r15
3fc6:	41 56                	push   r14
3fc8:	41 55                	push   r13
3fca:	41 54                	push   r12
3fcc:	49 89 f6             	mov    r14,rsi
3fcf:	53                   	push   rbx
3fd0:	49 89 fc             	mov    r12,rdi
3fd3:	48 89 d3             	mov    rbx,rdx
3fd6:	49 89 cd             	mov    r13,rcx
3fd9:	48 83 ec 48          	sub    rsp,0x48
3fdd:	64 48 8b 04 25 28 00 	mov    rax,QWORD PTR fs:0x28
3fe4:	00 00
3fe6:	48 89 45 c8          	mov    QWORD PTR [rbp-0x38],rax
3fea:	31 c0                	xor    eax,eax
3fec:	e8 0f e9 ff ff       	call   2900 <strlen@plt>
3ff1:	48 8d 50 01          	lea    rdx,[rax+0x1]
3ff5:	48 83 c0 1f          	add    rax,0x1f
3ff9:	4c 89 e6             	mov    rsi,r12
3ffc:	48 83 e0 f0          	and    rax,0xfffffffffffffff0
4000:	48 29 c4             	sub    rsp,rax
4003:	48 8d 7c 24 0f       	lea    rdi,[rsp+0xf]
4008:	48 83 e7 f0          	and    rdi,0xfffffffffffffff0
400c:	e8 4f eb ff ff       	call   2b60 <memcpy@plt>
4011:	49 89 c4             	mov    r12,rax
4014:	4c 01 f0             	add    rax,r14
4017:	48 85 db             	test   rbx,rbx
401a:	48 89 45 98          	mov    QWORD PTR [rbp-0x68],rax
401e:	0f 84 ac 01 00 00    	je     41d0 <re_protect+0x210>
4024:	4c 8d 7d a0          	lea    r15,[rbp-0x60]
4028:	eb 48                	jmp    4072 <re_protect+0xb2>
402a:	66 0f 1f 44 00 00    	nop    WORD PTR [rax+rax*1+0x0]
4030:	41 80 7d 1d 00       	cmp    BYTE PTR [r13+0x1d],0x0
4035:	0f 85 c5 00 00 00    	jne    4100 <re_protect+0x140>
403b:	45 0f b6 75 1e       	movzx  r14d,BYTE PTR [r13+0x1e]
4040:	45 84 f6             	test   r14b,r14b
4043:	0f 85 07 01 00 00    	jne    4150 <re_protect+0x190>
4049:	80 bb 90 00 00 00 00 	cmp    BYTE PTR [rbx+0x90],0x0
4050:	0f 85 22 01 00 00    	jne    4178 <re_protect+0x1b8>
4056:	48 8b 83 98 00 00 00 	mov    rax,QWORD PTR [rbx+0x98]
405d:	41 c6 04 04 2f       	mov    BYTE PTR [r12+rax*1],0x2f
4062:	48 8b 9b a0 00 00 00 	mov    rbx,QWORD PTR [rbx+0xa0]
4069:	48 85 db             	test   rbx,rbx
406c:	0f 84 5e 01 00 00    	je     41d0 <re_protect+0x210>
4072:	41 80 7d 1f 00       	cmp    BYTE PTR [r13+0x1f],0x0
4077:	48 8b 83 98 00 00 00 	mov    rax,QWORD PTR [rbx+0x98]
407e:	41 c6 04 04 00       	mov    BYTE PTR [r12+rax*1],0x0
4083:	74 ab                	je     4030 <re_protect+0x70>
4085:	48 8b 43 50          	mov    rax,QWORD PTR [rbx+0x50]
4089:	48 8b 53 48          	mov    rdx,QWORD PTR [rbx+0x48]
408d:	4c 89 fe             	mov    rsi,r15
4090:	4c 89 e7             	mov    rdi,r12
4093:	48 89 55 a0          	mov    QWORD PTR [rbp-0x60],rdx
4097:	48 89 45 a8          	mov    QWORD PTR [rbp-0x58],rax
409b:	48 8b 53 58          	mov    rdx,QWORD PTR [rbx+0x58]
409f:	48 8b 43 60          	mov    rax,QWORD PTR [rbx+0x60]
40a3:	48 89 55 b0          	mov    QWORD PTR [rbp-0x50],rdx
40a7:	48 89 45 b8          	mov    QWORD PTR [rbp-0x48],rax
40ab:	e8 a0 c6 00 00       	call   10750 <utimens>
40b0:	85 c0                	test   eax,eax
40b2:	0f 84 78 ff ff ff    	je     4030 <re_protect+0x70>
40b8:	4c 89 e6             	mov    rsi,r12
40bb:	bf 04 00 00 00       	mov    edi,0x4
40c0:	45 31 f6             	xor    r14d,r14d
40c3:	e8 e8 a9 00 00       	call   eab0 <quotearg_style>
40c8:	48 8d 35 09 f0 00 00 	lea    rsi,[rip+0xf009]        # 130d8 <sparse_type+0x58>
40cf:	ba 05 00 00 00       	mov    edx,0x5
40d4:	31 ff                	xor    edi,edi
40d6:	49 89 c4             	mov    r12,rax
40d9:	e8 02 e8 ff ff       	call   28e0 <dcgettext@plt>
40de:	48 89 c3             	mov    rbx,rax
40e1:	e8 8a e6 ff ff       	call   2770 <__errno_location@plt>
40e6:	8b 30                	mov    esi,DWORD PTR [rax]
40e8:	4c 89 e1             	mov    rcx,r12
40eb:	48 89 da             	mov    rdx,rbx
40ee:	31 ff                	xor    edi,edi
40f0:	31 c0                	xor    eax,eax
40f2:	e8 b9 eb ff ff       	call   2cb0 <error@plt>
40f7:	e9 da 00 00 00       	jmp    41d6 <re_protect+0x216>
40fc:	0f 1f 40 00          	nop    DWORD PTR [rax+0x0]
4100:	8b 53 20             	mov    edx,DWORD PTR [rbx+0x20]
4103:	8b 73 1c             	mov    esi,DWORD PTR [rbx+0x1c]
4106:	4c 89 e7             	mov    rdi,r12
4109:	e8 f2 ea ff ff       	call   2c00 <lchown@plt>
410e:	85 c0                	test   eax,eax
4110:	0f 84 25 ff ff ff    	je     403b <re_protect+0x7b>
4116:	4c 89 ef             	mov    rdi,r13
4119:	e8 f2 16 00 00       	call   5810 <chown_failure_ok>
411e:	84 c0                	test   al,al
4120:	41 89 c6             	mov    r14d,eax
4123:	0f 84 ce 00 00 00    	je     41f7 <re_protect+0x237>
4129:	8b 53 20             	mov    edx,DWORD PTR [rbx+0x20]
412c:	be ff ff ff ff       	mov    esi,0xffffffff
4131:	4c 89 e7             	mov    rdi,r12
4134:	e8 c7 ea ff ff       	call   2c00 <lchown@plt>
4139:	45 0f b6 75 1e       	movzx  r14d,BYTE PTR [r13+0x1e]
413e:	45 84 f6             	test   r14b,r14b
4141:	0f 84 02 ff ff ff    	je     4049 <re_protect+0x89>
4147:	66 0f 1f 84 00 00 00 	nop    WORD PTR [rax+rax*1+0x0]
414e:	00 00
4150:	44 8b 43 18          	mov    r8d,DWORD PTR [rbx+0x18]
4154:	48 8b 7d 98          	mov    rdi,QWORD PTR [rbp-0x68]
4158:	b9 ff ff ff ff       	mov    ecx,0xffffffff
415d:	4c 89 e2             	mov    rdx,r12
4160:	89 ce                	mov    esi,ecx
4162:	e8 39 64 00 00       	call   a5a0 <copy_acl>
4167:	85 c0                	test   eax,eax
4169:	0f 84 e7 fe ff ff    	je     4056 <re_protect+0x96>
416f:	45 31 f6             	xor    r14d,r14d
4172:	eb 62                	jmp    41d6 <re_protect+0x216>
4174:	0f 1f 40 00          	nop    DWORD PTR [rax+0x0]
4178:	8b 73 18             	mov    esi,DWORD PTR [rbx+0x18]
417b:	4c 89 e7             	mov    rdi,r12
417e:	e8 0d eb ff ff       	call   2c90 <chmod@plt>
4183:	85 c0                	test   eax,eax
4185:	0f 84 cb fe ff ff    	je     4056 <re_protect+0x96>
418b:	4c 89 e6             	mov    rsi,r12
418e:	bf 04 00 00 00       	mov    edi,0x4
4193:	e8 18 a9 00 00       	call   eab0 <quotearg_style>
4198:	48 8d 35 81 ef 00 00 	lea    rsi,[rip+0xef81]        # 13120 <sparse_type+0xa0>
419f:	49 89 c4             	mov    r12,rax
41a2:	ba 05 00 00 00       	mov    edx,0x5
41a7:	31 ff                	xor    edi,edi
41a9:	e8 32 e7 ff ff       	call   28e0 <dcgettext@plt>
41ae:	48 89 c3             	mov    rbx,rax
41b1:	e8 ba e5 ff ff       	call   2770 <__errno_location@plt>
41b6:	8b 30                	mov    esi,DWORD PTR [rax]
41b8:	4c 89 e1             	mov    rcx,r12
41bb:	48 89 da             	mov    rdx,rbx
41be:	31 ff                	xor    edi,edi
41c0:	31 c0                	xor    eax,eax
41c2:	e8 e9 ea ff ff       	call   2cb0 <error@plt>
41c7:	eb 0d                	jmp    41d6 <re_protect+0x216>
41c9:	0f 1f 80 00 00 00 00 	nop    DWORD PTR [rax+0x0]
41d0:	41 be 01 00 00 00    	mov    r14d,0x1
41d6:	48 8b 4d c8          	mov    rcx,QWORD PTR [rbp-0x38]
41da:	64 48 33 0c 25 28 00 	xor    rcx,QWORD PTR fs:0x28
41e1:	00 00
41e3:	44 89 f0             	mov    eax,r14d
41e6:	75 2d                	jne    4215 <re_protect+0x255>
41e8:	48 8d 65 d8          	lea    rsp,[rbp-0x28]
41ec:	5b                   	pop    rbx
41ed:	41 5c                	pop    r12
41ef:	41 5d                	pop    r13
41f1:	41 5e                	pop    r14
41f3:	41 5f                	pop    r15
41f5:	5d                   	pop    rbp
41f6:	c3                   	ret
41f7:	4c 89 e6             	mov    rsi,r12
41fa:	bf 04 00 00 00       	mov    edi,0x4
41ff:	e8 ac a8 00 00       	call   eab0 <quotearg_style>
4204:	ba 05 00 00 00       	mov    edx,0x5
4209:	49 89 c4             	mov    r12,rax
420c:	48 8d 35 e5 ee 00 00 	lea    rsi,[rip+0xeee5]        # 130f8 <sparse_type+0x78>
4213:	eb 92                	jmp    41a7 <re_protect+0x1e7>
4215:	e8 16 e7 ff ff       	call   2930 <__stack_chk_fail@plt>
421a:	66 0f 1f 44 00 00    	nop    WORD PTR [rax+rax*1+0x0]

0000000000004220 <usage>:
4220:	41 55                	push   r13
4222:	41 54                	push   r12
4224:	ba 05 00 00 00       	mov    edx,0x5
4229:	55                   	push   rbp
422a:	53                   	push   rbx
422b:	89 fd                	mov    ebp,edi
422d:	48 81 ec 88 00 00 00 	sub    rsp,0x88
4234:	48 8b 1d 65 63 21 00 	mov    rbx,QWORD PTR [rip+0x216365]        # 21a5a0 <program_name>
423b:	64 48 8b 04 25 28 00 	mov    rax,QWORD PTR fs:0x28
4242:	00 00
4244:	48 89 44 24 78       	mov    QWORD PTR [rsp+0x78],rax
4249:	31 c0                	xor    eax,eax
424b:	85 ff                	test   edi,edi
424d:	74 2e                	je     427d <usage+0x5d>
424f:	48 8d 35 f2 ee 00 00 	lea    rsi,[rip+0xeef2]        # 13148 <sparse_type+0xc8>
4256:	31 ff                	xor    edi,edi
4258:	e8 83 e6 ff ff       	call   28e0 <dcgettext@plt>
425d:	48 8b 3d 7c 5e 21 00 	mov    rdi,QWORD PTR [rip+0x215e7c]        # 21a0e0 <stderr@@GLIBC_2.2.5>
4264:	48 89 c2             	mov    rdx,rax
4267:	48 89 d9             	mov    rcx,rbx
426a:	be 01 00 00 00       	mov    esi,0x1
426f:	31 c0                	xor    eax,eax
4271:	e8 3a eb ff ff       	call   2db0 <__fprintf_chk@plt>
4276:	89 ef                	mov    edi,ebp
4278:	e8 13 eb ff ff       	call   2d90 <exit@plt>
427d:	48 8d 35 ec ee 00 00 	lea    rsi,[rip+0xeeec]        # 13170 <sparse_type+0xf0>
4284:	31 ff                	xor    edi,edi
4286:	e8 55 e6 ff ff       	call   28e0 <dcgettext@plt>
428b:	49 89 d8             	mov    r8,rbx
428e:	48 89 d9             	mov    rcx,rbx
4291:	48 89 da             	mov    rdx,rbx
4294:	48 89 c6             	mov    rsi,rax
4297:	bf 01 00 00 00       	mov    edi,0x1
429c:	31 c0                	xor    eax,eax
429e:	e8 bd e9 ff ff       	call   2c60 <__printf_chk@plt>
42a3:	48 8b 1d fe 5d 21 00 	mov    rbx,QWORD PTR [rip+0x215dfe]        # 21a0a8 <stdout@@GLIBC_2.2.5>
42aa:	48 8d 35 3f ef 00 00 	lea    rsi,[rip+0xef3f]        # 131f0 <sparse_type+0x170>
42b1:	ba 05 00 00 00       	mov    edx,0x5
42b6:	31 ff                	xor    edi,edi
42b8:	e8 23 e6 ff ff       	call   28e0 <dcgettext@plt>
42bd:	48 89 de             	mov    rsi,rbx
42c0:	48 89 c7             	mov    rdi,rax
42c3:	e8 e8 e7 ff ff       	call   2ab0 <fputs_unlocked@plt>
42c8:	48 8b 1d d9 5d 21 00 	mov    rbx,QWORD PTR [rip+0x215dd9]        # 21a0a8 <stdout@@GLIBC_2.2.5>
42cf:	48 8d 35 5a ef 00 00 	lea    rsi,[rip+0xef5a]        # 13230 <sparse_type+0x1b0>
42d6:	ba 05 00 00 00       	mov    edx,0x5
42db:	31 ff                	xor    edi,edi
42dd:	e8 fe e5 ff ff       	call   28e0 <dcgettext@plt>
42e2:	48 89 de             	mov    rsi,rbx
42e5:	48 89 c7             	mov    rdi,rax
42e8:	e8 c3 e7 ff ff       	call   2ab0 <fputs_unlocked@plt>
42ed:	48 8b 1d b4 5d 21 00 	mov    rbx,QWORD PTR [rip+0x215db4]        # 21a0a8 <stdout@@GLIBC_2.2.5>
42f4:	48 8d 35 85 ef 00 00 	lea    rsi,[rip+0xef85]        # 13280 <sparse_type+0x200>
42fb:	ba 05 00 00 00       	mov    edx,0x5
4300:	31 ff                	xor    edi,edi
4302:	e8 d9 e5 ff ff       	call   28e0 <dcgettext@plt>
4307:	48 89 de             	mov    rsi,rbx
430a:	48 89 c7             	mov    rdi,rax
430d:	e8 9e e7 ff ff       	call   2ab0 <fputs_unlocked@plt>
4312:	48 8b 1d 8f 5d 21 00 	mov    rbx,QWORD PTR [rip+0x215d8f]        # 21a0a8 <stdout@@GLIBC_2.2.5>
4319:	48 8d 35 20 f1 00 00 	lea    rsi,[rip+0xf120]        # 13440 <sparse_type+0x3c0>
4320:	ba 05 00 00 00       	mov    edx,0x5
4325:	31 ff                	xor    edi,edi
4327:	e8 b4 e5 ff ff       	call   28e0 <dcgettext@plt>
432c:	48 89 de             	mov    rsi,rbx
432f:	48 89 c7             	mov    rdi,rax
4332:	e8 79 e7 ff ff       	call   2ab0 <fputs_unlocked@plt>
4337:	48 8b 1d 6a 5d 21 00 	mov    rbx,QWORD PTR [rip+0x215d6a]        # 21a0a8 <stdout@@GLIBC_2.2.5>
433e:	48 8d 35 ab f2 00 00 	lea    rsi,[rip+0xf2ab]        # 135f0 <sparse_type+0x570>
4345:	ba 05 00 00 00       	mov    edx,0x5
434a:	31 ff                	xor    edi,edi
434c:	e8 8f e5 ff ff       	call   28e0 <dcgettext@plt>
4351:	48 89 de             	mov    rsi,rbx
4354:	48 89 c7             	mov    rdi,rax
4357:	e8 54 e7 ff ff       	call   2ab0 <fputs_unlocked@plt>
435c:	48 8b 1d 45 5d 21 00 	mov    rbx,QWORD PTR [rip+0x215d45]        # 21a0a8 <stdout@@GLIBC_2.2.5>
4363:	48 8d 35 16 f3 00 00 	lea    rsi,[rip+0xf316]        # 13680 <sparse_type+0x600>
436a:	ba 05 00 00 00       	mov    edx,0x5
436f:	31 ff                	xor    edi,edi
4371:	e8 6a e5 ff ff       	call   28e0 <dcgettext@plt>
4376:	48 89 de             	mov    rsi,rbx
4379:	48 89 c7             	mov    rdi,rax
437c:	e8 2f e7 ff ff       	call   2ab0 <fputs_unlocked@plt>
4381:	48 8b 1d 20 5d 21 00 	mov    rbx,QWORD PTR [rip+0x215d20]        # 21a0a8 <stdout@@GLIBC_2.2.5>
4388:	48 8d 35 c1 f3 00 00 	lea    rsi,[rip+0xf3c1]        # 13750 <sparse_type+0x6d0>
438f:	ba 05 00 00 00       	mov    edx,0x5
4394:	31 ff                	xor    edi,edi
4396:	e8 45 e5 ff ff       	call   28e0 <dcgettext@plt>
439b:	48 89 de             	mov    rsi,rbx
439e:	48 89 c7             	mov    rdi,rax
43a1:	e8 0a e7 ff ff       	call   2ab0 <fputs_unlocked@plt>
43a6:	48 8b 1d fb 5c 21 00 	mov    rbx,QWORD PTR [rip+0x215cfb]        # 21a0a8 <stdout@@GLIBC_2.2.5>
43ad:	48 8d 35 f4 f4 00 00 	lea    rsi,[rip+0xf4f4]        # 138a8 <sparse_type+0x828>
43b4:	ba 05 00 00 00       	mov    edx,0x5
43b9:	31 ff                	xor    edi,edi
43bb:	e8 20 e5 ff ff       	call   28e0 <dcgettext@plt>
43c0:	48 89 de             	mov    rsi,rbx
43c3:	48 89 c7             	mov    rdi,rax
43c6:	e8 e5 e6 ff ff       	call   2ab0 <fputs_unlocked@plt>
43cb:	48 8b 1d d6 5c 21 00 	mov    rbx,QWORD PTR [rip+0x215cd6]        # 21a0a8 <stdout@@GLIBC_2.2.5>
43d2:	48 8d 35 67 f5 00 00 	lea    rsi,[rip+0xf567]        # 13940 <sparse_type+0x8c0>
43d9:	ba 05 00 00 00       	mov    edx,0x5
43de:	31 ff                	xor    edi,edi
43e0:	e8 fb e4 ff ff       	call   28e0 <dcgettext@plt>
43e5:	48 89 de             	mov    rsi,rbx
43e8:	48 89 c7             	mov    rdi,rax
43eb:	e8 c0 e6 ff ff       	call   2ab0 <fputs_unlocked@plt>
43f0:	48 8b 1d b1 5c 21 00 	mov    rbx,QWORD PTR [rip+0x215cb1]        # 21a0a8 <stdout@@GLIBC_2.2.5>
43f7:	48 8d 35 62 f6 00 00 	lea    rsi,[rip+0xf662]        # 13a60 <sparse_type+0x9e0>
43fe:	ba 05 00 00 00       	mov    edx,0x5
4403:	31 ff                	xor    edi,edi
4405:	e8 d6 e4 ff ff       	call   28e0 <dcgettext@plt>
440a:	48 89 de             	mov    rsi,rbx
440d:	48 89 c7             	mov    rdi,rax
4410:	e8 9b e6 ff ff       	call   2ab0 <fputs_unlocked@plt>
4415:	48 8b 1d 8c 5c 21 00 	mov    rbx,QWORD PTR [rip+0x215c8c]        # 21a0a8 <stdout@@GLIBC_2.2.5>
441c:	48 8d 35 05 f7 00 00 	lea    rsi,[rip+0xf705]        # 13b28 <sparse_type+0xaa8>
4423:	ba 05 00 00 00       	mov    edx,0x5
4428:	31 ff                	xor    edi,edi
442a:	e8 b1 e4 ff ff       	call   28e0 <dcgettext@plt>
442f:	48 89 de             	mov    rsi,rbx
4432:	48 89 c7             	mov    rdi,rax
4435:	e8 76 e6 ff ff       	call   2ab0 <fputs_unlocked@plt>
443a:	48 8b 1d 67 5c 21 00 	mov    rbx,QWORD PTR [rip+0x215c67]        # 21a0a8 <stdout@@GLIBC_2.2.5>
4441:	48 8d 35 f0 f7 00 00 	lea    rsi,[rip+0xf7f0]        # 13c38 <sparse_type+0xbb8>
4448:	ba 05 00 00 00       	mov    edx,0x5
444d:	31 ff                	xor    edi,edi
444f:	e8 8c e4 ff ff       	call   28e0 <dcgettext@plt>
4454:	48 89 de             	mov    rsi,rbx
4457:	48 89 c7             	mov    rdi,rax
445a:	e8 51 e6 ff ff       	call   2ab0 <fputs_unlocked@plt>
445f:	48 8b 1d 42 5c 21 00 	mov    rbx,QWORD PTR [rip+0x215c42]        # 21a0a8 <stdout@@GLIBC_2.2.5>
4466:	48 8d 35 0b f9 00 00 	lea    rsi,[rip+0xf90b]        # 13d78 <sparse_type+0xcf8>
446d:	ba 05 00 00 00       	mov    edx,0x5
4472:	31 ff                	xor    edi,edi
4474:	e8 67 e4 ff ff       	call   28e0 <dcgettext@plt>
4479:	48 89 de             	mov    rsi,rbx
447c:	48 89 c7             	mov    rdi,rax
447f:	e8 2c e6 ff ff       	call   2ab0 <fputs_unlocked@plt>
4484:	48 8b 1d 1d 5c 21 00 	mov    rbx,QWORD PTR [rip+0x215c1d]        # 21a0a8 <stdout@@GLIBC_2.2.5>
448b:	48 8d 35 fe f9 00 00 	lea    rsi,[rip+0xf9fe]        # 13e90 <sparse_type+0xe10>
4492:	ba 05 00 00 00       	mov    edx,0x5
4497:	31 ff                	xor    edi,edi
4499:	e8 42 e4 ff ff       	call   28e0 <dcgettext@plt>
449e:	48 89 de             	mov    rsi,rbx
44a1:	48 89 c7             	mov    rdi,rax
44a4:	e8 07 e6 ff ff       	call   2ab0 <fputs_unlocked@plt>
44a9:	48 8b 1d f8 5b 21 00 	mov    rbx,QWORD PTR [rip+0x215bf8]        # 21a0a8 <stdout@@GLIBC_2.2.5>
44b0:	48 8d 35 09 fa 00 00 	lea    rsi,[rip+0xfa09]        # 13ec0 <sparse_type+0xe40>
44b7:	ba 05 00 00 00       	mov    edx,0x5
44bc:	31 ff                	xor    edi,edi
44be:	e8 1d e4 ff ff       	call   28e0 <dcgettext@plt>
44c3:	48 89 de             	mov    rsi,rbx
44c6:	48 89 c7             	mov    rdi,rax
44c9:	e8 e2 e5 ff ff       	call   2ab0 <fputs_unlocked@plt>
44ce:	48 8b 1d d3 5b 21 00 	mov    rbx,QWORD PTR [rip+0x215bd3]        # 21a0a8 <stdout@@GLIBC_2.2.5>
44d5:	48 8d 35 1c fa 00 00 	lea    rsi,[rip+0xfa1c]        # 13ef8 <sparse_type+0xe78>
44dc:	ba 05 00 00 00       	mov    edx,0x5
44e1:	31 ff                	xor    edi,edi
44e3:	e8 f8 e3 ff ff       	call   28e0 <dcgettext@plt>
44e8:	48 89 de             	mov    rsi,rbx
44eb:	48 89 c7             	mov    rdi,rax
44ee:	e8 bd e5 ff ff       	call   2ab0 <fputs_unlocked@plt>
44f3:	48 8b 1d ae 5b 21 00 	mov    rbx,QWORD PTR [rip+0x215bae]        # 21a0a8 <stdout@@GLIBC_2.2.5>
44fa:	48 8d 35 5f fb 00 00 	lea    rsi,[rip+0xfb5f]        # 14060 <sparse_type+0xfe0>
4501:	ba 05 00 00 00       	mov    edx,0x5
4506:	31 ff                	xor    edi,edi
4508:	e8 d3 e3 ff ff       	call   28e0 <dcgettext@plt>
450d:	48 89 de             	mov    rsi,rbx
4510:	48 89 c7             	mov    rdi,rax
4513:	e8 98 e5 ff ff       	call   2ab0 <fputs_unlocked@plt>
4518:	48 8b 1d 89 5b 21 00 	mov    rbx,QWORD PTR [rip+0x215b89]        # 21a0a8 <stdout@@GLIBC_2.2.5>
451f:	48 8d 35 5a fc 00 00 	lea    rsi,[rip+0xfc5a]        # 14180 <sparse_type+0x1100>
4526:	ba 05 00 00 00       	mov    edx,0x5
452b:	31 ff                	xor    edi,edi
452d:	e8 ae e3 ff ff       	call   28e0 <dcgettext@plt>
4532:	48 89 de             	mov    rsi,rbx
4535:	48 89 c7             	mov    rdi,rax
4538:	e8 73 e5 ff ff       	call   2ab0 <fputs_unlocked@plt>
453d:	48 8b 1d 64 5b 21 00 	mov    rbx,QWORD PTR [rip+0x215b64]        # 21a0a8 <stdout@@GLIBC_2.2.5>
4544:	48 8d 35 15 fd 00 00 	lea    rsi,[rip+0xfd15]        # 14260 <sparse_type+0x11e0>
454b:	ba 05 00 00 00       	mov    edx,0x5
4550:	31 ff                	xor    edi,edi
4552:	e8 89 e3 ff ff       	call   28e0 <dcgettext@plt>
4557:	48 89 de             	mov    rsi,rbx
455a:	48 89 c7             	mov    rdi,rax
455d:	e8 4e e5 ff ff       	call   2ab0 <fputs_unlocked@plt>
4562:	48 8b 1d 3f 5b 21 00 	mov    rbx,QWORD PTR [rip+0x215b3f]        # 21a0a8 <stdout@@GLIBC_2.2.5>
4569:	48 8d 35 d0 fd 00 00 	lea    rsi,[rip+0xfdd0]        # 14340 <sparse_type+0x12c0>
4570:	ba 05 00 00 00       	mov    edx,0x5
4575:	31 ff                	xor    edi,edi
4577:	e8 64 e3 ff ff       	call   28e0 <dcgettext@plt>
457c:	48 89 de             	mov    rsi,rbx
457f:	48 89 c7             	mov    rdi,rax
4582:	48 8d 1d bc e3 00 00 	lea    rbx,[rip+0xe3bc]        # 12945 <_IO_stdin_used+0x65>
4589:	e8 22 e5 ff ff       	call   2ab0 <fputs_unlocked@plt>
458e:	48 8d 05 b3 e3 00 00 	lea    rax,[rip+0xe3b3]        # 12948 <_IO_stdin_used+0x68>
4595:	48 8d 0d ed e3 00 00 	lea    rcx,[rip+0xe3ed]        # 12989 <_IO_stdin_used+0xa9>
459c:	48 c7 44 24 60 00 00 	mov    QWORD PTR [rsp+0x60],0x0
45a3:	00 00
45a5:	48 c7 44 24 68 00 00 	mov    QWORD PTR [rsp+0x68],0x0
45ac:	00 00
45ae:	48 89 e2             	mov    rdx,rsp
45b1:	48 89 04 24          	mov    QWORD PTR [rsp],rax
45b5:	48 8d 05 8e e3 00 00 	lea    rax,[rip+0xe38e]        # 1294a <_IO_stdin_used+0x6a>
45bc:	48 89 4c 24 30       	mov    QWORD PTR [rsp+0x30],rcx
45c1:	48 8d 0d cb e3 00 00 	lea    rcx,[rip+0xe3cb]        # 12993 <_IO_stdin_used+0xb3>
45c8:	48 89 44 24 08       	mov    QWORD PTR [rsp+0x8],rax
45cd:	48 8d 05 ee e3 00 00 	lea    rax,[rip+0xe3ee]        # 129c2 <_IO_stdin_used+0xe2>
45d4:	48 89 4c 24 40       	mov    QWORD PTR [rsp+0x40],rcx
45d9:	48 8d 0d bd e3 00 00 	lea    rcx,[rip+0xe3bd]        # 1299d <_IO_stdin_used+0xbd>
45e0:	48 89 44 24 10       	mov    QWORD PTR [rsp+0x10],rax
45e5:	48 8d 05 6e e3 00 00 	lea    rax,[rip+0xe36e]        # 1295a <_IO_stdin_used+0x7a>
45ec:	48 89 4c 24 50       	mov    QWORD PTR [rsp+0x50],rcx
45f1:	48 89 44 24 18       	mov    QWORD PTR [rsp+0x18],rax
45f6:	48 8d 05 73 e3 00 00 	lea    rax,[rip+0xe373]        # 12970 <_IO_stdin_used+0x90>
45fd:	48 89 44 24 20       	mov    QWORD PTR [rsp+0x20],rax
4602:	48 8d 05 71 e3 00 00 	lea    rax,[rip+0xe371]        # 1297a <_IO_stdin_used+0x9a>
4609:	48 89 44 24 28       	mov    QWORD PTR [rsp+0x28],rax
460e:	48 89 44 24 38       	mov    QWORD PTR [rsp+0x38],rax
4613:	48 89 44 24 48       	mov    QWORD PTR [rsp+0x48],rax
4618:	48 89 44 24 58       	mov    QWORD PTR [rsp+0x58],rax
461d:	0f 1f 00             	nop    DWORD PTR [rax]
4620:	48 83 c2 10          	add    rdx,0x10
4624:	48 8b 3a             	mov    rdi,QWORD PTR [rdx]
4627:	48 85 ff             	test   rdi,rdi
462a:	74 13                	je     463f <usage+0x41f>
462c:	b9 03 00 00 00       	mov    ecx,0x3
4631:	48 89 de             	mov    rsi,rbx
4634:	f3 a6                	repz cmps BYTE PTR ds:[rsi],BYTE PTR es:[rdi]
4636:	0f 97 c0             	seta   al
4639:	1c 00                	sbb    al,0x0
463b:	84 c0                	test   al,al
463d:	75 e1                	jne    4620 <usage+0x400>
463f:	4c 8b 62 08          	mov    r12,QWORD PTR [rdx+0x8]
4643:	31 ff                	xor    edi,edi
4645:	ba 05 00 00 00       	mov    edx,0x5
464a:	48 8d 35 56 e3 00 00 	lea    rsi,[rip+0xe356]        # 129a7 <_IO_stdin_used+0xc7>
4651:	4d 85 e4             	test   r12,r12
4654:	0f 84 c1 00 00 00    	je     471b <usage+0x4fb>
465a:	e8 81 e2 ff ff       	call   28e0 <dcgettext@plt>
465f:	48 8d 0d 82 fd 00 00 	lea    rcx,[rip+0xfd82]        # 143e8 <sparse_type+0x1368>
4666:	48 8d 15 51 e3 00 00 	lea    rdx,[rip+0xe351]        # 129be <_IO_stdin_used+0xde>
466d:	48 89 c6             	mov    rsi,rax
4670:	bf 01 00 00 00       	mov    edi,0x1
4675:	31 c0                	xor    eax,eax
4677:	e8 e4 e5 ff ff       	call   2c60 <__printf_chk@plt>
467c:	31 f6                	xor    esi,esi
467e:	bf 05 00 00 00       	mov    edi,0x5
4683:	e8 c8 e5 ff ff       	call   2c50 <setlocale@plt>
4688:	48 85 c0             	test   rax,rax
468b:	74 1c                	je     46a9 <usage+0x489>
468d:	48 8d 35 38 e3 00 00 	lea    rsi,[rip+0xe338]        # 129cc <_IO_stdin_used+0xec>
4694:	ba 03 00 00 00       	mov    edx,0x3
4699:	48 89 c7             	mov    rdi,rax
469c:	e8 ef e0 ff ff       	call   2790 <strncmp@plt>
46a1:	85 c0                	test   eax,eax
46a3:	0f 85 07 01 00 00    	jne    47b0 <usage+0x590>
46a9:	48 8d 35 20 e3 00 00 	lea    rsi,[rip+0xe320]        # 129d0 <_IO_stdin_used+0xf0>
46b0:	31 ff                	xor    edi,edi
46b2:	ba 05 00 00 00       	mov    edx,0x5
46b7:	e8 24 e2 ff ff       	call   28e0 <dcgettext@plt>
46bc:	48 8d 0d 82 e2 00 00 	lea    rcx,[rip+0xe282]        # 12945 <_IO_stdin_used+0x65>
46c3:	48 8d 15 1e fd 00 00 	lea    rdx,[rip+0xfd1e]        # 143e8 <sparse_type+0x1368>
46ca:	48 89 c6             	mov    rsi,rax
46cd:	bf 01 00 00 00       	mov    edi,0x1
46d2:	31 c0                	xor    eax,eax
46d4:	e8 87 e5 ff ff       	call   2c60 <__printf_chk@plt>
46d9:	49 39 dc             	cmp    r12,rbx
46dc:	48 8d 0d 81 e2 00 00 	lea    rcx,[rip+0xe281]        # 12964 <_IO_stdin_used+0x84>
46e3:	48 8d 1d 5c 09 01 00 	lea    rbx,[rip+0x1095c]        # 15046 <sparse_type+0x1fc6>
46ea:	48 0f 44 d9          	cmove  rbx,rcx
46ee:	48 8d 35 63 fd 00 00 	lea    rsi,[rip+0xfd63]        # 14458 <sparse_type+0x13d8>
46f5:	31 ff                	xor    edi,edi
46f7:	ba 05 00 00 00       	mov    edx,0x5
46fc:	e8 df e1 ff ff       	call   28e0 <dcgettext@plt>
4701:	48 89 d9             	mov    rcx,rbx
4704:	48 89 c6             	mov    rsi,rax
4707:	4c 89 e2             	mov    rdx,r12
470a:	bf 01 00 00 00       	mov    edi,0x1
470f:	31 c0                	xor    eax,eax
4711:	e8 4a e5 ff ff       	call   2c60 <__printf_chk@plt>
4716:	e9 5b fb ff ff       	jmp    4276 <usage+0x56>
471b:	e8 c0 e1 ff ff       	call   28e0 <dcgettext@plt>
4720:	48 8d 0d c1 fc 00 00 	lea    rcx,[rip+0xfcc1]        # 143e8 <sparse_type+0x1368>
4727:	48 8d 15 90 e2 00 00 	lea    rdx,[rip+0xe290]        # 129be <_IO_stdin_used+0xde>
472e:	48 89 c6             	mov    rsi,rax
4731:	bf 01 00 00 00       	mov    edi,0x1
4736:	31 c0                	xor    eax,eax
4738:	e8 23 e5 ff ff       	call   2c60 <__printf_chk@plt>
473d:	31 f6                	xor    esi,esi
473f:	bf 05 00 00 00       	mov    edi,0x5
4744:	e8 07 e5 ff ff       	call   2c50 <setlocale@plt>
4749:	48 85 c0             	test   rax,rax
474c:	74 18                	je     4766 <usage+0x546>
474e:	48 8d 35 77 e2 00 00 	lea    rsi,[rip+0xe277]        # 129cc <_IO_stdin_used+0xec>
4755:	ba 03 00 00 00       	mov    edx,0x3
475a:	48 89 c7             	mov    rdi,rax
475d:	e8 2e e0 ff ff       	call   2790 <strncmp@plt>
4762:	85 c0                	test   eax,eax
4764:	75 43                	jne    47a9 <usage+0x589>
4766:	48 8d 35 63 e2 00 00 	lea    rsi,[rip+0xe263]        # 129d0 <_IO_stdin_used+0xf0>
476d:	ba 05 00 00 00       	mov    edx,0x5
4772:	31 ff                	xor    edi,edi
4774:	4c 8d 25 ca e1 00 00 	lea    r12,[rip+0xe1ca]        # 12945 <_IO_stdin_used+0x65>
477b:	48 8d 1d e2 e1 00 00 	lea    rbx,[rip+0xe1e2]        # 12964 <_IO_stdin_used+0x84>
4782:	e8 59 e1 ff ff       	call   28e0 <dcgettext@plt>
4787:	48 8d 0d b7 e1 00 00 	lea    rcx,[rip+0xe1b7]        # 12945 <_IO_stdin_used+0x65>
478e:	48 8d 15 53 fc 00 00 	lea    rdx,[rip+0xfc53]        # 143e8 <sparse_type+0x1368>
4795:	48 89 c6             	mov    rsi,rax
4798:	bf 01 00 00 00       	mov    edi,0x1
479d:	31 c0                	xor    eax,eax
479f:	e8 bc e4 ff ff       	call   2c60 <__printf_chk@plt>
47a4:	e9 45 ff ff ff       	jmp    46ee <usage+0x4ce>
47a9:	4c 8d 25 95 e1 00 00 	lea    r12,[rip+0xe195]        # 12945 <_IO_stdin_used+0x65>
47b0:	4c 8b 2d f1 58 21 00 	mov    r13,QWORD PTR [rip+0x2158f1]        # 21a0a8 <stdout@@GLIBC_2.2.5>
47b7:	48 8d 35 52 fc 00 00 	lea    rsi,[rip+0xfc52]        # 14410 <sparse_type+0x1390>
47be:	31 ff                	xor    edi,edi
47c0:	ba 05 00 00 00       	mov    edx,0x5
47c5:	e8 16 e1 ff ff       	call   28e0 <dcgettext@plt>
47ca:	4c 89 ee             	mov    rsi,r13
47cd:	48 89 c7             	mov    rdi,rax
47d0:	e8 db e2 ff ff       	call   2ab0 <fputs_unlocked@plt>
47d5:	e9 cf fe ff ff       	jmp    46a9 <usage+0x489>
47da:	66 0f 1f 44 00 00    	nop    WORD PTR [rax+rax*1+0x0]

00000000000047e0 <do_copy>:
47e0:	55                   	push   rbp
47e1:	48 89 e5             	mov    rbp,rsp
47e4:	41 57                	push   r15
47e6:	41 56                	push   r14
47e8:	41 55                	push   r13
47ea:	41 54                	push   r12
47ec:	4c 63 e7             	movsxd r12,edi
47ef:	53                   	push   rbx
47f0:	48 89 f3             	mov    rbx,rsi
47f3:	48 81 ec e8 00 00 00 	sub    rsp,0xe8
47fa:	48 89 95 08 ff ff ff 	mov    QWORD PTR [rbp-0xf8],rdx
4801:	c6 85 1e ff ff ff 00 	mov    BYTE PTR [rbp-0xe2],0x0
4808:	64 48 8b 04 25 28 00 	mov    rax,QWORD PTR fs:0x28
480f:	00 00
4811:	48 89 45 c8          	mov    QWORD PTR [rbp-0x38],rax
4815:	31 c0                	xor    eax,eax
4817:	41 f7 40 14 00 ff ff 	test   DWORD PTR [r8+0x14],0xffff00
481e:	00
481f:	0f 95 c0             	setne  al
4822:	48 85 d2             	test   rdx,rdx
4825:	0f 94 c2             	sete   dl
4828:	0f b6 d2             	movzx  edx,dl
482b:	44 39 e2             	cmp    edx,r12d
482e:	0f 8d 5f 04 00 00    	jge    4c93 <do_copy+0x4b3>
4834:	84 c9                	test   cl,cl
4836:	4d 89 c6             	mov    r14,r8
4839:	0f 84 f7 00 00 00    	je     4936 <do_copy+0x156>
483f:	48 83 bd 08 ff ff ff 	cmp    QWORD PTR [rbp-0xf8],0x0
4846:	00
4847:	0f 85 22 04 00 00    	jne    4c6f <do_copy+0x48f>
484d:	41 83 fc 02          	cmp    r12d,0x2
4851:	0f 8f d9 03 00 00    	jg     4c30 <do_copy+0x450>
4857:	4a 8b 7c e3 f8       	mov    rdi,QWORD PTR [rbx+r12*8-0x8]
485c:	48 8d 95 1e ff ff ff 	lea    rdx,[rbp-0xe2]
4863:	48 8d b5 30 ff ff ff 	lea    rsi,[rbp-0xd0]
486a:	0f b6 c8             	movzx  ecx,al
486d:	e8 be f0 ff ff       	call   3930 <target_directory_operand>
4872:	80 3d d8 58 21 00 00 	cmp    BYTE PTR [rip+0x2158d8],0x0        # 21a151 <parents_option>
4879:	4c 8b 23             	mov    r12,QWORD PTR [rbx]
487c:	48 8b 5b 08          	mov    rbx,QWORD PTR [rbx+0x8]
4880:	0f 85 36 04 00 00    	jne    4cbc <do_copy+0x4dc>
4886:	41 80 7e 16 00       	cmp    BYTE PTR [r14+0x16],0x0
488b:	74 67                	je     48f4 <do_copy+0x114>
488d:	45 8b 2e             	mov    r13d,DWORD PTR [r14]
4890:	45 85 ed             	test   r13d,r13d
4893:	74 5f                	je     48f4 <do_copy+0x114>
4895:	48 89 de             	mov    rsi,rbx
4898:	4c 89 e7             	mov    rdi,r12
489b:	e8 50 e2 ff ff       	call   2af0 <strcmp@plt>
48a0:	85 c0                	test   eax,eax
48a2:	75 50                	jne    48f4 <do_copy+0x114>
48a4:	80 bd 1e ff ff ff 00 	cmp    BYTE PTR [rbp-0xe2],0x0
48ab:	75 47                	jne    48f4 <do_copy+0x114>
48ad:	8b 85 48 ff ff ff    	mov    eax,DWORD PTR [rbp-0xb8]
48b3:	25 00 f0 00 00       	and    eax,0xf000
48b8:	3d 00 80 00 00       	cmp    eax,0x8000
48bd:	75 35                	jne    48f4 <do_copy+0x114>
48bf:	48 89 de             	mov    rsi,rbx
48c2:	bf 9c ff ff ff       	mov    edi,0xffffff9c
48c7:	44 89 ea             	mov    edx,r13d
48ca:	e8 f1 68 00 00       	call   b1c0 <find_backup_file_name>
48cf:	4c 89 f6             	mov    rsi,r14
48d2:	4c 8d 35 27 58 21 00 	lea    r14,[rip+0x215827]        # 21a100 <x_tmp.7353>
48d9:	48 8d 3d 20 58 21 00 	lea    rdi,[rip+0x215820]        # 21a100 <x_tmp.7353>
48e0:	b9 14 00 00 00       	mov    ecx,0x14
48e5:	48 89 c3             	mov    rbx,rax
48e8:	f3 a5                	rep movs DWORD PTR es:[rdi],DWORD PTR ds:[rsi]
48ea:	c7 05 0c 58 21 00 00 	mov    DWORD PTR [rip+0x21580c],0x0        # 21a100 <x_tmp.7353>
48f1:	00 00 00
48f4:	4c 8d 85 28 ff ff ff 	lea    r8,[rbp-0xd8]
48fb:	45 31 c9             	xor    r9d,r9d
48fe:	4c 89 f1             	mov    rcx,r14
4901:	31 d2                	xor    edx,edx
4903:	48 89 de             	mov    rsi,rbx
4906:	4c 89 e7             	mov    rdi,r12
4909:	e8 82 52 00 00       	call   9b90 <copy>
490e:	41 89 c7             	mov    r15d,eax
4911:	48 8b 4d c8          	mov    rcx,QWORD PTR [rbp-0x38]
4915:	64 48 33 0c 25 28 00 	xor    rcx,QWORD PTR fs:0x28
491c:	00 00
491e:	44 89 f8             	mov    eax,r15d
4921:	0f 85 90 03 00 00    	jne    4cb7 <do_copy+0x4d7>
4927:	48 8d 65 d8          	lea    rsp,[rbp-0x28]
492b:	5b                   	pop    rbx
492c:	41 5c                	pop    r12
492e:	41 5d                	pop    r13
4930:	41 5e                	pop    r14
4932:	41 5f                	pop    r15
4934:	5d                   	pop    rbp
4935:	c3                   	ret
4936:	48 83 bd 08 ff ff ff 	cmp    QWORD PTR [rbp-0xf8],0x0
493d:	00
493e:	0f 84 5a 02 00 00    	je     4b9e <do_copy+0x3be>
4944:	41 83 fc 01          	cmp    r12d,0x1
4948:	0f 85 3b 02 00 00    	jne    4b89 <do_copy+0x3a9>
494e:	41 8d 44 24 ff       	lea    eax,[r12-0x1]
4953:	41 bf 01 00 00 00    	mov    r15d,0x1
4959:	48 8d 44 c3 08       	lea    rax,[rbx+rax*8+0x8]
495e:	48 89 85 00 ff ff ff 	mov    QWORD PTR [rbp-0x100],rax
4965:	48 8d 85 1f ff ff ff 	lea    rax,[rbp-0xe1]
496c:	48 89 85 f0 fe ff ff 	mov    QWORD PTR [rbp-0x110],rax
4973:	48 8d 85 28 ff ff ff 	lea    rax,[rbp-0xd8]
497a:	48 89 85 f8 fe ff ff 	mov    QWORD PTR [rbp-0x108],rax
4981:	e9 be 00 00 00       	jmp    4a44 <do_copy+0x264>
4986:	66 2e 0f 1f 84 00 00 	nop    WORD PTR cs:[rax+rax*1+0x0]
498d:	00 00 00
4990:	e8 6b df ff ff       	call   2900 <strlen@plt>
4995:	48 8d 50 01          	lea    rdx,[rax+0x1]
4999:	48 83 c0 1f          	add    rax,0x1f
499d:	4c 89 ee             	mov    rsi,r13
49a0:	48 83 e0 f0          	and    rax,0xfffffffffffffff0
49a4:	48 29 c4             	sub    rsp,rax
49a7:	48 8d 7c 24 0f       	lea    rdi,[rsp+0xf]
49ac:	48 83 e7 f0          	and    rdi,0xfffffffffffffff0
49b0:	e8 ab e1 ff ff       	call   2b60 <memcpy@plt>
49b5:	48 89 c7             	mov    rdi,rax
49b8:	49 89 c4             	mov    r12,rax
49bb:	e8 80 6c 00 00       	call   b640 <strip_trailing_slashes>
49c0:	48 8b 95 f8 fe ff ff 	mov    rdx,QWORD PTR [rbp-0x108]
49c7:	48 8b bd 08 ff ff ff 	mov    rdi,QWORD PTR [rbp-0xf8]
49ce:	4c 89 e6             	mov    rsi,r12
49d1:	e8 ea 6f 00 00       	call   b9c0 <file_name_concat>
49d6:	41 80 7e 2e 00       	cmp    BYTE PTR [r14+0x2e],0x0
49db:	48 8b b5 28 ff ff ff 	mov    rsi,QWORD PTR [rbp-0xd8]
49e2:	49 89 c4             	mov    r12,rax
49e5:	48 8d 05 ff df 00 00 	lea    rax,[rip+0xdfff]        # 129eb <_IO_stdin_used+0x10b>
49ec:	ba 00 00 00 00       	mov    edx,0x0
49f1:	48 8d 8d 20 ff ff ff 	lea    rcx,[rbp-0xe0]
49f8:	4c 8d 85 1e ff ff ff 	lea    r8,[rbp-0xe2]
49ff:	4d 89 f1             	mov    r9,r14
4a02:	4c 89 e7             	mov    rdi,r12
4a05:	48 0f 45 d0          	cmovne rdx,rax
4a09:	4c 29 e6             	sub    rsi,r12
4a0c:	e8 ef ef ff ff       	call   3a00 <make_dir_parents_private>
4a11:	84 c0                	test   al,al
4a13:	0f 85 be 00 00 00    	jne    4ad7 <do_copy+0x2f7>
4a19:	0f b6 05 31 57 21 00 	movzx  eax,BYTE PTR [rip+0x215731]        # 21a151 <parents_option>
4a20:	45 31 ff             	xor    r15d,r15d
4a23:	84 c0                	test   al,al
4a25:	0f 85 20 01 00 00    	jne    4b4b <do_copy+0x36b>
4a2b:	4c 89 e7             	mov    rdi,r12
4a2e:	48 83 c3 08          	add    rbx,0x8
4a32:	e8 d9 e3 ff ff       	call   2e10 <free@plt>
4a37:	48 39 9d 00 ff ff ff 	cmp    QWORD PTR [rbp-0x100],rbx
4a3e:	0f 84 cd fe ff ff    	je     4911 <do_copy+0x131>
4a44:	80 3d 05 57 21 00 00 	cmp    BYTE PTR [rip+0x215705],0x0        # 21a150 <remove_trailing_slashes>
4a4b:	48 c7 85 28 ff ff ff 	mov    QWORD PTR [rbp-0xd8],0x0
4a52:	00 00 00 00
4a56:	4c 8b 2b             	mov    r13,QWORD PTR [rbx]
4a59:	0f 85 01 01 00 00    	jne    4b60 <do_copy+0x380>
4a5f:	80 3d eb 56 21 00 00 	cmp    BYTE PTR [rip+0x2156eb],0x0        # 21a151 <parents_option>
4a66:	4c 89 ef             	mov    rdi,r13
4a69:	0f 85 21 ff ff ff    	jne    4990 <do_copy+0x1b0>
4a6f:	e8 1c 6b 00 00       	call   b590 <last_component>
4a74:	48 89 c7             	mov    rdi,rax
4a77:	49 89 c4             	mov    r12,rax
4a7a:	e8 81 de ff ff       	call   2900 <strlen@plt>
4a7f:	48 8d 50 01          	lea    rdx,[rax+0x1]
4a83:	48 83 c0 1f          	add    rax,0x1f
4a87:	4c 89 e6             	mov    rsi,r12
4a8a:	48 83 e0 f0          	and    rax,0xfffffffffffffff0
4a8e:	48 29 c4             	sub    rsp,rax
4a91:	48 8d 7c 24 0f       	lea    rdi,[rsp+0xf]
4a96:	48 83 e7 f0          	and    rdi,0xfffffffffffffff0
4a9a:	e8 c1 e0 ff ff       	call   2b60 <memcpy@plt>
4a9f:	48 89 c7             	mov    rdi,rax
4aa2:	49 89 c4             	mov    r12,rax
4aa5:	e8 96 6b 00 00       	call   b640 <strip_trailing_slashes>
4aaa:	48 8d 3d 87 df 00 00 	lea    rdi,[rip+0xdf87]        # 12a38 <_IO_stdin_used+0x158>
4ab1:	b9 03 00 00 00       	mov    ecx,0x3
4ab6:	4c 89 e6             	mov    rsi,r12
4ab9:	f3 a6                	repz cmps BYTE PTR ds:[rsi],BYTE PTR es:[rdi]
4abb:	0f 97 c0             	seta   al
4abe:	1c 00                	sbb    al,0x0
4ac0:	84 c0                	test   al,al
4ac2:	0f 85 a8 00 00 00    	jne    4b70 <do_copy+0x390>
4ac8:	48 8b bd 08 ff ff ff 	mov    rdi,QWORD PTR [rbp-0xf8]
4acf:	e8 7c c7 00 00       	call   11250 <xstrdup>
4ad4:	49 89 c4             	mov    r12,rax
4ad7:	0f b6 95 1e ff ff ff 	movzx  edx,BYTE PTR [rbp-0xe2]
4ade:	4c 8b 85 f0 fe ff ff 	mov    r8,QWORD PTR [rbp-0x110]
4ae5:	45 31 c9             	xor    r9d,r9d
4ae8:	4c 89 f1             	mov    rcx,r14
4aeb:	4c 89 e6             	mov    rsi,r12
4aee:	4c 89 ef             	mov    rdi,r13
4af1:	e8 9a 50 00 00       	call   9b90 <copy>
4af6:	41 21 c7             	and    r15d,eax
4af9:	80 3d 51 56 21 00 00 	cmp    BYTE PTR [rip+0x215651],0x0        # 21a151 <parents_option>
4b00:	0f 84 25 ff ff ff    	je     4a2b <do_copy+0x24b>
4b06:	48 8b b5 28 ff ff ff 	mov    rsi,QWORD PTR [rbp-0xd8]
4b0d:	48 8b 95 20 ff ff ff 	mov    rdx,QWORD PTR [rbp-0xe0]
4b14:	4c 89 f1             	mov    rcx,r14
4b17:	4c 89 e7             	mov    rdi,r12
4b1a:	4c 29 e6             	sub    rsi,r12
4b1d:	e8 9e f4 ff ff       	call   3fc0 <re_protect>
4b22:	41 21 c7             	and    r15d,eax
4b25:	0f b6 05 25 56 21 00 	movzx  eax,BYTE PTR [rip+0x215625]        # 21a151 <parents_option>
4b2c:	e9 f2 fe ff ff       	jmp    4a23 <do_copy+0x243>
4b31:	0f 1f 80 00 00 00 00 	nop    DWORD PTR [rax+0x0]
4b38:	48 8b 87 a0 00 00 00 	mov    rax,QWORD PTR [rdi+0xa0]
4b3f:	48 89 85 20 ff ff ff 	mov    QWORD PTR [rbp-0xe0],rax
4b46:	e8 c5 e2 ff ff       	call   2e10 <free@plt>
4b4b:	48 8b bd 20 ff ff ff 	mov    rdi,QWORD PTR [rbp-0xe0]
4b52:	48 85 ff             	test   rdi,rdi
4b55:	75 e1                	jne    4b38 <do_copy+0x358>
4b57:	e9 cf fe ff ff       	jmp    4a2b <do_copy+0x24b>
4b5c:	0f 1f 40 00          	nop    DWORD PTR [rax+0x0]
4b60:	4c 89 ef             	mov    rdi,r13
4b63:	e8 d8 6a 00 00       	call   b640 <strip_trailing_slashes>
4b68:	e9 f2 fe ff ff       	jmp    4a5f <do_copy+0x27f>
4b6d:	0f 1f 00             	nop    DWORD PTR [rax]
4b70:	48 8b bd 08 ff ff ff 	mov    rdi,QWORD PTR [rbp-0xf8]
4b77:	4c 89 e6             	mov    rsi,r12
4b7a:	31 d2                	xor    edx,edx
4b7c:	e8 3f 6e 00 00       	call   b9c0 <file_name_concat>
4b81:	49 89 c4             	mov    r12,rax
4b84:	e9 4e ff ff ff       	jmp    4ad7 <do_copy+0x2f7>
4b89:	4c 89 f7             	mov    rdi,r14
4b8c:	e8 df 0b 00 00       	call   5770 <dest_info_init>
4b91:	4c 89 f7             	mov    rdi,r14
4b94:	e8 07 0c 00 00       	call   57a0 <src_info_init>
4b99:	e9 b0 fd ff ff       	jmp    494e <do_copy+0x16e>
4b9e:	41 83 fc 01          	cmp    r12d,0x1
4ba2:	0f 84 ca fc ff ff    	je     4872 <do_copy+0x92>
4ba8:	49 63 d4             	movsxd rdx,r12d
4bab:	0f b6 c8             	movzx  ecx,al
4bae:	4c 8d 6c d6 f8       	lea    r13,[rsi+rdx*8-0x8]
4bb3:	48 8d 95 1e ff ff ff 	lea    rdx,[rbp-0xe2]
4bba:	48 8d b5 30 ff ff ff 	lea    rsi,[rbp-0xd0]
4bc1:	49 8b 7d 00          	mov    rdi,QWORD PTR [r13+0x0]
4bc5:	e8 66 ed ff ff       	call   3930 <target_directory_operand>
4bca:	84 c0                	test   al,al
4bcc:	75 42                	jne    4c10 <do_copy+0x430>
4bce:	41 83 fc 02          	cmp    r12d,0x2
4bd2:	0f 84 9a fc ff ff    	je     4872 <do_copy+0x92>
4bd8:	49 8b 75 00          	mov    rsi,QWORD PTR [r13+0x0]
4bdc:	bf 04 00 00 00       	mov    edi,0x4
4be1:	e8 ca 9e 00 00       	call   eab0 <quotearg_style>
4be6:	48 8d 35 2e de 00 00 	lea    rsi,[rip+0xde2e]        # 12a1b <_IO_stdin_used+0x13b>
4bed:	48 89 c3             	mov    rbx,rax
4bf0:	ba 05 00 00 00       	mov    edx,0x5
4bf5:	31 ff                	xor    edi,edi
4bf7:	e8 e4 dc ff ff       	call   28e0 <dcgettext@plt>
4bfc:	48 89 d9             	mov    rcx,rbx
4bff:	48 89 c2             	mov    rdx,rax
4c02:	31 f6                	xor    esi,esi
4c04:	bf 01 00 00 00       	mov    edi,0x1
4c09:	31 c0                	xor    eax,eax
4c0b:	e8 a0 e0 ff ff       	call   2cb0 <error@plt>
4c10:	41 83 ec 01          	sub    r12d,0x1
4c14:	49 63 c4             	movsxd rax,r12d
4c17:	48 8b 04 c3          	mov    rax,QWORD PTR [rbx+rax*8]
4c1b:	48 85 c0             	test   rax,rax
4c1e:	48 89 85 08 ff ff ff 	mov    QWORD PTR [rbp-0xf8],rax
4c25:	0f 85 19 fd ff ff    	jne    4944 <do_copy+0x164>
4c2b:	e9 42 fc ff ff       	jmp    4872 <do_copy+0x92>
4c30:	48 8b 76 10          	mov    rsi,QWORD PTR [rsi+0x10]
4c34:	bf 04 00 00 00       	mov    edi,0x4
4c39:	e8 72 9e 00 00       	call   eab0 <quotearg_style>
4c3e:	48 8d 35 c5 dd 00 00 	lea    rsi,[rip+0xddc5]        # 12a0a <_IO_stdin_used+0x12a>
4c45:	48 89 c3             	mov    rbx,rax
4c48:	ba 05 00 00 00       	mov    edx,0x5
4c4d:	31 ff                	xor    edi,edi
4c4f:	e8 8c dc ff ff       	call   28e0 <dcgettext@plt>
4c54:	48 89 d9             	mov    rcx,rbx
4c57:	48 89 c2             	mov    rdx,rax
4c5a:	31 f6                	xor    esi,esi
4c5c:	31 ff                	xor    edi,edi
4c5e:	31 c0                	xor    eax,eax
4c60:	e8 4b e0 ff ff       	call   2cb0 <error@plt>
4c65:	bf 01 00 00 00       	mov    edi,0x1
4c6a:	e8 b1 f5 ff ff       	call   4220 <usage>
4c6f:	48 8d 35 4a f8 00 00 	lea    rsi,[rip+0xf84a]        # 144c0 <sparse_type+0x1440>
4c76:	ba 05 00 00 00       	mov    edx,0x5
4c7b:	31 ff                	xor    edi,edi
4c7d:	e8 5e dc ff ff       	call   28e0 <dcgettext@plt>
4c82:	31 f6                	xor    esi,esi
4c84:	48 89 c2             	mov    rdx,rax
4c87:	bf 01 00 00 00       	mov    edi,0x1
4c8c:	31 c0                	xor    eax,eax
4c8e:	e8 1d e0 ff ff       	call   2cb0 <error@plt>
4c93:	41 83 ec 01          	sub    r12d,0x1
4c97:	75 46                	jne    4cdf <do_copy+0x4ff>
4c99:	48 8b 36             	mov    rsi,QWORD PTR [rsi]
4c9c:	bf 04 00 00 00       	mov    edi,0x4
4ca1:	e8 0a 9e 00 00       	call   eab0 <quotearg_style>
4ca6:	ba 05 00 00 00       	mov    edx,0x5
4cab:	48 89 c3             	mov    rbx,rax
4cae:	48 8d 35 db f7 00 00 	lea    rsi,[rip+0xf7db]        # 14490 <sparse_type+0x1410>
4cb5:	eb 96                	jmp    4c4d <do_copy+0x46d>
4cb7:	e8 74 dc ff ff       	call   2930 <__stack_chk_fail@plt>
4cbc:	48 8d 35 45 f8 00 00 	lea    rsi,[rip+0xf845]        # 14508 <sparse_type+0x1488>
4cc3:	ba 05 00 00 00       	mov    edx,0x5
4cc8:	31 ff                	xor    edi,edi
4cca:	e8 11 dc ff ff       	call   28e0 <dcgettext@plt>
4ccf:	31 f6                	xor    esi,esi
4cd1:	48 89 c2             	mov    rdx,rax
4cd4:	31 ff                	xor    edi,edi
4cd6:	31 c0                	xor    eax,eax
4cd8:	e8 d3 df ff ff       	call   2cb0 <error@plt>
4cdd:	eb 86                	jmp    4c65 <do_copy+0x485>
4cdf:	ba 05 00 00 00       	mov    edx,0x5
4ce4:	48 8d 35 0a dd 00 00 	lea    rsi,[rip+0xdd0a]        # 129f5 <_IO_stdin_used+0x115>
4ceb:	eb db                	jmp    4cc8 <do_copy+0x4e8>
4ced:	0f 1f 00             	nop    DWORD PTR [rax]

0000000000004cf0 <writable_destination>:
4cf0:	81 e6 00 f0 00 00    	and    esi,0xf000
4cf6:	81 fe 00 a0 00 00    	cmp    esi,0xa000
4cfc:	74 1a                	je     4d18 <writable_destination+0x28>
4cfe:	53                   	push   rbx
4cff:	48 89 fb             	mov    rbx,rdi
4d02:	e8 d9 c2 00 00       	call   10fe0 <can_write_any_file>
4d07:	84 c0                	test   al,al
4d09:	74 15                	je     4d20 <writable_destination+0x30>
4d0b:	b8 01 00 00 00       	mov    eax,0x1
4d10:	5b                   	pop    rbx
4d11:	c3                   	ret
4d12:	66 0f 1f 44 00 00    	nop    WORD PTR [rax+rax*1+0x0]
4d18:	b8 01 00 00 00       	mov    eax,0x1
4d1d:	c3                   	ret
4d1e:	66 90                	xchg   ax,ax
4d20:	48 89 df             	mov    rdi,rbx
4d23:	be 02 00 00 00       	mov    esi,0x2
4d28:	e8 13 e0 ff ff       	call   2d40 <euidaccess@plt>
4d2d:	85 c0                	test   eax,eax
4d2f:	0f 94 c0             	sete   al
4d32:	5b                   	pop    rbx
4d33:	c3                   	ret
4d34:	66 90                	xchg   ax,ax
4d36:	66 2e 0f 1f 84 00 00 	nop    WORD PTR cs:[rax+rax*1+0x0]
4d3d:	00 00 00

0000000000004d40 <write_zeros>:
4d40:	48 83 3d 18 58 21 00 	cmp    QWORD PTR [rip+0x215818],0x0        # 21a560 <zeros.7570>
4d47:	00
4d48:	41 54                	push   r12
4d4a:	41 89 fc             	mov    r12d,edi
4d4d:	55                   	push   rbp
4d4e:	53                   	push   rbx
4d4f:	48 89 f3             	mov    rbx,rsi
4d52:	74 54                	je     4da8 <write_zeros+0x68>
4d54:	48 85 db             	test   rbx,rbx
4d57:	75 0c                	jne    4d65 <write_zeros+0x25>
4d59:	eb 3d                	jmp    4d98 <write_zeros+0x58>
4d5b:	0f 1f 44 00 00       	nop    DWORD PTR [rax+rax*1+0x0]
4d60:	48 29 c3             	sub    rbx,rax
4d63:	74 33                	je     4d98 <write_zeros+0x58>
4d65:	48 39 1d ac 52 21 00 	cmp    QWORD PTR [rip+0x2152ac],rbx        # 21a018 <nz.7571>
4d6c:	48 89 dd             	mov    rbp,rbx
4d6f:	48 8b 35 ea 57 21 00 	mov    rsi,QWORD PTR [rip+0x2157ea]        # 21a560 <zeros.7570>
4d76:	48 0f 46 2d 9a 52 21 	cmovbe rbp,QWORD PTR [rip+0x21529a]        # 21a018 <nz.7571>
4d7d:	00
4d7e:	44 89 e7             	mov    edi,r12d
4d81:	48 89 ea             	mov    rdx,rbp
4d84:	e8 57 6d 00 00       	call   bae0 <full_write>
4d89:	48 39 e8             	cmp    rax,rbp
4d8c:	74 d2                	je     4d60 <write_zeros+0x20>
4d8e:	5b                   	pop    rbx
4d8f:	31 c0                	xor    eax,eax
4d91:	5d                   	pop    rbp
4d92:	41 5c                	pop    r12
4d94:	c3                   	ret
4d95:	0f 1f 00             	nop    DWORD PTR [rax]
4d98:	5b                   	pop    rbx
4d99:	b8 01 00 00 00       	mov    eax,0x1
4d9e:	5d                   	pop    rbp
4d9f:	41 5c                	pop    r12
4da1:	c3                   	ret
4da2:	66 0f 1f 44 00 00    	nop    WORD PTR [rax+rax*1+0x0]
4da8:	48 8b 3d 69 52 21 00 	mov    rdi,QWORD PTR [rip+0x215269]        # 21a018 <nz.7571>
4daf:	be 01 00 00 00       	mov    esi,0x1
4db4:	e8 17 dd ff ff       	call   2ad0 <calloc@plt>
4db9:	48 85 c0             	test   rax,rax
4dbc:	74 09                	je     4dc7 <write_zeros+0x87>
4dbe:	48 89 05 9b 57 21 00 	mov    QWORD PTR [rip+0x21579b],rax        # 21a560 <zeros.7570>
4dc5:	eb 8d                	jmp    4d54 <write_zeros+0x14>
4dc7:	48 8d 05 92 53 21 00 	lea    rax,[rip+0x215392]        # 21a160 <fallback.7572>
4dce:	48 c7 05 3f 52 21 00 	mov    QWORD PTR [rip+0x21523f],0x400        # 21a018 <nz.7571>
4dd5:	00 04 00 00
4dd9:	48 89 05 80 57 21 00 	mov    QWORD PTR [rip+0x215780],rax        # 21a560 <zeros.7570>
4de0:	e9 6f ff ff ff       	jmp    4d54 <write_zeros+0x14>
4de5:	90                   	nop
4de6:	66 2e 0f 1f 84 00 00 	nop    WORD PTR cs:[rax+rax*1+0x0]
4ded:	00 00 00

0000000000004df0 <punch_hole>:
4df0:	53                   	push   rbx
4df1:	48 89 d1             	mov    rcx,rdx
4df4:	48 89 f2             	mov    rdx,rsi
4df7:	be 03 00 00 00       	mov    esi,0x3
4dfc:	e8 9f dc ff ff       	call   2aa0 <fallocate@plt>
4e01:	85 c0                	test   eax,eax
4e03:	89 c3                	mov    ebx,eax
4e05:	78 09                	js     4e10 <punch_hole+0x20>
4e07:	89 d8                	mov    eax,ebx
4e09:	5b                   	pop    rbx
4e0a:	c3                   	ret
4e0b:	0f 1f 44 00 00       	nop    DWORD PTR [rax+rax*1+0x0]
4e10:	e8 5b d9 ff ff       	call   2770 <__errno_location@plt>
4e15:	8b 00                	mov    eax,DWORD PTR [rax]
4e17:	83 f8 26             	cmp    eax,0x26
4e1a:	74 05                	je     4e21 <punch_hole+0x31>
4e1c:	83 f8 5f             	cmp    eax,0x5f
4e1f:	75 e6                	jne    4e07 <punch_hole+0x17>
4e21:	31 db                	xor    ebx,ebx
4e23:	89 d8                	mov    eax,ebx
4e25:	5b                   	pop    rbx
4e26:	c3                   	ret
4e27:	66 0f 1f 84 00 00 00 	nop    WORD PTR [rax+rax*1+0x0]
4e2e:	00 00

0000000000004e30 <emit_verbose>:
4e30:	41 54                	push   r12
4e32:	55                   	push   rbp
4e33:	49 89 fc             	mov    r12,rdi
4e36:	53                   	push   rbx
4e37:	bf 01 00 00 00       	mov    edi,0x1
4e3c:	48 89 d3             	mov    rbx,rdx
4e3f:	48 89 f2             	mov    rdx,rsi
4e42:	be 04 00 00 00       	mov    esi,0x4
4e47:	e8 44 9b 00 00       	call   e990 <quotearg_n_style>
4e4c:	31 ff                	xor    edi,edi
4e4e:	4c 89 e2             	mov    rdx,r12
4e51:	be 04 00 00 00       	mov    esi,0x4
4e56:	48 89 c5             	mov    rbp,rax
4e59:	e8 32 9b 00 00       	call   e990 <quotearg_n_style>
4e5e:	48 8d 35 04 ff 00 00 	lea    rsi,[rip+0xff04]        # 14d69 <sparse_type+0x1ce9>
4e65:	48 89 c2             	mov    rdx,rax
4e68:	48 89 e9             	mov    rcx,rbp
4e6b:	31 c0                	xor    eax,eax
4e6d:	bf 01 00 00 00       	mov    edi,0x1
4e72:	e8 e9 dd ff ff       	call   2c60 <__printf_chk@plt>
4e77:	48 85 db             	test   rbx,rbx
4e7a:	74 35                	je     4eb1 <emit_verbose+0x81>
4e7c:	48 89 de             	mov    rsi,rbx
4e7f:	bf 04 00 00 00       	mov    edi,0x4
4e84:	e8 27 9c 00 00       	call   eab0 <quotearg_style>
4e89:	48 8d 35 e2 fe 00 00 	lea    rsi,[rip+0xfee2]        # 14d72 <sparse_type+0x1cf2>
4e90:	48 89 c3             	mov    rbx,rax
4e93:	ba 05 00 00 00       	mov    edx,0x5
4e98:	31 ff                	xor    edi,edi
4e9a:	e8 41 da ff ff       	call   28e0 <dcgettext@plt>
4e9f:	48 89 da             	mov    rdx,rbx
4ea2:	48 89 c6             	mov    rsi,rax
4ea5:	bf 01 00 00 00       	mov    edi,0x1
4eaa:	31 c0                	xor    eax,eax
4eac:	e8 af dd ff ff       	call   2c60 <__printf_chk@plt>
4eb1:	48 8b 3d f0 51 21 00 	mov    rdi,QWORD PTR [rip+0x2151f0]        # 21a0a8 <stdout@@GLIBC_2.2.5>
4eb8:	48 8b 47 28          	mov    rax,QWORD PTR [rdi+0x28]
4ebc:	48 3b 47 30          	cmp    rax,QWORD PTR [rdi+0x30]
4ec0:	73 16                	jae    4ed8 <emit_verbose+0xa8>
4ec2:	48 8d 50 01          	lea    rdx,[rax+0x1]
4ec6:	48 89 57 28          	mov    QWORD PTR [rdi+0x28],rdx
4eca:	c6 00 0a             	mov    BYTE PTR [rax],0xa
4ecd:	5b                   	pop    rbx
4ece:	5d                   	pop    rbp
4ecf:	41 5c                	pop    r12
4ed1:	c3                   	ret
4ed2:	66 0f 1f 44 00 00    	nop    WORD PTR [rax+rax*1+0x0]
4ed8:	5b                   	pop    rbx
4ed9:	5d                   	pop    rbp
4eda:	41 5c                	pop    r12
4edc:	be 0a 00 00 00       	mov    esi,0xa
4ee1:	e9 aa da ff ff       	jmp    2990 <__overflow@plt>
4ee6:	66 2e 0f 1f 84 00 00 	nop    WORD PTR cs:[rax+rax*1+0x0]
4eed:	00 00 00

0000000000004ef0 <create_hard_link>:
4ef0:	41 55                	push   r13
4ef2:	41 54                	push   r12
4ef4:	44 0f b6 ca          	movzx  r9d,dl
4ef8:	55                   	push   rbp
4ef9:	53                   	push   rbx
4efa:	ba 9c ff ff ff       	mov    edx,0xffffff9c
4eff:	49 89 fd             	mov    r13,rdi
4f02:	49 89 f4             	mov    r12,rsi
4f05:	89 cd                	mov    ebp,ecx
4f07:	48 83 ec 10          	sub    rsp,0x10
4f0b:	45 84 c0             	test   r8b,r8b
4f0e:	48 89 f1             	mov    rcx,rsi
4f11:	41 0f 95 c0          	setne  r8b
4f15:	6a ff                	push   0xffffffffffffffff
4f17:	48 89 fe             	mov    rsi,rdi
4f1a:	45 0f b6 c0          	movzx  r8d,r8b
4f1e:	89 d7                	mov    edi,edx
4f20:	41 c1 e0 0a          	shl    r8d,0xa
4f24:	e8 a7 53 00 00       	call   a2d0 <force_linkat>
4f29:	85 c0                	test   eax,eax
4f2b:	89 c3                	mov    ebx,eax
4f2d:	5a                   	pop    rdx
4f2e:	59                   	pop    rcx
4f2f:	7f 67                	jg     4f98 <create_hard_link+0xa8>
4f31:	c1 eb 1f             	shr    ebx,0x1f
4f34:	40 20 eb             	and    bl,bpl
4f37:	75 17                	jne    4f50 <create_hard_link+0x60>
4f39:	48 83 c4 08          	add    rsp,0x8
4f3d:	bb 01 00 00 00       	mov    ebx,0x1
4f42:	89 d8                	mov    eax,ebx
4f44:	5b                   	pop    rbx
4f45:	5d                   	pop    rbp
4f46:	41 5c                	pop    r12
4f48:	41 5d                	pop    r13
4f4a:	c3                   	ret
4f4b:	0f 1f 44 00 00       	nop    DWORD PTR [rax+rax*1+0x0]
4f50:	4c 89 e6             	mov    rsi,r12
4f53:	bf 04 00 00 00       	mov    edi,0x4
4f58:	e8 53 9b 00 00       	call   eab0 <quotearg_style>
4f5d:	48 8d 35 1c fe 00 00 	lea    rsi,[rip+0xfe1c]        # 14d80 <sparse_type+0x1d00>
4f64:	48 89 c5             	mov    rbp,rax
4f67:	ba 05 00 00 00       	mov    edx,0x5
4f6c:	31 ff                	xor    edi,edi
4f6e:	e8 6d d9 ff ff       	call   28e0 <dcgettext@plt>
4f73:	48 89 ea             	mov    rdx,rbp
4f76:	48 89 c6             	mov    rsi,rax
4f79:	bf 01 00 00 00       	mov    edi,0x1
4f7e:	31 c0                	xor    eax,eax
4f80:	e8 db dc ff ff       	call   2c60 <__printf_chk@plt>
4f85:	48 83 c4 08          	add    rsp,0x8
4f89:	89 d8                	mov    eax,ebx
4f8b:	5b                   	pop    rbx
4f8c:	5d                   	pop    rbp
4f8d:	41 5c                	pop    r12
4f8f:	41 5d                	pop    r13
4f91:	c3                   	ret
4f92:	66 0f 1f 44 00 00    	nop    WORD PTR [rax+rax*1+0x0]
4f98:	4c 89 ea             	mov    rdx,r13
4f9b:	be 04 00 00 00       	mov    esi,0x4
4fa0:	bf 01 00 00 00       	mov    edi,0x1
4fa5:	e8 e6 99 00 00       	call   e990 <quotearg_n_style>
4faa:	4c 89 e2             	mov    rdx,r12
4fad:	be 04 00 00 00       	mov    esi,0x4
4fb2:	31 ff                	xor    edi,edi
4fb4:	49 89 c5             	mov    r13,rax
4fb7:	e8 d4 99 00 00       	call   e990 <quotearg_n_style>
4fbc:	48 8d 35 bd f7 00 00 	lea    rsi,[rip+0xf7bd]        # 14780 <sparse_type+0x1700>
4fc3:	48 89 c5             	mov    rbp,rax
4fc6:	ba 05 00 00 00       	mov    edx,0x5
4fcb:	31 ff                	xor    edi,edi
4fcd:	e8 0e d9 ff ff       	call   28e0 <dcgettext@plt>
4fd2:	4d 89 e8             	mov    r8,r13
4fd5:	48 89 e9             	mov    rcx,rbp
4fd8:	48 89 c2             	mov    rdx,rax
4fdb:	89 de                	mov    esi,ebx
4fdd:	31 c0                	xor    eax,eax
4fdf:	31 ff                	xor    edi,edi
4fe1:	e8 ca dc ff ff       	call   2cb0 <error@plt>
4fe6:	31 db                	xor    ebx,ebx
4fe8:	48 83 c4 08          	add    rsp,0x8
4fec:	89 d8                	mov    eax,ebx
4fee:	5b                   	pop    rbx
4fef:	5d                   	pop    rbp
4ff0:	41 5c                	pop    r12
4ff2:	41 5d                	pop    r13
4ff4:	c3                   	ret
4ff5:	90                   	nop
4ff6:	66 2e 0f 1f 84 00 00 	nop    WORD PTR cs:[rax+rax*1+0x0]
4ffd:	00 00 00

0000000000005000 <overwrite_ok.isra.12>:
5000:	41 56                	push   r14
5002:	41 55                	push   r13
5004:	49 89 fd             	mov    r13,rdi
5007:	41 54                	push   r12
5009:	55                   	push   rbp
500a:	48 89 d5             	mov    rbp,rdx
500d:	53                   	push   rbx
500e:	48 89 f3             	mov    rbx,rsi
5011:	48 89 df             	mov    rdi,rbx
5014:	48 83 ec 20          	sub    rsp,0x20
5018:	8b 32                	mov    esi,DWORD PTR [rdx]
501a:	64 48 8b 04 25 28 00 	mov    rax,QWORD PTR fs:0x28
5021:	00 00
5023:	48 89 44 24 18       	mov    QWORD PTR [rsp+0x18],rax
5028:	31 c0                	xor    eax,eax
502a:	e8 c1 fc ff ff       	call   4cf0 <writable_destination>
502f:	84 c0                	test   al,al
5031:	0f 85 91 00 00 00    	jne    50c8 <overwrite_ok.isra.12+0xc8>
5037:	8b 7d 00             	mov    edi,DWORD PTR [rbp+0x0]
503a:	4c 8d 64 24 0c       	lea    r12,[rsp+0xc]
503f:	4c 89 e6             	mov    rsi,r12
5042:	e8 d9 67 00 00       	call   b820 <strmode>
5047:	8b 6d 00             	mov    ebp,DWORD PTR [rbp+0x0]
504a:	48 89 de             	mov    rsi,rbx
504d:	bf 04 00 00 00       	mov    edi,0x4
5052:	c6 44 24 16 00       	mov    BYTE PTR [rsp+0x16],0x0
5057:	e8 54 9a 00 00       	call   eab0 <quotearg_style>
505c:	81 e5 ff 0f 00 00    	and    ebp,0xfff
5062:	41 80 7d 18 00       	cmp    BYTE PTR [r13+0x18],0x0
5067:	49 89 c6             	mov    r14,rax
506a:	48 8b 1d 2f 55 21 00 	mov    rbx,QWORD PTR [rip+0x21552f]        # 21a5a0 <program_name>
5071:	ba 05 00 00 00       	mov    edx,0x5
5076:	75 0e                	jne    5086 <overwrite_ok.isra.12+0x86>
5078:	41 f7 45 14 00 ff ff 	test   DWORD PTR [r13+0x14],0xffff00
507f:	00
5080:	0f 84 aa 00 00 00    	je     5130 <overwrite_ok.isra.12+0x130>
5086:	48 8d 35 1b f7 00 00 	lea    rsi,[rip+0xf71b]        # 147a8 <sparse_type+0x1728>
508d:	31 ff                	xor    edi,edi
508f:	e8 4c d8 ff ff       	call   28e0 <dcgettext@plt>
5094:	48 89 c2             	mov    rdx,rax
5097:	48 83 ec 08          	sub    rsp,0x8
509b:	49 83 c4 01          	add    r12,0x1
509f:	48 8b 3d 3a 50 21 00 	mov    rdi,QWORD PTR [rip+0x21503a]        # 21a0e0 <stderr@@GLIBC_2.2.5>
50a6:	41 54                	push   r12
50a8:	49 89 e9             	mov    r9,rbp
50ab:	4d 89 f0             	mov    r8,r14
50ae:	48 89 d9             	mov    rcx,rbx
50b1:	be 01 00 00 00       	mov    esi,0x1
50b6:	31 c0                	xor    eax,eax
50b8:	e8 f3 dc ff ff       	call   2db0 <__fprintf_chk@plt>
50bd:	58                   	pop    rax
50be:	5a                   	pop    rdx
50bf:	eb 4d                	jmp    510e <overwrite_ok.isra.12+0x10e>
50c1:	0f 1f 80 00 00 00 00 	nop    DWORD PTR [rax+0x0]
50c8:	48 89 de             	mov    rsi,rbx
50cb:	bf 04 00 00 00       	mov    edi,0x4
50d0:	e8 db 99 00 00       	call   eab0 <quotearg_style>
50d5:	48 8d 35 b0 fc 00 00 	lea    rsi,[rip+0xfcb0]        # 14d8c <sparse_type+0x1d0c>
50dc:	48 8b 1d bd 54 21 00 	mov    rbx,QWORD PTR [rip+0x2154bd]        # 21a5a0 <program_name>
50e3:	ba 05 00 00 00       	mov    edx,0x5
50e8:	31 ff                	xor    edi,edi
50ea:	48 89 c5             	mov    rbp,rax
50ed:	e8 ee d7 ff ff       	call   28e0 <dcgettext@plt>
50f2:	48 8b 3d e7 4f 21 00 	mov    rdi,QWORD PTR [rip+0x214fe7]        # 21a0e0 <stderr@@GLIBC_2.2.5>
50f9:	48 89 c2             	mov    rdx,rax
50fc:	49 89 e8             	mov    r8,rbp
50ff:	48 89 d9             	mov    rcx,rbx
5102:	be 01 00 00 00       	mov    esi,0x1
5107:	31 c0                	xor    eax,eax
5109:	e8 a2 dc ff ff       	call   2db0 <__fprintf_chk@plt>
510e:	e8 9d c1 00 00       	call   112b0 <yesno>
5113:	48 8b 4c 24 18       	mov    rcx,QWORD PTR [rsp+0x18]
5118:	64 48 33 0c 25 28 00 	xor    rcx,QWORD PTR fs:0x28
511f:	00 00
5121:	75 23                	jne    5146 <overwrite_ok.isra.12+0x146>
5123:	48 83 c4 20          	add    rsp,0x20
5127:	5b                   	pop    rbx
5128:	5d                   	pop    rbp
5129:	41 5c                	pop    r12
512b:	41 5d                	pop    r13
512d:	41 5e                	pop    r14
512f:	c3                   	ret
5130:	48 8d 35 a1 f6 00 00 	lea    rsi,[rip+0xf6a1]        # 147d8 <sparse_type+0x1758>
5137:	31 ff                	xor    edi,edi
5139:	e8 a2 d7 ff ff       	call   28e0 <dcgettext@plt>
513e:	48 89 c2             	mov    rdx,rax
5141:	e9 51 ff ff ff       	jmp    5097 <overwrite_ok.isra.12+0x97>
5146:	e8 e5 d7 ff ff       	call   2930 <__stack_chk_fail@plt>
514b:	0f 1f 44 00 00       	nop    DWORD PTR [rax+rax*1+0x0]

0000000000005150 <create_hole>:
5150:	41 55                	push   r13
5152:	41 54                	push   r12
5154:	49 89 f5             	mov    r13,rsi
5157:	55                   	push   rbp
5158:	53                   	push   rbx
5159:	41 89 d4             	mov    r12d,edx
515c:	48 89 ce             	mov    rsi,rcx
515f:	ba 01 00 00 00       	mov    edx,0x1
5164:	89 fd                	mov    ebp,edi
5166:	48 83 ec 08          	sub    rsp,0x8
516a:	48 89 cb             	mov    rbx,rcx
516d:	e8 4e d8 ff ff       	call   29c0 <lseek@plt>
5172:	48 85 c0             	test   rax,rax
5175:	78 79                	js     51f0 <create_hole+0xa0>
5177:	45 84 e4             	test   r12b,r12b
517a:	75 14                	jne    5190 <create_hole+0x40>
517c:	48 83 c4 08          	add    rsp,0x8
5180:	b8 01 00 00 00       	mov    eax,0x1
5185:	5b                   	pop    rbx
5186:	5d                   	pop    rbp
5187:	41 5c                	pop    r12
5189:	41 5d                	pop    r13
518b:	c3                   	ret
518c:	0f 1f 40 00          	nop    DWORD PTR [rax+0x0]
5190:	48 29 d8             	sub    rax,rbx
5193:	48 89 da             	mov    rdx,rbx
5196:	89 ef                	mov    edi,ebp
5198:	48 89 c6             	mov    rsi,rax
519b:	e8 50 fc ff ff       	call   4df0 <punch_hole>
51a0:	85 c0                	test   eax,eax
51a2:	79 d8                	jns    517c <create_hole+0x2c>
51a4:	4c 89 ee             	mov    rsi,r13
51a7:	bf 04 00 00 00       	mov    edi,0x4
51ac:	e8 ff 98 00 00       	call   eab0 <quotearg_style>
51b1:	48 8d 35 f7 fb 00 00 	lea    rsi,[rip+0xfbf7]        # 14daf <sparse_type+0x1d2f>
51b8:	48 89 c5             	mov    rbp,rax
51bb:	ba 05 00 00 00       	mov    edx,0x5
51c0:	31 ff                	xor    edi,edi
51c2:	e8 19 d7 ff ff       	call   28e0 <dcgettext@plt>
51c7:	48 89 c3             	mov    rbx,rax
51ca:	e8 a1 d5 ff ff       	call   2770 <__errno_location@plt>
51cf:	8b 30                	mov    esi,DWORD PTR [rax]
51d1:	48 89 e9             	mov    rcx,rbp
51d4:	48 89 da             	mov    rdx,rbx
51d7:	31 c0                	xor    eax,eax
51d9:	31 ff                	xor    edi,edi
51db:	e8 d0 da ff ff       	call   2cb0 <error@plt>
51e0:	48 83 c4 08          	add    rsp,0x8
51e4:	31 c0                	xor    eax,eax
51e6:	5b                   	pop    rbx
51e7:	5d                   	pop    rbp
51e8:	41 5c                	pop    r12
51ea:	41 5d                	pop    r13
51ec:	c3                   	ret
51ed:	0f 1f 00             	nop    DWORD PTR [rax]
51f0:	4c 89 ee             	mov    rsi,r13
51f3:	bf 04 00 00 00       	mov    edi,0x4
51f8:	e8 b3 98 00 00       	call   eab0 <quotearg_style>
51fd:	ba 05 00 00 00       	mov    edx,0x5
5202:	48 89 c5             	mov    rbp,rax
5205:	48 8d 35 93 fb 00 00 	lea    rsi,[rip+0xfb93]        # 14d9f <sparse_type+0x1d1f>
520c:	eb b2                	jmp    51c0 <create_hole+0x70>
520e:	66 90                	xchg   ax,ax

0000000000005210 <sparse_copy>:
5210:	41 57                	push   r15
5212:	41 56                	push   r14
5214:	41 55                	push   r13
5216:	41 54                	push   r12
5218:	55                   	push   rbp
5219:	53                   	push   rbx
521a:	48 83 ec 78          	sub    rsp,0x78
521e:	48 8b 84 24 b0 00 00 	mov    rax,QWORD PTR [rsp+0xb0]
5225:	00
5226:	48 8b 9c 24 c8 00 00 	mov    rbx,QWORD PTR [rsp+0xc8]
522d:	00
522e:	4c 8b 94 24 d0 00 00 	mov    r10,QWORD PTR [rsp+0xd0]
5235:	00
5236:	44 88 4c 24 1f       	mov    BYTE PTR [rsp+0x1f],r9b
523b:	48 89 44 24 58       	mov    QWORD PTR [rsp+0x58],rax
5240:	48 8b 84 24 b8 00 00 	mov    rax,QWORD PTR [rsp+0xb8]
5247:	00
5248:	41 c6 02 00          	mov    BYTE PTR [r10],0x0
524c:	48 89 5c 24 40       	mov    QWORD PTR [rsp+0x40],rbx
5251:	4c 89 54 24 60       	mov    QWORD PTR [rsp+0x60],r10
5256:	48 c7 03 00 00 00 00 	mov    QWORD PTR [rbx],0x0
525d:	48 89 44 24 10       	mov    QWORD PTR [rsp+0x10],rax
5262:	48 8b 84 24 c0 00 00 	mov    rax,QWORD PTR [rsp+0xc0]
5269:	00
526a:	48 85 c0             	test   rax,rax
526d:	48 89 44 24 28       	mov    QWORD PTR [rsp+0x28],rax
5272:	0f 84 9b 03 00 00    	je     5613 <sparse_copy+0x403>
5278:	4d 85 c0             	test   r8,r8
527b:	4c 89 44 24 50       	mov    QWORD PTR [rsp+0x50],r8
5280:	44 89 4c 24 6c       	mov    DWORD PTR [rsp+0x6c],r9d
5285:	4c 0f 44 c1          	cmove  r8,rcx
5289:	48 89 4c 24 38       	mov    QWORD PTR [rsp+0x38],rcx
528e:	48 89 54 24 20       	mov    QWORD PTR [rsp+0x20],rdx
5293:	89 74 24 18          	mov    DWORD PTR [rsp+0x18],esi
5297:	89 7c 24 68          	mov    DWORD PTR [rsp+0x68],edi
529b:	45 31 ed             	xor    r13d,r13d
529e:	4c 89 44 24 48       	mov    QWORD PTR [rsp+0x48],r8
52a3:	45 31 ff             	xor    r15d,r15d
52a6:	48 8b 44 24 38       	mov    rax,QWORD PTR [rsp+0x38]
52ab:	48 8b 54 24 28       	mov    rdx,QWORD PTR [rsp+0x28]
52b0:	48 8b 74 24 20       	mov    rsi,QWORD PTR [rsp+0x20]
52b5:	8b 7c 24 68          	mov    edi,DWORD PTR [rsp+0x68]
52b9:	48 39 d0             	cmp    rax,rdx
52bc:	48 0f 46 d0          	cmovbe rdx,rax
52c0:	e8 bb d7 ff ff       	call   2a80 <read@plt>
52c5:	48 85 c0             	test   rax,rax
52c8:	48 89 44 24 30       	mov    QWORD PTR [rsp+0x30],rax
52cd:	79 61                	jns    5330 <sparse_copy+0x120>
52cf:	e8 9c d4 ff ff       	call   2770 <__errno_location@plt>
52d4:	83 38 04             	cmp    DWORD PTR [rax],0x4
52d7:	74 cd                	je     52a6 <sparse_copy+0x96>
52d9:	48 8b 74 24 58       	mov    rsi,QWORD PTR [rsp+0x58]
52de:	bf 04 00 00 00       	mov    edi,0x4
52e3:	48 89 c3             	mov    rbx,rax
52e6:	45 31 ff             	xor    r15d,r15d
52e9:	e8 c2 97 00 00       	call   eab0 <quotearg_style>
52ee:	48 8d 35 d0 fa 00 00 	lea    rsi,[rip+0xfad0]        # 14dc5 <sparse_type+0x1d45>
52f5:	ba 05 00 00 00       	mov    edx,0x5
52fa:	31 ff                	xor    edi,edi
52fc:	48 89 c5             	mov    rbp,rax
52ff:	e8 dc d5 ff ff       	call   28e0 <dcgettext@plt>
5304:	8b 33                	mov    esi,DWORD PTR [rbx]
5306:	48 89 c2             	mov    rdx,rax
5309:	48 89 e9             	mov    rcx,rbp
530c:	31 ff                	xor    edi,edi
530e:	31 c0                	xor    eax,eax
5310:	e8 9b d9 ff ff       	call   2cb0 <error@plt>
5315:	48 83 c4 78          	add    rsp,0x78
5319:	44 89 f8             	mov    eax,r15d
531c:	5b                   	pop    rbx
531d:	5d                   	pop    rbp
531e:	41 5c                	pop    r12
5320:	41 5d                	pop    r13
5322:	41 5e                	pop    r14
5324:	41 5f                	pop    r15
5326:	c3                   	ret
5327:	66 0f 1f 84 00 00 00 	nop    WORD PTR [rax+rax*1+0x0]
532e:	00 00
5330:	0f 84 29 01 00 00    	je     545f <sparse_copy+0x24f>
5336:	48 8b 44 24 40       	mov    rax,QWORD PTR [rsp+0x40]
533b:	48 8b 6c 24 30       	mov    rbp,QWORD PTR [rsp+0x30]
5340:	44 89 f9             	mov    ecx,r15d
5343:	4c 8b 74 24 20       	mov    r14,QWORD PTR [rsp+0x20]
5348:	4c 8b 54 24 48       	mov    r10,QWORD PTR [rsp+0x48]
534d:	48 01 28             	add    QWORD PTR [rax],rbp
5350:	48 83 7c 24 50 00    	cmp    QWORD PTR [rsp+0x50],0x0
5356:	4d 89 f3             	mov    r11,r14
5359:	4d 89 d7             	mov    r15,r10
535c:	0f 95 44 24 1d       	setne  BYTE PTR [rsp+0x1d]
5361:	0f 1f 80 00 00 00 00 	nop    DWORD PTR [rax+0x0]
5368:	4c 39 fd             	cmp    rbp,r15
536b:	4c 89 fb             	mov    rbx,r15
536e:	48 0f 46 dd          	cmovbe rbx,rbp
5372:	48 85 db             	test   rbx,rbx
5375:	41 0f 95 c4          	setne  r12b
5379:	44 22 64 24 1d       	and    r12b,BYTE PTR [rsp+0x1d]
537e:	0f 84 0c 01 00 00    	je     5490 <sparse_copy+0x280>
5384:	4c 89 f6             	mov    rsi,r14
5387:	48 89 da             	mov    rdx,rbx
538a:	80 3e 00             	cmp    BYTE PTR [rsi],0x0
538d:	0f 85 2d 02 00 00    	jne    55c0 <sparse_copy+0x3b0>
5393:	48 83 c6 01          	add    rsi,0x1
5397:	48 83 ea 01          	sub    rdx,0x1
539b:	0f 84 87 01 00 00    	je     5528 <sparse_copy+0x318>
53a1:	f6 c2 0f             	test   dl,0xf
53a4:	75 e4                	jne    538a <sparse_copy+0x17a>
53a6:	4c 89 f7             	mov    rdi,r14
53a9:	4c 89 5c 24 08       	mov    QWORD PTR [rsp+0x8],r11
53ae:	88 4c 24 1e          	mov    BYTE PTR [rsp+0x1e],cl
53b2:	e8 d9 d6 ff ff       	call   2a90 <memcmp@plt>
53b7:	0f b6 4c 24 1e       	movzx  ecx,BYTE PTR [rsp+0x1e]
53bc:	85 c0                	test   eax,eax
53be:	4c 8b 5c 24 08       	mov    r11,QWORD PTR [rsp+0x8]
53c3:	41 0f 94 c4          	sete   r12b
53c7:	44 89 e2             	mov    edx,r12d
53ca:	31 ca                	xor    edx,ecx
53cc:	85 c0                	test   eax,eax
53ce:	0f 95 c0             	setne  al
53d1:	4d 85 ed             	test   r13,r13
53d4:	41 0f 95 c1          	setne  r9b
53d8:	41 21 d1             	and    r9d,edx
53db:	4c 39 fd             	cmp    rbp,r15
53de:	0f 87 54 01 00 00    	ja     5538 <sparse_copy+0x328>
53e4:	84 c0                	test   al,al
53e6:	0f 84 4c 01 00 00    	je     5538 <sparse_copy+0x328>
53ec:	45 84 c9             	test   r9b,r9b
53ef:	0f 84 a5 00 00 00    	je     549a <sparse_copy+0x28a>
53f5:	41 bf 01 00 00 00    	mov    r15d,0x1
53fb:	84 c9                	test   cl,cl
53fd:	88 4c 24 1e          	mov    BYTE PTR [rsp+0x1e],cl
5401:	0f 85 ab 00 00 00    	jne    54b2 <sparse_copy+0x2a2>
5407:	8b 7c 24 18          	mov    edi,DWORD PTR [rsp+0x18]
540b:	4c 89 ea             	mov    rdx,r13
540e:	4c 89 de             	mov    rsi,r11
5411:	44 88 4c 24 08       	mov    BYTE PTR [rsp+0x8],r9b
5416:	e8 c5 66 00 00       	call   bae0 <full_write>
541b:	49 39 c5             	cmp    r13,rax
541e:	44 0f b6 4c 24 08    	movzx  r9d,BYTE PTR [rsp+0x8]
5424:	0f b6 4c 24 1e       	movzx  ecx,BYTE PTR [rsp+0x1e]
5429:	0f 85 9e 01 00 00    	jne    55cd <sparse_copy+0x3bd>
542f:	45 85 ff             	test   r15d,r15d
5432:	49 89 dd             	mov    r13,rbx
5435:	0f 84 0d 01 00 00    	je     5548 <sparse_copy+0x338>
543b:	48 85 db             	test   rbx,rbx
543e:	0f 85 1c 01 00 00    	jne    5560 <sparse_copy+0x350>
5444:	48 8b 7c 24 30       	mov    rdi,QWORD PTR [rsp+0x30]
5449:	48 29 7c 24 28       	sub    QWORD PTR [rsp+0x28],rdi
544e:	45 89 e7             	mov    r15d,r12d
5451:	48 8b 44 24 60       	mov    rax,QWORD PTR [rsp+0x60]
5456:	44 88 20             	mov    BYTE PTR [rax],r12b
5459:	0f 85 47 fe ff ff    	jne    52a6 <sparse_copy+0x96>
545f:	45 84 ff             	test   r15b,r15b
5462:	0f 84 ab 01 00 00    	je     5613 <sparse_copy+0x403>
5468:	0f b6 54 24 6c       	movzx  edx,BYTE PTR [rsp+0x6c]
546d:	48 8b 74 24 10       	mov    rsi,QWORD PTR [rsp+0x10]
5472:	4c 89 e9             	mov    rcx,r13
5475:	8b 7c 24 18          	mov    edi,DWORD PTR [rsp+0x18]
5479:	48 83 c4 78          	add    rsp,0x78
547d:	5b                   	pop    rbx
547e:	5d                   	pop    rbp
547f:	41 5c                	pop    r12
5481:	41 5d                	pop    r13
5483:	41 5e                	pop    r14
5485:	41 5f                	pop    r15
5487:	e9 c4 fc ff ff       	jmp    5150 <create_hole>
548c:	0f 1f 40 00          	nop    DWORD PTR [rax+0x0]
5490:	80 f9 01             	cmp    cl,0x1
5493:	74 53                	je     54e8 <sparse_copy+0x2d8>
5495:	4c 39 fd             	cmp    rbp,r15
5498:	77 4e                	ja     54e8 <sparse_copy+0x2d8>
549a:	49 01 dd             	add    r13,rbx
549d:	45 31 c9             	xor    r9d,r9d
54a0:	84 c9                	test   cl,cl
54a2:	41 bf 01 00 00 00    	mov    r15d,0x1
54a8:	88 4c 24 1e          	mov    BYTE PTR [rsp+0x1e],cl
54ac:	0f 84 55 ff ff ff    	je     5407 <sparse_copy+0x1f7>
54b2:	0f b6 54 24 1f       	movzx  edx,BYTE PTR [rsp+0x1f]
54b7:	48 8b 74 24 10       	mov    rsi,QWORD PTR [rsp+0x10]
54bc:	4c 89 e9             	mov    rcx,r13
54bf:	8b 7c 24 18          	mov    edi,DWORD PTR [rsp+0x18]
54c3:	44 88 4c 24 1e       	mov    BYTE PTR [rsp+0x1e],r9b
54c8:	e8 83 fc ff ff       	call   5150 <create_hole>
54cd:	84 c0                	test   al,al
54cf:	44 0f b6 4c 24 1e    	movzx  r9d,BYTE PTR [rsp+0x1e]
54d5:	0f 85 54 ff ff ff    	jne    542f <sparse_copy+0x21f>
54db:	41 89 c7             	mov    r15d,eax
54de:	e9 32 fe ff ff       	jmp    5315 <sparse_copy+0x105>
54e3:	0f 1f 44 00 00       	nop    DWORD PTR [rax+rax*1+0x0]
54e8:	48 85 db             	test   rbx,rbx
54eb:	75 0b                	jne    54f8 <sparse_copy+0x2e8>
54ed:	41 89 cc             	mov    r12d,ecx
54f0:	eb a8                	jmp    549a <sparse_copy+0x28a>
54f2:	44 89 e1             	mov    ecx,r12d
54f5:	0f 1f 00             	nop    DWORD PTR [rax]
54f8:	48 b8 ff ff ff ff ff 	movabs rax,0x7fffffffffffffff
54ff:	ff ff 7f
5502:	48 29 d8             	sub    rax,rbx
5505:	4c 39 e8             	cmp    rax,r13
5508:	72 76                	jb     5580 <sparse_copy+0x370>
550a:	49 01 dd             	add    r13,rbx
550d:	49 01 de             	add    r14,rbx
5510:	49 89 df             	mov    r15,rbx
5513:	4c 29 fd             	sub    rbp,r15
5516:	0f 85 4c fe ff ff    	jne    5368 <sparse_copy+0x158>
551c:	41 89 cc             	mov    r12d,ecx
551f:	e9 20 ff ff ff       	jmp    5444 <sparse_copy+0x234>
5524:	0f 1f 40 00          	nop    DWORD PTR [rax+0x0]
5528:	41 89 c9             	mov    r9d,ecx
552b:	41 83 f1 01          	xor    r9d,0x1
552f:	4d 85 ed             	test   r13,r13
5532:	0f 95 c0             	setne  al
5535:	41 21 c1             	and    r9d,eax
5538:	45 84 c9             	test   r9b,r9b
553b:	74 b5                	je     54f2 <sparse_copy+0x2e2>
553d:	45 31 ff             	xor    r15d,r15d
5540:	e9 b6 fe ff ff       	jmp    53fb <sparse_copy+0x1eb>
5545:	0f 1f 00             	nop    DWORD PTR [rax]
5548:	4d 89 f3             	mov    r11,r14
554b:	44 89 e1             	mov    ecx,r12d
554e:	49 01 de             	add    r14,rbx
5551:	49 89 df             	mov    r15,rbx
5554:	eb bd                	jmp    5513 <sparse_copy+0x303>
5556:	66 2e 0f 1f 84 00 00 	nop    WORD PTR cs:[rax+rax*1+0x0]
555d:	00 00 00
5560:	45 31 ff             	xor    r15d,r15d
5563:	45 84 c9             	test   r9b,r9b
5566:	44 89 e1             	mov    ecx,r12d
5569:	4d 89 f3             	mov    r11,r14
556c:	75 a5                	jne    5513 <sparse_copy+0x303>
556e:	49 01 de             	add    r14,rbx
5571:	49 89 df             	mov    r15,rbx
5574:	45 31 ed             	xor    r13d,r13d
5577:	eb 9a                	jmp    5513 <sparse_copy+0x303>
5579:	0f 1f 80 00 00 00 00 	nop    DWORD PTR [rax+0x0]
5580:	48 8b 74 24 58       	mov    rsi,QWORD PTR [rsp+0x58]
5585:	bf 04 00 00 00       	mov    edi,0x4
558a:	45 31 ff             	xor    r15d,r15d
558d:	e8 1e 95 00 00       	call   eab0 <quotearg_style>
5592:	48 8d 35 4e f8 00 00 	lea    rsi,[rip+0xf84e]        # 14de7 <sparse_type+0x1d67>
5599:	48 89 c3             	mov    rbx,rax
559c:	ba 05 00 00 00       	mov    edx,0x5
55a1:	31 ff                	xor    edi,edi
55a3:	e8 38 d3 ff ff       	call   28e0 <dcgettext@plt>
55a8:	48 89 d9             	mov    rcx,rbx
55ab:	48 89 c2             	mov    rdx,rax
55ae:	31 f6                	xor    esi,esi
55b0:	31 ff                	xor    edi,edi
55b2:	31 c0                	xor    eax,eax
55b4:	e8 f7 d6 ff ff       	call   2cb0 <error@plt>
55b9:	e9 57 fd ff ff       	jmp    5315 <sparse_copy+0x105>
55be:	66 90                	xchg   ax,ax
55c0:	44 89 e0             	mov    eax,r12d
55c3:	89 ca                	mov    edx,ecx
55c5:	45 31 e4             	xor    r12d,r12d
55c8:	e9 04 fe ff ff       	jmp    53d1 <sparse_copy+0x1c1>
55cd:	48 8b 74 24 10       	mov    rsi,QWORD PTR [rsp+0x10]
55d2:	bf 04 00 00 00       	mov    edi,0x4
55d7:	41 89 cf             	mov    r15d,ecx
55da:	e8 d1 94 00 00       	call   eab0 <quotearg_style>
55df:	48 8d 35 f0 f7 00 00 	lea    rsi,[rip+0xf7f0]        # 14dd6 <sparse_type+0x1d56>
55e6:	31 ff                	xor    edi,edi
55e8:	ba 05 00 00 00       	mov    edx,0x5
55ed:	48 89 c5             	mov    rbp,rax
55f0:	e8 eb d2 ff ff       	call   28e0 <dcgettext@plt>
55f5:	48 89 c3             	mov    rbx,rax
55f8:	e8 73 d1 ff ff       	call   2770 <__errno_location@plt>
55fd:	8b 30                	mov    esi,DWORD PTR [rax]
55ff:	48 89 e9             	mov    rcx,rbp
5602:	48 89 da             	mov    rdx,rbx
5605:	31 ff                	xor    edi,edi
5607:	31 c0                	xor    eax,eax
5609:	e8 a2 d6 ff ff       	call   2cb0 <error@plt>
560e:	e9 02 fd ff ff       	jmp    5315 <sparse_copy+0x105>
5613:	41 bf 01 00 00 00    	mov    r15d,0x1
5619:	e9 f7 fc ff ff       	jmp    5315 <sparse_copy+0x105>
561e:	66 90                	xchg   ax,ax

0000000000005620 <set_process_security_ctx>:
5620:	41 55                	push   r13
5622:	41 54                	push   r12
5624:	55                   	push   rbp
5625:	53                   	push   rbx
5626:	4c 89 c5             	mov    rbp,r8
5629:	48 83 ec 08          	sub    rsp,0x8
562d:	41 80 78 25 00       	cmp    BYTE PTR [r8+0x25],0x0
5632:	74 6c                	je     56a0 <set_process_security_ctx+0x80>
5634:	49 89 fd             	mov    r13,rdi
5637:	e8 34 d1 ff ff       	call   2770 <__errno_location@plt>
563c:	80 7d 23 00          	cmp    BYTE PTR [rbp+0x23],0x0
5640:	49 89 c4             	mov    r12,rax
5643:	75 7b                	jne    56c0 <set_process_security_ctx+0xa0>
5645:	4c 89 ee             	mov    rsi,r13
5648:	bf 04 00 00 00       	mov    edi,0x4
564d:	41 c7 04 24 5f 00 00 	mov    DWORD PTR [r12],0x5f
5654:	00
5655:	e8 56 94 00 00       	call   eab0 <quotearg_style>
565a:	48 8d 35 af f1 00 00 	lea    rsi,[rip+0xf1af]        # 14810 <sparse_type+0x1790>
5661:	ba 05 00 00 00       	mov    edx,0x5
5666:	31 ff                	xor    edi,edi
5668:	48 89 c3             	mov    rbx,rax
566b:	e8 70 d2 ff ff       	call   28e0 <dcgettext@plt>
5670:	41 8b 34 24          	mov    esi,DWORD PTR [r12]
5674:	48 89 d9             	mov    rcx,rbx
5677:	48 89 c2             	mov    rdx,rax
567a:	31 ff                	xor    edi,edi
567c:	31 c0                	xor    eax,eax
567e:	e8 2d d6 ff ff       	call   2cb0 <error@plt>
5683:	0f b6 5d 26          	movzx  ebx,BYTE PTR [rbp+0x26]
5687:	48 83 c4 08          	add    rsp,0x8
568b:	83 f3 01             	xor    ebx,0x1
568e:	89 d8                	mov    eax,ebx
5690:	5b                   	pop    rbx
5691:	5d                   	pop    rbp
5692:	41 5c                	pop    r12
5694:	41 5d                	pop    r13
5696:	c3                   	ret
5697:	66 0f 1f 84 00 00 00 	nop    WORD PTR [rax+rax*1+0x0]
569e:	00 00
56a0:	89 cb                	mov    ebx,ecx
56a2:	41 22 58 21          	and    bl,BYTE PTR [r8+0x21]
56a6:	75 30                	jne    56d8 <set_process_security_ctx+0xb8>
56a8:	48 83 c4 08          	add    rsp,0x8
56ac:	bb 01 00 00 00       	mov    ebx,0x1
56b1:	89 d8                	mov    eax,ebx
56b3:	5b                   	pop    rbx
56b4:	5d                   	pop    rbp
56b5:	41 5c                	pop    r12
56b7:	41 5d                	pop    r13
56b9:	c3                   	ret
56ba:	66 0f 1f 44 00 00    	nop    WORD PTR [rax+rax*1+0x0]
56c0:	0f b6 5d 26          	movzx  ebx,BYTE PTR [rbp+0x26]
56c4:	84 db                	test   bl,bl
56c6:	0f 85 79 ff ff ff    	jne    5645 <set_process_security_ctx+0x25>
56cc:	c7 00 5f 00 00 00    	mov    DWORD PTR [rax],0x5f
56d2:	eb b3                	jmp    5687 <set_process_security_ctx+0x67>
56d4:	0f 1f 40 00          	nop    DWORD PTR [rax+0x0]
56d8:	e8 93 d0 ff ff       	call   2770 <__errno_location@plt>
56dd:	c7 00 5f 00 00 00    	mov    DWORD PTR [rax],0x5f
56e3:	48 83 c4 08          	add    rsp,0x8
56e7:	89 d8                	mov    eax,ebx
56e9:	5b                   	pop    rbx
56ea:	5d                   	pop    rbp
56eb:	41 5c                	pop    r12
56ed:	41 5d                	pop    r13
56ef:	c3                   	ret

00000000000056f0 <set_file_security_ctx>:
56f0:	41 54                	push   r12
56f2:	55                   	push   rbp
56f3:	48 89 cd             	mov    rbp,rcx
56f6:	53                   	push   rbx
56f7:	49 89 fc             	mov    r12,rdi
56fa:	e8 71 d0 ff ff       	call   2770 <__errno_location@plt>
56ff:	80 7d 23 00          	cmp    BYTE PTR [rbp+0x23],0x0
5703:	48 89 c3             	mov    rbx,rax
5706:	74 06                	je     570e <set_file_security_ctx+0x1e>
5708:	80 7d 26 00          	cmp    BYTE PTR [rbp+0x26],0x0
570c:	74 4a                	je     5758 <set_file_security_ctx+0x68>
570e:	4c 89 e2             	mov    rdx,r12
5711:	c7 03 5f 00 00 00    	mov    DWORD PTR [rbx],0x5f
5717:	be 04 00 00 00       	mov    esi,0x4
571c:	31 ff                	xor    edi,edi
571e:	e8 6d 92 00 00       	call   e990 <quotearg_n_style>
5723:	48 8d 35 0e f1 00 00 	lea    rsi,[rip+0xf10e]        # 14838 <sparse_type+0x17b8>
572a:	ba 05 00 00 00       	mov    edx,0x5
572f:	31 ff                	xor    edi,edi
5731:	48 89 c5             	mov    rbp,rax
5734:	e8 a7 d1 ff ff       	call   28e0 <dcgettext@plt>
5739:	8b 33                	mov    esi,DWORD PTR [rbx]
573b:	48 89 e9             	mov    rcx,rbp
573e:	48 89 c2             	mov    rdx,rax
5741:	31 ff                	xor    edi,edi
5743:	31 c0                	xor    eax,eax
5745:	e8 66 d5 ff ff       	call   2cb0 <error@plt>
574a:	5b                   	pop    rbx
574b:	31 c0                	xor    eax,eax
574d:	5d                   	pop    rbp
574e:	41 5c                	pop    r12
5750:	c3                   	ret
5751:	0f 1f 80 00 00 00 00 	nop    DWORD PTR [rax+0x0]
5758:	c7 00 5f 00 00 00    	mov    DWORD PTR [rax],0x5f
575e:	31 c0                	xor    eax,eax
5760:	5b                   	pop    rbx
5761:	5d                   	pop    rbp
5762:	41 5c                	pop    r12
5764:	c3                   	ret
5765:	90                   	nop
5766:	66 2e 0f 1f 84 00 00 	nop    WORD PTR cs:[rax+rax*1+0x0]
576d:	00 00 00

0000000000005770 <dest_info_init>:
5770:	4c 8d 05 79 77 00 00 	lea    r8,[rip+0x7779]        # cef0 <triple_free>
5777:	48 8d 0d 02 77 00 00 	lea    rcx,[rip+0x7702]        # ce80 <triple_compare>
577e:	31 f6                	xor    esi,esi
5780:	48 8d 15 b9 76 00 00 	lea    rdx,[rip+0x76b9]        # ce40 <triple_hash>
5787:	53                   	push   rbx
5788:	48 89 fb             	mov    rbx,rdi
578b:	bf 3d 00 00 00       	mov    edi,0x3d
5790:	e8 3b 6c 00 00       	call   c3d0 <hash_initialize>
5795:	48 89 43 40          	mov    QWORD PTR [rbx+0x40],rax
5799:	5b                   	pop    rbx
579a:	c3                   	ret
579b:	0f 1f 44 00 00       	nop    DWORD PTR [rax+rax*1+0x0]

00000000000057a0 <src_info_init>:
57a0:	4c 8d 05 49 77 00 00 	lea    r8,[rip+0x7749]        # cef0 <triple_free>
57a7:	48 8d 0d d2 76 00 00 	lea    rcx,[rip+0x76d2]        # ce80 <triple_compare>
57ae:	31 f6                	xor    esi,esi
57b0:	48 8d 15 b9 76 00 00 	lea    rdx,[rip+0x76b9]        # ce70 <triple_hash_no_name>
57b7:	53                   	push   rbx
57b8:	48 89 fb             	mov    rbx,rdi
57bb:	bf 3d 00 00 00       	mov    edi,0x3d
57c0:	e8 0b 6c 00 00       	call   c3d0 <hash_initialize>
57c5:	48 89 43 48          	mov    QWORD PTR [rbx+0x48],rax
57c9:	5b                   	pop    rbx
57ca:	c3                   	ret
57cb:	0f 1f 44 00 00       	nop    DWORD PTR [rax+rax*1+0x0]

00000000000057d0 <cp_options_default>:
57d0:	66 0f ef c0          	pxor   xmm0,xmm0
57d4:	53                   	push   rbx
57d5:	48 89 fb             	mov    rbx,rdi
57d8:	0f 11 07             	movups XMMWORD PTR [rdi],xmm0
57db:	0f 11 47 10          	movups XMMWORD PTR [rdi+0x10],xmm0
57df:	0f 11 47 20          	movups XMMWORD PTR [rdi+0x20],xmm0
57e3:	0f 11 47 30          	movups XMMWORD PTR [rdi+0x30],xmm0
57e7:	0f 11 47 40          	movups XMMWORD PTR [rdi+0x40],xmm0
57eb:	e8 10 d2 ff ff       	call   2a00 <geteuid@plt>
57f0:	85 c0                	test   eax,eax
57f2:	c7 43 34 ff ff ff ff 	mov    DWORD PTR [rbx+0x34],0xffffffff
57f9:	0f 94 c0             	sete   al
57fc:	88 43 1b             	mov    BYTE PTR [rbx+0x1b],al
57ff:	88 43 1a             	mov    BYTE PTR [rbx+0x1a],al
5802:	5b                   	pop    rbx
5803:	c3                   	ret
5804:	66 90                	xchg   ax,ax
5806:	66 2e 0f 1f 84 00 00 	nop    WORD PTR cs:[rax+rax*1+0x0]
580d:	00 00 00

0000000000005810 <chown_failure_ok>:
5810:	53                   	push   rbx
5811:	48 89 fb             	mov    rbx,rdi
5814:	e8 57 cf ff ff       	call   2770 <__errno_location@plt>
5819:	8b 10                	mov    edx,DWORD PTR [rax]
581b:	83 fa 01             	cmp    edx,0x1
581e:	0f 94 c0             	sete   al
5821:	83 fa 16             	cmp    edx,0x16
5824:	0f 94 c2             	sete   dl
5827:	08 d0                	or     al,dl
5829:	74 07                	je     5832 <chown_failure_ok+0x22>
582b:	0f b6 43 1a          	movzx  eax,BYTE PTR [rbx+0x1a]
582f:	83 f0 01             	xor    eax,0x1
5832:	5b                   	pop    rbx
5833:	c3                   	ret
5834:	66 90                	xchg   ax,ax
5836:	66 2e 0f 1f 84 00 00 	nop    WORD PTR cs:[rax+rax*1+0x0]
583d:	00 00 00

0000000000005840 <set_owner>:
5840:	41 57                	push   r15
5842:	41 56                	push   r14
5844:	41 55                	push   r13
5846:	41 54                	push   r12
5848:	49 89 f5             	mov    r13,rsi
584b:	55                   	push   rbp
584c:	53                   	push   rbx
584d:	48 89 fd             	mov    rbp,rdi
5850:	89 d3                	mov    ebx,edx
5852:	48 83 ec 08          	sub    rsp,0x8
5856:	45 84 c0             	test   r8b,r8b
5859:	44 8b 71 1c          	mov    r14d,DWORD PTR [rcx+0x1c]
585d:	44 8b 61 20          	mov    r12d,DWORD PTR [rcx+0x20]
5861:	75 32                	jne    5895 <set_owner+0x55>
5863:	48 b8 ff 00 00 00 00 	movabs rax,0xff0000000000ff
586a:	00 ff 00
586d:	48 85 47 18          	test   QWORD PTR [rdi+0x18],rax
5871:	0f 84 99 00 00 00    	je     5910 <set_owner+0xd0>
5877:	41 8b 71 18          	mov    esi,DWORD PTR [r9+0x18]
587b:	8b 51 18             	mov    edx,DWORD PTR [rcx+0x18]
587e:	89 d0                	mov    eax,edx
5880:	89 f1                	mov    ecx,esi
5882:	f7 d0                	not    eax
5884:	81 e1 ff 0f 00 00    	and    ecx,0xfff
588a:	80 cc 0e             	or     ah,0xe
588d:	85 c8                	test   eax,ecx
588f:	0f 85 cb 00 00 00    	jne    5960 <set_owner+0x120>
5895:	83 fb ff             	cmp    ebx,0xffffffff
5898:	44 89 e2             	mov    edx,r12d
589b:	44 89 f6             	mov    esi,r14d
589e:	74 50                	je     58f0 <set_owner+0xb0>
58a0:	89 df                	mov    edi,ebx
58a2:	e8 49 d4 ff ff       	call   2cf0 <fchown@plt>
58a7:	85 c0                	test   eax,eax
58a9:	74 51                	je     58fc <set_owner+0xbc>
58ab:	e8 c0 ce ff ff       	call   2770 <__errno_location@plt>
58b0:	44 8b 30             	mov    r14d,DWORD PTR [rax]
58b3:	49 89 c7             	mov    r15,rax
58b6:	41 83 fe 01          	cmp    r14d,0x1
58ba:	0f 84 68 01 00 00    	je     5a28 <set_owner+0x1e8>
58c0:	41 83 fe 16          	cmp    r14d,0x16
58c4:	0f 84 5e 01 00 00    	je     5a28 <set_owner+0x1e8>
58ca:	48 89 ef             	mov    rdi,rbp
58cd:	e8 3e ff ff ff       	call   5810 <chown_failure_ok>
58d2:	89 c2                	mov    edx,eax
58d4:	31 c0                	xor    eax,eax
58d6:	84 d2                	test   dl,dl
58d8:	0f 84 f2 00 00 00    	je     59d0 <set_owner+0x190>
58de:	48 83 c4 08          	add    rsp,0x8
58e2:	5b                   	pop    rbx
58e3:	5d                   	pop    rbp
58e4:	41 5c                	pop    r12
58e6:	41 5d                	pop    r13
58e8:	41 5e                	pop    r14
58ea:	41 5f                	pop    r15
58ec:	c3                   	ret
58ed:	0f 1f 00             	nop    DWORD PTR [rax]
58f0:	4c 89 ef             	mov    rdi,r13
58f3:	e8 08 d3 ff ff       	call   2c00 <lchown@plt>
58f8:	85 c0                	test   eax,eax
58fa:	75 34                	jne    5930 <set_owner+0xf0>
58fc:	48 83 c4 08          	add    rsp,0x8
5900:	b8 01 00 00 00       	mov    eax,0x1
5905:	5b                   	pop    rbx
5906:	5d                   	pop    rbp
5907:	41 5c                	pop    r12
5909:	41 5d                	pop    r13
590b:	41 5e                	pop    r14
590d:	41 5f                	pop    r15
590f:	c3                   	ret
5910:	80 7f 2b 00          	cmp    BYTE PTR [rdi+0x2b],0x0
5914:	0f 84 7b ff ff ff    	je     5895 <set_owner+0x55>
591a:	41 8b 71 18          	mov    esi,DWORD PTR [r9+0x18]
591e:	8b 57 10             	mov    edx,DWORD PTR [rdi+0x10]
5921:	e9 58 ff ff ff       	jmp    587e <set_owner+0x3e>
5926:	66 2e 0f 1f 84 00 00 	nop    WORD PTR cs:[rax+rax*1+0x0]
592d:	00 00 00
5930:	e8 3b ce ff ff       	call   2770 <__errno_location@plt>
5935:	8b 18                	mov    ebx,DWORD PTR [rax]
5937:	49 89 c6             	mov    r14,rax
593a:	83 fb 01             	cmp    ebx,0x1
593d:	74 09                	je     5948 <set_owner+0x108>
593f:	83 fb 16             	cmp    ebx,0x16
5942:	0f 85 82 ff ff ff    	jne    58ca <set_owner+0x8a>
5948:	44 89 e2             	mov    edx,r12d
594b:	be ff ff ff ff       	mov    esi,0xffffffff
5950:	4c 89 ef             	mov    rdi,r13
5953:	e8 a8 d2 ff ff       	call   2c00 <lchown@plt>
5958:	41 89 1e             	mov    DWORD PTR [r14],ebx
595b:	e9 6a ff ff ff       	jmp    58ca <set_owner+0x8a>
5960:	21 f2                	and    edx,esi
5962:	4c 89 ef             	mov    rdi,r13
5965:	89 de                	mov    esi,ebx
5967:	81 e2 c0 01 00 00    	and    edx,0x1c0
596d:	e8 3e 77 00 00       	call   d0b0 <qset_acl>
5972:	85 c0                	test   eax,eax
5974:	0f 84 1b ff ff ff    	je     5895 <set_owner+0x55>
597a:	e8 f1 cd ff ff       	call   2770 <__errno_location@plt>
597f:	48 89 c3             	mov    rbx,rax
5982:	8b 00                	mov    eax,DWORD PTR [rax]
5984:	83 f8 01             	cmp    eax,0x1
5987:	0f 84 b3 00 00 00    	je     5a40 <set_owner+0x200>
598d:	83 f8 16             	cmp    eax,0x16
5990:	0f 84 aa 00 00 00    	je     5a40 <set_owner+0x200>
5996:	4c 89 ee             	mov    rsi,r13
5999:	bf 04 00 00 00       	mov    edi,0x4
599e:	e8 0d 91 00 00       	call   eab0 <quotearg_style>
59a3:	48 8d 35 51 f4 00 00 	lea    rsi,[rip+0xf451]        # 14dfb <sparse_type+0x1d7b>
59aa:	31 ff                	xor    edi,edi
59ac:	ba 05 00 00 00       	mov    edx,0x5
59b1:	49 89 c4             	mov    r12,rax
59b4:	e8 27 cf ff ff       	call   28e0 <dcgettext@plt>
59b9:	8b 33                	mov    esi,DWORD PTR [rbx]
59bb:	48 89 c2             	mov    rdx,rax
59be:	4c 89 e1             	mov    rcx,r12
59c1:	31 ff                	xor    edi,edi
59c3:	31 c0                	xor    eax,eax
59c5:	e8 e6 d2 ff ff       	call   2cb0 <error@plt>
59ca:	eb 40                	jmp    5a0c <set_owner+0x1cc>
59cc:	0f 1f 40 00          	nop    DWORD PTR [rax+0x0]
59d0:	4c 89 ee             	mov    rsi,r13
59d3:	bf 04 00 00 00       	mov    edi,0x4
59d8:	e8 d3 90 00 00       	call   eab0 <quotearg_style>
59dd:	48 8d 35 14 d7 00 00 	lea    rsi,[rip+0xd714]        # 130f8 <sparse_type+0x78>
59e4:	ba 05 00 00 00       	mov    edx,0x5
59e9:	31 ff                	xor    edi,edi
59eb:	49 89 c4             	mov    r12,rax
59ee:	e8 ed ce ff ff       	call   28e0 <dcgettext@plt>
59f3:	48 89 c3             	mov    rbx,rax
59f6:	e8 75 cd ff ff       	call   2770 <__errno_location@plt>
59fb:	8b 30                	mov    esi,DWORD PTR [rax]
59fd:	4c 89 e1             	mov    rcx,r12
5a00:	48 89 da             	mov    rdx,rbx
5a03:	31 ff                	xor    edi,edi
5a05:	31 c0                	xor    eax,eax
5a07:	e8 a4 d2 ff ff       	call   2cb0 <error@plt>
5a0c:	0f b6 45 24          	movzx  eax,BYTE PTR [rbp+0x24]
5a10:	48 83 c4 08          	add    rsp,0x8
5a14:	5b                   	pop    rbx
5a15:	5d                   	pop    rbp
5a16:	41 5c                	pop    r12
5a18:	f7 d8                	neg    eax
5a1a:	41 5d                	pop    r13
5a1c:	41 5e                	pop    r14
5a1e:	41 5f                	pop    r15
5a20:	c3                   	ret
5a21:	0f 1f 80 00 00 00 00 	nop    DWORD PTR [rax+0x0]
5a28:	44 89 e2             	mov    edx,r12d
5a2b:	be ff ff ff ff       	mov    esi,0xffffffff
5a30:	89 df                	mov    edi,ebx
5a32:	e8 b9 d2 ff ff       	call   2cf0 <fchown@plt>
5a37:	45 89 37             	mov    DWORD PTR [r15],r14d
5a3a:	e9 8b fe ff ff       	jmp    58ca <set_owner+0x8a>
5a3f:	90                   	nop
5a40:	80 7d 1b 00          	cmp    BYTE PTR [rbp+0x1b],0x0
5a44:	0f 85 4c ff ff ff    	jne    5996 <set_owner+0x156>
5a4a:	eb c0                	jmp    5a0c <set_owner+0x1cc>
5a4c:	0f 1f 40 00          	nop    DWORD PTR [rax+0x0]

0000000000005a50 <cached_umask>:
5a50:	53                   	push   rbx
5a51:	8b 1d b9 45 21 00    	mov    ebx,DWORD PTR [rip+0x2145b9]        # 21a010 <mask.7898>
5a57:	83 fb ff             	cmp    ebx,0xffffffff
5a5a:	74 04                	je     5a60 <cached_umask+0x10>
5a5c:	89 d8                	mov    eax,ebx
5a5e:	5b                   	pop    rbx
5a5f:	c3                   	ret
5a60:	31 ff                	xor    edi,edi
5a62:	e8 e9 d0 ff ff       	call   2b50 <umask@plt>
5a67:	89 c3                	mov    ebx,eax
5a69:	89 c7                	mov    edi,eax
5a6b:	89 05 9f 45 21 00    	mov    DWORD PTR [rip+0x21459f],eax        # 21a010 <mask.7898>
5a71:	e8 da d0 ff ff       	call   2b50 <umask@plt>
5a76:	89 d8                	mov    eax,ebx
5a78:	5b                   	pop    rbx
5a79:	c3                   	ret
5a7a:	66 0f 1f 44 00 00    	nop    WORD PTR [rax+rax*1+0x0]

0000000000005a80 <copy_internal>:
5a80:	55                   	push   rbp
5a81:	48 89 e5             	mov    rbp,rsp
5a84:	41 57                	push   r15
5a86:	41 56                	push   r14
5a88:	41 55                	push   r13
5a8a:	41 54                	push   r12
5a8c:	41 89 d6             	mov    r14d,edx
5a8f:	53                   	push   rbx
5a90:	4c 89 cb             	mov    rbx,r9
5a93:	48 81 ec 98 03 00 00 	sub    rsp,0x398
5a9a:	48 8b 45 18          	mov    rax,QWORD PTR [rbp+0x18]
5a9e:	44 8b 6d 10          	mov    r13d,DWORD PTR [rbp+0x10]
5aa2:	48 89 8d b8 fc ff ff 	mov    QWORD PTR [rbp-0x348],rcx
5aa9:	48 8b 4d 28          	mov    rcx,QWORD PTR [rbp+0x28]
5aad:	48 89 bd f0 fc ff ff 	mov    QWORD PTR [rbp-0x310],rdi
5ab4:	48 89 b5 f8 fc ff ff 	mov    QWORD PTR [rbp-0x308],rsi
5abb:	48 89 85 c8 fc ff ff 	mov    QWORD PTR [rbp-0x338],rax
5ac2:	48 8b 45 20          	mov    rax,QWORD PTR [rbp+0x20]
5ac6:	48 89 8d e0 fc ff ff 	mov    QWORD PTR [rbp-0x320],rcx
5acd:	4c 89 85 d0 fc ff ff 	mov    QWORD PTR [rbp-0x330],r8
5ad4:	64 48 8b 0c 25 28 00 	mov    rcx,QWORD PTR fs:0x28
5adb:	00 00
5add:	48 89 4d c8          	mov    QWORD PTR [rbp-0x38],rcx
5ae1:	31 c9                	xor    ecx,ecx
5ae3:	c6 00 00             	mov    BYTE PTR [rax],0x0
5ae6:	45 0f b6 61 18       	movzx  r12d,BYTE PTR [r9+0x18]
5aeb:	48 89 85 c0 fc ff ff 	mov    QWORD PTR [rbp-0x340],rax
5af2:	44 88 ad eb fc ff ff 	mov    BYTE PTR [rbp-0x315],r13b
5af9:	45 8b 79 34          	mov    r15d,DWORD PTR [r9+0x34]
5afd:	45 84 e4             	test   r12b,r12b
5b00:	74 1f                	je     5b21 <copy_internal+0xa1>
5b02:	45 85 ff             	test   r15d,r15d
5b05:	0f 88 95 02 00 00    	js     5da0 <copy_internal+0x320>
5b0b:	48 8b 85 e0 fc ff ff 	mov    rax,QWORD PTR [rbp-0x320]
5b12:	45 85 ff             	test   r15d,r15d
5b15:	41 0f 94 c6          	sete   r14b
5b19:	48 85 c0             	test   rax,rax
5b1c:	74 03                	je     5b21 <copy_internal+0xa1>
5b1e:	44 88 30             	mov    BYTE PTR [rax],r14b
5b21:	45 85 ff             	test   r15d,r15d
5b24:	0f 84 ae 02 00 00    	je     5dd8 <copy_internal+0x358>
5b2a:	41 83 ff 11          	cmp    r15d,0x11
5b2e:	4c 8b a5 f0 fc ff ff 	mov    r12,QWORD PTR [rbp-0x310]
5b35:	0f 84 fd 07 00 00    	je     6338 <copy_internal+0x8b8>
5b3b:	83 7b 04 02          	cmp    DWORD PTR [rbx+0x4],0x2
5b3f:	4c 8d 95 80 fd ff ff 	lea    r10,[rbp-0x280]
5b46:	4c 89 e6             	mov    rsi,r12
5b49:	bf 01 00 00 00       	mov    edi,0x1
5b4e:	4c 89 d2             	mov    rdx,r10
5b51:	0f 84 f9 07 00 00    	je     6350 <copy_internal+0x8d0>
5b57:	e8 44 d0 ff ff       	call   2ba0 <__xstat@plt>
5b5c:	85 c0                	test   eax,eax
5b5e:	4c 89 e6             	mov    rsi,r12
5b61:	0f 95 c0             	setne  al
5b64:	84 c0                	test   al,al
5b66:	0f 85 f9 07 00 00    	jne    6365 <copy_internal+0x8e5>
5b6c:	8b 85 98 fd ff ff    	mov    eax,DWORD PTR [rbp-0x268]
5b72:	89 85 ec fc ff ff    	mov    DWORD PTR [rbp-0x314],eax
5b78:	25 00 f0 00 00       	and    eax,0xf000
5b7d:	3d 00 40 00 00       	cmp    eax,0x4000
5b82:	0f 84 c0 0a 00 00    	je     6648 <copy_internal+0xbc8>
5b88:	45 84 ed             	test   r13b,r13b
5b8b:	74 3d                	je     5bca <copy_internal+0x14a>
5b8d:	48 8b 7b 48          	mov    rdi,QWORD PTR [rbx+0x48]
5b91:	48 85 ff             	test   rdi,rdi
5b94:	74 34                	je     5bca <copy_internal+0x14a>
5b96:	8b 85 ec fc ff ff    	mov    eax,DWORD PTR [rbp-0x314]
5b9c:	4c 8d 95 80 fd ff ff 	lea    r10,[rbp-0x280]
5ba3:	25 00 f0 00 00       	and    eax,0xf000
5ba8:	3d 00 40 00 00       	cmp    eax,0x4000
5bad:	74 0c                	je     5bbb <copy_internal+0x13b>
5baf:	44 8b 1b             	mov    r11d,DWORD PTR [rbx]
5bb2:	45 85 db             	test   r11d,r11d
5bb5:	0f 84 0d 09 00 00    	je     64c8 <copy_internal+0xa48>
5bbb:	48 8b b5 f0 fc ff ff 	mov    rsi,QWORD PTR [rbp-0x310]
5bc2:	4c 89 d2             	mov    rdx,r10
5bc5:	e8 66 5b 00 00       	call   b730 <record_file>
5bca:	8b 43 04             	mov    eax,DWORD PTR [rbx+0x4]
5bcd:	c7 85 d8 fc ff ff 01 	mov    DWORD PTR [rbp-0x328],0x1
5bd4:	00 00 00
5bd7:	83 f8 04             	cmp    eax,0x4
5bda:	74 12                	je     5bee <copy_internal+0x16e>
5bdc:	83 f8 03             	cmp    eax,0x3
5bdf:	0f 94 c0             	sete   al
5be2:	0f b6 c0             	movzx  eax,al
5be5:	44 21 e8             	and    eax,r13d
5be8:	89 85 d8 fc ff ff    	mov    DWORD PTR [rbp-0x328],eax
5bee:	45 84 f6             	test   r14b,r14b
5bf1:	0f 85 09 02 00 00    	jne    5e00 <copy_internal+0x380>
5bf7:	41 83 ff 11          	cmp    r15d,0x11
5bfb:	0f 84 5f 09 00 00    	je     6560 <copy_internal+0xae0>
5c01:	8b 85 ec fc ff ff    	mov    eax,DWORD PTR [rbp-0x314]
5c07:	25 00 f0 00 00       	and    eax,0xf000
5c0c:	3d 00 80 00 00       	cmp    eax,0x8000
5c11:	0f 84 e9 08 00 00    	je     6500 <copy_internal+0xa80>
5c17:	3d 00 a0 00 00       	cmp    eax,0xa000
5c1c:	41 b8 00 01 00 00    	mov    r8d,0x100
5c22:	41 0f 94 c1          	sete   r9b
5c26:	3d 00 40 00 00       	cmp    eax,0x4000
5c2b:	0f 94 c0             	sete   al
5c2e:	41 09 c1             	or     r9d,eax
5c31:	0f b6 43 14          	movzx  eax,BYTE PTR [rbx+0x14]
5c35:	83 f0 01             	xor    eax,0x1
5c38:	41 08 c1             	or     r9b,al
5c3b:	0f 84 bf 08 00 00    	je     6500 <copy_internal+0xa80>
5c41:	4c 8d a5 10 fe ff ff 	lea    r12,[rbp-0x1f0]
5c48:	48 8b 95 f8 fc ff ff 	mov    rdx,QWORD PTR [rbp-0x308]
5c4f:	be 9c ff ff ff       	mov    esi,0xffffff9c
5c54:	bf 01 00 00 00       	mov    edi,0x1
5c59:	44 88 8d b0 fc ff ff 	mov    BYTE PTR [rbp-0x350],r9b
5c60:	4c 89 e1             	mov    rcx,r12
5c63:	e8 18 cd ff ff       	call   2980 <__fxstatat@plt>
5c68:	85 c0                	test   eax,eax
5c6a:	44 0f b6 8d b0 fc ff 	movzx  r9d,BYTE PTR [rbp-0x350]
5c71:	ff
5c72:	0f 85 78 06 00 00    	jne    62f0 <copy_internal+0x870>
5c78:	45 31 c0             	xor    r8d,r8d
5c7b:	83 7b 08 02          	cmp    DWORD PTR [rbx+0x8],0x2
5c7f:	74 1e                	je     5c9f <copy_internal+0x21f>
5c81:	48 8b 85 18 fe ff ff 	mov    rax,QWORD PTR [rbp-0x1e8]
5c88:	48 39 85 88 fd ff ff 	cmp    QWORD PTR [rbp-0x278],rax
5c8f:	0f 84 c3 11 00 00    	je     6e58 <copy_internal+0x13d8>
5c95:	83 7b 04 02          	cmp    DWORD PTR [rbx+0x4],0x2
5c99:	0f 84 71 13 00 00    	je     7010 <copy_internal+0x1590>
5c9f:	80 7b 2d 00          	cmp    BYTE PTR [rbx+0x2d],0x0
5ca3:	0f 84 f7 09 00 00    	je     66a0 <copy_internal+0xc20>
5ca9:	8b 85 ec fc ff ff    	mov    eax,DWORD PTR [rbp-0x314]
5caf:	25 00 f0 00 00       	and    eax,0xf000
5cb4:	3d 00 40 00 00       	cmp    eax,0x4000
5cb9:	0f 84 21 14 00 00    	je     70e0 <copy_internal+0x1660>
5cbf:	31 c9                	xor    ecx,ecx
5cc1:	80 7b 1f 00          	cmp    BYTE PTR [rbx+0x1f],0x0
5cc5:	74 1e                	je     5ce5 <copy_internal+0x265>
5cc7:	80 7b 18 00          	cmp    BYTE PTR [rbx+0x18],0x0
5ccb:	b9 01 00 00 00       	mov    ecx,0x1
5cd0:	74 13                	je     5ce5 <copy_internal+0x265>
5cd2:	31 c9                	xor    ecx,ecx
5cd4:	48 8b 85 80 fd ff ff 	mov    rax,QWORD PTR [rbp-0x280]
5cdb:	48 39 85 10 fe ff ff 	cmp    QWORD PTR [rbp-0x1f0],rax
5ce2:	0f 95 c1             	setne  cl
5ce5:	4c 8d 95 80 fd ff ff 	lea    r10,[rbp-0x280]
5cec:	48 8b bd f8 fc ff ff 	mov    rdi,QWORD PTR [rbp-0x308]
5cf3:	48 8d b5 10 fe ff ff 	lea    rsi,[rbp-0x1f0]
5cfa:	44 88 8d a8 fc ff ff 	mov    BYTE PTR [rbp-0x358],r9b
5d01:	44 88 85 b0 fc ff ff 	mov    BYTE PTR [rbp-0x350],r8b
5d08:	4c 89 d2             	mov    rdx,r10
5d0b:	e8 20 a4 00 00       	call   10130 <utimecmp>
5d10:	85 c0                	test   eax,eax
5d12:	44 0f b6 85 b0 fc ff 	movzx  r8d,BYTE PTR [rbp-0x350]
5d19:	ff
5d1a:	44 0f b6 8d a8 fc ff 	movzx  r9d,BYTE PTR [rbp-0x358]
5d21:	ff
5d22:	0f 88 48 0f 00 00    	js     6c70 <copy_internal+0x11f0>
5d28:	48 8b 85 e0 fc ff ff 	mov    rax,QWORD PTR [rbp-0x320]
5d2f:	48 85 c0             	test   rax,rax
5d32:	74 03                	je     5d37 <copy_internal+0x2b7>
5d34:	c6 00 01             	mov    BYTE PTR [rax],0x1
5d37:	48 8b 95 80 fd ff ff 	mov    rdx,QWORD PTR [rbp-0x280]
5d3e:	48 8b b5 88 fd ff ff 	mov    rsi,QWORD PTR [rbp-0x278]
5d45:	48 8b bd f8 fc ff ff 	mov    rdi,QWORD PTR [rbp-0x308]
5d4c:	e8 cf 40 00 00       	call   9e20 <remember_copied>
5d51:	48 85 c0             	test   rax,rax
5d54:	0f 84 66 05 00 00    	je     62c0 <copy_internal+0x840>
5d5a:	0f b6 4b 2e          	movzx  ecx,BYTE PTR [rbx+0x2e]
5d5e:	44 8b 85 d8 fc ff ff 	mov    r8d,DWORD PTR [rbp-0x328]
5d65:	ba 01 00 00 00       	mov    edx,0x1
5d6a:	48 8b b5 f8 fc ff ff 	mov    rsi,QWORD PTR [rbp-0x308]
5d71:	48 89 c7             	mov    rdi,rax
5d74:	e8 77 f1 ff ff       	call   4ef0 <create_hard_link>
5d79:	84 c0                	test   al,al
5d7b:	0f 85 3f 05 00 00    	jne    62c0 <copy_internal+0x840>
5d81:	80 7b 25 00          	cmp    BYTE PTR [rbx+0x25],0x0
5d85:	0f 85 05 0e 00 00    	jne    6b90 <copy_internal+0x1110>
5d8b:	0f 1f 44 00 00       	nop    DWORD PTR [rax+rax*1+0x0]
5d90:	45 31 e4             	xor    r12d,r12d
5d93:	e9 2e 05 00 00       	jmp    62c6 <copy_internal+0x846>
5d98:	0f 1f 84 00 00 00 00 	nop    DWORD PTR [rax+rax*1+0x0]
5d9f:	00
5da0:	ba 9c ff ff ff       	mov    edx,0xffffff9c
5da5:	48 89 f1             	mov    rcx,rsi
5da8:	41 b8 01 00 00 00    	mov    r8d,0x1
5dae:	48 89 fe             	mov    rsi,rdi
5db1:	89 d7                	mov    edi,edx
5db3:	e8 e8 8f 00 00       	call   eda0 <renameatu>
5db8:	85 c0                	test   eax,eax
5dba:	0f 85 70 0b 00 00    	jne    6930 <copy_internal+0xeb0>
5dc0:	48 8b 85 e0 fc ff ff 	mov    rax,QWORD PTR [rbp-0x320]
5dc7:	45 89 e6             	mov    r14d,r12d
5dca:	48 85 c0             	test   rax,rax
5dcd:	74 09                	je     5dd8 <copy_internal+0x358>
5dcf:	c6 00 01             	mov    BYTE PTR [rax],0x1
5dd2:	66 0f 1f 44 00 00    	nop    WORD PTR [rax+rax*1+0x0]
5dd8:	80 7b 31 00          	cmp    BYTE PTR [rbx+0x31],0x0
5ddc:	75 12                	jne    5df0 <copy_internal+0x370>
5dde:	4c 8b a5 f8 fc ff ff 	mov    r12,QWORD PTR [rbp-0x308]
5de5:	45 31 ff             	xor    r15d,r15d
5de8:	e9 4e fd ff ff       	jmp    5b3b <copy_internal+0xbb>
5ded:	0f 1f 00             	nop    DWORD PTR [rax]
5df0:	45 31 ff             	xor    r15d,r15d
5df3:	e9 90 fd ff ff       	jmp    5b88 <copy_internal+0x108>
5df8:	0f 1f 84 00 00 00 00 	nop    DWORD PTR [rax+rax*1+0x0]
5dff:	00
5e00:	45 31 c9             	xor    r9d,r9d
5e03:	48 c7 85 b0 fc ff ff 	mov    QWORD PTR [rbp-0x350],0x0
5e0a:	00 00 00 00
5e0e:	45 84 ed             	test   r13b,r13b
5e11:	0f 84 b9 00 00 00    	je     5ed0 <copy_internal+0x450>
5e17:	48 83 7b 40 00       	cmp    QWORD PTR [rbx+0x40],0x0
5e1c:	0f 84 ae 00 00 00    	je     5ed0 <copy_internal+0x450>
5e22:	44 0f b6 63 18       	movzx  r12d,BYTE PTR [rbx+0x18]
5e27:	45 84 e4             	test   r12b,r12b
5e2a:	0f 85 a0 00 00 00    	jne    5ed0 <copy_internal+0x450>
5e30:	8b 13                	mov    edx,DWORD PTR [rbx]
5e32:	85 d2                	test   edx,edx
5e34:	0f 85 7e 0c 00 00    	jne    6ab8 <copy_internal+0x1038>
5e3a:	45 84 c9             	test   r9b,r9b
5e3d:	48 8d 95 10 fe ff ff 	lea    rdx,[rbp-0x1f0]
5e44:	0f 84 76 18 00 00    	je     76c0 <copy_internal+0x1c40>
5e4a:	8b 42 18             	mov    eax,DWORD PTR [rdx+0x18]
5e4d:	25 00 f0 00 00       	and    eax,0xf000
5e52:	3d 00 a0 00 00       	cmp    eax,0xa000
5e57:	75 77                	jne    5ed0 <copy_internal+0x450>
5e59:	48 8b 7b 40          	mov    rdi,QWORD PTR [rbx+0x40]
5e5d:	48 8b b5 f8 fc ff ff 	mov    rsi,QWORD PTR [rbp-0x308]
5e64:	e8 57 59 00 00       	call   b7c0 <seen_file>
5e69:	84 c0                	test   al,al
5e6b:	74 63                	je     5ed0 <copy_internal+0x450>
5e6d:	48 8b 95 f8 fc ff ff 	mov    rdx,QWORD PTR [rbp-0x308]
5e74:	be 04 00 00 00       	mov    esi,0x4
5e79:	bf 01 00 00 00       	mov    edi,0x1
5e7e:	e8 0d 8b 00 00       	call   e990 <quotearg_n_style>
5e83:	48 8b 95 f0 fc ff ff 	mov    rdx,QWORD PTR [rbp-0x310]
5e8a:	31 ff                	xor    edi,edi
5e8c:	be 04 00 00 00       	mov    esi,0x4
5e91:	49 89 c5             	mov    r13,rax
5e94:	e8 f7 8a 00 00       	call   e990 <quotearg_n_style>
5e99:	48 8d 35 70 eb 00 00 	lea    rsi,[rip+0xeb70]        # 14a10 <sparse_type+0x1990>
5ea0:	48 89 c3             	mov    rbx,rax
5ea3:	31 ff                	xor    edi,edi
5ea5:	ba 05 00 00 00       	mov    edx,0x5
5eaa:	e8 31 ca ff ff       	call   28e0 <dcgettext@plt>
5eaf:	4d 89 e8             	mov    r8,r13
5eb2:	48 89 c2             	mov    rdx,rax
5eb5:	48 89 d9             	mov    rcx,rbx
5eb8:	31 f6                	xor    esi,esi
5eba:	31 ff                	xor    edi,edi
5ebc:	31 c0                	xor    eax,eax
5ebe:	e8 ed cd ff ff       	call   2cb0 <error@plt>
5ec3:	e9 fe 03 00 00       	jmp    62c6 <copy_internal+0x846>
5ec8:	0f 1f 84 00 00 00 00 	nop    DWORD PTR [rax+rax*1+0x0]
5ecf:	00
5ed0:	80 7b 2e 00          	cmp    BYTE PTR [rbx+0x2e],0x0
5ed4:	74 0a                	je     5ee0 <copy_internal+0x460>
5ed6:	80 7b 18 00          	cmp    BYTE PTR [rbx+0x18],0x0
5eda:	0f 84 b0 05 00 00    	je     6490 <copy_internal+0xa10>
5ee0:	45 85 ff             	test   r15d,r15d
5ee3:	0f 84 97 03 00 00    	je     6280 <copy_internal+0x800>
5ee9:	80 7b 2a 00          	cmp    BYTE PTR [rbx+0x2a],0x0
5eed:	74 16                	je     5f05 <copy_internal+0x485>
5eef:	8b 85 ec fc ff ff    	mov    eax,DWORD PTR [rbp-0x314]
5ef5:	25 00 f0 00 00       	and    eax,0xf000
5efa:	3d 00 40 00 00       	cmp    eax,0x4000
5eff:	0f 84 cb 0b 00 00    	je     6ad0 <copy_internal+0x1050>
5f05:	0f b6 43 18          	movzx  eax,BYTE PTR [rbx+0x18]
5f09:	84 c0                	test   al,al
5f0b:	0f 85 9f 04 00 00    	jne    63b0 <copy_internal+0x930>
5f11:	80 7b 22 00          	cmp    BYTE PTR [rbx+0x22],0x0
5f15:	0f 85 d5 1b 00 00    	jne    7af0 <copy_internal+0x2070>
5f1b:	41 0f b6 c6          	movzx  eax,r14b
5f1f:	48 c7 85 a8 fc ff ff 	mov    QWORD PTR [rbp-0x358],0x0
5f26:	00 00 00 00
5f2a:	89 85 e0 fc ff ff    	mov    DWORD PTR [rbp-0x320],eax
5f30:	44 8b a5 ec fc ff ff 	mov    r12d,DWORD PTR [rbp-0x314]
5f37:	41 81 e4 ff 0f 00 00 	and    r12d,0xfff
5f3e:	80 7b 2b 00          	cmp    BYTE PTR [rbx+0x2b],0x0
5f42:	74 0b                	je     5f4f <copy_internal+0x4cf>
5f44:	44 8b 63 10          	mov    r12d,DWORD PTR [rbx+0x10]
5f48:	41 81 e4 ff 0f 00 00 	and    r12d,0xfff
5f4f:	80 7b 1d 00          	cmp    BYTE PTR [rbx+0x1d],0x0
5f53:	0f 85 1f 06 00 00    	jne    6578 <copy_internal+0xaf8>
5f59:	44 8b bd ec fc ff ff 	mov    r15d,DWORD PTR [rbp-0x314]
5f60:	41 81 e7 00 f0 00 00 	and    r15d,0xf000
5f67:	41 81 ff 00 40 00 00 	cmp    r15d,0x4000
5f6e:	0f 84 3c 0e 00 00    	je     6db0 <copy_internal+0x1330>
5f74:	8b 8d e0 fc ff ff    	mov    ecx,DWORD PTR [rbp-0x320]
5f7a:	8b 95 ec fc ff ff    	mov    edx,DWORD PTR [rbp-0x314]
5f80:	49 89 d8             	mov    r8,rbx
5f83:	48 8b b5 f8 fc ff ff 	mov    rsi,QWORD PTR [rbp-0x308]
5f8a:	48 8b bd f0 fc ff ff 	mov    rdi,QWORD PTR [rbp-0x310]
5f91:	e8 8a f6 ff ff       	call   5620 <set_process_security_ctx>
5f96:	84 c0                	test   al,al
5f98:	c7 85 a4 fc ff ff 00 	mov    DWORD PTR [rbp-0x35c],0x0
5f9f:	00 00 00
5fa2:	0f 84 e8 fd ff ff    	je     5d90 <copy_internal+0x310>
5fa8:	0f b6 43 2c          	movzx  eax,BYTE PTR [rbx+0x2c]
5fac:	84 c0                	test   al,al
5fae:	88 85 e0 fc ff ff    	mov    BYTE PTR [rbp-0x320],al
5fb4:	0f 85 86 09 00 00    	jne    6940 <copy_internal+0xec0>
5fba:	80 7b 17 00          	cmp    BYTE PTR [rbx+0x17],0x0
5fbe:	0f 84 44 13 00 00    	je     7308 <copy_internal+0x1888>
5fc4:	80 7b 16 00          	cmp    BYTE PTR [rbx+0x16],0x0
5fc8:	ba 01 00 00 00       	mov    edx,0x1
5fcd:	75 09                	jne    5fd8 <copy_internal+0x558>
5fcf:	31 d2                	xor    edx,edx
5fd1:	83 7b 08 03          	cmp    DWORD PTR [rbx+0x8],0x3
5fd5:	0f 94 c2             	sete   dl
5fd8:	44 8b 85 d8 fc ff ff 	mov    r8d,DWORD PTR [rbp-0x328]
5fdf:	48 8b b5 f8 fc ff ff 	mov    rsi,QWORD PTR [rbp-0x308]
5fe6:	31 c9                	xor    ecx,ecx
5fe8:	48 8b bd f0 fc ff ff 	mov    rdi,QWORD PTR [rbp-0x310]
5fef:	e8 fc ee ff ff       	call   4ef0 <create_hard_link>
5ff4:	84 c0                	test   al,al
5ff6:	0f 84 14 0a 00 00    	je     6a10 <copy_internal+0xf90>
5ffc:	45 31 c0             	xor    r8d,r8d
5fff:	41 81 ff 00 40 00 00 	cmp    r15d,0x4000
6006:	41 0f 95 c7          	setne  r15b
600a:	45 84 f6             	test   r14b,r14b
600d:	75 13                	jne    6022 <copy_internal+0x5a2>
600f:	0f b6 43 14          	movzx  eax,BYTE PTR [rbx+0x14]
6013:	83 f0 01             	xor    eax,0x1
6016:	44 20 f8             	and    al,r15b
6019:	41 89 c4             	mov    r12d,eax
601c:	0f 85 2e 1d 00 00    	jne    7d50 <copy_internal+0x22d0>
6022:	45 84 ed             	test   r13b,r13b
6025:	41 bc 01 00 00 00    	mov    r12d,0x1
602b:	74 55                	je     6082 <copy_internal+0x602>
602d:	c6 85 d0 fc ff ff 00 	mov    BYTE PTR [rbp-0x330],0x0
6034:	48 83 7b 40 00       	cmp    QWORD PTR [rbx+0x40],0x0
6039:	74 32                	je     606d <copy_internal+0x5ed>
603b:	4c 8d a5 30 ff ff ff 	lea    r12,[rbp-0xd0]
6042:	48 8b b5 f8 fc ff ff 	mov    rsi,QWORD PTR [rbp-0x308]
6049:	bf 01 00 00 00       	mov    edi,0x1
604e:	44 88 85 d8 fc ff ff 	mov    BYTE PTR [rbp-0x328],r8b
6055:	4c 89 e2             	mov    rdx,r12
6058:	e8 b3 c8 ff ff       	call   2910 <__lxstat@plt>
605d:	85 c0                	test   eax,eax
605f:	44 0f b6 85 d8 fc ff 	movzx  r8d,BYTE PTR [rbp-0x328]
6066:	ff
6067:	0f 84 45 20 00 00    	je     80b2 <copy_internal+0x2632>
606d:	0f b6 85 d0 fc ff ff 	movzx  eax,BYTE PTR [rbp-0x330]
6074:	44 0f b6 a5 eb fc ff 	movzx  r12d,BYTE PTR [rbp-0x315]
607b:	ff
607c:	88 85 eb fc ff ff    	mov    BYTE PTR [rbp-0x315],al
6082:	80 7b 17 00          	cmp    BYTE PTR [rbx+0x17],0x0
6086:	74 09                	je     6091 <copy_internal+0x611>
6088:	45 84 ff             	test   r15b,r15b
608b:	0f 85 35 02 00 00    	jne    62c6 <copy_internal+0x846>
6091:	45 84 c0             	test   r8b,r8b
6094:	0f 85 2c 02 00 00    	jne    62c6 <copy_internal+0x846>
609a:	80 7b 1f 00          	cmp    BYTE PTR [rbx+0x1f],0x0
609e:	0f 84 b4 00 00 00    	je     6158 <copy_internal+0x6d8>
60a4:	48 8b 85 c8 fd ff ff 	mov    rax,QWORD PTR [rbp-0x238]
60ab:	80 bd e0 fc ff ff 00 	cmp    BYTE PTR [rbp-0x320],0x0
60b2:	48 8d b5 30 ff ff ff 	lea    rsi,[rbp-0xd0]
60b9:	48 8b bd f8 fc ff ff 	mov    rdi,QWORD PTR [rbp-0x308]
60c0:	48 89 85 30 ff ff ff 	mov    QWORD PTR [rbp-0xd0],rax
60c7:	48 8b 85 d0 fd ff ff 	mov    rax,QWORD PTR [rbp-0x230]
60ce:	48 89 85 38 ff ff ff 	mov    QWORD PTR [rbp-0xc8],rax
60d5:	48 8b 85 d8 fd ff ff 	mov    rax,QWORD PTR [rbp-0x228]
60dc:	48 89 85 40 ff ff ff 	mov    QWORD PTR [rbp-0xc0],rax
60e3:	48 8b 85 e0 fd ff ff 	mov    rax,QWORD PTR [rbp-0x220]
60ea:	48 89 85 48 ff ff ff 	mov    QWORD PTR [rbp-0xb8],rax
60f1:	0f 84 a9 1f 00 00    	je     80a0 <copy_internal+0x2620>
60f7:	e8 64 a6 00 00       	call   10760 <lutimens>
60fc:	85 c0                	test   eax,eax
60fe:	74 58                	je     6158 <copy_internal+0x6d8>
6100:	e8 6b c6 ff ff       	call   2770 <__errno_location@plt>
6105:	83 38 26             	cmp    DWORD PTR [rax],0x26
6108:	74 4e                	je     6158 <copy_internal+0x6d8>
610a:	48 8b b5 f8 fc ff ff 	mov    rsi,QWORD PTR [rbp-0x308]
6111:	bf 04 00 00 00       	mov    edi,0x4
6116:	e8 95 89 00 00       	call   eab0 <quotearg_style>
611b:	48 8d 35 49 ee 00 00 	lea    rsi,[rip+0xee49]        # 14f6b <sparse_type+0x1eeb>
6122:	31 ff                	xor    edi,edi
6124:	ba 05 00 00 00       	mov    edx,0x5
6129:	49 89 c5             	mov    r13,rax
612c:	e8 af c7 ff ff       	call   28e0 <dcgettext@plt>
6131:	49 89 c7             	mov    r15,rax
6134:	e8 37 c6 ff ff       	call   2770 <__errno_location@plt>
6139:	8b 30                	mov    esi,DWORD PTR [rax]
613b:	31 ff                	xor    edi,edi
613d:	31 c0                	xor    eax,eax
613f:	4c 89 e9             	mov    rcx,r13
6142:	4c 89 fa             	mov    rdx,r15
6145:	e8 66 cb ff ff       	call   2cb0 <error@plt>
614a:	80 7b 24 00          	cmp    BYTE PTR [rbx+0x24],0x0
614e:	0f 85 3c fc ff ff    	jne    5d90 <copy_internal+0x310>
6154:	0f 1f 40 00          	nop    DWORD PTR [rax+0x0]
6158:	80 bd e0 fc ff ff 00 	cmp    BYTE PTR [rbp-0x320],0x0
615f:	0f 85 61 01 00 00    	jne    62c6 <copy_internal+0x846>
6165:	80 7b 1d 00          	cmp    BYTE PTR [rbx+0x1d],0x0
6169:	74 5c                	je     61c7 <copy_internal+0x747>
616b:	45 84 f6             	test   r14b,r14b
616e:	75 12                	jne    6182 <copy_internal+0x702>
6170:	8b 85 2c fe ff ff    	mov    eax,DWORD PTR [rbp-0x1d4]
6176:	39 85 9c fd ff ff    	cmp    DWORD PTR [rbp-0x264],eax
617c:	0f 84 a8 26 00 00    	je     882a <copy_internal+0x2daa>
6182:	48 8b b5 f8 fc ff ff 	mov    rsi,QWORD PTR [rbp-0x308]
6189:	48 8d 8d 80 fd ff ff 	lea    rcx,[rbp-0x280]
6190:	4c 8d 8d 10 fe ff ff 	lea    r9,[rbp-0x1f0]
6197:	45 0f b6 c6          	movzx  r8d,r14b
619b:	ba ff ff ff ff       	mov    edx,0xffffffff
61a0:	48 89 df             	mov    rdi,rbx
61a3:	e8 98 f6 ff ff       	call   5840 <set_owner>
61a8:	83 f8 ff             	cmp    eax,0xffffffff
61ab:	0f 84 df fb ff ff    	je     5d90 <copy_internal+0x310>
61b1:	8b 8d ec fc ff ff    	mov    ecx,DWORD PTR [rbp-0x314]
61b7:	89 ca                	mov    edx,ecx
61b9:	80 e6 f1             	and    dh,0xf1
61bc:	85 c0                	test   eax,eax
61be:	0f 45 d1             	cmovne edx,ecx
61c1:	89 95 ec fc ff ff    	mov    DWORD PTR [rbp-0x314],edx
61c7:	48 b8 ff 00 00 00 00 	movabs rax,0xff0000000000ff
61ce:	00 ff 00
61d1:	48 85 43 18          	test   QWORD PTR [rbx+0x18],rax
61d5:	0f 85 95 20 00 00    	jne    8270 <copy_internal+0x27f0>
61db:	80 7b 2b 00          	cmp    BYTE PTR [rbx+0x2b],0x0
61df:	0f 85 f0 23 00 00    	jne    85d5 <copy_internal+0x2b55>
61e5:	44 84 73 20          	test   BYTE PTR [rbx+0x20],r14b
61e9:	0f 85 9a 26 00 00    	jne    8889 <copy_internal+0x2e09>
61ef:	8b 85 a4 fc ff ff    	mov    eax,DWORD PTR [rbp-0x35c]
61f5:	85 c0                	test   eax,eax
61f7:	0f 85 44 26 00 00    	jne    8841 <copy_internal+0x2dc1>
61fd:	80 bd eb fc ff ff 00 	cmp    BYTE PTR [rbp-0x315],0x0
6204:	0f 84 bc 00 00 00    	je     62c6 <copy_internal+0x846>
620a:	8b b5 74 fc ff ff    	mov    esi,DWORD PTR [rbp-0x38c]
6210:	0b b5 a4 fc ff ff    	or     esi,DWORD PTR [rbp-0x35c]
6216:	48 8b bd f8 fc ff ff 	mov    rdi,QWORD PTR [rbp-0x308]
621d:	e8 6e ca ff ff       	call   2c90 <chmod@plt>
6222:	85 c0                	test   eax,eax
6224:	0f 84 9c 00 00 00    	je     62c6 <copy_internal+0x846>
622a:	48 8b b5 f8 fc ff ff 	mov    rsi,QWORD PTR [rbp-0x308]
6231:	bf 04 00 00 00       	mov    edi,0x4
6236:	e8 75 88 00 00       	call   eab0 <quotearg_style>
623b:	48 8d 35 41 ed 00 00 	lea    rsi,[rip+0xed41]        # 14f83 <sparse_type+0x1f03>
6242:	ba 05 00 00 00       	mov    edx,0x5
6247:	31 ff                	xor    edi,edi
6249:	49 89 c6             	mov    r14,rax
624c:	e8 8f c6 ff ff       	call   28e0 <dcgettext@plt>
6251:	49 89 c5             	mov    r13,rax
6254:	e8 17 c5 ff ff       	call   2770 <__errno_location@plt>
6259:	8b 30                	mov    esi,DWORD PTR [rax]
625b:	4c 89 f1             	mov    rcx,r14
625e:	4c 89 ea             	mov    rdx,r13
6261:	31 ff                	xor    edi,edi
6263:	31 c0                	xor    eax,eax
6265:	e8 46 ca ff ff       	call   2cb0 <error@plt>
626a:	80 7b 24 00          	cmp    BYTE PTR [rbx+0x24],0x0
626e:	0f 85 1c fb ff ff    	jne    5d90 <copy_internal+0x310>
6274:	eb 50                	jmp    62c6 <copy_internal+0x846>
6276:	66 2e 0f 1f 84 00 00 	nop    WORD PTR cs:[rax+rax*1+0x0]
627d:	00 00 00
6280:	80 7b 18 00          	cmp    BYTE PTR [rbx+0x18],0x0
6284:	0f 84 91 fc ff ff    	je     5f1b <copy_internal+0x49b>
628a:	80 7b 2e 00          	cmp    BYTE PTR [rbx+0x2e],0x0
628e:	0f 85 7c 0b 00 00    	jne    6e10 <copy_internal+0x1390>
6294:	80 7b 21 00          	cmp    BYTE PTR [rbx+0x21],0x0
6298:	0f 85 52 0b 00 00    	jne    6df0 <copy_internal+0x1370>
629e:	48 8b 85 e0 fc ff ff 	mov    rax,QWORD PTR [rbp-0x320]
62a5:	48 85 c0             	test   rax,rax
62a8:	74 03                	je     62ad <copy_internal+0x82d>
62aa:	c6 00 01             	mov    BYTE PTR [rax],0x1
62ad:	45 84 ed             	test   r13b,r13b
62b0:	74 0e                	je     62c0 <copy_internal+0x840>
62b2:	80 7b 31 00          	cmp    BYTE PTR [rbx+0x31],0x0
62b6:	0f 84 6c 0a 00 00    	je     6d28 <copy_internal+0x12a8>
62bc:	0f 1f 40 00          	nop    DWORD PTR [rax+0x0]
62c0:	41 bc 01 00 00 00    	mov    r12d,0x1
62c6:	48 8b 75 c8          	mov    rsi,QWORD PTR [rbp-0x38]
62ca:	64 48 33 34 25 28 00 	xor    rsi,QWORD PTR fs:0x28
62d1:	00 00
62d3:	44 89 e0             	mov    eax,r12d
62d6:	0f 85 c8 2c 00 00    	jne    8fa4 <copy_internal+0x3524>
62dc:	48 8d 65 d8          	lea    rsp,[rbp-0x28]
62e0:	5b                   	pop    rbx
62e1:	41 5c                	pop    r12
62e3:	41 5d                	pop    r13
62e5:	41 5e                	pop    r14
62e7:	41 5f                	pop    r15
62e9:	5d                   	pop    rbp
62ea:	c3                   	ret
62eb:	0f 1f 44 00 00       	nop    DWORD PTR [rax+rax*1+0x0]
62f0:	e8 7b c4 ff ff       	call   2770 <__errno_location@plt>
62f5:	49 89 c1             	mov    r9,rax
62f8:	8b 00                	mov    eax,DWORD PTR [rax]
62fa:	83 f8 28             	cmp    eax,0x28
62fd:	0f 84 cd 05 00 00    	je     68d0 <copy_internal+0xe50>
6303:	83 f8 02             	cmp    eax,0x2
6306:	41 b8 01 00 00 00    	mov    r8d,0x1
630c:	0f 85 c8 05 00 00    	jne    68da <copy_internal+0xe5a>
6312:	45 31 c9             	xor    r9d,r9d
6315:	41 83 ff 11          	cmp    r15d,0x11
6319:	0f 84 5c f9 ff ff    	je     5c7b <copy_internal+0x1fb>
631f:	45 89 c6             	mov    r14d,r8d
6322:	48 c7 85 b0 fc ff ff 	mov    QWORD PTR [rbp-0x350],0x0
6329:	00 00 00 00
632d:	e9 dc fa ff ff       	jmp    5e0e <copy_internal+0x38e>
6332:	66 0f 1f 44 00 00    	nop    WORD PTR [rax+rax*1+0x0]
6338:	83 7b 08 02          	cmp    DWORD PTR [rbx+0x8],0x2
633c:	0f 84 46 f8 ff ff    	je     5b88 <copy_internal+0x108>
6342:	e9 f4 f7 ff ff       	jmp    5b3b <copy_internal+0xbb>
6347:	66 0f 1f 84 00 00 00 	nop    WORD PTR [rax+rax*1+0x0]
634e:	00 00
6350:	e8 bb c5 ff ff       	call   2910 <__lxstat@plt>
6355:	85 c0                	test   eax,eax
6357:	4c 89 e6             	mov    rsi,r12
635a:	0f 95 c0             	setne  al
635d:	84 c0                	test   al,al
635f:	0f 84 07 f8 ff ff    	je     5b6c <copy_internal+0xec>
6365:	bf 04 00 00 00       	mov    edi,0x4
636a:	e8 41 87 00 00       	call   eab0 <quotearg_style>
636f:	48 8d 35 a1 ea 00 00 	lea    rsi,[rip+0xeaa1]        # 14e17 <sparse_type+0x1d97>
6376:	49 89 c4             	mov    r12,rax
6379:	ba 05 00 00 00       	mov    edx,0x5
637e:	31 ff                	xor    edi,edi
6380:	e8 5b c5 ff ff       	call   28e0 <dcgettext@plt>
6385:	48 89 c3             	mov    rbx,rax
6388:	e8 e3 c3 ff ff       	call   2770 <__errno_location@plt>
638d:	8b 30                	mov    esi,DWORD PTR [rax]
638f:	4c 89 e1             	mov    rcx,r12
6392:	48 89 da             	mov    rdx,rbx
6395:	31 ff                	xor    edi,edi
6397:	31 c0                	xor    eax,eax
6399:	45 31 e4             	xor    r12d,r12d
639c:	e8 0f c9 ff ff       	call   2cb0 <error@plt>
63a1:	e9 20 ff ff ff       	jmp    62c6 <copy_internal+0x846>
63a6:	66 2e 0f 1f 84 00 00 	nop    WORD PTR cs:[rax+rax*1+0x0]
63ad:	00 00 00
63b0:	48 83 bd 90 fd ff ff 	cmp    QWORD PTR [rbp-0x270],0x1
63b7:	01
63b8:	0f 84 2a 10 00 00    	je     73e8 <copy_internal+0x1968>
63be:	80 7b 22 00          	cmp    BYTE PTR [rbx+0x22],0x0
63c2:	48 c7 85 a8 fc ff ff 	mov    QWORD PTR [rbp-0x358],0x0
63c9:	00 00 00 00
63cd:	74 0a                	je     63d9 <copy_internal+0x959>
63cf:	80 7b 17 00          	cmp    BYTE PTR [rbx+0x17],0x0
63d3:	0f 84 bf 07 00 00    	je     6b98 <copy_internal+0x1118>
63d9:	41 83 ff 11          	cmp    r15d,0x11
63dd:	75 2c                	jne    640b <copy_internal+0x98b>
63df:	48 8b b5 f8 fc ff ff 	mov    rsi,QWORD PTR [rbp-0x308]
63e6:	48 8b bd f0 fc ff ff 	mov    rdi,QWORD PTR [rbp-0x310]
63ed:	e8 1e c9 ff ff       	call   2d10 <rename@plt>
63f2:	85 c0                	test   eax,eax
63f4:	0f 84 90 fe ff ff    	je     628a <copy_internal+0x80a>
63fa:	e8 71 c3 ff ff       	call   2770 <__errno_location@plt>
63ff:	44 8b 38             	mov    r15d,DWORD PTR [rax]
6402:	45 85 ff             	test   r15d,r15d
6405:	0f 84 7f fe ff ff    	je     628a <copy_internal+0x80a>
640b:	41 83 ff 16          	cmp    r15d,0x16
640f:	0f 84 1b 10 00 00    	je     7430 <copy_internal+0x19b0>
6415:	41 83 ff 12          	cmp    r15d,0x12
6419:	0f 85 c9 07 00 00    	jne    6be8 <copy_internal+0x1168>
641f:	44 8b a5 ec fc ff ff 	mov    r12d,DWORD PTR [rbp-0x314]
6426:	48 8b bd f8 fc ff ff 	mov    rdi,QWORD PTR [rbp-0x308]
642d:	41 81 e4 00 f0 00 00 	and    r12d,0xf000
6434:	41 81 fc 00 40 00 00 	cmp    r12d,0x4000
643b:	0f 84 5f 10 00 00    	je     74a0 <copy_internal+0x1a20>
6441:	e8 3a c3 ff ff       	call   2780 <unlink@plt>
6446:	85 c0                	test   eax,eax
6448:	74 11                	je     645b <copy_internal+0x9db>
644a:	e8 21 c3 ff ff       	call   2770 <__errno_location@plt>
644f:	83 38 02             	cmp    DWORD PTR [rax],0x2
6452:	49 89 c6             	mov    r14,rax
6455:	0f 85 63 10 00 00    	jne    74be <copy_internal+0x1a3e>
645b:	41 81 fc 00 40 00 00 	cmp    r12d,0x4000
6462:	0f 95 c2             	setne  dl
6465:	22 53 2e             	and    dl,BYTE PTR [rbx+0x2e]
6468:	41 89 d6             	mov    r14d,edx
646b:	0f 85 3f 19 00 00    	jne    7db0 <copy_internal+0x2330>
6471:	c7 85 e0 fc ff ff 01 	mov    DWORD PTR [rbp-0x320],0x1
6478:	00 00 00
647b:	41 be 01 00 00 00    	mov    r14d,0x1
6481:	e9 aa fa ff ff       	jmp    5f30 <copy_internal+0x4b0>
6486:	66 2e 0f 1f 84 00 00 	nop    WORD PTR cs:[rax+rax*1+0x0]
648d:	00 00 00
6490:	8b 85 ec fc ff ff    	mov    eax,DWORD PTR [rbp-0x314]
6496:	25 00 f0 00 00       	and    eax,0xf000
649b:	3d 00 40 00 00       	cmp    eax,0x4000
64a0:	0f 84 3a fa ff ff    	je     5ee0 <copy_internal+0x460>
64a6:	48 8b 95 b0 fc ff ff 	mov    rdx,QWORD PTR [rbp-0x350]
64ad:	48 8b b5 f8 fc ff ff 	mov    rsi,QWORD PTR [rbp-0x308]
64b4:	48 8b bd f0 fc ff ff 	mov    rdi,QWORD PTR [rbp-0x310]
64bb:	e8 70 e9 ff ff       	call   4e30 <emit_verbose>
64c0:	e9 1b fa ff ff       	jmp    5ee0 <copy_internal+0x460>
64c5:	0f 1f 00             	nop    DWORD PTR [rax]
64c8:	48 8b b5 f0 fc ff ff 	mov    rsi,QWORD PTR [rbp-0x310]
64cf:	4c 89 d2             	mov    rdx,r10
64d2:	4c 89 95 d8 fc ff ff 	mov    QWORD PTR [rbp-0x328],r10
64d9:	e8 e2 52 00 00       	call   b7c0 <seen_file>
64de:	84 c0                	test   al,al
64e0:	41 89 c4             	mov    r12d,eax
64e3:	0f 85 bf 0e 00 00    	jne    73a8 <copy_internal+0x1928>
64e9:	48 8b 7b 48          	mov    rdi,QWORD PTR [rbx+0x48]
64ed:	4c 8b 95 d8 fc ff ff 	mov    r10,QWORD PTR [rbp-0x328]
64f4:	e9 c2 f6 ff ff       	jmp    5bbb <copy_internal+0x13b>
64f9:	0f 1f 80 00 00 00 00 	nop    DWORD PTR [rax+0x0]
6500:	44 0f b6 4b 18       	movzx  r9d,BYTE PTR [rbx+0x18]
6505:	41 b8 00 01 00 00    	mov    r8d,0x100
650b:	45 84 c9             	test   r9b,r9b
650e:	0f 85 2d f7 ff ff    	jne    5c41 <copy_internal+0x1c1>
6514:	44 0f b6 4b 2c       	movzx  r9d,BYTE PTR [rbx+0x2c]
6519:	45 84 c9             	test   r9b,r9b
651c:	0f 85 1f f7 ff ff    	jne    5c41 <copy_internal+0x1c1>
6522:	44 0f b6 4b 17       	movzx  r9d,BYTE PTR [rbx+0x17]
6527:	45 84 c9             	test   r9b,r9b
652a:	0f 85 11 f7 ff ff    	jne    5c41 <copy_internal+0x1c1>
6530:	44 8b 13             	mov    r10d,DWORD PTR [rbx]
6533:	41 b9 01 00 00 00    	mov    r9d,0x1
6539:	45 85 d2             	test   r10d,r10d
653c:	0f 85 ff f6 ff ff    	jne    5c41 <copy_internal+0x1c1>
6542:	44 0f b6 4b 15       	movzx  r9d,BYTE PTR [rbx+0x15]
6547:	45 31 c0             	xor    r8d,r8d
654a:	45 84 c9             	test   r9b,r9b
654d:	41 0f 95 c0          	setne  r8b
6551:	41 c1 e0 08          	shl    r8d,0x8
6555:	e9 e7 f6 ff ff       	jmp    5c41 <copy_internal+0x1c1>
655a:	66 0f 1f 44 00 00    	nop    WORD PTR [rax+rax*1+0x0]
6560:	83 7b 08 02          	cmp    DWORD PTR [rbx+0x8],0x2
6564:	0f 85 97 f6 ff ff    	jne    5c01 <copy_internal+0x181>
656a:	45 31 c0             	xor    r8d,r8d
656d:	45 31 c9             	xor    r9d,r9d
6570:	e9 2a f7 ff ff       	jmp    5c9f <copy_internal+0x21f>
6575:	0f 1f 00             	nop    DWORD PTR [rax]
6578:	8b 8d e0 fc ff ff    	mov    ecx,DWORD PTR [rbp-0x320]
657e:	8b 95 ec fc ff ff    	mov    edx,DWORD PTR [rbp-0x314]
6584:	49 89 d8             	mov    r8,rbx
6587:	48 8b b5 f8 fc ff ff 	mov    rsi,QWORD PTR [rbp-0x308]
658e:	48 8b bd f0 fc ff ff 	mov    rdi,QWORD PTR [rbp-0x310]
6595:	e8 86 f0 ff ff       	call   5620 <set_process_security_ctx>
659a:	84 c0                	test   al,al
659c:	0f 84 ee f7 ff ff    	je     5d90 <copy_internal+0x310>
65a2:	44 8b bd ec fc ff ff 	mov    r15d,DWORD PTR [rbp-0x314]
65a9:	44 89 e0             	mov    eax,r12d
65ac:	83 e0 3f             	and    eax,0x3f
65af:	89 85 a4 fc ff ff    	mov    DWORD PTR [rbp-0x35c],eax
65b5:	41 81 e7 00 f0 00 00 	and    r15d,0xf000
65bc:	41 81 ff 00 40 00 00 	cmp    r15d,0x4000
65c3:	0f 85 df f9 ff ff    	jne    5fa8 <copy_internal+0x528>
65c9:	48 8b 85 d0 fc ff ff 	mov    rax,QWORD PTR [rbp-0x330]
65d0:	48 8b 95 88 fd ff ff 	mov    rdx,QWORD PTR [rbp-0x278]
65d7:	48 8b 8d 80 fd ff ff 	mov    rcx,QWORD PTR [rbp-0x280]
65de:	48 85 c0             	test   rax,rax
65e1:	75 19                	jne    65fc <copy_internal+0xb7c>
65e3:	e9 f8 08 00 00       	jmp    6ee0 <copy_internal+0x1460>
65e8:	0f 1f 84 00 00 00 00 	nop    DWORD PTR [rax+rax*1+0x0]
65ef:	00
65f0:	48 8b 00             	mov    rax,QWORD PTR [rax]
65f3:	48 85 c0             	test   rax,rax
65f6:	0f 84 e4 08 00 00    	je     6ee0 <copy_internal+0x1460>
65fc:	48 39 50 08          	cmp    QWORD PTR [rax+0x8],rdx
6600:	75 ee                	jne    65f0 <copy_internal+0xb70>
6602:	48 39 48 10          	cmp    QWORD PTR [rax+0x10],rcx
6606:	75 e8                	jne    65f0 <copy_internal+0xb70>
6608:	48 8b b5 f0 fc ff ff 	mov    rsi,QWORD PTR [rbp-0x310]
660f:	bf 04 00 00 00       	mov    edi,0x4
6614:	e8 97 84 00 00       	call   eab0 <quotearg_style>
6619:	48 8d 35 d8 e5 00 00 	lea    rsi,[rip+0xe5d8]        # 14bf8 <sparse_type+0x1b78>
6620:	49 89 c4             	mov    r12,rax
6623:	ba 05 00 00 00       	mov    edx,0x5
6628:	31 ff                	xor    edi,edi
662a:	e8 b1 c2 ff ff       	call   28e0 <dcgettext@plt>
662f:	4c 89 e1             	mov    rcx,r12
6632:	48 89 c2             	mov    rdx,rax
6635:	31 f6                	xor    esi,esi
6637:	31 ff                	xor    edi,edi
6639:	31 c0                	xor    eax,eax
663b:	e8 70 c6 ff ff       	call   2cb0 <error@plt>
6640:	e9 cb 03 00 00       	jmp    6a10 <copy_internal+0xf90>
6645:	0f 1f 00             	nop    DWORD PTR [rax]
6648:	44 0f b6 63 2a       	movzx  r12d,BYTE PTR [rbx+0x2a]
664d:	45 84 e4             	test   r12b,r12b
6650:	0f 85 32 f5 ff ff    	jne    5b88 <copy_internal+0x108>
6656:	48 8b b5 f0 fc ff ff 	mov    rsi,QWORD PTR [rbp-0x310]
665d:	bf 04 00 00 00       	mov    edi,0x4
6662:	e8 49 84 00 00       	call   eab0 <quotearg_style>
6667:	80 7b 19 00          	cmp    BYTE PTR [rbx+0x19],0x0
666b:	49 89 c5             	mov    r13,rax
666e:	ba 05 00 00 00       	mov    edx,0x5
6673:	0f 85 97 0d 00 00    	jne    7410 <copy_internal+0x1990>
6679:	48 8d 35 e8 e1 00 00 	lea    rsi,[rip+0xe1e8]        # 14868 <sparse_type+0x17e8>
6680:	31 ff                	xor    edi,edi
6682:	e8 59 c2 ff ff       	call   28e0 <dcgettext@plt>
6687:	48 89 c2             	mov    rdx,rax
668a:	4c 89 e9             	mov    rcx,r13
668d:	31 f6                	xor    esi,esi
668f:	31 ff                	xor    edi,edi
6691:	31 c0                	xor    eax,eax
6693:	e8 18 c6 ff ff       	call   2cb0 <error@plt>
6698:	e9 29 fc ff ff       	jmp    62c6 <copy_internal+0x846>
669d:	0f 1f 00             	nop    DWORD PTR [rax]
66a0:	80 7b 18 00          	cmp    BYTE PTR [rbx+0x18],0x0
66a4:	0f 85 d6 05 00 00    	jne    6c80 <copy_internal+0x1200>
66aa:	8b 85 ec fc ff ff    	mov    eax,DWORD PTR [rbp-0x314]
66b0:	25 00 f0 00 00       	and    eax,0xf000
66b5:	3d 00 40 00 00       	cmp    eax,0x4000
66ba:	74 54                	je     6710 <copy_internal+0xc90>
66bc:	8b 43 08             	mov    eax,DWORD PTR [rbx+0x8]
66bf:	83 f8 02             	cmp    eax,0x2
66c2:	0f 84 f8 fb ff ff    	je     62c0 <copy_internal+0x840>
66c8:	83 f8 03             	cmp    eax,0x3
66cb:	75 43                	jne    6710 <copy_internal+0xc90>
66cd:	48 8b b5 f8 fc ff ff 	mov    rsi,QWORD PTR [rbp-0x308]
66d4:	48 8d 95 28 fe ff ff 	lea    rdx,[rbp-0x1d8]
66db:	48 89 df             	mov    rdi,rbx
66de:	44 88 8d a8 fc ff ff 	mov    BYTE PTR [rbp-0x358],r9b
66e5:	44 88 85 b0 fc ff ff 	mov    BYTE PTR [rbp-0x350],r8b
66ec:	e8 0f e9 ff ff       	call   5000 <overwrite_ok.isra.12>
66f1:	84 c0                	test   al,al
66f3:	44 0f b6 85 b0 fc ff 	movzx  r8d,BYTE PTR [rbp-0x350]
66fa:	ff
66fb:	44 0f b6 8d a8 fc ff 	movzx  r9d,BYTE PTR [rbp-0x358]
6702:	ff
6703:	0f 84 b7 fb ff ff    	je     62c0 <copy_internal+0x840>
6709:	0f 1f 80 00 00 00 00 	nop    DWORD PTR [rax+0x0]
6710:	45 84 f6             	test   r14b,r14b
6713:	0f 85 a7 fb ff ff    	jne    62c0 <copy_internal+0x840>
6719:	8b 85 28 fe ff ff    	mov    eax,DWORD PTR [rbp-0x1d8]
671f:	44 8b a5 ec fc ff ff 	mov    r12d,DWORD PTR [rbp-0x314]
6726:	89 c2                	mov    edx,eax
6728:	41 81 e4 00 f0 00 00 	and    r12d,0xf000
672f:	81 e2 00 f0 00 00    	and    edx,0xf000
6735:	81 fa 00 40 00 00    	cmp    edx,0x4000
673b:	0f 84 0f 06 00 00    	je     6d50 <copy_internal+0x12d0>
6741:	41 81 fc 00 40 00 00 	cmp    r12d,0x4000
6748:	0f 84 9a 12 00 00    	je     79e8 <copy_internal+0x1f68>
674e:	45 84 ed             	test   r13b,r13b
6751:	44 8b 3b             	mov    r15d,DWORD PTR [rbx]
6754:	0f 84 19 0b 00 00    	je     7273 <copy_internal+0x17f3>
675a:	41 83 ff 03          	cmp    r15d,0x3
675e:	0f 85 ac 0a 00 00    	jne    7210 <copy_internal+0x1790>
6764:	80 7b 18 00          	cmp    BYTE PTR [rbx+0x18],0x0
6768:	0f 85 99 12 00 00    	jne    7a07 <copy_internal+0x1f87>
676e:	48 8b bd f0 fc ff ff 	mov    rdi,QWORD PTR [rbp-0x310]
6775:	44 88 8d a8 fc ff ff 	mov    BYTE PTR [rbp-0x358],r9b
677c:	44 88 85 b0 fc ff ff 	mov    BYTE PTR [rbp-0x350],r8b
6783:	e8 08 4e 00 00       	call   b590 <last_component>
6788:	80 38 2e             	cmp    BYTE PTR [rax],0x2e
678b:	49 89 c6             	mov    r14,rax
678e:	44 0f b6 85 b0 fc ff 	movzx  r8d,BYTE PTR [rbp-0x350]
6795:	ff
6796:	44 0f b6 8d a8 fc ff 	movzx  r9d,BYTE PTR [rbp-0x358]
679d:	ff
679e:	75 27                	jne    67c7 <copy_internal+0xd47>
67a0:	31 c0                	xor    eax,eax
67a2:	31 d2                	xor    edx,edx
67a4:	41 80 7e 01 2e       	cmp    BYTE PTR [r14+0x1],0x2e
67a9:	0f 94 c2             	sete   dl
67ac:	41 0f b6 54 16 01    	movzx  edx,BYTE PTR [r14+rdx*1+0x1]
67b2:	84 d2                	test   dl,dl
67b4:	0f 84 ce 0a 00 00    	je     7288 <copy_internal+0x1808>
67ba:	80 fa 2f             	cmp    dl,0x2f
67bd:	0f 84 c5 0a 00 00    	je     7288 <copy_internal+0x1808>
67c3:	84 c0                	test   al,al
67c5:	75 16                	jne    67dd <copy_internal+0xd5d>
67c7:	8b 85 28 fe ff ff    	mov    eax,DWORD PTR [rbp-0x1d8]
67cd:	25 00 f0 00 00       	and    eax,0xf000
67d2:	3d 00 40 00 00       	cmp    eax,0x4000
67d7:	0f 84 ca 0a 00 00    	je     72a7 <copy_internal+0x1827>
67dd:	41 83 ff 03          	cmp    r15d,0x3
67e1:	74 66                	je     6849 <copy_internal+0xdc9>
67e3:	4c 89 f7             	mov    rdi,r14
67e6:	44 88 8d a4 fc ff ff 	mov    BYTE PTR [rbp-0x35c],r9b
67ed:	e8 0e c1 ff ff       	call   2900 <strlen@plt>
67f2:	48 8b bd f8 fc ff ff 	mov    rdi,QWORD PTR [rbp-0x308]
67f9:	48 89 85 b0 fc ff ff 	mov    QWORD PTR [rbp-0x350],rax
6800:	e8 8b 4d 00 00       	call   b590 <last_component>
6805:	48 89 c7             	mov    rdi,rax
6808:	48 89 85 a8 fc ff ff 	mov    QWORD PTR [rbp-0x358],rax
680f:	e8 ec c0 ff ff       	call   2900 <strlen@plt>
6814:	4c 8b 3d 65 3d 21 00 	mov    r15,QWORD PTR [rip+0x213d65]        # 21a580 <simple_backup_suffix>
681b:	49 89 c4             	mov    r12,rax
681e:	4c 89 ff             	mov    rdi,r15
6821:	e8 da c0 ff ff       	call   2900 <strlen@plt>
6826:	49 89 c0             	mov    r8,rax
6829:	49 8d 04 04          	lea    rax,[r12+rax*1]
682d:	48 39 85 b0 fc ff ff 	cmp    QWORD PTR [rbp-0x350],rax
6834:	48 8b b5 a8 fc ff ff 	mov    rsi,QWORD PTR [rbp-0x358]
683b:	44 0f b6 8d a4 fc ff 	movzx  r9d,BYTE PTR [rbp-0x35c]
6842:	ff
6843:	0f 84 55 1a 00 00    	je     829e <copy_internal+0x281e>
6849:	8b 13                	mov    edx,DWORD PTR [rbx]
684b:	48 8b b5 f8 fc ff ff 	mov    rsi,QWORD PTR [rbp-0x308]
6852:	bf 9c ff ff ff       	mov    edi,0xffffff9c
6857:	44 88 8d b0 fc ff ff 	mov    BYTE PTR [rbp-0x350],r9b
685e:	e8 0d 49 00 00       	call   b170 <backup_file_rename>
6863:	48 85 c0             	test   rax,rax
6866:	49 89 c4             	mov    r12,rax
6869:	44 0f b6 8d b0 fc ff 	movzx  r9d,BYTE PTR [rbp-0x350]
6870:	ff
6871:	0f 84 1a 19 00 00    	je     8191 <copy_internal+0x2711>
6877:	48 89 c7             	mov    rdi,rax
687a:	44 88 8d a8 fc ff ff 	mov    BYTE PTR [rbp-0x358],r9b
6881:	41 be 01 00 00 00    	mov    r14d,0x1
6887:	e8 74 c0 ff ff       	call   2900 <strlen@plt>
688c:	48 8d 50 01          	lea    rdx,[rax+0x1]
6890:	48 83 c0 1f          	add    rax,0x1f
6894:	4c 89 e6             	mov    rsi,r12
6897:	48 83 e0 f0          	and    rax,0xfffffffffffffff0
689b:	41 bf 11 00 00 00    	mov    r15d,0x11
68a1:	48 29 c4             	sub    rsp,rax
68a4:	48 8d 7c 24 0f       	lea    rdi,[rsp+0xf]
68a9:	48 83 e7 f0          	and    rdi,0xfffffffffffffff0
68ad:	e8 ae c2 ff ff       	call   2b60 <memcpy@plt>
68b2:	4c 89 e7             	mov    rdi,r12
68b5:	48 89 85 b0 fc ff ff 	mov    QWORD PTR [rbp-0x350],rax
68bc:	e8 4f c5 ff ff       	call   2e10 <free@plt>
68c1:	44 0f b6 8d a8 fc ff 	movzx  r9d,BYTE PTR [rbp-0x358]
68c8:	ff
68c9:	e9 40 f5 ff ff       	jmp    5e0e <copy_internal+0x38e>
68ce:	66 90                	xchg   ax,ax
68d0:	80 7b 16 00          	cmp    BYTE PTR [rbx+0x16],0x0
68d4:	0f 85 86 03 00 00    	jne    6c60 <copy_internal+0x11e0>
68da:	48 8b b5 f8 fc ff ff 	mov    rsi,QWORD PTR [rbp-0x308]
68e1:	bf 04 00 00 00       	mov    edi,0x4
68e6:	4c 89 8d f0 fc ff ff 	mov    QWORD PTR [rbp-0x310],r9
68ed:	45 31 e4             	xor    r12d,r12d
68f0:	e8 bb 81 00 00       	call   eab0 <quotearg_style>
68f5:	48 8d 35 1b e5 00 00 	lea    rsi,[rip+0xe51b]        # 14e17 <sparse_type+0x1d97>
68fc:	ba 05 00 00 00       	mov    edx,0x5
6901:	31 ff                	xor    edi,edi
6903:	48 89 c3             	mov    rbx,rax
6906:	e8 d5 bf ff ff       	call   28e0 <dcgettext@plt>
690b:	4c 8b 8d f0 fc ff ff 	mov    r9,QWORD PTR [rbp-0x310]
6912:	48 89 c2             	mov    rdx,rax
6915:	48 89 d9             	mov    rcx,rbx
6918:	31 ff                	xor    edi,edi
691a:	31 c0                	xor    eax,eax
691c:	41 8b 31             	mov    esi,DWORD PTR [r9]
691f:	e8 8c c3 ff ff       	call   2cb0 <error@plt>
6924:	e9 9d f9 ff ff       	jmp    62c6 <copy_internal+0x846>
6929:	0f 1f 80 00 00 00 00 	nop    DWORD PTR [rax+0x0]
6930:	e8 3b be ff ff       	call   2770 <__errno_location@plt>
6935:	44 8b 38             	mov    r15d,DWORD PTR [rax]
6938:	e9 ce f1 ff ff       	jmp    5b0b <copy_internal+0x8b>
693d:	0f 1f 00             	nop    DWORD PTR [rax]
6940:	48 8b 85 f0 fc ff ff 	mov    rax,QWORD PTR [rbp-0x310]
6947:	80 38 2f             	cmp    BYTE PTR [rax],0x2f
694a:	74 38                	je     6984 <copy_internal+0xf04>
694c:	48 8b bd f8 fc ff ff 	mov    rdi,QWORD PTR [rbp-0x308]
6953:	e8 58 4b 00 00       	call   b4b0 <dir_name>
6958:	4c 8d 05 da c0 00 00 	lea    r8,[rip+0xc0da]        # 12a39 <_IO_stdin_used+0x159>
695f:	48 89 c7             	mov    rdi,rax
6962:	b9 02 00 00 00       	mov    ecx,0x2
6967:	49 89 c4             	mov    r12,rax
696a:	4c 89 c6             	mov    rsi,r8
696d:	f3 a6                	repz cmps BYTE PTR ds:[rsi],BYTE PTR es:[rdi]
696f:	0f 97 c0             	seta   al
6972:	1c 00                	sbb    al,0x0
6974:	84 c0                	test   al,al
6976:	0f 85 dc 12 00 00    	jne    7c58 <copy_internal+0x21d8>
697c:	4c 89 e7             	mov    rdi,r12
697f:	e8 8c c4 ff ff       	call   2e10 <free@plt>
6984:	0f b6 4b 16          	movzx  ecx,BYTE PTR [rbx+0x16]
6988:	48 8b 95 f8 fc ff ff 	mov    rdx,QWORD PTR [rbp-0x308]
698f:	41 b8 ff ff ff ff    	mov    r8d,0xffffffff
6995:	48 8b bd f0 fc ff ff 	mov    rdi,QWORD PTR [rbp-0x310]
699c:	be 9c ff ff ff       	mov    esi,0xffffff9c
69a1:	e8 9a 3a 00 00       	call   a440 <force_symlinkat>
69a6:	45 31 c0             	xor    r8d,r8d
69a9:	85 c0                	test   eax,eax
69ab:	41 89 c4             	mov    r12d,eax
69ae:	0f 8e 4b f6 ff ff    	jle    5fff <copy_internal+0x57f>
69b4:	48 8b 95 f0 fc ff ff 	mov    rdx,QWORD PTR [rbp-0x310]
69bb:	be 04 00 00 00       	mov    esi,0x4
69c0:	bf 01 00 00 00       	mov    edi,0x1
69c5:	e8 c6 7f 00 00       	call   e990 <quotearg_n_style>
69ca:	48 8b 95 f8 fc ff ff 	mov    rdx,QWORD PTR [rbp-0x308]
69d1:	be 04 00 00 00       	mov    esi,0x4
69d6:	31 ff                	xor    edi,edi
69d8:	49 89 c5             	mov    r13,rax
69db:	e8 b0 7f 00 00       	call   e990 <quotearg_n_style>
69e0:	48 8d 35 69 e1 00 00 	lea    rsi,[rip+0xe169]        # 14b50 <sparse_type+0x1ad0>
69e7:	49 89 c6             	mov    r14,rax
69ea:	ba 05 00 00 00       	mov    edx,0x5
69ef:	31 ff                	xor    edi,edi
69f1:	e8 ea be ff ff       	call   28e0 <dcgettext@plt>
69f6:	4d 89 e8             	mov    r8,r13
69f9:	48 89 c2             	mov    rdx,rax
69fc:	4c 89 f1             	mov    rcx,r14
69ff:	44 89 e6             	mov    esi,r12d
6a02:	31 ff                	xor    edi,edi
6a04:	31 c0                	xor    eax,eax
6a06:	e8 a5 c2 ff ff       	call   2cb0 <error@plt>
6a0b:	0f 1f 44 00 00       	nop    DWORD PTR [rax+rax*1+0x0]
6a10:	80 7b 25 00          	cmp    BYTE PTR [rbx+0x25],0x0
6a14:	0f 85 76 01 00 00    	jne    6b90 <copy_internal+0x1110>
6a1a:	48 83 bd a8 fc ff ff 	cmp    QWORD PTR [rbp-0x358],0x0
6a21:	00
6a22:	0f 84 98 08 00 00    	je     72c0 <copy_internal+0x1840>
6a28:	48 8b 85 b0 fc ff ff 	mov    rax,QWORD PTR [rbp-0x350]
6a2f:	48 85 c0             	test   rax,rax
6a32:	0f 84 58 f3 ff ff    	je     5d90 <copy_internal+0x310>
6a38:	48 8b b5 f8 fc ff ff 	mov    rsi,QWORD PTR [rbp-0x308]
6a3f:	48 89 c7             	mov    rdi,rax
6a42:	e8 c9 c2 ff ff       	call   2d10 <rename@plt>
6a47:	85 c0                	test   eax,eax
6a49:	0f 85 91 08 00 00    	jne    72e0 <copy_internal+0x1860>
6a4f:	80 7b 2e 00          	cmp    BYTE PTR [rbx+0x2e],0x0
6a53:	0f 84 37 f3 ff ff    	je     5d90 <copy_internal+0x310>
6a59:	48 8b 95 f8 fc ff ff 	mov    rdx,QWORD PTR [rbp-0x308]
6a60:	be 04 00 00 00       	mov    esi,0x4
6a65:	bf 01 00 00 00       	mov    edi,0x1
6a6a:	e8 21 7f 00 00       	call   e990 <quotearg_n_style>
6a6f:	48 8b 95 b0 fc ff ff 	mov    rdx,QWORD PTR [rbp-0x350]
6a76:	31 ff                	xor    edi,edi
6a78:	be 04 00 00 00       	mov    esi,0x4
6a7d:	49 89 c4             	mov    r12,rax
6a80:	e8 0b 7f 00 00       	call   e990 <quotearg_n_style>
6a85:	48 8d 35 a6 e5 00 00 	lea    rsi,[rip+0xe5a6]        # 15032 <sparse_type+0x1fb2>
6a8c:	48 89 c3             	mov    rbx,rax
6a8f:	31 ff                	xor    edi,edi
6a91:	ba 05 00 00 00       	mov    edx,0x5
6a96:	e8 45 be ff ff       	call   28e0 <dcgettext@plt>
6a9b:	4c 89 e1             	mov    rcx,r12
6a9e:	48 89 c6             	mov    rsi,rax
6aa1:	48 89 da             	mov    rdx,rbx
6aa4:	bf 01 00 00 00       	mov    edi,0x1
6aa9:	31 c0                	xor    eax,eax
6aab:	e8 b0 c1 ff ff       	call   2c60 <__printf_chk@plt>
6ab0:	e9 db f2 ff ff       	jmp    5d90 <copy_internal+0x310>
6ab5:	0f 1f 00             	nop    DWORD PTR [rax]
6ab8:	80 7b 2e 00          	cmp    BYTE PTR [rbx+0x2e],0x0
6abc:	0f 85 ce f9 ff ff    	jne    6490 <copy_internal+0xa10>
6ac2:	45 85 ff             	test   r15d,r15d
6ac5:	0f 84 50 f4 ff ff    	je     5f1b <copy_internal+0x49b>
6acb:	e9 19 f4 ff ff       	jmp    5ee9 <copy_internal+0x469>
6ad0:	45 84 ed             	test   r13b,r13b
6ad3:	48 8b 95 80 fd ff ff 	mov    rdx,QWORD PTR [rbp-0x280]
6ada:	48 8b bd 88 fd ff ff 	mov    rdi,QWORD PTR [rbp-0x278]
6ae1:	0f 84 a9 08 00 00    	je     7390 <copy_internal+0x1910>
6ae7:	48 89 fe             	mov    rsi,rdi
6aea:	48 8b bd f8 fc ff ff 	mov    rdi,QWORD PTR [rbp-0x308]
6af1:	e8 2a 33 00 00       	call   9e20 <remember_copied>
6af6:	48 89 85 a8 fc ff ff 	mov    QWORD PTR [rbp-0x358],rax
6afd:	48 83 bd a8 fc ff ff 	cmp    QWORD PTR [rbp-0x358],0x0
6b04:	00
6b05:	0f 84 f5 04 00 00    	je     7000 <copy_internal+0x1580>
6b0b:	48 8b b5 a8 fc ff ff 	mov    rsi,QWORD PTR [rbp-0x358]
6b12:	48 8b bd f0 fc ff ff 	mov    rdi,QWORD PTR [rbp-0x310]
6b19:	e8 22 87 00 00       	call   f240 <same_name>
6b1e:	84 c0                	test   al,al
6b20:	0f 84 3a 0f 00 00    	je     7a60 <copy_internal+0x1fe0>
6b26:	48 8b 15 3b 3a 21 00 	mov    rdx,QWORD PTR [rip+0x213a3b]        # 21a568 <top_level_dst_name>
6b2d:	be 04 00 00 00       	mov    esi,0x4
6b32:	bf 01 00 00 00       	mov    edi,0x1
6b37:	e8 54 7e 00 00       	call   e990 <quotearg_n_style>
6b3c:	48 8b 15 2d 3a 21 00 	mov    rdx,QWORD PTR [rip+0x213a2d]        # 21a570 <top_level_src_name>
6b43:	be 04 00 00 00       	mov    esi,0x4
6b48:	31 ff                	xor    edi,edi
6b4a:	49 89 c5             	mov    r13,rax
6b4d:	e8 3e 7e 00 00       	call   e990 <quotearg_n_style>
6b52:	48 8d 35 ef de 00 00 	lea    rsi,[rip+0xdeef]        # 14a48 <sparse_type+0x19c8>
6b59:	49 89 c4             	mov    r12,rax
6b5c:	ba 05 00 00 00       	mov    edx,0x5
6b61:	31 ff                	xor    edi,edi
6b63:	e8 78 bd ff ff       	call   28e0 <dcgettext@plt>
6b68:	4d 89 e8             	mov    r8,r13
6b6b:	48 89 c2             	mov    rdx,rax
6b6e:	4c 89 e1             	mov    rcx,r12
6b71:	31 c0                	xor    eax,eax
6b73:	31 f6                	xor    esi,esi
6b75:	31 ff                	xor    edi,edi
6b77:	e8 34 c1 ff ff       	call   2cb0 <error@plt>
6b7c:	48 8b 85 c0 fc ff ff 	mov    rax,QWORD PTR [rbp-0x340]
6b83:	c6 00 01             	mov    BYTE PTR [rax],0x1
6b86:	80 7b 25 00          	cmp    BYTE PTR [rbx+0x25],0x0
6b8a:	0f 84 98 fe ff ff    	je     6a28 <copy_internal+0xfa8>
6b90:	e8 a1 c2 ff ff       	call   2e36 <restore_default_fscreatecon_or_die>
6b95:	0f 1f 00             	nop    DWORD PTR [rax]
6b98:	48 83 bd 90 fd ff ff 	cmp    QWORD PTR [rbp-0x270],0x1
6b9f:	01
6ba0:	0f 87 e2 03 00 00    	ja     6f88 <copy_internal+0x1508>
6ba6:	45 84 ed             	test   r13b,r13b
6ba9:	8b 53 04             	mov    edx,DWORD PTR [rbx+0x4]
6bac:	74 09                	je     6bb7 <copy_internal+0x1137>
6bae:	83 fa 03             	cmp    edx,0x3
6bb1:	0f 84 d1 03 00 00    	je     6f88 <copy_internal+0x1508>
6bb7:	83 fa 04             	cmp    edx,0x4
6bba:	48 c7 85 a8 fc ff ff 	mov    QWORD PTR [rbp-0x358],0x0
6bc1:	00 00 00 00
6bc5:	0f 84 bd 03 00 00    	je     6f88 <copy_internal+0x1508>
6bcb:	84 c0                	test   al,al
6bcd:	0f 85 06 f8 ff ff    	jne    63d9 <copy_internal+0x959>
6bd3:	41 0f b6 c6          	movzx  eax,r14b
6bd7:	89 85 e0 fc ff ff    	mov    DWORD PTR [rbp-0x320],eax
6bdd:	e9 4e f3 ff ff       	jmp    5f30 <copy_internal+0x4b0>
6be2:	66 0f 1f 44 00 00    	nop    WORD PTR [rax+rax*1+0x0]
6be8:	48 8b 95 f8 fc ff ff 	mov    rdx,QWORD PTR [rbp-0x308]
6bef:	be 04 00 00 00       	mov    esi,0x4
6bf4:	bf 01 00 00 00       	mov    edi,0x1
6bf9:	e8 92 7d 00 00       	call   e990 <quotearg_n_style>
6bfe:	48 8b 95 f0 fc ff ff 	mov    rdx,QWORD PTR [rbp-0x310]
6c05:	be 04 00 00 00       	mov    esi,0x4
6c0a:	31 ff                	xor    edi,edi
6c0c:	49 89 c4             	mov    r12,rax
6c0f:	e8 7c 7d 00 00       	call   e990 <quotearg_n_style>
6c14:	48 8d 35 68 e2 00 00 	lea    rsi,[rip+0xe268]        # 14e83 <sparse_type+0x1e03>
6c1b:	48 89 c3             	mov    rbx,rax
6c1e:	ba 05 00 00 00       	mov    edx,0x5
6c23:	31 ff                	xor    edi,edi
6c25:	e8 b6 bc ff ff       	call   28e0 <dcgettext@plt>
6c2a:	4d 89 e0             	mov    r8,r12
6c2d:	48 89 d9             	mov    rcx,rbx
6c30:	48 89 c2             	mov    rdx,rax
6c33:	44 89 fe             	mov    esi,r15d
6c36:	31 ff                	xor    edi,edi
6c38:	31 c0                	xor    eax,eax
6c3a:	e8 71 c0 ff ff       	call   2cb0 <error@plt>
6c3f:	48 8b b5 80 fd ff ff 	mov    rsi,QWORD PTR [rbp-0x280]
6c46:	48 8b bd 88 fd ff ff 	mov    rdi,QWORD PTR [rbp-0x278]
6c4d:	e8 fe 30 00 00       	call   9d50 <forget_created>
6c52:	e9 39 f1 ff ff       	jmp    5d90 <copy_internal+0x310>
6c57:	66 0f 1f 84 00 00 00 	nop    WORD PTR [rax+rax*1+0x0]
6c5e:	00 00
6c60:	45 31 c0             	xor    r8d,r8d
6c63:	e9 aa f6 ff ff       	jmp    6312 <copy_internal+0x892>
6c68:	0f 1f 84 00 00 00 00 	nop    DWORD PTR [rax+rax*1+0x0]
6c6f:	00
6c70:	80 7b 18 00          	cmp    BYTE PTR [rbx+0x18],0x0
6c74:	0f 84 42 fa ff ff    	je     66bc <copy_internal+0xc3c>
6c7a:	66 0f 1f 44 00 00    	nop    WORD PTR [rax+rax*1+0x0]
6c80:	8b 43 08             	mov    eax,DWORD PTR [rbx+0x8]
6c83:	83 f8 02             	cmp    eax,0x2
6c86:	74 7c                	je     6d04 <copy_internal+0x1284>
6c88:	83 f8 03             	cmp    eax,0x3
6c8b:	74 4b                	je     6cd8 <copy_internal+0x1258>
6c8d:	83 f8 04             	cmp    eax,0x4
6c90:	0f 85 7a fa ff ff    	jne    6710 <copy_internal+0xc90>
6c96:	80 7b 2f 00          	cmp    BYTE PTR [rbx+0x2f],0x0
6c9a:	0f 84 70 fa ff ff    	je     6710 <copy_internal+0xc90>
6ca0:	8b b5 28 fe ff ff    	mov    esi,DWORD PTR [rbp-0x1d8]
6ca6:	48 8b bd f8 fc ff ff 	mov    rdi,QWORD PTR [rbp-0x308]
6cad:	44 88 8d a8 fc ff ff 	mov    BYTE PTR [rbp-0x358],r9b
6cb4:	44 88 85 b0 fc ff ff 	mov    BYTE PTR [rbp-0x350],r8b
6cbb:	e8 30 e0 ff ff       	call   4cf0 <writable_destination>
6cc0:	84 c0                	test   al,al
6cc2:	44 0f b6 85 b0 fc ff 	movzx  r8d,BYTE PTR [rbp-0x350]
6cc9:	ff
6cca:	44 0f b6 8d a8 fc ff 	movzx  r9d,BYTE PTR [rbp-0x358]
6cd1:	ff
6cd2:	0f 85 38 fa ff ff    	jne    6710 <copy_internal+0xc90>
6cd8:	48 8b b5 f8 fc ff ff 	mov    rsi,QWORD PTR [rbp-0x308]
6cdf:	48 8d 95 28 fe ff ff 	lea    rdx,[rbp-0x1d8]
6ce6:	48 89 df             	mov    rdi,rbx
6ce9:	44 88 8d a8 fc ff ff 	mov    BYTE PTR [rbp-0x358],r9b
6cf0:	44 88 85 b0 fc ff ff 	mov    BYTE PTR [rbp-0x350],r8b
6cf7:	e8 04 e3 ff ff       	call   5000 <overwrite_ok.isra.12>
6cfc:	84 c0                	test   al,al
6cfe:	0f 85 0c 14 00 00    	jne    8110 <copy_internal+0x2690>
6d04:	48 83 bd e0 fc ff ff 	cmp    QWORD PTR [rbp-0x320],0x0
6d0b:	00
6d0c:	0f 84 ae f5 ff ff    	je     62c0 <copy_internal+0x840>
6d12:	48 8b 85 e0 fc ff ff 	mov    rax,QWORD PTR [rbp-0x320]
6d19:	c6 00 01             	mov    BYTE PTR [rax],0x1
6d1c:	e9 9f f5 ff ff       	jmp    62c0 <copy_internal+0x840>
6d21:	0f 1f 80 00 00 00 00 	nop    DWORD PTR [rax+0x0]
6d28:	48 8b 7b 40          	mov    rdi,QWORD PTR [rbx+0x40]
6d2c:	48 8b b5 f8 fc ff ff 	mov    rsi,QWORD PTR [rbp-0x308]
6d33:	48 8d 95 80 fd ff ff 	lea    rdx,[rbp-0x280]
6d3a:	45 89 ec             	mov    r12d,r13d
6d3d:	e8 ee 49 00 00       	call   b730 <record_file>
6d42:	e9 7f f5 ff ff       	jmp    62c6 <copy_internal+0x846>
6d47:	66 0f 1f 84 00 00 00 	nop    WORD PTR [rax+rax*1+0x0]
6d4e:	00 00
6d50:	41 81 fc 00 40 00 00 	cmp    r12d,0x4000
6d57:	0f 84 13 05 00 00    	je     7270 <copy_internal+0x17f0>
6d5d:	80 7b 18 00          	cmp    BYTE PTR [rbx+0x18],0x0
6d61:	74 0c                	je     6d6f <copy_internal+0x12ef>
6d63:	44 8b 3b             	mov    r15d,DWORD PTR [rbx]
6d66:	45 85 ff             	test   r15d,r15d
6d69:	0f 85 98 0c 00 00    	jne    7a07 <copy_internal+0x1f87>
6d6f:	48 8b b5 f8 fc ff ff 	mov    rsi,QWORD PTR [rbp-0x308]
6d76:	bf 04 00 00 00       	mov    edi,0x4
6d7b:	45 31 e4             	xor    r12d,r12d
6d7e:	e8 2d 7d 00 00       	call   eab0 <quotearg_style>
6d83:	48 8d 35 a6 db 00 00 	lea    rsi,[rip+0xdba6]        # 14930 <sparse_type+0x18b0>
6d8a:	48 89 c3             	mov    rbx,rax
6d8d:	ba 05 00 00 00       	mov    edx,0x5
6d92:	31 ff                	xor    edi,edi
6d94:	e8 47 bb ff ff       	call   28e0 <dcgettext@plt>
6d99:	48 89 d9             	mov    rcx,rbx
6d9c:	48 89 c2             	mov    rdx,rax
6d9f:	31 f6                	xor    esi,esi
6da1:	31 ff                	xor    edi,edi
6da3:	31 c0                	xor    eax,eax
6da5:	e8 06 bf ff ff       	call   2cb0 <error@plt>
6daa:	e9 17 f5 ff ff       	jmp    62c6 <copy_internal+0x846>
6daf:	90                   	nop
6db0:	8b 8d e0 fc ff ff    	mov    ecx,DWORD PTR [rbp-0x320]
6db6:	8b 95 ec fc ff ff    	mov    edx,DWORD PTR [rbp-0x314]
6dbc:	49 89 d8             	mov    r8,rbx
6dbf:	48 8b b5 f8 fc ff ff 	mov    rsi,QWORD PTR [rbp-0x308]
6dc6:	48 8b bd f0 fc ff ff 	mov    rdi,QWORD PTR [rbp-0x310]
6dcd:	e8 4e e8 ff ff       	call   5620 <set_process_security_ctx>
6dd2:	84 c0                	test   al,al
6dd4:	0f 84 b6 ef ff ff    	je     5d90 <copy_internal+0x310>
6dda:	44 89 e0             	mov    eax,r12d
6ddd:	83 e0 12             	and    eax,0x12
6de0:	89 85 a4 fc ff ff    	mov    DWORD PTR [rbp-0x35c],eax
6de6:	e9 de f7 ff ff       	jmp    65c9 <copy_internal+0xb49>
6deb:	0f 1f 44 00 00       	nop    DWORD PTR [rax+rax*1+0x0]
6df0:	48 8b bd f8 fc ff ff 	mov    rdi,QWORD PTR [rbp-0x308]
6df7:	48 89 d9             	mov    rcx,rbx
6dfa:	ba 01 00 00 00       	mov    edx,0x1
6dff:	31 f6                	xor    esi,esi
6e01:	e8 ea e8 ff ff       	call   56f0 <set_file_security_ctx>
6e06:	e9 93 f4 ff ff       	jmp    629e <copy_internal+0x81e>
6e0b:	0f 1f 44 00 00       	nop    DWORD PTR [rax+rax*1+0x0]
6e10:	48 8d 35 63 e0 00 00 	lea    rsi,[rip+0xe063]        # 14e7a <sparse_type+0x1dfa>
6e17:	ba 05 00 00 00       	mov    edx,0x5
6e1c:	31 ff                	xor    edi,edi
6e1e:	e8 bd ba ff ff       	call   28e0 <dcgettext@plt>
6e23:	bf 01 00 00 00       	mov    edi,0x1
6e28:	48 89 c6             	mov    rsi,rax
6e2b:	31 c0                	xor    eax,eax
6e2d:	e8 2e be ff ff       	call   2c60 <__printf_chk@plt>
6e32:	48 8b 95 b0 fc ff ff 	mov    rdx,QWORD PTR [rbp-0x350]
6e39:	48 8b b5 f8 fc ff ff 	mov    rsi,QWORD PTR [rbp-0x308]
6e40:	48 8b bd f0 fc ff ff 	mov    rdi,QWORD PTR [rbp-0x310]
6e47:	e8 e4 df ff ff       	call   4e30 <emit_verbose>
6e4c:	e9 43 f4 ff ff       	jmp    6294 <copy_internal+0x814>
6e51:	0f 1f 80 00 00 00 00 	nop    DWORD PTR [rax+0x0]
6e58:	48 8b 85 10 fe ff ff 	mov    rax,QWORD PTR [rbp-0x1f0]
6e5f:	48 39 85 80 fd ff ff 	cmp    QWORD PTR [rbp-0x280],rax
6e66:	0f 85 29 ee ff ff    	jne    5c95 <copy_internal+0x215>
6e6c:	0f b6 43 17          	movzx  eax,BYTE PTR [rbx+0x17]
6e70:	84 c0                	test   al,al
6e72:	0f 85 90 03 00 00    	jne    7208 <copy_internal+0x1788>
6e78:	83 7b 04 02          	cmp    DWORD PTR [rbx+0x4],0x2
6e7c:	b9 01 00 00 00       	mov    ecx,0x1
6e81:	41 bf 01 00 00 00    	mov    r15d,0x1
6e87:	0f 84 88 01 00 00    	je     7015 <copy_internal+0x1595>
6e8d:	4c 8d a5 a0 fe ff ff 	lea    r12,[rbp-0x160]
6e94:	48 8b b5 f8 fc ff ff 	mov    rsi,QWORD PTR [rbp-0x308]
6e9b:	bf 01 00 00 00       	mov    edi,0x1
6ea0:	44 88 8d a8 fc ff ff 	mov    BYTE PTR [rbp-0x358],r9b
6ea7:	44 88 85 b0 fc ff ff 	mov    BYTE PTR [rbp-0x350],r8b
6eae:	4c 89 e2             	mov    rdx,r12
6eb1:	e8 5a ba ff ff       	call   2910 <__lxstat@plt>
6eb6:	85 c0                	test   eax,eax
6eb8:	44 0f b6 85 b0 fc ff 	movzx  r8d,BYTE PTR [rbp-0x350]
6ebf:	ff
6ec0:	44 0f b6 8d a8 fc ff 	movzx  r9d,BYTE PTR [rbp-0x358]
6ec7:	ff
6ec8:	0f 84 04 10 00 00    	je     7ed2 <copy_internal+0x2452>
6ece:	45 31 f6             	xor    r14d,r14d
6ed1:	e9 c9 ed ff ff       	jmp    5c9f <copy_internal+0x21f>
6ed6:	66 2e 0f 1f 84 00 00 	nop    WORD PTR cs:[rax+rax*1+0x0]
6edd:	00 00 00
6ee0:	48 83 ec 30          	sub    rsp,0x30
6ee4:	48 8b b5 d0 fc ff ff 	mov    rsi,QWORD PTR [rbp-0x330]
6eeb:	48 8d 44 24 0f       	lea    rax,[rsp+0xf]
6ef0:	48 83 e0 f0          	and    rax,0xfffffffffffffff0
6ef4:	45 84 f6             	test   r14b,r14b
6ef7:	48 89 85 d8 fc ff ff 	mov    QWORD PTR [rbp-0x328],rax
6efe:	48 89 30             	mov    QWORD PTR [rax],rsi
6f01:	48 89 50 08          	mov    QWORD PTR [rax+0x8],rdx
6f05:	48 89 48 10          	mov    QWORD PTR [rax+0x10],rcx
6f09:	75 16                	jne    6f21 <copy_internal+0x14a1>
6f0b:	8b 85 28 fe ff ff    	mov    eax,DWORD PTR [rbp-0x1d8]
6f11:	25 00 f0 00 00       	and    eax,0xf000
6f16:	3d 00 40 00 00       	cmp    eax,0x4000
6f1b:	0f 84 57 10 00 00    	je     7f78 <copy_internal+0x24f8>
6f21:	8b b5 a4 fc ff ff    	mov    esi,DWORD PTR [rbp-0x35c]
6f27:	4c 8b bd f8 fc ff ff 	mov    r15,QWORD PTR [rbp-0x308]
6f2e:	f7 d6                	not    esi
6f30:	4c 89 ff             	mov    rdi,r15
6f33:	44 21 e6             	and    esi,r12d
6f36:	e8 a5 b8 ff ff       	call   27e0 <mkdir@plt>
6f3b:	85 c0                	test   eax,eax
6f3d:	0f 84 bd 07 00 00    	je     7700 <copy_internal+0x1c80>
6f43:	4c 89 fe             	mov    rsi,r15
6f46:	bf 04 00 00 00       	mov    edi,0x4
6f4b:	e8 60 7b 00 00       	call   eab0 <quotearg_style>
6f50:	48 8d 35 49 df 00 00 	lea    rsi,[rip+0xdf49]        # 14ea0 <sparse_type+0x1e20>
6f57:	49 89 c5             	mov    r13,rax
6f5a:	ba 05 00 00 00       	mov    edx,0x5
6f5f:	31 ff                	xor    edi,edi
6f61:	e8 7a b9 ff ff       	call   28e0 <dcgettext@plt>
6f66:	49 89 c4             	mov    r12,rax
6f69:	e8 02 b8 ff ff       	call   2770 <__errno_location@plt>
6f6e:	8b 30                	mov    esi,DWORD PTR [rax]
6f70:	4c 89 e9             	mov    rcx,r13
6f73:	4c 89 e2             	mov    rdx,r12
6f76:	31 ff                	xor    edi,edi
6f78:	31 c0                	xor    eax,eax
6f7a:	e8 31 bd ff ff       	call   2cb0 <error@plt>
6f7f:	e9 8c fa ff ff       	jmp    6a10 <copy_internal+0xf90>
6f84:	0f 1f 40 00          	nop    DWORD PTR [rax+0x0]
6f88:	48 8b 95 80 fd ff ff 	mov    rdx,QWORD PTR [rbp-0x280]
6f8f:	48 8b b5 88 fd ff ff 	mov    rsi,QWORD PTR [rbp-0x278]
6f96:	48 8b bd f8 fc ff ff 	mov    rdi,QWORD PTR [rbp-0x308]
6f9d:	e8 7e 2e 00 00       	call   9e20 <remember_copied>
6fa2:	48 89 85 a8 fc ff ff 	mov    QWORD PTR [rbp-0x358],rax
6fa9:	48 83 bd a8 fc ff ff 	cmp    QWORD PTR [rbp-0x358],0x0
6fb0:	00
6fb1:	74 4d                	je     7000 <copy_internal+0x1580>
6fb3:	8b 85 ec fc ff ff    	mov    eax,DWORD PTR [rbp-0x314]
6fb9:	25 00 f0 00 00       	and    eax,0xf000
6fbe:	3d 00 40 00 00       	cmp    eax,0x4000
6fc3:	0f 84 42 fb ff ff    	je     6b0b <copy_internal+0x108b>
6fc9:	0f b6 4b 2e          	movzx  ecx,BYTE PTR [rbx+0x2e]
6fcd:	44 8b 85 d8 fc ff ff 	mov    r8d,DWORD PTR [rbp-0x328]
6fd4:	ba 01 00 00 00       	mov    edx,0x1
6fd9:	48 8b b5 f8 fc ff ff 	mov    rsi,QWORD PTR [rbp-0x308]
6fe0:	48 8b bd a8 fc ff ff 	mov    rdi,QWORD PTR [rbp-0x358]
6fe7:	e8 04 df ff ff       	call   4ef0 <create_hard_link>
6fec:	84 c0                	test   al,al
6fee:	0f 84 92 fb ff ff    	je     6b86 <copy_internal+0x1106>
6ff4:	e9 c7 f2 ff ff       	jmp    62c0 <copy_internal+0x840>
6ff9:	0f 1f 80 00 00 00 00 	nop    DWORD PTR [rax+0x0]
7000:	0f b6 43 18          	movzx  eax,BYTE PTR [rbx+0x18]
7004:	e9 c2 fb ff ff       	jmp    6bcb <copy_internal+0x114b>
7009:	0f 1f 80 00 00 00 00 	nop    DWORD PTR [rax+0x0]
7010:	31 c9                	xor    ecx,ecx
7012:	45 31 ff             	xor    r15d,r15d
7015:	8b 85 98 fd ff ff    	mov    eax,DWORD PTR [rbp-0x268]
701b:	48 8d 95 80 fd ff ff 	lea    rdx,[rbp-0x280]
7022:	25 00 f0 00 00       	and    eax,0xf000
7027:	3d 00 a0 00 00       	cmp    eax,0xa000
702c:	0f 84 a1 0c 00 00    	je     7cd3 <copy_internal+0x2253>
7032:	8b 33                	mov    esi,DWORD PTR [rbx]
7034:	85 f6                	test   esi,esi
7036:	0f 84 dc 04 00 00    	je     7518 <copy_internal+0x1a98>
703c:	84 c9                	test   cl,cl
703e:	0f 85 8e 10 00 00    	jne    80d2 <copy_internal+0x2652>
7044:	80 7b 18 00          	cmp    BYTE PTR [rbx+0x18],0x0
7048:	0f 85 80 fe ff ff    	jne    6ece <copy_internal+0x144e>
704e:	83 7b 04 02          	cmp    DWORD PTR [rbx+0x4],0x2
7052:	0f 84 76 fe ff ff    	je     6ece <copy_internal+0x144e>
7058:	8b 42 18             	mov    eax,DWORD PTR [rdx+0x18]
705b:	25 00 f0 00 00       	and    eax,0xf000
7060:	3d 00 a0 00 00       	cmp    eax,0xa000
7065:	0f 85 63 fe ff ff    	jne    6ece <copy_internal+0x144e>
706b:	41 8b 44 24 18       	mov    eax,DWORD PTR [r12+0x18]
7070:	25 00 f0 00 00       	and    eax,0xf000
7075:	3d 00 a0 00 00       	cmp    eax,0xa000
707a:	0f 84 4e fe ff ff    	je     6ece <copy_internal+0x144e>
7080:	48 8b 95 f8 fc ff ff 	mov    rdx,QWORD PTR [rbp-0x308]
7087:	be 04 00 00 00       	mov    esi,0x4
708c:	bf 01 00 00 00       	mov    edi,0x1
7091:	e8 fa 78 00 00       	call   e990 <quotearg_n_style>
7096:	48 8b 95 f0 fc ff ff 	mov    rdx,QWORD PTR [rbp-0x310]
709d:	be 04 00 00 00       	mov    esi,0x4
70a2:	31 ff                	xor    edi,edi
70a4:	49 89 c4             	mov    r12,rax
70a7:	e8 e4 78 00 00       	call   e990 <quotearg_n_style>
70ac:	48 8d 35 89 dd 00 00 	lea    rsi,[rip+0xdd89]        # 14e3c <sparse_type+0x1dbc>
70b3:	48 89 c3             	mov    rbx,rax
70b6:	ba 05 00 00 00       	mov    edx,0x5
70bb:	31 ff                	xor    edi,edi
70bd:	e8 1e b8 ff ff       	call   28e0 <dcgettext@plt>
70c2:	4d 89 e0             	mov    r8,r12
70c5:	48 89 c2             	mov    rdx,rax
70c8:	48 89 d9             	mov    rcx,rbx
70cb:	31 f6                	xor    esi,esi
70cd:	31 ff                	xor    edi,edi
70cf:	31 c0                	xor    eax,eax
70d1:	e8 da bb ff ff       	call   2cb0 <error@plt>
70d6:	e9 b5 ec ff ff       	jmp    5d90 <copy_internal+0x310>
70db:	0f 1f 44 00 00       	nop    DWORD PTR [rax+rax*1+0x0]
70e0:	80 7b 18 00          	cmp    BYTE PTR [rbx+0x18],0x0
70e4:	0f 84 26 f6 ff ff    	je     6710 <copy_internal+0xc90>
70ea:	e9 91 fb ff ff       	jmp    6c80 <copy_internal+0x1200>
70ef:	90                   	nop
70f0:	41 8b 44 24 18       	mov    eax,DWORD PTR [r12+0x18]
70f5:	25 00 f0 00 00       	and    eax,0xf000
70fa:	3d 00 a0 00 00       	cmp    eax,0xa000
70ff:	0f 84 9a eb ff ff    	je     5c9f <copy_internal+0x21f>
7105:	84 c9                	test   cl,cl
7107:	74 0c                	je     7115 <copy_internal+0x1695>
7109:	49 83 7c 24 10 01    	cmp    QWORD PTR [r12+0x10],0x1
710f:	0f 87 b6 13 00 00    	ja     84cb <copy_internal+0x2a4b>
7115:	8b 42 18             	mov    eax,DWORD PTR [rdx+0x18]
7118:	25 00 f0 00 00       	and    eax,0xf000
711d:	3d 00 a0 00 00       	cmp    eax,0xa000
7122:	74 2c                	je     7150 <copy_internal+0x16d0>
7124:	49 8b 44 24 08       	mov    rax,QWORD PTR [r12+0x8]
7129:	48 39 42 08          	cmp    QWORD PTR [rdx+0x8],rax
712d:	0f 85 6c eb ff ff    	jne    5c9f <copy_internal+0x21f>
7133:	49 8b 04 24          	mov    rax,QWORD PTR [r12]
7137:	48 39 02             	cmp    QWORD PTR [rdx],rax
713a:	0f 85 5f eb ff ff    	jne    5c9f <copy_internal+0x21f>
7140:	0f b6 43 17          	movzx  eax,BYTE PTR [rbx+0x17]
7144:	84 c0                	test   al,al
7146:	0f 85 bc 00 00 00    	jne    7208 <copy_internal+0x1788>
714c:	0f b6 73 18          	movzx  esi,BYTE PTR [rbx+0x18]
7150:	40 84 f6             	test   sil,sil
7153:	0f 84 e9 03 00 00    	je     7542 <copy_internal+0x1ac2>
7159:	8b 85 98 fd ff ff    	mov    eax,DWORD PTR [rbp-0x268]
715f:	25 00 f0 00 00       	and    eax,0xf000
7164:	3d 00 a0 00 00       	cmp    eax,0xa000
7169:	0f 85 d3 03 00 00    	jne    7542 <copy_internal+0x1ac2>
716f:	49 83 7c 24 10 01    	cmp    QWORD PTR [r12+0x10],0x1
7175:	0f 86 c7 03 00 00    	jbe    7542 <copy_internal+0x1ac2>
717b:	48 8b bd f0 fc ff ff 	mov    rdi,QWORD PTR [rbp-0x310]
7182:	44 88 8d a4 fc ff ff 	mov    BYTE PTR [rbp-0x35c],r9b
7189:	44 88 85 a8 fc ff ff 	mov    BYTE PTR [rbp-0x358],r8b
7190:	48 89 95 b0 fc ff ff 	mov    QWORD PTR [rbp-0x350],rdx
7197:	e8 84 b8 ff ff       	call   2a20 <canonicalize_file_name@plt>
719c:	48 85 c0             	test   rax,rax
719f:	49 89 c7             	mov    r15,rax
71a2:	48 8b 95 b0 fc ff ff 	mov    rdx,QWORD PTR [rbp-0x350]
71a9:	44 0f b6 85 a8 fc ff 	movzx  r8d,BYTE PTR [rbp-0x358]
71b0:	ff
71b1:	44 0f b6 8d a4 fc ff 	movzx  r9d,BYTE PTR [rbp-0x35c]
71b8:	ff
71b9:	0f 84 83 03 00 00    	je     7542 <copy_internal+0x1ac2>
71bf:	48 8b b5 f8 fc ff ff 	mov    rsi,QWORD PTR [rbp-0x308]
71c6:	48 89 c7             	mov    rdi,rax
71c9:	44 88 8d a8 fc ff ff 	mov    BYTE PTR [rbp-0x358],r9b
71d0:	44 88 85 b0 fc ff ff 	mov    BYTE PTR [rbp-0x350],r8b
71d7:	e8 64 80 00 00       	call   f240 <same_name>
71dc:	4c 89 ff             	mov    rdi,r15
71df:	83 f0 01             	xor    eax,0x1
71e2:	41 89 c4             	mov    r12d,eax
71e5:	e8 26 bc ff ff       	call   2e10 <free@plt>
71ea:	44 0f b6 85 b0 fc ff 	movzx  r8d,BYTE PTR [rbp-0x350]
71f1:	ff
71f2:	44 0f b6 8d a8 fc ff 	movzx  r9d,BYTE PTR [rbp-0x358]
71f9:	ff
71fa:	31 c0                	xor    eax,eax
71fc:	45 84 e4             	test   r12b,r12b
71ff:	0f 84 7b fe ff ff    	je     7080 <copy_internal+0x1600>
7205:	0f 1f 00             	nop    DWORD PTR [rax]
7208:	41 89 c6             	mov    r14d,eax
720b:	e9 8f ea ff ff       	jmp    5c9f <copy_internal+0x21f>
7210:	48 8b 7b 40          	mov    rdi,QWORD PTR [rbx+0x40]
7214:	48 8b b5 f8 fc ff ff 	mov    rsi,QWORD PTR [rbp-0x308]
721b:	48 8d 95 10 fe ff ff 	lea    rdx,[rbp-0x1f0]
7222:	44 88 8d a8 fc ff ff 	mov    BYTE PTR [rbp-0x358],r9b
7229:	44 88 85 b0 fc ff ff 	mov    BYTE PTR [rbp-0x350],r8b
7230:	e8 8b 45 00 00       	call   b7c0 <seen_file>
7235:	84 c0                	test   al,al
7237:	44 0f b6 85 b0 fc ff 	movzx  r8d,BYTE PTR [rbp-0x350]
723e:	ff
723f:	44 0f b6 8d a8 fc ff 	movzx  r9d,BYTE PTR [rbp-0x358]
7246:	ff
7247:	0f 85 48 13 00 00    	jne    8595 <copy_internal+0x2b15>
724d:	41 81 fc 00 40 00 00 	cmp    r12d,0x4000
7254:	74 1a                	je     7270 <copy_internal+0x17f0>
7256:	8b 85 28 fe ff ff    	mov    eax,DWORD PTR [rbp-0x1d8]
725c:	89 c2                	mov    edx,eax
725e:	81 e2 00 f0 00 00    	and    edx,0xf000
7264:	81 fa 00 40 00 00    	cmp    edx,0x4000
726a:	0f 84 ed fa ff ff    	je     6d5d <copy_internal+0x12dd>
7270:	44 8b 3b             	mov    r15d,DWORD PTR [rbx]
7273:	0f b6 43 18          	movzx  eax,BYTE PTR [rbx+0x18]
7277:	84 c0                	test   al,al
7279:	0f 85 b1 09 00 00    	jne    7c30 <copy_internal+0x21b0>
727f:	45 85 ff             	test   r15d,r15d
7282:	0f 85 e6 f4 ff ff    	jne    676e <copy_internal+0xcee>
7288:	8b 95 28 fe ff ff    	mov    edx,DWORD PTR [rbp-0x1d8]
728e:	81 e2 00 f0 00 00    	and    edx,0xf000
7294:	81 fa 00 40 00 00    	cmp    edx,0x4000
729a:	41 0f 94 c4          	sete   r12b
729e:	41 08 c4             	or     r12b,al
72a1:	0f 84 94 0b 00 00    	je     7e3b <copy_internal+0x23bb>
72a7:	45 89 c6             	mov    r14d,r8d
72aa:	41 bf 11 00 00 00    	mov    r15d,0x11
72b0:	48 c7 85 b0 fc ff ff 	mov    QWORD PTR [rbp-0x350],0x0
72b7:	00 00 00 00
72bb:	e9 4e eb ff ff       	jmp    5e0e <copy_internal+0x38e>
72c0:	48 8b b5 80 fd ff ff 	mov    rsi,QWORD PTR [rbp-0x280]
72c7:	48 8b bd 88 fd ff ff 	mov    rdi,QWORD PTR [rbp-0x278]
72ce:	e8 7d 2a 00 00       	call   9d50 <forget_created>
72d3:	e9 50 f7 ff ff       	jmp    6a28 <copy_internal+0xfa8>
72d8:	0f 1f 84 00 00 00 00 	nop    DWORD PTR [rax+rax*1+0x0]
72df:	00
72e0:	48 8b b5 f8 fc ff ff 	mov    rsi,QWORD PTR [rbp-0x308]
72e7:	bf 04 00 00 00       	mov    edi,0x4
72ec:	e8 bf 77 00 00       	call   eab0 <quotearg_style>
72f1:	ba 05 00 00 00       	mov    edx,0x5
72f6:	49 89 c4             	mov    r12,rax
72f9:	48 8d 35 1e dd 00 00 	lea    rsi,[rip+0xdd1e]        # 1501e <sparse_type+0x1f9e>
7300:	e9 79 f0 ff ff       	jmp    637e <copy_internal+0x8fe>
7305:	0f 1f 00             	nop    DWORD PTR [rax]
7308:	41 81 ff 00 80 00 00 	cmp    r15d,0x8000
730f:	0f 84 fb 07 00 00    	je     7b10 <copy_internal+0x2090>
7315:	41 81 ff 00 a0 00 00 	cmp    r15d,0xa000
731c:	41 0f 95 c0          	setne  r8b
7320:	44 22 43 14          	and    r8b,BYTE PTR [rbx+0x14]
7324:	0f 85 e6 07 00 00    	jne    7b10 <copy_internal+0x2090>
732a:	41 81 ff 00 10 00 00 	cmp    r15d,0x1000
7331:	0f 84 bb 10 00 00    	je     83f2 <copy_internal+0x2972>
7337:	44 89 f8             	mov    eax,r15d
733a:	80 e4 bf             	and    ah,0xbf
733d:	3d 00 20 00 00       	cmp    eax,0x2000
7342:	0f 84 e4 0c 00 00    	je     802c <copy_internal+0x25ac>
7348:	41 81 ff 00 c0 00 00 	cmp    r15d,0xc000
734f:	0f 84 d7 0c 00 00    	je     802c <copy_internal+0x25ac>
7355:	41 81 ff 00 a0 00 00 	cmp    r15d,0xa000
735c:	0f 84 7e 13 00 00    	je     86e0 <copy_internal+0x2c60>
7362:	48 8b b5 f0 fc ff ff 	mov    rsi,QWORD PTR [rbp-0x310]
7369:	bf 04 00 00 00       	mov    edi,0x4
736e:	e8 3d 77 00 00       	call   eab0 <quotearg_style>
7373:	ba 05 00 00 00       	mov    edx,0x5
7378:	49 89 c4             	mov    r12,rax
737b:	48 8d 35 83 dc 00 00 	lea    rsi,[rip+0xdc83]        # 15005 <sparse_type+0x1f85>
7382:	e9 a1 f2 ff ff       	jmp    6628 <copy_internal+0xba8>
7387:	66 0f 1f 84 00 00 00 	nop    WORD PTR [rax+rax*1+0x0]
738e:	00 00
7390:	48 89 d6             	mov    rsi,rdx
7393:	e8 28 2a 00 00       	call   9dc0 <src_to_dest_lookup>
7398:	48 89 85 a8 fc ff ff 	mov    QWORD PTR [rbp-0x358],rax
739f:	e9 59 f7 ff ff       	jmp    6afd <copy_internal+0x107d>
73a4:	0f 1f 40 00          	nop    DWORD PTR [rax+0x0]
73a8:	48 8b b5 f0 fc ff ff 	mov    rsi,QWORD PTR [rbp-0x310]
73af:	bf 04 00 00 00       	mov    edi,0x4
73b4:	e8 f7 76 00 00       	call   eab0 <quotearg_style>
73b9:	48 8d 35 d0 d4 00 00 	lea    rsi,[rip+0xd4d0]        # 14890 <sparse_type+0x1810>
73c0:	48 89 c3             	mov    rbx,rax
73c3:	31 ff                	xor    edi,edi
73c5:	ba 05 00 00 00       	mov    edx,0x5
73ca:	e8 11 b5 ff ff       	call   28e0 <dcgettext@plt>
73cf:	48 89 d9             	mov    rcx,rbx
73d2:	48 89 c2             	mov    rdx,rax
73d5:	31 f6                	xor    esi,esi
73d7:	31 ff                	xor    edi,edi
73d9:	31 c0                	xor    eax,eax
73db:	e8 d0 b8 ff ff       	call   2cb0 <error@plt>
73e0:	e9 e1 ee ff ff       	jmp    62c6 <copy_internal+0x846>
73e5:	0f 1f 00             	nop    DWORD PTR [rax]
73e8:	48 8b b5 80 fd ff ff 	mov    rsi,QWORD PTR [rbp-0x280]
73ef:	48 8b bd 88 fd ff ff 	mov    rdi,QWORD PTR [rbp-0x278]
73f6:	e8 c5 29 00 00       	call   9dc0 <src_to_dest_lookup>
73fb:	48 89 85 a8 fc ff ff 	mov    QWORD PTR [rbp-0x358],rax
7402:	e9 a2 fb ff ff       	jmp    6fa9 <copy_internal+0x1529>
7407:	66 0f 1f 84 00 00 00 	nop    WORD PTR [rax+rax*1+0x0]
740e:	00 00
7410:	48 8d 35 0f da 00 00 	lea    rsi,[rip+0xda0f]        # 14e26 <sparse_type+0x1da6>
7417:	31 ff                	xor    edi,edi
7419:	e8 c2 b4 ff ff       	call   28e0 <dcgettext@plt>
741e:	48 89 c2             	mov    rdx,rax
7421:	e9 64 f2 ff ff       	jmp    668a <copy_internal+0xc0a>
7426:	66 2e 0f 1f 84 00 00 	nop    WORD PTR cs:[rax+rax*1+0x0]
742d:	00 00 00
7430:	48 8b 15 31 31 21 00 	mov    rdx,QWORD PTR [rip+0x213131]        # 21a568 <top_level_dst_name>
7437:	be 04 00 00 00       	mov    esi,0x4
743c:	bf 01 00 00 00       	mov    edi,0x1
7441:	e8 4a 75 00 00       	call   e990 <quotearg_n_style>
7446:	48 8b 15 23 31 21 00 	mov    rdx,QWORD PTR [rip+0x213123]        # 21a570 <top_level_src_name>
744d:	be 04 00 00 00       	mov    esi,0x4
7452:	31 ff                	xor    edi,edi
7454:	49 89 c4             	mov    r12,rax
7457:	e8 34 75 00 00       	call   e990 <quotearg_n_style>
745c:	48 8d 35 7d d6 00 00 	lea    rsi,[rip+0xd67d]        # 14ae0 <sparse_type+0x1a60>
7463:	48 89 c3             	mov    rbx,rax
7466:	ba 05 00 00 00       	mov    edx,0x5
746b:	31 ff                	xor    edi,edi
746d:	e8 6e b4 ff ff       	call   28e0 <dcgettext@plt>
7472:	4d 89 e0             	mov    r8,r12
7475:	48 89 c2             	mov    rdx,rax
7478:	48 89 d9             	mov    rcx,rbx
747b:	31 c0                	xor    eax,eax
747d:	31 f6                	xor    esi,esi
747f:	31 ff                	xor    edi,edi
7481:	e8 2a b8 ff ff       	call   2cb0 <error@plt>
7486:	48 8b 85 c0 fc ff ff 	mov    rax,QWORD PTR [rbp-0x340]
748d:	41 bc 01 00 00 00    	mov    r12d,0x1
7493:	c6 00 01             	mov    BYTE PTR [rax],0x1
7496:	e9 2b ee ff ff       	jmp    62c6 <copy_internal+0x846>
749b:	0f 1f 44 00 00       	nop    DWORD PTR [rax+rax*1+0x0]
74a0:	e8 2b b4 ff ff       	call   28d0 <rmdir@plt>
74a5:	85 c0                	test   eax,eax
74a7:	0f 84 c4 ef ff ff    	je     6471 <copy_internal+0x9f1>
74ad:	e8 be b2 ff ff       	call   2770 <__errno_location@plt>
74b2:	83 38 02             	cmp    DWORD PTR [rax],0x2
74b5:	49 89 c6             	mov    r14,rax
74b8:	0f 84 b3 ef ff ff    	je     6471 <copy_internal+0x9f1>
74be:	48 8b 95 f8 fc ff ff 	mov    rdx,QWORD PTR [rbp-0x308]
74c5:	be 04 00 00 00       	mov    esi,0x4
74ca:	bf 01 00 00 00       	mov    edi,0x1
74cf:	e8 bc 74 00 00       	call   e990 <quotearg_n_style>
74d4:	48 8b 95 f0 fc ff ff 	mov    rdx,QWORD PTR [rbp-0x310]
74db:	be 04 00 00 00       	mov    esi,0x4
74e0:	31 ff                	xor    edi,edi
74e2:	49 89 c4             	mov    r12,rax
74e5:	e8 a6 74 00 00       	call   e990 <quotearg_n_style>
74ea:	48 8d 35 1f d6 00 00 	lea    rsi,[rip+0xd61f]        # 14b10 <sparse_type+0x1a90>
74f1:	48 89 c3             	mov    rbx,rax
74f4:	ba 05 00 00 00       	mov    edx,0x5
74f9:	31 ff                	xor    edi,edi
74fb:	e8 e0 b3 ff ff       	call   28e0 <dcgettext@plt>
7500:	4d 89 e0             	mov    r8,r12
7503:	48 89 d9             	mov    rcx,rbx
7506:	48 89 c2             	mov    rdx,rax
7509:	41 8b 36             	mov    esi,DWORD PTR [r14]
750c:	e9 25 f7 ff ff       	jmp    6c36 <copy_internal+0x11b6>
7511:	0f 1f 80 00 00 00 00 	nop    DWORD PTR [rax+0x0]
7518:	0f b6 73 18          	movzx  esi,BYTE PTR [rbx+0x18]
751c:	40 84 f6             	test   sil,sil
751f:	0f 85 cb fb ff ff    	jne    70f0 <copy_internal+0x1670>
7525:	80 7b 15 00          	cmp    BYTE PTR [rbx+0x15],0x0
7529:	0f 85 c1 fb ff ff    	jne    70f0 <copy_internal+0x1670>
752f:	8b 42 18             	mov    eax,DWORD PTR [rdx+0x18]
7532:	25 00 f0 00 00       	and    eax,0xf000
7537:	3d 00 a0 00 00       	cmp    eax,0xa000
753c:	0f 85 e3 0f 00 00    	jne    8525 <copy_internal+0x2aa5>
7542:	80 7b 2c 00          	cmp    BYTE PTR [rbx+0x2c],0x0
7546:	74 15                	je     755d <copy_internal+0x1add>
7548:	41 8b 44 24 18       	mov    eax,DWORD PTR [r12+0x18]
754d:	25 00 f0 00 00       	and    eax,0xf000
7552:	3d 00 a0 00 00       	cmp    eax,0xa000
7557:	0f 84 42 e7 ff ff    	je     5c9f <copy_internal+0x21f>
755d:	83 7b 04 02          	cmp    DWORD PTR [rbx+0x4],0x2
7561:	0f 85 19 fb ff ff    	jne    7080 <copy_internal+0x1600>
7567:	8b 42 18             	mov    eax,DWORD PTR [rdx+0x18]
756a:	25 00 f0 00 00       	and    eax,0xf000
756f:	3d 00 a0 00 00       	cmp    eax,0xa000
7574:	0f 84 72 1a 00 00    	je     8fec <copy_internal+0x356c>
757a:	66 0f 6f 02          	movdqa xmm0,XMMWORD PTR [rdx]
757e:	0f 29 85 30 ff ff ff 	movaps XMMWORD PTR [rbp-0xd0],xmm0
7585:	66 0f 6f 42 10       	movdqa xmm0,XMMWORD PTR [rdx+0x10]
758a:	0f 29 85 40 ff ff ff 	movaps XMMWORD PTR [rbp-0xc0],xmm0
7591:	66 0f 6f 42 20       	movdqa xmm0,XMMWORD PTR [rdx+0x20]
7596:	0f 29 85 50 ff ff ff 	movaps XMMWORD PTR [rbp-0xb0],xmm0
759d:	66 0f 6f 42 30       	movdqa xmm0,XMMWORD PTR [rdx+0x30]
75a2:	0f 29 85 60 ff ff ff 	movaps XMMWORD PTR [rbp-0xa0],xmm0
75a9:	66 0f 6f 42 40       	movdqa xmm0,XMMWORD PTR [rdx+0x40]
75ae:	0f 29 85 70 ff ff ff 	movaps XMMWORD PTR [rbp-0x90],xmm0
75b5:	66 0f 6f 42 50       	movdqa xmm0,XMMWORD PTR [rdx+0x50]
75ba:	0f 29 45 80          	movaps XMMWORD PTR [rbp-0x80],xmm0
75be:	66 0f 6f 42 60       	movdqa xmm0,XMMWORD PTR [rdx+0x60]
75c3:	0f 29 45 90          	movaps XMMWORD PTR [rbp-0x70],xmm0
75c7:	66 0f 6f 42 70       	movdqa xmm0,XMMWORD PTR [rdx+0x70]
75cc:	0f 29 45 a0          	movaps XMMWORD PTR [rbp-0x60],xmm0
75d0:	66 0f 6f 82 80 00 00 	movdqa xmm0,XMMWORD PTR [rdx+0x80]
75d7:	00
75d8:	0f 29 45 b0          	movaps XMMWORD PTR [rbp-0x50],xmm0
75dc:	41 8b 44 24 18       	mov    eax,DWORD PTR [r12+0x18]
75e1:	25 00 f0 00 00       	and    eax,0xf000
75e6:	3d 00 a0 00 00       	cmp    eax,0xa000
75eb:	0f 84 b8 19 00 00    	je     8fa9 <copy_internal+0x3529>
75f1:	66 41 0f 6f 04 24    	movdqa xmm0,XMMWORD PTR [r12]
75f7:	0f 29 85 a0 fe ff ff 	movaps XMMWORD PTR [rbp-0x160],xmm0
75fe:	66 41 0f 6f 44 24 10 	movdqa xmm0,XMMWORD PTR [r12+0x10]
7605:	0f 29 85 b0 fe ff ff 	movaps XMMWORD PTR [rbp-0x150],xmm0
760c:	66 41 0f 6f 44 24 20 	movdqa xmm0,XMMWORD PTR [r12+0x20]
7613:	0f 29 85 c0 fe ff ff 	movaps XMMWORD PTR [rbp-0x140],xmm0
761a:	66 41 0f 6f 44 24 30 	movdqa xmm0,XMMWORD PTR [r12+0x30]
7621:	0f 29 85 d0 fe ff ff 	movaps XMMWORD PTR [rbp-0x130],xmm0
7628:	66 41 0f 6f 44 24 40 	movdqa xmm0,XMMWORD PTR [r12+0x40]
762f:	0f 29 85 e0 fe ff ff 	movaps XMMWORD PTR [rbp-0x120],xmm0
7636:	66 41 0f 6f 44 24 50 	movdqa xmm0,XMMWORD PTR [r12+0x50]
763d:	0f 29 85 f0 fe ff ff 	movaps XMMWORD PTR [rbp-0x110],xmm0
7644:	66 41 0f 6f 44 24 60 	movdqa xmm0,XMMWORD PTR [r12+0x60]
764b:	0f 29 85 00 ff ff ff 	movaps XMMWORD PTR [rbp-0x100],xmm0
7652:	66 41 0f 6f 44 24 70 	movdqa xmm0,XMMWORD PTR [r12+0x70]
7659:	0f 29 85 10 ff ff ff 	movaps XMMWORD PTR [rbp-0xf0],xmm0
7660:	66 41 0f 6f 84 24 80 	movdqa xmm0,XMMWORD PTR [r12+0x80]
7667:	00 00 00
766a:	0f 29 85 20 ff ff ff 	movaps XMMWORD PTR [rbp-0xe0],xmm0
7671:	48 8b 85 a8 fe ff ff 	mov    rax,QWORD PTR [rbp-0x158]
7678:	48 39 85 38 ff ff ff 	cmp    QWORD PTR [rbp-0xc8],rax
767f:	0f 85 1a e6 ff ff    	jne    5c9f <copy_internal+0x21f>
7685:	48 8b 85 a0 fe ff ff 	mov    rax,QWORD PTR [rbp-0x160]
768c:	48 39 85 30 ff ff ff 	cmp    QWORD PTR [rbp-0xd0],rax
7693:	0f 85 06 e6 ff ff    	jne    5c9f <copy_internal+0x21f>
7699:	80 7b 17 00          	cmp    BYTE PTR [rbx+0x17],0x0
769d:	0f 84 dd f9 ff ff    	je     7080 <copy_internal+0x1600>
76a3:	41 8b 44 24 18       	mov    eax,DWORD PTR [r12+0x18]
76a8:	25 00 f0 00 00       	and    eax,0xf000
76ad:	3d 00 a0 00 00       	cmp    eax,0xa000
76b2:	41 0f 95 c6          	setne  r14b
76b6:	e9 e4 e5 ff ff       	jmp    5c9f <copy_internal+0x21f>
76bb:	0f 1f 44 00 00       	nop    DWORD PTR [rax+rax*1+0x0]
76c0:	48 8d 8d 30 ff ff ff 	lea    rcx,[rbp-0xd0]
76c7:	48 8b b5 f8 fc ff ff 	mov    rsi,QWORD PTR [rbp-0x308]
76ce:	bf 01 00 00 00       	mov    edi,0x1
76d3:	48 89 ca             	mov    rdx,rcx
76d6:	48 89 8d a8 fc ff ff 	mov    QWORD PTR [rbp-0x358],rcx
76dd:	e8 2e b2 ff ff       	call   2910 <__lxstat@plt>
76e2:	85 c0                	test   eax,eax
76e4:	0f 85 e6 e7 ff ff    	jne    5ed0 <copy_internal+0x450>
76ea:	48 8b 8d a8 fc ff ff 	mov    rcx,QWORD PTR [rbp-0x358]
76f1:	48 89 ca             	mov    rdx,rcx
76f4:	e9 51 e7 ff ff       	jmp    5e4a <copy_internal+0x3ca>
76f9:	0f 1f 80 00 00 00 00 	nop    DWORD PTR [rax+0x0]
7700:	48 8b b5 f8 fc ff ff 	mov    rsi,QWORD PTR [rbp-0x308]
7707:	48 8d 95 10 fe ff ff 	lea    rdx,[rbp-0x1f0]
770e:	bf 01 00 00 00       	mov    edi,0x1
7713:	e8 f8 b1 ff ff       	call   2910 <__lxstat@plt>
7718:	85 c0                	test   eax,eax
771a:	0f 85 05 0a 00 00    	jne    8125 <copy_internal+0x26a5>
7720:	44 8b a5 28 fe ff ff 	mov    r12d,DWORD PTR [rbp-0x1d8]
7727:	c6 85 d0 fc ff ff 00 	mov    BYTE PTR [rbp-0x330],0x0
772e:	44 89 e0             	mov    eax,r12d
7731:	25 c0 01 00 00       	and    eax,0x1c0
7736:	3d c0 01 00 00       	cmp    eax,0x1c0
773b:	74 2b                	je     7768 <copy_internal+0x1ce8>
773d:	48 8b bd f8 fc ff ff 	mov    rdi,QWORD PTR [rbp-0x308]
7744:	44 89 e6             	mov    esi,r12d
7747:	81 ce c0 01 00 00    	or     esi,0x1c0
774d:	e8 3e b5 ff ff       	call   2c90 <chmod@plt>
7752:	85 c0                	test   eax,eax
7754:	44 89 a5 74 fc ff ff 	mov    DWORD PTR [rbp-0x38c],r12d
775b:	c6 85 d0 fc ff ff 01 	mov    BYTE PTR [rbp-0x330],0x1
7762:	0f 85 1b 10 00 00    	jne    8783 <copy_internal+0x2d03>
7768:	48 8b 85 c8 fc ff ff 	mov    rax,QWORD PTR [rbp-0x338]
776f:	80 38 00             	cmp    BYTE PTR [rax],0x0
7772:	0f 84 f4 0d 00 00    	je     856c <copy_internal+0x2aec>
7778:	80 7b 2e 00          	cmp    BYTE PTR [rbx+0x2e],0x0
777c:	74 4a                	je     77c8 <copy_internal+0x1d48>
777e:	80 7b 18 00          	cmp    BYTE PTR [rbx+0x18],0x0
7782:	0f 84 a5 0e 00 00    	je     862d <copy_internal+0x2bad>
7788:	48 8b b5 f8 fc ff ff 	mov    rsi,QWORD PTR [rbp-0x308]
778f:	bf 04 00 00 00       	mov    edi,0x4
7794:	e8 17 73 00 00       	call   eab0 <quotearg_style>
7799:	48 8d 35 1b d7 00 00 	lea    rsi,[rip+0xd71b]        # 14ebb <sparse_type+0x1e3b>
77a0:	49 89 c4             	mov    r12,rax
77a3:	ba 05 00 00 00       	mov    edx,0x5
77a8:	31 ff                	xor    edi,edi
77aa:	e8 31 b1 ff ff       	call   28e0 <dcgettext@plt>
77af:	4c 89 e2             	mov    rdx,r12
77b2:	48 89 c6             	mov    rsi,rax
77b5:	bf 01 00 00 00       	mov    edi,0x1
77ba:	31 c0                	xor    eax,eax
77bc:	e8 9f b4 ff ff       	call   2c60 <__printf_chk@plt>
77c1:	0f 1f 80 00 00 00 00 	nop    DWORD PTR [rax+0x0]
77c8:	48 8b 85 b8 fc ff ff 	mov    rax,QWORD PTR [rbp-0x348]
77cf:	48 85 c0             	test   rax,rax
77d2:	41 0f 95 c4          	setne  r12b
77d6:	44 22 63 1c          	and    r12b,BYTE PTR [rbx+0x1c]
77da:	0f 85 db 07 00 00    	jne    7fbb <copy_internal+0x253b>
77e0:	f3 0f 6f 03          	movdqu xmm0,XMMWORD PTR [rbx]
77e4:	be 02 00 00 00       	mov    esi,0x2
77e9:	48 8b bd f0 fc ff ff 	mov    rdi,QWORD PTR [rbp-0x310]
77f0:	0f 29 85 10 fd ff ff 	movaps XMMWORD PTR [rbp-0x2f0],xmm0
77f7:	f3 0f 6f 43 10       	movdqu xmm0,XMMWORD PTR [rbx+0x10]
77fc:	0f 29 85 20 fd ff ff 	movaps XMMWORD PTR [rbp-0x2e0],xmm0
7803:	f3 0f 6f 43 20       	movdqu xmm0,XMMWORD PTR [rbx+0x20]
7808:	0f 29 85 30 fd ff ff 	movaps XMMWORD PTR [rbp-0x2d0],xmm0
780f:	f3 0f 6f 43 30       	movdqu xmm0,XMMWORD PTR [rbx+0x30]
7814:	0f 29 85 40 fd ff ff 	movaps XMMWORD PTR [rbp-0x2c0],xmm0
781b:	f3 0f 6f 43 40       	movdqu xmm0,XMMWORD PTR [rbx+0x40]
7820:	0f 29 85 50 fd ff ff 	movaps XMMWORD PTR [rbp-0x2b0],xmm0
7827:	e8 e4 7d 00 00       	call   f610 <savedir>
782c:	48 85 c0             	test   rax,rax
782f:	48 89 85 98 fc ff ff 	mov    QWORD PTR [rbp-0x368],rax
7836:	0f 84 5c 0e 00 00    	je     8698 <copy_internal+0x2c18>
783c:	83 7b 04 03          	cmp    DWORD PTR [rbx+0x4],0x3
7840:	75 0a                	jne    784c <copy_internal+0x1dcc>
7842:	c7 85 14 fd ff ff 02 	mov    DWORD PTR [rbp-0x2ec],0x2
7849:	00 00 00
784c:	48 8b 85 98 fc ff ff 	mov    rax,QWORD PTR [rbp-0x368]
7853:	80 38 00             	cmp    BYTE PTR [rax],0x0
7856:	0f 84 39 15 00 00    	je     8d95 <copy_internal+0x3315>
785c:	48 8d 85 10 fd ff ff 	lea    rax,[rbp-0x2f0]
7863:	4c 8d 95 80 fd ff ff 	lea    r10,[rbp-0x280]
786a:	44 89 ad 80 fc ff ff 	mov    DWORD PTR [rbp-0x380],r13d
7871:	4c 8b bd 98 fc ff ff 	mov    r15,QWORD PTR [rbp-0x368]
7878:	4c 8b ad c0 fc ff ff 	mov    r13,QWORD PTR [rbp-0x340]
787f:	41 bc 01 00 00 00    	mov    r12d,0x1
7885:	48 89 85 b8 fc ff ff 	mov    QWORD PTR [rbp-0x348],rax
788c:	48 8d 85 07 fd ff ff 	lea    rax,[rbp-0x2f9]
7893:	c6 85 eb fc ff ff 00 	mov    BYTE PTR [rbp-0x315],0x0
789a:	44 88 b5 90 fc ff ff 	mov    BYTE PTR [rbp-0x370],r14b
78a1:	48 89 9d 88 fc ff ff 	mov    QWORD PTR [rbp-0x378],rbx
78a8:	48 89 85 b0 fc ff ff 	mov    QWORD PTR [rbp-0x350],rax
78af:	48 8d 85 08 fd ff ff 	lea    rax,[rbp-0x2f8]
78b6:	4c 89 95 c0 fc ff ff 	mov    QWORD PTR [rbp-0x340],r10
78bd:	48 89 85 a8 fc ff ff 	mov    QWORD PTR [rbp-0x358],rax
78c4:	eb 2e                	jmp    78f4 <copy_internal+0x1e74>
78c6:	66 2e 0f 1f 84 00 00 	nop    WORD PTR cs:[rax+rax*1+0x0]
78cd:	00 00 00
78d0:	0f b6 85 08 fd ff ff 	movzx  eax,BYTE PTR [rbp-0x2f8]
78d7:	4c 89 ff             	mov    rdi,r15
78da:	08 85 eb fc ff ff    	or     BYTE PTR [rbp-0x315],al
78e0:	e8 1b b0 ff ff       	call   2900 <strlen@plt>
78e5:	4d 8d 7c 07 01       	lea    r15,[r15+rax*1+0x1]
78ea:	41 80 3f 00          	cmp    BYTE PTR [r15],0x0
78ee:	0f 84 9d 00 00 00    	je     7991 <copy_internal+0x1f11>
78f4:	48 8b bd f0 fc ff ff 	mov    rdi,QWORD PTR [rbp-0x310]
78fb:	31 d2                	xor    edx,edx
78fd:	4c 89 fe             	mov    rsi,r15
7900:	e8 bb 40 00 00       	call   b9c0 <file_name_concat>
7905:	48 8b bd f8 fc ff ff 	mov    rdi,QWORD PTR [rbp-0x308]
790c:	31 d2                	xor    edx,edx
790e:	4c 89 fe             	mov    rsi,r15
7911:	48 89 c3             	mov    rbx,rax
7914:	e8 a7 40 00 00       	call   b9c0 <file_name_concat>
7919:	49 89 c6             	mov    r14,rax
791c:	48 8b 85 c8 fc ff ff 	mov    rax,QWORD PTR [rbp-0x338]
7923:	4c 8b 8d b8 fc ff ff 	mov    r9,QWORD PTR [rbp-0x348]
792a:	4c 8b 85 d8 fc ff ff 	mov    r8,QWORD PTR [rbp-0x328]
7931:	48 8b 8d c0 fc ff ff 	mov    rcx,QWORD PTR [rbp-0x340]
7938:	4c 89 f6             	mov    rsi,r14
793b:	8b 95 e0 fc ff ff    	mov    edx,DWORD PTR [rbp-0x320]
7941:	48 89 df             	mov    rdi,rbx
7944:	0f b6 00             	movzx  eax,BYTE PTR [rax]
7947:	6a 00                	push   0x0
7949:	ff b5 b0 fc ff ff    	push   QWORD PTR [rbp-0x350]
794f:	ff b5 a8 fc ff ff    	push   QWORD PTR [rbp-0x358]
7955:	6a 00                	push   0x0
7957:	88 85 08 fd ff ff    	mov    BYTE PTR [rbp-0x2f8],al
795d:	e8 1e e1 ff ff       	call   5a80 <copy_internal>
7962:	41 21 c4             	and    r12d,eax
7965:	0f b6 85 07 fd ff ff 	movzx  eax,BYTE PTR [rbp-0x2f9]
796c:	48 83 c4 20          	add    rsp,0x20
7970:	41 08 45 00          	or     BYTE PTR [r13+0x0],al
7974:	4c 89 f7             	mov    rdi,r14
7977:	e8 94 b4 ff ff       	call   2e10 <free@plt>
797c:	48 89 df             	mov    rdi,rbx
797f:	e8 8c b4 ff ff       	call   2e10 <free@plt>
7984:	80 bd 07 fd ff ff 00 	cmp    BYTE PTR [rbp-0x2f9],0x0
798b:	0f 84 3f ff ff ff    	je     78d0 <copy_internal+0x1e50>
7991:	44 0f b6 b5 90 fc ff 	movzx  r14d,BYTE PTR [rbp-0x370]
7998:	ff
7999:	48 8b 9d 88 fc ff ff 	mov    rbx,QWORD PTR [rbp-0x378]
79a0:	44 8b ad 80 fc ff ff 	mov    r13d,DWORD PTR [rbp-0x380]
79a7:	48 8b bd 98 fc ff ff 	mov    rdi,QWORD PTR [rbp-0x368]
79ae:	e8 5d b4 ff ff       	call   2e10 <free@plt>
79b3:	0f b6 8d eb fc ff ff 	movzx  ecx,BYTE PTR [rbp-0x315]
79ba:	48 8b 85 c8 fc ff ff 	mov    rax,QWORD PTR [rbp-0x338]
79c1:	88 08                	mov    BYTE PTR [rax],cl
79c3:	45 84 ed             	test   r13b,r13b
79c6:	0f 85 d6 05 00 00    	jne    7fa2 <copy_internal+0x2522>
79cc:	0f b6 85 d0 fc ff ff 	movzx  eax,BYTE PTR [rbp-0x330]
79d3:	c6 85 e0 fc ff ff 00 	mov    BYTE PTR [rbp-0x320],0x0
79da:	88 85 eb fc ff ff    	mov    BYTE PTR [rbp-0x315],al
79e0:	e9 b5 e6 ff ff       	jmp    609a <copy_internal+0x61a>
79e5:	0f 1f 00             	nop    DWORD PTR [rax]
79e8:	80 7b 18 00          	cmp    BYTE PTR [rbx+0x18],0x0
79ec:	0f 84 09 04 00 00    	je     7dfb <copy_internal+0x237b>
79f2:	44 8b 3b             	mov    r15d,DWORD PTR [rbx]
79f5:	45 85 ff             	test   r15d,r15d
79f8:	0f 84 fd 03 00 00    	je     7dfb <copy_internal+0x237b>
79fe:	45 84 ed             	test   r13b,r13b
7a01:	0f 85 53 ed ff ff    	jne    675a <copy_internal+0xcda>
7a07:	8b 95 98 fd ff ff    	mov    edx,DWORD PTR [rbp-0x268]
7a0d:	81 e2 00 f0 00 00    	and    edx,0xf000
7a13:	81 fa 00 40 00 00    	cmp    edx,0x4000
7a19:	0f 84 b7 05 00 00    	je     7fd6 <copy_internal+0x2556>
7a1f:	48 8b bd f0 fc ff ff 	mov    rdi,QWORD PTR [rbp-0x310]
7a26:	44 88 8d a8 fc ff ff 	mov    BYTE PTR [rbp-0x358],r9b
7a2d:	44 88 85 b0 fc ff ff 	mov    BYTE PTR [rbp-0x350],r8b
7a34:	e8 57 3b 00 00       	call   b590 <last_component>
7a39:	80 38 2e             	cmp    BYTE PTR [rax],0x2e
7a3c:	49 89 c6             	mov    r14,rax
7a3f:	44 0f b6 85 b0 fc ff 	movzx  r8d,BYTE PTR [rbp-0x350]
7a46:	ff
7a47:	44 0f b6 8d a8 fc ff 	movzx  r9d,BYTE PTR [rbp-0x358]
7a4e:	ff
7a4f:	0f 85 88 ed ff ff    	jne    67dd <copy_internal+0xd5d>
7a55:	b8 01 00 00 00       	mov    eax,0x1
7a5a:	e9 43 ed ff ff       	jmp    67a2 <copy_internal+0xd22>
7a5f:	90                   	nop
7a60:	48 8b b5 a8 fc ff ff 	mov    rsi,QWORD PTR [rbp-0x358]
7a67:	48 8b bd f8 fc ff ff 	mov    rdi,QWORD PTR [rbp-0x308]
7a6e:	e8 cd 77 00 00       	call   f240 <same_name>
7a73:	84 c0                	test   al,al
7a75:	0f 85 cf 06 00 00    	jne    814a <copy_internal+0x26ca>
7a7b:	8b 43 04             	mov    eax,DWORD PTR [rbx+0x4]
7a7e:	83 f8 04             	cmp    eax,0x4
7a81:	0f 84 79 f5 ff ff    	je     7000 <copy_internal+0x1580>
7a87:	83 f8 03             	cmp    eax,0x3
7a8a:	75 09                	jne    7a95 <copy_internal+0x2015>
7a8c:	45 84 ed             	test   r13b,r13b
7a8f:	0f 85 6b f5 ff ff    	jne    7000 <copy_internal+0x1580>
7a95:	48 8b 95 a8 fc ff ff 	mov    rdx,QWORD PTR [rbp-0x358]
7a9c:	be 04 00 00 00       	mov    esi,0x4
7aa1:	bf 01 00 00 00       	mov    edi,0x1
7aa6:	e8 e5 6e 00 00       	call   e990 <quotearg_n_style>
7aab:	48 8b 95 f8 fc ff ff 	mov    rdx,QWORD PTR [rbp-0x308]
7ab2:	31 ff                	xor    edi,edi
7ab4:	be 04 00 00 00       	mov    esi,0x4
7ab9:	49 89 c5             	mov    r13,rax
7abc:	e8 cf 6e 00 00       	call   e990 <quotearg_n_style>
7ac1:	48 8d 35 e8 cf 00 00 	lea    rsi,[rip+0xcfe8]        # 14ab0 <sparse_type+0x1a30>
7ac8:	49 89 c4             	mov    r12,rax
7acb:	31 ff                	xor    edi,edi
7acd:	ba 05 00 00 00       	mov    edx,0x5
7ad2:	e8 09 ae ff ff       	call   28e0 <dcgettext@plt>
7ad7:	4d 89 e8             	mov    r8,r13
7ada:	48 89 c2             	mov    rdx,rax
7add:	4c 89 e1             	mov    rcx,r12
7ae0:	31 f6                	xor    esi,esi
7ae2:	31 ff                	xor    edi,edi
7ae4:	31 c0                	xor    eax,eax
7ae6:	e8 c5 b1 ff ff       	call   2cb0 <error@plt>
7aeb:	e9 96 f0 ff ff       	jmp    6b86 <copy_internal+0x1106>
7af0:	80 7b 17 00          	cmp    BYTE PTR [rbx+0x17],0x0
7af4:	0f 84 9e f0 ff ff    	je     6b98 <copy_internal+0x1118>
7afa:	48 c7 85 a8 fc ff ff 	mov    QWORD PTR [rbp-0x358],0x0
7b01:	00 00 00 00
7b05:	e9 c9 f0 ff ff       	jmp    6bd3 <copy_internal+0x1153>
7b0a:	66 0f 1f 44 00 00    	nop    WORD PTR [rax+rax*1+0x0]
7b10:	8b 85 98 fd ff ff    	mov    eax,DWORD PTR [rbp-0x268]
7b16:	31 f6                	xor    esi,esi
7b18:	83 7b 04 02          	cmp    DWORD PTR [rbx+0x4],0x2
7b1c:	48 8b bd f0 fc ff ff 	mov    rdi,QWORD PTR [rbp-0x310]
7b23:	89 85 c0 fc ff ff    	mov    DWORD PTR [rbp-0x340],eax
7b29:	0f b6 43 23          	movzx  eax,BYTE PTR [rbx+0x23]
7b2d:	40 0f 94 c6          	sete   sil
7b31:	c1 e6 11             	shl    esi,0x11
7b34:	88 85 c8 fc ff ff    	mov    BYTE PTR [rbp-0x338],al
7b3a:	31 c0                	xor    eax,eax
7b3c:	e8 7f 3b 00 00       	call   b6c0 <open_safer>
7b41:	85 c0                	test   eax,eax
7b43:	89 85 e0 fc ff ff    	mov    DWORD PTR [rbp-0x320],eax
7b49:	0f 88 fc 06 00 00    	js     824b <copy_internal+0x27cb>
7b4f:	8b b5 e0 fc ff ff    	mov    esi,DWORD PTR [rbp-0x320]
7b55:	48 8d 95 a0 fe ff ff 	lea    rdx,[rbp-0x160]
7b5c:	bf 01 00 00 00       	mov    edi,0x1
7b61:	e8 8a b0 ff ff       	call   2bf0 <__fxstat@plt>
7b66:	85 c0                	test   eax,eax
7b68:	0f 85 19 09 00 00    	jne    8487 <copy_internal+0x2a07>
7b6e:	48 8b 85 a8 fe ff ff 	mov    rax,QWORD PTR [rbp-0x158]
7b75:	48 39 85 88 fd ff ff 	cmp    QWORD PTR [rbp-0x278],rax
7b7c:	75 14                	jne    7b92 <copy_internal+0x2112>
7b7e:	48 8b 85 a0 fe ff ff 	mov    rax,QWORD PTR [rbp-0x160]
7b85:	48 39 85 80 fd ff ff 	cmp    QWORD PTR [rbp-0x280],rax
7b8c:	0f 84 24 0d 00 00    	je     88b6 <copy_internal+0x2e36>
7b92:	48 8b b5 f0 fc ff ff 	mov    rsi,QWORD PTR [rbp-0x310]
7b99:	bf 04 00 00 00       	mov    edi,0x4
7b9e:	e8 0d 6f 00 00       	call   eab0 <quotearg_style>
7ba3:	48 8d 35 ce cf 00 00 	lea    rsi,[rip+0xcfce]        # 14b78 <sparse_type+0x1af8>
7baa:	49 89 c4             	mov    r12,rax
7bad:	ba 05 00 00 00       	mov    edx,0x5
7bb2:	31 ff                	xor    edi,edi
7bb4:	e8 27 ad ff ff       	call   28e0 <dcgettext@plt>
7bb9:	4c 89 e1             	mov    rcx,r12
7bbc:	48 89 c2             	mov    rdx,rax
7bbf:	31 f6                	xor    esi,esi
7bc1:	31 ff                	xor    edi,edi
7bc3:	31 c0                	xor    eax,eax
7bc5:	e8 e6 b0 ff ff       	call   2cb0 <error@plt>
7bca:	45 31 c0             	xor    r8d,r8d
7bcd:	48 c7 85 d0 fc ff ff 	mov    QWORD PTR [rbp-0x330],0x0
7bd4:	00 00 00 00
7bd8:	8b bd e0 fc ff ff    	mov    edi,DWORD PTR [rbp-0x320]
7bde:	44 88 85 d8 fc ff ff 	mov    BYTE PTR [rbp-0x328],r8b
7be5:	e8 46 ae ff ff       	call   2a30 <close@plt>
7bea:	85 c0                	test   eax,eax
7bec:	44 0f b6 85 d8 fc ff 	movzx  r8d,BYTE PTR [rbp-0x328]
7bf3:	ff
7bf4:	0f 88 4d 0a 00 00    	js     8647 <copy_internal+0x2bc7>
7bfa:	48 8b bd d0 fc ff ff 	mov    rdi,QWORD PTR [rbp-0x330]
7c01:	44 88 85 d8 fc ff ff 	mov    BYTE PTR [rbp-0x328],r8b
7c08:	e8 03 b2 ff ff       	call   2e10 <free@plt>
7c0d:	44 0f b6 85 d8 fc ff 	movzx  r8d,BYTE PTR [rbp-0x328]
7c14:	ff
7c15:	c6 85 e0 fc ff ff 00 	mov    BYTE PTR [rbp-0x320],0x0
7c1c:	45 84 c0             	test   r8b,r8b
7c1f:	0f 85 da e3 ff ff    	jne    5fff <copy_internal+0x57f>
7c25:	e9 e6 ed ff ff       	jmp    6a10 <copy_internal+0xf90>
7c2a:	66 0f 1f 44 00 00    	nop    WORD PTR [rax+rax*1+0x0]
7c30:	8b 85 98 fd ff ff    	mov    eax,DWORD PTR [rbp-0x268]
7c36:	25 00 f0 00 00       	and    eax,0xf000
7c3b:	3d 00 40 00 00       	cmp    eax,0x4000
7c40:	0f 84 8a 03 00 00    	je     7fd0 <copy_internal+0x2550>
7c46:	45 85 ff             	test   r15d,r15d
7c49:	0f 84 58 f6 ff ff    	je     72a7 <copy_internal+0x1827>
7c4f:	e9 cb fd ff ff       	jmp    7a1f <copy_internal+0x1f9f>
7c54:	0f 1f 40 00          	nop    DWORD PTR [rax+0x0]
7c58:	48 8d 95 a0 fe ff ff 	lea    rdx,[rbp-0x160]
7c5f:	4c 89 c6             	mov    rsi,r8
7c62:	bf 01 00 00 00       	mov    edi,0x1
7c67:	e8 34 af ff ff       	call   2ba0 <__xstat@plt>
7c6c:	85 c0                	test   eax,eax
7c6e:	0f 85 08 ed ff ff    	jne    697c <copy_internal+0xefc>
7c74:	48 8d 95 30 ff ff ff 	lea    rdx,[rbp-0xd0]
7c7b:	4c 89 e6             	mov    rsi,r12
7c7e:	bf 01 00 00 00       	mov    edi,0x1
7c83:	e8 18 af ff ff       	call   2ba0 <__xstat@plt>
7c88:	85 c0                	test   eax,eax
7c8a:	0f 85 ec ec ff ff    	jne    697c <copy_internal+0xefc>
7c90:	48 8b 85 38 ff ff ff 	mov    rax,QWORD PTR [rbp-0xc8]
7c97:	48 39 85 a8 fe ff ff 	cmp    QWORD PTR [rbp-0x158],rax
7c9e:	0f 84 03 11 00 00    	je     8da7 <copy_internal+0x3327>
7ca4:	4c 89 e7             	mov    rdi,r12
7ca7:	e8 64 b1 ff ff       	call   2e10 <free@plt>
7cac:	48 8b 95 f8 fc ff ff 	mov    rdx,QWORD PTR [rbp-0x308]
7cb3:	be 03 00 00 00       	mov    esi,0x3
7cb8:	31 ff                	xor    edi,edi
7cba:	e8 f1 6e 00 00       	call   ebb0 <quotearg_n_style_colon>
7cbf:	ba 05 00 00 00       	mov    edx,0x5
7cc4:	49 89 c4             	mov    r12,rax
7cc7:	48 8d 35 52 cf 00 00 	lea    rsi,[rip+0xcf52]        # 14c20 <sparse_type+0x1ba0>
7cce:	e9 55 e9 ff ff       	jmp    6628 <copy_internal+0xba8>
7cd3:	8b 85 28 fe ff ff    	mov    eax,DWORD PTR [rbp-0x1d8]
7cd9:	48 8d 95 80 fd ff ff 	lea    rdx,[rbp-0x280]
7ce0:	25 00 f0 00 00       	and    eax,0xf000
7ce5:	3d 00 a0 00 00       	cmp    eax,0xa000
7cea:	0f 85 42 f3 ff ff    	jne    7032 <copy_internal+0x15b2>
7cf0:	48 8b b5 f8 fc ff ff 	mov    rsi,QWORD PTR [rbp-0x308]
7cf7:	48 8b bd f0 fc ff ff 	mov    rdi,QWORD PTR [rbp-0x310]
7cfe:	44 88 8d a8 fc ff ff 	mov    BYTE PTR [rbp-0x358],r9b
7d05:	44 88 85 b0 fc ff ff 	mov    BYTE PTR [rbp-0x350],r8b
7d0c:	e8 2f 75 00 00       	call   f240 <same_name>
7d11:	84 c0                	test   al,al
7d13:	0f 85 67 f3 ff ff    	jne    7080 <copy_internal+0x1600>
7d19:	8b 3b                	mov    edi,DWORD PTR [rbx]
7d1b:	44 0f b6 85 b0 fc ff 	movzx  r8d,BYTE PTR [rbp-0x350]
7d22:	ff
7d23:	44 0f b6 8d a8 fc ff 	movzx  r9d,BYTE PTR [rbp-0x358]
7d2a:	ff
7d2b:	85 ff                	test   edi,edi
7d2d:	0f 85 9b f1 ff ff    	jne    6ece <copy_internal+0x144e>
7d33:	45 85 ff             	test   r15d,r15d
7d36:	0f 84 92 f1 ff ff    	je     6ece <copy_internal+0x144e>
7d3c:	44 0f b6 63 18       	movzx  r12d,BYTE PTR [rbx+0x18]
7d41:	b8 01 00 00 00       	mov    eax,0x1
7d46:	41 83 f4 01          	xor    r12d,0x1
7d4a:	e9 ad f4 ff ff       	jmp    71fc <copy_internal+0x177c>
7d4f:	90                   	nop
7d50:	41 89 c7             	mov    r15d,eax
7d53:	48 b8 00 ff 00 00 00 	movabs rax,0xff000000ff00
7d5a:	ff 00 00
7d5d:	48 85 43 20          	test   QWORD PTR [rbx+0x20],rax
7d61:	0f 84 bb e2 ff ff    	je     6022 <copy_internal+0x5a2>
7d67:	0f b6 73 25          	movzx  esi,BYTE PTR [rbx+0x25]
7d6b:	48 8b bd f8 fc ff ff 	mov    rdi,QWORD PTR [rbp-0x308]
7d72:	31 d2                	xor    edx,edx
7d74:	48 89 d9             	mov    rcx,rbx
7d77:	44 88 85 d8 fc ff ff 	mov    BYTE PTR [rbp-0x328],r8b
7d7e:	e8 6d d9 ff ff       	call   56f0 <set_file_security_ctx>
7d83:	84 c0                	test   al,al
7d85:	41 89 c7             	mov    r15d,eax
7d88:	44 0f b6 85 d8 fc ff 	movzx  r8d,BYTE PTR [rbp-0x328]
7d8f:	ff
7d90:	0f 85 8c e2 ff ff    	jne    6022 <copy_internal+0x5a2>
7d96:	44 0f b6 73 26       	movzx  r14d,BYTE PTR [rbx+0x26]
7d9b:	45 84 f6             	test   r14b,r14b
7d9e:	0f 85 6c ec ff ff    	jne    6a10 <copy_internal+0xf90>
7da4:	45 89 e7             	mov    r15d,r12d
7da7:	e9 76 e2 ff ff       	jmp    6022 <copy_internal+0x5a2>
7dac:	0f 1f 40 00          	nop    DWORD PTR [rax+0x0]
7db0:	48 8d 35 e1 d0 00 00 	lea    rsi,[rip+0xd0e1]        # 14e98 <sparse_type+0x1e18>
7db7:	ba 05 00 00 00       	mov    edx,0x5
7dbc:	31 ff                	xor    edi,edi
7dbe:	e8 1d ab ff ff       	call   28e0 <dcgettext@plt>
7dc3:	bf 01 00 00 00       	mov    edi,0x1
7dc8:	48 89 c6             	mov    rsi,rax
7dcb:	31 c0                	xor    eax,eax
7dcd:	e8 8e ae ff ff       	call   2c60 <__printf_chk@plt>
7dd2:	48 8b 95 b0 fc ff ff 	mov    rdx,QWORD PTR [rbp-0x350]
7dd9:	48 8b b5 f8 fc ff ff 	mov    rsi,QWORD PTR [rbp-0x308]
7de0:	48 8b bd f0 fc ff ff 	mov    rdi,QWORD PTR [rbp-0x310]
7de7:	e8 44 d0 ff ff       	call   4e30 <emit_verbose>
7dec:	c7 85 e0 fc ff ff 01 	mov    DWORD PTR [rbp-0x320],0x1
7df3:	00 00 00
7df6:	e9 35 e1 ff ff       	jmp    5f30 <copy_internal+0x4b0>
7dfb:	48 8b 95 f0 fc ff ff 	mov    rdx,QWORD PTR [rbp-0x310]
7e02:	be 04 00 00 00       	mov    esi,0x4
7e07:	bf 01 00 00 00       	mov    edi,0x1
7e0c:	e8 7f 6b 00 00       	call   e990 <quotearg_n_style>
7e11:	48 8b 95 f8 fc ff ff 	mov    rdx,QWORD PTR [rbp-0x308]
7e18:	be 04 00 00 00       	mov    esi,0x4
7e1d:	31 ff                	xor    edi,edi
7e1f:	49 89 c4             	mov    r12,rax
7e22:	e8 69 6b 00 00       	call   e990 <quotearg_n_style>
7e27:	ba 05 00 00 00       	mov    edx,0x5
7e2c:	48 89 c3             	mov    rbx,rax
7e2f:	48 8d 35 92 ca 00 00 	lea    rsi,[rip+0xca92]        # 148c8 <sparse_type+0x1848>
7e36:	e9 80 f2 ff ff       	jmp    70bb <copy_internal+0x163b>
7e3b:	80 7b 15 00          	cmp    BYTE PTR [rbx+0x15],0x0
7e3f:	75 18                	jne    7e59 <copy_internal+0x23d9>
7e41:	80 7b 22 00          	cmp    BYTE PTR [rbx+0x22],0x0
7e45:	0f 84 db 03 00 00    	je     8226 <copy_internal+0x27a6>
7e4b:	48 83 bd 20 fe ff ff 	cmp    QWORD PTR [rbp-0x1e0],0x1
7e52:	01
7e53:	0f 86 cd 03 00 00    	jbe    8226 <copy_internal+0x27a6>
7e59:	4c 8b b5 f8 fc ff ff 	mov    r14,QWORD PTR [rbp-0x308]
7e60:	44 88 8d b0 fc ff ff 	mov    BYTE PTR [rbp-0x350],r9b
7e67:	4c 89 f7             	mov    rdi,r14
7e6a:	e8 11 a9 ff ff       	call   2780 <unlink@plt>
7e6f:	85 c0                	test   eax,eax
7e71:	44 0f b6 8d b0 fc ff 	movzx  r9d,BYTE PTR [rbp-0x350]
7e78:	ff
7e79:	0f 84 74 03 00 00    	je     81f3 <copy_internal+0x2773>
7e7f:	e8 ec a8 ff ff       	call   2770 <__errno_location@plt>
7e84:	83 38 02             	cmp    DWORD PTR [rax],0x2
7e87:	49 89 c7             	mov    r15,rax
7e8a:	44 0f b6 8d b0 fc ff 	movzx  r9d,BYTE PTR [rbp-0x350]
7e91:	ff
7e92:	0f 84 5b 03 00 00    	je     81f3 <copy_internal+0x2773>
7e98:	4c 89 f6             	mov    rsi,r14
7e9b:	bf 04 00 00 00       	mov    edi,0x4
7ea0:	e8 0b 6c 00 00       	call   eab0 <quotearg_style>
7ea5:	48 8d 35 bd cf 00 00 	lea    rsi,[rip+0xcfbd]        # 14e69 <sparse_type+0x1de9>
7eac:	31 ff                	xor    edi,edi
7eae:	ba 05 00 00 00       	mov    edx,0x5
7eb3:	48 89 c3             	mov    rbx,rax
7eb6:	e8 25 aa ff ff       	call   28e0 <dcgettext@plt>
7ebb:	41 8b 37             	mov    esi,DWORD PTR [r15]
7ebe:	48 89 c2             	mov    rdx,rax
7ec1:	48 89 d9             	mov    rcx,rbx
7ec4:	31 ff                	xor    edi,edi
7ec6:	31 c0                	xor    eax,eax
7ec8:	e8 e3 ad ff ff       	call   2cb0 <error@plt>
7ecd:	e9 f4 e3 ff ff       	jmp    62c6 <copy_internal+0x846>
7ed2:	48 8d 85 30 ff ff ff 	lea    rax,[rbp-0xd0]
7ed9:	48 8b b5 f0 fc ff ff 	mov    rsi,QWORD PTR [rbp-0x310]
7ee0:	bf 01 00 00 00       	mov    edi,0x1
7ee5:	48 89 c2             	mov    rdx,rax
7ee8:	48 89 85 98 fc ff ff 	mov    QWORD PTR [rbp-0x368],rax
7eef:	e8 1c aa ff ff       	call   2910 <__lxstat@plt>
7ef4:	85 c0                	test   eax,eax
7ef6:	44 0f b6 85 b0 fc ff 	movzx  r8d,BYTE PTR [rbp-0x350]
7efd:	ff
7efe:	44 0f b6 8d a8 fc ff 	movzx  r9d,BYTE PTR [rbp-0x358]
7f05:	ff
7f06:	0f 85 c2 ef ff ff    	jne    6ece <copy_internal+0x144e>
7f0c:	31 c9                	xor    ecx,ecx
7f0e:	48 8b 85 a8 fe ff ff 	mov    rax,QWORD PTR [rbp-0x158]
7f15:	48 39 85 38 ff ff ff 	cmp    QWORD PTR [rbp-0xc8],rax
7f1c:	75 11                	jne    7f2f <copy_internal+0x24af>
7f1e:	48 8b 85 a0 fe ff ff 	mov    rax,QWORD PTR [rbp-0x160]
7f25:	48 39 85 30 ff ff ff 	cmp    QWORD PTR [rbp-0xd0],rax
7f2c:	0f 94 c1             	sete   cl
7f2f:	8b 85 48 ff ff ff    	mov    eax,DWORD PTR [rbp-0xb8]
7f35:	48 8b 95 98 fc ff ff 	mov    rdx,QWORD PTR [rbp-0x368]
7f3c:	25 00 f0 00 00       	and    eax,0xf000
7f41:	3d 00 a0 00 00       	cmp    eax,0xa000
7f46:	0f 85 e6 f0 ff ff    	jne    7032 <copy_internal+0x15b2>
7f4c:	8b 85 b8 fe ff ff    	mov    eax,DWORD PTR [rbp-0x148]
7f52:	25 00 f0 00 00       	and    eax,0xf000
7f57:	3d 00 a0 00 00       	cmp    eax,0xa000
7f5c:	0f 85 d0 f0 ff ff    	jne    7032 <copy_internal+0x15b2>
7f62:	80 7b 15 00          	cmp    BYTE PTR [rbx+0x15],0x0
7f66:	0f 84 c6 f0 ff ff    	je     7032 <copy_internal+0x15b2>
7f6c:	e9 5d ef ff ff       	jmp    6ece <copy_internal+0x144e>
7f71:	0f 1f 80 00 00 00 00 	nop    DWORD PTR [rax+0x0]
7f78:	48 b8 00 ff 00 00 00 	movabs rax,0xff000000ff00
7f7f:	ff 00 00
7f82:	48 85 43 20          	test   QWORD PTR [rbx+0x20],rax
7f86:	0f 85 b4 05 00 00    	jne    8540 <copy_internal+0x2ac0>
7f8c:	c6 85 d0 fc ff ff 00 	mov    BYTE PTR [rbp-0x330],0x0
7f93:	c7 85 a4 fc ff ff 00 	mov    DWORD PTR [rbp-0x35c],0x0
7f9a:	00 00 00
7f9d:	e9 26 f8 ff ff       	jmp    77c8 <copy_internal+0x1d48>
7fa2:	44 88 a5 eb fc ff ff 	mov    BYTE PTR [rbp-0x315],r12b
7fa9:	45 31 ff             	xor    r15d,r15d
7fac:	45 31 c0             	xor    r8d,r8d
7faf:	c6 85 e0 fc ff ff 00 	mov    BYTE PTR [rbp-0x320],0x0
7fb6:	e9 79 e0 ff ff       	jmp    6034 <copy_internal+0x5b4>
7fbb:	48 8b 8d 80 fd ff ff 	mov    rcx,QWORD PTR [rbp-0x280]
7fc2:	48 39 08             	cmp    QWORD PTR [rax],rcx
7fc5:	0f 85 f8 f9 ff ff    	jne    79c3 <copy_internal+0x1f43>
7fcb:	e9 10 f8 ff ff       	jmp    77e0 <copy_internal+0x1d60>
7fd0:	8b 85 28 fe ff ff    	mov    eax,DWORD PTR [rbp-0x1d8]
7fd6:	25 00 f0 00 00       	and    eax,0xf000
7fdb:	3d 00 40 00 00       	cmp    eax,0x4000
7fe0:	0f 84 60 fc ff ff    	je     7c46 <copy_internal+0x21c6>
7fe6:	45 85 ff             	test   r15d,r15d
7fe9:	0f 85 30 fa ff ff    	jne    7a1f <copy_internal+0x1f9f>
7fef:	48 8b 95 f8 fc ff ff 	mov    rdx,QWORD PTR [rbp-0x308]
7ff6:	be 03 00 00 00       	mov    esi,0x3
7ffb:	31 ff                	xor    edi,edi
7ffd:	e8 ae 6b 00 00       	call   ebb0 <quotearg_n_style_colon>
8002:	48 8b 95 f0 fc ff ff 	mov    rdx,QWORD PTR [rbp-0x310]
8009:	be 03 00 00 00       	mov    esi,0x3
800e:	31 ff                	xor    edi,edi
8010:	49 89 c4             	mov    r12,rax
8013:	e8 98 6b 00 00       	call   ebb0 <quotearg_n_style_colon>
8018:	ba 05 00 00 00       	mov    edx,0x5
801d:	48 89 c3             	mov    rbx,rax
8020:	48 8d 35 41 c9 00 00 	lea    rsi,[rip+0xc941]        # 14968 <sparse_type+0x18e8>
8027:	e9 8f f0 ff ff       	jmp    70bb <copy_internal+0x163b>
802c:	8b 95 a4 fc ff ff    	mov    edx,DWORD PTR [rbp-0x35c]
8032:	48 8b 85 a8 fd ff ff 	mov    rax,QWORD PTR [rbp-0x258]
8039:	48 8d 8d 10 fd ff ff 	lea    rcx,[rbp-0x2f0]
8040:	48 8b b5 f8 fc ff ff 	mov    rsi,QWORD PTR [rbp-0x308]
8047:	31 ff                	xor    edi,edi
8049:	44 88 85 d8 fc ff ff 	mov    BYTE PTR [rbp-0x328],r8b
8050:	f7 d2                	not    edx
8052:	23 95 ec fc ff ff    	and    edx,DWORD PTR [rbp-0x314]
8058:	48 89 85 10 fd ff ff 	mov    QWORD PTR [rbp-0x2f0],rax
805f:	e8 0c ab ff ff       	call   2b70 <__xmknod@plt>
8064:	85 c0                	test   eax,eax
8066:	c6 85 e0 fc ff ff 00 	mov    BYTE PTR [rbp-0x320],0x0
806d:	44 0f b6 85 d8 fc ff 	movzx  r8d,BYTE PTR [rbp-0x328]
8074:	ff
8075:	0f 84 84 df ff ff    	je     5fff <copy_internal+0x57f>
807b:	48 8b b5 f8 fc ff ff 	mov    rsi,QWORD PTR [rbp-0x308]
8082:	bf 04 00 00 00       	mov    edi,0x4
8087:	e8 24 6a 00 00       	call   eab0 <quotearg_style>
808c:	ba 05 00 00 00       	mov    edx,0x5
8091:	49 89 c5             	mov    r13,rax
8094:	48 8d 35 2f cf 00 00 	lea    rsi,[rip+0xcf2f]        # 14fca <sparse_type+0x1f4a>
809b:	e9 bf ee ff ff       	jmp    6f5f <copy_internal+0x14df>
80a0:	e8 ab 86 00 00       	call   10750 <utimens>
80a5:	85 c0                	test   eax,eax
80a7:	0f 84 b8 e0 ff ff    	je     6165 <copy_internal+0x6e5>
80ad:	e9 58 e0 ff ff       	jmp    610a <copy_internal+0x68a>
80b2:	48 8b 7b 40          	mov    rdi,QWORD PTR [rbx+0x40]
80b6:	48 8b b5 f8 fc ff ff 	mov    rsi,QWORD PTR [rbp-0x308]
80bd:	4c 89 e2             	mov    rdx,r12
80c0:	e8 6b 36 00 00       	call   b730 <record_file>
80c5:	44 0f b6 85 d8 fc ff 	movzx  r8d,BYTE PTR [rbp-0x328]
80cc:	ff
80cd:	e9 9b df ff ff       	jmp    606d <copy_internal+0x5ed>
80d2:	48 8b b5 f8 fc ff ff 	mov    rsi,QWORD PTR [rbp-0x308]
80d9:	48 8b bd f0 fc ff ff 	mov    rdi,QWORD PTR [rbp-0x310]
80e0:	44 88 8d a8 fc ff ff 	mov    BYTE PTR [rbp-0x358],r9b
80e7:	44 88 85 b0 fc ff ff 	mov    BYTE PTR [rbp-0x350],r8b
80ee:	e8 4d 71 00 00       	call   f240 <same_name>
80f3:	83 f0 01             	xor    eax,0x1
80f6:	44 0f b6 85 b0 fc ff 	movzx  r8d,BYTE PTR [rbp-0x350]
80fd:	ff
80fe:	44 0f b6 8d a8 fc ff 	movzx  r9d,BYTE PTR [rbp-0x358]
8105:	ff
8106:	41 89 c4             	mov    r12d,eax
8109:	31 c0                	xor    eax,eax
810b:	e9 ec f0 ff ff       	jmp    71fc <copy_internal+0x177c>
8110:	44 0f b6 85 b0 fc ff 	movzx  r8d,BYTE PTR [rbp-0x350]
8117:	ff
8118:	44 0f b6 8d a8 fc ff 	movzx  r9d,BYTE PTR [rbp-0x358]
811f:	ff
8120:	e9 eb e5 ff ff       	jmp    6710 <copy_internal+0xc90>
8125:	48 8b b5 f8 fc ff ff 	mov    rsi,QWORD PTR [rbp-0x308]
812c:	bf 04 00 00 00       	mov    edi,0x4
8131:	e8 7a 69 00 00       	call   eab0 <quotearg_style>
8136:	ba 05 00 00 00       	mov    edx,0x5
813b:	49 89 c5             	mov    r13,rax
813e:	48 8d 35 d2 cc 00 00 	lea    rsi,[rip+0xccd2]        # 14e17 <sparse_type+0x1d97>
8145:	e9 15 ee ff ff       	jmp    6f5f <copy_internal+0x14df>
814a:	48 8b 35 1f 24 21 00 	mov    rsi,QWORD PTR [rip+0x21241f]        # 21a570 <top_level_src_name>
8151:	bf 04 00 00 00       	mov    edi,0x4
8156:	e8 55 69 00 00       	call   eab0 <quotearg_style>
815b:	48 8d 35 16 c9 00 00 	lea    rsi,[rip+0xc916]        # 14a78 <sparse_type+0x19f8>
8162:	31 ff                	xor    edi,edi
8164:	49 89 c4             	mov    r12,rax
8167:	ba 05 00 00 00       	mov    edx,0x5
816c:	e8 6f a7 ff ff       	call   28e0 <dcgettext@plt>
8171:	31 f6                	xor    esi,esi
8173:	48 89 c2             	mov    rdx,rax
8176:	31 ff                	xor    edi,edi
8178:	31 c0                	xor    eax,eax
817a:	4c 89 e1             	mov    rcx,r12
817d:	e8 2e ab ff ff       	call   2cb0 <error@plt>
8182:	80 7b 18 00          	cmp    BYTE PTR [rbx+0x18],0x0
8186:	0f 85 78 eb ff ff    	jne    6d04 <copy_internal+0x1284>
818c:	e9 2f e1 ff ff       	jmp    62c0 <copy_internal+0x840>
8191:	44 88 8d b0 fc ff ff 	mov    BYTE PTR [rbp-0x350],r9b
8198:	e8 d3 a5 ff ff       	call   2770 <__errno_location@plt>
819d:	83 38 02             	cmp    DWORD PTR [rax],0x2
81a0:	49 89 c4             	mov    r12,rax
81a3:	44 0f b6 8d b0 fc ff 	movzx  r9d,BYTE PTR [rbp-0x350]
81aa:	ff
81ab:	0f 84 60 04 00 00    	je     8611 <copy_internal+0x2b91>
81b1:	48 8b b5 f8 fc ff ff 	mov    rsi,QWORD PTR [rbp-0x308]
81b8:	bf 04 00 00 00       	mov    edi,0x4
81bd:	e8 ee 68 00 00       	call   eab0 <quotearg_style>
81c2:	48 8d 35 8f cc 00 00 	lea    rsi,[rip+0xcc8f]        # 14e58 <sparse_type+0x1dd8>
81c9:	ba 05 00 00 00       	mov    edx,0x5
81ce:	31 ff                	xor    edi,edi
81d0:	48 89 c3             	mov    rbx,rax
81d3:	e8 08 a7 ff ff       	call   28e0 <dcgettext@plt>
81d8:	41 8b 34 24          	mov    esi,DWORD PTR [r12]
81dc:	48 89 c2             	mov    rdx,rax
81df:	48 89 d9             	mov    rcx,rbx
81e2:	31 ff                	xor    edi,edi
81e4:	31 c0                	xor    eax,eax
81e6:	45 31 e4             	xor    r12d,r12d
81e9:	e8 c2 aa ff ff       	call   2cb0 <error@plt>
81ee:	e9 d3 e0 ff ff       	jmp    62c6 <copy_internal+0x846>
81f3:	44 0f b6 73 2e       	movzx  r14d,BYTE PTR [rbx+0x2e]
81f8:	45 84 f6             	test   r14b,r14b
81fb:	0f 85 cb 05 00 00    	jne    87cc <copy_internal+0x2d4c>
8201:	45 84 ed             	test   r13b,r13b
8204:	0f 85 9e 05 00 00    	jne    87a8 <copy_internal+0x2d28>
820a:	48 c7 85 b0 fc ff ff 	mov    QWORD PTR [rbp-0x350],0x0
8211:	00 00 00 00
8215:	41 be 01 00 00 00    	mov    r14d,0x1
821b:	41 bf 11 00 00 00    	mov    r15d,0x11
8221:	e9 c3 dc ff ff       	jmp    5ee9 <copy_internal+0x469>
8226:	83 7b 04 02          	cmp    DWORD PTR [rbx+0x4],0x2
822a:	0f 85 77 f0 ff ff    	jne    72a7 <copy_internal+0x1827>
8230:	8b 85 98 fd ff ff    	mov    eax,DWORD PTR [rbp-0x268]
8236:	25 00 f0 00 00       	and    eax,0xf000
823b:	3d 00 80 00 00       	cmp    eax,0x8000
8240:	0f 85 13 fc ff ff    	jne    7e59 <copy_internal+0x23d9>
8246:	e9 5c f0 ff ff       	jmp    72a7 <copy_internal+0x1827>
824b:	48 8b b5 f0 fc ff ff 	mov    rsi,QWORD PTR [rbp-0x310]
8252:	bf 04 00 00 00       	mov    edi,0x4
8257:	e8 54 68 00 00       	call   eab0 <quotearg_style>
825c:	ba 05 00 00 00       	mov    edx,0x5
8261:	49 89 c5             	mov    r13,rax
8264:	48 8d 35 77 cc 00 00 	lea    rsi,[rip+0xcc77]        # 14ee2 <sparse_type+0x1e62>
826b:	e9 ef ec ff ff       	jmp    6f5f <copy_internal+0x14df>
8270:	44 8b 85 ec fc ff ff 	mov    r8d,DWORD PTR [rbp-0x314]
8277:	48 8b 95 f8 fc ff ff 	mov    rdx,QWORD PTR [rbp-0x308]
827e:	b9 ff ff ff ff       	mov    ecx,0xffffffff
8283:	48 8b bd f0 fc ff ff 	mov    rdi,QWORD PTR [rbp-0x310]
828a:	89 ce                	mov    esi,ecx
828c:	e8 0f 23 00 00       	call   a5a0 <copy_acl>
8291:	85 c0                	test   eax,eax
8293:	0f 85 d1 df ff ff    	jne    626a <copy_internal+0x7ea>
8299:	e9 28 e0 ff ff       	jmp    62c6 <copy_internal+0x846>
829e:	4c 89 e2             	mov    rdx,r12
82a1:	4c 89 f7             	mov    rdi,r14
82a4:	44 88 8d b0 fc ff ff 	mov    BYTE PTR [rbp-0x350],r9b
82ab:	4c 89 85 a8 fc ff ff 	mov    QWORD PTR [rbp-0x358],r8
82b2:	e8 d9 a7 ff ff       	call   2a90 <memcmp@plt>
82b7:	85 c0                	test   eax,eax
82b9:	44 0f b6 8d b0 fc ff 	movzx  r9d,BYTE PTR [rbp-0x350]
82c0:	ff
82c1:	0f 85 82 e5 ff ff    	jne    6849 <copy_internal+0xdc9>
82c7:	4b 8d 3c 26          	lea    rdi,[r14+r12*1]
82cb:	4c 89 fe             	mov    rsi,r15
82ce:	e8 1d a8 ff ff       	call   2af0 <strcmp@plt>
82d3:	85 c0                	test   eax,eax
82d5:	44 0f b6 8d b0 fc ff 	movzx  r9d,BYTE PTR [rbp-0x350]
82dc:	ff
82dd:	4c 8b 85 a8 fc ff ff 	mov    r8,QWORD PTR [rbp-0x358]
82e4:	0f 85 5f e5 ff ff    	jne    6849 <copy_internal+0xdc9>
82ea:	48 8b bd f8 fc ff ff 	mov    rdi,QWORD PTR [rbp-0x308]
82f1:	48 83 c9 ff          	or     rcx,0xffffffffffffffff
82f5:	f2 ae                	repnz scas al,BYTE PTR es:[rdi]
82f7:	48 89 c8             	mov    rax,rcx
82fa:	48 f7 d0             	not    rax
82fd:	4c 8d 70 ff          	lea    r14,[rax-0x1]
8301:	4b 8d 7c 06 01       	lea    rdi,[r14+r8*1+0x1]
8306:	e8 15 8d 00 00       	call   11020 <xmalloc>
830b:	4c 8b 3d 6e 22 21 00 	mov    r15,QWORD PTR [rip+0x21226e]        # 21a580 <simple_backup_suffix>
8312:	48 8b b5 f8 fc ff ff 	mov    rsi,QWORD PTR [rbp-0x308]
8319:	4c 89 f2             	mov    rdx,r14
831c:	48 89 c7             	mov    rdi,rax
831f:	49 89 c4             	mov    r12,rax
8322:	e8 79 a9 ff ff       	call   2ca0 <mempcpy@plt>
8327:	4c 89 fe             	mov    rsi,r15
832a:	48 89 c7             	mov    rdi,rax
832d:	e8 7e a4 ff ff       	call   27b0 <strcpy@plt>
8332:	48 8d 95 30 ff ff ff 	lea    rdx,[rbp-0xd0]
8339:	4c 89 e6             	mov    rsi,r12
833c:	bf 01 00 00 00       	mov    edi,0x1
8341:	e8 5a a8 ff ff       	call   2ba0 <__xstat@plt>
8346:	4c 89 e7             	mov    rdi,r12
8349:	41 89 c7             	mov    r15d,eax
834c:	e8 bf aa ff ff       	call   2e10 <free@plt>
8351:	45 85 ff             	test   r15d,r15d
8354:	44 0f b6 8d b0 fc ff 	movzx  r9d,BYTE PTR [rbp-0x350]
835b:	ff
835c:	0f 85 e7 e4 ff ff    	jne    6849 <copy_internal+0xdc9>
8362:	48 8b 85 38 ff ff ff 	mov    rax,QWORD PTR [rbp-0xc8]
8369:	48 39 85 88 fd ff ff 	cmp    QWORD PTR [rbp-0x278],rax
8370:	0f 85 d3 e4 ff ff    	jne    6849 <copy_internal+0xdc9>
8376:	48 8b 85 30 ff ff ff 	mov    rax,QWORD PTR [rbp-0xd0]
837d:	48 39 85 80 fd ff ff 	cmp    QWORD PTR [rbp-0x280],rax
8384:	0f 85 bf e4 ff ff    	jne    6849 <copy_internal+0xdc9>
838a:	80 7b 18 00          	cmp    BYTE PTR [rbx+0x18],0x0
838e:	0f 84 62 02 00 00    	je     85f6 <copy_internal+0x2b76>
8394:	48 8d 35 05 c6 00 00 	lea    rsi,[rip+0xc605]        # 149a0 <sparse_type+0x1920>
839b:	ba 05 00 00 00       	mov    edx,0x5
83a0:	31 ff                	xor    edi,edi
83a2:	e8 39 a5 ff ff       	call   28e0 <dcgettext@plt>
83a7:	48 89 c3             	mov    rbx,rax
83aa:	48 8b 95 f0 fc ff ff 	mov    rdx,QWORD PTR [rbp-0x310]
83b1:	be 04 00 00 00       	mov    esi,0x4
83b6:	bf 01 00 00 00       	mov    edi,0x1
83bb:	e8 d0 65 00 00       	call   e990 <quotearg_n_style>
83c0:	48 8b 95 f8 fc ff ff 	mov    rdx,QWORD PTR [rbp-0x308]
83c7:	49 89 c4             	mov    r12,rax
83ca:	be 04 00 00 00       	mov    esi,0x4
83cf:	31 ff                	xor    edi,edi
83d1:	e8 ba 65 00 00       	call   e990 <quotearg_n_style>
83d6:	4d 89 e0             	mov    r8,r12
83d9:	48 89 c1             	mov    rcx,rax
83dc:	48 89 da             	mov    rdx,rbx
83df:	31 f6                	xor    esi,esi
83e1:	31 ff                	xor    edi,edi
83e3:	31 c0                	xor    eax,eax
83e5:	e8 c6 a8 ff ff       	call   2cb0 <error@plt>
83ea:	45 31 e4             	xor    r12d,r12d
83ed:	e9 d4 de ff ff       	jmp    62c6 <copy_internal+0x846>
83f2:	44 8b a5 a4 fc ff ff 	mov    r12d,DWORD PTR [rbp-0x35c]
83f9:	48 8b b5 f8 fc ff ff 	mov    rsi,QWORD PTR [rbp-0x308]
8400:	48 8d 8d 08 fd ff ff 	lea    rcx,[rbp-0x2f8]
8407:	31 ff                	xor    edi,edi
8409:	44 88 85 e0 fc ff ff 	mov    BYTE PTR [rbp-0x320],r8b
8410:	48 c7 85 08 fd ff ff 	mov    QWORD PTR [rbp-0x2f8],0x0
8417:	00 00 00 00
841b:	41 f7 d4             	not    r12d
841e:	44 23 a5 ec fc ff ff 	and    r12d,DWORD PTR [rbp-0x314]
8425:	44 89 e2             	mov    edx,r12d
8428:	e8 43 a7 ff ff       	call   2b70 <__xmknod@plt>
842d:	85 c0                	test   eax,eax
842f:	44 0f b6 85 e0 fc ff 	movzx  r8d,BYTE PTR [rbp-0x320]
8436:	ff
8437:	0f 84 c2 db ff ff    	je     5fff <copy_internal+0x57f>
843d:	48 8b bd f8 fc ff ff 	mov    rdi,QWORD PTR [rbp-0x308]
8444:	44 89 e6             	mov    esi,r12d
8447:	81 e6 ff ef ff ff    	and    esi,0xffffefff
844d:	e8 ee a6 ff ff       	call   2b40 <mkfifo@plt>
8452:	85 c0                	test   eax,eax
8454:	44 0f b6 85 e0 fc ff 	movzx  r8d,BYTE PTR [rbp-0x320]
845b:	ff
845c:	0f 84 9d db ff ff    	je     5fff <copy_internal+0x57f>
8462:	48 8b b5 f8 fc ff ff 	mov    rsi,QWORD PTR [rbp-0x308]
8469:	bf 04 00 00 00       	mov    edi,0x4
846e:	e8 3d 66 00 00       	call   eab0 <quotearg_style>
8473:	ba 05 00 00 00       	mov    edx,0x5
8478:	49 89 c5             	mov    r13,rax
847b:	48 8d 35 32 cb 00 00 	lea    rsi,[rip+0xcb32]        # 14fb4 <sparse_type+0x1f34>
8482:	e9 d8 ea ff ff       	jmp    6f5f <copy_internal+0x14df>
8487:	48 8b b5 f0 fc ff ff 	mov    rsi,QWORD PTR [rbp-0x310]
848e:	bf 04 00 00 00       	mov    edi,0x4
8493:	e8 18 66 00 00       	call   eab0 <quotearg_style>
8498:	48 8d 35 5e ca 00 00 	lea    rsi,[rip+0xca5e]        # 14efd <sparse_type+0x1e7d>
849f:	ba 05 00 00 00       	mov    edx,0x5
84a4:	49 89 c4             	mov    r12,rax
84a7:	31 ff                	xor    edi,edi
84a9:	e8 32 a4 ff ff       	call   28e0 <dcgettext@plt>
84ae:	48 89 85 d8 fc ff ff 	mov    QWORD PTR [rbp-0x328],rax
84b5:	e8 b6 a2 ff ff       	call   2770 <__errno_location@plt>
84ba:	4c 89 e1             	mov    rcx,r12
84bd:	48 8b 95 d8 fc ff ff 	mov    rdx,QWORD PTR [rbp-0x328]
84c4:	8b 30                	mov    esi,DWORD PTR [rax]
84c6:	e9 f6 f6 ff ff       	jmp    7bc1 <copy_internal+0x2141>
84cb:	48 8b b5 f8 fc ff ff 	mov    rsi,QWORD PTR [rbp-0x308]
84d2:	48 8b bd f0 fc ff ff 	mov    rdi,QWORD PTR [rbp-0x310]
84d9:	44 88 8d a4 fc ff ff 	mov    BYTE PTR [rbp-0x35c],r9b
84e0:	44 88 85 a8 fc ff ff 	mov    BYTE PTR [rbp-0x358],r8b
84e7:	48 89 95 b0 fc ff ff 	mov    QWORD PTR [rbp-0x350],rdx
84ee:	e8 4d 6d 00 00       	call   f240 <same_name>
84f3:	84 c0                	test   al,al
84f5:	48 8b 95 b0 fc ff ff 	mov    rdx,QWORD PTR [rbp-0x350]
84fc:	44 0f b6 85 a8 fc ff 	movzx  r8d,BYTE PTR [rbp-0x358]
8503:	ff
8504:	44 0f b6 8d a4 fc ff 	movzx  r9d,BYTE PTR [rbp-0x35c]
850b:	ff
850c:	0f 84 75 08 00 00    	je     8d87 <copy_internal+0x3307>
8512:	8b 42 18             	mov    eax,DWORD PTR [rdx+0x18]
8515:	25 00 f0 00 00       	and    eax,0xf000
851a:	3d 00 a0 00 00       	cmp    eax,0xa000
851f:	0f 84 27 ec ff ff    	je     714c <copy_internal+0x16cc>
8525:	41 8b 44 24 18       	mov    eax,DWORD PTR [r12+0x18]
852a:	25 00 f0 00 00       	and    eax,0xf000
852f:	3d 00 a0 00 00       	cmp    eax,0xa000
8534:	0f 84 12 ec ff ff    	je     714c <copy_internal+0x16cc>
853a:	e9 e5 eb ff ff       	jmp    7124 <copy_internal+0x16a4>
853f:	90                   	nop
8540:	0f b6 73 25          	movzx  esi,BYTE PTR [rbx+0x25]
8544:	48 8b bd f8 fc ff ff 	mov    rdi,QWORD PTR [rbp-0x308]
854b:	31 d2                	xor    edx,edx
854d:	48 89 d9             	mov    rcx,rbx
8550:	e8 9b d1 ff ff       	call   56f0 <set_file_security_ctx>
8555:	84 c0                	test   al,al
8557:	0f 85 2f fa ff ff    	jne    7f8c <copy_internal+0x250c>
855d:	80 7b 26 00          	cmp    BYTE PTR [rbx+0x26],0x0
8561:	0f 85 a9 e4 ff ff    	jne    6a10 <copy_internal+0xf90>
8567:	e9 20 fa ff ff       	jmp    7f8c <copy_internal+0x250c>
856c:	48 8b 95 10 fe ff ff 	mov    rdx,QWORD PTR [rbp-0x1f0]
8573:	48 8b b5 18 fe ff ff 	mov    rsi,QWORD PTR [rbp-0x1e8]
857a:	48 8b bd f8 fc ff ff 	mov    rdi,QWORD PTR [rbp-0x308]
8581:	e8 9a 18 00 00       	call   9e20 <remember_copied>
8586:	48 8b 85 c8 fc ff ff 	mov    rax,QWORD PTR [rbp-0x338]
858d:	c6 00 01             	mov    BYTE PTR [rax],0x1
8590:	e9 e3 f1 ff ff       	jmp    7778 <copy_internal+0x1cf8>
8595:	48 8b 95 f0 fc ff ff 	mov    rdx,QWORD PTR [rbp-0x310]
859c:	be 04 00 00 00       	mov    esi,0x4
85a1:	bf 01 00 00 00       	mov    edi,0x1
85a6:	e8 e5 63 00 00       	call   e990 <quotearg_n_style>
85ab:	48 8b 95 f8 fc ff ff 	mov    rdx,QWORD PTR [rbp-0x308]
85b2:	be 04 00 00 00       	mov    esi,0x4
85b7:	31 ff                	xor    edi,edi
85b9:	49 89 c4             	mov    r12,rax
85bc:	e8 cf 63 00 00       	call   e990 <quotearg_n_style>
85c1:	ba 05 00 00 00       	mov    edx,0x5
85c6:	48 89 c3             	mov    rbx,rax
85c9:	48 8d 35 30 c3 00 00 	lea    rsi,[rip+0xc330]        # 14900 <sparse_type+0x1880>
85d0:	e9 e6 ea ff ff       	jmp    70bb <copy_internal+0x163b>
85d5:	8b 53 10             	mov    edx,DWORD PTR [rbx+0x10]
85d8:	48 8b bd f8 fc ff ff 	mov    rdi,QWORD PTR [rbp-0x308]
85df:	be ff ff ff ff       	mov    esi,0xffffffff
85e4:	e8 47 20 00 00       	call   a630 <set_acl>
85e9:	85 c0                	test   eax,eax
85eb:	0f 85 9f d7 ff ff    	jne    5d90 <copy_internal+0x310>
85f1:	e9 d0 dc ff ff       	jmp    62c6 <copy_internal+0x846>
85f6:	48 8d 35 db c3 00 00 	lea    rsi,[rip+0xc3db]        # 149d8 <sparse_type+0x1958>
85fd:	ba 05 00 00 00       	mov    edx,0x5
8602:	31 ff                	xor    edi,edi
8604:	e8 d7 a2 ff ff       	call   28e0 <dcgettext@plt>
8609:	48 89 c3             	mov    rbx,rax
860c:	e9 99 fd ff ff       	jmp    83aa <copy_internal+0x292a>
8611:	48 c7 85 b0 fc ff ff 	mov    QWORD PTR [rbp-0x350],0x0
8618:	00 00 00 00
861c:	41 be 01 00 00 00    	mov    r14d,0x1
8622:	41 bf 11 00 00 00    	mov    r15d,0x11
8628:	e9 e1 d7 ff ff       	jmp    5e0e <copy_internal+0x38e>
862d:	48 8b b5 f8 fc ff ff 	mov    rsi,QWORD PTR [rbp-0x308]
8634:	48 8b bd f0 fc ff ff 	mov    rdi,QWORD PTR [rbp-0x310]
863b:	31 d2                	xor    edx,edx
863d:	e8 ee c7 ff ff       	call   4e30 <emit_verbose>
8642:	e9 81 f1 ff ff       	jmp    77c8 <copy_internal+0x1d48>
8647:	48 8b b5 f0 fc ff ff 	mov    rsi,QWORD PTR [rbp-0x310]
864e:	bf 04 00 00 00       	mov    edi,0x4
8653:	e8 58 64 00 00       	call   eab0 <quotearg_style>
8658:	48 8d 35 42 c9 00 00 	lea    rsi,[rip+0xc942]        # 14fa1 <sparse_type+0x1f21>
865f:	31 ff                	xor    edi,edi
8661:	ba 05 00 00 00       	mov    edx,0x5
8666:	49 89 c4             	mov    r12,rax
8669:	e8 72 a2 ff ff       	call   28e0 <dcgettext@plt>
866e:	49 89 c5             	mov    r13,rax
8671:	e8 fa a0 ff ff       	call   2770 <__errno_location@plt>
8676:	8b 30                	mov    esi,DWORD PTR [rax]
8678:	31 ff                	xor    edi,edi
867a:	4c 89 e1             	mov    rcx,r12
867d:	4c 89 ea             	mov    rdx,r13
8680:	31 c0                	xor    eax,eax
8682:	e8 29 a6 ff ff       	call   2cb0 <error@plt>
8687:	48 8b bd d0 fc ff ff 	mov    rdi,QWORD PTR [rbp-0x330]
868e:	e8 7d a7 ff ff       	call   2e10 <free@plt>
8693:	e9 78 e3 ff ff       	jmp    6a10 <copy_internal+0xf90>
8698:	48 8b b5 f0 fc ff ff 	mov    rsi,QWORD PTR [rbp-0x310]
869f:	bf 04 00 00 00       	mov    edi,0x4
86a4:	e8 07 64 00 00       	call   eab0 <quotearg_style>
86a9:	48 8d 35 21 c8 00 00 	lea    rsi,[rip+0xc821]        # 14ed1 <sparse_type+0x1e51>
86b0:	ba 05 00 00 00       	mov    edx,0x5
86b5:	31 ff                	xor    edi,edi
86b7:	49 89 c4             	mov    r12,rax
86ba:	e8 21 a2 ff ff       	call   28e0 <dcgettext@plt>
86bf:	49 89 c7             	mov    r15,rax
86c2:	e8 a9 a0 ff ff       	call   2770 <__errno_location@plt>
86c7:	8b 30                	mov    esi,DWORD PTR [rax]
86c9:	4c 89 e1             	mov    rcx,r12
86cc:	4c 89 fa             	mov    rdx,r15
86cf:	31 ff                	xor    edi,edi
86d1:	31 c0                	xor    eax,eax
86d3:	45 31 e4             	xor    r12d,r12d
86d6:	e8 d5 a5 ff ff       	call   2cb0 <error@plt>
86db:	e9 e3 f2 ff ff       	jmp    79c3 <copy_internal+0x1f43>
86e0:	48 8b b5 b0 fd ff ff 	mov    rsi,QWORD PTR [rbp-0x250]
86e7:	48 8b bd f0 fc ff ff 	mov    rdi,QWORD PTR [rbp-0x310]
86ee:	e8 8d 1f 00 00       	call   a680 <areadlink_with_size>
86f3:	48 85 c0             	test   rax,rax
86f6:	49 89 c4             	mov    r12,rax
86f9:	0f 84 44 08 00 00    	je     8f43 <copy_internal+0x34c3>
86ff:	0f b6 4b 16          	movzx  ecx,BYTE PTR [rbx+0x16]
8703:	48 8b 95 f8 fc ff ff 	mov    rdx,QWORD PTR [rbp-0x308]
870a:	41 b8 ff ff ff ff    	mov    r8d,0xffffffff
8710:	be 9c ff ff ff       	mov    esi,0xffffff9c
8715:	48 89 c7             	mov    rdi,rax
8718:	e8 23 1d 00 00       	call   a440 <force_symlinkat>
871d:	85 c0                	test   eax,eax
871f:	89 85 e0 fc ff ff    	mov    DWORD PTR [rbp-0x320],eax
8725:	0f 8e 3d 08 00 00    	jle    8f68 <copy_internal+0x34e8>
872b:	80 7b 2d 01          	cmp    BYTE PTR [rbx+0x2d],0x1
872f:	75 09                	jne    873a <copy_internal+0x2cba>
8731:	45 84 f6             	test   r14b,r14b
8734:	0f 84 df 0b 00 00    	je     9319 <copy_internal+0x3899>
873a:	4c 89 e7             	mov    rdi,r12
873d:	e8 ce a6 ff ff       	call   2e10 <free@plt>
8742:	48 8b b5 f8 fc ff ff 	mov    rsi,QWORD PTR [rbp-0x308]
8749:	bf 04 00 00 00       	mov    edi,0x4
874e:	e8 5d 63 00 00       	call   eab0 <quotearg_style>
8753:	48 8d 35 06 c5 00 00 	lea    rsi,[rip+0xc506]        # 14c60 <sparse_type+0x1be0>
875a:	31 ff                	xor    edi,edi
875c:	ba 05 00 00 00       	mov    edx,0x5
8761:	49 89 c4             	mov    r12,rax
8764:	e8 77 a1 ff ff       	call   28e0 <dcgettext@plt>
8769:	8b b5 e0 fc ff ff    	mov    esi,DWORD PTR [rbp-0x320]
876f:	48 89 c2             	mov    rdx,rax
8772:	4c 89 e1             	mov    rcx,r12
8775:	31 ff                	xor    edi,edi
8777:	31 c0                	xor    eax,eax
8779:	e8 32 a5 ff ff       	call   2cb0 <error@plt>
877e:	e9 8d e2 ff ff       	jmp    6a10 <copy_internal+0xf90>
8783:	48 8b b5 f8 fc ff ff 	mov    rsi,QWORD PTR [rbp-0x308]
878a:	bf 04 00 00 00       	mov    edi,0x4
878f:	e8 1c 63 00 00       	call   eab0 <quotearg_style>
8794:	ba 05 00 00 00       	mov    edx,0x5
8799:	49 89 c5             	mov    r13,rax
879c:	48 8d 35 87 a1 00 00 	lea    rsi,[rip+0xa187]        # 1292a <_IO_stdin_used+0x4a>
87a3:	e9 b7 e7 ff ff       	jmp    6f5f <copy_internal+0x14df>
87a8:	48 83 7b 40 00       	cmp    QWORD PTR [rbx+0x40],0x0
87ad:	45 89 ee             	mov    r14d,r13d
87b0:	48 c7 85 b0 fc ff ff 	mov    QWORD PTR [rbp-0x350],0x0
87b7:	00 00 00 00
87bb:	41 bf 11 00 00 00    	mov    r15d,0x11
87c1:	0f 85 5b d6 ff ff    	jne    5e22 <copy_internal+0x3a2>
87c7:	e9 1d d7 ff ff       	jmp    5ee9 <copy_internal+0x469>
87cc:	48 8b b5 f8 fc ff ff 	mov    rsi,QWORD PTR [rbp-0x308]
87d3:	bf 04 00 00 00       	mov    edi,0x4
87d8:	44 88 8d a8 fc ff ff 	mov    BYTE PTR [rbp-0x358],r9b
87df:	41 bf 11 00 00 00    	mov    r15d,0x11
87e5:	e8 c6 62 00 00       	call   eab0 <quotearg_style>
87ea:	48 8d 35 8f c5 00 00 	lea    rsi,[rip+0xc58f]        # 14d80 <sparse_type+0x1d00>
87f1:	49 89 c4             	mov    r12,rax
87f4:	ba 05 00 00 00       	mov    edx,0x5
87f9:	31 ff                	xor    edi,edi
87fb:	e8 e0 a0 ff ff       	call   28e0 <dcgettext@plt>
8800:	4c 89 e2             	mov    rdx,r12
8803:	48 89 c6             	mov    rsi,rax
8806:	bf 01 00 00 00       	mov    edi,0x1
880b:	31 c0                	xor    eax,eax
880d:	e8 4e a4 ff ff       	call   2c60 <__printf_chk@plt>
8812:	48 c7 85 b0 fc ff ff 	mov    QWORD PTR [rbp-0x350],0x0
8819:	00 00 00 00
881d:	44 0f b6 8d a8 fc ff 	movzx  r9d,BYTE PTR [rbp-0x358]
8824:	ff
8825:	e9 e4 d5 ff ff       	jmp    5e0e <copy_internal+0x38e>
882a:	8b 85 30 fe ff ff    	mov    eax,DWORD PTR [rbp-0x1d0]
8830:	39 85 a0 fd ff ff    	cmp    DWORD PTR [rbp-0x260],eax
8836:	0f 85 46 d9 ff ff    	jne    6182 <copy_internal+0x702>
883c:	e9 86 d9 ff ff       	jmp    61c7 <copy_internal+0x747>
8841:	e8 0a d2 ff ff       	call   5a50 <cached_umask>
8846:	f7 d0                	not    eax
8848:	21 85 a4 fc ff ff    	and    DWORD PTR [rbp-0x35c],eax
884e:	0f 84 a9 d9 ff ff    	je     61fd <copy_internal+0x77d>
8854:	80 bd eb fc ff ff 01 	cmp    BYTE PTR [rbp-0x315],0x1
885b:	0f 84 a9 d9 ff ff    	je     620a <copy_internal+0x78a>
8861:	45 84 f6             	test   r14b,r14b
8864:	0f 85 6d 09 00 00    	jne    91d7 <copy_internal+0x3757>
886a:	8b 85 28 fe ff ff    	mov    eax,DWORD PTR [rbp-0x1d8]
8870:	89 85 74 fc ff ff    	mov    DWORD PTR [rbp-0x38c],eax
8876:	f7 d0                	not    eax
8878:	85 85 a4 fc ff ff    	test   DWORD PTR [rbp-0x35c],eax
887e:	0f 85 86 d9 ff ff    	jne    620a <copy_internal+0x78a>
8884:	e9 3d da ff ff       	jmp    62c6 <copy_internal+0x846>
8889:	8b 85 ec fc ff ff    	mov    eax,DWORD PTR [rbp-0x314]
888f:	ba b6 01 00 00       	mov    edx,0x1b6
8894:	bb ff 01 00 00       	mov    ebx,0x1ff
8899:	25 00 70 00 00       	and    eax,0x7000
889e:	3d 00 40 00 00       	cmp    eax,0x4000
88a3:	0f 45 da             	cmovne ebx,edx
88a6:	e8 a5 d1 ff ff       	call   5a50 <cached_umask>
88ab:	f7 d0                	not    eax
88ad:	89 c2                	mov    edx,eax
88af:	21 da                	and    edx,ebx
88b1:	e9 22 fd ff ff       	jmp    85d8 <copy_internal+0x2b58>
88b6:	41 81 e4 ff 01 00 00 	and    r12d,0x1ff
88bd:	45 84 f6             	test   r14b,r14b
88c0:	44 89 a5 5c fc ff ff 	mov    DWORD PTR [rbp-0x3a4],r12d
88c7:	0f 85 93 05 00 00    	jne    8e60 <copy_internal+0x33e0>
88cd:	80 7b 23 01          	cmp    BYTE PTR [rbx+0x23],0x1
88d1:	48 8b bd f8 fc ff ff 	mov    rdi,QWORD PTR [rbp-0x308]
88d8:	19 f6                	sbb    esi,esi
88da:	31 c0                	xor    eax,eax
88dc:	81 e6 00 fe ff ff    	and    esi,0xfffffe00
88e2:	81 c6 01 02 00 00    	add    esi,0x201
88e8:	e8 d3 2d 00 00       	call   b6c0 <open_safer>
88ed:	89 85 d8 fc ff ff    	mov    DWORD PTR [rbp-0x328],eax
88f3:	e8 78 9e ff ff       	call   2770 <__errno_location@plt>
88f8:	49 89 c4             	mov    r12,rax
88fb:	48 b8 00 ff 00 00 00 	movabs rax,0xff000000ff00
8902:	ff 00 00
8905:	48 85 43 20          	test   QWORD PTR [rbx+0x20],rax
8909:	0f 85 86 08 00 00    	jne    9195 <copy_internal+0x3715>
890f:	83 bd d8 fc ff ff 00 	cmp    DWORD PTR [rbp-0x328],0x0
8916:	0f 88 86 08 00 00    	js     91a2 <copy_internal+0x3722>
891c:	c7 85 88 fc ff ff 00 	mov    DWORD PTR [rbp-0x378],0x0
8923:	00 00 00
8926:	48 8d 85 30 ff ff ff 	lea    rax,[rbp-0xd0]
892d:	8b b5 d8 fc ff ff    	mov    esi,DWORD PTR [rbp-0x328]
8933:	bf 01 00 00 00       	mov    edi,0x1
8938:	48 89 c2             	mov    rdx,rax
893b:	48 89 85 98 fc ff ff 	mov    QWORD PTR [rbp-0x368],rax
8942:	e8 a9 a2 ff ff       	call   2bf0 <__fxstat@plt>
8947:	85 c0                	test   eax,eax
8949:	89 85 b8 fc ff ff    	mov    DWORD PTR [rbp-0x348],eax
894f:	0f 85 a1 0b 00 00    	jne    94f6 <copy_internal+0x3a76>
8955:	80 bd c8 fc ff ff 00 	cmp    BYTE PTR [rbp-0x338],0x0
895c:	0f 84 cd 06 00 00    	je     902f <copy_internal+0x35af>
8962:	83 7b 38 00          	cmp    DWORD PTR [rbx+0x38],0x0
8966:	0f 85 58 0e 00 00    	jne    97c4 <copy_internal+0x3d44>
896c:	e8 ff a3 ff ff       	call   2d70 <getpagesize@plt>
8971:	48 8b 8d 68 ff ff ff 	mov    rcx,QWORD PTR [rbp-0x98]
8978:	4c 63 e0             	movsxd r12,eax
897b:	48 b8 00 00 fe ff ff 	movabs rax,0x1ffffffffffe0000
8982:	ff ff 1f
8985:	41 b8 00 02 00 00    	mov    r8d,0x200
898b:	8b bd e0 fc ff ff    	mov    edi,DWORD PTR [rbp-0x320]
8991:	4c 89 85 d0 fc ff ff 	mov    QWORD PTR [rbp-0x330],r8
8998:	48 8d 91 00 00 fe ff 	lea    rdx,[rcx-0x20000]
899f:	48 39 c2             	cmp    rdx,rax
89a2:	b8 00 00 02 00       	mov    eax,0x20000
89a7:	48 8d 51 ff          	lea    rdx,[rcx-0x1]
89ab:	48 0f 46 c1          	cmovbe rax,rcx
89af:	48 89 85 90 fc ff ff 	mov    QWORD PTR [rbp-0x370],rax
89b6:	48 b8 ff ff ff ff ff 	movabs rax,0x1fffffffffffffff
89bd:	ff ff 1f
89c0:	48 39 c2             	cmp    rdx,rax
89c3:	49 0f 47 c8          	cmova  rcx,r8
89c7:	31 d2                	xor    edx,edx
89c9:	31 f6                	xor    esi,esi
89cb:	48 89 8d 68 fc ff ff 	mov    QWORD PTR [rbp-0x398],rcx
89d2:	b9 02 00 00 00       	mov    ecx,0x2
89d7:	e8 a4 2c 00 00       	call   b680 <fdadvise>
89dc:	44 8b 8d b8 fe ff ff 	mov    r9d,DWORD PTR [rbp-0x148]
89e3:	4c 8b 85 d0 fc ff ff 	mov    r8,QWORD PTR [rbp-0x330]
89ea:	41 81 e1 00 f0 00 00 	and    r9d,0xf000
89f1:	41 81 f9 00 80 00 00 	cmp    r9d,0x8000
89f8:	0f 84 dc 0e 00 00    	je     98da <copy_internal+0x3e5a>
89fe:	8b 85 48 ff ff ff    	mov    eax,DWORD PTR [rbp-0xb8]
8a04:	25 00 f0 00 00       	and    eax,0xf000
8a09:	3d 00 80 00 00       	cmp    eax,0x8000
8a0e:	0f 84 5b 0e 00 00    	je     986f <copy_internal+0x3def>
8a14:	48 8b bd d8 fe ff ff 	mov    rdi,QWORD PTR [rbp-0x128]
8a1b:	48 b8 ff ff ff ff ff 	movabs rax,0x7fffffffffffffff
8a22:	ff ff 7f
8a25:	48 8b b5 90 fc ff ff 	mov    rsi,QWORD PTR [rbp-0x370]
8a2c:	4c 29 e0             	sub    rax,r12
8a2f:	44 89 8d 80 fc ff ff 	mov    DWORD PTR [rbp-0x380],r9d
8a36:	49 89 c0             	mov    r8,rax
8a39:	48 b8 00 00 fe ff ff 	movabs rax,0x1ffffffffffe0000
8a40:	ff ff 1f
8a43:	48 8d 97 00 00 fe ff 	lea    rdx,[rdi-0x20000]
8a4a:	4c 89 85 d0 fc ff ff 	mov    QWORD PTR [rbp-0x330],r8
8a51:	48 39 c2             	cmp    rdx,rax
8a54:	b8 00 00 02 00       	mov    eax,0x20000
8a59:	4c 89 c2             	mov    rdx,r8
8a5c:	48 0f 47 f8          	cmova  rdi,rax
8a60:	e8 eb 27 00 00       	call   b250 <buffer_lcm>
8a65:	44 8b 8d 80 fc ff ff 	mov    r9d,DWORD PTR [rbp-0x380]
8a6c:	48 89 c1             	mov    rcx,rax
8a6f:	4c 8b 85 d0 fc ff ff 	mov    r8,QWORD PTR [rbp-0x330]
8a76:	41 81 f9 00 80 00 00 	cmp    r9d,0x8000
8a7d:	0f 84 ca 0c 00 00    	je     974d <copy_internal+0x3ccd>
8a83:	48 8b 85 90 fc ff ff 	mov    rax,QWORD PTR [rbp-0x370]
8a8a:	31 d2                	xor    edx,edx
8a8c:	48 8d 74 01 ff       	lea    rsi,[rcx+rax*1-0x1]
8a91:	48 89 f0             	mov    rax,rsi
8a94:	48 f7 f1             	div    rcx
8a97:	48 29 d6             	sub    rsi,rdx
8a9a:	48 89 b5 90 fc ff ff 	mov    QWORD PTR [rbp-0x370],rsi
8aa1:	0f 84 aa 0a 00 00    	je     9551 <copy_internal+0x3ad1>
8aa7:	4c 39 c6             	cmp    rsi,r8
8aaa:	0f 87 a1 0a 00 00    	ja     9551 <copy_internal+0x3ad1>
8ab0:	48 8b 85 90 fc ff ff 	mov    rax,QWORD PTR [rbp-0x370]
8ab7:	49 8d 3c 04          	lea    rdi,[r12+rax*1]
8abb:	e8 60 85 00 00       	call   11020 <xmalloc>
8ac0:	4a 8d 4c 20 ff       	lea    rcx,[rax+r12*1-0x1]
8ac5:	31 d2                	xor    edx,edx
8ac7:	48 89 85 d0 fc ff ff 	mov    QWORD PTR [rbp-0x330],rax
8ace:	48 89 c8             	mov    rax,rcx
8ad1:	49 f7 f4             	div    r12
8ad4:	48 29 d1             	sub    rcx,rdx
8ad7:	83 bd b8 fc ff ff 00 	cmp    DWORD PTR [rbp-0x348],0x0
8ade:	48 89 8d 50 fc ff ff 	mov    QWORD PTR [rbp-0x3b0],rcx
8ae5:	0f 84 72 0a 00 00    	je     955d <copy_internal+0x3add>
8aeb:	c6 85 5b fc ff ff 00 	mov    BYTE PTR [rbp-0x3a5],0x0
8af2:	c7 85 70 fc ff ff 01 	mov    DWORD PTR [rbp-0x390],0x1
8af9:	00 00 00
8afc:	48 8b 85 d0 fe ff ff 	mov    rax,QWORD PTR [rbp-0x130]
8b03:	8b bd e0 fc ff ff    	mov    edi,DWORD PTR [rbp-0x320]
8b09:	45 31 e4             	xor    r12d,r12d
8b0c:	48 89 85 80 fc ff ff 	mov    QWORD PTR [rbp-0x380],rax
8b13:	48 8d 85 10 fd ff ff 	lea    rax,[rbp-0x2f0]
8b1a:	48 89 c6             	mov    rsi,rax
8b1d:	48 89 85 b8 fc ff ff 	mov    QWORD PTR [rbp-0x348],rax
8b24:	e8 c7 13 00 00       	call   9ef0 <extent_scan_init>
8b29:	48 8d 85 07 fd ff ff 	lea    rax,[rbp-0x2f9]
8b30:	31 c9                	xor    ecx,ecx
8b32:	48 89 9d 78 fc ff ff 	mov    QWORD PTR [rbp-0x388],rbx
8b39:	48 c7 85 60 fc ff ff 	mov    QWORD PTR [rbp-0x3a0],0x0
8b40:	00 00 00 00
8b44:	48 89 cb             	mov    rbx,rcx
8b47:	44 89 ad a0 fc ff ff 	mov    DWORD PTR [rbp-0x360],r13d
8b4e:	48 89 85 48 fc ff ff 	mov    QWORD PTR [rbp-0x3b8],rax
8b55:	48 8d 85 08 fd ff ff 	lea    rax,[rbp-0x2f8]
8b5c:	48 89 85 40 fc ff ff 	mov    QWORD PTR [rbp-0x3c0],rax
8b63:	48 8b bd b8 fc ff ff 	mov    rdi,QWORD PTR [rbp-0x348]
8b6a:	e8 b1 13 00 00       	call   9f20 <extent_scan_read>
8b6f:	84 c0                	test   al,al
8b71:	0f 84 fa 0b 00 00    	je     9771 <copy_internal+0x3cf1>
8b77:	48 83 bd 28 fd ff ff 	cmp    QWORD PTR [rbp-0x2d8],0x0
8b7e:	00
8b7f:	0f 84 c9 0a 00 00    	je     964e <copy_internal+0x3bce>
8b85:	48 89 da             	mov    rdx,rbx
8b88:	4c 89 e1             	mov    rcx,r12
8b8b:	45 31 ed             	xor    r13d,r13d
8b8e:	31 c0                	xor    eax,eax
8b90:	e9 b8 00 00 00       	jmp    8c4d <copy_internal+0x31cd>
8b95:	0f 1f 00             	nop    DWORD PTR [rax]
8b98:	83 bd 70 fc ff ff 03 	cmp    DWORD PTR [rbp-0x390],0x3
8b9f:	41 b8 00 00 00 00    	mov    r8d,0x0
8ba5:	4c 0f 44 85 68 fc ff 	cmove  r8,QWORD PTR [rbp-0x398]
8bac:	ff
8bad:	48 83 ec 08          	sub    rsp,0x8
8bb1:	48 8b 8d 90 fc ff ff 	mov    rcx,QWORD PTR [rbp-0x370]
8bb8:	48 8b 95 50 fc ff ff 	mov    rdx,QWORD PTR [rbp-0x3b0]
8bbf:	8b b5 d8 fc ff ff    	mov    esi,DWORD PTR [rbp-0x328]
8bc5:	8b bd e0 fc ff ff    	mov    edi,DWORD PTR [rbp-0x320]
8bcb:	41 b9 01 00 00 00    	mov    r9d,0x1
8bd1:	ff b5 48 fc ff ff    	push   QWORD PTR [rbp-0x3b8]
8bd7:	ff b5 40 fc ff ff    	push   QWORD PTR [rbp-0x3c0]
8bdd:	53                   	push   rbx
8bde:	ff b5 f8 fc ff ff    	push   QWORD PTR [rbp-0x308]
8be4:	ff b5 f0 fc ff ff    	push   QWORD PTR [rbp-0x310]
8bea:	e8 21 c6 ff ff       	call   5210 <sparse_copy>
8bef:	48 83 c4 30          	add    rsp,0x30
8bf3:	84 c0                	test   al,al
8bf5:	0f 84 fd 00 00 00    	je     8cf8 <copy_internal+0x3278>
8bfb:	48 8b 85 08 fd ff ff 	mov    rax,QWORD PTR [rbp-0x2f8]
8c02:	49 8d 0c 04          	lea    rcx,[r12+rax*1]
8c06:	48 85 c0             	test   rax,rax
8c09:	48 89 8d 60 fc ff ff 	mov    QWORD PTR [rbp-0x3a0],rcx
8c10:	74 0d                	je     8c1f <copy_internal+0x319f>
8c12:	0f b6 85 07 fd ff ff 	movzx  eax,BYTE PTR [rbp-0x2f9]
8c19:	88 85 c8 fc ff ff    	mov    BYTE PTR [rbp-0x338],al
8c1f:	48 8b 8d 60 fc ff ff 	mov    rcx,QWORD PTR [rbp-0x3a0]
8c26:	48 39 8d 80 fc ff ff 	cmp    QWORD PTR [rbp-0x380],rcx
8c2d:	0f 84 14 0a 00 00    	je     9647 <copy_internal+0x3bc7>
8c33:	41 8d 45 01          	lea    eax,[r13+0x1]
8c37:	48 3b 85 28 fd ff ff 	cmp    rax,QWORD PTR [rbp-0x2d8]
8c3e:	4c 89 e1             	mov    rcx,r12
8c41:	48 89 da             	mov    rdx,rbx
8c44:	49 89 c5             	mov    r13,rax
8c47:	0f 83 01 0a 00 00    	jae    964e <copy_internal+0x3bce>
8c4d:	48 8d 34 40          	lea    rsi,[rax+rax*2]
8c51:	48 8b 85 38 fd ff ff 	mov    rax,QWORD PTR [rbp-0x2c8]
8c58:	48 8d 04 f0          	lea    rax,[rax+rsi*8]
8c5c:	48 8b b5 80 fc ff ff 	mov    rsi,QWORD PTR [rbp-0x380]
8c63:	4c 8b 20             	mov    r12,QWORD PTR [rax]
8c66:	48 8b 58 08          	mov    rbx,QWORD PTR [rax+0x8]
8c6a:	49 8d 04 1c          	lea    rax,[r12+rbx*1]
8c6e:	48 39 c6             	cmp    rsi,rax
8c71:	7d 0d                	jge    8c80 <copy_internal+0x3200>
8c73:	49 39 f4             	cmp    r12,rsi
8c76:	4c 0f 4f e6          	cmovg  r12,rsi
8c7a:	4c 29 e6             	sub    rsi,r12
8c7d:	48 89 f3             	mov    rbx,rsi
8c80:	4c 89 e0             	mov    rax,r12
8c83:	c6 85 c8 fc ff ff 00 	mov    BYTE PTR [rbp-0x338],0x0
8c8a:	48 29 c8             	sub    rax,rcx
8c8d:	48 89 c1             	mov    rcx,rax
8c90:	48 29 d1             	sub    rcx,rdx
8c93:	0f 84 ff fe ff ff    	je     8b98 <copy_internal+0x3118>
8c99:	8b bd e0 fc ff ff    	mov    edi,DWORD PTR [rbp-0x320]
8c9f:	31 d2                	xor    edx,edx
8ca1:	4c 89 e6             	mov    rsi,r12
8ca4:	48 89 8d 60 fc ff ff 	mov    QWORD PTR [rbp-0x3a0],rcx
8cab:	e8 10 9d ff ff       	call   29c0 <lseek@plt>
8cb0:	48 85 c0             	test   rax,rax
8cb3:	48 8b 8d 60 fc ff ff 	mov    rcx,QWORD PTR [rbp-0x3a0]
8cba:	0f 88 6f 0e 00 00    	js     9b2f <copy_internal+0x40af>
8cc0:	8b 85 70 fc ff ff    	mov    eax,DWORD PTR [rbp-0x390]
8cc6:	83 f8 03             	cmp    eax,0x3
8cc9:	0f 94 c2             	sete   dl
8ccc:	83 e8 01             	sub    eax,0x1
8ccf:	0f 84 53 07 00 00    	je     9428 <copy_internal+0x39a8>
8cd5:	48 8b b5 f8 fc ff ff 	mov    rsi,QWORD PTR [rbp-0x308]
8cdc:	8b bd d8 fc ff ff    	mov    edi,DWORD PTR [rbp-0x328]
8ce2:	0f b6 d2             	movzx  edx,dl
8ce5:	e8 66 c4 ff ff       	call   5150 <create_hole>
8cea:	84 c0                	test   al,al
8cec:	88 85 c8 fc ff ff    	mov    BYTE PTR [rbp-0x338],al
8cf2:	0f 85 a0 fe ff ff    	jne    8b98 <copy_internal+0x3118>
8cf8:	48 8b 9d 78 fc ff ff 	mov    rbx,QWORD PTR [rbp-0x388]
8cff:	44 8b ad a0 fc ff ff 	mov    r13d,DWORD PTR [rbp-0x360]
8d06:	48 8b bd 38 fd ff ff 	mov    rdi,QWORD PTR [rbp-0x2c8]
8d0d:	e8 fe a0 ff ff       	call   2e10 <free@plt>
8d12:	45 31 c0             	xor    r8d,r8d
8d15:	8b bd d8 fc ff ff    	mov    edi,DWORD PTR [rbp-0x328]
8d1b:	44 88 85 c8 fc ff ff 	mov    BYTE PTR [rbp-0x338],r8b
8d22:	e8 09 9d ff ff       	call   2a30 <close@plt>
8d27:	85 c0                	test   eax,eax
8d29:	44 0f b6 85 c8 fc ff 	movzx  r8d,BYTE PTR [rbp-0x338]
8d30:	ff
8d31:	0f 89 a1 ee ff ff    	jns    7bd8 <copy_internal+0x2158>
8d37:	48 8b b5 f8 fc ff ff 	mov    rsi,QWORD PTR [rbp-0x308]
8d3e:	bf 04 00 00 00       	mov    edi,0x4
8d43:	e8 68 5d 00 00       	call   eab0 <quotearg_style>
8d48:	48 8d 35 52 c2 00 00 	lea    rsi,[rip+0xc252]        # 14fa1 <sparse_type+0x1f21>
8d4f:	ba 05 00 00 00       	mov    edx,0x5
8d54:	31 ff                	xor    edi,edi
8d56:	49 89 c4             	mov    r12,rax
8d59:	e8 82 9b ff ff       	call   28e0 <dcgettext@plt>
8d5e:	48 89 85 d8 fc ff ff 	mov    QWORD PTR [rbp-0x328],rax
8d65:	e8 06 9a ff ff       	call   2770 <__errno_location@plt>
8d6a:	48 8b 95 d8 fc ff ff 	mov    rdx,QWORD PTR [rbp-0x328]
8d71:	8b 30                	mov    esi,DWORD PTR [rax]
8d73:	4c 89 e1             	mov    rcx,r12
8d76:	31 ff                	xor    edi,edi
8d78:	31 c0                	xor    eax,eax
8d7a:	e8 31 9f ff ff       	call   2cb0 <error@plt>
8d7f:	45 31 c0             	xor    r8d,r8d
8d82:	e9 51 ee ff ff       	jmp    7bd8 <copy_internal+0x2158>
8d87:	44 0f b6 63 18       	movzx  r12d,BYTE PTR [rbx+0x18]
8d8c:	41 83 f4 01          	xor    r12d,0x1
8d90:	e9 67 e4 ff ff       	jmp    71fc <copy_internal+0x177c>
8d95:	c6 85 eb fc ff ff 00 	mov    BYTE PTR [rbp-0x315],0x0
8d9c:	41 bc 01 00 00 00    	mov    r12d,0x1
8da2:	e9 00 ec ff ff       	jmp    79a7 <copy_internal+0x1f27>
8da7:	48 8b 85 30 ff ff ff 	mov    rax,QWORD PTR [rbp-0xd0]
8dae:	48 39 85 a0 fe ff ff 	cmp    QWORD PTR [rbp-0x160],rax
8db5:	0f 85 e9 ee ff ff    	jne    7ca4 <copy_internal+0x2224>
8dbb:	e9 bc db ff ff       	jmp    697c <copy_internal+0xefc>
8dc0:	48 8b bd f8 fc ff ff 	mov    rdi,QWORD PTR [rbp-0x308]
8dc7:	e8 b4 99 ff ff       	call   2780 <unlink@plt>
8dcc:	85 c0                	test   eax,eax
8dce:	0f 85 32 0c 00 00    	jne    9a06 <copy_internal+0x3f86>
8dd4:	80 7b 2e 00          	cmp    BYTE PTR [rbx+0x2e],0x0
8dd8:	74 39                	je     8e13 <copy_internal+0x3393>
8dda:	48 8b b5 f8 fc ff ff 	mov    rsi,QWORD PTR [rbp-0x308]
8de1:	bf 04 00 00 00       	mov    edi,0x4
8de6:	e8 c5 5c 00 00       	call   eab0 <quotearg_style>
8deb:	48 8d 35 8e bf 00 00 	lea    rsi,[rip+0xbf8e]        # 14d80 <sparse_type+0x1d00>
8df2:	49 89 c4             	mov    r12,rax
8df5:	ba 05 00 00 00       	mov    edx,0x5
8dfa:	31 ff                	xor    edi,edi
8dfc:	e8 df 9a ff ff       	call   28e0 <dcgettext@plt>
8e01:	4c 89 e2             	mov    rdx,r12
8e04:	48 89 c6             	mov    rsi,rax
8e07:	bf 01 00 00 00       	mov    edi,0x1
8e0c:	31 c0                	xor    eax,eax
8e0e:	e8 4d 9e ff ff       	call   2c60 <__printf_chk@plt>
8e13:	44 0f b6 73 21       	movzx  r14d,BYTE PTR [rbx+0x21]
8e18:	8b 85 a4 fc ff ff    	mov    eax,DWORD PTR [rbp-0x35c]
8e1e:	89 85 88 fc ff ff    	mov    DWORD PTR [rbp-0x378],eax
8e24:	45 84 f6             	test   r14b,r14b
8e27:	74 43                	je     8e6c <copy_internal+0x33ec>
8e29:	8b 95 5c fc ff ff    	mov    edx,DWORD PTR [rbp-0x3a4]
8e2f:	48 8b b5 f8 fc ff ff 	mov    rsi,QWORD PTR [rbp-0x308]
8e36:	49 89 d8             	mov    r8,rbx
8e39:	48 8b bd f0 fc ff ff 	mov    rdi,QWORD PTR [rbp-0x310]
8e40:	b9 01 00 00 00       	mov    ecx,0x1
8e45:	e8 d6 c7 ff ff       	call   5620 <set_process_security_ctx>
8e4a:	84 c0                	test   al,al
8e4c:	41 89 c0             	mov    r8d,eax
8e4f:	48 c7 85 d0 fc ff ff 	mov    QWORD PTR [rbp-0x330],0x0
8e56:	00 00 00 00
8e5a:	0f 84 78 ed ff ff    	je     7bd8 <copy_internal+0x2158>
8e60:	8b 85 a4 fc ff ff    	mov    eax,DWORD PTR [rbp-0x35c]
8e66:	89 85 88 fc ff ff    	mov    DWORD PTR [rbp-0x378],eax
8e6c:	8b 85 88 fc ff ff    	mov    eax,DWORD PTR [rbp-0x378]
8e72:	48 8b bd f8 fc ff ff 	mov    rdi,QWORD PTR [rbp-0x308]
8e79:	be c1 00 00 00       	mov    esi,0xc1
8e7e:	f7 d0                	not    eax
8e80:	23 85 5c fc ff ff    	and    eax,DWORD PTR [rbp-0x3a4]
8e86:	89 c2                	mov    edx,eax
8e88:	89 85 d0 fc ff ff    	mov    DWORD PTR [rbp-0x330],eax
8e8e:	31 c0                	xor    eax,eax
8e90:	e8 2b 28 00 00       	call   b6c0 <open_safer>
8e95:	41 89 c6             	mov    r14d,eax
8e98:	89 85 d8 fc ff ff    	mov    DWORD PTR [rbp-0x328],eax
8e9e:	e8 cd 98 ff ff       	call   2770 <__errno_location@plt>
8ea3:	44 8b 00             	mov    r8d,DWORD PTR [rax]
8ea6:	49 89 c4             	mov    r12,rax
8ea9:	44 89 f0             	mov    eax,r14d
8eac:	c1 e8 1f             	shr    eax,0x1f
8eaf:	41 83 f8 11          	cmp    r8d,0x11
8eb3:	0f 94 c2             	sete   dl
8eb6:	20 c2                	and    dl,al
8eb8:	41 89 d6             	mov    r14d,edx
8ebb:	0f 84 01 04 00 00    	je     92c2 <copy_internal+0x3842>
8ec1:	80 7b 18 00          	cmp    BYTE PTR [rbx+0x18],0x0
8ec5:	41 b8 11 00 00 00    	mov    r8d,0x11
8ecb:	0f 84 84 03 00 00    	je     9255 <copy_internal+0x37d5>
8ed1:	41 b9 01 00 00 00    	mov    r9d,0x1
8ed7:	48 8b b5 f8 fc ff ff 	mov    rsi,QWORD PTR [rbp-0x308]
8ede:	bf 04 00 00 00       	mov    edi,0x4
8ee3:	44 88 8d d0 fc ff ff 	mov    BYTE PTR [rbp-0x330],r9b
8eea:	44 89 85 d8 fc ff ff 	mov    DWORD PTR [rbp-0x328],r8d
8ef1:	e8 ba 5b 00 00       	call   eab0 <quotearg_style>
8ef6:	48 8d 35 10 c0 00 00 	lea    rsi,[rip+0xc010]        # 14f0d <sparse_type+0x1e8d>
8efd:	ba 05 00 00 00       	mov    edx,0x5
8f02:	31 ff                	xor    edi,edi
8f04:	49 89 c4             	mov    r12,rax
8f07:	e8 d4 99 ff ff       	call   28e0 <dcgettext@plt>
8f0c:	44 8b 85 d8 fc ff ff 	mov    r8d,DWORD PTR [rbp-0x328]
8f13:	48 89 c2             	mov    rdx,rax
8f16:	4c 89 e1             	mov    rcx,r12
8f19:	31 ff                	xor    edi,edi
8f1b:	31 c0                	xor    eax,eax
8f1d:	44 89 c6             	mov    esi,r8d
8f20:	e8 8b 9d ff ff       	call   2cb0 <error@plt>
8f25:	44 0f b6 8d d0 fc ff 	movzx  r9d,BYTE PTR [rbp-0x330]
8f2c:	ff
8f2d:	45 31 c0             	xor    r8d,r8d
8f30:	48 c7 85 d0 fc ff ff 	mov    QWORD PTR [rbp-0x330],0x0
8f37:	00 00 00 00
8f3b:	45 89 ce             	mov    r14d,r9d
8f3e:	e9 95 ec ff ff       	jmp    7bd8 <copy_internal+0x2158>
8f43:	48 8b b5 f0 fc ff ff 	mov    rsi,QWORD PTR [rbp-0x310]
8f4a:	bf 04 00 00 00       	mov    edi,0x4
8f4f:	e8 5c 5b 00 00       	call   eab0 <quotearg_style>
8f54:	ba 05 00 00 00       	mov    edx,0x5
8f59:	49 89 c5             	mov    r13,rax
8f5c:	48 8d 35 85 c0 00 00 	lea    rsi,[rip+0xc085]        # 14fe8 <sparse_type+0x1f68>
8f63:	e9 f7 df ff ff       	jmp    6f5f <copy_internal+0x14df>
8f68:	4c 89 e7             	mov    rdi,r12
8f6b:	e8 a0 9e ff ff       	call   2e10 <free@plt>
8f70:	44 0f b6 43 25       	movzx  r8d,BYTE PTR [rbx+0x25]
8f75:	45 84 c0             	test   r8b,r8b
8f78:	0f 85 12 dc ff ff    	jne    6b90 <copy_internal+0x1110>
8f7e:	0f b6 43 1d          	movzx  eax,BYTE PTR [rbx+0x1d]
8f82:	84 c0                	test   al,al
8f84:	88 85 e0 fc ff ff    	mov    BYTE PTR [rbp-0x320],al
8f8a:	0f 85 73 02 00 00    	jne    9203 <copy_internal+0x3783>
8f90:	44 0f b6 85 e0 fc ff 	movzx  r8d,BYTE PTR [rbp-0x320]
8f97:	ff
8f98:	c6 85 e0 fc ff ff 01 	mov    BYTE PTR [rbp-0x320],0x1
8f9f:	e9 5b d0 ff ff       	jmp    5fff <copy_internal+0x57f>
8fa4:	e8 87 99 ff ff       	call   2930 <__stack_chk_fail@plt>
8fa9:	48 8b b5 f8 fc ff ff 	mov    rsi,QWORD PTR [rbp-0x308]
8fb0:	48 8d 95 a0 fe ff ff 	lea    rdx,[rbp-0x160]
8fb7:	bf 01 00 00 00       	mov    edi,0x1
8fbc:	44 88 8d a8 fc ff ff 	mov    BYTE PTR [rbp-0x358],r9b
8fc3:	44 88 85 b0 fc ff ff 	mov    BYTE PTR [rbp-0x350],r8b
8fca:	e8 d1 9b ff ff       	call   2ba0 <__xstat@plt>
8fcf:	85 c0                	test   eax,eax
8fd1:	44 0f b6 85 b0 fc ff 	movzx  r8d,BYTE PTR [rbp-0x350]
8fd8:	ff
8fd9:	44 0f b6 8d a8 fc ff 	movzx  r9d,BYTE PTR [rbp-0x358]
8fe0:	ff
8fe1:	0f 84 8a e6 ff ff    	je     7671 <copy_internal+0x1bf1>
8fe7:	e9 b3 cc ff ff       	jmp    5c9f <copy_internal+0x21f>
8fec:	48 8b b5 f0 fc ff ff 	mov    rsi,QWORD PTR [rbp-0x310]
8ff3:	48 8d 95 30 ff ff ff 	lea    rdx,[rbp-0xd0]
8ffa:	bf 01 00 00 00       	mov    edi,0x1
8fff:	44 88 8d a8 fc ff ff 	mov    BYTE PTR [rbp-0x358],r9b
9006:	44 88 85 b0 fc ff ff 	mov    BYTE PTR [rbp-0x350],r8b
900d:	e8 8e 9b ff ff       	call   2ba0 <__xstat@plt>
9012:	85 c0                	test   eax,eax
9014:	44 0f b6 85 b0 fc ff 	movzx  r8d,BYTE PTR [rbp-0x350]
901b:	ff
901c:	44 0f b6 8d a8 fc ff 	movzx  r9d,BYTE PTR [rbp-0x358]
9023:	ff
9024:	0f 84 b2 e5 ff ff    	je     75dc <copy_internal+0x1b5c>
902a:	e9 70 cc ff ff       	jmp    5c9f <copy_internal+0x21f>
902f:	48 c7 85 d0 fc ff ff 	mov    QWORD PTR [rbp-0x330],0x0
9036:	00 00 00 00
903a:	80 7b 1f 00          	cmp    BYTE PTR [rbx+0x1f],0x0
903e:	0f 85 02 04 00 00    	jne    9446 <copy_internal+0x39c6>
9044:	80 7b 1d 00          	cmp    BYTE PTR [rbx+0x1d],0x0
9048:	74 5a                	je     90a4 <copy_internal+0x3624>
904a:	8b 85 4c ff ff ff    	mov    eax,DWORD PTR [rbp-0xb4]
9050:	39 85 9c fd ff ff    	cmp    DWORD PTR [rbp-0x264],eax
9056:	75 0e                	jne    9066 <copy_internal+0x35e6>
9058:	8b 85 50 ff ff ff    	mov    eax,DWORD PTR [rbp-0xb0]
905e:	39 85 a0 fd ff ff    	cmp    DWORD PTR [rbp-0x260],eax
9064:	74 3e                	je     90a4 <copy_internal+0x3624>
9066:	4c 8b 8d 98 fc ff ff 	mov    r9,QWORD PTR [rbp-0x368]
906d:	8b 95 d8 fc ff ff    	mov    edx,DWORD PTR [rbp-0x328]
9073:	48 8d 8d 80 fd ff ff 	lea    rcx,[rbp-0x280]
907a:	48 8b b5 f8 fc ff ff 	mov    rsi,QWORD PTR [rbp-0x308]
9081:	45 0f b6 c6          	movzx  r8d,r14b
9085:	48 89 df             	mov    rdi,rbx
9088:	e8 b3 c7 ff ff       	call   5840 <set_owner>
908d:	83 f8 ff             	cmp    eax,0xffffffff
9090:	0f 84 7c fc ff ff    	je     8d12 <copy_internal+0x3292>
9096:	85 c0                	test   eax,eax
9098:	75 0a                	jne    90a4 <copy_internal+0x3624>
909a:	81 a5 c0 fc ff ff ff 	and    DWORD PTR [rbp-0x340],0xfffff1ff
90a1:	f1 ff ff
90a4:	80 7b 27 00          	cmp    BYTE PTR [rbx+0x27],0x0
90a8:	74 0d                	je     90b7 <copy_internal+0x3637>
90aa:	f6 85 48 ff ff ff 80 	test   BYTE PTR [rbp-0xb8],0x80
90b1:	0f 84 27 0a 00 00    	je     9ade <copy_internal+0x405e>
90b7:	48 b8 ff 00 00 00 00 	movabs rax,0xff0000000000ff
90be:	00 ff 00
90c1:	48 85 43 18          	test   QWORD PTR [rbx+0x18],rax
90c5:	0f 85 d2 02 00 00    	jne    939d <copy_internal+0x391d>
90cb:	80 7b 2b 00          	cmp    BYTE PTR [rbx+0x2b],0x0
90cf:	0f 85 8d 0a 00 00    	jne    9b62 <copy_internal+0x40e2>
90d5:	45 89 f4             	mov    r12d,r14d
90d8:	44 22 63 20          	and    r12b,BYTE PTR [rbx+0x20]
90dc:	0f 85 f5 08 00 00    	jne    99d7 <copy_internal+0x3f57>
90e2:	83 bd 88 fc ff ff 00 	cmp    DWORD PTR [rbp-0x378],0x0
90e9:	41 b8 01 00 00 00    	mov    r8d,0x1
90ef:	0f 84 20 fc ff ff    	je     8d15 <copy_internal+0x3295>
90f5:	44 88 85 c8 fc ff ff 	mov    BYTE PTR [rbp-0x338],r8b
90fc:	e8 4f c9 ff ff       	call   5a50 <cached_umask>
9101:	f7 d0                	not    eax
9103:	85 85 88 fc ff ff    	test   DWORD PTR [rbp-0x378],eax
9109:	44 0f b6 85 c8 fc ff 	movzx  r8d,BYTE PTR [rbp-0x338]
9110:	ff
9111:	0f 84 fe fb ff ff    	je     8d15 <copy_internal+0x3295>
9117:	8b 95 5c fc ff ff    	mov    edx,DWORD PTR [rbp-0x3a4]
911d:	48 8b b5 f8 fc ff ff 	mov    rsi,QWORD PTR [rbp-0x308]
9124:	8b bd d8 fc ff ff    	mov    edi,DWORD PTR [rbp-0x328]
912a:	e8 f1 9c ff ff       	call   2e20 <fchmod_or_lchmod>
912f:	85 c0                	test   eax,eax
9131:	44 0f b6 85 c8 fc ff 	movzx  r8d,BYTE PTR [rbp-0x338]
9138:	ff
9139:	0f 84 d6 fb ff ff    	je     8d15 <copy_internal+0x3295>
913f:	48 8b b5 f8 fc ff ff 	mov    rsi,QWORD PTR [rbp-0x308]
9146:	bf 04 00 00 00       	mov    edi,0x4
914b:	e8 60 59 00 00       	call   eab0 <quotearg_style>
9150:	48 8d 35 2c be 00 00 	lea    rsi,[rip+0xbe2c]        # 14f83 <sparse_type+0x1f03>
9157:	ba 05 00 00 00       	mov    edx,0x5
915c:	31 ff                	xor    edi,edi
915e:	49 89 c4             	mov    r12,rax
9161:	e8 7a 97 ff ff       	call   28e0 <dcgettext@plt>
9166:	48 89 85 c8 fc ff ff 	mov    QWORD PTR [rbp-0x338],rax
916d:	e8 fe 95 ff ff       	call   2770 <__errno_location@plt>
9172:	48 8b 95 c8 fc ff ff 	mov    rdx,QWORD PTR [rbp-0x338]
9179:	8b 30                	mov    esi,DWORD PTR [rax]
917b:	4c 89 e1             	mov    rcx,r12
917e:	31 ff                	xor    edi,edi
9180:	31 c0                	xor    eax,eax
9182:	e8 29 9b ff ff       	call   2cb0 <error@plt>
9187:	44 0f b6 43 24       	movzx  r8d,BYTE PTR [rbx+0x24]
918c:	41 83 f0 01          	xor    r8d,0x1
9190:	e9 80 fb ff ff       	jmp    8d15 <copy_internal+0x3295>
9195:	83 bd d8 fc ff ff 00 	cmp    DWORD PTR [rbp-0x328],0x0
919c:	0f 89 4c 02 00 00    	jns    93ee <copy_internal+0x396e>
91a2:	44 0f b6 4b 16       	movzx  r9d,BYTE PTR [rbx+0x16]
91a7:	45 84 c9             	test   r9b,r9b
91aa:	0f 85 10 fc ff ff    	jne    8dc0 <copy_internal+0x3340>
91b0:	45 8b 04 24          	mov    r8d,DWORD PTR [r12]
91b4:	41 83 f8 02          	cmp    r8d,0x2
91b8:	0f 85 19 fd ff ff    	jne    8ed7 <copy_internal+0x3457>
91be:	80 7b 18 00          	cmp    BYTE PTR [rbx+0x18],0x0
91c2:	0f 85 0f fd ff ff    	jne    8ed7 <copy_internal+0x3457>
91c8:	c7 85 88 fc ff ff 00 	mov    DWORD PTR [rbp-0x378],0x0
91cf:	00 00 00
91d2:	e9 95 fc ff ff       	jmp    8e6c <copy_internal+0x33ec>
91d7:	48 8b b5 f8 fc ff ff 	mov    rsi,QWORD PTR [rbp-0x308]
91de:	48 8d 95 10 fe ff ff 	lea    rdx,[rbp-0x1f0]
91e5:	bf 01 00 00 00       	mov    edi,0x1
91ea:	e8 21 97 ff ff       	call   2910 <__lxstat@plt>
91ef:	85 c0                	test   eax,eax
91f1:	0f 84 73 f6 ff ff    	je     886a <copy_internal+0x2dea>
91f7:	48 8b b5 f8 fc ff ff 	mov    rsi,QWORD PTR [rbp-0x308]
91fe:	e9 62 d1 ff ff       	jmp    6365 <copy_internal+0x8e5>
9203:	8b 95 a0 fd ff ff    	mov    edx,DWORD PTR [rbp-0x260]
9209:	8b b5 9c fd ff ff    	mov    esi,DWORD PTR [rbp-0x264]
920f:	48 8b bd f8 fc ff ff 	mov    rdi,QWORD PTR [rbp-0x308]
9216:	44 88 85 d8 fc ff ff 	mov    BYTE PTR [rbp-0x328],r8b
921d:	e8 de 99 ff ff       	call   2c00 <lchown@plt>
9222:	85 c0                	test   eax,eax
9224:	44 0f b6 85 d8 fc ff 	movzx  r8d,BYTE PTR [rbp-0x328]
922b:	ff
922c:	0f 84 cd cd ff ff    	je     5fff <copy_internal+0x57f>
9232:	48 89 df             	mov    rdi,rbx
9235:	e8 d6 c5 ff ff       	call   5810 <chown_failure_ok>
923a:	84 c0                	test   al,al
923c:	44 0f b6 85 d8 fc ff 	movzx  r8d,BYTE PTR [rbp-0x328]
9243:	ff
9244:	0f 84 fa 07 00 00    	je     9a44 <copy_internal+0x3fc4>
924a:	88 85 e0 fc ff ff    	mov    BYTE PTR [rbp-0x320],al
9250:	e9 aa cd ff ff       	jmp    5fff <copy_internal+0x57f>
9255:	48 8b b5 f8 fc ff ff 	mov    rsi,QWORD PTR [rbp-0x308]
925c:	48 8d 95 30 ff ff ff 	lea    rdx,[rbp-0xd0]
9263:	bf 01 00 00 00       	mov    edi,0x1
9268:	44 89 85 b8 fc ff ff 	mov    DWORD PTR [rbp-0x348],r8d
926f:	e8 9c 96 ff ff       	call   2910 <__lxstat@plt>
9274:	85 c0                	test   eax,eax
9276:	44 8b 85 b8 fc ff ff 	mov    r8d,DWORD PTR [rbp-0x348]
927d:	75 43                	jne    92c2 <copy_internal+0x3842>
927f:	8b 85 48 ff ff ff    	mov    eax,DWORD PTR [rbp-0xb8]
9285:	25 00 f0 00 00       	and    eax,0xf000
928a:	3d 00 a0 00 00       	cmp    eax,0xa000
928f:	75 31                	jne    92c2 <copy_internal+0x3842>
9291:	44 0f b6 43 30       	movzx  r8d,BYTE PTR [rbx+0x30]
9296:	45 84 c0             	test   r8b,r8b
9299:	0f 84 e8 07 00 00    	je     9a87 <copy_internal+0x4007>
929f:	8b 95 d0 fc ff ff    	mov    edx,DWORD PTR [rbp-0x330]
92a5:	48 8b bd f8 fc ff ff 	mov    rdi,QWORD PTR [rbp-0x308]
92ac:	be 41 00 00 00       	mov    esi,0x41
92b1:	31 c0                	xor    eax,eax
92b3:	e8 08 24 00 00       	call   b6c0 <open_safer>
92b8:	45 8b 04 24          	mov    r8d,DWORD PTR [r12]
92bc:	89 85 d8 fc ff ff    	mov    DWORD PTR [rbp-0x328],eax
92c2:	8b 85 d8 fc ff ff    	mov    eax,DWORD PTR [rbp-0x328]
92c8:	c1 e8 1f             	shr    eax,0x1f
92cb:	41 83 f8 15          	cmp    r8d,0x15
92cf:	0f 94 c2             	sete   dl
92d2:	20 c2                	and    dl,al
92d4:	41 89 d1             	mov    r9d,edx
92d7:	0f 84 f9 00 00 00    	je     93d6 <copy_internal+0x3956>
92dd:	48 8b b5 f8 fc ff ff 	mov    rsi,QWORD PTR [rbp-0x308]
92e4:	41 b8 15 00 00 00    	mov    r8d,0x15
92ea:	80 3e 00             	cmp    BYTE PTR [rsi],0x0
92ed:	48 89 f7             	mov    rdi,rsi
92f0:	0f 84 e1 fb ff ff    	je     8ed7 <copy_internal+0x3457>
92f6:	31 c0                	xor    eax,eax
92f8:	48 83 c9 ff          	or     rcx,0xffffffffffffffff
92fc:	45 31 c0             	xor    r8d,r8d
92ff:	f2 ae                	repnz scas al,BYTE PTR es:[rdi]
9301:	48 89 c8             	mov    rax,rcx
9304:	48 f7 d0             	not    rax
9307:	80 7c 06 fe 2f       	cmp    BYTE PTR [rsi+rax*1-0x2],0x2f
930c:	41 0f 95 c0          	setne  r8b
9310:	41 83 c0 14          	add    r8d,0x14
9314:	e9 be fb ff ff       	jmp    8ed7 <copy_internal+0x3457>
9319:	8b 85 28 fe ff ff    	mov    eax,DWORD PTR [rbp-0x1d8]
931f:	25 00 f0 00 00       	and    eax,0xf000
9324:	3d 00 a0 00 00       	cmp    eax,0xa000
9329:	0f 85 0b f4 ff ff    	jne    873a <copy_internal+0x2cba>
932f:	48 83 c9 ff          	or     rcx,0xffffffffffffffff
9333:	44 89 f0             	mov    eax,r14d
9336:	4c 89 e7             	mov    rdi,r12
9339:	f2 ae                	repnz scas al,BYTE PTR es:[rdi]
933b:	48 8b b5 40 fe ff ff 	mov    rsi,QWORD PTR [rbp-0x1c0]
9342:	48 f7 d1             	not    rcx
9345:	48 8d 41 ff          	lea    rax,[rcx-0x1]
9349:	48 39 c6             	cmp    rsi,rax
934c:	0f 85 e8 f3 ff ff    	jne    873a <copy_internal+0x2cba>
9352:	48 8b bd f8 fc ff ff 	mov    rdi,QWORD PTR [rbp-0x308]
9359:	e8 22 13 00 00       	call   a680 <areadlink_with_size>
935e:	48 85 c0             	test   rax,rax
9361:	0f 84 d3 f3 ff ff    	je     873a <copy_internal+0x2cba>
9367:	48 89 c7             	mov    rdi,rax
936a:	4c 89 e6             	mov    rsi,r12
936d:	48 89 85 d8 fc ff ff 	mov    QWORD PTR [rbp-0x328],rax
9374:	e8 77 97 ff ff       	call   2af0 <strcmp@plt>
9379:	48 8b 95 d8 fc ff ff 	mov    rdx,QWORD PTR [rbp-0x328]
9380:	85 c0                	test   eax,eax
9382:	48 89 d7             	mov    rdi,rdx
9385:	0f 85 f7 07 00 00    	jne    9b82 <copy_internal+0x4102>
938b:	e8 80 9a ff ff       	call   2e10 <free@plt>
9390:	4c 89 e7             	mov    rdi,r12
9393:	e8 78 9a ff ff       	call   2e10 <free@plt>
9398:	e9 d3 fb ff ff       	jmp    8f70 <copy_internal+0x34f0>
939d:	44 8b 85 c0 fc ff ff 	mov    r8d,DWORD PTR [rbp-0x340]
93a4:	8b 8d d8 fc ff ff    	mov    ecx,DWORD PTR [rbp-0x328]
93aa:	48 8b 95 f8 fc ff ff 	mov    rdx,QWORD PTR [rbp-0x308]
93b1:	8b b5 e0 fc ff ff    	mov    esi,DWORD PTR [rbp-0x320]
93b7:	48 8b bd f0 fc ff ff 	mov    rdi,QWORD PTR [rbp-0x310]
93be:	e8 dd 11 00 00       	call   a5a0 <copy_acl>
93c3:	85 c0                	test   eax,eax
93c5:	41 b8 01 00 00 00    	mov    r8d,0x1
93cb:	0f 84 44 f9 ff ff    	je     8d15 <copy_internal+0x3295>
93d1:	e9 b1 fd ff ff       	jmp    9187 <copy_internal+0x3707>
93d6:	83 bd d8 fc ff ff 00 	cmp    DWORD PTR [rbp-0x328],0x0
93dd:	41 be 01 00 00 00    	mov    r14d,0x1
93e3:	0f 89 3d f5 ff ff    	jns    8926 <copy_internal+0x2ea6>
93e9:	e9 e3 fa ff ff       	jmp    8ed1 <copy_internal+0x3451>
93ee:	0f b6 73 25          	movzx  esi,BYTE PTR [rbx+0x25]
93f2:	48 8b bd f8 fc ff ff 	mov    rdi,QWORD PTR [rbp-0x308]
93f9:	31 d2                	xor    edx,edx
93fb:	48 89 d9             	mov    rcx,rbx
93fe:	e8 ed c2 ff ff       	call   56f0 <set_file_security_ctx>
9403:	84 c0                	test   al,al
9405:	41 89 c0             	mov    r8d,eax
9408:	0f 85 0e f5 ff ff    	jne    891c <copy_internal+0x2e9c>
940e:	80 7b 26 00          	cmp    BYTE PTR [rbx+0x26],0x0
9412:	48 c7 85 d0 fc ff ff 	mov    QWORD PTR [rbp-0x330],0x0
9419:	00 00 00 00
941d:	0f 85 f2 f8 ff ff    	jne    8d15 <copy_internal+0x3295>
9423:	e9 f4 f4 ff ff       	jmp    891c <copy_internal+0x2e9c>
9428:	8b bd d8 fc ff ff    	mov    edi,DWORD PTR [rbp-0x328]
942e:	48 89 ce             	mov    rsi,rcx
9431:	e8 0a b9 ff ff       	call   4d40 <write_zeros>
9436:	84 c0                	test   al,al
9438:	0f 84 15 05 00 00    	je     9953 <copy_internal+0x3ed3>
943e:	45 31 c0             	xor    r8d,r8d
9441:	e9 67 f7 ff ff       	jmp    8bad <copy_internal+0x312d>
9446:	48 8b 85 c8 fd ff ff 	mov    rax,QWORD PTR [rbp-0x238]
944d:	48 8b b5 f8 fc ff ff 	mov    rsi,QWORD PTR [rbp-0x308]
9454:	48 8d 95 60 fd ff ff 	lea    rdx,[rbp-0x2a0]
945b:	8b bd d8 fc ff ff    	mov    edi,DWORD PTR [rbp-0x328]
9461:	48 89 85 60 fd ff ff 	mov    QWORD PTR [rbp-0x2a0],rax
9468:	48 8b 85 d0 fd ff ff 	mov    rax,QWORD PTR [rbp-0x230]
946f:	48 89 85 68 fd ff ff 	mov    QWORD PTR [rbp-0x298],rax
9476:	48 8b 85 d8 fd ff ff 	mov    rax,QWORD PTR [rbp-0x228]
947d:	48 89 85 70 fd ff ff 	mov    QWORD PTR [rbp-0x290],rax
9484:	48 8b 85 e0 fd ff ff 	mov    rax,QWORD PTR [rbp-0x220]
948b:	48 89 85 78 fd ff ff 	mov    QWORD PTR [rbp-0x288],rax
9492:	e8 59 6e 00 00       	call   102f0 <fdutimens>
9497:	85 c0                	test   eax,eax
9499:	0f 84 a5 fb ff ff    	je     9044 <copy_internal+0x35c4>
949f:	48 8b b5 f8 fc ff ff 	mov    rsi,QWORD PTR [rbp-0x308]
94a6:	bf 04 00 00 00       	mov    edi,0x4
94ab:	e8 00 56 00 00       	call   eab0 <quotearg_style>
94b0:	48 8d 35 b4 ba 00 00 	lea    rsi,[rip+0xbab4]        # 14f6b <sparse_type+0x1eeb>
94b7:	31 ff                	xor    edi,edi
94b9:	ba 05 00 00 00       	mov    edx,0x5
94be:	49 89 c4             	mov    r12,rax
94c1:	e8 1a 94 ff ff       	call   28e0 <dcgettext@plt>
94c6:	48 89 85 c8 fc ff ff 	mov    QWORD PTR [rbp-0x338],rax
94cd:	e8 9e 92 ff ff       	call   2770 <__errno_location@plt>
94d2:	48 8b 95 c8 fc ff ff 	mov    rdx,QWORD PTR [rbp-0x338]
94d9:	8b 30                	mov    esi,DWORD PTR [rax]
94db:	31 ff                	xor    edi,edi
94dd:	31 c0                	xor    eax,eax
94df:	4c 89 e1             	mov    rcx,r12
94e2:	e8 c9 97 ff ff       	call   2cb0 <error@plt>
94e7:	80 7b 24 00          	cmp    BYTE PTR [rbx+0x24],0x0
94eb:	0f 84 53 fb ff ff    	je     9044 <copy_internal+0x35c4>
94f1:	e9 1c f8 ff ff       	jmp    8d12 <copy_internal+0x3292>
94f6:	48 8b b5 f8 fc ff ff 	mov    rsi,QWORD PTR [rbp-0x308]
94fd:	bf 04 00 00 00       	mov    edi,0x4
9502:	e8 a9 55 00 00       	call   eab0 <quotearg_style>
9507:	48 8d 35 ef b9 00 00 	lea    rsi,[rip+0xb9ef]        # 14efd <sparse_type+0x1e7d>
950e:	ba 05 00 00 00       	mov    edx,0x5
9513:	31 ff                	xor    edi,edi
9515:	49 89 c4             	mov    r12,rax
9518:	e8 c3 93 ff ff       	call   28e0 <dcgettext@plt>
951d:	48 89 85 d0 fc ff ff 	mov    QWORD PTR [rbp-0x330],rax
9524:	e8 47 92 ff ff       	call   2770 <__errno_location@plt>
9529:	48 8b 95 d0 fc ff ff 	mov    rdx,QWORD PTR [rbp-0x330]
9530:	8b 30                	mov    esi,DWORD PTR [rax]
9532:	4c 89 e1             	mov    rcx,r12
9535:	31 ff                	xor    edi,edi
9537:	31 c0                	xor    eax,eax
9539:	e8 72 97 ff ff       	call   2cb0 <error@plt>
953e:	45 31 c0             	xor    r8d,r8d
9541:	48 c7 85 d0 fc ff ff 	mov    QWORD PTR [rbp-0x330],0x0
9548:	00 00 00 00
954c:	e9 c4 f7 ff ff       	jmp    8d15 <copy_internal+0x3295>
9551:	48 89 8d 90 fc ff ff 	mov    QWORD PTR [rbp-0x370],rcx
9558:	e9 53 f5 ff ff       	jmp    8ab0 <copy_internal+0x3030>
955d:	45 31 c9             	xor    r9d,r9d
9560:	83 7b 0c 03          	cmp    DWORD PTR [rbx+0xc],0x3
9564:	48 8d 85 10 fd ff ff 	lea    rax,[rbp-0x2f0]
956b:	48 c7 85 68 fc ff ff 	mov    QWORD PTR [rbp-0x398],0x0
9572:	00 00 00 00
9576:	48 89 85 b8 fc ff ff 	mov    QWORD PTR [rbp-0x348],rax
957d:	41 0f 94 c1          	sete   r9b
9581:	48 8d 85 08 fd ff ff 	lea    rax,[rbp-0x2f8]
9588:	48 83 ec 08          	sub    rsp,0x8
958c:	4c 8b 85 68 fc ff ff 	mov    r8,QWORD PTR [rbp-0x398]
9593:	48 8b 8d 90 fc ff ff 	mov    rcx,QWORD PTR [rbp-0x370]
959a:	48 8b 95 50 fc ff ff 	mov    rdx,QWORD PTR [rbp-0x3b0]
95a1:	8b b5 d8 fc ff ff    	mov    esi,DWORD PTR [rbp-0x328]
95a7:	8b bd e0 fc ff ff    	mov    edi,DWORD PTR [rbp-0x320]
95ad:	50                   	push   rax
95ae:	ff b5 b8 fc ff ff    	push   QWORD PTR [rbp-0x348]
95b4:	6a ff                	push   0xffffffffffffffff
95b6:	ff b5 f8 fc ff ff    	push   QWORD PTR [rbp-0x308]
95bc:	ff b5 f0 fc ff ff    	push   QWORD PTR [rbp-0x310]
95c2:	e8 49 bc ff ff       	call   5210 <sparse_copy>
95c7:	48 83 c4 30          	add    rsp,0x30
95cb:	84 c0                	test   al,al
95cd:	0f 84 3f f7 ff ff    	je     8d12 <copy_internal+0x3292>
95d3:	80 bd 08 fd ff ff 00 	cmp    BYTE PTR [rbp-0x2f8],0x0
95da:	0f 84 5a fa ff ff    	je     903a <copy_internal+0x35ba>
95e0:	48 8b b5 10 fd ff ff 	mov    rsi,QWORD PTR [rbp-0x2f0]
95e7:	8b bd d8 fc ff ff    	mov    edi,DWORD PTR [rbp-0x328]
95ed:	e8 be 93 ff ff       	call   29b0 <ftruncate@plt>
95f2:	85 c0                	test   eax,eax
95f4:	0f 89 40 fa ff ff    	jns    903a <copy_internal+0x35ba>
95fa:	48 8b b5 f8 fc ff ff 	mov    rsi,QWORD PTR [rbp-0x308]
9601:	bf 04 00 00 00       	mov    edi,0x4
9606:	e8 a5 54 00 00       	call   eab0 <quotearg_style>
960b:	48 8d 35 45 b9 00 00 	lea    rsi,[rip+0xb945]        # 14f57 <sparse_type+0x1ed7>
9612:	49 89 c4             	mov    r12,rax
9615:	ba 05 00 00 00       	mov    edx,0x5
961a:	31 ff                	xor    edi,edi
961c:	e8 bf 92 ff ff       	call   28e0 <dcgettext@plt>
9621:	48 89 85 c8 fc ff ff 	mov    QWORD PTR [rbp-0x338],rax
9628:	e8 43 91 ff ff       	call   2770 <__errno_location@plt>
962d:	48 8b 95 c8 fc ff ff 	mov    rdx,QWORD PTR [rbp-0x338]
9634:	8b 30                	mov    esi,DWORD PTR [rax]
9636:	4c 89 e1             	mov    rcx,r12
9639:	31 ff                	xor    edi,edi
963b:	31 c0                	xor    eax,eax
963d:	e8 6e 96 ff ff       	call   2cb0 <error@plt>
9642:	e9 cb f6 ff ff       	jmp    8d12 <copy_internal+0x3292>
9647:	c6 85 31 fd ff ff 01 	mov    BYTE PTR [rbp-0x2cf],0x1
964e:	48 8b bd 38 fd ff ff 	mov    rdi,QWORD PTR [rbp-0x2c8]
9655:	e8 b6 97 ff ff       	call   2e10 <free@plt>
965a:	80 bd 31 fd ff ff 00 	cmp    BYTE PTR [rbp-0x2cf],0x0
9661:	48 c7 85 38 fd ff ff 	mov    QWORD PTR [rbp-0x2c8],0x0
9668:	00 00 00 00
966c:	48 c7 85 28 fd ff ff 	mov    QWORD PTR [rbp-0x2d8],0x0
9673:	00 00 00 00
9677:	0f 84 e6 f4 ff ff    	je     8b63 <copy_internal+0x30e3>
967d:	48 8b 9d 78 fc ff ff 	mov    rbx,QWORD PTR [rbp-0x388]
9684:	44 8b ad a0 fc ff ff 	mov    r13d,DWORD PTR [rbp-0x360]
968b:	48 8b 8d 60 fc ff ff 	mov    rcx,QWORD PTR [rbp-0x3a0]
9692:	48 39 8d 80 fc ff ff 	cmp    QWORD PTR [rbp-0x380],rcx
9699:	41 0f 9f c4          	setg   r12b
969d:	7f 0d                	jg     96ac <copy_internal+0x3c2c>
969f:	80 bd c8 fc ff ff 00 	cmp    BYTE PTR [rbp-0x338],0x0
96a6:	0f 84 8e f9 ff ff    	je     903a <copy_internal+0x35ba>
96ac:	83 bd 70 fc ff ff 01 	cmp    DWORD PTR [rbp-0x390],0x1
96b3:	48 8b b5 80 fc ff ff 	mov    rsi,QWORD PTR [rbp-0x380]
96ba:	74 72                	je     972e <copy_internal+0x3cae>
96bc:	8b bd d8 fc ff ff    	mov    edi,DWORD PTR [rbp-0x328]
96c2:	e8 e9 92 ff ff       	call   29b0 <ftruncate@plt>
96c7:	85 c0                	test   eax,eax
96c9:	0f 85 2b ff ff ff    	jne    95fa <copy_internal+0x3b7a>
96cf:	83 bd 70 fc ff ff 03 	cmp    DWORD PTR [rbp-0x390],0x3
96d6:	0f 85 5e f9 ff ff    	jne    903a <copy_internal+0x35ba>
96dc:	45 84 e4             	test   r12b,r12b
96df:	0f 84 55 f9 ff ff    	je     903a <copy_internal+0x35ba>
96e5:	48 8b 95 80 fc ff ff 	mov    rdx,QWORD PTR [rbp-0x380]
96ec:	48 8b b5 60 fc ff ff 	mov    rsi,QWORD PTR [rbp-0x3a0]
96f3:	8b bd d8 fc ff ff    	mov    edi,DWORD PTR [rbp-0x328]
96f9:	48 29 f2             	sub    rdx,rsi
96fc:	e8 ef b6 ff ff       	call   4df0 <punch_hole>
9701:	85 c0                	test   eax,eax
9703:	0f 89 31 f9 ff ff    	jns    903a <copy_internal+0x35ba>
9709:	48 8b b5 f8 fc ff ff 	mov    rsi,QWORD PTR [rbp-0x308]
9710:	bf 04 00 00 00       	mov    edi,0x4
9715:	e8 96 53 00 00       	call   eab0 <quotearg_style>
971a:	ba 05 00 00 00       	mov    edx,0x5
971f:	49 89 c4             	mov    r12,rax
9722:	48 8d 35 86 b6 00 00 	lea    rsi,[rip+0xb686]        # 14daf <sparse_type+0x1d2f>
9729:	e9 ec fe ff ff       	jmp    961a <copy_internal+0x3b9a>
972e:	48 2b b5 60 fc ff ff 	sub    rsi,QWORD PTR [rbp-0x3a0]
9735:	8b bd d8 fc ff ff    	mov    edi,DWORD PTR [rbp-0x328]
973b:	e8 00 b6 ff ff       	call   4d40 <write_zeros>
9740:	84 c0                	test   al,al
9742:	0f 85 f2 f8 ff ff    	jne    903a <copy_internal+0x35ba>
9748:	e9 ad fe ff ff       	jmp    95fa <copy_internal+0x3b7a>
974d:	48 8b 85 d0 fe ff ff 	mov    rax,QWORD PTR [rbp-0x130]
9754:	48 39 85 90 fc ff ff 	cmp    QWORD PTR [rbp-0x370],rax
975b:	0f 86 22 f3 ff ff    	jbe    8a83 <copy_internal+0x3003>
9761:	48 83 c0 01          	add    rax,0x1
9765:	48 89 85 90 fc ff ff 	mov    QWORD PTR [rbp-0x370],rax
976c:	e9 12 f3 ff ff       	jmp    8a83 <copy_internal+0x3003>
9771:	80 bd 31 fd ff ff 00 	cmp    BYTE PTR [rbp-0x2cf],0x0
9778:	48 8b 9d 78 fc ff ff 	mov    rbx,QWORD PTR [rbp-0x388]
977f:	44 8b ad a0 fc ff ff 	mov    r13d,DWORD PTR [rbp-0x360]
9786:	0f 85 ff fe ff ff    	jne    968b <copy_internal+0x3c0b>
978c:	80 bd 30 fd ff ff 00 	cmp    BYTE PTR [rbp-0x2d0],0x0
9793:	0f 84 17 02 00 00    	je     99b0 <copy_internal+0x3f30>
9799:	45 31 c9             	xor    r9d,r9d
979c:	83 7b 0c 03          	cmp    DWORD PTR [rbx+0xc],0x3
97a0:	b8 00 00 00 00       	mov    eax,0x0
97a5:	41 0f 94 c1          	sete   r9b
97a9:	80 bd 5b fc ff ff 00 	cmp    BYTE PTR [rbp-0x3a5],0x0
97b0:	48 0f 45 85 68 fc ff 	cmovne rax,QWORD PTR [rbp-0x398]
97b7:	ff
97b8:	48 89 85 68 fc ff ff 	mov    QWORD PTR [rbp-0x398],rax
97bf:	e9 bd fd ff ff       	jmp    9581 <copy_internal+0x3b01>
97c4:	8b 95 e0 fc ff ff    	mov    edx,DWORD PTR [rbp-0x320]
97ca:	8b bd d8 fc ff ff    	mov    edi,DWORD PTR [rbp-0x328]
97d0:	31 c0                	xor    eax,eax
97d2:	be 09 94 04 40       	mov    esi,0x40049409
97d7:	e8 34 92 ff ff       	call   2a10 <ioctl@plt>
97dc:	85 c0                	test   eax,eax
97de:	0f 84 4b f8 ff ff    	je     902f <copy_internal+0x35af>
97e4:	83 7b 38 02          	cmp    DWORD PTR [rbx+0x38],0x2
97e8:	0f 85 7e f1 ff ff    	jne    896c <copy_internal+0x2eec>
97ee:	48 8b 95 f0 fc ff ff 	mov    rdx,QWORD PTR [rbp-0x310]
97f5:	be 04 00 00 00       	mov    esi,0x4
97fa:	bf 01 00 00 00       	mov    edi,0x1
97ff:	e8 8c 51 00 00       	call   e990 <quotearg_n_style>
9804:	48 8b 95 f8 fc ff ff 	mov    rdx,QWORD PTR [rbp-0x308]
980b:	be 04 00 00 00       	mov    esi,0x4
9810:	31 ff                	xor    edi,edi
9812:	49 89 c4             	mov    r12,rax
9815:	e8 76 51 00 00       	call   e990 <quotearg_n_style>
981a:	48 8d 35 0a b7 00 00 	lea    rsi,[rip+0xb70a]        # 14f2b <sparse_type+0x1eab>
9821:	ba 05 00 00 00       	mov    edx,0x5
9826:	31 ff                	xor    edi,edi
9828:	48 89 85 c8 fc ff ff 	mov    QWORD PTR [rbp-0x338],rax
982f:	e8 ac 90 ff ff       	call   28e0 <dcgettext@plt>
9834:	48 89 85 d0 fc ff ff 	mov    QWORD PTR [rbp-0x330],rax
983b:	e8 30 8f ff ff       	call   2770 <__errno_location@plt>
9840:	48 8b 8d c8 fc ff ff 	mov    rcx,QWORD PTR [rbp-0x338]
9847:	8b 30                	mov    esi,DWORD PTR [rax]
9849:	4d 89 e0             	mov    r8,r12
984c:	48 8b 95 d0 fc ff ff 	mov    rdx,QWORD PTR [rbp-0x330]
9853:	31 ff                	xor    edi,edi
9855:	31 c0                	xor    eax,eax
9857:	e8 54 94 ff ff       	call   2cb0 <error@plt>
985c:	45 31 c0             	xor    r8d,r8d
985f:	48 c7 85 d0 fc ff ff 	mov    QWORD PTR [rbp-0x330],0x0
9866:	00 00 00 00
986a:	e9 a6 f4 ff ff       	jmp    8d15 <copy_internal+0x3295>
986f:	8b 43 0c             	mov    eax,DWORD PTR [rbx+0xc]
9872:	83 f8 03             	cmp    eax,0x3
9875:	0f 84 83 00 00 00    	je     98fe <copy_internal+0x3e7e>
987b:	83 f8 02             	cmp    eax,0x2
987e:	0f 85 90 f1 ff ff    	jne    8a14 <copy_internal+0x2f94>
9884:	f6 85 b8 fc ff ff 01 	test   BYTE PTR [rbp-0x348],0x1
988b:	0f 84 83 f1 ff ff    	je     8a14 <copy_internal+0x2f94>
9891:	48 8b 85 90 fc ff ff 	mov    rax,QWORD PTR [rbp-0x370]
9898:	49 8d 3c 04          	lea    rdi,[r12+rax*1]
989c:	e8 7f 77 00 00       	call   11020 <xmalloc>
98a1:	4a 8d 4c 20 ff       	lea    rcx,[rax+r12*1-0x1]
98a6:	48 89 85 d0 fc ff ff 	mov    QWORD PTR [rbp-0x330],rax
98ad:	31 d2                	xor    edx,edx
98af:	48 89 c8             	mov    rax,rcx
98b2:	49 f7 f4             	div    r12
98b5:	48 29 d1             	sub    rcx,rdx
98b8:	48 89 8d 50 fc ff ff 	mov    QWORD PTR [rbp-0x3b0],rcx
98bf:	8b 43 0c             	mov    eax,DWORD PTR [rbx+0xc]
98c2:	89 85 70 fc ff ff    	mov    DWORD PTR [rbp-0x390],eax
98c8:	0f b6 85 c8 fc ff ff 	movzx  eax,BYTE PTR [rbp-0x338]
98cf:	88 85 5b fc ff ff    	mov    BYTE PTR [rbp-0x3a5],al
98d5:	e9 22 f2 ff ff       	jmp    8afc <copy_internal+0x307c>
98da:	48 8b 85 d0 fe ff ff 	mov    rax,QWORD PTR [rbp-0x130]
98e1:	48 99                	cqo
98e3:	49 f7 f8             	idiv   r8
98e6:	48 39 85 e0 fe ff ff 	cmp    QWORD PTR [rbp-0x120],rax
98ed:	0f 9c c0             	setl   al
98f0:	0f b6 c0             	movzx  eax,al
98f3:	89 85 b8 fc ff ff    	mov    DWORD PTR [rbp-0x348],eax
98f9:	e9 00 f1 ff ff       	jmp    89fe <copy_internal+0x2f7e>
98fe:	48 8b 85 90 fc ff ff 	mov    rax,QWORD PTR [rbp-0x370]
9905:	49 8d 3c 04          	lea    rdi,[r12+rax*1]
9909:	e8 12 77 00 00       	call   11020 <xmalloc>
990e:	4a 8d 4c 20 ff       	lea    rcx,[rax+r12*1-0x1]
9913:	31 d2                	xor    edx,edx
9915:	48 89 85 d0 fc ff ff 	mov    QWORD PTR [rbp-0x330],rax
991c:	48 89 c8             	mov    rax,rcx
991f:	49 f7 f4             	div    r12
9922:	48 29 d1             	sub    rcx,rdx
9925:	83 bd b8 fc ff ff 00 	cmp    DWORD PTR [rbp-0x348],0x0
992c:	48 89 8d 50 fc ff ff 	mov    QWORD PTR [rbp-0x3b0],rcx
9933:	75 8a                	jne    98bf <copy_internal+0x3e3f>
9935:	45 31 c9             	xor    r9d,r9d
9938:	83 7b 0c 03          	cmp    DWORD PTR [rbx+0xc],0x3
993c:	48 8d 85 10 fd ff ff 	lea    rax,[rbp-0x2f0]
9943:	48 89 85 b8 fc ff ff 	mov    QWORD PTR [rbp-0x348],rax
994a:	41 0f 94 c1          	sete   r9b
994e:	e9 2e fc ff ff       	jmp    9581 <copy_internal+0x3b01>
9953:	48 8b 95 f8 fc ff ff 	mov    rdx,QWORD PTR [rbp-0x308]
995a:	be 03 00 00 00       	mov    esi,0x3
995f:	31 ff                	xor    edi,edi
9961:	48 8b 9d 78 fc ff ff 	mov    rbx,QWORD PTR [rbp-0x388]
9968:	44 8b ad a0 fc ff ff 	mov    r13d,DWORD PTR [rbp-0x360]
996f:	e8 3c 52 00 00       	call   ebb0 <quotearg_n_style_colon>
9974:	48 8d 35 cb b5 00 00 	lea    rsi,[rip+0xb5cb]        # 14f46 <sparse_type+0x1ec6>
997b:	49 89 c4             	mov    r12,rax
997e:	ba 05 00 00 00       	mov    edx,0x5
9983:	31 ff                	xor    edi,edi
9985:	e8 56 8f ff ff       	call   28e0 <dcgettext@plt>
998a:	48 89 85 c8 fc ff ff 	mov    QWORD PTR [rbp-0x338],rax
9991:	e8 da 8d ff ff       	call   2770 <__errno_location@plt>
9996:	48 8b 95 c8 fc ff ff 	mov    rdx,QWORD PTR [rbp-0x338]
999d:	8b 30                	mov    esi,DWORD PTR [rax]
999f:	4c 89 e1             	mov    rcx,r12
99a2:	31 ff                	xor    edi,edi
99a4:	31 c0                	xor    eax,eax
99a6:	e8 05 93 ff ff       	call   2cb0 <error@plt>
99ab:	e9 56 f3 ff ff       	jmp    8d06 <copy_internal+0x3286>
99b0:	48 8b 95 f0 fc ff ff 	mov    rdx,QWORD PTR [rbp-0x310]
99b7:	be 03 00 00 00       	mov    esi,0x3
99bc:	31 ff                	xor    edi,edi
99be:	e8 ed 51 00 00       	call   ebb0 <quotearg_n_style_colon>
99c3:	ba 05 00 00 00       	mov    edx,0x5
99c8:	49 89 c4             	mov    r12,rax
99cb:	48 8d 35 06 b2 00 00 	lea    rsi,[rip+0xb206]        # 14bd8 <sparse_type+0x1b58>
99d2:	e9 43 fc ff ff       	jmp    961a <copy_internal+0x3b9a>
99d7:	e8 74 c0 ff ff       	call   5a50 <cached_umask>
99dc:	8b b5 d8 fc ff ff    	mov    esi,DWORD PTR [rbp-0x328]
99e2:	f7 d0                	not    eax
99e4:	48 8b bd f8 fc ff ff 	mov    rdi,QWORD PTR [rbp-0x308]
99eb:	89 c2                	mov    edx,eax
99ed:	45 89 e6             	mov    r14d,r12d
99f0:	81 e2 b6 01 00 00    	and    edx,0x1b6
99f6:	e8 35 0c 00 00       	call   a630 <set_acl>
99fb:	85 c0                	test   eax,eax
99fd:	41 0f 94 c0          	sete   r8b
9a01:	e9 0f f3 ff ff       	jmp    8d15 <copy_internal+0x3295>
9a06:	48 8b b5 f8 fc ff ff 	mov    rsi,QWORD PTR [rbp-0x308]
9a0d:	bf 04 00 00 00       	mov    edi,0x4
9a12:	e8 99 50 00 00       	call   eab0 <quotearg_style>
9a17:	48 8d 35 4b b4 00 00 	lea    rsi,[rip+0xb44b]        # 14e69 <sparse_type+0x1de9>
9a1e:	ba 05 00 00 00       	mov    edx,0x5
9a23:	31 ff                	xor    edi,edi
9a25:	48 89 85 d8 fc ff ff 	mov    QWORD PTR [rbp-0x328],rax
9a2c:	e8 af 8e ff ff       	call   28e0 <dcgettext@plt>
9a31:	48 8b 8d d8 fc ff ff 	mov    rcx,QWORD PTR [rbp-0x328]
9a38:	48 89 c2             	mov    rdx,rax
9a3b:	41 8b 34 24          	mov    esi,DWORD PTR [r12]
9a3f:	e9 7d e1 ff ff       	jmp    7bc1 <copy_internal+0x2141>
9a44:	48 8d 35 ad 96 00 00 	lea    rsi,[rip+0x96ad]        # 130f8 <sparse_type+0x78>
9a4b:	31 ff                	xor    edi,edi
9a4d:	ba 05 00 00 00       	mov    edx,0x5
9a52:	e8 89 8e ff ff       	call   28e0 <dcgettext@plt>
9a57:	49 89 c4             	mov    r12,rax
9a5a:	e8 11 8d ff ff       	call   2770 <__errno_location@plt>
9a5f:	48 8b 8d f8 fc ff ff 	mov    rcx,QWORD PTR [rbp-0x308]
9a66:	8b 30                	mov    esi,DWORD PTR [rax]
9a68:	31 ff                	xor    edi,edi
9a6a:	31 c0                	xor    eax,eax
9a6c:	4c 89 e2             	mov    rdx,r12
9a6f:	e8 3c 92 ff ff       	call   2cb0 <error@plt>
9a74:	44 0f b6 43 24       	movzx  r8d,BYTE PTR [rbx+0x24]
9a79:	45 84 c0             	test   r8b,r8b
9a7c:	0f 85 8e cf ff ff    	jne    6a10 <copy_internal+0xf90>
9a82:	e9 78 c5 ff ff       	jmp    5fff <copy_internal+0x57f>
9a87:	48 8b b5 f8 fc ff ff 	mov    rsi,QWORD PTR [rbp-0x308]
9a8e:	bf 04 00 00 00       	mov    edi,0x4
9a93:	44 88 85 d8 fc ff ff 	mov    BYTE PTR [rbp-0x328],r8b
9a9a:	e8 11 50 00 00       	call   eab0 <quotearg_style>
9a9f:	48 8d 35 0a b1 00 00 	lea    rsi,[rip+0xb10a]        # 14bb0 <sparse_type+0x1b30>
9aa6:	49 89 c4             	mov    r12,rax
9aa9:	ba 05 00 00 00       	mov    edx,0x5
9aae:	31 ff                	xor    edi,edi
9ab0:	e8 2b 8e ff ff       	call   28e0 <dcgettext@plt>
9ab5:	4c 89 e1             	mov    rcx,r12
9ab8:	48 89 c2             	mov    rdx,rax
9abb:	31 f6                	xor    esi,esi
9abd:	31 ff                	xor    edi,edi
9abf:	31 c0                	xor    eax,eax
9ac1:	e8 ea 91 ff ff       	call   2cb0 <error@plt>
9ac6:	48 c7 85 d0 fc ff ff 	mov    QWORD PTR [rbp-0x330],0x0
9acd:	00 00 00 00
9ad1:	44 0f b6 85 d8 fc ff 	movzx  r8d,BYTE PTR [rbp-0x328]
9ad8:	ff
9ad9:	e9 fa e0 ff ff       	jmp    7bd8 <copy_internal+0x2158>
9ade:	e8 1d 8f ff ff       	call   2a00 <geteuid@plt>
9ae3:	85 c0                	test   eax,eax
9ae5:	0f 84 cc f5 ff ff    	je     90b7 <copy_internal+0x3637>
9aeb:	48 8b b5 f8 fc ff ff 	mov    rsi,QWORD PTR [rbp-0x308]
9af2:	8b bd d8 fc ff ff    	mov    edi,DWORD PTR [rbp-0x328]
9af8:	ba 80 01 00 00       	mov    edx,0x180
9afd:	e8 1e 93 ff ff       	call   2e20 <fchmod_or_lchmod>
9b02:	85 c0                	test   eax,eax
9b04:	0f 85 ad f5 ff ff    	jne    90b7 <copy_internal+0x3637>
9b0a:	8b 95 88 fc ff ff    	mov    edx,DWORD PTR [rbp-0x378]
9b10:	48 8b b5 f8 fc ff ff 	mov    rsi,QWORD PTR [rbp-0x308]
9b17:	8b bd d8 fc ff ff    	mov    edi,DWORD PTR [rbp-0x328]
9b1d:	f7 d2                	not    edx
9b1f:	23 95 5c fc ff ff    	and    edx,DWORD PTR [rbp-0x3a4]
9b25:	e8 f6 92 ff ff       	call   2e20 <fchmod_or_lchmod>
9b2a:	e9 88 f5 ff ff       	jmp    90b7 <copy_internal+0x3637>
9b2f:	48 8b b5 f0 fc ff ff 	mov    rsi,QWORD PTR [rbp-0x310]
9b36:	bf 04 00 00 00       	mov    edi,0x4
9b3b:	48 8b 9d 78 fc ff ff 	mov    rbx,QWORD PTR [rbp-0x388]
9b42:	44 8b ad a0 fc ff ff 	mov    r13d,DWORD PTR [rbp-0x360]
9b49:	e8 62 4f 00 00       	call   eab0 <quotearg_style>
9b4e:	ba 05 00 00 00       	mov    edx,0x5
9b53:	49 89 c4             	mov    r12,rax
9b56:	48 8d 35 42 b2 00 00 	lea    rsi,[rip+0xb242]        # 14d9f <sparse_type+0x1d1f>
9b5d:	e9 21 fe ff ff       	jmp    9983 <copy_internal+0x3f03>
9b62:	8b 53 10             	mov    edx,DWORD PTR [rbx+0x10]
9b65:	8b b5 d8 fc ff ff    	mov    esi,DWORD PTR [rbp-0x328]
9b6b:	48 8b bd f8 fc ff ff 	mov    rdi,QWORD PTR [rbp-0x308]
9b72:	e8 b9 0a 00 00       	call   a630 <set_acl>
9b77:	85 c0                	test   eax,eax
9b79:	41 0f 94 c0          	sete   r8b
9b7d:	e9 93 f1 ff ff       	jmp    8d15 <copy_internal+0x3295>
9b82:	e8 89 92 ff ff       	call   2e10 <free@plt>
9b87:	e9 ae eb ff ff       	jmp    873a <copy_internal+0x2cba>
9b8c:	0f 1f 40 00          	nop    DWORD PTR [rax+0x0]

0000000000009b90 <copy>:
9b90:	48 83 ec 18          	sub    rsp,0x18
9b94:	64 48 8b 04 25 28 00 	mov    rax,QWORD PTR fs:0x28
9b9b:	00 00
9b9d:	48 89 44 24 08       	mov    QWORD PTR [rsp+0x8],rax
9ba2:	31 c0                	xor    eax,eax
9ba4:	48 85 c9             	test   rcx,rcx
9ba7:	0f 84 29 01 00 00    	je     9cd6 <copy+0x146>
9bad:	83 39 03             	cmp    DWORD PTR [rcx],0x3
9bb0:	0f 87 01 01 00 00    	ja     9cb7 <copy+0x127>
9bb6:	8b 41 0c             	mov    eax,DWORD PTR [rcx+0xc]
9bb9:	44 8d 50 ff          	lea    r10d,[rax-0x1]
9bbd:	41 83 fa 02          	cmp    r10d,0x2
9bc1:	0f 87 d1 00 00 00    	ja     9c98 <copy+0x108>
9bc7:	44 8b 51 38          	mov    r10d,DWORD PTR [rcx+0x38]
9bcb:	41 83 fa 02          	cmp    r10d,0x2
9bcf:	0f 87 a4 00 00 00    	ja     9c79 <copy+0xe9>
9bd5:	80 79 17 00          	cmp    BYTE PTR [rcx+0x17],0x0
9bd9:	75 55                	jne    9c30 <copy+0xa0>
9bdb:	83 f8 02             	cmp    eax,0x2
9bde:	74 06                	je     9be6 <copy+0x56>
9be0:	41 83 fa 02          	cmp    r10d,0x2
9be4:	74 6f                	je     9c55 <copy+0xc5>
9be6:	c6 44 24 07 00       	mov    BYTE PTR [rsp+0x7],0x0
9beb:	41 51                	push   r9
9bed:	0f b6 d2             	movzx  edx,dl
9bf0:	41 50                	push   r8
9bf2:	49 89 c9             	mov    r9,rcx
9bf5:	45 31 c0             	xor    r8d,r8d
9bf8:	31 c9                	xor    ecx,ecx
9bfa:	48 89 35 67 09 21 00 	mov    QWORD PTR [rip+0x210967],rsi        # 21a568 <top_level_dst_name>
9c01:	48 89 3d 68 09 21 00 	mov    QWORD PTR [rip+0x210968],rdi        # 21a570 <top_level_src_name>
9c08:	48 8d 44 24 17       	lea    rax,[rsp+0x17]
9c0d:	50                   	push   rax
9c0e:	6a 01                	push   0x1
9c10:	e8 6b be ff ff       	call   5a80 <copy_internal>
9c15:	48 83 c4 20          	add    rsp,0x20
9c19:	48 8b 74 24 08       	mov    rsi,QWORD PTR [rsp+0x8]
9c1e:	64 48 33 34 25 28 00 	xor    rsi,QWORD PTR fs:0x28
9c25:	00 00
9c27:	75 4b                	jne    9c74 <copy+0xe4>
9c29:	48 83 c4 18          	add    rsp,0x18
9c2d:	c3                   	ret
9c2e:	66 90                	xchg   ax,ax
9c30:	80 79 2c 00          	cmp    BYTE PTR [rcx+0x2c],0x0
9c34:	74 a5                	je     9bdb <copy+0x4b>
9c36:	48 8d 0d 33 b4 00 00 	lea    rcx,[rip+0xb433]        # 15070 <__PRETTY_FUNCTION__.7875>
9c3d:	48 8d 35 03 b4 00 00 	lea    rsi,[rip+0xb403]        # 15047 <sparse_type+0x1fc7>
9c44:	48 8d 3d ad b0 00 00 	lea    rdi,[rip+0xb0ad]        # 14cf8 <sparse_type+0x1c78>
9c4b:	ba 8a 0b 00 00       	mov    edx,0xb8a
9c50:	e8 8b 8d ff ff       	call   29e0 <__assert_fail@plt>
9c55:	48 8d 0d 14 b4 00 00 	lea    rcx,[rip+0xb414]        # 15070 <__PRETTY_FUNCTION__.7875>
9c5c:	48 8d 35 e4 b3 00 00 	lea    rsi,[rip+0xb3e4]        # 15047 <sparse_type+0x1fc7>
9c63:	48 8d 3d b6 b0 00 00 	lea    rdi,[rip+0xb0b6]        # 14d20 <sparse_type+0x1ca0>
9c6a:	ba 8d 0b 00 00       	mov    edx,0xb8d
9c6f:	e8 6c 8d ff ff       	call   29e0 <__assert_fail@plt>
9c74:	e8 b7 8c ff ff       	call   2930 <__stack_chk_fail@plt>
9c79:	48 8d 0d f0 b3 00 00 	lea    rcx,[rip+0xb3f0]        # 15070 <__PRETTY_FUNCTION__.7875>
9c80:	48 8d 35 c0 b3 00 00 	lea    rsi,[rip+0xb3c0]        # 15047 <sparse_type+0x1fc7>
9c87:	48 8d 3d 42 b0 00 00 	lea    rdi,[rip+0xb042]        # 14cd0 <sparse_type+0x1c50>
9c8e:	ba 89 0b 00 00       	mov    edx,0xb89
9c93:	e8 48 8d ff ff       	call   29e0 <__assert_fail@plt>
9c98:	48 8d 0d d1 b3 00 00 	lea    rcx,[rip+0xb3d1]        # 15070 <__PRETTY_FUNCTION__.7875>
9c9f:	48 8d 35 a1 b3 00 00 	lea    rsi,[rip+0xb3a1]        # 15047 <sparse_type+0x1fc7>
9ca6:	48 8d 3d fb af 00 00 	lea    rdi,[rip+0xaffb]        # 14ca8 <sparse_type+0x1c28>
9cad:	ba 88 0b 00 00       	mov    edx,0xb88
9cb2:	e8 29 8d ff ff       	call   29e0 <__assert_fail@plt>
9cb7:	48 8d 0d b2 b3 00 00 	lea    rcx,[rip+0xb3b2]        # 15070 <__PRETTY_FUNCTION__.7875>
9cbe:	48 8d 35 82 b3 00 00 	lea    rsi,[rip+0xb382]        # 15047 <sparse_type+0x1fc7>
9cc5:	48 8d 3d b4 af 00 00 	lea    rdi,[rip+0xafb4]        # 14c80 <sparse_type+0x1c00>
9ccc:	ba 87 0b 00 00       	mov    edx,0xb87
9cd1:	e8 0a 8d ff ff       	call   29e0 <__assert_fail@plt>
9cd6:	48 8d 0d 93 b3 00 00 	lea    rcx,[rip+0xb393]        # 15070 <__PRETTY_FUNCTION__.7875>
9cdd:	48 8d 35 63 b3 00 00 	lea    rsi,[rip+0xb363]        # 15047 <sparse_type+0x1fc7>
9ce4:	48 8d 3d 79 b3 00 00 	lea    rdi,[rip+0xb379]        # 15064 <sparse_type+0x1fe4>
9ceb:	ba 86 0b 00 00       	mov    edx,0xb86
9cf0:	e8 eb 8c ff ff       	call   29e0 <__assert_fail@plt>
9cf5:	66 2e 0f 1f 84 00 00 	nop    WORD PTR cs:[rax+rax*1+0x0]
9cfc:	00 00 00
9cff:	90                   	nop

0000000000009d00 <src_to_dest_hash>:
9d00:	48 8b 07             	mov    rax,QWORD PTR [rdi]
9d03:	31 d2                	xor    edx,edx
9d05:	48 f7 f6             	div    rsi
9d08:	48 89 d0             	mov    rax,rdx
9d0b:	c3                   	ret
9d0c:	0f 1f 40 00          	nop    DWORD PTR [rax+0x0]

0000000000009d10 <src_to_dest_compare>:
9d10:	31 c0                	xor    eax,eax
9d12:	48 8b 16             	mov    rdx,QWORD PTR [rsi]
9d15:	48 39 17             	cmp    QWORD PTR [rdi],rdx
9d18:	74 06                	je     9d20 <src_to_dest_compare+0x10>
9d1a:	f3 c3                	repz ret
9d1c:	0f 1f 40 00          	nop    DWORD PTR [rax+0x0]
9d20:	48 8b 46 08          	mov    rax,QWORD PTR [rsi+0x8]
9d24:	48 39 47 08          	cmp    QWORD PTR [rdi+0x8],rax
9d28:	0f 94 c0             	sete   al
9d2b:	c3                   	ret
9d2c:	0f 1f 40 00          	nop    DWORD PTR [rax+0x0]

0000000000009d30 <src_to_dest_free>:
9d30:	53                   	push   rbx
9d31:	48 89 fb             	mov    rbx,rdi
9d34:	48 8b 7f 10          	mov    rdi,QWORD PTR [rdi+0x10]
9d38:	e8 d3 90 ff ff       	call   2e10 <free@plt>
9d3d:	48 89 df             	mov    rdi,rbx
9d40:	5b                   	pop    rbx
9d41:	e9 ca 90 ff ff       	jmp    2e10 <free@plt>
9d46:	66 2e 0f 1f 84 00 00 	nop    WORD PTR cs:[rax+rax*1+0x0]
9d4d:	00 00 00

0000000000009d50 <forget_created>:
9d50:	53                   	push   rbx
9d51:	48 83 ec 20          	sub    rsp,0x20
9d55:	48 89 3c 24          	mov    QWORD PTR [rsp],rdi
9d59:	48 8b 3d 18 08 21 00 	mov    rdi,QWORD PTR [rip+0x210818]        # 21a578 <src_to_dest>
9d60:	48 89 74 24 08       	mov    QWORD PTR [rsp+0x8],rsi
9d65:	48 89 e6             	mov    rsi,rsp
9d68:	48 c7 44 24 10 00 00 	mov    QWORD PTR [rsp+0x10],0x0
9d6f:	00 00
9d71:	64 48 8b 04 25 28 00 	mov    rax,QWORD PTR fs:0x28
9d78:	00 00
9d7a:	48 89 44 24 18       	mov    QWORD PTR [rsp+0x18],rax
9d7f:	31 c0                	xor    eax,eax
9d81:	e8 aa 2e 00 00       	call   cc30 <hash_delete>
9d86:	48 85 c0             	test   rax,rax
9d89:	74 14                	je     9d9f <forget_created+0x4f>
9d8b:	48 8b 78 10          	mov    rdi,QWORD PTR [rax+0x10]
9d8f:	48 89 c3             	mov    rbx,rax
9d92:	e8 79 90 ff ff       	call   2e10 <free@plt>
9d97:	48 89 df             	mov    rdi,rbx
9d9a:	e8 71 90 ff ff       	call   2e10 <free@plt>
9d9f:	48 8b 44 24 18       	mov    rax,QWORD PTR [rsp+0x18]
9da4:	64 48 33 04 25 28 00 	xor    rax,QWORD PTR fs:0x28
9dab:	00 00
9dad:	75 06                	jne    9db5 <forget_created+0x65>
9daf:	48 83 c4 20          	add    rsp,0x20
9db3:	5b                   	pop    rbx
9db4:	c3                   	ret
9db5:	e8 76 8b ff ff       	call   2930 <__stack_chk_fail@plt>
9dba:	66 0f 1f 44 00 00    	nop    WORD PTR [rax+rax*1+0x0]

0000000000009dc0 <src_to_dest_lookup>:
9dc0:	48 83 ec 28          	sub    rsp,0x28
9dc4:	48 89 3c 24          	mov    QWORD PTR [rsp],rdi
9dc8:	48 8b 3d a9 07 21 00 	mov    rdi,QWORD PTR [rip+0x2107a9]        # 21a578 <src_to_dest>
9dcf:	48 89 74 24 08       	mov    QWORD PTR [rsp+0x8],rsi
9dd4:	48 89 e6             	mov    rsi,rsp
9dd7:	64 48 8b 04 25 28 00 	mov    rax,QWORD PTR fs:0x28
9dde:	00 00
9de0:	48 89 44 24 18       	mov    QWORD PTR [rsp+0x18],rax
9de5:	31 c0                	xor    eax,eax
9de7:	e8 74 23 00 00       	call   c160 <hash_lookup>
9dec:	48 85 c0             	test   rax,rax
9def:	74 1f                	je     9e10 <src_to_dest_lookup+0x50>
9df1:	48 8b 40 10          	mov    rax,QWORD PTR [rax+0x10]
9df5:	48 8b 54 24 18       	mov    rdx,QWORD PTR [rsp+0x18]
9dfa:	64 48 33 14 25 28 00 	xor    rdx,QWORD PTR fs:0x28
9e01:	00 00
9e03:	75 0f                	jne    9e14 <src_to_dest_lookup+0x54>
9e05:	48 83 c4 28          	add    rsp,0x28
9e09:	c3                   	ret
9e0a:	66 0f 1f 44 00 00    	nop    WORD PTR [rax+rax*1+0x0]
9e10:	31 c0                	xor    eax,eax
9e12:	eb e1                	jmp    9df5 <src_to_dest_lookup+0x35>
9e14:	e8 17 8b ff ff       	call   2930 <__stack_chk_fail@plt>
9e19:	0f 1f 80 00 00 00 00 	nop    DWORD PTR [rax+0x0]

0000000000009e20 <remember_copied>:
9e20:	41 55                	push   r13
9e22:	41 54                	push   r12
9e24:	49 89 fd             	mov    r13,rdi
9e27:	55                   	push   rbp
9e28:	53                   	push   rbx
9e29:	bf 18 00 00 00       	mov    edi,0x18
9e2e:	49 89 f4             	mov    r12,rsi
9e31:	48 89 d5             	mov    rbp,rdx
9e34:	48 83 ec 08          	sub    rsp,0x8
9e38:	e8 e3 71 00 00       	call   11020 <xmalloc>
9e3d:	4c 89 ef             	mov    rdi,r13
9e40:	48 89 c3             	mov    rbx,rax
9e43:	e8 08 74 00 00       	call   11250 <xstrdup>
9e48:	48 8b 3d 29 07 21 00 	mov    rdi,QWORD PTR [rip+0x210729]        # 21a578 <src_to_dest>
9e4f:	48 89 de             	mov    rsi,rbx
9e52:	48 89 43 10          	mov    QWORD PTR [rbx+0x10],rax
9e56:	4c 89 23             	mov    QWORD PTR [rbx],r12
9e59:	48 89 6b 08          	mov    QWORD PTR [rbx+0x8],rbp
9e5d:	e8 6e 2d 00 00       	call   cbd0 <hash_insert>
9e62:	48 85 c0             	test   rax,rax
9e65:	74 2d                	je     9e94 <remember_copied+0x74>
9e67:	48 39 c3             	cmp    rbx,rax
9e6a:	48 89 c5             	mov    rbp,rax
9e6d:	74 21                	je     9e90 <remember_copied+0x70>
9e6f:	48 8b 7b 10          	mov    rdi,QWORD PTR [rbx+0x10]
9e73:	e8 98 8f ff ff       	call   2e10 <free@plt>
9e78:	48 89 df             	mov    rdi,rbx
9e7b:	e8 90 8f ff ff       	call   2e10 <free@plt>
9e80:	48 8b 45 10          	mov    rax,QWORD PTR [rbp+0x10]
9e84:	48 83 c4 08          	add    rsp,0x8
9e88:	5b                   	pop    rbx
9e89:	5d                   	pop    rbp
9e8a:	41 5c                	pop    r12
9e8c:	41 5d                	pop    r13
9e8e:	c3                   	ret
9e8f:	90                   	nop
9e90:	31 c0                	xor    eax,eax
9e92:	eb f0                	jmp    9e84 <remember_copied+0x64>
9e94:	e8 d7 73 00 00       	call   11270 <xalloc_die>
9e99:	0f 1f 80 00 00 00 00 	nop    DWORD PTR [rax+0x0]

0000000000009ea0 <hash_init>:
9ea0:	4c 8d 05 89 fe ff ff 	lea    r8,[rip+0xfffffffffffffe89]        # 9d30 <src_to_dest_free>
9ea7:	48 8d 0d 62 fe ff ff 	lea    rcx,[rip+0xfffffffffffffe62]        # 9d10 <src_to_dest_compare>
9eae:	48 8d 15 4b fe ff ff 	lea    rdx,[rip+0xfffffffffffffe4b]        # 9d00 <src_to_dest_hash>
9eb5:	48 83 ec 08          	sub    rsp,0x8
9eb9:	31 f6                	xor    esi,esi
9ebb:	bf 67 00 00 00       	mov    edi,0x67
9ec0:	e8 0b 25 00 00       	call   c3d0 <hash_initialize>
9ec5:	48 85 c0             	test   rax,rax
9ec8:	48 89 05 a9 06 21 00 	mov    QWORD PTR [rip+0x2106a9],rax        # 21a578 <src_to_dest>
9ecf:	74 05                	je     9ed6 <hash_init+0x36>
9ed1:	48 83 c4 08          	add    rsp,0x8
9ed5:	c3                   	ret
9ed6:	e8 95 73 00 00       	call   11270 <xalloc_die>
9edb:	0f 1f 44 00 00       	nop    DWORD PTR [rax+rax*1+0x0]

0000000000009ee0 <forget_all>:
9ee0:	48 8b 3d 91 06 21 00 	mov    rdi,QWORD PTR [rip+0x210691]        # 21a578 <src_to_dest>
9ee7:	e9 34 27 00 00       	jmp    c620 <hash_free>
9eec:	0f 1f 40 00          	nop    DWORD PTR [rax+0x0]

0000000000009ef0 <extent_scan_init>:
9ef0:	89 3e                	mov    DWORD PTR [rsi],edi
9ef2:	48 c7 46 18 00 00 00 	mov    QWORD PTR [rsi+0x18],0x0
9ef9:	00
9efa:	48 c7 46 28 00 00 00 	mov    QWORD PTR [rsi+0x28],0x0
9f01:	00
9f02:	48 c7 46 08 00 00 00 	mov    QWORD PTR [rsi+0x8],0x0
9f09:	00
9f0a:	c6 46 20 00          	mov    BYTE PTR [rsi+0x20],0x0
9f0e:	c6 46 21 00          	mov    BYTE PTR [rsi+0x21],0x0
9f12:	c7 46 10 01 00 00 00 	mov    DWORD PTR [rsi+0x10],0x1
9f19:	c3                   	ret
9f1a:	66 0f 1f 44 00 00    	nop    WORD PTR [rax+rax*1+0x0]

0000000000009f20 <extent_scan_read>:
9f20:	41 57                	push   r15
9f22:	41 56                	push   r14
9f24:	45 31 ff             	xor    r15d,r15d
9f27:	41 55                	push   r13
9f29:	41 54                	push   r12
9f2b:	49 89 fe             	mov    r14,rdi
9f2e:	55                   	push   rbp
9f2f:	53                   	push   rbx
9f30:	49 bd ff ff ff ff ff 	movabs r13,0x7fffffffffffffff
9f37:	ff ff 7f
9f3a:	48 81 ec 18 10 00 00 	sub    rsp,0x1018
9f41:	48 8b 5f 28          	mov    rbx,QWORD PTR [rdi+0x28]
9f45:	48 8b 57 08          	mov    rdx,QWORD PTR [rdi+0x8]
9f49:	48 89 e5             	mov    rbp,rsp
9f4c:	64 48 8b 04 25 28 00 	mov    rax,QWORD PTR fs:0x28
9f53:	00 00
9f55:	48 89 84 24 08 10 00 	mov    QWORD PTR [rsp+0x1008],rax
9f5c:	00
9f5d:	31 c0                	xor    eax,eax
9f5f:	4c 8d 65 20          	lea    r12,[rbp+0x20]
9f63:	31 c0                	xor    eax,eax
9f65:	b9 00 02 00 00       	mov    ecx,0x200
9f6a:	48 89 ef             	mov    rdi,rbp
9f6d:	f3 48 ab             	rep stos QWORD PTR es:[rdi],rax
9f70:	41 8b 46 10          	mov    eax,DWORD PTR [r14+0x10]
9f74:	41 8b 3e             	mov    edi,DWORD PTR [r14]
9f77:	be 0b 66 20 c0       	mov    esi,0xc020660b
9f7c:	48 89 14 24          	mov    QWORD PTR [rsp],rdx
9f80:	48 f7 d2             	not    rdx
9f83:	c7 44 24 18 48 00 00 	mov    DWORD PTR [rsp+0x18],0x48
9f8a:	00
9f8b:	48 89 54 24 08       	mov    QWORD PTR [rsp+0x8],rdx
9f90:	48 89 ea             	mov    rdx,rbp
9f93:	89 44 24 10          	mov    DWORD PTR [rsp+0x10],eax
9f97:	31 c0                	xor    eax,eax
9f99:	e8 72 8a ff ff       	call   2a10 <ioctl@plt>
9f9e:	85 c0                	test   eax,eax
9fa0:	0f 88 ca 00 00 00    	js     a070 <extent_scan_read+0x150>
9fa6:	8b 44 24 14          	mov    eax,DWORD PTR [rsp+0x14]
9faa:	85 c0                	test   eax,eax
9fac:	0f 84 36 02 00 00    	je     a1e8 <extent_scan_read+0x2c8>
9fb2:	49 8b 4e 18          	mov    rcx,QWORD PTR [r14+0x18]
9fb6:	48 89 c2             	mov    rdx,rax
9fb9:	48 f7 d2             	not    rdx
9fbc:	48 39 d1             	cmp    rcx,rdx
9fbf:	0f 87 35 02 00 00    	ja     a1fa <extent_scan_read+0x2da>
9fc5:	49 8b 7e 28          	mov    rdi,QWORD PTR [r14+0x28]
9fc9:	ba 18 00 00 00       	mov    edx,0x18
9fce:	48 01 c1             	add    rcx,rax
9fd1:	48 89 d0             	mov    rax,rdx
9fd4:	31 f6                	xor    esi,esi
9fd6:	49 89 4e 18          	mov    QWORD PTR [r14+0x18],rcx
9fda:	48 29 fb             	sub    rbx,rdi
9fdd:	48 f7 e1             	mul    rcx
9fe0:	0f 80 33 02 00 00    	jo     a219 <extent_scan_read+0x2f9>
9fe6:	48 85 c0             	test   rax,rax
9fe9:	0f 88 34 02 00 00    	js     a223 <extent_scan_read+0x303>
9fef:	48 85 f6             	test   rsi,rsi
9ff2:	0f 85 2b 02 00 00    	jne    a223 <extent_scan_read+0x303>
9ff8:	48 8d 34 49          	lea    rsi,[rcx+rcx*2]
9ffc:	48 c1 e6 03          	shl    rsi,0x3
a000:	e8 7b 70 00 00       	call   11080 <xrealloc>
a005:	44 8b 44 24 14       	mov    r8d,DWORD PTR [rsp+0x14]
a00a:	48 01 c3             	add    rbx,rax
a00d:	49 89 46 28          	mov    QWORD PTR [r14+0x28],rax
a011:	45 85 c0             	test   r8d,r8d
a014:	0f 84 36 01 00 00    	je     a150 <extent_scan_read+0x230>
a01a:	48 8b 44 24 30       	mov    rax,QWORD PTR [rsp+0x30]
a01f:	48 8b 54 24 20       	mov    rdx,QWORD PTR [rsp+0x20]
a024:	4c 89 e9             	mov    rcx,r13
a027:	48 29 c1             	sub    rcx,rax
a02a:	48 39 ca             	cmp    rdx,rcx
a02d:	0f 87 d7 00 00 00    	ja     a10a <extent_scan_read+0x1ea>
a033:	31 c9                	xor    ecx,ecx
a035:	4c 89 e6             	mov    rsi,r12
a038:	45 85 ff             	test   r15d,r15d
a03b:	74 73                	je     a0b0 <extent_scan_read+0x190>
a03d:	44 8b 4e 28          	mov    r9d,DWORD PTR [rsi+0x28]
a041:	4c 8b 53 08          	mov    r10,QWORD PTR [rbx+0x8]
a045:	48 8b 3b             	mov    rdi,QWORD PTR [rbx]
a048:	45 89 cb             	mov    r11d,r9d
a04b:	4c 01 d7             	add    rdi,r10
a04e:	41 83 e3 fe          	and    r11d,0xfffffffe
a052:	44 39 5b 10          	cmp    DWORD PTR [rbx+0x10],r11d
a056:	0f 84 d4 00 00 00    	je     a130 <extent_scan_read+0x210>
a05c:	48 39 d7             	cmp    rdi,rdx
a05f:	76 5c                	jbe    a0bd <extent_scan_read+0x19d>
a061:	49 89 fa             	mov    r10,rdi
a064:	49 29 d2             	sub    r10,rdx
a067:	49 39 c2             	cmp    r10,rax
a06a:	0f 83 18 01 00 00    	jae    a188 <extent_scan_read+0x268>
a070:	31 c0                	xor    eax,eax
a072:	49 83 7e 08 00       	cmp    QWORD PTR [r14+0x8],0x0
a077:	75 07                	jne    a080 <extent_scan_read+0x160>
a079:	41 c6 46 20 01       	mov    BYTE PTR [r14+0x20],0x1
a07e:	31 c0                	xor    eax,eax
a080:	48 8b 9c 24 08 10 00 	mov    rbx,QWORD PTR [rsp+0x1008]
a087:	00
a088:	64 48 33 1c 25 28 00 	xor    rbx,QWORD PTR fs:0x28
a08f:	00 00
a091:	0f 85 91 01 00 00    	jne    a228 <extent_scan_read+0x308>
a097:	48 81 c4 18 10 00 00 	add    rsp,0x1018
a09e:	5b                   	pop    rbx
a09f:	5d                   	pop    rbp
a0a0:	41 5c                	pop    r12
a0a2:	41 5d                	pop    r13
a0a4:	41 5e                	pop    r14
a0a6:	41 5f                	pop    r15
a0a8:	c3                   	ret
a0a9:	0f 1f 80 00 00 00 00 	nop    DWORD PTR [rax+0x0]
a0b0:	49 8b 7e 08          	mov    rdi,QWORD PTR [r14+0x8]
a0b4:	48 39 d7             	cmp    rdi,rdx
a0b7:	77 a8                	ja     a061 <extent_scan_read+0x141>
a0b9:	44 8b 4e 28          	mov    r9d,DWORD PTR [rsi+0x28]
a0bd:	44 89 fe             	mov    esi,r15d
a0c0:	41 83 c7 01          	add    r15d,0x1
a0c4:	48 8d 3c 76          	lea    rdi,[rsi+rsi*2]
a0c8:	49 8b 76 28          	mov    rsi,QWORD PTR [r14+0x28]
a0cc:	48 8d 1c fe          	lea    rbx,[rsi+rdi*8]
a0d0:	48 89 13             	mov    QWORD PTR [rbx],rdx
a0d3:	48 89 43 08          	mov    QWORD PTR [rbx+0x8],rax
a0d7:	44 89 4b 10          	mov    DWORD PTR [rbx+0x10],r9d
a0db:	83 c1 01             	add    ecx,0x1
a0de:	44 39 c1             	cmp    ecx,r8d
a0e1:	73 6d                	jae    a150 <extent_scan_read+0x230>
a0e3:	89 ca                	mov    edx,ecx
a0e5:	4c 89 ef             	mov    rdi,r13
a0e8:	48 8d 04 d5 00 00 00 	lea    rax,[rdx*8+0x0]
a0ef:	00
a0f0:	48 29 d0             	sub    rax,rdx
a0f3:	49 8d 34 c4          	lea    rsi,[r12+rax*8]
a0f7:	48 8b 46 10          	mov    rax,QWORD PTR [rsi+0x10]
a0fb:	48 8b 16             	mov    rdx,QWORD PTR [rsi]
a0fe:	48 29 c7             	sub    rdi,rax
a101:	48 39 fa             	cmp    rdx,rdi
a104:	0f 86 2e ff ff ff    	jbe    a038 <extent_scan_read+0x118>
a10a:	48 8d 0d 0f b0 00 00 	lea    rcx,[rip+0xb00f]        # 15120 <__PRETTY_FUNCTION__.6956>
a111:	48 8d 35 68 af 00 00 	lea    rsi,[rip+0xaf68]        # 15080 <__PRETTY_FUNCTION__.7875+0x10>
a118:	48 8d 3d c1 af 00 00 	lea    rdi,[rip+0xafc1]        # 150e0 <__PRETTY_FUNCTION__.7875+0x70>
a11f:	ba 8d 00 00 00       	mov    edx,0x8d
a124:	e8 b7 88 ff ff       	call   29e0 <__assert_fail@plt>
a129:	0f 1f 80 00 00 00 00 	nop    DWORD PTR [rax+0x0]
a130:	48 39 d7             	cmp    rdi,rdx
a133:	0f 85 23 ff ff ff    	jne    a05c <extent_scan_read+0x13c>
a139:	83 c1 01             	add    ecx,0x1
a13c:	4c 01 d0             	add    rax,r10
a13f:	44 89 4b 10          	mov    DWORD PTR [rbx+0x10],r9d
a143:	44 39 c1             	cmp    ecx,r8d
a146:	48 89 43 08          	mov    QWORD PTR [rbx+0x8],rax
a14a:	72 97                	jb     a0e3 <extent_scan_read+0x1c3>
a14c:	0f 1f 40 00          	nop    DWORD PTR [rax+0x0]
a150:	f6 43 10 01          	test   BYTE PTR [rbx+0x10],0x1
a154:	75 4a                	jne    a1a0 <extent_scan_read+0x280>
a156:	41 83 ff 48          	cmp    r15d,0x48
a15a:	41 0f b6 46 21       	movzx  eax,BYTE PTR [r14+0x21]
a15f:	76 5f                	jbe    a1c0 <extent_scan_read+0x2a0>
a161:	84 c0                	test   al,al
a163:	75 40                	jne    a1a5 <extent_scan_read+0x285>
a165:	41 8d 47 ff          	lea    eax,[r15-0x1]
a169:	49 8b 56 28          	mov    rdx,QWORD PTR [r14+0x28]
a16d:	48 8d 0c 40          	lea    rcx,[rax+rax*2]
a171:	49 89 46 18          	mov    QWORD PTR [r14+0x18],rax
a175:	48 8b 44 ca e8       	mov    rax,QWORD PTR [rdx+rcx*8-0x18]
a17a:	48 03 44 ca f0       	add    rax,QWORD PTR [rdx+rcx*8-0x10]
a17f:	49 89 46 08          	mov    QWORD PTR [r14+0x8],rax
a183:	eb 27                	jmp    a1ac <extent_scan_read+0x28c>
a185:	0f 1f 00             	nop    DWORD PTR [rax]
a188:	4c 29 d0             	sub    rax,r10
a18b:	48 89 3e             	mov    QWORD PTR [rsi],rdi
a18e:	83 e9 01             	sub    ecx,0x1
a191:	48 89 46 10          	mov    QWORD PTR [rsi+0x10],rax
a195:	e9 41 ff ff ff       	jmp    a0db <extent_scan_read+0x1bb>
a19a:	66 0f 1f 44 00 00    	nop    WORD PTR [rax+rax*1+0x0]
a1a0:	41 c6 46 21 01       	mov    BYTE PTR [r14+0x21],0x1
a1a5:	44 89 f8             	mov    eax,r15d
a1a8:	49 89 46 18          	mov    QWORD PTR [r14+0x18],rax
a1ac:	b8 01 00 00 00       	mov    eax,0x1
a1b1:	e9 ca fe ff ff       	jmp    a080 <extent_scan_read+0x160>
a1b6:	66 2e 0f 1f 84 00 00 	nop    WORD PTR cs:[rax+rax*1+0x0]
a1bd:	00 00 00
a1c0:	44 89 f9             	mov    ecx,r15d
a1c3:	84 c0                	test   al,al
a1c5:	49 89 4e 18          	mov    QWORD PTR [r14+0x18],rcx
a1c9:	75 e1                	jne    a1ac <extent_scan_read+0x28c>
a1cb:	48 8b 53 08          	mov    rdx,QWORD PTR [rbx+0x8]
a1cf:	48 03 13             	add    rdx,QWORD PTR [rbx]
a1d2:	41 83 ff 47          	cmp    r15d,0x47
a1d6:	49 89 56 08          	mov    QWORD PTR [r14+0x8],rdx
a1da:	0f 86 83 fd ff ff    	jbe    9f63 <extent_scan_read+0x43>
a1e0:	eb ca                	jmp    a1ac <extent_scan_read+0x28c>
a1e2:	66 0f 1f 44 00 00    	nop    WORD PTR [rax+rax*1+0x0]
a1e8:	49 83 7e 08 00       	cmp    QWORD PTR [r14+0x8],0x0
a1ed:	41 c6 46 21 01       	mov    BYTE PTR [r14+0x21],0x1
a1f2:	0f 95 c0             	setne  al
a1f5:	e9 86 fe ff ff       	jmp    a080 <extent_scan_read+0x160>
a1fa:	48 8d 0d 1f af 00 00 	lea    rcx,[rip+0xaf1f]        # 15120 <__PRETTY_FUNCTION__.6956>
a201:	48 8d 35 78 ae 00 00 	lea    rsi,[rip+0xae78]        # 15080 <__PRETTY_FUNCTION__.7875+0x10>
a208:	48 8d 3d 99 ae 00 00 	lea    rdi,[rip+0xae99]        # 150a8 <__PRETTY_FUNCTION__.7875+0x38>
a20f:	ba 7e 00 00 00       	mov    edx,0x7e
a214:	e8 c7 87 ff ff       	call   29e0 <__assert_fail@plt>
a219:	be 01 00 00 00       	mov    esi,0x1
a21e:	e9 c3 fd ff ff       	jmp    9fe6 <extent_scan_read+0xc6>
a223:	e8 48 70 00 00       	call   11270 <xalloc_die>
a228:	e8 03 87 ff ff       	call   2930 <__stack_chk_fail@plt>
a22d:	0f 1f 00             	nop    DWORD PTR [rax]

000000000000a230 <try_link>:
a230:	48 89 f0             	mov    rax,rsi
a233:	48 89 f9             	mov    rcx,rdi
a236:	8b 56 10             	mov    edx,DWORD PTR [rsi+0x10]
a239:	44 8b 40 14          	mov    r8d,DWORD PTR [rax+0x14]
a23d:	48 8b 76 08          	mov    rsi,QWORD PTR [rsi+0x8]
a241:	8b 38                	mov    edi,DWORD PTR [rax]
a243:	e9 f8 89 ff ff       	jmp    2c40 <linkat@plt>
a248:	0f 1f 84 00 00 00 00 	nop    DWORD PTR [rax+rax*1+0x0]
a24f:	00

000000000000a250 <samedir_template>:
a250:	41 54                	push   r12
a252:	55                   	push   rbp
a253:	48 89 fd             	mov    rbp,rdi
a256:	53                   	push   rbx
a257:	49 89 f4             	mov    r12,rsi
a25a:	e8 31 13 00 00       	call   b590 <last_component>
a25f:	48 29 e8             	sub    rax,rbp
a262:	48 8d 78 09          	lea    rdi,[rax+0x9]
a266:	48 89 c3             	mov    rbx,rax
a269:	48 81 ff 00 01 00 00 	cmp    rdi,0x100
a270:	76 0f                	jbe    a281 <samedir_template+0x31>
a272:	e8 49 89 ff ff       	call   2bc0 <malloc@plt>
a277:	49 89 c4             	mov    r12,rax
a27a:	31 c0                	xor    eax,eax
a27c:	4d 85 e4             	test   r12,r12
a27f:	74 22                	je     a2a3 <samedir_template+0x53>
a281:	48 89 da             	mov    rdx,rbx
a284:	48 89 ee             	mov    rsi,rbp
a287:	4c 89 e7             	mov    rdi,r12
a28a:	e8 11 8a ff ff       	call   2ca0 <mempcpy@plt>
a28f:	48 b9 43 75 58 58 58 	movabs rcx,0x5858585858587543
a296:	58 58 58
a299:	c6 40 08 00          	mov    BYTE PTR [rax+0x8],0x0
a29d:	48 89 08             	mov    QWORD PTR [rax],rcx
a2a0:	4c 89 e0             	mov    rax,r12
a2a3:	5b                   	pop    rbx
a2a4:	5d                   	pop    rbp
a2a5:	41 5c                	pop    r12
a2a7:	c3                   	ret
a2a8:	0f 1f 84 00 00 00 00 	nop    DWORD PTR [rax+rax*1+0x0]
a2af:	00

000000000000a2b0 <try_symlink>:
a2b0:	48 89 f0             	mov    rax,rsi
a2b3:	48 89 fa             	mov    rdx,rdi
a2b6:	8b 76 08             	mov    esi,DWORD PTR [rsi+0x8]
a2b9:	48 8b 38             	mov    rdi,QWORD PTR [rax]
a2bc:	e9 0f 8b ff ff       	jmp    2dd0 <symlinkat@plt>
a2c1:	0f 1f 44 00 00       	nop    DWORD PTR [rax+rax*1+0x0]
a2c6:	66 2e 0f 1f 84 00 00 	nop    WORD PTR cs:[rax+rax*1+0x0]
a2cd:	00 00 00

000000000000a2d0 <force_linkat>:
a2d0:	41 57                	push   r15
a2d2:	41 56                	push   r14
a2d4:	41 89 fe             	mov    r14d,edi
a2d7:	41 55                	push   r13
a2d9:	41 54                	push   r12
a2db:	49 89 f5             	mov    r13,rsi
a2de:	55                   	push   rbp
a2df:	53                   	push   rbx
a2e0:	48 89 cb             	mov    rbx,rcx
a2e3:	89 d5                	mov    ebp,edx
a2e5:	45 89 c4             	mov    r12d,r8d
a2e8:	48 81 ec 48 01 00 00 	sub    rsp,0x148
a2ef:	8b 8c 24 80 01 00 00 	mov    ecx,DWORD PTR [rsp+0x180]
a2f6:	64 48 8b 04 25 28 00 	mov    rax,QWORD PTR fs:0x28
a2fd:	00 00
a2ff:	48 89 84 24 38 01 00 	mov    QWORD PTR [rsp+0x138],rax
a306:	00
a307:	31 c0                	xor    eax,eax
a309:	85 c9                	test   ecx,ecx
a30b:	0f 88 af 00 00 00    	js     a3c0 <force_linkat+0xf0>
a311:	41 80 f9 01          	cmp    r9b,0x1
a315:	75 79                	jne    a390 <force_linkat+0xc0>
a317:	83 f9 11             	cmp    ecx,0x11
a31a:	75 74                	jne    a390 <force_linkat+0xc0>
a31c:	48 8d 44 24 30       	lea    rax,[rsp+0x30]
a321:	48 89 df             	mov    rdi,rbx
a324:	48 89 c6             	mov    rsi,rax
a327:	48 89 04 24          	mov    QWORD PTR [rsp],rax
a32b:	e8 20 ff ff ff       	call   a250 <samedir_template>
a330:	48 85 c0             	test   rax,rax
a333:	49 89 c7             	mov    r15,rax
a336:	0f 84 e4 00 00 00    	je     a420 <force_linkat+0x150>
a33c:	48 8d 54 24 10       	lea    rdx,[rsp+0x10]
a341:	48 8d 0d e8 fe ff ff 	lea    rcx,[rip+0xfffffffffffffee8]        # a230 <try_link>
a348:	31 f6                	xor    esi,esi
a34a:	41 b8 06 00 00 00    	mov    r8d,0x6
a350:	48 89 c7             	mov    rdi,rax
a353:	44 89 74 24 10       	mov    DWORD PTR [rsp+0x10],r14d
a358:	4c 89 6c 24 18       	mov    QWORD PTR [rsp+0x18],r13
a35d:	89 6c 24 20          	mov    DWORD PTR [rsp+0x20],ebp
a361:	44 89 64 24 24       	mov    DWORD PTR [rsp+0x24],r12d
a366:	e8 b5 53 00 00       	call   f720 <try_tempname_len>
a36b:	85 c0                	test   eax,eax
a36d:	74 79                	je     a3e8 <force_linkat+0x118>
a36f:	e8 fc 83 ff ff       	call   2770 <__errno_location@plt>
a374:	8b 08                	mov    ecx,DWORD PTR [rax]
a376:	4c 3b 3c 24          	cmp    r15,QWORD PTR [rsp]
a37a:	74 14                	je     a390 <force_linkat+0xc0>
a37c:	4c 89 ff             	mov    rdi,r15
a37f:	89 0c 24             	mov    DWORD PTR [rsp],ecx
a382:	e8 89 8a ff ff       	call   2e10 <free@plt>
a387:	8b 0c 24             	mov    ecx,DWORD PTR [rsp]
a38a:	66 0f 1f 44 00 00    	nop    WORD PTR [rax+rax*1+0x0]
a390:	48 8b 9c 24 38 01 00 	mov    rbx,QWORD PTR [rsp+0x138]
a397:	00
a398:	64 48 33 1c 25 28 00 	xor    rbx,QWORD PTR fs:0x28
a39f:	00 00
a3a1:	89 c8                	mov    eax,ecx
a3a3:	0f 85 83 00 00 00    	jne    a42c <force_linkat+0x15c>
a3a9:	48 81 c4 48 01 00 00 	add    rsp,0x148
a3b0:	5b                   	pop    rbx
a3b1:	5d                   	pop    rbp
a3b2:	41 5c                	pop    r12
a3b4:	41 5d                	pop    r13
a3b6:	41 5e                	pop    r14
a3b8:	41 5f                	pop    r15
a3ba:	c3                   	ret
a3bb:	0f 1f 44 00 00       	nop    DWORD PTR [rax+rax*1+0x0]
a3c0:	48 89 d9             	mov    rcx,rbx
a3c3:	44 89 0c 24          	mov    DWORD PTR [rsp],r9d
a3c7:	e8 74 88 ff ff       	call   2c40 <linkat@plt>
a3cc:	85 c0                	test   eax,eax
a3ce:	89 c1                	mov    ecx,eax
a3d0:	74 be                	je     a390 <force_linkat+0xc0>
a3d2:	e8 99 83 ff ff       	call   2770 <__errno_location@plt>
a3d7:	44 8b 0c 24          	mov    r9d,DWORD PTR [rsp]
a3db:	8b 08                	mov    ecx,DWORD PTR [rax]
a3dd:	e9 2f ff ff ff       	jmp    a311 <force_linkat+0x41>
a3e2:	66 0f 1f 44 00 00    	nop    WORD PTR [rax+rax*1+0x0]
a3e8:	48 89 d9             	mov    rcx,rbx
a3eb:	89 ea                	mov    edx,ebp
a3ed:	4c 89 fe             	mov    rsi,r15
a3f0:	89 ef                	mov    edi,ebp
a3f2:	e8 69 89 ff ff       	call   2d60 <renameat@plt>
a3f7:	85 c0                	test   eax,eax
a3f9:	b9 ff ff ff ff       	mov    ecx,0xffffffff
a3fe:	74 07                	je     a407 <force_linkat+0x137>
a400:	e8 6b 83 ff ff       	call   2770 <__errno_location@plt>
a405:	8b 08                	mov    ecx,DWORD PTR [rax]
a407:	31 d2                	xor    edx,edx
a409:	4c 89 fe             	mov    rsi,r15
a40c:	89 ef                	mov    edi,ebp
a40e:	89 4c 24 0c          	mov    DWORD PTR [rsp+0xc],ecx
a412:	e8 d9 83 ff ff       	call   27f0 <unlinkat@plt>
a417:	8b 4c 24 0c          	mov    ecx,DWORD PTR [rsp+0xc]
a41b:	e9 56 ff ff ff       	jmp    a376 <force_linkat+0xa6>
a420:	e8 4b 83 ff ff       	call   2770 <__errno_location@plt>
a425:	8b 08                	mov    ecx,DWORD PTR [rax]
a427:	e9 64 ff ff ff       	jmp    a390 <force_linkat+0xc0>
a42c:	e8 ff 84 ff ff       	call   2930 <__stack_chk_fail@plt>
a431:	0f 1f 44 00 00       	nop    DWORD PTR [rax+rax*1+0x0]
a436:	66 2e 0f 1f 84 00 00 	nop    WORD PTR cs:[rax+rax*1+0x0]
a43d:	00 00 00

000000000000a440 <force_symlinkat>:
a440:	41 56                	push   r14
a442:	41 55                	push   r13
a444:	41 54                	push   r12
a446:	55                   	push   rbp
a447:	49 89 fc             	mov    r12,rdi
a44a:	53                   	push   rbx
a44b:	89 f5                	mov    ebp,esi
a44d:	48 89 d3             	mov    rbx,rdx
a450:	48 81 ec 30 01 00 00 	sub    rsp,0x130
a457:	64 48 8b 04 25 28 00 	mov    rax,QWORD PTR fs:0x28
a45e:	00 00
a460:	48 89 84 24 28 01 00 	mov    QWORD PTR [rsp+0x128],rax
a467:	00
a468:	31 c0                	xor    eax,eax
a46a:	45 85 c0             	test   r8d,r8d
a46d:	0f 88 a5 00 00 00    	js     a518 <force_symlinkat+0xd8>
a473:	80 f9 01             	cmp    cl,0x1
a476:	75 70                	jne    a4e8 <force_symlinkat+0xa8>
a478:	41 83 f8 11          	cmp    r8d,0x11
a47c:	75 6a                	jne    a4e8 <force_symlinkat+0xa8>
a47e:	4c 8d 74 24 20       	lea    r14,[rsp+0x20]
a483:	48 89 df             	mov    rdi,rbx
a486:	4c 89 f6             	mov    rsi,r14
a489:	e8 c2 fd ff ff       	call   a250 <samedir_template>
a48e:	48 85 c0             	test   rax,rax
a491:	49 89 c5             	mov    r13,rax
a494:	0f 84 e6 00 00 00    	je     a580 <force_symlinkat+0x140>
a49a:	48 8d 54 24 10       	lea    rdx,[rsp+0x10]
a49f:	48 8d 0d 0a fe ff ff 	lea    rcx,[rip+0xfffffffffffffe0a]        # a2b0 <try_symlink>
a4a6:	31 f6                	xor    esi,esi
a4a8:	41 b8 06 00 00 00    	mov    r8d,0x6
a4ae:	48 89 c7             	mov    rdi,rax
a4b1:	4c 89 64 24 10       	mov    QWORD PTR [rsp+0x10],r12
a4b6:	89 6c 24 18          	mov    DWORD PTR [rsp+0x18],ebp
a4ba:	e8 61 52 00 00       	call   f720 <try_tempname_len>
a4bf:	85 c0                	test   eax,eax
a4c1:	74 7d                	je     a540 <force_symlinkat+0x100>
a4c3:	e8 a8 82 ff ff       	call   2770 <__errno_location@plt>
a4c8:	44 8b 00             	mov    r8d,DWORD PTR [rax]
a4cb:	4d 39 f5             	cmp    r13,r14
a4ce:	74 18                	je     a4e8 <force_symlinkat+0xa8>
a4d0:	4c 89 ef             	mov    rdi,r13
a4d3:	44 89 44 24 0c       	mov    DWORD PTR [rsp+0xc],r8d
a4d8:	e8 33 89 ff ff       	call   2e10 <free@plt>
a4dd:	44 8b 44 24 0c       	mov    r8d,DWORD PTR [rsp+0xc]
a4e2:	66 0f 1f 44 00 00    	nop    WORD PTR [rax+rax*1+0x0]
a4e8:	48 8b 9c 24 28 01 00 	mov    rbx,QWORD PTR [rsp+0x128]
a4ef:	00
a4f0:	64 48 33 1c 25 28 00 	xor    rbx,QWORD PTR fs:0x28
a4f7:	00 00
a4f9:	44 89 c0             	mov    eax,r8d
a4fc:	0f 85 8b 00 00 00    	jne    a58d <force_symlinkat+0x14d>
a502:	48 81 c4 30 01 00 00 	add    rsp,0x130
a509:	5b                   	pop    rbx
a50a:	5d                   	pop    rbp
a50b:	41 5c                	pop    r12
a50d:	41 5d                	pop    r13
a50f:	41 5e                	pop    r14
a511:	c3                   	ret
a512:	66 0f 1f 44 00 00    	nop    WORD PTR [rax+rax*1+0x0]
a518:	89 4c 24 0c          	mov    DWORD PTR [rsp+0xc],ecx
a51c:	e8 af 88 ff ff       	call   2dd0 <symlinkat@plt>
a521:	85 c0                	test   eax,eax
a523:	41 89 c0             	mov    r8d,eax
a526:	74 c0                	je     a4e8 <force_symlinkat+0xa8>
a528:	e8 43 82 ff ff       	call   2770 <__errno_location@plt>
a52d:	8b 4c 24 0c          	mov    ecx,DWORD PTR [rsp+0xc]
a531:	44 8b 00             	mov    r8d,DWORD PTR [rax]
a534:	e9 3a ff ff ff       	jmp    a473 <force_symlinkat+0x33>
a539:	0f 1f 80 00 00 00 00 	nop    DWORD PTR [rax+0x0]
a540:	48 89 d9             	mov    rcx,rbx
a543:	89 ea                	mov    edx,ebp
a545:	4c 89 ee             	mov    rsi,r13
a548:	89 ef                	mov    edi,ebp
a54a:	e8 11 88 ff ff       	call   2d60 <renameat@plt>
a54f:	85 c0                	test   eax,eax
a551:	41 b8 ff ff ff ff    	mov    r8d,0xffffffff
a557:	0f 84 6e ff ff ff    	je     a4cb <force_symlinkat+0x8b>
a55d:	e8 0e 82 ff ff       	call   2770 <__errno_location@plt>
a562:	44 8b 00             	mov    r8d,DWORD PTR [rax]
a565:	31 d2                	xor    edx,edx
a567:	4c 89 ee             	mov    rsi,r13
a56a:	89 ef                	mov    edi,ebp
a56c:	44 89 44 24 0c       	mov    DWORD PTR [rsp+0xc],r8d
a571:	e8 7a 82 ff ff       	call   27f0 <unlinkat@plt>
a576:	44 8b 44 24 0c       	mov    r8d,DWORD PTR [rsp+0xc]
a57b:	e9 4b ff ff ff       	jmp    a4cb <force_symlinkat+0x8b>
a580:	e8 eb 81 ff ff       	call   2770 <__errno_location@plt>
a585:	44 8b 00             	mov    r8d,DWORD PTR [rax]
a588:	e9 5b ff ff ff       	jmp    a4e8 <force_symlinkat+0xa8>
a58d:	e8 9e 83 ff ff       	call   2930 <__stack_chk_fail@plt>
a592:	66 2e 0f 1f 84 00 00 	nop    WORD PTR cs:[rax+rax*1+0x0]
a599:	00 00 00
a59c:	0f 1f 40 00          	nop    DWORD PTR [rax+0x0]

000000000000a5a0 <copy_acl>:
a5a0:	41 54                	push   r12
a5a2:	55                   	push   rbp
a5a3:	49 89 fc             	mov    r12,rdi
a5a6:	53                   	push   rbx
a5a7:	48 89 d5             	mov    rbp,rdx
a5aa:	e8 81 2a 00 00       	call   d030 <qcopy_acl>
a5af:	83 f8 fe             	cmp    eax,0xfffffffe
a5b2:	89 c3                	mov    ebx,eax
a5b4:	74 4a                	je     a600 <copy_acl+0x60>
a5b6:	83 f8 ff             	cmp    eax,0xffffffff
a5b9:	75 37                	jne    a5f2 <copy_acl+0x52>
a5bb:	48 89 ef             	mov    rdi,rbp
a5be:	e8 bd 47 00 00       	call   ed80 <quote>
a5c3:	48 8d 35 b9 a9 00 00 	lea    rsi,[rip+0xa9b9]        # 14f83 <sparse_type+0x1f03>
a5ca:	ba 05 00 00 00       	mov    edx,0x5
a5cf:	31 ff                	xor    edi,edi
a5d1:	49 89 c4             	mov    r12,rax
a5d4:	e8 07 83 ff ff       	call   28e0 <dcgettext@plt>
a5d9:	48 89 c5             	mov    rbp,rax
a5dc:	e8 8f 81 ff ff       	call   2770 <__errno_location@plt>
a5e1:	8b 30                	mov    esi,DWORD PTR [rax]
a5e3:	4c 89 e1             	mov    rcx,r12
a5e6:	48 89 ea             	mov    rdx,rbp
a5e9:	31 ff                	xor    edi,edi
a5eb:	31 c0                	xor    eax,eax
a5ed:	e8 be 86 ff ff       	call   2cb0 <error@plt>
a5f2:	89 d8                	mov    eax,ebx
a5f4:	5b                   	pop    rbx
a5f5:	5d                   	pop    rbp
a5f6:	41 5c                	pop    r12
a5f8:	c3                   	ret
a5f9:	0f 1f 80 00 00 00 00 	nop    DWORD PTR [rax+0x0]
a600:	4c 89 e7             	mov    rdi,r12
a603:	e8 78 47 00 00       	call   ed80 <quote>
a608:	48 89 c5             	mov    rbp,rax
a60b:	e8 60 81 ff ff       	call   2770 <__errno_location@plt>
a610:	8b 30                	mov    esi,DWORD PTR [rax]
a612:	48 8d 15 74 ab 00 00 	lea    rdx,[rip+0xab74]        # 1518d <__PRETTY_FUNCTION__.6956+0x6d>
a619:	48 89 e9             	mov    rcx,rbp
a61c:	31 c0                	xor    eax,eax
a61e:	31 ff                	xor    edi,edi
a620:	e8 8b 86 ff ff       	call   2cb0 <error@plt>
a625:	89 d8                	mov    eax,ebx
a627:	5b                   	pop    rbx
a628:	5d                   	pop    rbp
a629:	41 5c                	pop    r12
a62b:	c3                   	ret
a62c:	0f 1f 40 00          	nop    DWORD PTR [rax+0x0]

000000000000a630 <set_acl>:
a630:	41 54                	push   r12
a632:	55                   	push   rbp
a633:	48 89 fd             	mov    rbp,rdi
a636:	53                   	push   rbx
a637:	e8 74 2a 00 00       	call   d0b0 <qset_acl>
a63c:	85 c0                	test   eax,eax
a63e:	89 c3                	mov    ebx,eax
a640:	74 37                	je     a679 <set_acl+0x49>
a642:	48 89 ef             	mov    rdi,rbp
a645:	e8 36 47 00 00       	call   ed80 <quote>
a64a:	48 8d 35 d9 82 00 00 	lea    rsi,[rip+0x82d9]        # 1292a <_IO_stdin_used+0x4a>
a651:	ba 05 00 00 00       	mov    edx,0x5
a656:	31 ff                	xor    edi,edi
a658:	49 89 c4             	mov    r12,rax
a65b:	e8 80 82 ff ff       	call   28e0 <dcgettext@plt>
a660:	48 89 c5             	mov    rbp,rax
a663:	e8 08 81 ff ff       	call   2770 <__errno_location@plt>
a668:	8b 30                	mov    esi,DWORD PTR [rax]
a66a:	4c 89 e1             	mov    rcx,r12
a66d:	48 89 ea             	mov    rdx,rbp
a670:	31 ff                	xor    edi,edi
a672:	31 c0                	xor    eax,eax
a674:	e8 37 86 ff ff       	call   2cb0 <error@plt>
a679:	89 d8                	mov    eax,ebx
a67b:	5b                   	pop    rbx
a67c:	5d                   	pop    rbp
a67d:	41 5c                	pop    r12
a67f:	c3                   	ret

000000000000a680 <areadlink_with_size>:
a680:	41 57                	push   r15
a682:	41 56                	push   r14
a684:	b8 01 04 00 00       	mov    eax,0x401
a689:	41 55                	push   r13
a68b:	41 54                	push   r12
a68d:	49 89 fd             	mov    r13,rdi
a690:	55                   	push   rbp
a691:	53                   	push   rbx
a692:	48 8d 5e 01          	lea    rbx,[rsi+0x1]
a696:	49 be ff ff ff ff ff 	movabs r14,0x3fffffffffffffff
a69d:	ff ff 3f
a6a0:	49 bf fe ff ff ff ff 	movabs r15,0x7ffffffffffffffe
a6a7:	ff ff 7f
a6aa:	48 83 ec 08          	sub    rsp,0x8
a6ae:	48 81 fe 01 04 00 00 	cmp    rsi,0x401
a6b5:	48 0f 43 d8          	cmovae rbx,rax
a6b9:	0f 1f 80 00 00 00 00 	nop    DWORD PTR [rax+0x0]
a6c0:	48 89 df             	mov    rdi,rbx
a6c3:	e8 f8 84 ff ff       	call   2bc0 <malloc@plt>
a6c8:	48 85 c0             	test   rax,rax
a6cb:	48 89 c5             	mov    rbp,rax
a6ce:	74 3b                	je     a70b <areadlink_with_size+0x8b>
a6d0:	48 89 da             	mov    rdx,rbx
a6d3:	48 89 c6             	mov    rsi,rax
a6d6:	4c 89 ef             	mov    rdi,r13
a6d9:	e8 32 81 ff ff       	call   2810 <readlink@plt>
a6de:	48 85 c0             	test   rax,rax
a6e1:	49 89 c4             	mov    r12,rax
a6e4:	78 52                	js     a738 <areadlink_with_size+0xb8>
a6e6:	4c 39 e3             	cmp    rbx,r12
a6e9:	77 65                	ja     a750 <areadlink_with_size+0xd0>
a6eb:	48 89 ef             	mov    rdi,rbp
a6ee:	e8 1d 87 ff ff       	call   2e10 <free@plt>
a6f3:	4c 39 f3             	cmp    rbx,r14
a6f6:	77 28                	ja     a720 <areadlink_with_size+0xa0>
a6f8:	48 01 db             	add    rbx,rbx
a6fb:	48 89 df             	mov    rdi,rbx
a6fe:	e8 bd 84 ff ff       	call   2bc0 <malloc@plt>
a703:	48 85 c0             	test   rax,rax
a706:	48 89 c5             	mov    rbp,rax
a709:	75 c5                	jne    a6d0 <areadlink_with_size+0x50>
a70b:	48 83 c4 08          	add    rsp,0x8
a70f:	48 89 e8             	mov    rax,rbp
a712:	5b                   	pop    rbx
a713:	5d                   	pop    rbp
a714:	41 5c                	pop    r12
a716:	41 5d                	pop    r13
a718:	41 5e                	pop    r14
a71a:	41 5f                	pop    r15
a71c:	c3                   	ret
a71d:	0f 1f 00             	nop    DWORD PTR [rax]
a720:	4c 39 fb             	cmp    rbx,r15
a723:	77 3b                	ja     a760 <areadlink_with_size+0xe0>
a725:	48 bb ff ff ff ff ff 	movabs rbx,0x7fffffffffffffff
a72c:	ff ff 7f
a72f:	eb 8f                	jmp    a6c0 <areadlink_with_size+0x40>
a731:	0f 1f 80 00 00 00 00 	nop    DWORD PTR [rax+0x0]
a738:	e8 33 80 ff ff       	call   2770 <__errno_location@plt>
a73d:	83 38 22             	cmp    DWORD PTR [rax],0x22
a740:	74 a4                	je     a6e6 <areadlink_with_size+0x66>
a742:	48 89 ef             	mov    rdi,rbp
a745:	31 ed                	xor    ebp,ebp
a747:	e8 c4 86 ff ff       	call   2e10 <free@plt>
a74c:	eb bd                	jmp    a70b <areadlink_with_size+0x8b>
a74e:	66 90                	xchg   ax,ax
a750:	42 c6 44 25 00 00    	mov    BYTE PTR [rbp+r12*1+0x0],0x0
a756:	eb b3                	jmp    a70b <areadlink_with_size+0x8b>
a758:	0f 1f 84 00 00 00 00 	nop    DWORD PTR [rax+rax*1+0x0]
a75f:	00
a760:	e8 0b 80 ff ff       	call   2770 <__errno_location@plt>
a765:	31 ed                	xor    ebp,ebp
a767:	c7 00 0c 00 00 00    	mov    DWORD PTR [rax],0xc
a76d:	eb 9c                	jmp    a70b <areadlink_with_size+0x8b>
a76f:	90                   	nop

000000000000a770 <__argmatch_die>:
a770:	bf 01 00 00 00       	mov    edi,0x1
a775:	e9 a6 9a ff ff       	jmp    4220 <usage>
a77a:	66 0f 1f 44 00 00    	nop    WORD PTR [rax+rax*1+0x0]

000000000000a780 <argmatch>:
a780:	41 57                	push   r15
a782:	41 56                	push   r14
a784:	49 89 f7             	mov    r15,rsi
a787:	41 55                	push   r13
a789:	41 54                	push   r12
a78b:	49 89 cd             	mov    r13,rcx
a78e:	55                   	push   rbp
a78f:	53                   	push   rbx
a790:	48 89 d5             	mov    rbp,rdx
a793:	48 83 ec 28          	sub    rsp,0x28
a797:	48 89 7c 24 08       	mov    QWORD PTR [rsp+0x8],rdi
a79c:	48 89 54 24 18       	mov    QWORD PTR [rsp+0x18],rdx
a7a1:	e8 5a 81 ff ff       	call   2900 <strlen@plt>
a7a6:	4d 8b 37             	mov    r14,QWORD PTR [r15]
a7a9:	48 c7 04 24 ff ff ff 	mov    QWORD PTR [rsp],0xffffffffffffffff
a7b0:	ff
a7b1:	4d 85 f6             	test   r14,r14
a7b4:	0f 84 b3 00 00 00    	je     a86d <argmatch+0xed>
a7ba:	49 89 c4             	mov    r12,rax
a7bd:	c6 44 24 17 00       	mov    BYTE PTR [rsp+0x17],0x0
a7c2:	31 db                	xor    ebx,ebx
a7c4:	eb 51                	jmp    a817 <argmatch+0x97>
a7c6:	66 2e 0f 1f 84 00 00 	nop    WORD PTR cs:[rax+rax*1+0x0]
a7cd:	00 00 00
a7d0:	48 8b 44 24 18       	mov    rax,QWORD PTR [rsp+0x18]
a7d5:	48 85 c0             	test   rax,rax
a7d8:	0f 84 a2 00 00 00    	je     a880 <argmatch+0x100>
a7de:	48 8b 3c 24          	mov    rdi,QWORD PTR [rsp]
a7e2:	4c 89 ea             	mov    rdx,r13
a7e5:	48 89 ee             	mov    rsi,rbp
a7e8:	49 0f af fd          	imul   rdi,r13
a7ec:	48 01 c7             	add    rdi,rax
a7ef:	e8 9c 82 ff ff       	call   2a90 <memcmp@plt>
a7f4:	85 c0                	test   eax,eax
a7f6:	0f b6 44 24 17       	movzx  eax,BYTE PTR [rsp+0x17]
a7fb:	b9 01 00 00 00       	mov    ecx,0x1
a800:	0f 45 c1             	cmovne eax,ecx
a803:	88 44 24 17          	mov    BYTE PTR [rsp+0x17],al
a807:	48 83 c3 01          	add    rbx,0x1
a80b:	4c 01 ed             	add    rbp,r13
a80e:	4d 8b 34 df          	mov    r14,QWORD PTR [r15+rbx*8]
a812:	4d 85 f6             	test   r14,r14
a815:	74 41                	je     a858 <argmatch+0xd8>
a817:	48 8b 74 24 08       	mov    rsi,QWORD PTR [rsp+0x8]
a81c:	4c 89 e2             	mov    rdx,r12
a81f:	4c 89 f7             	mov    rdi,r14
a822:	e8 69 7f ff ff       	call   2790 <strncmp@plt>
a827:	85 c0                	test   eax,eax
a829:	75 dc                	jne    a807 <argmatch+0x87>
a82b:	4c 89 f7             	mov    rdi,r14
a82e:	e8 cd 80 ff ff       	call   2900 <strlen@plt>
a833:	4c 39 e0             	cmp    rax,r12
a836:	74 58                	je     a890 <argmatch+0x110>
a838:	48 83 3c 24 ff       	cmp    QWORD PTR [rsp],0xffffffffffffffff
a83d:	75 91                	jne    a7d0 <argmatch+0x50>
a83f:	48 89 1c 24          	mov    QWORD PTR [rsp],rbx
a843:	48 83 c3 01          	add    rbx,0x1
a847:	4c 01 ed             	add    rbp,r13
a84a:	4d 8b 34 df          	mov    r14,QWORD PTR [r15+rbx*8]
a84e:	4d 85 f6             	test   r14,r14
a851:	75 c4                	jne    a817 <argmatch+0x97>
a853:	0f 1f 44 00 00       	nop    DWORD PTR [rax+rax*1+0x0]
a858:	80 7c 24 17 00       	cmp    BYTE PTR [rsp+0x17],0x0
a85d:	48 c7 c0 fe ff ff ff 	mov    rax,0xfffffffffffffffe
a864:	48 0f 44 04 24       	cmove  rax,QWORD PTR [rsp]
a869:	48 89 04 24          	mov    QWORD PTR [rsp],rax
a86d:	48 8b 04 24          	mov    rax,QWORD PTR [rsp]
a871:	48 83 c4 28          	add    rsp,0x28
a875:	5b                   	pop    rbx
a876:	5d                   	pop    rbp
a877:	41 5c                	pop    r12
a879:	41 5d                	pop    r13
a87b:	41 5e                	pop    r14
a87d:	41 5f                	pop    r15
a87f:	c3                   	ret
a880:	c6 44 24 17 01       	mov    BYTE PTR [rsp+0x17],0x1
a885:	eb 80                	jmp    a807 <argmatch+0x87>
a887:	66 0f 1f 84 00 00 00 	nop    WORD PTR [rax+rax*1+0x0]
a88e:	00 00
a890:	48 89 1c 24          	mov    QWORD PTR [rsp],rbx
a894:	eb d7                	jmp    a86d <argmatch+0xed>
a896:	66 2e 0f 1f 84 00 00 	nop    WORD PTR cs:[rax+rax*1+0x0]
a89d:	00 00 00

000000000000a8a0 <argmatch_invalid>:
a8a0:	48 83 fa ff          	cmp    rdx,0xffffffffffffffff
a8a4:	41 54                	push   r12
a8a6:	ba 05 00 00 00       	mov    edx,0x5
a8ab:	55                   	push   rbp
a8ac:	49 89 f4             	mov    r12,rsi
a8af:	53                   	push   rbx
a8b0:	48 89 fd             	mov    rbp,rdi
a8b3:	74 4b                	je     a900 <argmatch_invalid+0x60>
a8b5:	48 8d 35 95 a8 00 00 	lea    rsi,[rip+0xa895]        # 15151 <__PRETTY_FUNCTION__.6956+0x31>
a8bc:	31 ff                	xor    edi,edi
a8be:	e8 1d 80 ff ff       	call   28e0 <dcgettext@plt>
a8c3:	48 89 c3             	mov    rbx,rax
a8c6:	48 89 ee             	mov    rsi,rbp
a8c9:	bf 01 00 00 00       	mov    edi,0x1
a8ce:	e8 8d 44 00 00       	call   ed60 <quote_n>
a8d3:	4c 89 e2             	mov    rdx,r12
a8d6:	48 89 c5             	mov    rbp,rax
a8d9:	be 08 00 00 00       	mov    esi,0x8
a8de:	31 ff                	xor    edi,edi
a8e0:	e8 ab 40 00 00       	call   e990 <quotearg_n_style>
a8e5:	49 89 e8             	mov    r8,rbp
a8e8:	48 89 da             	mov    rdx,rbx
a8eb:	48 89 c1             	mov    rcx,rax
a8ee:	5b                   	pop    rbx
a8ef:	5d                   	pop    rbp
a8f0:	41 5c                	pop    r12
a8f2:	31 f6                	xor    esi,esi
a8f4:	31 ff                	xor    edi,edi
a8f6:	31 c0                	xor    eax,eax
a8f8:	e9 b3 83 ff ff       	jmp    2cb0 <error@plt>
a8fd:	0f 1f 00             	nop    DWORD PTR [rax]
a900:	48 8d 35 2f a8 00 00 	lea    rsi,[rip+0xa82f]        # 15136 <__PRETTY_FUNCTION__.6956+0x16>
a907:	31 ff                	xor    edi,edi
a909:	e8 d2 7f ff ff       	call   28e0 <dcgettext@plt>
a90e:	48 89 c3             	mov    rbx,rax
a911:	eb b3                	jmp    a8c6 <argmatch_invalid+0x26>
a913:	0f 1f 00             	nop    DWORD PTR [rax]
a916:	66 2e 0f 1f 84 00 00 	nop    WORD PTR cs:[rax+rax*1+0x0]
a91d:	00 00 00

000000000000a920 <argmatch_valid>:
a920:	41 57                	push   r15
a922:	41 56                	push   r14
a924:	49 89 fe             	mov    r14,rdi
a927:	41 55                	push   r13
a929:	41 54                	push   r12
a92b:	31 ff                	xor    edi,edi
a92d:	55                   	push   rbp
a92e:	53                   	push   rbx
a92f:	48 89 f5             	mov    rbp,rsi
a932:	48 8d 35 35 a8 00 00 	lea    rsi,[rip+0xa835]        # 1516e <__PRETTY_FUNCTION__.6956+0x4e>
a939:	49 89 d4             	mov    r12,rdx
a93c:	ba 05 00 00 00       	mov    edx,0x5
a941:	48 83 ec 08          	sub    rsp,0x8
a945:	48 8b 1d 94 f7 20 00 	mov    rbx,QWORD PTR [rip+0x20f794]        # 21a0e0 <stderr@@GLIBC_2.2.5>
a94c:	e8 8f 7f ff ff       	call   28e0 <dcgettext@plt>
a951:	48 89 c7             	mov    rdi,rax
a954:	48 89 de             	mov    rsi,rbx
a957:	e8 54 81 ff ff       	call   2ab0 <fputs_unlocked@plt>
a95c:	4d 8b 3e             	mov    r15,QWORD PTR [r14]
a95f:	4d 85 ff             	test   r15,r15
a962:	0f 84 90 00 00 00    	je     a9f8 <argmatch_valid+0xd8>
a968:	45 31 ed             	xor    r13d,r13d
a96b:	31 db                	xor    ebx,ebx
a96d:	eb 39                	jmp    a9a8 <argmatch_valid+0x88>
a96f:	90                   	nop
a970:	4c 89 ff             	mov    rdi,r15
a973:	48 83 c3 01          	add    rbx,0x1
a977:	49 89 ed             	mov    r13,rbp
a97a:	e8 01 44 00 00       	call   ed80 <quote>
a97f:	48 8b 3d 5a f7 20 00 	mov    rdi,QWORD PTR [rip+0x20f75a]        # 21a0e0 <stderr@@GLIBC_2.2.5>
a986:	48 8d 15 f6 a7 00 00 	lea    rdx,[rip+0xa7f6]        # 15183 <__PRETTY_FUNCTION__.6956+0x63>
a98d:	48 89 c1             	mov    rcx,rax
a990:	be 01 00 00 00       	mov    esi,0x1
a995:	31 c0                	xor    eax,eax
a997:	4c 01 e5             	add    rbp,r12
a99a:	e8 11 84 ff ff       	call   2db0 <__fprintf_chk@plt>
a99f:	4d 8b 3c de          	mov    r15,QWORD PTR [r14+rbx*8]
a9a3:	4d 85 ff             	test   r15,r15
a9a6:	74 50                	je     a9f8 <argmatch_valid+0xd8>
a9a8:	48 85 db             	test   rbx,rbx
a9ab:	74 c3                	je     a970 <argmatch_valid+0x50>
a9ad:	4c 89 e2             	mov    rdx,r12
a9b0:	48 89 ee             	mov    rsi,rbp
a9b3:	4c 89 ef             	mov    rdi,r13
a9b6:	e8 d5 80 ff ff       	call   2a90 <memcmp@plt>
a9bb:	85 c0                	test   eax,eax
a9bd:	75 b1                	jne    a970 <argmatch_valid+0x50>
a9bf:	4c 89 ff             	mov    rdi,r15
a9c2:	48 83 c3 01          	add    rbx,0x1
a9c6:	4c 01 e5             	add    rbp,r12
a9c9:	e8 b2 43 00 00       	call   ed80 <quote>
a9ce:	48 8b 3d 0b f7 20 00 	mov    rdi,QWORD PTR [rip+0x20f70b]        # 21a0e0 <stderr@@GLIBC_2.2.5>
a9d5:	48 8d 15 af a7 00 00 	lea    rdx,[rip+0xa7af]        # 1518b <__PRETTY_FUNCTION__.6956+0x6b>
a9dc:	48 89 c1             	mov    rcx,rax
a9df:	be 01 00 00 00       	mov    esi,0x1
a9e4:	31 c0                	xor    eax,eax
a9e6:	e8 c5 83 ff ff       	call   2db0 <__fprintf_chk@plt>
a9eb:	4d 8b 3c de          	mov    r15,QWORD PTR [r14+rbx*8]
a9ef:	4d 85 ff             	test   r15,r15
a9f2:	75 b4                	jne    a9a8 <argmatch_valid+0x88>
a9f4:	0f 1f 40 00          	nop    DWORD PTR [rax+0x0]
a9f8:	48 8b 3d e1 f6 20 00 	mov    rdi,QWORD PTR [rip+0x20f6e1]        # 21a0e0 <stderr@@GLIBC_2.2.5>
a9ff:	48 8b 47 28          	mov    rax,QWORD PTR [rdi+0x28]
aa03:	48 3b 47 30          	cmp    rax,QWORD PTR [rdi+0x30]
aa07:	73 1f                	jae    aa28 <argmatch_valid+0x108>
aa09:	48 8d 50 01          	lea    rdx,[rax+0x1]
aa0d:	48 89 57 28          	mov    QWORD PTR [rdi+0x28],rdx
aa11:	c6 00 0a             	mov    BYTE PTR [rax],0xa
aa14:	48 83 c4 08          	add    rsp,0x8
aa18:	5b                   	pop    rbx
aa19:	5d                   	pop    rbp
aa1a:	41 5c                	pop    r12
aa1c:	41 5d                	pop    r13
aa1e:	41 5e                	pop    r14
aa20:	41 5f                	pop    r15
aa22:	c3                   	ret
aa23:	0f 1f 44 00 00       	nop    DWORD PTR [rax+rax*1+0x0]
aa28:	48 83 c4 08          	add    rsp,0x8
aa2c:	be 0a 00 00 00       	mov    esi,0xa
aa31:	5b                   	pop    rbx
aa32:	5d                   	pop    rbp
aa33:	41 5c                	pop    r12
aa35:	41 5d                	pop    r13
aa37:	41 5e                	pop    r14
aa39:	41 5f                	pop    r15
aa3b:	e9 50 7f ff ff       	jmp    2990 <__overflow@plt>

000000000000aa40 <__xargmatch_internal>:
aa40:	41 57                	push   r15
aa42:	41 56                	push   r14
aa44:	49 89 fe             	mov    r14,rdi
aa47:	41 55                	push   r13
aa49:	41 54                	push   r12
aa4b:	49 89 f4             	mov    r12,rsi
aa4e:	55                   	push   rbp
aa4f:	53                   	push   rbx
aa50:	48 89 cd             	mov    rbp,rcx
aa53:	48 89 d3             	mov    rbx,rdx
aa56:	4c 89 c1             	mov    rcx,r8
aa59:	48 89 ea             	mov    rdx,rbp
aa5c:	48 83 ec 08          	sub    rsp,0x8
aa60:	48 89 de             	mov    rsi,rbx
aa63:	4c 89 e7             	mov    rdi,r12
aa66:	4d 89 c7             	mov    r15,r8
aa69:	4d 89 cd             	mov    r13,r9
aa6c:	e8 0f fd ff ff       	call   a780 <argmatch>
aa71:	48 85 c0             	test   rax,rax
aa74:	78 0f                	js     aa85 <__xargmatch_internal+0x45>
aa76:	48 83 c4 08          	add    rsp,0x8
aa7a:	5b                   	pop    rbx
aa7b:	5d                   	pop    rbp
aa7c:	41 5c                	pop    r12
aa7e:	41 5d                	pop    r13
aa80:	41 5e                	pop    r14
aa82:	41 5f                	pop    r15
aa84:	c3                   	ret
aa85:	48 89 c2             	mov    rdx,rax
aa88:	4c 89 e6             	mov    rsi,r12
aa8b:	4c 89 f7             	mov    rdi,r14
aa8e:	e8 0d fe ff ff       	call   a8a0 <argmatch_invalid>
aa93:	4c 89 fa             	mov    rdx,r15
aa96:	48 89 ee             	mov    rsi,rbp
aa99:	48 89 df             	mov    rdi,rbx
aa9c:	e8 7f fe ff ff       	call   a920 <argmatch_valid>
aaa1:	41 ff d5             	call   r13
aaa4:	48 c7 c0 ff ff ff ff 	mov    rax,0xffffffffffffffff
aaab:	eb c9                	jmp    aa76 <__xargmatch_internal+0x36>
aaad:	0f 1f 00             	nop    DWORD PTR [rax]

000000000000aab0 <argmatch_to_argument>:
aab0:	41 56                	push   r14
aab2:	41 55                	push   r13
aab4:	41 54                	push   r12
aab6:	55                   	push   rbp
aab7:	53                   	push   rbx
aab8:	4c 8b 36             	mov    r14,QWORD PTR [rsi]
aabb:	4d 85 f6             	test   r14,r14
aabe:	74 31                	je     aaf1 <argmatch_to_argument+0x41>
aac0:	49 89 cc             	mov    r12,rcx
aac3:	49 89 fd             	mov    r13,rdi
aac6:	48 89 d5             	mov    rbp,rdx
aac9:	48 8d 5e 08          	lea    rbx,[rsi+0x8]
aacd:	eb 10                	jmp    aadf <argmatch_to_argument+0x2f>
aacf:	90                   	nop
aad0:	4c 8b 33             	mov    r14,QWORD PTR [rbx]
aad3:	4c 01 e5             	add    rbp,r12
aad6:	48 83 c3 08          	add    rbx,0x8
aada:	4d 85 f6             	test   r14,r14
aadd:	74 12                	je     aaf1 <argmatch_to_argument+0x41>
aadf:	4c 89 e2             	mov    rdx,r12
aae2:	48 89 ee             	mov    rsi,rbp
aae5:	4c 89 ef             	mov    rdi,r13
aae8:	e8 a3 7f ff ff       	call   2a90 <memcmp@plt>
aaed:	85 c0                	test   eax,eax
aaef:	75 df                	jne    aad0 <argmatch_to_argument+0x20>
aaf1:	5b                   	pop    rbx
aaf2:	4c 89 f0             	mov    rax,r14
aaf5:	5d                   	pop    rbp
aaf6:	41 5c                	pop    r12
aaf8:	41 5d                	pop    r13
aafa:	41 5e                	pop    r14
aafc:	c3                   	ret
aafd:	0f 1f 00             	nop    DWORD PTR [rax]

000000000000ab00 <set_simple_backup_suffix>:
ab00:	48 85 ff             	test   rdi,rdi
ab03:	53                   	push   rbx
ab04:	48 89 fb             	mov    rbx,rdi
ab07:	74 27                	je     ab30 <set_simple_backup_suffix+0x30>
ab09:	80 3b 00             	cmp    BYTE PTR [rbx],0x0
ab0c:	75 12                	jne    ab20 <set_simple_backup_suffix+0x20>
ab0e:	48 8d 1d 7b a6 00 00 	lea    rbx,[rip+0xa67b]        # 15190 <__PRETTY_FUNCTION__.6956+0x70>
ab15:	48 89 1d 64 fa 20 00 	mov    QWORD PTR [rip+0x20fa64],rbx        # 21a580 <simple_backup_suffix>
ab1c:	5b                   	pop    rbx
ab1d:	c3                   	ret
ab1e:	66 90                	xchg   ax,ax
ab20:	48 89 df             	mov    rdi,rbx
ab23:	e8 68 0a 00 00       	call   b590 <last_component>
ab28:	48 39 d8             	cmp    rax,rbx
ab2b:	75 e1                	jne    ab0e <set_simple_backup_suffix+0xe>
ab2d:	eb e6                	jmp    ab15 <set_simple_backup_suffix+0x15>
ab2f:	90                   	nop
ab30:	48 8d 3d 5b a6 00 00 	lea    rdi,[rip+0xa65b]        # 15192 <__PRETTY_FUNCTION__.6956+0x72>
ab37:	e8 04 7c ff ff       	call   2740 <getenv@plt>
ab3c:	48 85 c0             	test   rax,rax
ab3f:	48 89 c3             	mov    rbx,rax
ab42:	74 ca                	je     ab0e <set_simple_backup_suffix+0xe>
ab44:	eb c3                	jmp    ab09 <set_simple_backup_suffix+0x9>
ab46:	66 2e 0f 1f 84 00 00 	nop    WORD PTR cs:[rax+rax*1+0x0]
ab4d:	00 00 00

000000000000ab50 <backupfile_internal>:
ab50:	41 57                	push   r15
ab52:	41 56                	push   r14
ab54:	41 55                	push   r13
ab56:	41 54                	push   r12
ab58:	55                   	push   rbp
ab59:	53                   	push   rbx
ab5a:	48 89 f3             	mov    rbx,rsi
ab5d:	48 81 ec 88 00 00 00 	sub    rsp,0x88
ab64:	89 7c 24 64          	mov    DWORD PTR [rsp+0x64],edi
ab68:	48 89 f7             	mov    rdi,rsi
ab6b:	48 89 74 24 10       	mov    QWORD PTR [rsp+0x10],rsi
ab70:	89 54 24 20          	mov    DWORD PTR [rsp+0x20],edx
ab74:	88 4c 24 63          	mov    BYTE PTR [rsp+0x63],cl
ab78:	64 48 8b 04 25 28 00 	mov    rax,QWORD PTR fs:0x28
ab7f:	00 00
ab81:	48 89 44 24 78       	mov    QWORD PTR [rsp+0x78],rax
ab86:	31 c0                	xor    eax,eax
ab88:	e8 03 0a 00 00       	call   b590 <last_component>
ab8d:	48 89 c7             	mov    rdi,rax
ab90:	49 89 c6             	mov    r14,rax
ab93:	e8 68 7d ff ff       	call   2900 <strlen@plt>
ab98:	48 8b 3d e1 f9 20 00 	mov    rdi,QWORD PTR [rip+0x20f9e1]        # 21a580 <simple_backup_suffix>
ab9f:	49 29 de             	sub    r14,rbx
aba2:	4c 01 f0             	add    rax,r14
aba5:	48 89 44 24 18       	mov    QWORD PTR [rsp+0x18],rax
abaa:	48 85 ff             	test   rdi,rdi
abad:	0f 84 81 05 00 00    	je     b134 <backupfile_internal+0x5e4>
abb3:	e8 48 7d ff ff       	call   2900 <strlen@plt>
abb8:	48 8b 74 24 18       	mov    rsi,QWORD PTR [rsp+0x18]
abbd:	48 83 c0 01          	add    rax,0x1
abc1:	48 83 f8 09          	cmp    rax,0x9
abc5:	48 89 44 24 50       	mov    QWORD PTR [rsp+0x50],rax
abca:	48 8d 56 01          	lea    rdx,[rsi+0x1]
abce:	48 89 c6             	mov    rsi,rax
abd1:	b8 09 00 00 00       	mov    eax,0x9
abd6:	48 0f 43 c6          	cmovae rax,rsi
abda:	48 01 d0             	add    rax,rdx
abdd:	48 89 54 24 38       	mov    QWORD PTR [rsp+0x38],rdx
abe2:	48 89 c7             	mov    rdi,rax
abe5:	48 89 44 24 40       	mov    QWORD PTR [rsp+0x40],rax
abea:	e8 d1 7f ff ff       	call   2bc0 <malloc@plt>
abef:	48 85 c0             	test   rax,rax
abf2:	49 89 c7             	mov    r15,rax
abf5:	0f 84 e5 02 00 00    	je     aee0 <backupfile_internal+0x390>
abfb:	48 8d 44 24 74       	lea    rax,[rsp+0x74]
ac00:	c7 44 24 74 ff ff ff 	mov    DWORD PTR [rsp+0x74],0xffffffff
ac07:	ff
ac08:	48 c7 44 24 48 00 00 	mov    QWORD PTR [rsp+0x48],0x0
ac0f:	00 00
ac11:	45 31 ed             	xor    r13d,r13d
ac14:	48 89 44 24 68       	mov    QWORD PTR [rsp+0x68],rax
ac19:	48 8b 54 24 38       	mov    rdx,QWORD PTR [rsp+0x38]
ac1e:	48 8b 74 24 10       	mov    rsi,QWORD PTR [rsp+0x10]
ac23:	4c 89 ff             	mov    rdi,r15
ac26:	e8 35 7f ff ff       	call   2b60 <memcpy@plt>
ac2b:	83 7c 24 20 01       	cmp    DWORD PTR [rsp+0x20],0x1
ac30:	0f 84 da 02 00 00    	je     af10 <backupfile_internal+0x3c0>
ac36:	4b 8d 2c 37          	lea    rbp,[r15+r14*1]
ac3a:	48 89 ef             	mov    rdi,rbp
ac3d:	e8 ae 09 00 00       	call   b5f0 <base_len>
ac42:	4d 85 ed             	test   r13,r13
ac45:	49 89 c4             	mov    r12,rax
ac48:	0f 84 a2 03 00 00    	je     aff0 <backupfile_internal+0x4a0>
ac4e:	4c 89 ef             	mov    rdi,r13
ac51:	e8 ea 7d ff ff       	call   2a40 <rewinddir@plt>
ac56:	48 8b 44 24 40       	mov    rax,QWORD PTR [rsp+0x40]
ac5b:	48 c7 44 24 28 01 00 	mov    QWORD PTR [rsp+0x28],0x1
ac62:	00 00
ac64:	c7 44 24 24 02 00 00 	mov    DWORD PTR [rsp+0x24],0x2
ac6b:	00
ac6c:	48 89 44 24 30       	mov    QWORD PTR [rsp+0x30],rax
ac71:	49 8d 44 24 04       	lea    rax,[r12+0x4]
ac76:	48 89 44 24 08       	mov    QWORD PTR [rsp+0x8],rax
ac7b:	0f 1f 44 00 00       	nop    DWORD PTR [rax+rax*1+0x0]
ac80:	4c 89 ef             	mov    rdi,r13
ac83:	e8 28 7f ff ff       	call   2bb0 <readdir@plt>
ac88:	48 85 c0             	test   rax,rax
ac8b:	0f 84 af 01 00 00    	je     ae40 <backupfile_internal+0x2f0>
ac91:	48 8d 58 13          	lea    rbx,[rax+0x13]
ac95:	48 89 df             	mov    rdi,rbx
ac98:	e8 63 7c ff ff       	call   2900 <strlen@plt>
ac9d:	48 3b 44 24 08       	cmp    rax,QWORD PTR [rsp+0x8]
aca2:	72 dc                	jb     ac80 <backupfile_internal+0x130>
aca4:	49 8d 6c 24 02       	lea    rbp,[r12+0x2]
aca9:	4b 8d 3c 37          	lea    rdi,[r15+r14*1]
acad:	48 89 de             	mov    rsi,rbx
acb0:	48 89 ea             	mov    rdx,rbp
acb3:	e8 d8 7d ff ff       	call   2a90 <memcmp@plt>
acb8:	85 c0                	test   eax,eax
acba:	75 c4                	jne    ac80 <backupfile_internal+0x130>
acbc:	48 01 eb             	add    rbx,rbp
acbf:	0f b6 03             	movzx  eax,BYTE PTR [rbx]
acc2:	8d 50 cf             	lea    edx,[rax-0x31]
acc5:	80 fa 08             	cmp    dl,0x8
acc8:	77 b6                	ja     ac80 <backupfile_internal+0x130>
acca:	3c 39                	cmp    al,0x39
accc:	0f be 43 01          	movsx  eax,BYTE PTR [rbx+0x1]
acd0:	bd 01 00 00 00       	mov    ebp,0x1
acd5:	41 0f 94 c0          	sete   r8b
acd9:	89 c1                	mov    ecx,eax
acdb:	83 e8 30             	sub    eax,0x30
acde:	83 f8 09             	cmp    eax,0x9
ace1:	77 20                	ja     ad03 <backupfile_internal+0x1b3>
ace3:	0f 1f 44 00 00       	nop    DWORD PTR [rax+rax*1+0x0]
ace8:	80 f9 39             	cmp    cl,0x39
aceb:	0f 94 c0             	sete   al
acee:	48 83 c5 01          	add    rbp,0x1
acf2:	41 21 c0             	and    r8d,eax
acf5:	0f be 04 2b          	movsx  eax,BYTE PTR [rbx+rbp*1]
acf9:	89 c1                	mov    ecx,eax
acfb:	83 e8 30             	sub    eax,0x30
acfe:	83 f8 09             	cmp    eax,0x9
ad01:	76 e5                	jbe    ace8 <backupfile_internal+0x198>
ad03:	80 f9 7e             	cmp    cl,0x7e
ad06:	0f 85 74 ff ff ff    	jne    ac80 <backupfile_internal+0x130>
ad0c:	80 7c 2b 01 00       	cmp    BYTE PTR [rbx+rbp*1+0x1],0x0
ad11:	0f 85 69 ff ff ff    	jne    ac80 <backupfile_internal+0x130>
ad17:	48 8b 54 24 28       	mov    rdx,QWORD PTR [rsp+0x28]
ad1c:	48 39 ea             	cmp    rdx,rbp
ad1f:	72 2b                	jb     ad4c <backupfile_internal+0x1fc>
ad21:	44 88 44 24 58       	mov    BYTE PTR [rsp+0x58],r8b
ad26:	0f 85 54 ff ff ff    	jne    ac80 <backupfile_internal+0x130>
ad2c:	48 8b 44 24 18       	mov    rax,QWORD PTR [rsp+0x18]
ad31:	48 89 de             	mov    rsi,rbx
ad34:	49 8d 7c 07 02       	lea    rdi,[r15+rax*1+0x2]
ad39:	e8 52 7d ff ff       	call   2a90 <memcmp@plt>
ad3e:	85 c0                	test   eax,eax
ad40:	44 0f b6 44 24 58    	movzx  r8d,BYTE PTR [rsp+0x58]
ad46:	0f 8f 34 ff ff ff    	jg     ac80 <backupfile_internal+0x130>
ad4c:	41 0f b6 f0          	movzx  esi,r8b
ad50:	45 0f b6 c8          	movzx  r9d,r8b
ad54:	89 74 24 24          	mov    DWORD PTR [rsp+0x24],esi
ad58:	48 8b 74 24 18       	mov    rsi,QWORD PTR [rsp+0x18]
ad5d:	49 8d 04 29          	lea    rax,[r9+rbp*1]
ad61:	48 89 44 24 28       	mov    QWORD PTR [rsp+0x28],rax
ad66:	48 8d 4c 06 04       	lea    rcx,[rsi+rax*1+0x4]
ad6b:	48 3b 4c 24 30       	cmp    rcx,QWORD PTR [rsp+0x30]
ad70:	0f 86 32 03 00 00    	jbe    b0a8 <backupfile_internal+0x558>
ad76:	ba 02 00 00 00       	mov    edx,0x2
ad7b:	31 f6                	xor    esi,esi
ad7d:	48 89 d0             	mov    rax,rdx
ad80:	48 f7 e1             	mul    rcx
ad83:	0f 80 ca 03 00 00    	jo     b153 <backupfile_internal+0x603>
ad89:	48 85 c0             	test   rax,rax
ad8c:	0f 88 ae 02 00 00    	js     b040 <backupfile_internal+0x4f0>
ad92:	48 85 f6             	test   rsi,rsi
ad95:	0f 85 a5 02 00 00    	jne    b040 <backupfile_internal+0x4f0>
ad9b:	48 8d 04 09          	lea    rax,[rcx+rcx*1]
ad9f:	48 89 44 24 30       	mov    QWORD PTR [rsp+0x30],rax
ada4:	48 8b 74 24 30       	mov    rsi,QWORD PTR [rsp+0x30]
ada9:	4c 89 ff             	mov    rdi,r15
adac:	4c 89 4c 24 58       	mov    QWORD PTR [rsp+0x58],r9
adb1:	e8 6a 7e ff ff       	call   2c20 <realloc@plt>
adb6:	48 85 c0             	test   rax,rax
adb9:	49 89 c0             	mov    r8,rax
adbc:	4c 8b 4c 24 58       	mov    r9,QWORD PTR [rsp+0x58]
adc1:	0f 84 89 02 00 00    	je     b050 <backupfile_internal+0x500>
adc7:	48 8b 44 24 18       	mov    rax,QWORD PTR [rsp+0x18]
adcc:	48 8d 55 02          	lea    rdx,[rbp+0x2]
add0:	4c 89 44 24 58       	mov    QWORD PTR [rsp+0x58],r8
add5:	48 89 de             	mov    rsi,rbx
add8:	4c 01 c0             	add    rax,r8
addb:	41 b8 2e 7e 00 00    	mov    r8d,0x7e2e
ade1:	4a 8d 4c 08 02       	lea    rcx,[rax+r9*1+0x2]
ade6:	66 44 89 00          	mov    WORD PTR [rax],r8w
adea:	c6 40 02 30          	mov    BYTE PTR [rax+0x2],0x30
adee:	48 89 cf             	mov    rdi,rcx
adf1:	e8 6a 7d ff ff       	call   2b60 <memcpy@plt>
adf6:	48 01 c5             	add    rbp,rax
adf9:	4c 8b 44 24 58       	mov    r8,QWORD PTR [rsp+0x58]
adfe:	0f b6 55 ff          	movzx  edx,BYTE PTR [rbp-0x1]
ae02:	48 8d 45 ff          	lea    rax,[rbp-0x1]
ae06:	80 fa 39             	cmp    dl,0x39
ae09:	75 14                	jne    ae1f <backupfile_internal+0x2cf>
ae0b:	0f 1f 44 00 00       	nop    DWORD PTR [rax+rax*1+0x0]
ae10:	c6 00 30             	mov    BYTE PTR [rax],0x30
ae13:	48 83 e8 01          	sub    rax,0x1
ae17:	0f b6 10             	movzx  edx,BYTE PTR [rax]
ae1a:	80 fa 39             	cmp    dl,0x39
ae1d:	74 f1                	je     ae10 <backupfile_internal+0x2c0>
ae1f:	83 c2 01             	add    edx,0x1
ae22:	4c 89 ef             	mov    rdi,r13
ae25:	4d 89 c7             	mov    r15,r8
ae28:	88 10                	mov    BYTE PTR [rax],dl
ae2a:	e8 81 7d ff ff       	call   2bb0 <readdir@plt>
ae2f:	48 85 c0             	test   rax,rax
ae32:	0f 85 59 fe ff ff    	jne    ac91 <backupfile_internal+0x141>
ae38:	0f 1f 84 00 00 00 00 	nop    DWORD PTR [rax+rax*1+0x0]
ae3f:	00
ae40:	8b 44 24 24          	mov    eax,DWORD PTR [rsp+0x24]
ae44:	83 f8 02             	cmp    eax,0x2
ae47:	0f 84 e3 00 00 00    	je     af30 <backupfile_internal+0x3e0>
ae4d:	83 f8 03             	cmp    eax,0x3
ae50:	0f 84 fa 01 00 00    	je     b050 <backupfile_internal+0x500>
ae56:	83 f8 01             	cmp    eax,0x1
ae59:	0f 84 01 01 00 00    	je     af60 <backupfile_internal+0x410>
ae5f:	80 7c 24 63 00       	cmp    BYTE PTR [rsp+0x63],0x0
ae64:	0f 84 b4 02 00 00    	je     b11e <backupfile_internal+0x5ce>
ae6a:	8b 54 24 74          	mov    edx,DWORD PTR [rsp+0x74]
ae6e:	4b 8d 0c 37          	lea    rcx,[r15+r14*1]
ae72:	85 d2                	test   edx,edx
ae74:	79 13                	jns    ae89 <backupfile_internal+0x339>
ae76:	c7 44 24 74 9c ff ff 	mov    DWORD PTR [rsp+0x74],0xffffff9c
ae7d:	ff
ae7e:	4c 89 f9             	mov    rcx,r15
ae81:	ba 9c ff ff ff       	mov    edx,0xffffff9c
ae86:	45 31 f6             	xor    r14d,r14d
ae89:	45 31 c0             	xor    r8d,r8d
ae8c:	83 7c 24 20 01       	cmp    DWORD PTR [rsp+0x20],0x1
ae91:	48 8b 74 24 10       	mov    rsi,QWORD PTR [rsp+0x10]
ae96:	bf 9c ff ff ff       	mov    edi,0xffffff9c
ae9b:	41 0f 95 c0          	setne  r8b
ae9f:	e8 fc 3e 00 00       	call   eda0 <renameatu>
aea4:	85 c0                	test   eax,eax
aea6:	0f 84 72 02 00 00    	je     b11e <backupfile_internal+0x5ce>
aeac:	e8 bf 78 ff ff       	call   2770 <__errno_location@plt>
aeb1:	8b 28                	mov    ebp,DWORD PTR [rax]
aeb3:	83 fd 11             	cmp    ebp,0x11
aeb6:	0f 84 5d fd ff ff    	je     ac19 <backupfile_internal+0xc9>
aebc:	4d 85 ed             	test   r13,r13
aebf:	48 89 c3             	mov    rbx,rax
aec2:	74 08                	je     aecc <backupfile_internal+0x37c>
aec4:	4c 89 ef             	mov    rdi,r13
aec7:	e8 94 7b ff ff       	call   2a60 <closedir@plt>
aecc:	4c 89 ff             	mov    rdi,r15
aecf:	45 31 ff             	xor    r15d,r15d
aed2:	e8 39 7f ff ff       	call   2e10 <free@plt>
aed7:	89 2b                	mov    DWORD PTR [rbx],ebp
aed9:	0f 1f 80 00 00 00 00 	nop    DWORD PTR [rax+0x0]
aee0:	48 8b 74 24 78       	mov    rsi,QWORD PTR [rsp+0x78]
aee5:	64 48 33 34 25 28 00 	xor    rsi,QWORD PTR fs:0x28
aeec:	00 00
aeee:	4c 89 f8             	mov    rax,r15
aef1:	0f 85 66 02 00 00    	jne    b15d <backupfile_internal+0x60d>
aef7:	48 81 c4 88 00 00 00 	add    rsp,0x88
aefe:	5b                   	pop    rbx
aeff:	5d                   	pop    rbp
af00:	41 5c                	pop    r12
af02:	41 5d                	pop    r13
af04:	41 5e                	pop    r14
af06:	41 5f                	pop    r15
af08:	c3                   	ret
af09:	0f 1f 80 00 00 00 00 	nop    DWORD PTR [rax+0x0]
af10:	48 8b 44 24 18       	mov    rax,QWORD PTR [rsp+0x18]
af15:	48 8b 54 24 50       	mov    rdx,QWORD PTR [rsp+0x50]
af1a:	48 8b 35 5f f6 20 00 	mov    rsi,QWORD PTR [rip+0x20f65f]        # 21a580 <simple_backup_suffix>
af21:	49 8d 3c 07          	lea    rdi,[r15+rax*1]
af25:	e8 36 7c ff ff       	call   2b60 <memcpy@plt>
af2a:	e9 30 ff ff ff       	jmp    ae5f <backupfile_internal+0x30f>
af2f:	90                   	nop
af30:	83 7c 24 20 02       	cmp    DWORD PTR [rsp+0x20],0x2
af35:	75 29                	jne    af60 <backupfile_internal+0x410>
af37:	48 8b 44 24 18       	mov    rax,QWORD PTR [rsp+0x18]
af3c:	48 8b 54 24 50       	mov    rdx,QWORD PTR [rsp+0x50]
af41:	48 8b 35 38 f6 20 00 	mov    rsi,QWORD PTR [rip+0x20f638]        # 21a580 <simple_backup_suffix>
af48:	49 8d 3c 07          	lea    rdi,[r15+rax*1]
af4c:	e8 0f 7c ff ff       	call   2b60 <memcpy@plt>
af51:	c7 44 24 20 01 00 00 	mov    DWORD PTR [rsp+0x20],0x1
af58:	00
af59:	0f 1f 80 00 00 00 00 	nop    DWORD PTR [rax+0x0]
af60:	4c 89 ff             	mov    rdi,r15
af63:	e8 28 06 00 00       	call   b590 <last_component>
af68:	48 89 c7             	mov    rdi,rax
af6b:	48 89 c3             	mov    rbx,rax
af6e:	e8 7d 06 00 00       	call   b5f0 <base_len>
af73:	48 83 f8 0e          	cmp    rax,0xe
af77:	48 89 c5             	mov    rbp,rax
af7a:	0f 86 df fe ff ff    	jbe    ae5f <backupfile_internal+0x30f>
af80:	48 83 7c 24 48 00    	cmp    QWORD PTR [rsp+0x48],0x0
af86:	0f 85 e4 00 00 00    	jne    b070 <backupfile_internal+0x520>
af8c:	8b 7c 24 74          	mov    edi,DWORD PTR [rsp+0x74]
af90:	89 7c 24 08          	mov    DWORD PTR [rsp+0x8],edi
af94:	e8 d7 77 ff ff       	call   2770 <__errno_location@plt>
af99:	8b 7c 24 08          	mov    edi,DWORD PTR [rsp+0x8]
af9d:	49 89 c4             	mov    r12,rax
afa0:	85 ff                	test   edi,edi
afa2:	0f 88 3a 01 00 00    	js     b0e2 <backupfile_internal+0x592>
afa8:	c7 00 00 00 00 00    	mov    DWORD PTR [rax],0x0
afae:	be 03 00 00 00       	mov    esi,0x3
afb3:	e8 58 7b ff ff       	call   2b10 <fpathconf@plt>
afb8:	41 8b 0c 24          	mov    ecx,DWORD PTR [r12]
afbc:	31 d2                	xor    edx,edx
afbe:	85 c9                	test   ecx,ecx
afc0:	0f 94 c2             	sete   dl
afc3:	48 29 d0             	sub    rax,rdx
afc6:	48 85 c0             	test   rax,rax
afc9:	48 89 44 24 48       	mov    QWORD PTR [rsp+0x48],rax
afce:	0f 89 9c 00 00 00    	jns    b070 <backupfile_internal+0x520>
afd4:	48 83 f8 ff          	cmp    rax,0xffffffffffffffff
afd8:	0f 85 67 01 00 00    	jne    b145 <backupfile_internal+0x5f5>
afde:	48 c7 44 24 48 ff ff 	mov    QWORD PTR [rsp+0x48],0xffffffffffffffff
afe5:	ff ff
afe7:	e9 73 fe ff ff       	jmp    ae5f <backupfile_internal+0x30f>
afec:	0f 1f 40 00          	nop    DWORD PTR [rax+0x0]
aff0:	48 8b 4c 24 68       	mov    rcx,QWORD PTR [rsp+0x68]
aff5:	8b 7c 24 64          	mov    edi,DWORD PTR [rsp+0x64]
aff9:	41 b9 2e 00 00 00    	mov    r9d,0x2e
afff:	31 d2                	xor    edx,edx
b001:	0f b7 5d 00          	movzx  ebx,WORD PTR [rbp+0x0]
b005:	4c 89 fe             	mov    rsi,r15
b008:	66 44 89 4d 00       	mov    WORD PTR [rbp+0x0],r9w
b00d:	e8 fe 1e 00 00       	call   cf10 <opendirat>
b012:	48 85 c0             	test   rax,rax
b015:	49 89 c5             	mov    r13,rax
b018:	4a 8d 54 25 00       	lea    rdx,[rbp+r12*1+0x0]
b01d:	0f 84 8d 00 00 00    	je     b0b0 <backupfile_internal+0x560>
b023:	66 89 5d 00          	mov    WORD PTR [rbp+0x0],bx
b027:	c7 02 2e 7e 31 7e    	mov    DWORD PTR [rdx],0x7e317e2e
b02d:	c6 42 04 00          	mov    BYTE PTR [rdx+0x4],0x0
b031:	e9 20 fc ff ff       	jmp    ac56 <backupfile_internal+0x106>
b036:	66 2e 0f 1f 84 00 00 	nop    WORD PTR cs:[rax+rax*1+0x0]
b03d:	00 00 00
b040:	48 89 4c 24 30       	mov    QWORD PTR [rsp+0x30],rcx
b045:	e9 5a fd ff ff       	jmp    ada4 <backupfile_internal+0x254>
b04a:	66 0f 1f 44 00 00    	nop    WORD PTR [rax+rax*1+0x0]
b050:	4c 89 ff             	mov    rdi,r15
b053:	45 31 ff             	xor    r15d,r15d
b056:	e8 b5 7d ff ff       	call   2e10 <free@plt>
b05b:	e8 10 77 ff ff       	call   2770 <__errno_location@plt>
b060:	c7 00 0c 00 00 00    	mov    DWORD PTR [rax],0xc
b066:	e9 75 fe ff ff       	jmp    aee0 <backupfile_internal+0x390>
b06b:	0f 1f 44 00 00       	nop    DWORD PTR [rax+rax*1+0x0]
b070:	48 3b 6c 24 48       	cmp    rbp,QWORD PTR [rsp+0x48]
b075:	0f 86 e4 fd ff ff    	jbe    ae5f <backupfile_internal+0x30f>
b07b:	48 8b 44 24 18       	mov    rax,QWORD PTR [rsp+0x18]
b080:	48 8b 74 24 48       	mov    rsi,QWORD PTR [rsp+0x48]
b085:	4c 01 f8             	add    rax,r15
b088:	48 8d 56 ff          	lea    rdx,[rsi-0x1]
b08c:	48 29 d8             	sub    rax,rbx
b08f:	48 39 f0             	cmp    rax,rsi
b092:	48 0f 43 c2          	cmovae rax,rdx
b096:	c6 04 03 7e          	mov    BYTE PTR [rbx+rax*1],0x7e
b09a:	c6 44 03 01 00       	mov    BYTE PTR [rbx+rax*1+0x1],0x0
b09f:	e9 bb fd ff ff       	jmp    ae5f <backupfile_internal+0x30f>
b0a4:	0f 1f 40 00          	nop    DWORD PTR [rax+0x0]
b0a8:	4d 89 f8             	mov    r8,r15
b0ab:	e9 17 fd ff ff       	jmp    adc7 <backupfile_internal+0x277>
b0b0:	48 89 54 24 08       	mov    QWORD PTR [rsp+0x8],rdx
b0b5:	e8 b6 76 ff ff       	call   2770 <__errno_location@plt>
b0ba:	83 38 0c             	cmp    DWORD PTR [rax],0xc
b0bd:	48 8b 54 24 08       	mov    rdx,QWORD PTR [rsp+0x8]
b0c2:	66 89 5d 00          	mov    WORD PTR [rbp+0x0],bx
b0c6:	c7 02 2e 7e 31 7e    	mov    DWORD PTR [rdx],0x7e317e2e
b0cc:	c6 42 04 00          	mov    BYTE PTR [rdx+0x4],0x0
b0d0:	0f 94 c0             	sete   al
b0d3:	0f b6 c0             	movzx  eax,al
b0d6:	83 c0 02             	add    eax,0x2
b0d9:	89 44 24 24          	mov    DWORD PTR [rsp+0x24],eax
b0dd:	e9 5e fd ff ff       	jmp    ae40 <backupfile_internal+0x2f0>
b0e2:	0f b7 13             	movzx  edx,WORD PTR [rbx]
b0e5:	be 2e 00 00 00       	mov    esi,0x2e
b0ea:	4c 89 ff             	mov    rdi,r15
b0ed:	66 89 33             	mov    WORD PTR [rbx],si
b0f0:	c7 00 00 00 00 00    	mov    DWORD PTR [rax],0x0
b0f6:	be 03 00 00 00       	mov    esi,0x3
b0fb:	89 54 24 08          	mov    DWORD PTR [rsp+0x8],edx
b0ff:	e8 7c 77 ff ff       	call   2880 <pathconf@plt>
b104:	41 8b 3c 24          	mov    edi,DWORD PTR [r12]
b108:	8b 54 24 08          	mov    edx,DWORD PTR [rsp+0x8]
b10c:	31 c9                	xor    ecx,ecx
b10e:	85 ff                	test   edi,edi
b110:	66 89 13             	mov    WORD PTR [rbx],dx
b113:	0f 94 c1             	sete   cl
b116:	48 29 c8             	sub    rax,rcx
b119:	e9 a8 fe ff ff       	jmp    afc6 <backupfile_internal+0x476>
b11e:	4d 85 ed             	test   r13,r13
b121:	0f 84 b9 fd ff ff    	je     aee0 <backupfile_internal+0x390>
b127:	4c 89 ef             	mov    rdi,r13
b12a:	e8 31 79 ff ff       	call   2a60 <closedir@plt>
b12f:	e9 ac fd ff ff       	jmp    aee0 <backupfile_internal+0x390>
b134:	e8 c7 f9 ff ff       	call   ab00 <set_simple_backup_suffix>
b139:	48 8b 3d 40 f4 20 00 	mov    rdi,QWORD PTR [rip+0x20f440]        # 21a580 <simple_backup_suffix>
b140:	e9 6e fa ff ff       	jmp    abb3 <backupfile_internal+0x63>
b145:	48 c7 44 24 48 0e 00 	mov    QWORD PTR [rsp+0x48],0xe
b14c:	00 00
b14e:	e9 28 ff ff ff       	jmp    b07b <backupfile_internal+0x52b>
b153:	be 01 00 00 00       	mov    esi,0x1
b158:	e9 2c fc ff ff       	jmp    ad89 <backupfile_internal+0x239>
b15d:	e8 ce 77 ff ff       	call   2930 <__stack_chk_fail@plt>
b162:	66 2e 0f 1f 84 00 00 	nop    WORD PTR cs:[rax+rax*1+0x0]
b169:	00 00 00
b16c:	0f 1f 40 00          	nop    DWORD PTR [rax+0x0]

000000000000b170 <backup_file_rename>:
b170:	b9 01 00 00 00       	mov    ecx,0x1
b175:	e9 d6 f9 ff ff       	jmp    ab50 <backupfile_internal>
b17a:	66 0f 1f 44 00 00    	nop    WORD PTR [rax+rax*1+0x0]

000000000000b180 <get_version.part.0>:
b180:	48 83 ec 08          	sub    rsp,0x8
b184:	4c 8b 0d 9d ee 20 00 	mov    r9,QWORD PTR [rip+0x20ee9d]        # 21a028 <argmatch_die>
b18b:	48 8d 15 ee e7 20 00 	lea    rdx,[rip+0x20e7ee]        # 219980 <backup_args>
b192:	48 8d 0d 47 a0 00 00 	lea    rcx,[rip+0xa047]        # 151e0 <backup_types>
b199:	41 b8 04 00 00 00    	mov    r8d,0x4
b19f:	e8 9c f8 ff ff       	call   aa40 <__xargmatch_internal>
b1a4:	48 8d 15 35 a0 00 00 	lea    rdx,[rip+0xa035]        # 151e0 <backup_types>
b1ab:	8b 04 82             	mov    eax,DWORD PTR [rdx+rax*4]
b1ae:	48 83 c4 08          	add    rsp,0x8
b1b2:	c3                   	ret
b1b3:	0f 1f 00             	nop    DWORD PTR [rax]
b1b6:	66 2e 0f 1f 84 00 00 	nop    WORD PTR cs:[rax+rax*1+0x0]
b1bd:	00 00 00

000000000000b1c0 <find_backup_file_name>:
b1c0:	48 83 ec 08          	sub    rsp,0x8
b1c4:	31 c9                	xor    ecx,ecx
b1c6:	e8 85 f9 ff ff       	call   ab50 <backupfile_internal>
b1cb:	48 85 c0             	test   rax,rax
b1ce:	74 05                	je     b1d5 <find_backup_file_name+0x15>
b1d0:	48 83 c4 08          	add    rsp,0x8
b1d4:	c3                   	ret
b1d5:	e8 96 60 00 00       	call   11270 <xalloc_die>
b1da:	66 0f 1f 44 00 00    	nop    WORD PTR [rax+rax*1+0x0]

000000000000b1e0 <get_version>:
b1e0:	48 85 f6             	test   rsi,rsi
b1e3:	74 0b                	je     b1f0 <get_version+0x10>
b1e5:	80 3e 00             	cmp    BYTE PTR [rsi],0x0
b1e8:	74 06                	je     b1f0 <get_version+0x10>
b1ea:	eb 94                	jmp    b180 <get_version.part.0>
b1ec:	0f 1f 40 00          	nop    DWORD PTR [rax+0x0]
b1f0:	b8 02 00 00 00       	mov    eax,0x2
b1f5:	c3                   	ret
b1f6:	66 2e 0f 1f 84 00 00 	nop    WORD PTR cs:[rax+rax*1+0x0]
b1fd:	00 00 00

000000000000b200 <xget_version>:
b200:	48 85 f6             	test   rsi,rsi
b203:	74 05                	je     b20a <xget_version+0xa>
b205:	80 3e 00             	cmp    BYTE PTR [rsi],0x0
b208:	75 28                	jne    b232 <xget_version+0x32>
b20a:	48 8d 3d 97 9f 00 00 	lea    rdi,[rip+0x9f97]        # 151a8 <__PRETTY_FUNCTION__.6956+0x88>
b211:	48 83 ec 08          	sub    rsp,0x8
b215:	e8 26 75 ff ff       	call   2740 <getenv@plt>
b21a:	48 85 c0             	test   rax,rax
b21d:	74 21                	je     b240 <xget_version+0x40>
b21f:	80 38 00             	cmp    BYTE PTR [rax],0x0
b222:	74 1c                	je     b240 <xget_version+0x40>
b224:	48 8d 3d 7c 9f 00 00 	lea    rdi,[rip+0x9f7c]        # 151a7 <__PRETTY_FUNCTION__.6956+0x87>
b22b:	48 89 c6             	mov    rsi,rax
b22e:	48 83 c4 08          	add    rsp,0x8
b232:	e9 49 ff ff ff       	jmp    b180 <get_version.part.0>
b237:	66 0f 1f 84 00 00 00 	nop    WORD PTR [rax+rax*1+0x0]
b23e:	00 00
b240:	b8 02 00 00 00       	mov    eax,0x2
b245:	48 83 c4 08          	add    rsp,0x8
b249:	c3                   	ret
b24a:	66 0f 1f 44 00 00    	nop    WORD PTR [rax+rax*1+0x0]

000000000000b250 <buffer_lcm>:
b250:	48 85 ff             	test   rdi,rdi
b253:	48 89 d1             	mov    rcx,rdx
b256:	75 20                	jne    b278 <buffer_lcm+0x28>
b258:	48 85 f6             	test   rsi,rsi
b25b:	bf 00 20 00 00       	mov    edi,0x2000
b260:	48 0f 45 fe          	cmovne rdi,rsi
b264:	48 39 cf             	cmp    rdi,rcx
b267:	48 0f 46 cf          	cmovbe rcx,rdi
b26b:	49 89 c8             	mov    r8,rcx
b26e:	4c 89 c0             	mov    rax,r8
b271:	c3                   	ret
b272:	66 0f 1f 44 00 00    	nop    WORD PTR [rax+rax*1+0x0]
b278:	48 85 f6             	test   rsi,rsi
b27b:	74 e7                	je     b264 <buffer_lcm+0x14>
b27d:	49 89 f0             	mov    r8,rsi
b280:	48 89 f8             	mov    rax,rdi
b283:	31 d2                	xor    edx,edx
b285:	49 f7 f0             	div    r8
b288:	48 85 d2             	test   rdx,rdx
b28b:	75 2b                	jne    b2b8 <buffer_lcm+0x68>
b28d:	31 d2                	xor    edx,edx
b28f:	48 89 f8             	mov    rax,rdi
b292:	49 f7 f0             	div    r8
b295:	49 89 f0             	mov    r8,rsi
b298:	4c 0f af c0          	imul   r8,rax
b29c:	49 89 c1             	mov    r9,rax
b29f:	49 39 c8             	cmp    r8,rcx
b2a2:	77 c0                	ja     b264 <buffer_lcm+0x14>
b2a4:	31 d2                	xor    edx,edx
b2a6:	4c 89 c0             	mov    rax,r8
b2a9:	48 f7 f6             	div    rsi
b2ac:	4c 39 c8             	cmp    rax,r9
b2af:	75 b3                	jne    b264 <buffer_lcm+0x14>
b2b1:	eb bb                	jmp    b26e <buffer_lcm+0x1e>
b2b3:	0f 1f 44 00 00       	nop    DWORD PTR [rax+rax*1+0x0]
b2b8:	4c 89 c0             	mov    rax,r8
b2bb:	49 89 d0             	mov    r8,rdx
b2be:	eb c3                	jmp    b283 <buffer_lcm+0x33>

000000000000b2c0 <close_stdin_set_file_name>:
b2c0:	48 89 3d c1 f2 20 00 	mov    QWORD PTR [rip+0x20f2c1],rdi        # 21a588 <file_name>
b2c7:	c3                   	ret
b2c8:	0f 1f 84 00 00 00 00 	nop    DWORD PTR [rax+rax*1+0x0]
b2cf:	00

000000000000b2d0 <close_stdin>:
b2d0:	41 54                	push   r12
b2d2:	55                   	push   rbp
b2d3:	53                   	push   rbx
b2d4:	48 8b 1d d5 ed 20 00 	mov    rbx,QWORD PTR [rip+0x20edd5]        # 21a0b0 <stdin@@GLIBC_2.2.5>
b2db:	48 89 df             	mov    rdi,rbx
b2de:	e8 ad 60 00 00       	call   11390 <freadahead>
b2e3:	48 85 c0             	test   rax,rax
b2e6:	0f 85 9c 00 00 00    	jne    b388 <close_stdin+0xb8>
b2ec:	48 89 df             	mov    rdi,rbx
b2ef:	e8 2c 62 00 00       	call   11520 <close_stream>
b2f4:	85 c0                	test   eax,eax
b2f6:	75 30                	jne    b328 <close_stdin+0x58>
b2f8:	5b                   	pop    rbx
b2f9:	5d                   	pop    rbp
b2fa:	41 5c                	pop    r12
b2fc:	e9 ff 00 00 00       	jmp    b400 <close_stdout>
b301:	0f 1f 80 00 00 00 00 	nop    DWORD PTR [rax+0x0]
b308:	e8 43 60 00 00       	call   11350 <rpl_fflush>
b30d:	85 c0                	test   eax,eax
b30f:	48 8b 3d 9a ed 20 00 	mov    rdi,QWORD PTR [rip+0x20ed9a]        # 21a0b0 <stdin@@GLIBC_2.2.5>
b316:	0f 84 8a 00 00 00    	je     b3a6 <close_stdin+0xd6>
b31c:	e8 ff 61 00 00       	call   11520 <close_stream>
b321:	0f 1f 80 00 00 00 00 	nop    DWORD PTR [rax+0x0]
b328:	48 8d 35 d1 9e 00 00 	lea    rsi,[rip+0x9ed1]        # 15200 <backup_types+0x20>
b32f:	31 ff                	xor    edi,edi
b331:	ba 05 00 00 00       	mov    edx,0x5
b336:	e8 a5 75 ff ff       	call   28e0 <dcgettext@plt>
b33b:	48 8b 1d 46 f2 20 00 	mov    rbx,QWORD PTR [rip+0x20f246]        # 21a588 <file_name>
b342:	49 89 c4             	mov    r12,rax
b345:	e8 26 74 ff ff       	call   2770 <__errno_location@plt>
b34a:	48 89 c5             	mov    rbp,rax
b34d:	48 85 db             	test   rbx,rbx
b350:	74 6e                	je     b3c0 <close_stdin+0xf0>
b352:	48 89 df             	mov    rdi,rbx
b355:	e8 26 38 00 00       	call   eb80 <quotearg_colon>
b35a:	8b 75 00             	mov    esi,DWORD PTR [rbp+0x0]
b35d:	48 8d 15 af 9e 00 00 	lea    rdx,[rip+0x9eaf]        # 15213 <backup_types+0x33>
b364:	48 89 c1             	mov    rcx,rax
b367:	4d 89 e0             	mov    r8,r12
b36a:	31 ff                	xor    edi,edi
b36c:	31 c0                	xor    eax,eax
b36e:	e8 3d 79 ff ff       	call   2cb0 <error@plt>
b373:	e8 88 00 00 00       	call   b400 <close_stdout>
b378:	8b 3d b2 ec 20 00    	mov    edi,DWORD PTR [rip+0x20ecb2]        # 21a030 <exit_failure>
b37e:	e8 1d 74 ff ff       	call   27a0 <_exit@plt>
b383:	0f 1f 44 00 00       	nop    DWORD PTR [rax+rax*1+0x0]
b388:	31 f6                	xor    esi,esi
b38a:	48 89 df             	mov    rdi,rbx
b38d:	ba 01 00 00 00       	mov    edx,0x1
b392:	e8 29 60 00 00       	call   113c0 <rpl_fseeko>
b397:	85 c0                	test   eax,eax
b399:	48 8b 3d 10 ed 20 00 	mov    rdi,QWORD PTR [rip+0x20ed10]        # 21a0b0 <stdin@@GLIBC_2.2.5>
b3a0:	0f 84 62 ff ff ff    	je     b308 <close_stdin+0x38>
b3a6:	e8 75 61 00 00       	call   11520 <close_stream>
b3ab:	85 c0                	test   eax,eax
b3ad:	0f 85 75 ff ff ff    	jne    b328 <close_stdin+0x58>
b3b3:	5b                   	pop    rbx
b3b4:	5d                   	pop    rbp
b3b5:	41 5c                	pop    r12
b3b7:	e9 44 00 00 00       	jmp    b400 <close_stdout>
b3bc:	0f 1f 40 00          	nop    DWORD PTR [rax+0x0]
b3c0:	8b 30                	mov    esi,DWORD PTR [rax]
b3c2:	48 8d 15 c4 9d 00 00 	lea    rdx,[rip+0x9dc4]        # 1518d <__PRETTY_FUNCTION__.6956+0x6d>
b3c9:	4c 89 e1             	mov    rcx,r12
b3cc:	31 ff                	xor    edi,edi
b3ce:	31 c0                	xor    eax,eax
b3d0:	e8 db 78 ff ff       	call   2cb0 <error@plt>
b3d5:	eb 9c                	jmp    b373 <close_stdin+0xa3>
b3d7:	66 0f 1f 84 00 00 00 	nop    WORD PTR [rax+rax*1+0x0]
b3de:	00 00

000000000000b3e0 <close_stdout_set_file_name>:
b3e0:	48 89 3d b1 f1 20 00 	mov    QWORD PTR [rip+0x20f1b1],rdi        # 21a598 <file_name>
b3e7:	c3                   	ret
b3e8:	0f 1f 84 00 00 00 00 	nop    DWORD PTR [rax+rax*1+0x0]
b3ef:	00

000000000000b3f0 <close_stdout_set_ignore_EPIPE>:
b3f0:	40 88 3d 99 f1 20 00 	mov    BYTE PTR [rip+0x20f199],dil        # 21a590 <ignore_EPIPE>
b3f7:	c3                   	ret
b3f8:	0f 1f 84 00 00 00 00 	nop    DWORD PTR [rax+rax*1+0x0]
b3ff:	00

000000000000b400 <close_stdout>:
b400:	55                   	push   rbp
b401:	53                   	push   rbx
b402:	48 83 ec 08          	sub    rsp,0x8
b406:	48 8b 3d 9b ec 20 00 	mov    rdi,QWORD PTR [rip+0x20ec9b]        # 21a0a8 <stdout@@GLIBC_2.2.5>
b40d:	e8 0e 61 00 00       	call   11520 <close_stream>
b412:	85 c0                	test   eax,eax
b414:	74 16                	je     b42c <close_stdout+0x2c>
b416:	e8 55 73 ff ff       	call   2770 <__errno_location@plt>
b41b:	80 3d 6e f1 20 00 00 	cmp    BYTE PTR [rip+0x20f16e],0x0        # 21a590 <ignore_EPIPE>
b422:	48 89 c3             	mov    rbx,rax
b425:	74 1c                	je     b443 <close_stdout+0x43>
b427:	83 38 20             	cmp    DWORD PTR [rax],0x20
b42a:	75 17                	jne    b443 <close_stdout+0x43>
b42c:	48 8b 3d ad ec 20 00 	mov    rdi,QWORD PTR [rip+0x20ecad]        # 21a0e0 <stderr@@GLIBC_2.2.5>
b433:	e8 e8 60 00 00       	call   11520 <close_stream>
b438:	85 c0                	test   eax,eax
b43a:	75 46                	jne    b482 <close_stdout+0x82>
b43c:	48 83 c4 08          	add    rsp,0x8
b440:	5b                   	pop    rbx
b441:	5d                   	pop    rbp
b442:	c3                   	ret
b443:	48 8d 35 d0 9d 00 00 	lea    rsi,[rip+0x9dd0]        # 1521a <backup_types+0x3a>
b44a:	31 ff                	xor    edi,edi
b44c:	ba 05 00 00 00       	mov    edx,0x5
b451:	e8 8a 74 ff ff       	call   28e0 <dcgettext@plt>
b456:	48 8b 3d 3b f1 20 00 	mov    rdi,QWORD PTR [rip+0x20f13b]        # 21a598 <file_name>
b45d:	48 89 c5             	mov    rbp,rax
b460:	48 85 ff             	test   rdi,rdi
b463:	74 28                	je     b48d <close_stdout+0x8d>
b465:	e8 16 37 00 00       	call   eb80 <quotearg_colon>
b46a:	8b 33                	mov    esi,DWORD PTR [rbx]
b46c:	48 8d 15 a0 9d 00 00 	lea    rdx,[rip+0x9da0]        # 15213 <backup_types+0x33>
b473:	48 89 c1             	mov    rcx,rax
b476:	49 89 e8             	mov    r8,rbp
b479:	31 ff                	xor    edi,edi
b47b:	31 c0                	xor    eax,eax
b47d:	e8 2e 78 ff ff       	call   2cb0 <error@plt>
b482:	8b 3d a8 eb 20 00    	mov    edi,DWORD PTR [rip+0x20eba8]        # 21a030 <exit_failure>
b488:	e8 13 73 ff ff       	call   27a0 <_exit@plt>
b48d:	8b 33                	mov    esi,DWORD PTR [rbx]
b48f:	48 8d 15 f7 9c 00 00 	lea    rdx,[rip+0x9cf7]        # 1518d <__PRETTY_FUNCTION__.6956+0x6d>
b496:	48 89 c1             	mov    rcx,rax
b499:	31 ff                	xor    edi,edi
b49b:	31 c0                	xor    eax,eax
b49d:	e8 0e 78 ff ff       	call   2cb0 <error@plt>
b4a2:	eb de                	jmp    b482 <close_stdout+0x82>
b4a4:	66 2e 0f 1f 84 00 00 	nop    WORD PTR cs:[rax+rax*1+0x0]
b4ab:	00 00 00
b4ae:	66 90                	xchg   ax,ax

000000000000b4b0 <dir_name>:
b4b0:	48 83 ec 08          	sub    rsp,0x8
b4b4:	e8 77 00 00 00       	call   b530 <mdir_name>
b4b9:	48 85 c0             	test   rax,rax
b4bc:	74 05                	je     b4c3 <dir_name+0x13>
b4be:	48 83 c4 08          	add    rsp,0x8
b4c2:	c3                   	ret
b4c3:	e8 a8 5d 00 00       	call   11270 <xalloc_die>
b4c8:	0f 1f 84 00 00 00 00 	nop    DWORD PTR [rax+rax*1+0x0]
b4cf:	00

000000000000b4d0 <dir_len>:
b4d0:	55                   	push   rbp
b4d1:	53                   	push   rbx
b4d2:	31 ed                	xor    ebp,ebp
b4d4:	48 89 fb             	mov    rbx,rdi
b4d7:	48 83 ec 08          	sub    rsp,0x8
b4db:	80 3f 2f             	cmp    BYTE PTR [rdi],0x2f
b4de:	40 0f 94 c5          	sete   bpl
b4e2:	e8 a9 00 00 00       	call   b590 <last_component>
b4e7:	48 89 c1             	mov    rcx,rax
b4ea:	48 29 d9             	sub    rcx,rbx
b4ed:	48 39 e9             	cmp    rcx,rbp
b4f0:	76 2e                	jbe    b520 <dir_len+0x50>
b4f2:	80 78 ff 2f          	cmp    BYTE PTR [rax-0x1],0x2f
b4f6:	48 8d 51 ff          	lea    rdx,[rcx-0x1]
b4fa:	74 12                	je     b50e <dir_len+0x3e>
b4fc:	eb 22                	jmp    b520 <dir_len+0x50>
b4fe:	66 90                	xchg   ax,ax
b500:	80 7c 13 ff 2f       	cmp    BYTE PTR [rbx+rdx*1-0x1],0x2f
b505:	48 8d 42 ff          	lea    rax,[rdx-0x1]
b509:	75 08                	jne    b513 <dir_len+0x43>
b50b:	48 89 c2             	mov    rdx,rax
b50e:	48 39 d5             	cmp    rbp,rdx
b511:	75 ed                	jne    b500 <dir_len+0x30>
b513:	48 83 c4 08          	add    rsp,0x8
b517:	48 89 d0             	mov    rax,rdx
b51a:	5b                   	pop    rbx
b51b:	5d                   	pop    rbp
b51c:	c3                   	ret
b51d:	0f 1f 00             	nop    DWORD PTR [rax]
b520:	48 83 c4 08          	add    rsp,0x8
b524:	48 89 ca             	mov    rdx,rcx
b527:	48 89 d0             	mov    rax,rdx
b52a:	5b                   	pop    rbx
b52b:	5d                   	pop    rbp
b52c:	c3                   	ret
b52d:	0f 1f 00             	nop    DWORD PTR [rax]

000000000000b530 <mdir_name>:
b530:	55                   	push   rbp
b531:	53                   	push   rbx
b532:	48 89 fd             	mov    rbp,rdi
b535:	48 83 ec 08          	sub    rsp,0x8
b539:	e8 92 ff ff ff       	call   b4d0 <dir_len>
b53e:	48 85 c0             	test   rax,rax
b541:	48 89 c3             	mov    rbx,rax
b544:	0f 94 c0             	sete   al
b547:	0f b6 c0             	movzx  eax,al
b54a:	48 8d 7c 03 01       	lea    rdi,[rbx+rax*1+0x1]
b54f:	e8 6c 76 ff ff       	call   2bc0 <malloc@plt>
b554:	48 85 c0             	test   rax,rax
b557:	48 89 c1             	mov    rcx,rax
b55a:	74 1a                	je     b576 <mdir_name+0x46>
b55c:	48 89 da             	mov    rdx,rbx
b55f:	48 89 ee             	mov    rsi,rbp
b562:	48 89 c7             	mov    rdi,rax
b565:	e8 f6 75 ff ff       	call   2b60 <memcpy@plt>
b56a:	48 85 db             	test   rbx,rbx
b56d:	48 89 c1             	mov    rcx,rax
b570:	74 0e                	je     b580 <mdir_name+0x50>
b572:	c6 04 19 00          	mov    BYTE PTR [rcx+rbx*1],0x0
b576:	48 83 c4 08          	add    rsp,0x8
b57a:	48 89 c8             	mov    rax,rcx
b57d:	5b                   	pop    rbx
b57e:	5d                   	pop    rbp
b57f:	c3                   	ret
b580:	c6 00 2e             	mov    BYTE PTR [rax],0x2e
b583:	bb 01 00 00 00       	mov    ebx,0x1
b588:	eb e8                	jmp    b572 <mdir_name+0x42>
b58a:	66 0f 1f 44 00 00    	nop    WORD PTR [rax+rax*1+0x0]

000000000000b590 <last_component>:
b590:	0f b6 17             	movzx  edx,BYTE PTR [rdi]
b593:	48 89 f8             	mov    rax,rdi
b596:	80 fa 2f             	cmp    dl,0x2f
b599:	75 11                	jne    b5ac <last_component+0x1c>
b59b:	0f 1f 44 00 00       	nop    DWORD PTR [rax+rax*1+0x0]
b5a0:	48 83 c0 01          	add    rax,0x1
b5a4:	0f b6 10             	movzx  edx,BYTE PTR [rax]
b5a7:	80 fa 2f             	cmp    dl,0x2f
b5aa:	74 f4                	je     b5a0 <last_component+0x10>
b5ac:	84 d2                	test   dl,dl
b5ae:	74 3a                	je     b5ea <last_component+0x5a>
b5b0:	48 89 c1             	mov    rcx,rax
b5b3:	31 f6                	xor    esi,esi
b5b5:	eb 1e                	jmp    b5d5 <last_component+0x45>
b5b7:	66 0f 1f 84 00 00 00 	nop    WORD PTR [rax+rax*1+0x0]
b5be:	00 00
b5c0:	40 84 f6             	test   sil,sil
b5c3:	74 05                	je     b5ca <last_component+0x3a>
b5c5:	48 89 c8             	mov    rax,rcx
b5c8:	31 f6                	xor    esi,esi
b5ca:	48 83 c1 01          	add    rcx,0x1
b5ce:	0f b6 11             	movzx  edx,BYTE PTR [rcx]
b5d1:	84 d2                	test   dl,dl
b5d3:	74 15                	je     b5ea <last_component+0x5a>
b5d5:	80 fa 2f             	cmp    dl,0x2f
b5d8:	75 e6                	jne    b5c0 <last_component+0x30>
b5da:	48 83 c1 01          	add    rcx,0x1
b5de:	0f b6 11             	movzx  edx,BYTE PTR [rcx]
b5e1:	be 01 00 00 00       	mov    esi,0x1
b5e6:	84 d2                	test   dl,dl
b5e8:	75 eb                	jne    b5d5 <last_component+0x45>
b5ea:	f3 c3                	repz ret
b5ec:	0f 1f 40 00          	nop    DWORD PTR [rax+0x0]

000000000000b5f0 <base_len>:
b5f0:	53                   	push   rbx
b5f1:	48 89 fb             	mov    rbx,rdi
b5f4:	e8 07 73 ff ff       	call   2900 <strlen@plt>
b5f9:	48 83 f8 01          	cmp    rax,0x1
b5fd:	76 0b                	jbe    b60a <base_len+0x1a>
b5ff:	80 7c 03 ff 2f       	cmp    BYTE PTR [rbx+rax*1-0x1],0x2f
b604:	48 8d 50 ff          	lea    rdx,[rax-0x1]
b608:	74 0e                	je     b618 <base_len+0x28>
b60a:	5b                   	pop    rbx
b60b:	c3                   	ret
b60c:	0f 1f 40 00          	nop    DWORD PTR [rax+0x0]
b610:	48 89 c2             	mov    rdx,rax
b613:	0f 1f 44 00 00       	nop    DWORD PTR [rax+rax*1+0x0]
b618:	48 83 fa 01          	cmp    rdx,0x1
b61c:	74 12                	je     b630 <base_len+0x40>
b61e:	80 7c 13 ff 2f       	cmp    BYTE PTR [rbx+rdx*1-0x1],0x2f
b623:	48 8d 42 ff          	lea    rax,[rdx-0x1]
b627:	74 e7                	je     b610 <base_len+0x20>
b629:	48 89 d0             	mov    rax,rdx
b62c:	5b                   	pop    rbx
b62d:	c3                   	ret
b62e:	66 90                	xchg   ax,ax
b630:	b8 01 00 00 00       	mov    eax,0x1
b635:	5b                   	pop    rbx
b636:	c3                   	ret
b637:	66 0f 1f 84 00 00 00 	nop    WORD PTR [rax+rax*1+0x0]
b63e:	00 00

000000000000b640 <strip_trailing_slashes>:
b640:	55                   	push   rbp
b641:	53                   	push   rbx
b642:	48 89 fd             	mov    rbp,rdi
b645:	48 83 ec 08          	sub    rsp,0x8
b649:	e8 42 ff ff ff       	call   b590 <last_component>
b64e:	80 38 00             	cmp    BYTE PTR [rax],0x0
b651:	48 89 c3             	mov    rbx,rax
b654:	48 0f 44 dd          	cmove  rbx,rbp
b658:	48 89 df             	mov    rdi,rbx
b65b:	e8 90 ff ff ff       	call   b5f0 <base_len>
b660:	48 01 c3             	add    rbx,rax
b663:	80 3b 00             	cmp    BYTE PTR [rbx],0x0
b666:	c6 03 00             	mov    BYTE PTR [rbx],0x0
b669:	0f 95 c0             	setne  al
b66c:	48 83 c4 08          	add    rsp,0x8
b670:	5b                   	pop    rbx
b671:	5d                   	pop    rbp
b672:	c3                   	ret
b673:	66 2e 0f 1f 84 00 00 	nop    WORD PTR cs:[rax+rax*1+0x0]
b67a:	00 00 00
b67d:	0f 1f 00             	nop    DWORD PTR [rax]

000000000000b680 <fdadvise>:
b680:	e9 eb 73 ff ff       	jmp    2a70 <posix_fadvise@plt>
b685:	90                   	nop
b686:	66 2e 0f 1f 84 00 00 	nop    WORD PTR cs:[rax+rax*1+0x0]
b68d:	00 00 00

000000000000b690 <fadvise>:
b690:	48 85 ff             	test   rdi,rdi
b693:	74 1b                	je     b6b0 <fadvise+0x20>
b695:	53                   	push   rbx
b696:	89 f3                	mov    ebx,esi
b698:	e8 e3 74 ff ff       	call   2b80 <fileno@plt>
b69d:	89 d9                	mov    ecx,ebx
b69f:	31 d2                	xor    edx,edx
b6a1:	31 f6                	xor    esi,esi
b6a3:	5b                   	pop    rbx
b6a4:	89 c7                	mov    edi,eax
b6a6:	e9 c5 73 ff ff       	jmp    2a70 <posix_fadvise@plt>
b6ab:	0f 1f 44 00 00       	nop    DWORD PTR [rax+rax*1+0x0]
b6b0:	f3 c3                	repz ret
b6b2:	66 2e 0f 1f 84 00 00 	nop    WORD PTR cs:[rax+rax*1+0x0]
b6b9:	00 00 00
b6bc:	0f 1f 40 00          	nop    DWORD PTR [rax+0x0]

000000000000b6c0 <open_safer>:
b6c0:	48 83 ec 58          	sub    rsp,0x58
b6c4:	48 89 54 24 30       	mov    QWORD PTR [rsp+0x30],rdx
b6c9:	31 d2                	xor    edx,edx
b6cb:	64 48 8b 04 25 28 00 	mov    rax,QWORD PTR fs:0x28
b6d2:	00 00
b6d4:	48 89 44 24 18       	mov    QWORD PTR [rsp+0x18],rax
b6d9:	31 c0                	xor    eax,eax
b6db:	40 f6 c6 40          	test   sil,0x40
b6df:	75 27                	jne    b708 <open_safer+0x48>
b6e1:	31 c0                	xor    eax,eax
b6e3:	e8 e8 75 ff ff       	call   2cd0 <open@plt>
b6e8:	89 c7                	mov    edi,eax
b6ea:	e8 61 42 00 00       	call   f950 <fd_safer>
b6ef:	48 8b 4c 24 18       	mov    rcx,QWORD PTR [rsp+0x18]
b6f4:	64 48 33 0c 25 28 00 	xor    rcx,QWORD PTR fs:0x28
b6fb:	00 00
b6fd:	75 2a                	jne    b729 <open_safer+0x69>
b6ff:	48 83 c4 58          	add    rsp,0x58
b703:	c3                   	ret
b704:	0f 1f 40 00          	nop    DWORD PTR [rax+0x0]
b708:	48 8d 44 24 60       	lea    rax,[rsp+0x60]
b70d:	c7 04 24 10 00 00 00 	mov    DWORD PTR [rsp],0x10
b714:	8b 54 24 30          	mov    edx,DWORD PTR [rsp+0x30]
b718:	48 89 44 24 08       	mov    QWORD PTR [rsp+0x8],rax
b71d:	48 8d 44 24 20       	lea    rax,[rsp+0x20]
b722:	48 89 44 24 10       	mov    QWORD PTR [rsp+0x10],rax
b727:	eb b8                	jmp    b6e1 <open_safer+0x21>
b729:	e8 02 72 ff ff       	call   2930 <__stack_chk_fail@plt>
b72e:	66 90                	xchg   ax,ax

000000000000b730 <record_file>:
b730:	48 85 ff             	test   rdi,rdi
b733:	74 7b                	je     b7b0 <record_file+0x80>
b735:	41 55                	push   r13
b737:	41 54                	push   r12
b739:	49 89 fd             	mov    r13,rdi
b73c:	55                   	push   rbp
b73d:	53                   	push   rbx
b73e:	49 89 f4             	mov    r12,rsi
b741:	bf 18 00 00 00       	mov    edi,0x18
b746:	48 89 d5             	mov    rbp,rdx
b749:	48 83 ec 08          	sub    rsp,0x8
b74d:	e8 ce 58 00 00       	call   11020 <xmalloc>
b752:	4c 89 e7             	mov    rdi,r12
b755:	48 89 c3             	mov    rbx,rax
b758:	e8 f3 5a 00 00       	call   11250 <xstrdup>
b75d:	48 89 03             	mov    QWORD PTR [rbx],rax
b760:	48 8b 45 08          	mov    rax,QWORD PTR [rbp+0x8]
b764:	48 89 de             	mov    rsi,rbx
b767:	4c 89 ef             	mov    rdi,r13
b76a:	48 89 43 08          	mov    QWORD PTR [rbx+0x8],rax
b76e:	48 8b 45 00          	mov    rax,QWORD PTR [rbp+0x0]
b772:	48 89 43 10          	mov    QWORD PTR [rbx+0x10],rax
b776:	e8 55 14 00 00       	call   cbd0 <hash_insert>
b77b:	48 85 c0             	test   rax,rax
b77e:	74 32                	je     b7b2 <record_file+0x82>
b780:	48 39 c3             	cmp    rbx,rax
b783:	74 1b                	je     b7a0 <record_file+0x70>
b785:	48 83 c4 08          	add    rsp,0x8
b789:	48 89 df             	mov    rdi,rbx
b78c:	5b                   	pop    rbx
b78d:	5d                   	pop    rbp
b78e:	41 5c                	pop    r12
b790:	41 5d                	pop    r13
b792:	e9 59 17 00 00       	jmp    cef0 <triple_free>
b797:	66 0f 1f 84 00 00 00 	nop    WORD PTR [rax+rax*1+0x0]
b79e:	00 00
b7a0:	48 83 c4 08          	add    rsp,0x8
b7a4:	5b                   	pop    rbx
b7a5:	5d                   	pop    rbp
b7a6:	41 5c                	pop    r12
b7a8:	41 5d                	pop    r13
b7aa:	c3                   	ret
b7ab:	0f 1f 44 00 00       	nop    DWORD PTR [rax+rax*1+0x0]
b7b0:	f3 c3                	repz ret
b7b2:	e8 b9 5a 00 00       	call   11270 <xalloc_die>
b7b7:	66 0f 1f 84 00 00 00 	nop    WORD PTR [rax+rax*1+0x0]
b7be:	00 00

000000000000b7c0 <seen_file>:
b7c0:	48 83 ec 28          	sub    rsp,0x28
b7c4:	64 48 8b 04 25 28 00 	mov    rax,QWORD PTR fs:0x28
b7cb:	00 00
b7cd:	48 89 44 24 18       	mov    QWORD PTR [rsp+0x18],rax
b7d2:	31 c0                	xor    eax,eax
b7d4:	48 85 ff             	test   rdi,rdi
b7d7:	74 23                	je     b7fc <seen_file+0x3c>
b7d9:	48 8b 42 08          	mov    rax,QWORD PTR [rdx+0x8]
b7dd:	48 89 34 24          	mov    QWORD PTR [rsp],rsi
b7e1:	48 89 e6             	mov    rsi,rsp
b7e4:	48 89 44 24 08       	mov    QWORD PTR [rsp+0x8],rax
b7e9:	48 8b 02             	mov    rax,QWORD PTR [rdx]
b7ec:	48 89 44 24 10       	mov    QWORD PTR [rsp+0x10],rax
b7f1:	e8 6a 09 00 00       	call   c160 <hash_lookup>
b7f6:	48 85 c0             	test   rax,rax
b7f9:	0f 95 c0             	setne  al
b7fc:	48 8b 4c 24 18       	mov    rcx,QWORD PTR [rsp+0x18]
b801:	64 48 33 0c 25 28 00 	xor    rcx,QWORD PTR fs:0x28
b808:	00 00
b80a:	75 05                	jne    b811 <seen_file+0x51>
b80c:	48 83 c4 28          	add    rsp,0x28
b810:	c3                   	ret
b811:	e8 1a 71 ff ff       	call   2930 <__stack_chk_fail@plt>
b816:	66 2e 0f 1f 84 00 00 	nop    WORD PTR cs:[rax+rax*1+0x0]
b81d:	00 00 00

000000000000b820 <strmode>:
b820:	89 fa                	mov    edx,edi
b822:	b8 2d 00 00 00       	mov    eax,0x2d
b827:	81 e2 00 f0 00 00    	and    edx,0xf000
b82d:	81 fa 00 80 00 00    	cmp    edx,0x8000
b833:	74 5b                	je     b890 <strmode+0x70>
b835:	81 fa 00 40 00 00    	cmp    edx,0x4000
b83b:	b8 64 00 00 00       	mov    eax,0x64
b840:	74 4e                	je     b890 <strmode+0x70>
b842:	81 fa 00 60 00 00    	cmp    edx,0x6000
b848:	b8 62 00 00 00       	mov    eax,0x62
b84d:	74 41                	je     b890 <strmode+0x70>
b84f:	81 fa 00 20 00 00    	cmp    edx,0x2000
b855:	b8 63 00 00 00       	mov    eax,0x63
b85a:	74 34                	je     b890 <strmode+0x70>
b85c:	81 fa 00 a0 00 00    	cmp    edx,0xa000
b862:	b8 6c 00 00 00       	mov    eax,0x6c
b867:	74 27                	je     b890 <strmode+0x70>
b869:	81 fa 00 10 00 00    	cmp    edx,0x1000
b86f:	b8 70 00 00 00       	mov    eax,0x70
b874:	74 1a                	je     b890 <strmode+0x70>
b876:	81 fa 00 c0 00 00    	cmp    edx,0xc000
b87c:	b8 73 00 00 00       	mov    eax,0x73
b881:	ba 3f 00 00 00       	mov    edx,0x3f
b886:	0f 45 c2             	cmovne eax,edx
b889:	0f 1f 80 00 00 00 00 	nop    DWORD PTR [rax+0x0]
b890:	88 06                	mov    BYTE PTR [rsi],al
b892:	89 f8                	mov    eax,edi
b894:	25 00 01 00 00       	and    eax,0x100
b899:	83 f8 01             	cmp    eax,0x1
b89c:	19 c0                	sbb    eax,eax
b89e:	83 e0 bb             	and    eax,0xffffffbb
b8a1:	83 c0 72             	add    eax,0x72
b8a4:	88 46 01             	mov    BYTE PTR [rsi+0x1],al
b8a7:	89 f8                	mov    eax,edi
b8a9:	25 80 00 00 00       	and    eax,0x80
b8ae:	83 f8 01             	cmp    eax,0x1
b8b1:	19 c0                	sbb    eax,eax
b8b3:	83 e0 b6             	and    eax,0xffffffb6
b8b6:	83 c0 77             	add    eax,0x77
b8b9:	88 46 02             	mov    BYTE PTR [rsi+0x2],al
b8bc:	89 f8                	mov    eax,edi
b8be:	83 e0 40             	and    eax,0x40
b8c1:	83 f8 01             	cmp    eax,0x1
b8c4:	19 c0                	sbb    eax,eax
b8c6:	f7 c7 00 08 00 00    	test   edi,0x800
b8cc:	0f 84 9e 00 00 00    	je     b970 <strmode+0x150>
b8d2:	83 e0 e0             	and    eax,0xffffffe0
b8d5:	83 c0 73             	add    eax,0x73
b8d8:	88 46 03             	mov    BYTE PTR [rsi+0x3],al
b8db:	89 f8                	mov    eax,edi
b8dd:	83 e0 20             	and    eax,0x20
b8e0:	83 f8 01             	cmp    eax,0x1
b8e3:	19 c0                	sbb    eax,eax
b8e5:	83 e0 bb             	and    eax,0xffffffbb
b8e8:	83 c0 72             	add    eax,0x72
b8eb:	88 46 04             	mov    BYTE PTR [rsi+0x4],al
b8ee:	89 f8                	mov    eax,edi
b8f0:	83 e0 10             	and    eax,0x10
b8f3:	83 f8 01             	cmp    eax,0x1
b8f6:	19 c0                	sbb    eax,eax
b8f8:	83 e0 b6             	and    eax,0xffffffb6
b8fb:	83 c0 77             	add    eax,0x77
b8fe:	88 46 05             	mov    BYTE PTR [rsi+0x5],al
b901:	89 f8                	mov    eax,edi
b903:	83 e0 08             	and    eax,0x8
b906:	83 f8 01             	cmp    eax,0x1
b909:	19 c0                	sbb    eax,eax
b90b:	f7 c7 00 04 00 00    	test   edi,0x400
b911:	0f 84 81 00 00 00    	je     b998 <strmode+0x178>
b917:	83 e0 e0             	and    eax,0xffffffe0
b91a:	83 c0 73             	add    eax,0x73
b91d:	88 46 06             	mov    BYTE PTR [rsi+0x6],al
b920:	89 f8                	mov    eax,edi
b922:	83 e0 04             	and    eax,0x4
b925:	83 f8 01             	cmp    eax,0x1
b928:	19 c0                	sbb    eax,eax
b92a:	83 e0 bb             	and    eax,0xffffffbb
b92d:	83 c0 72             	add    eax,0x72
b930:	88 46 07             	mov    BYTE PTR [rsi+0x7],al
b933:	89 f8                	mov    eax,edi
b935:	83 e0 02             	and    eax,0x2
b938:	83 f8 01             	cmp    eax,0x1
b93b:	19 c0                	sbb    eax,eax
b93d:	83 e0 b6             	and    eax,0xffffffb6
b940:	83 c0 77             	add    eax,0x77
b943:	88 46 08             	mov    BYTE PTR [rsi+0x8],al
b946:	89 f8                	mov    eax,edi
b948:	83 e0 01             	and    eax,0x1
b94b:	83 f8 01             	cmp    eax,0x1
b94e:	19 c0                	sbb    eax,eax
b950:	81 e7 00 02 00 00    	and    edi,0x200
b956:	74 28                	je     b980 <strmode+0x160>
b958:	83 e0 e0             	and    eax,0xffffffe0
b95b:	83 c0 74             	add    eax,0x74
b95e:	88 46 09             	mov    BYTE PTR [rsi+0x9],al
b961:	b8 20 00 00 00       	mov    eax,0x20
b966:	66 89 46 0a          	mov    WORD PTR [rsi+0xa],ax
b96a:	c3                   	ret
b96b:	0f 1f 44 00 00       	nop    DWORD PTR [rax+rax*1+0x0]
b970:	83 e0 b5             	and    eax,0xffffffb5
b973:	83 c0 78             	add    eax,0x78
b976:	e9 5d ff ff ff       	jmp    b8d8 <strmode+0xb8>
b97b:	0f 1f 44 00 00       	nop    DWORD PTR [rax+rax*1+0x0]
b980:	83 e0 b5             	and    eax,0xffffffb5
b983:	83 c0 78             	add    eax,0x78
b986:	88 46 09             	mov    BYTE PTR [rsi+0x9],al
b989:	b8 20 00 00 00       	mov    eax,0x20
b98e:	66 89 46 0a          	mov    WORD PTR [rsi+0xa],ax
b992:	c3                   	ret
b993:	0f 1f 44 00 00       	nop    DWORD PTR [rax+rax*1+0x0]
b998:	83 e0 b5             	and    eax,0xffffffb5
b99b:	83 c0 78             	add    eax,0x78
b99e:	e9 7a ff ff ff       	jmp    b91d <strmode+0xfd>
b9a3:	0f 1f 00             	nop    DWORD PTR [rax]
b9a6:	66 2e 0f 1f 84 00 00 	nop    WORD PTR cs:[rax+rax*1+0x0]
b9ad:	00 00 00

000000000000b9b0 <filemodestring>:
b9b0:	8b 7f 18             	mov    edi,DWORD PTR [rdi+0x18]
b9b3:	e9 68 fe ff ff       	jmp    b820 <strmode>
b9b8:	0f 1f 84 00 00 00 00 	nop    DWORD PTR [rax+rax*1+0x0]
b9bf:	00

000000000000b9c0 <file_name_concat>:
b9c0:	48 83 ec 08          	sub    rsp,0x8
b9c4:	e8 17 00 00 00       	call   b9e0 <mfile_name_concat>
b9c9:	48 85 c0             	test   rax,rax
b9cc:	74 05                	je     b9d3 <file_name_concat+0x13>
b9ce:	48 83 c4 08          	add    rsp,0x8
b9d2:	c3                   	ret
b9d3:	e8 98 58 00 00       	call   11270 <xalloc_die>
b9d8:	0f 1f 84 00 00 00 00 	nop    DWORD PTR [rax+rax*1+0x0]
b9df:	00

000000000000b9e0 <mfile_name_concat>:
b9e0:	41 57                	push   r15
b9e2:	41 56                	push   r14
b9e4:	49 89 d7             	mov    r15,rdx
b9e7:	41 55                	push   r13
b9e9:	41 54                	push   r12
b9eb:	49 89 fc             	mov    r12,rdi
b9ee:	55                   	push   rbp
b9ef:	53                   	push   rbx
b9f0:	48 89 f5             	mov    rbp,rsi
b9f3:	48 83 ec 18          	sub    rsp,0x18
b9f7:	e8 94 fb ff ff       	call   b590 <last_component>
b9fc:	48 89 c3             	mov    rbx,rax
b9ff:	48 89 c7             	mov    rdi,rax
ba02:	e8 e9 fb ff ff       	call   b5f0 <base_len>
ba07:	4c 29 e3             	sub    rbx,r12
ba0a:	49 89 c5             	mov    r13,rax
ba0d:	48 89 ef             	mov    rdi,rbp
ba10:	48 01 c3             	add    rbx,rax
ba13:	e8 e8 6e ff ff       	call   2900 <strlen@plt>
ba18:	4d 85 ed             	test   r13,r13
ba1b:	49 89 c6             	mov    r14,rax
ba1e:	74 30                	je     ba50 <mfile_name_concat+0x70>
ba20:	41 80 7c 1c ff 2f    	cmp    BYTE PTR [r12+rbx*1-0x1],0x2f
ba26:	0f 84 a4 00 00 00    	je     bad0 <mfile_name_concat+0xf0>
ba2c:	31 c0                	xor    eax,eax
ba2e:	80 7d 00 2f          	cmp    BYTE PTR [rbp+0x0],0x2f
ba32:	ba 00 00 00 00       	mov    edx,0x0
ba37:	0f 95 c0             	setne  al
ba3a:	48 89 04 24          	mov    QWORD PTR [rsp],rax
ba3e:	b8 2f 00 00 00       	mov    eax,0x2f
ba43:	0f 44 c2             	cmove  eax,edx
ba46:	88 44 24 0f          	mov    BYTE PTR [rsp+0xf],al
ba4a:	eb 22                	jmp    ba6e <mfile_name_concat+0x8e>
ba4c:	0f 1f 40 00          	nop    DWORD PTR [rax+0x0]
ba50:	31 c0                	xor    eax,eax
ba52:	80 7d 00 2f          	cmp    BYTE PTR [rbp+0x0],0x2f
ba56:	ba 00 00 00 00       	mov    edx,0x0
ba5b:	0f 94 c0             	sete   al
ba5e:	48 89 04 24          	mov    QWORD PTR [rsp],rax
ba62:	b8 2e 00 00 00       	mov    eax,0x2e
ba67:	0f 45 c2             	cmovne eax,edx
ba6a:	88 44 24 0f          	mov    BYTE PTR [rsp+0xf],al
ba6e:	4a 8d 7c 33 01       	lea    rdi,[rbx+r14*1+0x1]
ba73:	48 03 3c 24          	add    rdi,QWORD PTR [rsp]
ba77:	e8 44 71 ff ff       	call   2bc0 <malloc@plt>
ba7c:	48 85 c0             	test   rax,rax
ba7f:	49 89 c5             	mov    r13,rax
ba82:	74 32                	je     bab6 <mfile_name_concat+0xd6>
ba84:	48 89 c7             	mov    rdi,rax
ba87:	48 89 da             	mov    rdx,rbx
ba8a:	4c 89 e6             	mov    rsi,r12
ba8d:	e8 0e 72 ff ff       	call   2ca0 <mempcpy@plt>
ba92:	0f b6 4c 24 0f       	movzx  ecx,BYTE PTR [rsp+0xf]
ba97:	48 8b 3c 24          	mov    rdi,QWORD PTR [rsp]
ba9b:	48 01 c7             	add    rdi,rax
ba9e:	4d 85 ff             	test   r15,r15
baa1:	88 08                	mov    BYTE PTR [rax],cl
baa3:	74 03                	je     baa8 <mfile_name_concat+0xc8>
baa5:	49 89 3f             	mov    QWORD PTR [r15],rdi
baa8:	4c 89 f2             	mov    rdx,r14
baab:	48 89 ee             	mov    rsi,rbp
baae:	e8 ed 71 ff ff       	call   2ca0 <mempcpy@plt>
bab3:	c6 00 00             	mov    BYTE PTR [rax],0x0
bab6:	48 83 c4 18          	add    rsp,0x18
baba:	4c 89 e8             	mov    rax,r13
babd:	5b                   	pop    rbx
babe:	5d                   	pop    rbp
babf:	41 5c                	pop    r12
bac1:	41 5d                	pop    r13
bac3:	41 5e                	pop    r14
bac5:	41 5f                	pop    r15
bac7:	c3                   	ret
bac8:	0f 1f 84 00 00 00 00 	nop    DWORD PTR [rax+rax*1+0x0]
bacf:	00
bad0:	48 c7 04 24 00 00 00 	mov    QWORD PTR [rsp],0x0
bad7:	00
bad8:	c6 44 24 0f 00       	mov    BYTE PTR [rsp+0xf],0x0
badd:	eb 8f                	jmp    ba6e <mfile_name_concat+0x8e>
badf:	90                   	nop

000000000000bae0 <full_write>:
bae0:	41 55                	push   r13
bae2:	41 54                	push   r12
bae4:	55                   	push   rbp
bae5:	53                   	push   rbx
bae6:	48 83 ec 08          	sub    rsp,0x8
baea:	48 85 d2             	test   rdx,rdx
baed:	74 62                	je     bb51 <full_write+0x71>
baef:	41 89 fd             	mov    r13d,edi
baf2:	48 89 f5             	mov    rbp,rsi
baf5:	48 89 d3             	mov    rbx,rdx
baf8:	45 31 e4             	xor    r12d,r12d
bafb:	eb 13                	jmp    bb10 <full_write+0x30>
bafd:	0f 1f 00             	nop    DWORD PTR [rax]
bb00:	48 85 c0             	test   rax,rax
bb03:	74 33                	je     bb38 <full_write+0x58>
bb05:	49 01 c4             	add    r12,rax
bb08:	48 01 c5             	add    rbp,rax
bb0b:	48 29 c3             	sub    rbx,rax
bb0e:	74 14                	je     bb24 <full_write+0x44>
bb10:	48 89 da             	mov    rdx,rbx
bb13:	48 89 ee             	mov    rsi,rbp
bb16:	44 89 ef             	mov    edi,r13d
bb19:	e8 f2 34 00 00       	call   f010 <safe_write>
bb1e:	48 83 f8 ff          	cmp    rax,0xffffffffffffffff
bb22:	75 dc                	jne    bb00 <full_write+0x20>
bb24:	48 83 c4 08          	add    rsp,0x8
bb28:	4c 89 e0             	mov    rax,r12
bb2b:	5b                   	pop    rbx
bb2c:	5d                   	pop    rbp
bb2d:	41 5c                	pop    r12
bb2f:	41 5d                	pop    r13
bb31:	c3                   	ret
bb32:	66 0f 1f 44 00 00    	nop    WORD PTR [rax+rax*1+0x0]
bb38:	e8 33 6c ff ff       	call   2770 <__errno_location@plt>
bb3d:	c7 00 1c 00 00 00    	mov    DWORD PTR [rax],0x1c
bb43:	48 83 c4 08          	add    rsp,0x8
bb47:	4c 89 e0             	mov    rax,r12
bb4a:	5b                   	pop    rbx
bb4b:	5d                   	pop    rbp
bb4c:	41 5c                	pop    r12
bb4e:	41 5d                	pop    r13
bb50:	c3                   	ret
bb51:	45 31 e4             	xor    r12d,r12d
bb54:	eb ce                	jmp    bb24 <full_write+0x44>
bb56:	66 2e 0f 1f 84 00 00 	nop    WORD PTR cs:[rax+rax*1+0x0]
bb5d:	00 00 00

000000000000bb60 <next_prime>:
bb60:	48 83 ff 0a          	cmp    rdi,0xa
bb64:	b8 0a 00 00 00       	mov    eax,0xa
bb69:	49 b9 ab aa aa aa aa 	movabs r9,0xaaaaaaaaaaaaaaab
bb70:	aa aa aa
bb73:	48 0f 42 f8          	cmovb  rdi,rax
bb77:	48 83 cf 01          	or     rdi,0x1
bb7b:	48 83 ff ff          	cmp    rdi,0xffffffffffffffff
bb7f:	74 6e                	je     bbef <next_prime+0x8f>
bb81:	0f 1f 80 00 00 00 00 	nop    DWORD PTR [rax+0x0]
bb88:	48 89 f8             	mov    rax,rdi
bb8b:	48 89 f9             	mov    rcx,rdi
bb8e:	49 f7 e1             	mul    r9
bb91:	48 89 d0             	mov    rax,rdx
bb94:	48 d1 e8             	shr    rax,1
bb97:	48 8d 04 40          	lea    rax,[rax+rax*2]
bb9b:	48 29 c1             	sub    rcx,rax
bb9e:	48 83 ff 09          	cmp    rdi,0x9
bba2:	48 89 c8             	mov    rax,rcx
bba5:	76 39                	jbe    bbe0 <next_prime+0x80>
bba7:	48 85 c9             	test   rcx,rcx
bbaa:	74 39                	je     bbe5 <next_prime+0x85>
bbac:	41 b8 10 00 00 00    	mov    r8d,0x10
bbb2:	be 09 00 00 00       	mov    esi,0x9
bbb7:	b9 03 00 00 00       	mov    ecx,0x3
bbbc:	eb 0b                	jmp    bbc9 <next_prime+0x69>
bbbe:	66 90                	xchg   ax,ax
bbc0:	49 83 c0 08          	add    r8,0x8
bbc4:	48 85 d2             	test   rdx,rdx
bbc7:	74 1c                	je     bbe5 <next_prime+0x85>
bbc9:	48 83 c1 02          	add    rcx,0x2
bbcd:	31 d2                	xor    edx,edx
bbcf:	48 89 f8             	mov    rax,rdi
bbd2:	48 f7 f1             	div    rcx
bbd5:	4c 01 c6             	add    rsi,r8
bbd8:	48 39 fe             	cmp    rsi,rdi
bbdb:	48 89 d0             	mov    rax,rdx
bbde:	72 e0                	jb     bbc0 <next_prime+0x60>
bbe0:	48 85 c0             	test   rax,rax
bbe3:	75 0a                	jne    bbef <next_prime+0x8f>
bbe5:	48 83 c7 02          	add    rdi,0x2
bbe9:	48 83 ff ff          	cmp    rdi,0xffffffffffffffff
bbed:	75 99                	jne    bb88 <next_prime+0x28>
bbef:	48 89 f8             	mov    rax,rdi
bbf2:	c3                   	ret
bbf3:	0f 1f 00             	nop    DWORD PTR [rax]
bbf6:	66 2e 0f 1f 84 00 00 	nop    WORD PTR cs:[rax+rax*1+0x0]
bbfd:	00 00 00

000000000000bc00 <raw_hasher>:
bc00:	48 89 f8             	mov    rax,rdi
bc03:	31 d2                	xor    edx,edx
bc05:	48 c1 c8 03          	ror    rax,0x3
bc09:	48 f7 f6             	div    rsi
bc0c:	48 89 d0             	mov    rax,rdx
bc0f:	c3                   	ret

000000000000bc10 <raw_comparator>:
bc10:	48 39 f7             	cmp    rdi,rsi
bc13:	0f 94 c0             	sete   al
bc16:	c3                   	ret
bc17:	66 0f 1f 84 00 00 00 	nop    WORD PTR [rax+rax*1+0x0]
bc1e:	00 00

000000000000bc20 <safe_hasher>:
bc20:	53                   	push   rbx
bc21:	48 89 fb             	mov    rbx,rdi
bc24:	48 89 f7             	mov    rdi,rsi
bc27:	48 8b 73 10          	mov    rsi,QWORD PTR [rbx+0x10]
bc2b:	ff 53 30             	call   QWORD PTR [rbx+0x30]
bc2e:	48 39 43 10          	cmp    QWORD PTR [rbx+0x10],rax
bc32:	76 09                	jbe    bc3d <safe_hasher+0x1d>
bc34:	48 c1 e0 04          	shl    rax,0x4
bc38:	48 03 03             	add    rax,QWORD PTR [rbx]
bc3b:	5b                   	pop    rbx
bc3c:	c3                   	ret
bc3d:	e8 1e 6b ff ff       	call   2760 <abort@plt>
bc42:	0f 1f 40 00          	nop    DWORD PTR [rax+0x0]
bc46:	66 2e 0f 1f 84 00 00 	nop    WORD PTR cs:[rax+rax*1+0x0]
bc4d:	00 00 00

000000000000bc50 <hash_find_entry>:
bc50:	41 56                	push   r14
bc52:	41 55                	push   r13
bc54:	49 89 d6             	mov    r14,rdx
bc57:	41 54                	push   r12
bc59:	55                   	push   rbp
bc5a:	49 89 fc             	mov    r12,rdi
bc5d:	53                   	push   rbx
bc5e:	48 89 f5             	mov    rbp,rsi
bc61:	41 89 cd             	mov    r13d,ecx
bc64:	e8 b7 ff ff ff       	call   bc20 <safe_hasher>
bc69:	49 89 06             	mov    QWORD PTR [r14],rax
bc6c:	48 8b 30             	mov    rsi,QWORD PTR [rax]
bc6f:	48 85 f6             	test   rsi,rsi
bc72:	0f 84 e8 00 00 00    	je     bd60 <hash_find_entry+0x110>
bc78:	48 39 ee             	cmp    rsi,rbp
bc7b:	48 89 c3             	mov    rbx,rax
bc7e:	0f 84 8f 00 00 00    	je     bd13 <hash_find_entry+0xc3>
bc84:	48 89 ef             	mov    rdi,rbp
bc87:	41 ff 54 24 38       	call   QWORD PTR [r12+0x38]
bc8c:	84 c0                	test   al,al
bc8e:	0f 85 7c 00 00 00    	jne    bd10 <hash_find_entry+0xc0>
bc94:	48 8b 43 08          	mov    rax,QWORD PTR [rbx+0x8]
bc98:	48 85 c0             	test   rax,rax
bc9b:	0f 84 bf 00 00 00    	je     bd60 <hash_find_entry+0x110>
bca1:	48 8b 30             	mov    rsi,QWORD PTR [rax]
bca4:	48 39 f5             	cmp    rbp,rsi
bca7:	75 20                	jne    bcc9 <hash_find_entry+0x79>
bca9:	eb 31                	jmp    bcdc <hash_find_entry+0x8c>
bcab:	0f 1f 44 00 00       	nop    DWORD PTR [rax+rax*1+0x0]
bcb0:	48 8b 5b 08          	mov    rbx,QWORD PTR [rbx+0x8]
bcb4:	48 8b 43 08          	mov    rax,QWORD PTR [rbx+0x8]
bcb8:	48 85 c0             	test   rax,rax
bcbb:	0f 84 9f 00 00 00    	je     bd60 <hash_find_entry+0x110>
bcc1:	48 8b 30             	mov    rsi,QWORD PTR [rax]
bcc4:	48 39 ee             	cmp    rsi,rbp
bcc7:	74 13                	je     bcdc <hash_find_entry+0x8c>
bcc9:	48 89 ef             	mov    rdi,rbp
bccc:	41 ff 54 24 38       	call   QWORD PTR [r12+0x38]
bcd1:	84 c0                	test   al,al
bcd3:	74 db                	je     bcb0 <hash_find_entry+0x60>
bcd5:	48 8b 43 08          	mov    rax,QWORD PTR [rbx+0x8]
bcd9:	48 8b 30             	mov    rsi,QWORD PTR [rax]
bcdc:	45 84 ed             	test   r13b,r13b
bcdf:	74 1d                	je     bcfe <hash_find_entry+0xae>
bce1:	48 8b 50 08          	mov    rdx,QWORD PTR [rax+0x8]
bce5:	48 89 53 08          	mov    QWORD PTR [rbx+0x8],rdx
bce9:	48 c7 00 00 00 00 00 	mov    QWORD PTR [rax],0x0
bcf0:	49 8b 54 24 48       	mov    rdx,QWORD PTR [r12+0x48]
bcf5:	48 89 50 08          	mov    QWORD PTR [rax+0x8],rdx
bcf9:	49 89 44 24 48       	mov    QWORD PTR [r12+0x48],rax
bcfe:	5b                   	pop    rbx
bcff:	48 89 f0             	mov    rax,rsi
bd02:	5d                   	pop    rbp
bd03:	41 5c                	pop    r12
bd05:	41 5d                	pop    r13
bd07:	41 5e                	pop    r14
bd09:	c3                   	ret
bd0a:	66 0f 1f 44 00 00    	nop    WORD PTR [rax+rax*1+0x0]
bd10:	48 8b 33             	mov    rsi,QWORD PTR [rbx]
bd13:	45 84 ed             	test   r13b,r13b
bd16:	74 e6                	je     bcfe <hash_find_entry+0xae>
bd18:	48 8b 43 08          	mov    rax,QWORD PTR [rbx+0x8]
bd1c:	48 85 c0             	test   rax,rax
bd1f:	74 2f                	je     bd50 <hash_find_entry+0x100>
bd21:	f3 0f 6f 00          	movdqu xmm0,XMMWORD PTR [rax]
bd25:	0f 11 03             	movups XMMWORD PTR [rbx],xmm0
bd28:	48 c7 00 00 00 00 00 	mov    QWORD PTR [rax],0x0
bd2f:	49 8b 54 24 48       	mov    rdx,QWORD PTR [r12+0x48]
bd34:	48 89 50 08          	mov    QWORD PTR [rax+0x8],rdx
bd38:	49 89 44 24 48       	mov    QWORD PTR [r12+0x48],rax
bd3d:	48 89 f0             	mov    rax,rsi
bd40:	5b                   	pop    rbx
bd41:	5d                   	pop    rbp
bd42:	41 5c                	pop    r12
bd44:	41 5d                	pop    r13
bd46:	41 5e                	pop    r14
bd48:	c3                   	ret
bd49:	0f 1f 80 00 00 00 00 	nop    DWORD PTR [rax+0x0]
bd50:	48 c7 03 00 00 00 00 	mov    QWORD PTR [rbx],0x0
bd57:	eb a5                	jmp    bcfe <hash_find_entry+0xae>
bd59:	0f 1f 80 00 00 00 00 	nop    DWORD PTR [rax+0x0]
bd60:	31 f6                	xor    esi,esi
bd62:	5b                   	pop    rbx
bd63:	48 89 f0             	mov    rax,rsi
bd66:	5d                   	pop    rbp
bd67:	41 5c                	pop    r12
bd69:	41 5d                	pop    r13
bd6b:	41 5e                	pop    r14
bd6d:	c3                   	ret
bd6e:	66 90                	xchg   ax,ax

000000000000bd70 <check_tuning.isra.0>:
bd70:	48 8b 17             	mov    rdx,QWORD PTR [rdi]
bd73:	48 8d 0d 26 95 00 00 	lea    rcx,[rip+0x9526]        # 152a0 <default_tuning>
bd7a:	b8 01 00 00 00       	mov    eax,0x1
bd7f:	48 39 ca             	cmp    rdx,rcx
bd82:	74 61                	je     bde5 <check_tuning.isra.0+0x75>
bd84:	f3 0f 10 42 08       	movss  xmm0,DWORD PTR [rdx+0x8]
bd89:	0f 2e 05 24 95 00 00 	ucomiss xmm0,DWORD PTR [rip+0x9524]        # 152b4 <default_tuning+0x14>
bd90:	76 4e                	jbe    bde0 <check_tuning.isra.0+0x70>
bd92:	f3 0f 10 0d 1e 95 00 	movss  xmm1,DWORD PTR [rip+0x951e]        # 152b8 <default_tuning+0x18>
bd99:	00
bd9a:	0f 2e c8             	ucomiss xmm1,xmm0
bd9d:	76 41                	jbe    bde0 <check_tuning.isra.0+0x70>
bd9f:	f3 0f 10 4a 0c       	movss  xmm1,DWORD PTR [rdx+0xc]
bda4:	0f 2e 0d 11 95 00 00 	ucomiss xmm1,DWORD PTR [rip+0x9511]        # 152bc <default_tuning+0x1c>
bdab:	76 33                	jbe    bde0 <check_tuning.isra.0+0x70>
bdad:	f3 0f 10 0a          	movss  xmm1,DWORD PTR [rdx]
bdb1:	0f 2e 0d 08 95 00 00 	ucomiss xmm1,DWORD PTR [rip+0x9508]        # 152c0 <default_tuning+0x20>
bdb8:	72 26                	jb     bde0 <check_tuning.isra.0+0x70>
bdba:	f3 0f 58 0d f2 94 00 	addss  xmm1,DWORD PTR [rip+0x94f2]        # 152b4 <default_tuning+0x14>
bdc1:	00
bdc2:	f3 0f 10 52 04       	movss  xmm2,DWORD PTR [rdx+0x4]
bdc7:	0f 2e d1             	ucomiss xmm2,xmm1
bdca:	76 14                	jbe    bde0 <check_tuning.isra.0+0x70>
bdcc:	f3 0f 10 1d f0 94 00 	movss  xmm3,DWORD PTR [rip+0x94f0]        # 152c4 <default_tuning+0x24>
bdd3:	00
bdd4:	0f 2e da             	ucomiss xmm3,xmm2
bdd7:	72 07                	jb     bde0 <check_tuning.isra.0+0x70>
bdd9:	0f 2e c1             	ucomiss xmm0,xmm1
bddc:	77 07                	ja     bde5 <check_tuning.isra.0+0x75>
bdde:	66 90                	xchg   ax,ax
bde0:	48 89 0f             	mov    QWORD PTR [rdi],rcx
bde3:	31 c0                	xor    eax,eax
bde5:	f3 c3                	repz ret
bde7:	66 0f 1f 84 00 00 00 	nop    WORD PTR [rax+rax*1+0x0]
bdee:	00 00

000000000000bdf0 <transfer_entries>:
bdf0:	41 57                	push   r15
bdf2:	41 56                	push   r14
bdf4:	41 55                	push   r13
bdf6:	41 54                	push   r12
bdf8:	55                   	push   rbp
bdf9:	53                   	push   rbx
bdfa:	48 83 ec 08          	sub    rsp,0x8
bdfe:	4c 8b 26             	mov    r12,QWORD PTR [rsi]
be01:	4c 3b 66 08          	cmp    r12,QWORD PTR [rsi+0x8]
be05:	0f 83 dd 00 00 00    	jae    bee8 <transfer_entries+0xf8>
be0b:	48 89 fd             	mov    rbp,rdi
be0e:	49 89 f5             	mov    r13,rsi
be11:	41 89 d6             	mov    r14d,edx
be14:	0f 1f 40 00          	nop    DWORD PTR [rax+0x0]
be18:	4d 8b 3c 24          	mov    r15,QWORD PTR [r12]
be1c:	4d 85 ff             	test   r15,r15
be1f:	0f 84 b5 00 00 00    	je     beda <transfer_entries+0xea>
be25:	49 8b 5c 24 08       	mov    rbx,QWORD PTR [r12+0x8]
be2a:	48 85 db             	test   rbx,rbx
be2d:	75 1d                	jne    be4c <transfer_entries+0x5c>
be2f:	eb 5a                	jmp    be8b <transfer_entries+0x9b>
be31:	0f 1f 80 00 00 00 00 	nop    DWORD PTR [rax+0x0]
be38:	48 8b 48 08          	mov    rcx,QWORD PTR [rax+0x8]
be3c:	48 85 d2             	test   rdx,rdx
be3f:	48 89 4b 08          	mov    QWORD PTR [rbx+0x8],rcx
be43:	48 89 58 08          	mov    QWORD PTR [rax+0x8],rbx
be47:	48 89 d3             	mov    rbx,rdx
be4a:	74 3b                	je     be87 <transfer_entries+0x97>
be4c:	4c 8b 3b             	mov    r15,QWORD PTR [rbx]
be4f:	48 89 ef             	mov    rdi,rbp
be52:	4c 89 fe             	mov    rsi,r15
be55:	e8 c6 fd ff ff       	call   bc20 <safe_hasher>
be5a:	48 83 38 00          	cmp    QWORD PTR [rax],0x0
be5e:	48 8b 53 08          	mov    rdx,QWORD PTR [rbx+0x8]
be62:	75 d4                	jne    be38 <transfer_entries+0x48>
be64:	4c 89 38             	mov    QWORD PTR [rax],r15
be67:	48 83 45 18 01       	add    QWORD PTR [rbp+0x18],0x1
be6c:	48 85 d2             	test   rdx,rdx
be6f:	48 c7 03 00 00 00 00 	mov    QWORD PTR [rbx],0x0
be76:	48 8b 45 48          	mov    rax,QWORD PTR [rbp+0x48]
be7a:	48 89 43 08          	mov    QWORD PTR [rbx+0x8],rax
be7e:	48 89 5d 48          	mov    QWORD PTR [rbp+0x48],rbx
be82:	48 89 d3             	mov    rbx,rdx
be85:	75 c5                	jne    be4c <transfer_entries+0x5c>
be87:	4d 8b 3c 24          	mov    r15,QWORD PTR [r12]
be8b:	45 84 f6             	test   r14b,r14b
be8e:	49 c7 44 24 08 00 00 	mov    QWORD PTR [r12+0x8],0x0
be95:	00 00
be97:	75 41                	jne    beda <transfer_entries+0xea>
be99:	4c 89 fe             	mov    rsi,r15
be9c:	48 89 ef             	mov    rdi,rbp
be9f:	e8 7c fd ff ff       	call   bc20 <safe_hasher>
bea4:	48 83 38 00          	cmp    QWORD PTR [rax],0x0
bea8:	48 89 c3             	mov    rbx,rax
beab:	74 53                	je     bf00 <transfer_entries+0x110>
bead:	48 8b 45 48          	mov    rax,QWORD PTR [rbp+0x48]
beb1:	48 85 c0             	test   rax,rax
beb4:	74 5a                	je     bf10 <transfer_entries+0x120>
beb6:	48 8b 50 08          	mov    rdx,QWORD PTR [rax+0x8]
beba:	48 89 55 48          	mov    QWORD PTR [rbp+0x48],rdx
bebe:	48 8b 53 08          	mov    rdx,QWORD PTR [rbx+0x8]
bec2:	4c 89 38             	mov    QWORD PTR [rax],r15
bec5:	48 89 50 08          	mov    QWORD PTR [rax+0x8],rdx
bec9:	48 89 43 08          	mov    QWORD PTR [rbx+0x8],rax
becd:	49 c7 04 24 00 00 00 	mov    QWORD PTR [r12],0x0
bed4:	00
bed5:	49 83 6d 18 01       	sub    QWORD PTR [r13+0x18],0x1
beda:	49 83 c4 10          	add    r12,0x10
bede:	4d 39 65 08          	cmp    QWORD PTR [r13+0x8],r12
bee2:	0f 87 30 ff ff ff    	ja     be18 <transfer_entries+0x28>
bee8:	48 83 c4 08          	add    rsp,0x8
beec:	b8 01 00 00 00       	mov    eax,0x1
bef1:	5b                   	pop    rbx
bef2:	5d                   	pop    rbp
bef3:	41 5c                	pop    r12
bef5:	41 5d                	pop    r13
bef7:	41 5e                	pop    r14
bef9:	41 5f                	pop    r15
befb:	c3                   	ret
befc:	0f 1f 40 00          	nop    DWORD PTR [rax+0x0]
bf00:	4c 89 38             	mov    QWORD PTR [rax],r15
bf03:	48 83 45 18 01       	add    QWORD PTR [rbp+0x18],0x1
bf08:	eb c3                	jmp    becd <transfer_entries+0xdd>
bf0a:	66 0f 1f 44 00 00    	nop    WORD PTR [rax+rax*1+0x0]
bf10:	bf 10 00 00 00       	mov    edi,0x10
bf15:	e8 a6 6c ff ff       	call   2bc0 <malloc@plt>
bf1a:	48 85 c0             	test   rax,rax
bf1d:	75 9f                	jne    bebe <transfer_entries+0xce>
bf1f:	48 83 c4 08          	add    rsp,0x8
bf23:	31 c0                	xor    eax,eax
bf25:	5b                   	pop    rbx
bf26:	5d                   	pop    rbp
bf27:	41 5c                	pop    r12
bf29:	41 5d                	pop    r13
bf2b:	41 5e                	pop    r14
bf2d:	41 5f                	pop    r15
bf2f:	c3                   	ret

000000000000bf30 <hash_get_n_buckets>:
bf30:	48 8b 47 10          	mov    rax,QWORD PTR [rdi+0x10]
bf34:	c3                   	ret
bf35:	90                   	nop
bf36:	66 2e 0f 1f 84 00 00 	nop    WORD PTR cs:[rax+rax*1+0x0]
bf3d:	00 00 00

000000000000bf40 <hash_get_n_buckets_used>:
bf40:	48 8b 47 18          	mov    rax,QWORD PTR [rdi+0x18]
bf44:	c3                   	ret
bf45:	90                   	nop
bf46:	66 2e 0f 1f 84 00 00 	nop    WORD PTR cs:[rax+rax*1+0x0]
bf4d:	00 00 00

000000000000bf50 <hash_get_n_entries>:
bf50:	48 8b 47 20          	mov    rax,QWORD PTR [rdi+0x20]
bf54:	c3                   	ret
bf55:	90                   	nop
bf56:	66 2e 0f 1f 84 00 00 	nop    WORD PTR cs:[rax+rax*1+0x0]
bf5d:	00 00 00

000000000000bf60 <hash_get_max_bucket_length>:
bf60:	48 8b 37             	mov    rsi,QWORD PTR [rdi]
bf63:	48 8b 7f 08          	mov    rdi,QWORD PTR [rdi+0x8]
bf67:	31 c0                	xor    eax,eax
bf69:	48 39 fe             	cmp    rsi,rdi
bf6c:	73 39                	jae    bfa7 <hash_get_max_bucket_length+0x47>
bf6e:	66 90                	xchg   ax,ax
bf70:	48 83 3e 00          	cmp    QWORD PTR [rsi],0x0
bf74:	74 26                	je     bf9c <hash_get_max_bucket_length+0x3c>
bf76:	48 8b 56 08          	mov    rdx,QWORD PTR [rsi+0x8]
bf7a:	b9 01 00 00 00       	mov    ecx,0x1
bf7f:	48 85 d2             	test   rdx,rdx
bf82:	74 11                	je     bf95 <hash_get_max_bucket_length+0x35>
bf84:	0f 1f 40 00          	nop    DWORD PTR [rax+0x0]
bf88:	48 8b 52 08          	mov    rdx,QWORD PTR [rdx+0x8]
bf8c:	48 83 c1 01          	add    rcx,0x1
bf90:	48 85 d2             	test   rdx,rdx
bf93:	75 f3                	jne    bf88 <hash_get_max_bucket_length+0x28>
bf95:	48 39 c8             	cmp    rax,rcx
bf98:	48 0f 42 c1          	cmovb  rax,rcx
bf9c:	48 83 c6 10          	add    rsi,0x10
bfa0:	48 39 fe             	cmp    rsi,rdi
bfa3:	72 cb                	jb     bf70 <hash_get_max_bucket_length+0x10>
bfa5:	f3 c3                	repz ret
bfa7:	f3 c3                	repz ret
bfa9:	0f 1f 80 00 00 00 00 	nop    DWORD PTR [rax+0x0]

000000000000bfb0 <hash_table_ok>:
bfb0:	48 8b 0f             	mov    rcx,QWORD PTR [rdi]
bfb3:	4c 8b 47 08          	mov    r8,QWORD PTR [rdi+0x8]
bfb7:	31 d2                	xor    edx,edx
bfb9:	31 f6                	xor    esi,esi
bfbb:	4c 39 c1             	cmp    rcx,r8
bfbe:	73 36                	jae    bff6 <hash_table_ok+0x46>
bfc0:	48 83 39 00          	cmp    QWORD PTR [rcx],0x0
bfc4:	74 27                	je     bfed <hash_table_ok+0x3d>
bfc6:	48 8b 41 08          	mov    rax,QWORD PTR [rcx+0x8]
bfca:	48 83 c6 01          	add    rsi,0x1
bfce:	48 83 c2 01          	add    rdx,0x1
bfd2:	48 85 c0             	test   rax,rax
bfd5:	74 16                	je     bfed <hash_table_ok+0x3d>
bfd7:	66 0f 1f 84 00 00 00 	nop    WORD PTR [rax+rax*1+0x0]
bfde:	00 00
bfe0:	48 8b 40 08          	mov    rax,QWORD PTR [rax+0x8]
bfe4:	48 83 c2 01          	add    rdx,0x1
bfe8:	48 85 c0             	test   rax,rax
bfeb:	75 f3                	jne    bfe0 <hash_table_ok+0x30>
bfed:	48 83 c1 10          	add    rcx,0x10
bff1:	4c 39 c1             	cmp    rcx,r8
bff4:	72 ca                	jb     bfc0 <hash_table_ok+0x10>
bff6:	31 c0                	xor    eax,eax
bff8:	48 39 77 18          	cmp    QWORD PTR [rdi+0x18],rsi
bffc:	74 02                	je     c000 <hash_table_ok+0x50>
bffe:	f3 c3                	repz ret
c000:	48 39 57 20          	cmp    QWORD PTR [rdi+0x20],rdx
c004:	0f 94 c0             	sete   al
c007:	c3                   	ret
c008:	0f 1f 84 00 00 00 00 	nop    DWORD PTR [rax+rax*1+0x0]
c00f:	00

000000000000c010 <hash_print_statistics>:
c010:	41 55                	push   r13
c012:	41 54                	push   r12
c014:	49 89 f4             	mov    r12,rsi
c017:	55                   	push   rbp
c018:	53                   	push   rbx
c019:	31 db                	xor    ebx,ebx
c01b:	48 83 ec 08          	sub    rsp,0x8
c01f:	48 8b 37             	mov    rsi,QWORD PTR [rdi]
c022:	48 8b 4f 20          	mov    rcx,QWORD PTR [rdi+0x20]
c026:	48 8b 6f 10          	mov    rbp,QWORD PTR [rdi+0x10]
c02a:	4c 8b 6f 18          	mov    r13,QWORD PTR [rdi+0x18]
c02e:	48 8b 7f 08          	mov    rdi,QWORD PTR [rdi+0x8]
c032:	48 39 fe             	cmp    rsi,rdi
c035:	73 3e                	jae    c075 <hash_print_statistics+0x65>
c037:	66 0f 1f 84 00 00 00 	nop    WORD PTR [rax+rax*1+0x0]
c03e:	00 00
c040:	48 83 3e 00          	cmp    QWORD PTR [rsi],0x0
c044:	74 26                	je     c06c <hash_print_statistics+0x5c>
c046:	48 8b 46 08          	mov    rax,QWORD PTR [rsi+0x8]
c04a:	ba 01 00 00 00       	mov    edx,0x1
c04f:	48 85 c0             	test   rax,rax
c052:	74 11                	je     c065 <hash_print_statistics+0x55>
c054:	0f 1f 40 00          	nop    DWORD PTR [rax+0x0]
c058:	48 8b 40 08          	mov    rax,QWORD PTR [rax+0x8]
c05c:	48 83 c2 01          	add    rdx,0x1
c060:	48 85 c0             	test   rax,rax
c063:	75 f3                	jne    c058 <hash_print_statistics+0x48>
c065:	48 39 d3             	cmp    rbx,rdx
c068:	48 0f 42 da          	cmovb  rbx,rdx
c06c:	48 83 c6 10          	add    rsi,0x10
c070:	48 39 fe             	cmp    rsi,rdi
c073:	72 cb                	jb     c040 <hash_print_statistics+0x30>
c075:	48 8d 15 aa 91 00 00 	lea    rdx,[rip+0x91aa]        # 15226 <backup_types+0x46>
c07c:	be 01 00 00 00       	mov    esi,0x1
c081:	4c 89 e7             	mov    rdi,r12
c084:	31 c0                	xor    eax,eax
c086:	e8 25 6d ff ff       	call   2db0 <__fprintf_chk@plt>
c08b:	48 8d 15 ac 91 00 00 	lea    rdx,[rip+0x91ac]        # 1523e <backup_types+0x5e>
c092:	31 c0                	xor    eax,eax
c094:	48 89 e9             	mov    rcx,rbp
c097:	be 01 00 00 00       	mov    esi,0x1
c09c:	4c 89 e7             	mov    rdi,r12
c09f:	e8 0c 6d ff ff       	call   2db0 <__fprintf_chk@plt>
c0a4:	4d 85 ed             	test   r13,r13
c0a7:	78 67                	js     c110 <hash_print_statistics+0x100>
c0a9:	66 0f ef c0          	pxor   xmm0,xmm0
c0ad:	48 85 ed             	test   rbp,rbp
c0b0:	f2 49 0f 2a c5       	cvtsi2sd xmm0,r13
c0b5:	f2 0f 59 05 1b 92 00 	mulsd  xmm0,QWORD PTR [rip+0x921b]        # 152d8 <default_tuning+0x38>
c0bc:	00
c0bd:	78 7a                	js     c139 <hash_print_statistics+0x129>
c0bf:	66 0f ef c9          	pxor   xmm1,xmm1
c0c3:	f2 48 0f 2a cd       	cvtsi2sd xmm1,rbp
c0c8:	f2 0f 5e c1          	divsd  xmm0,xmm1
c0cc:	48 8d 15 9d 91 00 00 	lea    rdx,[rip+0x919d]        # 15270 <backup_types+0x90>
c0d3:	4c 89 e9             	mov    rcx,r13
c0d6:	4c 89 e7             	mov    rdi,r12
c0d9:	be 01 00 00 00       	mov    esi,0x1
c0de:	b8 01 00 00 00       	mov    eax,0x1
c0e3:	e8 c8 6c ff ff       	call   2db0 <__fprintf_chk@plt>
c0e8:	48 83 c4 08          	add    rsp,0x8
c0ec:	48 89 d9             	mov    rcx,rbx
c0ef:	4c 89 e7             	mov    rdi,r12
c0f2:	5b                   	pop    rbx
c0f3:	5d                   	pop    rbp
c0f4:	41 5c                	pop    r12
c0f6:	41 5d                	pop    r13
c0f8:	48 8d 15 57 91 00 00 	lea    rdx,[rip+0x9157]        # 15256 <backup_types+0x76>
c0ff:	be 01 00 00 00       	mov    esi,0x1
c104:	31 c0                	xor    eax,eax
c106:	e9 a5 6c ff ff       	jmp    2db0 <__fprintf_chk@plt>
c10b:	0f 1f 44 00 00       	nop    DWORD PTR [rax+rax*1+0x0]
c110:	4c 89 e8             	mov    rax,r13
c113:	4c 89 ea             	mov    rdx,r13
c116:	66 0f ef c0          	pxor   xmm0,xmm0
c11a:	48 d1 e8             	shr    rax,1
c11d:	83 e2 01             	and    edx,0x1
c120:	48 09 d0             	or     rax,rdx
c123:	48 85 ed             	test   rbp,rbp
c126:	f2 48 0f 2a c0       	cvtsi2sd xmm0,rax
c12b:	f2 0f 58 c0          	addsd  xmm0,xmm0
c12f:	f2 0f 59 05 a1 91 00 	mulsd  xmm0,QWORD PTR [rip+0x91a1]        # 152d8 <default_tuning+0x38>
c136:	00
c137:	79 86                	jns    c0bf <hash_print_statistics+0xaf>
c139:	48 89 e8             	mov    rax,rbp
c13c:	66 0f ef c9          	pxor   xmm1,xmm1
c140:	48 d1 e8             	shr    rax,1
c143:	83 e5 01             	and    ebp,0x1
c146:	48 09 e8             	or     rax,rbp
c149:	f2 48 0f 2a c8       	cvtsi2sd xmm1,rax
c14e:	f2 0f 58 c9          	addsd  xmm1,xmm1
c152:	e9 71 ff ff ff       	jmp    c0c8 <hash_print_statistics+0xb8>
c157:	66 0f 1f 84 00 00 00 	nop    WORD PTR [rax+rax*1+0x0]
c15e:	00 00

000000000000c160 <hash_lookup>:
c160:	41 54                	push   r12
c162:	55                   	push   rbp
c163:	49 89 fc             	mov    r12,rdi
c166:	53                   	push   rbx
c167:	48 89 f5             	mov    rbp,rsi
c16a:	e8 b1 fa ff ff       	call   bc20 <safe_hasher>
c16f:	48 8b 30             	mov    rsi,QWORD PTR [rax]
c172:	48 85 f6             	test   rsi,rsi
c175:	74 26                	je     c19d <hash_lookup+0x3d>
c177:	48 89 c3             	mov    rbx,rax
c17a:	eb 07                	jmp    c183 <hash_lookup+0x23>
c17c:	0f 1f 40 00          	nop    DWORD PTR [rax+0x0]
c180:	48 8b 33             	mov    rsi,QWORD PTR [rbx]
c183:	48 39 ee             	cmp    rsi,rbp
c186:	74 17                	je     c19f <hash_lookup+0x3f>
c188:	48 89 ef             	mov    rdi,rbp
c18b:	41 ff 54 24 38       	call   QWORD PTR [r12+0x38]
c190:	84 c0                	test   al,al
c192:	75 1c                	jne    c1b0 <hash_lookup+0x50>
c194:	48 8b 5b 08          	mov    rbx,QWORD PTR [rbx+0x8]
c198:	48 85 db             	test   rbx,rbx
c19b:	75 e3                	jne    c180 <hash_lookup+0x20>
c19d:	31 f6                	xor    esi,esi
c19f:	5b                   	pop    rbx
c1a0:	48 89 f0             	mov    rax,rsi
c1a3:	5d                   	pop    rbp
c1a4:	41 5c                	pop    r12
c1a6:	c3                   	ret
c1a7:	66 0f 1f 84 00 00 00 	nop    WORD PTR [rax+rax*1+0x0]
c1ae:	00 00
c1b0:	48 8b 33             	mov    rsi,QWORD PTR [rbx]
c1b3:	5b                   	pop    rbx
c1b4:	5d                   	pop    rbp
c1b5:	48 89 f0             	mov    rax,rsi
c1b8:	41 5c                	pop    r12
c1ba:	c3                   	ret
c1bb:	0f 1f 44 00 00       	nop    DWORD PTR [rax+rax*1+0x0]

000000000000c1c0 <hash_get_first>:
c1c0:	48 83 7f 20 00       	cmp    QWORD PTR [rdi+0x20],0x0
c1c5:	74 2c                	je     c1f3 <hash_get_first+0x33>
c1c7:	48 8b 17             	mov    rdx,QWORD PTR [rdi]
c1ca:	48 8b 4f 08          	mov    rcx,QWORD PTR [rdi+0x8]
c1ce:	48 39 ca             	cmp    rdx,rcx
c1d1:	73 25                	jae    c1f8 <hash_get_first+0x38>
c1d3:	48 8b 02             	mov    rax,QWORD PTR [rdx]
c1d6:	48 85 c0             	test   rax,rax
c1d9:	75 1b                	jne    c1f6 <hash_get_first+0x36>
c1db:	0f 1f 44 00 00       	nop    DWORD PTR [rax+rax*1+0x0]
c1e0:	48 83 c2 10          	add    rdx,0x10
c1e4:	48 39 ca             	cmp    rdx,rcx
c1e7:	73 0f                	jae    c1f8 <hash_get_first+0x38>
c1e9:	48 8b 02             	mov    rax,QWORD PTR [rdx]
c1ec:	48 85 c0             	test   rax,rax
c1ef:	74 ef                	je     c1e0 <hash_get_first+0x20>
c1f1:	f3 c3                	repz ret
c1f3:	31 c0                	xor    eax,eax
c1f5:	c3                   	ret
c1f6:	f3 c3                	repz ret
c1f8:	48 83 ec 08          	sub    rsp,0x8
c1fc:	e8 5f 65 ff ff       	call   2760 <abort@plt>
c201:	0f 1f 44 00 00       	nop    DWORD PTR [rax+rax*1+0x0]
c206:	66 2e 0f 1f 84 00 00 	nop    WORD PTR cs:[rax+rax*1+0x0]
c20d:	00 00 00

000000000000c210 <hash_get_next>:
c210:	55                   	push   rbp
c211:	53                   	push   rbx
c212:	48 89 fd             	mov    rbp,rdi
c215:	48 89 f3             	mov    rbx,rsi
c218:	48 83 ec 08          	sub    rsp,0x8
c21c:	e8 ff f9 ff ff       	call   bc20 <safe_hasher>
c221:	48 89 c2             	mov    rdx,rax
c224:	48 89 c1             	mov    rcx,rax
c227:	48 8b 02             	mov    rax,QWORD PTR [rdx]
c22a:	48 8b 52 08          	mov    rdx,QWORD PTR [rdx+0x8]
c22e:	48 39 d8             	cmp    rax,rbx
c231:	74 16                	je     c249 <hash_get_next+0x39>
c233:	0f 1f 44 00 00       	nop    DWORD PTR [rax+rax*1+0x0]
c238:	48 85 d2             	test   rdx,rdx
c23b:	74 11                	je     c24e <hash_get_next+0x3e>
c23d:	48 8b 02             	mov    rax,QWORD PTR [rdx]
c240:	48 8b 52 08          	mov    rdx,QWORD PTR [rdx+0x8]
c244:	48 39 d8             	cmp    rax,rbx
c247:	75 ef                	jne    c238 <hash_get_next+0x28>
c249:	48 85 d2             	test   rdx,rdx
c24c:	75 2a                	jne    c278 <hash_get_next+0x68>
c24e:	48 8b 55 08          	mov    rdx,QWORD PTR [rbp+0x8]
c252:	eb 0c                	jmp    c260 <hash_get_next+0x50>
c254:	0f 1f 40 00          	nop    DWORD PTR [rax+0x0]
c258:	48 8b 01             	mov    rax,QWORD PTR [rcx]
c25b:	48 85 c0             	test   rax,rax
c25e:	75 0b                	jne    c26b <hash_get_next+0x5b>
c260:	48 83 c1 10          	add    rcx,0x10
c264:	48 39 ca             	cmp    rdx,rcx
c267:	77 ef                	ja     c258 <hash_get_next+0x48>
c269:	31 c0                	xor    eax,eax
c26b:	48 83 c4 08          	add    rsp,0x8
c26f:	5b                   	pop    rbx
c270:	5d                   	pop    rbp
c271:	c3                   	ret
c272:	66 0f 1f 44 00 00    	nop    WORD PTR [rax+rax*1+0x0]
c278:	48 8b 02             	mov    rax,QWORD PTR [rdx]
c27b:	48 83 c4 08          	add    rsp,0x8
c27f:	5b                   	pop    rbx
c280:	5d                   	pop    rbp
c281:	c3                   	ret
c282:	0f 1f 40 00          	nop    DWORD PTR [rax+0x0]
c286:	66 2e 0f 1f 84 00 00 	nop    WORD PTR cs:[rax+rax*1+0x0]
c28d:	00 00 00

000000000000c290 <hash_get_entries>:
c290:	4c 8b 0f             	mov    r9,QWORD PTR [rdi]
c293:	4c 39 4f 08          	cmp    QWORD PTR [rdi+0x8],r9
c297:	76 59                	jbe    c2f2 <hash_get_entries+0x62>
c299:	45 31 c0             	xor    r8d,r8d
c29c:	49 8b 09             	mov    rcx,QWORD PTR [r9]
c29f:	48 85 c9             	test   rcx,rcx
c2a2:	74 39                	je     c2dd <hash_get_entries+0x4d>
c2a4:	4c 39 c2             	cmp    rdx,r8
c2a7:	76 3e                	jbe    c2e7 <hash_get_entries+0x57>
c2a9:	4a 89 0c c6          	mov    QWORD PTR [rsi+r8*8],rcx
c2ad:	49 8b 49 08          	mov    rcx,QWORD PTR [r9+0x8]
c2b1:	49 8d 40 01          	lea    rax,[r8+0x1]
c2b5:	48 85 c9             	test   rcx,rcx
c2b8:	74 20                	je     c2da <hash_get_entries+0x4a>
c2ba:	66 0f 1f 44 00 00    	nop    WORD PTR [rax+rax*1+0x0]
c2c0:	48 39 c2             	cmp    rdx,rax
c2c3:	74 2b                	je     c2f0 <hash_get_entries+0x60>
c2c5:	4c 8b 01             	mov    r8,QWORD PTR [rcx]
c2c8:	48 83 c0 01          	add    rax,0x1
c2cc:	4c 89 44 c6 f8       	mov    QWORD PTR [rsi+rax*8-0x8],r8
c2d1:	48 8b 49 08          	mov    rcx,QWORD PTR [rcx+0x8]
c2d5:	48 85 c9             	test   rcx,rcx
c2d8:	75 e6                	jne    c2c0 <hash_get_entries+0x30>
c2da:	49 89 c0             	mov    r8,rax
c2dd:	49 83 c1 10          	add    r9,0x10
c2e1:	4c 39 4f 08          	cmp    QWORD PTR [rdi+0x8],r9
c2e5:	77 b5                	ja     c29c <hash_get_entries+0xc>
c2e7:	4c 89 c0             	mov    rax,r8
c2ea:	c3                   	ret
c2eb:	0f 1f 44 00 00       	nop    DWORD PTR [rax+rax*1+0x0]
c2f0:	f3 c3                	repz ret
c2f2:	31 c0                	xor    eax,eax
c2f4:	c3                   	ret
c2f5:	90                   	nop
c2f6:	66 2e 0f 1f 84 00 00 	nop    WORD PTR cs:[rax+rax*1+0x0]
c2fd:	00 00 00

000000000000c300 <hash_do_for_each>:
c300:	41 57                	push   r15
c302:	41 56                	push   r14
c304:	41 55                	push   r13
c306:	41 54                	push   r12
c308:	55                   	push   rbp
c309:	53                   	push   rbx
c30a:	48 83 ec 08          	sub    rsp,0x8
c30e:	4c 8b 37             	mov    r14,QWORD PTR [rdi]
c311:	4c 39 77 08          	cmp    QWORD PTR [rdi+0x8],r14
c315:	76 4f                	jbe    c366 <hash_do_for_each+0x66>
c317:	49 89 d5             	mov    r13,rdx
c31a:	49 89 f4             	mov    r12,rsi
c31d:	49 89 ff             	mov    r15,rdi
c320:	31 ed                	xor    ebp,ebp
c322:	49 8b 3e             	mov    rdi,QWORD PTR [r14]
c325:	48 85 ff             	test   rdi,rdi
c328:	74 20                	je     c34a <hash_do_for_each+0x4a>
c32a:	4c 89 f3             	mov    rbx,r14
c32d:	eb 04                	jmp    c333 <hash_do_for_each+0x33>
c32f:	90                   	nop
c330:	48 8b 3b             	mov    rdi,QWORD PTR [rbx]
c333:	4c 89 ee             	mov    rsi,r13
c336:	41 ff d4             	call   r12
c339:	84 c0                	test   al,al
c33b:	74 17                	je     c354 <hash_do_for_each+0x54>
c33d:	48 8b 5b 08          	mov    rbx,QWORD PTR [rbx+0x8]
c341:	48 83 c5 01          	add    rbp,0x1
c345:	48 85 db             	test   rbx,rbx
c348:	75 e6                	jne    c330 <hash_do_for_each+0x30>
c34a:	49 83 c6 10          	add    r14,0x10
c34e:	4d 39 77 08          	cmp    QWORD PTR [r15+0x8],r14
c352:	77 ce                	ja     c322 <hash_do_for_each+0x22>
c354:	48 83 c4 08          	add    rsp,0x8
c358:	48 89 e8             	mov    rax,rbp
c35b:	5b                   	pop    rbx
c35c:	5d                   	pop    rbp
c35d:	41 5c                	pop    r12
c35f:	41 5d                	pop    r13
c361:	41 5e                	pop    r14
c363:	41 5f                	pop    r15
c365:	c3                   	ret
c366:	31 ed                	xor    ebp,ebp
c368:	eb ea                	jmp    c354 <hash_do_for_each+0x54>
c36a:	66 0f 1f 44 00 00    	nop    WORD PTR [rax+rax*1+0x0]

000000000000c370 <hash_string>:
c370:	0f b6 0f             	movzx  ecx,BYTE PTR [rdi]
c373:	31 d2                	xor    edx,edx
c375:	84 c9                	test   cl,cl
c377:	74 24                	je     c39d <hash_string+0x2d>
c379:	0f 1f 80 00 00 00 00 	nop    DWORD PTR [rax+0x0]
c380:	48 89 d0             	mov    rax,rdx
c383:	48 83 c7 01          	add    rdi,0x1
c387:	48 c1 e0 05          	shl    rax,0x5
c38b:	48 29 d0             	sub    rax,rdx
c38e:	31 d2                	xor    edx,edx
c390:	48 01 c8             	add    rax,rcx
c393:	0f b6 0f             	movzx  ecx,BYTE PTR [rdi]
c396:	48 f7 f6             	div    rsi
c399:	84 c9                	test   cl,cl
c39b:	75 e3                	jne    c380 <hash_string+0x10>
c39d:	48 89 d0             	mov    rax,rdx
c3a0:	c3                   	ret
c3a1:	0f 1f 44 00 00       	nop    DWORD PTR [rax+rax*1+0x0]
c3a6:	66 2e 0f 1f 84 00 00 	nop    WORD PTR cs:[rax+rax*1+0x0]
c3ad:	00 00 00

000000000000c3b0 <hash_reset_tuning>:
c3b0:	48 b8 00 00 00 00 00 	movabs rax,0x3f80000000000000
c3b7:	00 80 3f
c3ba:	c6 47 10 00          	mov    BYTE PTR [rdi+0x10],0x0
c3be:	48 89 07             	mov    QWORD PTR [rdi],rax
c3c1:	48 b8 cd cc 4c 3f f4 	movabs rax,0x3fb4fdf43f4ccccd
c3c8:	fd b4 3f
c3cb:	48 89 47 08          	mov    QWORD PTR [rdi+0x8],rax
c3cf:	c3                   	ret

000000000000c3d0 <hash_initialize>:
c3d0:	41 57                	push   r15
c3d2:	41 56                	push   r14
c3d4:	48 8d 05 25 f8 ff ff 	lea    rax,[rip+0xfffffffffffff825]        # bc00 <raw_hasher>
c3db:	41 55                	push   r13
c3dd:	41 54                	push   r12
c3df:	49 89 d4             	mov    r12,rdx
c3e2:	55                   	push   rbp
c3e3:	53                   	push   rbx
c3e4:	49 89 cd             	mov    r13,rcx
c3e7:	48 89 fd             	mov    rbp,rdi
c3ea:	bf 50 00 00 00       	mov    edi,0x50
c3ef:	49 89 f7             	mov    r15,rsi
c3f2:	48 83 ec 08          	sub    rsp,0x8
c3f6:	48 85 d2             	test   rdx,rdx
c3f9:	4d 89 c6             	mov    r14,r8
c3fc:	4c 0f 44 e0          	cmove  r12,rax
c400:	48 8d 05 09 f8 ff ff 	lea    rax,[rip+0xfffffffffffff809]        # bc10 <raw_comparator>
c407:	48 85 c9             	test   rcx,rcx
c40a:	4c 0f 44 e8          	cmove  r13,rax
c40e:	e8 ad 67 ff ff       	call   2bc0 <malloc@plt>
c413:	48 85 c0             	test   rax,rax
c416:	48 89 c3             	mov    rbx,rax
c419:	0f 84 ab 00 00 00    	je     c4ca <hash_initialize+0xfa>
c41f:	4d 85 ff             	test   r15,r15
c422:	48 8d 78 28          	lea    rdi,[rax+0x28]
c426:	0f 84 b4 00 00 00    	je     c4e0 <hash_initialize+0x110>
c42c:	4c 89 78 28          	mov    QWORD PTR [rax+0x28],r15
c430:	e8 3b f9 ff ff       	call   bd70 <check_tuning.isra.0>
c435:	84 c0                	test   al,al
c437:	0f 84 83 00 00 00    	je     c4c0 <hash_initialize+0xf0>
c43d:	41 80 7f 10 00       	cmp    BYTE PTR [r15+0x10],0x0
c442:	0f 84 f8 00 00 00    	je     c540 <hash_initialize+0x170>
c448:	48 89 ef             	mov    rdi,rbp
c44b:	e8 10 f7 ff ff       	call   bb60 <next_prime>
c450:	ba 08 00 00 00       	mov    edx,0x8
c455:	48 89 c5             	mov    rbp,rax
c458:	31 c9                	xor    ecx,ecx
c45a:	48 89 d0             	mov    rax,rdx
c45d:	48 f7 e5             	mul    rbp
c460:	0f 80 14 01 00 00    	jo     c57a <hash_initialize+0x1aa>
c466:	48 85 c0             	test   rax,rax
c469:	78 55                	js     c4c0 <hash_initialize+0xf0>
c46b:	48 85 c9             	test   rcx,rcx
c46e:	75 50                	jne    c4c0 <hash_initialize+0xf0>
c470:	48 85 ed             	test   rbp,rbp
c473:	48 89 6b 10          	mov    QWORD PTR [rbx+0x10],rbp
c477:	74 47                	je     c4c0 <hash_initialize+0xf0>
c479:	be 10 00 00 00       	mov    esi,0x10
c47e:	48 89 ef             	mov    rdi,rbp
c481:	e8 4a 66 ff ff       	call   2ad0 <calloc@plt>
c486:	48 85 c0             	test   rax,rax
c489:	48 89 03             	mov    QWORD PTR [rbx],rax
c48c:	74 32                	je     c4c0 <hash_initialize+0xf0>
c48e:	48 c1 e5 04          	shl    rbp,0x4
c492:	48 c7 43 18 00 00 00 	mov    QWORD PTR [rbx+0x18],0x0
c499:	00
c49a:	48 c7 43 20 00 00 00 	mov    QWORD PTR [rbx+0x20],0x0
c4a1:	00
c4a2:	48 01 c5             	add    rbp,rax
c4a5:	4c 89 63 30          	mov    QWORD PTR [rbx+0x30],r12
c4a9:	4c 89 6b 38          	mov    QWORD PTR [rbx+0x38],r13
c4ad:	48 89 6b 08          	mov    QWORD PTR [rbx+0x8],rbp
c4b1:	4c 89 73 40          	mov    QWORD PTR [rbx+0x40],r14
c4b5:	48 c7 43 48 00 00 00 	mov    QWORD PTR [rbx+0x48],0x0
c4bc:	00
c4bd:	eb 0b                	jmp    c4ca <hash_initialize+0xfa>
c4bf:	90                   	nop
c4c0:	48 89 df             	mov    rdi,rbx
c4c3:	31 db                	xor    ebx,ebx
c4c5:	e8 46 69 ff ff       	call   2e10 <free@plt>
c4ca:	48 83 c4 08          	add    rsp,0x8
c4ce:	48 89 d8             	mov    rax,rbx
c4d1:	5b                   	pop    rbx
c4d2:	5d                   	pop    rbp
c4d3:	41 5c                	pop    r12
c4d5:	41 5d                	pop    r13
c4d7:	41 5e                	pop    r14
c4d9:	41 5f                	pop    r15
c4db:	c3                   	ret
c4dc:	0f 1f 40 00          	nop    DWORD PTR [rax+0x0]
c4e0:	48 8d 05 b9 8d 00 00 	lea    rax,[rip+0x8db9]        # 152a0 <default_tuning>
c4e7:	48 89 43 28          	mov    QWORD PTR [rbx+0x28],rax
c4eb:	e8 80 f8 ff ff       	call   bd70 <check_tuning.isra.0>
c4f0:	84 c0                	test   al,al
c4f2:	f3 0f 10 0d ce 8d 00 	movss  xmm1,DWORD PTR [rip+0x8dce]        # 152c8 <default_tuning+0x28>
c4f9:	00
c4fa:	74 c4                	je     c4c0 <hash_initialize+0xf0>
c4fc:	48 85 ed             	test   rbp,rbp
c4ff:	78 4a                	js     c54b <hash_initialize+0x17b>
c501:	66 0f ef c0          	pxor   xmm0,xmm0
c505:	f3 48 0f 2a c5       	cvtsi2ss xmm0,rbp
c50a:	f3 0f 5e c1          	divss  xmm0,xmm1
c50e:	0f 2e 05 b7 8d 00 00 	ucomiss xmm0,DWORD PTR [rip+0x8db7]        # 152cc <default_tuning+0x2c>
c515:	73 a9                	jae    c4c0 <hash_initialize+0xf0>
c517:	0f 2e 05 b2 8d 00 00 	ucomiss xmm0,DWORD PTR [rip+0x8db2]        # 152d0 <default_tuning+0x30>
c51e:	72 50                	jb     c570 <hash_initialize+0x1a0>
c520:	f3 0f 5c 05 a8 8d 00 	subss  xmm0,DWORD PTR [rip+0x8da8]        # 152d0 <default_tuning+0x30>
c527:	00
c528:	48 b8 00 00 00 00 00 	movabs rax,0x8000000000000000
c52f:	00 00 80
c532:	f3 48 0f 2c e8       	cvttss2si rbp,xmm0
c537:	48 31 c5             	xor    rbp,rax
c53a:	e9 09 ff ff ff       	jmp    c448 <hash_initialize+0x78>
c53f:	90                   	nop
c540:	48 85 ed             	test   rbp,rbp
c543:	f3 41 0f 10 4f 08    	movss  xmm1,DWORD PTR [r15+0x8]
c549:	79 b6                	jns    c501 <hash_initialize+0x131>
c54b:	48 89 e8             	mov    rax,rbp
c54e:	66 0f ef c0          	pxor   xmm0,xmm0
c552:	48 d1 e8             	shr    rax,1
c555:	83 e5 01             	and    ebp,0x1
c558:	48 09 e8             	or     rax,rbp
c55b:	f3 48 0f 2a c0       	cvtsi2ss xmm0,rax
c560:	f3 0f 58 c0          	addss  xmm0,xmm0
c564:	eb a4                	jmp    c50a <hash_initialize+0x13a>
c566:	66 2e 0f 1f 84 00 00 	nop    WORD PTR cs:[rax+rax*1+0x0]
c56d:	00 00 00
c570:	f3 48 0f 2c e8       	cvttss2si rbp,xmm0
c575:	e9 ce fe ff ff       	jmp    c448 <hash_initialize+0x78>
c57a:	b9 01 00 00 00       	mov    ecx,0x1
c57f:	e9 e2 fe ff ff       	jmp    c466 <hash_initialize+0x96>
c584:	66 90                	xchg   ax,ax
c586:	66 2e 0f 1f 84 00 00 	nop    WORD PTR cs:[rax+rax*1+0x0]
c58d:	00 00 00

000000000000c590 <hash_clear>:
c590:	41 54                	push   r12
c592:	55                   	push   rbp
c593:	48 89 fd             	mov    rbp,rdi
c596:	53                   	push   rbx
c597:	4c 8b 27             	mov    r12,QWORD PTR [rdi]
c59a:	4c 3b 67 08          	cmp    r12,QWORD PTR [rdi+0x8]
c59e:	73 6b                	jae    c60b <hash_clear+0x7b>
c5a0:	49 83 3c 24 00       	cmp    QWORD PTR [r12],0x0
c5a5:	74 5a                	je     c601 <hash_clear+0x71>
c5a7:	49 8b 5c 24 08       	mov    rbx,QWORD PTR [r12+0x8]
c5ac:	48 8b 45 40          	mov    rax,QWORD PTR [rbp+0x40]
c5b0:	48 85 db             	test   rbx,rbx
c5b3:	74 30                	je     c5e5 <hash_clear+0x55>
c5b5:	0f 1f 00             	nop    DWORD PTR [rax]
c5b8:	48 85 c0             	test   rax,rax
c5bb:	74 09                	je     c5c6 <hash_clear+0x36>
c5bd:	48 8b 3b             	mov    rdi,QWORD PTR [rbx]
c5c0:	ff d0                	call   rax
c5c2:	48 8b 45 40          	mov    rax,QWORD PTR [rbp+0x40]
c5c6:	48 8b 53 08          	mov    rdx,QWORD PTR [rbx+0x8]
c5ca:	48 8b 4d 48          	mov    rcx,QWORD PTR [rbp+0x48]
c5ce:	48 c7 03 00 00 00 00 	mov    QWORD PTR [rbx],0x0
c5d5:	48 85 d2             	test   rdx,rdx
c5d8:	48 89 4b 08          	mov    QWORD PTR [rbx+0x8],rcx
c5dc:	48 89 5d 48          	mov    QWORD PTR [rbp+0x48],rbx
c5e0:	48 89 d3             	mov    rbx,rdx
c5e3:	75 d3                	jne    c5b8 <hash_clear+0x28>
c5e5:	48 85 c0             	test   rax,rax
c5e8:	74 06                	je     c5f0 <hash_clear+0x60>
c5ea:	49 8b 3c 24          	mov    rdi,QWORD PTR [r12]
c5ee:	ff d0                	call   rax
c5f0:	49 c7 04 24 00 00 00 	mov    QWORD PTR [r12],0x0
c5f7:	00
c5f8:	49 c7 44 24 08 00 00 	mov    QWORD PTR [r12+0x8],0x0
c5ff:	00 00
c601:	49 83 c4 10          	add    r12,0x10
c605:	4c 39 65 08          	cmp    QWORD PTR [rbp+0x8],r12
c609:	77 95                	ja     c5a0 <hash_clear+0x10>
c60b:	48 c7 45 18 00 00 00 	mov    QWORD PTR [rbp+0x18],0x0
c612:	00
c613:	48 c7 45 20 00 00 00 	mov    QWORD PTR [rbp+0x20],0x0
c61a:	00
c61b:	5b                   	pop    rbx
c61c:	5d                   	pop    rbp
c61d:	41 5c                	pop    r12
c61f:	c3                   	ret

000000000000c620 <hash_free>:
c620:	41 54                	push   r12
c622:	55                   	push   rbp
c623:	49 89 fc             	mov    r12,rdi
c626:	53                   	push   rbx
c627:	48 83 7f 40 00       	cmp    QWORD PTR [rdi+0x40],0x0
c62c:	48 8b 2f             	mov    rbp,QWORD PTR [rdi]
c62f:	48 8b 47 08          	mov    rax,QWORD PTR [rdi+0x8]
c633:	74 4e                	je     c683 <hash_free+0x63>
c635:	48 83 7f 20 00       	cmp    QWORD PTR [rdi+0x20],0x0
c63a:	74 47                	je     c683 <hash_free+0x63>
c63c:	48 39 c5             	cmp    rbp,rax
c63f:	73 7b                	jae    c6bc <hash_free+0x9c>
c641:	0f 1f 80 00 00 00 00 	nop    DWORD PTR [rax+0x0]
c648:	48 8b 7d 00          	mov    rdi,QWORD PTR [rbp+0x0]
c64c:	48 85 ff             	test   rdi,rdi
c64f:	74 25                	je     c676 <hash_free+0x56>
c651:	48 89 eb             	mov    rbx,rbp
c654:	eb 0d                	jmp    c663 <hash_free+0x43>
c656:	66 2e 0f 1f 84 00 00 	nop    WORD PTR cs:[rax+rax*1+0x0]
c65d:	00 00 00
c660:	48 8b 3b             	mov    rdi,QWORD PTR [rbx]
c663:	41 ff 54 24 40       	call   QWORD PTR [r12+0x40]
c668:	48 8b 5b 08          	mov    rbx,QWORD PTR [rbx+0x8]
c66c:	48 85 db             	test   rbx,rbx
c66f:	75 ef                	jne    c660 <hash_free+0x40>
c671:	49 8b 44 24 08       	mov    rax,QWORD PTR [r12+0x8]
c676:	48 83 c5 10          	add    rbp,0x10
c67a:	48 39 e8             	cmp    rax,rbp
c67d:	77 c9                	ja     c648 <hash_free+0x28>
c67f:	49 8b 2c 24          	mov    rbp,QWORD PTR [r12]
c683:	48 39 c5             	cmp    rbp,rax
c686:	73 34                	jae    c6bc <hash_free+0x9c>
c688:	0f 1f 84 00 00 00 00 	nop    DWORD PTR [rax+rax*1+0x0]
c68f:	00
c690:	48 8b 7d 08          	mov    rdi,QWORD PTR [rbp+0x8]
c694:	48 85 ff             	test   rdi,rdi
c697:	74 18                	je     c6b1 <hash_free+0x91>
c699:	0f 1f 80 00 00 00 00 	nop    DWORD PTR [rax+0x0]
c6a0:	48 8b 5f 08          	mov    rbx,QWORD PTR [rdi+0x8]
c6a4:	e8 67 67 ff ff       	call   2e10 <free@plt>
c6a9:	48 85 db             	test   rbx,rbx
c6ac:	48 89 df             	mov    rdi,rbx
c6af:	75 ef                	jne    c6a0 <hash_free+0x80>
c6b1:	48 83 c5 10          	add    rbp,0x10
c6b5:	49 39 6c 24 08       	cmp    QWORD PTR [r12+0x8],rbp
c6ba:	77 d4                	ja     c690 <hash_free+0x70>
c6bc:	49 8b 7c 24 48       	mov    rdi,QWORD PTR [r12+0x48]
c6c1:	48 85 ff             	test   rdi,rdi
c6c4:	74 1b                	je     c6e1 <hash_free+0xc1>
c6c6:	66 2e 0f 1f 84 00 00 	nop    WORD PTR cs:[rax+rax*1+0x0]
c6cd:	00 00 00
c6d0:	48 8b 5f 08          	mov    rbx,QWORD PTR [rdi+0x8]
c6d4:	e8 37 67 ff ff       	call   2e10 <free@plt>
c6d9:	48 85 db             	test   rbx,rbx
c6dc:	48 89 df             	mov    rdi,rbx
c6df:	75 ef                	jne    c6d0 <hash_free+0xb0>
c6e1:	49 8b 3c 24          	mov    rdi,QWORD PTR [r12]
c6e5:	e8 26 67 ff ff       	call   2e10 <free@plt>
c6ea:	5b                   	pop    rbx
c6eb:	4c 89 e7             	mov    rdi,r12
c6ee:	5d                   	pop    rbp
c6ef:	41 5c                	pop    r12
c6f1:	e9 1a 67 ff ff       	jmp    2e10 <free@plt>
c6f6:	66 2e 0f 1f 84 00 00 	nop    WORD PTR cs:[rax+rax*1+0x0]
c6fd:	00 00 00

000000000000c700 <hash_rehash>:
c700:	41 54                	push   r12
c702:	55                   	push   rbp
c703:	48 89 fd             	mov    rbp,rdi
c706:	53                   	push   rbx
c707:	48 83 ec 60          	sub    rsp,0x60
c70b:	4c 8b 67 28          	mov    r12,QWORD PTR [rdi+0x28]
c70f:	64 48 8b 04 25 28 00 	mov    rax,QWORD PTR fs:0x28
c716:	00 00
c718:	48 89 44 24 58       	mov    QWORD PTR [rsp+0x58],rax
c71d:	31 c0                	xor    eax,eax
c71f:	41 80 7c 24 10 00    	cmp    BYTE PTR [r12+0x10],0x0
c725:	75 51                	jne    c778 <hash_rehash+0x78>
c727:	48 85 f6             	test   rsi,rsi
c72a:	0f 88 78 01 00 00    	js     c8a8 <hash_rehash+0x1a8>
c730:	66 0f ef c0          	pxor   xmm0,xmm0
c734:	f3 48 0f 2a c6       	cvtsi2ss xmm0,rsi
c739:	f3 41 0f 5e 44 24 08 	divss  xmm0,DWORD PTR [r12+0x8]
c740:	0f 2e 05 85 8b 00 00 	ucomiss xmm0,DWORD PTR [rip+0x8b85]        # 152cc <default_tuning+0x2c>
c747:	0f 83 33 01 00 00    	jae    c880 <hash_rehash+0x180>
c74d:	0f 2e 05 7c 8b 00 00 	ucomiss xmm0,DWORD PTR [rip+0x8b7c]        # 152d0 <default_tuning+0x30>
c754:	0f 82 76 01 00 00    	jb     c8d0 <hash_rehash+0x1d0>
c75a:	f3 0f 5c 05 6e 8b 00 	subss  xmm0,DWORD PTR [rip+0x8b6e]        # 152d0 <default_tuning+0x30>
c761:	00
c762:	48 b8 00 00 00 00 00 	movabs rax,0x8000000000000000
c769:	00 00 80
c76c:	f3 48 0f 2c f0       	cvttss2si rsi,xmm0
c771:	48 31 c6             	xor    rsi,rax
c774:	0f 1f 40 00          	nop    DWORD PTR [rax+0x0]
c778:	48 89 f7             	mov    rdi,rsi
c77b:	e8 e0 f3 ff ff       	call   bb60 <next_prime>
c780:	ba 08 00 00 00       	mov    edx,0x8
c785:	48 89 c3             	mov    rbx,rax
c788:	31 c9                	xor    ecx,ecx
c78a:	48 89 d0             	mov    rax,rdx
c78d:	48 f7 e3             	mul    rbx
c790:	0f 80 99 01 00 00    	jo     c92f <hash_rehash+0x22f>
c796:	48 85 c0             	test   rax,rax
c799:	b8 01 00 00 00       	mov    eax,0x1
c79e:	48 0f 48 c8          	cmovs  rcx,rax
c7a2:	48 85 db             	test   rbx,rbx
c7a5:	0f 84 d5 00 00 00    	je     c880 <hash_rehash+0x180>
c7ab:	83 e1 01             	and    ecx,0x1
c7ae:	0f 85 cc 00 00 00    	jne    c880 <hash_rehash+0x180>
c7b4:	48 39 5d 10          	cmp    QWORD PTR [rbp+0x10],rbx
c7b8:	0f 84 22 01 00 00    	je     c8e0 <hash_rehash+0x1e0>
c7be:	be 10 00 00 00       	mov    esi,0x10
c7c3:	48 89 df             	mov    rdi,rbx
c7c6:	e8 05 63 ff ff       	call   2ad0 <calloc@plt>
c7cb:	48 85 c0             	test   rax,rax
c7ce:	48 89 04 24          	mov    QWORD PTR [rsp],rax
c7d2:	0f 84 a8 00 00 00    	je     c880 <hash_rehash+0x180>
c7d8:	48 89 5c 24 10       	mov    QWORD PTR [rsp+0x10],rbx
c7dd:	48 c1 e3 04          	shl    rbx,0x4
c7e1:	4c 89 64 24 28       	mov    QWORD PTR [rsp+0x28],r12
c7e6:	48 01 c3             	add    rbx,rax
c7e9:	48 8b 45 30          	mov    rax,QWORD PTR [rbp+0x30]
c7ed:	49 89 e4             	mov    r12,rsp
c7f0:	31 d2                	xor    edx,edx
c7f2:	48 89 ee             	mov    rsi,rbp
c7f5:	4c 89 e7             	mov    rdi,r12
c7f8:	48 89 5c 24 08       	mov    QWORD PTR [rsp+0x8],rbx
c7fd:	48 c7 44 24 18 00 00 	mov    QWORD PTR [rsp+0x18],0x0
c804:	00 00
c806:	48 89 44 24 30       	mov    QWORD PTR [rsp+0x30],rax
c80b:	48 8b 45 38          	mov    rax,QWORD PTR [rbp+0x38]
c80f:	48 c7 44 24 20 00 00 	mov    QWORD PTR [rsp+0x20],0x0
c816:	00 00
c818:	48 89 44 24 38       	mov    QWORD PTR [rsp+0x38],rax
c81d:	48 8b 45 40          	mov    rax,QWORD PTR [rbp+0x40]
c821:	48 89 44 24 40       	mov    QWORD PTR [rsp+0x40],rax
c826:	48 8b 45 48          	mov    rax,QWORD PTR [rbp+0x48]
c82a:	48 89 44 24 48       	mov    QWORD PTR [rsp+0x48],rax
c82f:	e8 bc f5 ff ff       	call   bdf0 <transfer_entries>
c834:	84 c0                	test   al,al
c836:	89 c3                	mov    ebx,eax
c838:	0f 85 b2 00 00 00    	jne    c8f0 <hash_rehash+0x1f0>
c83e:	48 8b 44 24 48       	mov    rax,QWORD PTR [rsp+0x48]
c843:	ba 01 00 00 00       	mov    edx,0x1
c848:	4c 89 e6             	mov    rsi,r12
c84b:	48 89 ef             	mov    rdi,rbp
c84e:	48 89 45 48          	mov    QWORD PTR [rbp+0x48],rax
c852:	e8 99 f5 ff ff       	call   bdf0 <transfer_entries>
c857:	84 c0                	test   al,al
c859:	0f 84 da 00 00 00    	je     c939 <hash_rehash+0x239>
c85f:	31 d2                	xor    edx,edx
c861:	4c 89 e6             	mov    rsi,r12
c864:	48 89 ef             	mov    rdi,rbp
c867:	e8 84 f5 ff ff       	call   bdf0 <transfer_entries>
c86c:	84 c0                	test   al,al
c86e:	0f 84 c5 00 00 00    	je     c939 <hash_rehash+0x239>
c874:	48 8b 3c 24          	mov    rdi,QWORD PTR [rsp]
c878:	e8 93 65 ff ff       	call   2e10 <free@plt>
c87d:	eb 03                	jmp    c882 <hash_rehash+0x182>
c87f:	90                   	nop
c880:	31 db                	xor    ebx,ebx
c882:	48 8b 4c 24 58       	mov    rcx,QWORD PTR [rsp+0x58]
c887:	64 48 33 0c 25 28 00 	xor    rcx,QWORD PTR fs:0x28
c88e:	00 00
c890:	89 d8                	mov    eax,ebx
c892:	0f 85 92 00 00 00    	jne    c92a <hash_rehash+0x22a>
c898:	48 83 c4 60          	add    rsp,0x60
c89c:	5b                   	pop    rbx
c89d:	5d                   	pop    rbp
c89e:	41 5c                	pop    r12
c8a0:	c3                   	ret
c8a1:	0f 1f 80 00 00 00 00 	nop    DWORD PTR [rax+0x0]
c8a8:	48 89 f0             	mov    rax,rsi
c8ab:	66 0f ef c0          	pxor   xmm0,xmm0
c8af:	48 d1 e8             	shr    rax,1
c8b2:	83 e6 01             	and    esi,0x1
c8b5:	48 09 f0             	or     rax,rsi
c8b8:	f3 48 0f 2a c0       	cvtsi2ss xmm0,rax
c8bd:	f3 0f 58 c0          	addss  xmm0,xmm0
c8c1:	e9 73 fe ff ff       	jmp    c739 <hash_rehash+0x39>
c8c6:	66 2e 0f 1f 84 00 00 	nop    WORD PTR cs:[rax+rax*1+0x0]
c8cd:	00 00 00
c8d0:	f3 48 0f 2c f0       	cvttss2si rsi,xmm0
c8d5:	e9 9e fe ff ff       	jmp    c778 <hash_rehash+0x78>
c8da:	66 0f 1f 44 00 00    	nop    WORD PTR [rax+rax*1+0x0]
c8e0:	bb 01 00 00 00       	mov    ebx,0x1
c8e5:	eb 9b                	jmp    c882 <hash_rehash+0x182>
c8e7:	66 0f 1f 84 00 00 00 	nop    WORD PTR [rax+rax*1+0x0]
c8ee:	00 00
c8f0:	48 8b 7d 00          	mov    rdi,QWORD PTR [rbp+0x0]
c8f4:	e8 17 65 ff ff       	call   2e10 <free@plt>
c8f9:	48 8b 04 24          	mov    rax,QWORD PTR [rsp]
c8fd:	48 89 45 00          	mov    QWORD PTR [rbp+0x0],rax
c901:	48 8b 44 24 08       	mov    rax,QWORD PTR [rsp+0x8]
c906:	48 89 45 08          	mov    QWORD PTR [rbp+0x8],rax
c90a:	48 8b 44 24 10       	mov    rax,QWORD PTR [rsp+0x10]
c90f:	48 89 45 10          	mov    QWORD PTR [rbp+0x10],rax
c913:	48 8b 44 24 18       	mov    rax,QWORD PTR [rsp+0x18]
c918:	48 89 45 18          	mov    QWORD PTR [rbp+0x18],rax
c91c:	48 8b 44 24 48       	mov    rax,QWORD PTR [rsp+0x48]
c921:	48 89 45 48          	mov    QWORD PTR [rbp+0x48],rax
c925:	e9 58 ff ff ff       	jmp    c882 <hash_rehash+0x182>
c92a:	e8 01 60 ff ff       	call   2930 <__stack_chk_fail@plt>
c92f:	b9 01 00 00 00       	mov    ecx,0x1
c934:	e9 5d fe ff ff       	jmp    c796 <hash_rehash+0x96>
c939:	e8 22 5e ff ff       	call   2760 <abort@plt>
c93e:	66 90                	xchg   ax,ax

000000000000c940 <hash_insert_if_absent>:
c940:	41 55                	push   r13
c942:	41 54                	push   r12
c944:	55                   	push   rbp
c945:	53                   	push   rbx
c946:	48 83 ec 18          	sub    rsp,0x18
c94a:	64 48 8b 04 25 28 00 	mov    rax,QWORD PTR fs:0x28
c951:	00 00
c953:	48 89 44 24 08       	mov    QWORD PTR [rsp+0x8],rax
c958:	31 c0                	xor    eax,eax
c95a:	48 85 f6             	test   rsi,rsi
c95d:	0f 84 ba 01 00 00    	je     cb1d <hash_insert_if_absent+0x1dd>
c963:	49 89 e4             	mov    r12,rsp
c966:	31 c9                	xor    ecx,ecx
c968:	49 89 d5             	mov    r13,rdx
c96b:	4c 89 e2             	mov    rdx,r12
c96e:	48 89 fb             	mov    rbx,rdi
c971:	48 89 f5             	mov    rbp,rsi
c974:	e8 d7 f2 ff ff       	call   bc50 <hash_find_entry>
c979:	48 85 c0             	test   rax,rax
c97c:	48 89 c2             	mov    rdx,rax
c97f:	74 2f                	je     c9b0 <hash_insert_if_absent+0x70>
c981:	31 c0                	xor    eax,eax
c983:	4d 85 ed             	test   r13,r13
c986:	74 04                	je     c98c <hash_insert_if_absent+0x4c>
c988:	49 89 55 00          	mov    QWORD PTR [r13+0x0],rdx
c98c:	48 8b 4c 24 08       	mov    rcx,QWORD PTR [rsp+0x8]
c991:	64 48 33 0c 25 28 00 	xor    rcx,QWORD PTR fs:0x28
c998:	00 00
c99a:	0f 85 1f 02 00 00    	jne    cbbf <hash_insert_if_absent+0x27f>
c9a0:	48 83 c4 18          	add    rsp,0x18
c9a4:	5b                   	pop    rbx
c9a5:	5d                   	pop    rbp
c9a6:	41 5c                	pop    r12
c9a8:	41 5d                	pop    r13
c9aa:	c3                   	ret
c9ab:	0f 1f 44 00 00       	nop    DWORD PTR [rax+rax*1+0x0]
c9b0:	48 8b 43 18          	mov    rax,QWORD PTR [rbx+0x18]
c9b4:	48 85 c0             	test   rax,rax
c9b7:	78 77                	js     ca30 <hash_insert_if_absent+0xf0>
c9b9:	66 0f ef c9          	pxor   xmm1,xmm1
c9bd:	48 8b 53 28          	mov    rdx,QWORD PTR [rbx+0x28]
c9c1:	f3 48 0f 2a c8       	cvtsi2ss xmm1,rax
c9c6:	48 8b 43 10          	mov    rax,QWORD PTR [rbx+0x10]
c9ca:	48 85 c0             	test   rax,rax
c9cd:	0f 88 87 00 00 00    	js     ca5a <hash_insert_if_absent+0x11a>
c9d3:	66 0f ef c0          	pxor   xmm0,xmm0
c9d7:	f3 48 0f 2a c0       	cvtsi2ss xmm0,rax
c9dc:	f3 0f 59 42 08       	mulss  xmm0,DWORD PTR [rdx+0x8]
c9e1:	0f 2e c8             	ucomiss xmm1,xmm0
c9e4:	0f 87 96 00 00 00    	ja     ca80 <hash_insert_if_absent+0x140>
c9ea:	4c 8b 24 24          	mov    r12,QWORD PTR [rsp]
c9ee:	49 83 3c 24 00       	cmp    QWORD PTR [r12],0x0
c9f3:	0f 84 2f 01 00 00    	je     cb28 <hash_insert_if_absent+0x1e8>
c9f9:	48 8b 43 48          	mov    rax,QWORD PTR [rbx+0x48]
c9fd:	48 85 c0             	test   rax,rax
ca00:	0f 84 3a 01 00 00    	je     cb40 <hash_insert_if_absent+0x200>
ca06:	48 8b 50 08          	mov    rdx,QWORD PTR [rax+0x8]
ca0a:	48 89 53 48          	mov    QWORD PTR [rbx+0x48],rdx
ca0e:	49 8b 54 24 08       	mov    rdx,QWORD PTR [r12+0x8]
ca13:	48 89 28             	mov    QWORD PTR [rax],rbp
ca16:	48 89 50 08          	mov    QWORD PTR [rax+0x8],rdx
ca1a:	49 89 44 24 08       	mov    QWORD PTR [r12+0x8],rax
ca1f:	b8 01 00 00 00       	mov    eax,0x1
ca24:	48 83 43 20 01       	add    QWORD PTR [rbx+0x20],0x1
ca29:	e9 5e ff ff ff       	jmp    c98c <hash_insert_if_absent+0x4c>
ca2e:	66 90                	xchg   ax,ax
ca30:	48 89 c2             	mov    rdx,rax
ca33:	66 0f ef c9          	pxor   xmm1,xmm1
ca37:	83 e0 01             	and    eax,0x1
ca3a:	48 d1 ea             	shr    rdx,1
ca3d:	48 09 c2             	or     rdx,rax
ca40:	48 8b 43 10          	mov    rax,QWORD PTR [rbx+0x10]
ca44:	f3 48 0f 2a ca       	cvtsi2ss xmm1,rdx
ca49:	48 8b 53 28          	mov    rdx,QWORD PTR [rbx+0x28]
ca4d:	48 85 c0             	test   rax,rax
ca50:	f3 0f 58 c9          	addss  xmm1,xmm1
ca54:	0f 89 79 ff ff ff    	jns    c9d3 <hash_insert_if_absent+0x93>
ca5a:	48 89 c1             	mov    rcx,rax
ca5d:	66 0f ef c0          	pxor   xmm0,xmm0
ca61:	48 d1 e9             	shr    rcx,1
ca64:	83 e0 01             	and    eax,0x1
ca67:	48 09 c1             	or     rcx,rax
ca6a:	f3 48 0f 2a c1       	cvtsi2ss xmm0,rcx
ca6f:	f3 0f 58 c0          	addss  xmm0,xmm0
ca73:	e9 64 ff ff ff       	jmp    c9dc <hash_insert_if_absent+0x9c>
ca78:	0f 1f 84 00 00 00 00 	nop    DWORD PTR [rax+rax*1+0x0]
ca7f:	00
ca80:	48 8d 7b 28          	lea    rdi,[rbx+0x28]
ca84:	e8 e7 f2 ff ff       	call   bd70 <check_tuning.isra.0>
ca89:	48 8b 43 10          	mov    rax,QWORD PTR [rbx+0x10]
ca8d:	48 8b 53 28          	mov    rdx,QWORD PTR [rbx+0x28]
ca91:	48 85 c0             	test   rax,rax
ca94:	f3 0f 10 52 08       	movss  xmm2,DWORD PTR [rdx+0x8]
ca99:	0f 88 c1 00 00 00    	js     cb60 <hash_insert_if_absent+0x220>
ca9f:	66 0f ef c0          	pxor   xmm0,xmm0
caa3:	f3 48 0f 2a c0       	cvtsi2ss xmm0,rax
caa8:	48 8b 43 18          	mov    rax,QWORD PTR [rbx+0x18]
caac:	48 85 c0             	test   rax,rax
caaf:	0f 88 cb 00 00 00    	js     cb80 <hash_insert_if_absent+0x240>
cab5:	66 0f ef c9          	pxor   xmm1,xmm1
cab9:	f3 48 0f 2a c8       	cvtsi2ss xmm1,rax
cabe:	0f 28 da             	movaps xmm3,xmm2
cac1:	f3 0f 59 d8          	mulss  xmm3,xmm0
cac5:	0f 2e cb             	ucomiss xmm1,xmm3
cac8:	0f 86 1c ff ff ff    	jbe    c9ea <hash_insert_if_absent+0xaa>
cace:	80 7a 10 00          	cmp    BYTE PTR [rdx+0x10],0x0
cad2:	f3 0f 59 42 0c       	mulss  xmm0,DWORD PTR [rdx+0xc]
cad7:	75 04                	jne    cadd <hash_insert_if_absent+0x19d>
cad9:	f3 0f 59 c2          	mulss  xmm0,xmm2
cadd:	0f 2e 05 e8 87 00 00 	ucomiss xmm0,DWORD PTR [rip+0x87e8]        # 152cc <default_tuning+0x2c>
cae4:	73 6d                	jae    cb53 <hash_insert_if_absent+0x213>
cae6:	0f 2e 05 e3 87 00 00 	ucomiss xmm0,DWORD PTR [rip+0x87e3]        # 152d0 <default_tuning+0x30>
caed:	0f 83 ad 00 00 00    	jae    cba0 <hash_insert_if_absent+0x260>
caf3:	f3 48 0f 2c f0       	cvttss2si rsi,xmm0
caf8:	48 89 df             	mov    rdi,rbx
cafb:	e8 00 fc ff ff       	call   c700 <hash_rehash>
cb00:	84 c0                	test   al,al
cb02:	74 4f                	je     cb53 <hash_insert_if_absent+0x213>
cb04:	31 c9                	xor    ecx,ecx
cb06:	4c 89 e2             	mov    rdx,r12
cb09:	48 89 ee             	mov    rsi,rbp
cb0c:	48 89 df             	mov    rdi,rbx
cb0f:	e8 3c f1 ff ff       	call   bc50 <hash_find_entry>
cb14:	48 85 c0             	test   rax,rax
cb17:	0f 84 cd fe ff ff    	je     c9ea <hash_insert_if_absent+0xaa>
cb1d:	e8 3e 5c ff ff       	call   2760 <abort@plt>
cb22:	66 0f 1f 44 00 00    	nop    WORD PTR [rax+rax*1+0x0]
cb28:	49 89 2c 24          	mov    QWORD PTR [r12],rbp
cb2c:	b8 01 00 00 00       	mov    eax,0x1
cb31:	48 83 43 20 01       	add    QWORD PTR [rbx+0x20],0x1
cb36:	48 83 43 18 01       	add    QWORD PTR [rbx+0x18],0x1
cb3b:	e9 4c fe ff ff       	jmp    c98c <hash_insert_if_absent+0x4c>
cb40:	bf 10 00 00 00       	mov    edi,0x10
cb45:	e8 76 60 ff ff       	call   2bc0 <malloc@plt>
cb4a:	48 85 c0             	test   rax,rax
cb4d:	0f 85 bb fe ff ff    	jne    ca0e <hash_insert_if_absent+0xce>
cb53:	b8 ff ff ff ff       	mov    eax,0xffffffff
cb58:	e9 2f fe ff ff       	jmp    c98c <hash_insert_if_absent+0x4c>
cb5d:	0f 1f 00             	nop    DWORD PTR [rax]
cb60:	48 89 c1             	mov    rcx,rax
cb63:	66 0f ef c0          	pxor   xmm0,xmm0
cb67:	48 d1 e9             	shr    rcx,1
cb6a:	83 e0 01             	and    eax,0x1
cb6d:	48 09 c1             	or     rcx,rax
cb70:	f3 48 0f 2a c1       	cvtsi2ss xmm0,rcx
cb75:	f3 0f 58 c0          	addss  xmm0,xmm0
cb79:	e9 2a ff ff ff       	jmp    caa8 <hash_insert_if_absent+0x168>
cb7e:	66 90                	xchg   ax,ax
cb80:	48 89 c1             	mov    rcx,rax
cb83:	66 0f ef c9          	pxor   xmm1,xmm1
cb87:	48 d1 e9             	shr    rcx,1
cb8a:	83 e0 01             	and    eax,0x1
cb8d:	48 09 c1             	or     rcx,rax
cb90:	f3 48 0f 2a c9       	cvtsi2ss xmm1,rcx
cb95:	f3 0f 58 c9          	addss  xmm1,xmm1
cb99:	e9 20 ff ff ff       	jmp    cabe <hash_insert_if_absent+0x17e>
cb9e:	66 90                	xchg   ax,ax
cba0:	f3 0f 5c 05 28 87 00 	subss  xmm0,DWORD PTR [rip+0x8728]        # 152d0 <default_tuning+0x30>
cba7:	00
cba8:	48 b8 00 00 00 00 00 	movabs rax,0x8000000000000000
cbaf:	00 00 80
cbb2:	f3 48 0f 2c f0       	cvttss2si rsi,xmm0
cbb7:	48 31 c6             	xor    rsi,rax
cbba:	e9 39 ff ff ff       	jmp    caf8 <hash_insert_if_absent+0x1b8>
cbbf:	e8 6c 5d ff ff       	call   2930 <__stack_chk_fail@plt>
cbc4:	66 90                	xchg   ax,ax
cbc6:	66 2e 0f 1f 84 00 00 	nop    WORD PTR cs:[rax+rax*1+0x0]
cbcd:	00 00 00

000000000000cbd0 <hash_insert>:
cbd0:	53                   	push   rbx
cbd1:	48 89 f3             	mov    rbx,rsi
cbd4:	48 83 ec 10          	sub    rsp,0x10
cbd8:	48 89 e2             	mov    rdx,rsp
cbdb:	64 48 8b 04 25 28 00 	mov    rax,QWORD PTR fs:0x28
cbe2:	00 00
cbe4:	48 89 44 24 08       	mov    QWORD PTR [rsp+0x8],rax
cbe9:	31 c0                	xor    eax,eax
cbeb:	e8 50 fd ff ff       	call   c940 <hash_insert_if_absent>
cbf0:	83 f8 ff             	cmp    eax,0xffffffff
cbf3:	74 2b                	je     cc20 <hash_insert+0x50>
cbf5:	85 c0                	test   eax,eax
cbf7:	75 04                	jne    cbfd <hash_insert+0x2d>
cbf9:	48 8b 1c 24          	mov    rbx,QWORD PTR [rsp]
cbfd:	48 8b 4c 24 08       	mov    rcx,QWORD PTR [rsp+0x8]
cc02:	64 48 33 0c 25 28 00 	xor    rcx,QWORD PTR fs:0x28
cc09:	00 00
cc0b:	48 89 d8             	mov    rax,rbx
cc0e:	75 14                	jne    cc24 <hash_insert+0x54>
cc10:	48 83 c4 10          	add    rsp,0x10
cc14:	5b                   	pop    rbx
cc15:	c3                   	ret
cc16:	66 2e 0f 1f 84 00 00 	nop    WORD PTR cs:[rax+rax*1+0x0]
cc1d:	00 00 00
cc20:	31 db                	xor    ebx,ebx
cc22:	eb d9                	jmp    cbfd <hash_insert+0x2d>
cc24:	e8 07 5d ff ff       	call   2930 <__stack_chk_fail@plt>
cc29:	0f 1f 80 00 00 00 00 	nop    DWORD PTR [rax+0x0]

000000000000cc30 <hash_delete>:
cc30:	41 54                	push   r12
cc32:	55                   	push   rbp
cc33:	b9 01 00 00 00       	mov    ecx,0x1
cc38:	53                   	push   rbx
cc39:	48 89 fb             	mov    rbx,rdi
cc3c:	48 83 ec 10          	sub    rsp,0x10
cc40:	48 89 e2             	mov    rdx,rsp
cc43:	64 48 8b 04 25 28 00 	mov    rax,QWORD PTR fs:0x28
cc4a:	00 00
cc4c:	48 89 44 24 08       	mov    QWORD PTR [rsp+0x8],rax
cc51:	31 c0                	xor    eax,eax
cc53:	e8 f8 ef ff ff       	call   bc50 <hash_find_entry>
cc58:	48 85 c0             	test   rax,rax
cc5b:	48 89 c5             	mov    rbp,rax
cc5e:	74 0f                	je     cc6f <hash_delete+0x3f>
cc60:	48 8b 04 24          	mov    rax,QWORD PTR [rsp]
cc64:	48 83 6b 20 01       	sub    QWORD PTR [rbx+0x20],0x1
cc69:	48 83 38 00          	cmp    QWORD PTR [rax],0x0
cc6d:	74 21                	je     cc90 <hash_delete+0x60>
cc6f:	48 8b 4c 24 08       	mov    rcx,QWORD PTR [rsp+0x8]
cc74:	64 48 33 0c 25 28 00 	xor    rcx,QWORD PTR fs:0x28
cc7b:	00 00
cc7d:	48 89 e8             	mov    rax,rbp
cc80:	0f 85 a8 01 00 00    	jne    ce2e <hash_delete+0x1fe>
cc86:	48 83 c4 10          	add    rsp,0x10
cc8a:	5b                   	pop    rbx
cc8b:	5d                   	pop    rbp
cc8c:	41 5c                	pop    r12
cc8e:	c3                   	ret
cc8f:	90                   	nop
cc90:	48 8b 43 18          	mov    rax,QWORD PTR [rbx+0x18]
cc94:	48 83 e8 01          	sub    rax,0x1
cc98:	48 85 c0             	test   rax,rax
cc9b:	48 89 43 18          	mov    QWORD PTR [rbx+0x18],rax
cc9f:	0f 88 fb 00 00 00    	js     cda0 <hash_delete+0x170>
cca5:	66 0f ef c0          	pxor   xmm0,xmm0
cca9:	f3 48 0f 2a c0       	cvtsi2ss xmm0,rax
ccae:	48 8b 43 10          	mov    rax,QWORD PTR [rbx+0x10]
ccb2:	48 8b 53 28          	mov    rdx,QWORD PTR [rbx+0x28]
ccb6:	48 85 c0             	test   rax,rax
ccb9:	0f 88 c1 00 00 00    	js     cd80 <hash_delete+0x150>
ccbf:	66 0f ef c9          	pxor   xmm1,xmm1
ccc3:	f3 48 0f 2a c8       	cvtsi2ss xmm1,rax
ccc8:	f3 0f 59 0a          	mulss  xmm1,DWORD PTR [rdx]
cccc:	0f 2e c8             	ucomiss xmm1,xmm0
cccf:	76 9e                	jbe    cc6f <hash_delete+0x3f>
ccd1:	48 8d 7b 28          	lea    rdi,[rbx+0x28]
ccd5:	e8 96 f0 ff ff       	call   bd70 <check_tuning.isra.0>
ccda:	48 8b 43 10          	mov    rax,QWORD PTR [rbx+0x10]
ccde:	48 8b 53 28          	mov    rdx,QWORD PTR [rbx+0x28]
cce2:	48 85 c0             	test   rax,rax
cce5:	0f 88 25 01 00 00    	js     ce10 <hash_delete+0x1e0>
cceb:	66 0f ef c0          	pxor   xmm0,xmm0
ccef:	f3 48 0f 2a c0       	cvtsi2ss xmm0,rax
ccf4:	48 8b 43 18          	mov    rax,QWORD PTR [rbx+0x18]
ccf8:	48 85 c0             	test   rax,rax
ccfb:	0f 88 ef 00 00 00    	js     cdf0 <hash_delete+0x1c0>
cd01:	66 0f ef c9          	pxor   xmm1,xmm1
cd05:	f3 48 0f 2a c8       	cvtsi2ss xmm1,rax
cd0a:	f3 0f 10 12          	movss  xmm2,DWORD PTR [rdx]
cd0e:	f3 0f 59 d0          	mulss  xmm2,xmm0
cd12:	0f 2e d1             	ucomiss xmm2,xmm1
cd15:	0f 86 54 ff ff ff    	jbe    cc6f <hash_delete+0x3f>
cd1b:	80 7a 10 00          	cmp    BYTE PTR [rdx+0x10],0x0
cd1f:	f3 0f 59 42 04       	mulss  xmm0,DWORD PTR [rdx+0x4]
cd24:	0f 84 b6 00 00 00    	je     cde0 <hash_delete+0x1b0>
cd2a:	0f 2e 05 9f 85 00 00 	ucomiss xmm0,DWORD PTR [rip+0x859f]        # 152d0 <default_tuning+0x30>
cd31:	0f 83 89 00 00 00    	jae    cdc0 <hash_delete+0x190>
cd37:	f3 48 0f 2c f0       	cvttss2si rsi,xmm0
cd3c:	48 89 df             	mov    rdi,rbx
cd3f:	e8 bc f9 ff ff       	call   c700 <hash_rehash>
cd44:	84 c0                	test   al,al
cd46:	0f 85 23 ff ff ff    	jne    cc6f <hash_delete+0x3f>
cd4c:	48 8b 7b 48          	mov    rdi,QWORD PTR [rbx+0x48]
cd50:	48 85 ff             	test   rdi,rdi
cd53:	74 14                	je     cd69 <hash_delete+0x139>
cd55:	0f 1f 00             	nop    DWORD PTR [rax]
cd58:	4c 8b 67 08          	mov    r12,QWORD PTR [rdi+0x8]
cd5c:	e8 af 60 ff ff       	call   2e10 <free@plt>
cd61:	4d 85 e4             	test   r12,r12
cd64:	4c 89 e7             	mov    rdi,r12
cd67:	75 ef                	jne    cd58 <hash_delete+0x128>
cd69:	48 c7 43 48 00 00 00 	mov    QWORD PTR [rbx+0x48],0x0
cd70:	00
cd71:	e9 f9 fe ff ff       	jmp    cc6f <hash_delete+0x3f>
cd76:	66 2e 0f 1f 84 00 00 	nop    WORD PTR cs:[rax+rax*1+0x0]
cd7d:	00 00 00
cd80:	48 89 c1             	mov    rcx,rax
cd83:	66 0f ef c9          	pxor   xmm1,xmm1
cd87:	48 d1 e9             	shr    rcx,1
cd8a:	83 e0 01             	and    eax,0x1
cd8d:	48 09 c1             	or     rcx,rax
cd90:	f3 48 0f 2a c9       	cvtsi2ss xmm1,rcx
cd95:	f3 0f 58 c9          	addss  xmm1,xmm1
cd99:	e9 2a ff ff ff       	jmp    ccc8 <hash_delete+0x98>
cd9e:	66 90                	xchg   ax,ax
cda0:	48 89 c2             	mov    rdx,rax
cda3:	66 0f ef c0          	pxor   xmm0,xmm0
cda7:	48 d1 ea             	shr    rdx,1
cdaa:	83 e0 01             	and    eax,0x1
cdad:	48 09 c2             	or     rdx,rax
cdb0:	f3 48 0f 2a c2       	cvtsi2ss xmm0,rdx
cdb5:	f3 0f 58 c0          	addss  xmm0,xmm0
cdb9:	e9 f0 fe ff ff       	jmp    ccae <hash_delete+0x7e>
cdbe:	66 90                	xchg   ax,ax
cdc0:	f3 0f 5c 05 08 85 00 	subss  xmm0,DWORD PTR [rip+0x8508]        # 152d0 <default_tuning+0x30>
cdc7:	00
cdc8:	48 b8 00 00 00 00 00 	movabs rax,0x8000000000000000
cdcf:	00 00 80
cdd2:	f3 48 0f 2c f0       	cvttss2si rsi,xmm0
cdd7:	48 31 c6             	xor    rsi,rax
cdda:	e9 5d ff ff ff       	jmp    cd3c <hash_delete+0x10c>
cddf:	90                   	nop
cde0:	f3 0f 59 42 08       	mulss  xmm0,DWORD PTR [rdx+0x8]
cde5:	e9 40 ff ff ff       	jmp    cd2a <hash_delete+0xfa>
cdea:	66 0f 1f 44 00 00    	nop    WORD PTR [rax+rax*1+0x0]
cdf0:	48 89 c1             	mov    rcx,rax
cdf3:	66 0f ef c9          	pxor   xmm1,xmm1
cdf7:	48 d1 e9             	shr    rcx,1
cdfa:	83 e0 01             	and    eax,0x1
cdfd:	48 09 c1             	or     rcx,rax
ce00:	f3 48 0f 2a c9       	cvtsi2ss xmm1,rcx
ce05:	f3 0f 58 c9          	addss  xmm1,xmm1
ce09:	e9 fc fe ff ff       	jmp    cd0a <hash_delete+0xda>
ce0e:	66 90                	xchg   ax,ax
ce10:	48 89 c1             	mov    rcx,rax
ce13:	66 0f ef c0          	pxor   xmm0,xmm0
ce17:	48 d1 e9             	shr    rcx,1
ce1a:	83 e0 01             	and    eax,0x1
ce1d:	48 09 c1             	or     rcx,rax
ce20:	f3 48 0f 2a c1       	cvtsi2ss xmm0,rcx
ce25:	f3 0f 58 c0          	addss  xmm0,xmm0
ce29:	e9 c6 fe ff ff       	jmp    ccf4 <hash_delete+0xc4>
ce2e:	e8 fd 5a ff ff       	call   2930 <__stack_chk_fail@plt>
ce33:	66 2e 0f 1f 84 00 00 	nop    WORD PTR cs:[rax+rax*1+0x0]
ce3a:	00 00 00
ce3d:	0f 1f 00             	nop    DWORD PTR [rax]

000000000000ce40 <triple_hash>:
ce40:	55                   	push   rbp
ce41:	53                   	push   rbx
ce42:	48 89 fd             	mov    rbp,rdi
ce45:	48 89 f3             	mov    rbx,rsi
ce48:	48 83 ec 08          	sub    rsp,0x8
ce4c:	48 8b 3f             	mov    rdi,QWORD PTR [rdi]
ce4f:	e8 ac 48 00 00       	call   11700 <hash_pjw>
ce54:	48 33 45 08          	xor    rax,QWORD PTR [rbp+0x8]
ce58:	31 d2                	xor    edx,edx
ce5a:	48 83 c4 08          	add    rsp,0x8
ce5e:	48 f7 f3             	div    rbx
ce61:	5b                   	pop    rbx
ce62:	5d                   	pop    rbp
ce63:	48 89 d0             	mov    rax,rdx
ce66:	c3                   	ret
ce67:	66 0f 1f 84 00 00 00 	nop    WORD PTR [rax+rax*1+0x0]
ce6e:	00 00

000000000000ce70 <triple_hash_no_name>:
ce70:	48 8b 47 08          	mov    rax,QWORD PTR [rdi+0x8]
ce74:	31 d2                	xor    edx,edx
ce76:	48 f7 f6             	div    rsi
ce79:	48 89 d0             	mov    rax,rdx
ce7c:	c3                   	ret
ce7d:	0f 1f 00             	nop    DWORD PTR [rax]

000000000000ce80 <triple_compare>:
ce80:	31 c0                	xor    eax,eax
ce82:	48 8b 56 08          	mov    rdx,QWORD PTR [rsi+0x8]
ce86:	48 39 57 08          	cmp    QWORD PTR [rdi+0x8],rdx
ce8a:	74 04                	je     ce90 <triple_compare+0x10>
ce8c:	f3 c3                	repz ret
ce8e:	66 90                	xchg   ax,ax
ce90:	48 8b 4e 10          	mov    rcx,QWORD PTR [rsi+0x10]
ce94:	48 39 4f 10          	cmp    QWORD PTR [rdi+0x10],rcx
ce98:	75 f2                	jne    ce8c <triple_compare+0xc>
ce9a:	48 83 ec 08          	sub    rsp,0x8
ce9e:	48 8b 36             	mov    rsi,QWORD PTR [rsi]
cea1:	48 8b 3f             	mov    rdi,QWORD PTR [rdi]
cea4:	e8 97 23 00 00       	call   f240 <same_name>
cea9:	48 83 c4 08          	add    rsp,0x8
cead:	c3                   	ret
ceae:	66 90                	xchg   ax,ax

000000000000ceb0 <triple_compare_ino_str>:
ceb0:	31 c0                	xor    eax,eax
ceb2:	48 8b 56 08          	mov    rdx,QWORD PTR [rsi+0x8]
ceb6:	48 39 57 08          	cmp    QWORD PTR [rdi+0x8],rdx
ceba:	74 04                	je     cec0 <triple_compare_ino_str+0x10>
cebc:	f3 c3                	repz ret
cebe:	66 90                	xchg   ax,ax
cec0:	48 8b 4e 10          	mov    rcx,QWORD PTR [rsi+0x10]
cec4:	48 39 4f 10          	cmp    QWORD PTR [rdi+0x10],rcx
cec8:	75 f2                	jne    cebc <triple_compare_ino_str+0xc>
ceca:	48 83 ec 08          	sub    rsp,0x8
cece:	48 8b 36             	mov    rsi,QWORD PTR [rsi]
ced1:	48 8b 3f             	mov    rdi,QWORD PTR [rdi]
ced4:	e8 17 5c ff ff       	call   2af0 <strcmp@plt>
ced9:	85 c0                	test   eax,eax
cedb:	0f 94 c0             	sete   al
cede:	48 83 c4 08          	add    rsp,0x8
cee2:	c3                   	ret
cee3:	0f 1f 00             	nop    DWORD PTR [rax]
cee6:	66 2e 0f 1f 84 00 00 	nop    WORD PTR cs:[rax+rax*1+0x0]
ceed:	00 00 00

000000000000cef0 <triple_free>:
cef0:	53                   	push   rbx
cef1:	48 89 fb             	mov    rbx,rdi
cef4:	48 8b 3f             	mov    rdi,QWORD PTR [rdi]
cef7:	e8 14 5f ff ff       	call   2e10 <free@plt>
cefc:	48 89 df             	mov    rdi,rbx
ceff:	5b                   	pop    rbx
cf00:	e9 0b 5f ff ff       	jmp    2e10 <free@plt>
cf05:	66 2e 0f 1f 84 00 00 	nop    WORD PTR cs:[rax+rax*1+0x0]
cf0c:	00 00 00
cf0f:	90                   	nop

000000000000cf10 <opendirat>:
cf10:	41 55                	push   r13
cf12:	41 54                	push   r12
cf14:	81 ca 00 09 09 00    	or     edx,0x90900
cf1a:	55                   	push   rbp
cf1b:	53                   	push   rbx
cf1c:	31 c0                	xor    eax,eax
cf1e:	49 89 cc             	mov    r12,rcx
cf21:	48 83 ec 08          	sub    rsp,0x8
cf25:	e8 56 48 00 00       	call   11780 <openat_safer>
cf2a:	85 c0                	test   eax,eax
cf2c:	78 52                	js     cf80 <opendirat+0x70>
cf2e:	89 c7                	mov    edi,eax
cf30:	89 c3                	mov    ebx,eax
cf32:	e8 e9 5d ff ff       	call   2d20 <fdopendir@plt>
cf37:	48 85 c0             	test   rax,rax
cf3a:	48 89 c5             	mov    rbp,rax
cf3d:	74 19                	je     cf58 <opendirat+0x48>
cf3f:	41 89 1c 24          	mov    DWORD PTR [r12],ebx
cf43:	48 83 c4 08          	add    rsp,0x8
cf47:	48 89 e8             	mov    rax,rbp
cf4a:	5b                   	pop    rbx
cf4b:	5d                   	pop    rbp
cf4c:	41 5c                	pop    r12
cf4e:	41 5d                	pop    r13
cf50:	c3                   	ret
cf51:	0f 1f 80 00 00 00 00 	nop    DWORD PTR [rax+0x0]
cf58:	e8 13 58 ff ff       	call   2770 <__errno_location@plt>
cf5d:	44 8b 28             	mov    r13d,DWORD PTR [rax]
cf60:	49 89 c4             	mov    r12,rax
cf63:	89 df                	mov    edi,ebx
cf65:	e8 c6 5a ff ff       	call   2a30 <close@plt>
cf6a:	48 89 e8             	mov    rax,rbp
cf6d:	45 89 2c 24          	mov    DWORD PTR [r12],r13d
cf71:	48 83 c4 08          	add    rsp,0x8
cf75:	5b                   	pop    rbx
cf76:	5d                   	pop    rbp
cf77:	41 5c                	pop    r12
cf79:	41 5d                	pop    r13
cf7b:	c3                   	ret
cf7c:	0f 1f 40 00          	nop    DWORD PTR [rax+0x0]
cf80:	48 83 c4 08          	add    rsp,0x8
cf84:	31 ed                	xor    ebp,ebp
cf86:	5b                   	pop    rbx
cf87:	48 89 e8             	mov    rax,rbp
cf8a:	5d                   	pop    rbp
cf8b:	41 5c                	pop    r12
cf8d:	41 5d                	pop    r13
cf8f:	c3                   	ret

000000000000cf90 <set_program_name>:
cf90:	48 85 ff             	test   rdi,rdi
cf93:	53                   	push   rbx
cf94:	74 77                	je     d00d <set_program_name+0x7d>
cf96:	be 2f 00 00 00       	mov    esi,0x2f
cf9b:	48 89 fb             	mov    rbx,rdi
cf9e:	e8 fd 59 ff ff       	call   29a0 <strrchr@plt>
cfa3:	48 85 c0             	test   rax,rax
cfa6:	74 55                	je     cffd <set_program_name+0x6d>
cfa8:	4c 8d 40 01          	lea    r8,[rax+0x1]
cfac:	4c 89 c2             	mov    rdx,r8
cfaf:	48 29 da             	sub    rdx,rbx
cfb2:	48 83 fa 06          	cmp    rdx,0x6
cfb6:	7e 45                	jle    cffd <set_program_name+0x6d>
cfb8:	48 8d 70 fa          	lea    rsi,[rax-0x6]
cfbc:	48 8d 3d 55 83 00 00 	lea    rdi,[rip+0x8355]        # 15318 <default_tuning+0x78>
cfc3:	b9 07 00 00 00       	mov    ecx,0x7
cfc8:	f3 a6                	repz cmps BYTE PTR ds:[rsi],BYTE PTR es:[rdi]
cfca:	0f 97 c2             	seta   dl
cfcd:	80 da 00             	sbb    dl,0x0
cfd0:	84 d2                	test   dl,dl
cfd2:	75 29                	jne    cffd <set_program_name+0x6d>
cfd4:	48 8d 3d 45 83 00 00 	lea    rdi,[rip+0x8345]        # 15320 <default_tuning+0x80>
cfdb:	b9 03 00 00 00       	mov    ecx,0x3
cfe0:	4c 89 c6             	mov    rsi,r8
cfe3:	4c 89 c3             	mov    rbx,r8
cfe6:	f3 a6                	repz cmps BYTE PTR ds:[rsi],BYTE PTR es:[rdi]
cfe8:	0f 97 c2             	seta   dl
cfeb:	80 da 00             	sbb    dl,0x0
cfee:	84 d2                	test   dl,dl
cff0:	75 0b                	jne    cffd <set_program_name+0x6d>
cff2:	48 8d 58 04          	lea    rbx,[rax+0x4]
cff6:	48 89 1d a3 d0 20 00 	mov    QWORD PTR [rip+0x20d0a3],rbx        # 21a0a0 <__progname@@GLIBC_2.2.5>
cffd:	48 89 1d 9c d5 20 00 	mov    QWORD PTR [rip+0x20d59c],rbx        # 21a5a0 <program_name>
d004:	48 89 1d bd d0 20 00 	mov    QWORD PTR [rip+0x20d0bd],rbx        # 21a0c8 <__progname_full@@GLIBC_2.2.5>
d00b:	5b                   	pop    rbx
d00c:	c3                   	ret
d00d:	48 8b 0d cc d0 20 00 	mov    rcx,QWORD PTR [rip+0x20d0cc]        # 21a0e0 <stderr@@GLIBC_2.2.5>
d014:	48 8d 3d c5 82 00 00 	lea    rdi,[rip+0x82c5]        # 152e0 <default_tuning+0x40>
d01b:	ba 37 00 00 00       	mov    edx,0x37
d020:	be 01 00 00 00       	mov    esi,0x1
d025:	e8 76 5d ff ff       	call   2da0 <fwrite@plt>
d02a:	e8 31 57 ff ff       	call   2760 <abort@plt>
d02f:	90                   	nop

000000000000d030 <qcopy_acl>:
d030:	41 54                	push   r12
d032:	55                   	push   rbp
d033:	41 89 cc             	mov    r12d,ecx
d036:	53                   	push   rbx
d037:	48 89 d5             	mov    rbp,rdx
d03a:	44 89 c2             	mov    edx,r8d
d03d:	48 83 ec 10          	sub    rsp,0x10
d041:	48 8d 5c 24 04       	lea    rbx,[rsp+0x4]
d046:	64 48 8b 04 25 28 00 	mov    rax,QWORD PTR fs:0x28
d04d:	00 00
d04f:	48 89 44 24 08       	mov    QWORD PTR [rsp+0x8],rax
d054:	31 c0                	xor    eax,eax
d056:	48 89 d9             	mov    rcx,rbx
d059:	e8 62 44 00 00       	call   114c0 <get_permissions>
d05e:	85 c0                	test   eax,eax
d060:	75 36                	jne    d098 <qcopy_acl+0x68>
d062:	48 89 ee             	mov    rsi,rbp
d065:	48 89 df             	mov    rdi,rbx
d068:	44 89 e2             	mov    edx,r12d
d06b:	e8 80 44 00 00       	call   114f0 <set_permissions>
d070:	48 89 df             	mov    rdi,rbx
d073:	89 c5                	mov    ebp,eax
d075:	e8 36 44 00 00       	call   114b0 <free_permission_context>
d07a:	48 8b 4c 24 08       	mov    rcx,QWORD PTR [rsp+0x8]
d07f:	64 48 33 0c 25 28 00 	xor    rcx,QWORD PTR fs:0x28
d086:	00 00
d088:	89 e8                	mov    eax,ebp
d08a:	75 13                	jne    d09f <qcopy_acl+0x6f>
d08c:	48 83 c4 10          	add    rsp,0x10
d090:	5b                   	pop    rbx
d091:	5d                   	pop    rbp
d092:	41 5c                	pop    r12
d094:	c3                   	ret
d095:	0f 1f 00             	nop    DWORD PTR [rax]
d098:	bd fe ff ff ff       	mov    ebp,0xfffffffe
d09d:	eb db                	jmp    d07a <qcopy_acl+0x4a>
d09f:	e8 8c 58 ff ff       	call   2930 <__stack_chk_fail@plt>
d0a4:	66 2e 0f 1f 84 00 00 	nop    WORD PTR cs:[rax+rax*1+0x0]
d0ab:	00 00 00
d0ae:	66 90                	xchg   ax,ax

000000000000d0b0 <qset_acl>:
d0b0:	55                   	push   rbp
d0b1:	53                   	push   rbx
d0b2:	48 83 ec 18          	sub    rsp,0x18
d0b6:	48 8d 5c 24 04       	lea    rbx,[rsp+0x4]
d0bb:	89 54 24 04          	mov    DWORD PTR [rsp+0x4],edx
d0bf:	89 f2                	mov    edx,esi
d0c1:	48 89 fe             	mov    rsi,rdi
d0c4:	48 89 df             	mov    rdi,rbx
d0c7:	64 48 8b 04 25 28 00 	mov    rax,QWORD PTR fs:0x28
d0ce:	00 00
d0d0:	48 89 44 24 08       	mov    QWORD PTR [rsp+0x8],rax
d0d5:	31 c0                	xor    eax,eax
d0d7:	e8 14 44 00 00       	call   114f0 <set_permissions>
d0dc:	48 89 df             	mov    rdi,rbx
d0df:	89 c5                	mov    ebp,eax
d0e1:	e8 ca 43 00 00       	call   114b0 <free_permission_context>
d0e6:	48 8b 4c 24 08       	mov    rcx,QWORD PTR [rsp+0x8]
d0eb:	64 48 33 0c 25 28 00 	xor    rcx,QWORD PTR fs:0x28
d0f2:	00 00
d0f4:	75 09                	jne    d0ff <qset_acl+0x4f>
d0f6:	48 83 c4 18          	add    rsp,0x18
d0fa:	89 e8                	mov    eax,ebp
d0fc:	5b                   	pop    rbx
d0fd:	5d                   	pop    rbp
d0fe:	c3                   	ret
d0ff:	e8 2c 58 ff ff       	call   2930 <__stack_chk_fail@plt>
d104:	66 2e 0f 1f 84 00 00 	nop    WORD PTR cs:[rax+rax*1+0x0]
d10b:	00 00 00
d10e:	66 90                	xchg   ax,ax

000000000000d110 <gettext_quote.part.1>:
d110:	55                   	push   rbp
d111:	53                   	push   rbx
d112:	48 89 fd             	mov    rbp,rdi
d115:	89 f3                	mov    ebx,esi
d117:	48 83 ec 08          	sub    rsp,0x8
d11b:	e8 20 46 00 00       	call   11740 <locale_charset>
d120:	0f b6 10             	movzx  edx,BYTE PTR [rax]
d123:	83 e2 df             	and    edx,0xffffffdf
d126:	80 fa 55             	cmp    dl,0x55
d129:	74 75                	je     d1a0 <gettext_quote.part.1+0x90>
d12b:	80 fa 47             	cmp    dl,0x47
d12e:	74 20                	je     d150 <gettext_quote.part.1+0x40>
d130:	48 8d 05 fc 81 00 00 	lea    rax,[rip+0x81fc]        # 15333 <default_tuning+0x93>
d137:	48 8d 15 f7 81 00 00 	lea    rdx,[rip+0x81f7]        # 15335 <default_tuning+0x95>
d13e:	83 fb 09             	cmp    ebx,0x9
d141:	48 0f 45 c2          	cmovne rax,rdx
d145:	48 83 c4 08          	add    rsp,0x8
d149:	5b                   	pop    rbx
d14a:	5d                   	pop    rbp
d14b:	c3                   	ret
d14c:	0f 1f 40 00          	nop    DWORD PTR [rax+0x0]
d150:	0f b6 50 01          	movzx  edx,BYTE PTR [rax+0x1]
d154:	83 e2 df             	and    edx,0xffffffdf
d157:	80 fa 42             	cmp    dl,0x42
d15a:	75 d4                	jne    d130 <gettext_quote.part.1+0x20>
d15c:	80 78 02 31          	cmp    BYTE PTR [rax+0x2],0x31
d160:	75 ce                	jne    d130 <gettext_quote.part.1+0x20>
d162:	80 78 03 38          	cmp    BYTE PTR [rax+0x3],0x38
d166:	75 c8                	jne    d130 <gettext_quote.part.1+0x20>
d168:	80 78 04 30          	cmp    BYTE PTR [rax+0x4],0x30
d16c:	75 c2                	jne    d130 <gettext_quote.part.1+0x20>
d16e:	80 78 05 33          	cmp    BYTE PTR [rax+0x5],0x33
d172:	75 bc                	jne    d130 <gettext_quote.part.1+0x20>
d174:	80 78 06 30          	cmp    BYTE PTR [rax+0x6],0x30
d178:	75 b6                	jne    d130 <gettext_quote.part.1+0x20>
d17a:	80 78 07 00          	cmp    BYTE PTR [rax+0x7],0x0
d17e:	75 b0                	jne    d130 <gettext_quote.part.1+0x20>
d180:	80 7d 00 60          	cmp    BYTE PTR [rbp+0x0],0x60
d184:	48 8d 05 a1 81 00 00 	lea    rax,[rip+0x81a1]        # 1532c <default_tuning+0x8c>
d18b:	48 8d 15 9e 81 00 00 	lea    rdx,[rip+0x819e]        # 15330 <default_tuning+0x90>
d192:	48 0f 45 c2          	cmovne rax,rdx
d196:	48 83 c4 08          	add    rsp,0x8
d19a:	5b                   	pop    rbx
d19b:	5d                   	pop    rbp
d19c:	c3                   	ret
d19d:	0f 1f 00             	nop    DWORD PTR [rax]
d1a0:	0f b6 50 01          	movzx  edx,BYTE PTR [rax+0x1]
d1a4:	83 e2 df             	and    edx,0xffffffdf
d1a7:	80 fa 54             	cmp    dl,0x54
d1aa:	75 84                	jne    d130 <gettext_quote.part.1+0x20>
d1ac:	0f b6 50 02          	movzx  edx,BYTE PTR [rax+0x2]
d1b0:	83 e2 df             	and    edx,0xffffffdf
d1b3:	80 fa 46             	cmp    dl,0x46
d1b6:	0f 85 74 ff ff ff    	jne    d130 <gettext_quote.part.1+0x20>
d1bc:	80 78 03 2d          	cmp    BYTE PTR [rax+0x3],0x2d
d1c0:	0f 85 6a ff ff ff    	jne    d130 <gettext_quote.part.1+0x20>
d1c6:	80 78 04 38          	cmp    BYTE PTR [rax+0x4],0x38
d1ca:	0f 85 60 ff ff ff    	jne    d130 <gettext_quote.part.1+0x20>
d1d0:	80 78 05 00          	cmp    BYTE PTR [rax+0x5],0x0
d1d4:	0f 85 56 ff ff ff    	jne    d130 <gettext_quote.part.1+0x20>
d1da:	80 7d 00 60          	cmp    BYTE PTR [rbp+0x0],0x60
d1de:	48 8d 05 3f 81 00 00 	lea    rax,[rip+0x813f]        # 15324 <default_tuning+0x84>
d1e5:	48 8d 15 3c 81 00 00 	lea    rdx,[rip+0x813c]        # 15328 <default_tuning+0x88>
d1ec:	48 0f 45 c2          	cmovne rax,rdx
d1f0:	48 83 c4 08          	add    rsp,0x8
d1f4:	5b                   	pop    rbx
d1f5:	5d                   	pop    rbp
d1f6:	c3                   	ret
d1f7:	66 0f 1f 84 00 00 00 	nop    WORD PTR [rax+rax*1+0x0]
d1fe:	00 00

000000000000d200 <quotearg_buffer_restyled>:
d200:	41 57                	push   r15
d202:	41 56                	push   r14
d204:	45 89 c7             	mov    r15d,r8d
d207:	41 55                	push   r13
d209:	41 54                	push   r12
d20b:	49 89 fe             	mov    r14,rdi
d20e:	55                   	push   rbp
d20f:	53                   	push   rbx
d210:	44 89 cb             	mov    ebx,r9d
d213:	49 89 f5             	mov    r13,rsi
d216:	48 89 cd             	mov    rbp,rcx
d219:	83 e3 02             	and    ebx,0x2
d21c:	48 81 ec b8 00 00 00 	sub    rsp,0xb8
d223:	48 8b 84 24 f0 00 00 	mov    rax,QWORD PTR [rsp+0xf0]
d22a:	00
d22b:	48 89 54 24 10       	mov    QWORD PTR [rsp+0x10],rdx
d230:	44 89 44 24 08       	mov    DWORD PTR [rsp+0x8],r8d
d235:	44 89 4c 24 78       	mov    DWORD PTR [rsp+0x78],r9d
d23a:	48 89 44 24 20       	mov    QWORD PTR [rsp+0x20],rax
d23f:	48 8b 84 24 f8 00 00 	mov    rax,QWORD PTR [rsp+0xf8]
d246:	00
d247:	48 89 44 24 68       	mov    QWORD PTR [rsp+0x68],rax
d24c:	48 8b 84 24 00 01 00 	mov    rax,QWORD PTR [rsp+0x100]
d253:	00
d254:	48 89 44 24 60       	mov    QWORD PTR [rsp+0x60],rax
d259:	64 48 8b 04 25 28 00 	mov    rax,QWORD PTR fs:0x28
d260:	00 00
d262:	48 89 84 24 a8 00 00 	mov    QWORD PTR [rsp+0xa8],rax
d269:	00
d26a:	31 c0                	xor    eax,eax
d26c:	e8 7f 56 ff ff       	call   28f0 <__ctype_get_mb_cur_max@plt>
d271:	41 83 ff 0a          	cmp    r15d,0xa
d275:	48 89 44 24 58       	mov    QWORD PTR [rsp+0x58],rax
d27a:	0f 87 af 11 00 00    	ja     e42f <quotearg_buffer_restyled+0x122f>
d280:	48 8d 0d 19 81 00 00 	lea    rcx,[rip+0x8119]        # 153a0 <default_tuning+0x100>
d287:	44 89 fa             	mov    edx,r15d
d28a:	48 63 04 91          	movsxd rax,DWORD PTR [rcx+rdx*4]
d28e:	48 01 c8             	add    rax,rcx
d291:	ff e0                	jmp    rax
d293:	c6 44 24 0e 01       	mov    BYTE PTR [rsp+0xe],0x1
d298:	c6 44 24 7c 00       	mov    BYTE PTR [rsp+0x7c],0x0
d29d:	45 31 e4             	xor    r12d,r12d
d2a0:	48 c7 44 24 50 00 00 	mov    QWORD PTR [rsp+0x50],0x0
d2a7:	00 00
d2a9:	c6 44 24 0f 01       	mov    BYTE PTR [rsp+0xf],0x1
d2ae:	c6 44 24 0d 00       	mov    BYTE PTR [rsp+0xd],0x0
d2b3:	48 8d 05 7b 80 00 00 	lea    rax,[rip+0x807b]        # 15335 <default_tuning+0x95>
d2ba:	48 c7 44 24 18 01 00 	mov    QWORD PTR [rsp+0x18],0x1
d2c1:	00 00
d2c3:	45 31 ff             	xor    r15d,r15d
d2c6:	c7 44 24 08 02 00 00 	mov    DWORD PTR [rsp+0x8],0x2
d2cd:	00
d2ce:	48 89 44 24 48       	mov    QWORD PTR [rsp+0x48],rax
d2d3:	45 31 db             	xor    r11d,r11d
d2d6:	48 89 e8             	mov    rax,rbp
d2d9:	45 89 e0             	mov    r8d,r12d
d2dc:	4c 89 dd             	mov    rbp,r11
d2df:	49 89 c3             	mov    r11,rax
d2e2:	66 0f 1f 44 00 00    	nop    WORD PTR [rax+rax*1+0x0]
d2e8:	49 39 eb             	cmp    r11,rbp
d2eb:	41 0f 95 c4          	setne  r12b
d2ef:	49 83 fb ff          	cmp    r11,0xffffffffffffffff
d2f3:	75 0d                	jne    d302 <quotearg_buffer_restyled+0x102>
d2f5:	48 8b 44 24 10       	mov    rax,QWORD PTR [rsp+0x10]
d2fa:	80 3c 28 00          	cmp    BYTE PTR [rax+rbp*1],0x0
d2fe:	41 0f 95 c4          	setne  r12b
d302:	45 84 e4             	test   r12b,r12b
d305:	0f 84 55 06 00 00    	je     d960 <quotearg_buffer_restyled+0x760>
d30b:	83 7c 24 08 02       	cmp    DWORD PTR [rsp+0x8],0x2
d310:	48 8b 7c 24 10       	mov    rdi,QWORD PTR [rsp+0x10]
d315:	4c 8d 0c 2f          	lea    r9,[rdi+rbp*1]
d319:	0f 95 c0             	setne  al
d31c:	22 44 24 0d          	and    al,BYTE PTR [rsp+0xd]
d320:	41 89 c2             	mov    r10d,eax
d323:	0f 84 a7 00 00 00    	je     d3d0 <quotearg_buffer_restyled+0x1d0>
d329:	48 8b 44 24 18       	mov    rax,QWORD PTR [rsp+0x18]
d32e:	48 85 c0             	test   rax,rax
d331:	0f 84 29 04 00 00    	je     d760 <quotearg_buffer_restyled+0x560>
d337:	49 83 fb ff          	cmp    r11,0xffffffffffffffff
d33b:	48 8d 5c 05 00       	lea    rbx,[rbp+rax*1+0x0]
d340:	75 2e                	jne    d370 <quotearg_buffer_restyled+0x170>
d342:	48 83 f8 01          	cmp    rax,0x1
d346:	76 28                	jbe    d370 <quotearg_buffer_restyled+0x170>
d348:	44 88 44 24 38       	mov    BYTE PTR [rsp+0x38],r8b
d34d:	44 88 54 24 30       	mov    BYTE PTR [rsp+0x30],r10b
d352:	4c 89 4c 24 28       	mov    QWORD PTR [rsp+0x28],r9
d357:	e8 a4 55 ff ff       	call   2900 <strlen@plt>
d35c:	44 0f b6 44 24 38    	movzx  r8d,BYTE PTR [rsp+0x38]
d362:	44 0f b6 54 24 30    	movzx  r10d,BYTE PTR [rsp+0x30]
d368:	49 89 c3             	mov    r11,rax
d36b:	4c 8b 4c 24 28       	mov    r9,QWORD PTR [rsp+0x28]
d370:	4c 39 db             	cmp    rbx,r11
d373:	44 88 54 24 28       	mov    BYTE PTR [rsp+0x28],r10b
d378:	0f 87 b2 05 00 00    	ja     d930 <quotearg_buffer_restyled+0x730>
d37e:	48 8b 54 24 18       	mov    rdx,QWORD PTR [rsp+0x18]
d383:	48 8b 74 24 48       	mov    rsi,QWORD PTR [rsp+0x48]
d388:	4c 89 cf             	mov    rdi,r9
d38b:	4c 89 5c 24 40       	mov    QWORD PTR [rsp+0x40],r11
d390:	44 88 44 24 38       	mov    BYTE PTR [rsp+0x38],r8b
d395:	4c 89 4c 24 30       	mov    QWORD PTR [rsp+0x30],r9
d39a:	e8 f1 56 ff ff       	call   2a90 <memcmp@plt>
d39f:	85 c0                	test   eax,eax
d3a1:	4c 8b 4c 24 30       	mov    r9,QWORD PTR [rsp+0x30]
d3a6:	44 0f b6 44 24 38    	movzx  r8d,BYTE PTR [rsp+0x38]
d3ac:	4c 8b 5c 24 40       	mov    r11,QWORD PTR [rsp+0x40]
d3b1:	0f 85 79 05 00 00    	jne    d930 <quotearg_buffer_restyled+0x730>
d3b7:	80 7c 24 0f 00       	cmp    BYTE PTR [rsp+0xf],0x0
d3bc:	44 0f b6 54 24 28    	movzx  r10d,BYTE PTR [rsp+0x28]
d3c2:	0f 85 7d 0f 00 00    	jne    e345 <quotearg_buffer_restyled+0x1145>
d3c8:	0f 1f 84 00 00 00 00 	nop    DWORD PTR [rax+rax*1+0x0]
d3cf:	00
d3d0:	41 0f b6 19          	movzx  ebx,BYTE PTR [r9]
d3d4:	80 fb 7e             	cmp    bl,0x7e
d3d7:	0f 87 1b 03 00 00    	ja     d6f8 <quotearg_buffer_restyled+0x4f8>
d3dd:	48 8d 0d e8 7f 00 00 	lea    rcx,[rip+0x7fe8]        # 153cc <default_tuning+0x12c>
d3e4:	0f b6 d3             	movzx  edx,bl
d3e7:	48 63 04 91          	movsxd rax,DWORD PTR [rcx+rdx*4]
d3eb:	48 01 c8             	add    rax,rcx
d3ee:	ff e0                	jmp    rax
d3f0:	45 31 d2             	xor    r10d,r10d
d3f3:	49 83 fb 01          	cmp    r11,0x1
d3f7:	0f 95 c0             	setne  al
d3fa:	49 83 fb ff          	cmp    r11,0xffffffffffffffff
d3fe:	75 0c                	jne    d40c <quotearg_buffer_restyled+0x20c>
d400:	48 8b 44 24 10       	mov    rax,QWORD PTR [rsp+0x10]
d405:	80 78 01 00          	cmp    BYTE PTR [rax+0x1],0x0
d409:	0f 95 c0             	setne  al
d40c:	83 7c 24 08 02       	cmp    DWORD PTR [rsp+0x8],0x2
d411:	0f 94 c2             	sete   dl
d414:	84 c0                	test   al,al
d416:	0f 84 4c 02 00 00    	je     d668 <quotearg_buffer_restyled+0x468>
d41c:	45 31 e4             	xor    r12d,r12d
d41f:	31 c0                	xor    eax,eax
d421:	0f 1f 80 00 00 00 00 	nop    DWORD PTR [rax+0x0]
d428:	80 7c 24 0d 01       	cmp    BYTE PTR [rsp+0xd],0x1
d42d:	0f 85 0f 01 00 00    	jne    d542 <quotearg_buffer_restyled+0x342>
d433:	84 d2                	test   dl,dl
d435:	0f 85 07 01 00 00    	jne    d542 <quotearg_buffer_restyled+0x342>
d43b:	48 8b 74 24 20       	mov    rsi,QWORD PTR [rsp+0x20]
d440:	48 85 f6             	test   rsi,rsi
d443:	74 14                	je     d459 <quotearg_buffer_restyled+0x259>
d445:	89 da                	mov    edx,ebx
d447:	c0 ea 05             	shr    dl,0x5
d44a:	0f b6 d2             	movzx  edx,dl
d44d:	8b 14 96             	mov    edx,DWORD PTR [rsi+rdx*4]
d450:	0f a3 da             	bt     edx,ebx
d453:	0f 82 4a 01 00 00    	jb     d5a3 <quotearg_buffer_restyled+0x3a3>
d459:	45 84 d2             	test   r10b,r10b
d45c:	0f 85 41 01 00 00    	jne    d5a3 <quotearg_buffer_restyled+0x3a3>
d462:	83 f0 01             	xor    eax,0x1
d465:	48 83 c5 01          	add    rbp,0x1
d469:	44 21 c0             	and    eax,r8d
d46c:	84 c0                	test   al,al
d46e:	74 20                	je     d490 <quotearg_buffer_restyled+0x290>
d470:	4d 39 fd             	cmp    r13,r15
d473:	76 05                	jbe    d47a <quotearg_buffer_restyled+0x27a>
d475:	43 c6 04 3e 27       	mov    BYTE PTR [r14+r15*1],0x27
d47a:	49 8d 47 01          	lea    rax,[r15+0x1]
d47e:	49 39 c5             	cmp    r13,rax
d481:	76 06                	jbe    d489 <quotearg_buffer_restyled+0x289>
d483:	43 c6 44 3e 01 27    	mov    BYTE PTR [r14+r15*1+0x1],0x27
d489:	49 83 c7 02          	add    r15,0x2
d48d:	45 31 c0             	xor    r8d,r8d
d490:	4d 39 ef             	cmp    r15,r13
d493:	73 04                	jae    d499 <quotearg_buffer_restyled+0x299>
d495:	43 88 1c 3e          	mov    BYTE PTR [r14+r15*1],bl
d499:	0f b6 7c 24 0e       	movzx  edi,BYTE PTR [rsp+0xe]
d49e:	49 83 c7 01          	add    r15,0x1
d4a2:	b8 00 00 00 00       	mov    eax,0x0
d4a7:	45 84 e4             	test   r12b,r12b
d4aa:	0f 44 f8             	cmove  edi,eax
d4ad:	40 88 7c 24 0e       	mov    BYTE PTR [rsp+0xe],dil
d4b2:	e9 31 fe ff ff       	jmp    d2e8 <quotearg_buffer_restyled+0xe8>
d4b7:	66 0f 1f 84 00 00 00 	nop    WORD PTR [rax+rax*1+0x0]
d4be:	00 00
d4c0:	45 31 d2             	xor    r10d,r10d
d4c3:	8b 44 24 08          	mov    eax,DWORD PTR [rsp+0x8]
d4c7:	83 f8 02             	cmp    eax,0x2
d4ca:	0f 84 b8 05 00 00    	je     da88 <quotearg_buffer_restyled+0x888>
d4d0:	83 f8 05             	cmp    eax,0x5
d4d3:	0f 84 6f 05 00 00    	je     da48 <quotearg_buffer_restyled+0x848>
d4d9:	83 f8 02             	cmp    eax,0x2
d4dc:	bb 3f 00 00 00       	mov    ebx,0x3f
d4e1:	0f 94 c2             	sete   dl
d4e4:	45 31 e4             	xor    r12d,r12d
d4e7:	31 c0                	xor    eax,eax
d4e9:	e9 3a ff ff ff       	jmp    d428 <quotearg_buffer_restyled+0x228>
d4ee:	66 90                	xchg   ax,ax
d4f0:	45 31 d2             	xor    r10d,r10d
d4f3:	83 7c 24 08 02       	cmp    DWORD PTR [rsp+0x8],0x2
d4f8:	0f 84 02 05 00 00    	je     da00 <quotearg_buffer_restyled+0x800>
d4fe:	44 88 64 24 7c       	mov    BYTE PTR [rsp+0x7c],r12b
d503:	31 d2                	xor    edx,edx
d505:	31 c0                	xor    eax,eax
d507:	bb 27 00 00 00       	mov    ebx,0x27
d50c:	e9 17 ff ff ff       	jmp    d428 <quotearg_buffer_restyled+0x228>
d511:	0f 1f 80 00 00 00 00 	nop    DWORD PTR [rax+0x0]
d518:	ba 09 00 00 00       	mov    edx,0x9
d51d:	bb 74 00 00 00       	mov    ebx,0x74
d522:	83 7c 24 08 02       	cmp    DWORD PTR [rsp+0x8],0x2
d527:	0f 94 c0             	sete   al
d52a:	22 44 24 0f          	and    al,BYTE PTR [rsp+0xf]
d52e:	0f 85 4a 01 00 00    	jne    d67e <quotearg_buffer_restyled+0x47e>
d534:	80 7c 24 0d 00       	cmp    BYTE PTR [rsp+0xd],0x0
d539:	75 65                	jne    d5a0 <quotearg_buffer_restyled+0x3a0>
d53b:	89 d3                	mov    ebx,edx
d53d:	45 31 e4             	xor    r12d,r12d
d540:	31 c0                	xor    eax,eax
d542:	80 7c 24 0f 00       	cmp    BYTE PTR [rsp+0xf],0x0
d547:	0f 85 ee fe ff ff    	jne    d43b <quotearg_buffer_restyled+0x23b>
d54d:	e9 07 ff ff ff       	jmp    d459 <quotearg_buffer_restyled+0x259>
d552:	66 0f 1f 44 00 00    	nop    WORD PTR [rax+rax*1+0x0]
d558:	ba 08 00 00 00       	mov    edx,0x8
d55d:	bb 62 00 00 00       	mov    ebx,0x62
d562:	eb d0                	jmp    d534 <quotearg_buffer_restyled+0x334>
d564:	0f 1f 40 00          	nop    DWORD PTR [rax+0x0]
d568:	83 7c 24 08 02       	cmp    DWORD PTR [rsp+0x8],0x2
d56d:	0f 84 cd 03 00 00    	je     d940 <quotearg_buffer_restyled+0x740>
d573:	80 7c 24 0d 00       	cmp    BYTE PTR [rsp+0xd],0x0
d578:	0f 84 12 02 00 00    	je     d790 <quotearg_buffer_restyled+0x590>
d57e:	80 7c 24 0f 00       	cmp    BYTE PTR [rsp+0xf],0x0
d583:	0f 84 07 02 00 00    	je     d790 <quotearg_buffer_restyled+0x590>
d589:	48 83 7c 24 18 00    	cmp    QWORD PTR [rsp+0x18],0x0
d58f:	0f 85 b6 03 00 00    	jne    d94b <quotearg_buffer_restyled+0x74b>
d595:	bb 5c 00 00 00       	mov    ebx,0x5c
d59a:	66 0f 1f 44 00 00    	nop    WORD PTR [rax+rax*1+0x0]
d5a0:	45 31 e4             	xor    r12d,r12d
d5a3:	83 7c 24 08 02       	cmp    DWORD PTR [rsp+0x8],0x2
d5a8:	0f 94 c2             	sete   dl
d5ab:	80 7c 24 0f 00       	cmp    BYTE PTR [rsp+0xf],0x0
d5b0:	89 d0                	mov    eax,edx
d5b2:	0f 85 50 08 00 00    	jne    de08 <quotearg_buffer_restyled+0xc08>
d5b8:	44 89 c0             	mov    eax,r8d
d5bb:	83 f0 01             	xor    eax,0x1
d5be:	20 d0                	and    al,dl
d5c0:	74 2f                	je     d5f1 <quotearg_buffer_restyled+0x3f1>
d5c2:	4d 39 fd             	cmp    r13,r15
d5c5:	76 05                	jbe    d5cc <quotearg_buffer_restyled+0x3cc>
d5c7:	43 c6 04 3e 27       	mov    BYTE PTR [r14+r15*1],0x27
d5cc:	49 8d 57 01          	lea    rdx,[r15+0x1]
d5d0:	49 39 d5             	cmp    r13,rdx
d5d3:	76 06                	jbe    d5db <quotearg_buffer_restyled+0x3db>
d5d5:	43 c6 44 3e 01 24    	mov    BYTE PTR [r14+r15*1+0x1],0x24
d5db:	49 8d 57 02          	lea    rdx,[r15+0x2]
d5df:	49 39 d5             	cmp    r13,rdx
d5e2:	76 06                	jbe    d5ea <quotearg_buffer_restyled+0x3ea>
d5e4:	43 c6 44 3e 02 27    	mov    BYTE PTR [r14+r15*1+0x2],0x27
d5ea:	49 83 c7 03          	add    r15,0x3
d5ee:	41 89 c0             	mov    r8d,eax
d5f1:	4d 39 fd             	cmp    r13,r15
d5f4:	76 05                	jbe    d5fb <quotearg_buffer_restyled+0x3fb>
d5f6:	43 c6 04 3e 5c       	mov    BYTE PTR [r14+r15*1],0x5c
d5fb:	49 83 c7 01          	add    r15,0x1
d5ff:	48 83 c5 01          	add    rbp,0x1
d603:	e9 88 fe ff ff       	jmp    d490 <quotearg_buffer_restyled+0x290>
d608:	0f 1f 84 00 00 00 00 	nop    DWORD PTR [rax+rax*1+0x0]
d60f:	00
d610:	80 7c 24 0d 00       	cmp    BYTE PTR [rsp+0xd],0x0
d615:	0f 85 c8 01 00 00    	jne    d7e3 <quotearg_buffer_restyled+0x5e3>
d61b:	31 d2                	xor    edx,edx
d61d:	f6 44 24 78 01       	test   BYTE PTR [rsp+0x78],0x1
d622:	0f 84 13 ff ff ff    	je     d53b <quotearg_buffer_restyled+0x33b>
d628:	48 83 c5 01          	add    rbp,0x1
d62c:	e9 b7 fc ff ff       	jmp    d2e8 <quotearg_buffer_restyled+0xe8>
d631:	0f 1f 80 00 00 00 00 	nop    DWORD PTR [rax+0x0]
d638:	83 7c 24 08 02       	cmp    DWORD PTR [rsp+0x8],0x2
d63d:	0f 94 c2             	sete   dl
d640:	31 c0                	xor    eax,eax
d642:	e9 e1 fd ff ff       	jmp    d428 <quotearg_buffer_restyled+0x228>
d647:	66 0f 1f 84 00 00 00 	nop    WORD PTR [rax+rax*1+0x0]
d64e:	00 00
d650:	ba 07 00 00 00       	mov    edx,0x7
d655:	bb 61 00 00 00       	mov    ebx,0x61
d65a:	e9 d5 fe ff ff       	jmp    d534 <quotearg_buffer_restyled+0x334>
d65f:	90                   	nop
d660:	83 7c 24 08 02       	cmp    DWORD PTR [rsp+0x8],0x2
d665:	0f 94 c2             	sete   dl
d668:	48 85 ed             	test   rbp,rbp
d66b:	0f 85 ab fd ff ff    	jne    d41c <quotearg_buffer_restyled+0x21c>
d671:	0f b6 44 24 0f       	movzx  eax,BYTE PTR [rsp+0xf]
d676:	20 d0                	and    al,dl
d678:	0f 84 aa fd ff ff    	je     d428 <quotearg_buffer_restyled+0x228>
d67e:	4c 89 dd             	mov    rbp,r11
d681:	c7 44 24 08 02 00 00 	mov    DWORD PTR [rsp+0x8],0x2
d688:	00
d689:	e9 fb 06 00 00       	jmp    dd89 <quotearg_buffer_restyled+0xb89>
d68e:	66 90                	xchg   ax,ax
d690:	83 7c 24 08 02       	cmp    DWORD PTR [rsp+0x8],0x2
d695:	0f 94 c2             	sete   dl
d698:	45 31 e4             	xor    r12d,r12d
d69b:	eb d4                	jmp    d671 <quotearg_buffer_restyled+0x471>
d69d:	0f 1f 00             	nop    DWORD PTR [rax]
d6a0:	83 7c 24 08 02       	cmp    DWORD PTR [rsp+0x8],0x2
d6a5:	bb 20 00 00 00       	mov    ebx,0x20
d6aa:	0f 94 c2             	sete   dl
d6ad:	eb c2                	jmp    d671 <quotearg_buffer_restyled+0x471>
d6af:	90                   	nop
d6b0:	ba 0d 00 00 00       	mov    edx,0xd
d6b5:	bb 72 00 00 00       	mov    ebx,0x72
d6ba:	e9 63 fe ff ff       	jmp    d522 <quotearg_buffer_restyled+0x322>
d6bf:	90                   	nop
d6c0:	ba 0c 00 00 00       	mov    edx,0xc
d6c5:	bb 66 00 00 00       	mov    ebx,0x66
d6ca:	e9 65 fe ff ff       	jmp    d534 <quotearg_buffer_restyled+0x334>
d6cf:	90                   	nop
d6d0:	ba 0b 00 00 00       	mov    edx,0xb
d6d5:	bb 76 00 00 00       	mov    ebx,0x76
d6da:	e9 55 fe ff ff       	jmp    d534 <quotearg_buffer_restyled+0x334>
d6df:	90                   	nop
d6e0:	ba 0a 00 00 00       	mov    edx,0xa
d6e5:	bb 6e 00 00 00       	mov    ebx,0x6e
d6ea:	e9 33 fe ff ff       	jmp    d522 <quotearg_buffer_restyled+0x322>
d6ef:	90                   	nop
d6f0:	45 31 d2             	xor    r10d,r10d
d6f3:	0f 1f 44 00 00       	nop    DWORD PTR [rax+rax*1+0x0]
d6f8:	48 83 7c 24 58 01    	cmp    QWORD PTR [rsp+0x58],0x1
d6fe:	0f 85 a4 03 00 00    	jne    daa8 <quotearg_buffer_restyled+0x8a8>
d704:	4c 89 5c 24 38       	mov    QWORD PTR [rsp+0x38],r11
d709:	44 88 44 24 30       	mov    BYTE PTR [rsp+0x30],r8b
d70e:	44 88 54 24 28       	mov    BYTE PTR [rsp+0x28],r10b
d713:	e8 e8 56 ff ff       	call   2e00 <__ctype_b_loc@plt>
d718:	48 8b 08             	mov    rcx,QWORD PTR [rax]
d71b:	0f b6 d3             	movzx  edx,bl
d71e:	44 0f b6 54 24 28    	movzx  r10d,BYTE PTR [rsp+0x28]
d724:	44 0f b6 44 24 30    	movzx  r8d,BYTE PTR [rsp+0x30]
d72a:	4c 8b 5c 24 38       	mov    r11,QWORD PTR [rsp+0x38]
d72f:	bf 01 00 00 00       	mov    edi,0x1
d734:	0f b7 04 51          	movzx  eax,WORD PTR [rcx+rdx*2]
d738:	66 25 00 40          	and    ax,0x4000
d73c:	41 0f 95 c4          	setne  r12b
d740:	0f 94 c0             	sete   al
d743:	22 44 24 0d          	and    al,BYTE PTR [rsp+0xd]
d747:	84 c0                	test   al,al
d749:	0f 85 92 09 00 00    	jne    e0e1 <quotearg_buffer_restyled+0xee1>
d74f:	83 7c 24 08 02       	cmp    DWORD PTR [rsp+0x8],0x2
d754:	0f 94 c2             	sete   dl
d757:	e9 cc fc ff ff       	jmp    d428 <quotearg_buffer_restyled+0x228>
d75c:	0f 1f 40 00          	nop    DWORD PTR [rax+0x0]
d760:	41 0f b6 19          	movzx  ebx,BYTE PTR [r9]
d764:	80 fb 7e             	cmp    bl,0x7e
d767:	77 87                	ja     d6f0 <quotearg_buffer_restyled+0x4f0>
d769:	48 8d 0d 58 7e 00 00 	lea    rcx,[rip+0x7e58]        # 155c8 <default_tuning+0x328>
d770:	0f b6 d3             	movzx  edx,bl
d773:	48 63 04 91          	movsxd rax,DWORD PTR [rcx+rdx*4]
d777:	48 01 c8             	add    rax,rcx
d77a:	ff e0                	jmp    rax
d77c:	0f 1f 40 00          	nop    DWORD PTR [rax+0x0]
d780:	45 31 d2             	xor    r10d,r10d
d783:	80 7c 24 0d 00       	cmp    BYTE PTR [rsp+0xd],0x0
d788:	0f 85 f0 fd ff ff    	jne    d57e <quotearg_buffer_restyled+0x37e>
d78e:	66 90                	xchg   ax,ax
d790:	ba 5c 00 00 00       	mov    edx,0x5c
d795:	bb 5c 00 00 00       	mov    ebx,0x5c
d79a:	e9 95 fd ff ff       	jmp    d534 <quotearg_buffer_restyled+0x334>
d79f:	90                   	nop
d7a0:	ba 0c 00 00 00       	mov    edx,0xc
d7a5:	45 31 d2             	xor    r10d,r10d
d7a8:	bb 66 00 00 00       	mov    ebx,0x66
d7ad:	e9 82 fd ff ff       	jmp    d534 <quotearg_buffer_restyled+0x334>
d7b2:	66 0f 1f 44 00 00    	nop    WORD PTR [rax+rax*1+0x0]
d7b8:	ba 0a 00 00 00       	mov    edx,0xa
d7bd:	45 31 d2             	xor    r10d,r10d
d7c0:	bb 6e 00 00 00       	mov    ebx,0x6e
d7c5:	e9 58 fd ff ff       	jmp    d522 <quotearg_buffer_restyled+0x322>
d7ca:	66 0f 1f 44 00 00    	nop    WORD PTR [rax+rax*1+0x0]
d7d0:	bb 61 00 00 00       	mov    ebx,0x61
d7d5:	e9 c6 fd ff ff       	jmp    d5a0 <quotearg_buffer_restyled+0x3a0>
d7da:	66 0f 1f 44 00 00    	nop    WORD PTR [rax+rax*1+0x0]
d7e0:	45 31 d2             	xor    r10d,r10d
d7e3:	83 7c 24 08 02       	cmp    DWORD PTR [rsp+0x8],0x2
d7e8:	0f 94 c2             	sete   dl
d7eb:	80 7c 24 0f 00       	cmp    BYTE PTR [rsp+0xf],0x0
d7f0:	0f 85 94 0b 00 00    	jne    e38a <quotearg_buffer_restyled+0x118a>
d7f6:	44 89 c0             	mov    eax,r8d
d7f9:	4c 89 f9             	mov    rcx,r15
d7fc:	83 f0 01             	xor    eax,0x1
d7ff:	20 d0                	and    al,dl
d801:	74 2d                	je     d830 <quotearg_buffer_restyled+0x630>
d803:	4d 39 fd             	cmp    r13,r15
d806:	76 05                	jbe    d80d <quotearg_buffer_restyled+0x60d>
d808:	43 c6 04 3e 27       	mov    BYTE PTR [r14+r15*1],0x27
d80d:	49 8d 4f 01          	lea    rcx,[r15+0x1]
d811:	49 39 cd             	cmp    r13,rcx
d814:	76 06                	jbe    d81c <quotearg_buffer_restyled+0x61c>
d816:	43 c6 44 3e 01 24    	mov    BYTE PTR [r14+r15*1+0x1],0x24
d81c:	49 8d 4f 02          	lea    rcx,[r15+0x2]
d820:	49 39 cd             	cmp    r13,rcx
d823:	0f 87 30 06 00 00    	ja     de59 <quotearg_buffer_restyled+0xc59>
d829:	49 8d 4f 03          	lea    rcx,[r15+0x3]
d82d:	41 89 c0             	mov    r8d,eax
d830:	49 39 cd             	cmp    r13,rcx
d833:	76 05                	jbe    d83a <quotearg_buffer_restyled+0x63a>
d835:	41 c6 04 0e 5c       	mov    BYTE PTR [r14+rcx*1],0x5c
d83a:	83 7c 24 08 02       	cmp    DWORD PTR [rsp+0x8],0x2
d83f:	4c 8d 79 01          	lea    r15,[rcx+0x1]
d843:	0f 84 00 06 00 00    	je     de49 <quotearg_buffer_restyled+0xc49>
d849:	48 8d 45 01          	lea    rax,[rbp+0x1]
d84d:	4c 39 d8             	cmp    rax,r11
d850:	73 19                	jae    d86b <quotearg_buffer_restyled+0x66b>
d852:	48 8b 44 24 10       	mov    rax,QWORD PTR [rsp+0x10]
d857:	0f b6 44 28 01       	movzx  eax,BYTE PTR [rax+rbp*1+0x1]
d85c:	88 44 24 28          	mov    BYTE PTR [rsp+0x28],al
d860:	83 e8 30             	sub    eax,0x30
d863:	3c 09                	cmp    al,0x9
d865:	0f 86 2e 08 00 00    	jbe    e099 <quotearg_buffer_restyled+0xe99>
d86b:	44 89 e0             	mov    eax,r12d
d86e:	bb 30 00 00 00       	mov    ebx,0x30
d873:	45 31 e4             	xor    r12d,r12d
d876:	e9 ad fb ff ff       	jmp    d428 <quotearg_buffer_restyled+0x228>
d87b:	0f 1f 44 00 00       	nop    DWORD PTR [rax+rax*1+0x0]
d880:	83 7c 24 08 02       	cmp    DWORD PTR [rsp+0x8],0x2
d885:	45 89 d4             	mov    r12d,r10d
d888:	0f 94 c2             	sete   dl
d88b:	45 31 d2             	xor    r10d,r10d
d88e:	31 c0                	xor    eax,eax
d890:	e9 93 fb ff ff       	jmp    d428 <quotearg_buffer_restyled+0x228>
d895:	0f 1f 00             	nop    DWORD PTR [rax]
d898:	83 7c 24 08 02       	cmp    DWORD PTR [rsp+0x8],0x2
d89d:	0f 94 c2             	sete   dl
d8a0:	45 31 d2             	xor    r10d,r10d
d8a3:	e9 c0 fd ff ff       	jmp    d668 <quotearg_buffer_restyled+0x468>
d8a8:	0f 1f 84 00 00 00 00 	nop    DWORD PTR [rax+rax*1+0x0]
d8af:	00
d8b0:	83 7c 24 08 02       	cmp    DWORD PTR [rsp+0x8],0x2
d8b5:	0f 94 c2             	sete   dl
d8b8:	45 31 d2             	xor    r10d,r10d
d8bb:	45 31 e4             	xor    r12d,r12d
d8be:	e9 ae fd ff ff       	jmp    d671 <quotearg_buffer_restyled+0x471>
d8c3:	0f 1f 44 00 00       	nop    DWORD PTR [rax+rax*1+0x0]
d8c8:	83 7c 24 08 02       	cmp    DWORD PTR [rsp+0x8],0x2
d8cd:	45 89 d4             	mov    r12d,r10d
d8d0:	bb 20 00 00 00       	mov    ebx,0x20
d8d5:	0f 94 c2             	sete   dl
d8d8:	45 31 d2             	xor    r10d,r10d
d8db:	e9 91 fd ff ff       	jmp    d671 <quotearg_buffer_restyled+0x471>
d8e0:	ba 0d 00 00 00       	mov    edx,0xd
d8e5:	45 31 d2             	xor    r10d,r10d
d8e8:	bb 72 00 00 00       	mov    ebx,0x72
d8ed:	e9 30 fc ff ff       	jmp    d522 <quotearg_buffer_restyled+0x322>
d8f2:	66 0f 1f 44 00 00    	nop    WORD PTR [rax+rax*1+0x0]
d8f8:	bb 76 00 00 00       	mov    ebx,0x76
d8fd:	e9 9e fc ff ff       	jmp    d5a0 <quotearg_buffer_restyled+0x3a0>
d902:	66 0f 1f 44 00 00    	nop    WORD PTR [rax+rax*1+0x0]
d908:	ba 09 00 00 00       	mov    edx,0x9
d90d:	45 31 d2             	xor    r10d,r10d
d910:	bb 74 00 00 00       	mov    ebx,0x74
d915:	e9 08 fc ff ff       	jmp    d522 <quotearg_buffer_restyled+0x322>
d91a:	66 0f 1f 44 00 00    	nop    WORD PTR [rax+rax*1+0x0]
d920:	bb 62 00 00 00       	mov    ebx,0x62
d925:	e9 76 fc ff ff       	jmp    d5a0 <quotearg_buffer_restyled+0x3a0>
d92a:	66 0f 1f 44 00 00    	nop    WORD PTR [rax+rax*1+0x0]
d930:	45 31 d2             	xor    r10d,r10d
d933:	e9 98 fa ff ff       	jmp    d3d0 <quotearg_buffer_restyled+0x1d0>
d938:	0f 1f 84 00 00 00 00 	nop    DWORD PTR [rax+rax*1+0x0]
d93f:	00
d940:	80 7c 24 0f 00       	cmp    BYTE PTR [rsp+0xf],0x0
d945:	0f 85 65 09 00 00    	jne    e2b0 <quotearg_buffer_restyled+0x10b0>
d94b:	48 83 c5 01          	add    rbp,0x1
d94f:	44 89 c0             	mov    eax,r8d
d952:	45 31 e4             	xor    r12d,r12d
d955:	bb 5c 00 00 00       	mov    ebx,0x5c
d95a:	e9 0d fb ff ff       	jmp    d46c <quotearg_buffer_restyled+0x26c>
d95f:	90                   	nop
d960:	83 7c 24 08 02       	cmp    DWORD PTR [rsp+0x8],0x2
d965:	0f b6 5c 24 0f       	movzx  ebx,BYTE PTR [rsp+0xf]
d96a:	45 89 c4             	mov    r12d,r8d
d96d:	4c 89 dd             	mov    rbp,r11
d970:	0f 94 c2             	sete   dl
d973:	89 d8                	mov    eax,ebx
d975:	4d 85 ff             	test   r15,r15
d978:	0f 94 c1             	sete   cl
d97b:	21 d0                	and    eax,edx
d97d:	20 c8                	and    al,cl
d97f:	0f 85 61 0a 00 00    	jne    e3e6 <quotearg_buffer_restyled+0x11e6>
d985:	89 d8                	mov    eax,ebx
d987:	83 f0 01             	xor    eax,0x1
d98a:	20 c2                	and    dl,al
d98c:	0f 84 6a 09 00 00    	je     e2fc <quotearg_buffer_restyled+0x10fc>
d992:	80 7c 24 7c 00       	cmp    BYTE PTR [rsp+0x7c],0x0
d997:	0f 84 5d 09 00 00    	je     e2fa <quotearg_buffer_restyled+0x10fa>
d99d:	80 7c 24 0e 00       	cmp    BYTE PTR [rsp+0xe],0x0
d9a2:	0f 85 f5 09 00 00    	jne    e39d <quotearg_buffer_restyled+0x119d>
d9a8:	4d 85 ed             	test   r13,r13
d9ab:	0f 94 c0             	sete   al
d9ae:	48 83 7c 24 50 00    	cmp    QWORD PTR [rsp+0x50],0x0
d9b4:	0f 95 c2             	setne  dl
d9b7:	20 d0                	and    al,dl
d9b9:	0f 84 1d 0a 00 00    	je     e3dc <quotearg_buffer_restyled+0x11dc>
d9bf:	4c 8b 6c 24 50       	mov    r13,QWORD PTR [rsp+0x50]
d9c4:	48 8d 1d 6a 79 00 00 	lea    rbx,[rip+0x796a]        # 15335 <default_tuning+0x95>
d9cb:	41 c6 06 27          	mov    BYTE PTR [r14],0x27
d9cf:	c7 44 24 08 02 00 00 	mov    DWORD PTR [rsp+0x8],0x2
d9d6:	00
d9d7:	41 bf 01 00 00 00    	mov    r15d,0x1
d9dd:	48 c7 44 24 18 01 00 	mov    QWORD PTR [rsp+0x18],0x1
d9e4:	00 00
d9e6:	c6 44 24 0f 00       	mov    BYTE PTR [rsp+0xf],0x0
d9eb:	48 89 5c 24 48       	mov    QWORD PTR [rsp+0x48],rbx
d9f0:	88 44 24 7c          	mov    BYTE PTR [rsp+0x7c],al
d9f4:	e9 da f8 ff ff       	jmp    d2d3 <quotearg_buffer_restyled+0xd3>
d9f9:	0f 1f 80 00 00 00 00 	nop    DWORD PTR [rax+0x0]
da00:	80 7c 24 0f 00       	cmp    BYTE PTR [rsp+0xf],0x0
da05:	0f 85 a5 08 00 00    	jne    e2b0 <quotearg_buffer_restyled+0x10b0>
da0b:	4d 85 ed             	test   r13,r13
da0e:	0f 84 fc 03 00 00    	je     de10 <quotearg_buffer_restyled+0xc10>
da14:	31 d2                	xor    edx,edx
da16:	48 83 7c 24 50 00    	cmp    QWORD PTR [rsp+0x50],0x0
da1c:	0f 85 ee 03 00 00    	jne    de10 <quotearg_buffer_restyled+0xc10>
da22:	4c 89 6c 24 50       	mov    QWORD PTR [rsp+0x50],r13
da27:	49 83 c7 03          	add    r15,0x3
da2b:	31 c0                	xor    eax,eax
da2d:	44 88 64 24 7c       	mov    BYTE PTR [rsp+0x7c],r12b
da32:	45 31 c0             	xor    r8d,r8d
da35:	49 89 d5             	mov    r13,rdx
da38:	bb 27 00 00 00       	mov    ebx,0x27
da3d:	e9 17 fa ff ff       	jmp    d459 <quotearg_buffer_restyled+0x259>
da42:	66 0f 1f 44 00 00    	nop    WORD PTR [rax+rax*1+0x0]
da48:	f6 44 24 78 04       	test   BYTE PTR [rsp+0x78],0x4
da4d:	74 21                	je     da70 <quotearg_buffer_restyled+0x870>
da4f:	48 8d 4d 02          	lea    rcx,[rbp+0x2]
da53:	4c 39 d9             	cmp    rcx,r11
da56:	73 18                	jae    da70 <quotearg_buffer_restyled+0x870>
da58:	48 8b 44 24 10       	mov    rax,QWORD PTR [rsp+0x10]
da5d:	80 7c 28 01 3f       	cmp    BYTE PTR [rax+rbp*1+0x1],0x3f
da62:	0f 84 8a 07 00 00    	je     e1f2 <quotearg_buffer_restyled+0xff2>
da68:	0f 1f 84 00 00 00 00 	nop    DWORD PTR [rax+rax*1+0x0]
da6f:	00
da70:	31 d2                	xor    edx,edx
da72:	45 31 e4             	xor    r12d,r12d
da75:	31 c0                	xor    eax,eax
da77:	bb 3f 00 00 00       	mov    ebx,0x3f
da7c:	e9 a7 f9 ff ff       	jmp    d428 <quotearg_buffer_restyled+0x228>
da81:	0f 1f 80 00 00 00 00 	nop    DWORD PTR [rax+0x0]
da88:	80 7c 24 0f 00       	cmp    BYTE PTR [rsp+0xf],0x0
da8d:	0f 85 1d 08 00 00    	jne    e2b0 <quotearg_buffer_restyled+0x10b0>
da93:	45 31 e4             	xor    r12d,r12d
da96:	31 c0                	xor    eax,eax
da98:	bb 3f 00 00 00       	mov    ebx,0x3f
da9d:	e9 b7 f9 ff ff       	jmp    d459 <quotearg_buffer_restyled+0x259>
daa2:	66 0f 1f 44 00 00    	nop    WORD PTR [rax+rax*1+0x0]
daa8:	48 8d 84 24 a0 00 00 	lea    rax,[rsp+0xa0]
daaf:	00
dab0:	49 83 fb ff          	cmp    r11,0xffffffffffffffff
dab4:	48 c7 84 24 a0 00 00 	mov    QWORD PTR [rsp+0xa0],0x0
dabb:	00 00 00 00 00
dac0:	48 89 44 24 28       	mov    QWORD PTR [rsp+0x28],rax
dac5:	75 2d                	jne    daf4 <quotearg_buffer_restyled+0x8f4>
dac7:	48 8b 7c 24 10       	mov    rdi,QWORD PTR [rsp+0x10]
dacc:	44 88 44 24 40       	mov    BYTE PTR [rsp+0x40],r8b
dad1:	44 88 54 24 38       	mov    BYTE PTR [rsp+0x38],r10b
dad6:	4c 89 4c 24 30       	mov    QWORD PTR [rsp+0x30],r9
dadb:	e8 20 4e ff ff       	call   2900 <strlen@plt>
dae0:	44 0f b6 44 24 40    	movzx  r8d,BYTE PTR [rsp+0x40]
dae6:	44 0f b6 54 24 38    	movzx  r10d,BYTE PTR [rsp+0x38]
daec:	49 89 c3             	mov    r11,rax
daef:	4c 8b 4c 24 30       	mov    r9,QWORD PTR [rsp+0x30]
daf4:	48 8d 84 24 9c 00 00 	lea    rax,[rsp+0x9c]
dafb:	00
dafc:	31 c9                	xor    ecx,ecx
dafe:	88 5c 24 7e          	mov    BYTE PTR [rsp+0x7e],bl
db02:	44 88 44 24 7d       	mov    BYTE PTR [rsp+0x7d],r8b
db07:	48 89 cb             	mov    rbx,rcx
db0a:	4c 89 8c 24 88 00 00 	mov    QWORD PTR [rsp+0x88],r9
db11:	00
db12:	48 89 44 24 38       	mov    QWORD PTR [rsp+0x38],rax
db17:	44 88 54 24 7f       	mov    BYTE PTR [rsp+0x7f],r10b
db1c:	4c 89 bc 24 80 00 00 	mov    QWORD PTR [rsp+0x80],r15
db23:	00
db24:	4c 89 74 24 40       	mov    QWORD PTR [rsp+0x40],r14
db29:	4c 89 6c 24 70       	mov    QWORD PTR [rsp+0x70],r13
db2e:	4c 89 5c 24 30       	mov    QWORD PTR [rsp+0x30],r11
db33:	48 8b 44 24 10       	mov    rax,QWORD PTR [rsp+0x10]
db38:	4c 8d 74 1d 00       	lea    r14,[rbp+rbx*1+0x0]
db3d:	48 8b 54 24 30       	mov    rdx,QWORD PTR [rsp+0x30]
db42:	48 8b 4c 24 28       	mov    rcx,QWORD PTR [rsp+0x28]
db47:	48 8b 7c 24 38       	mov    rdi,QWORD PTR [rsp+0x38]
db4c:	4e 8d 2c 30          	lea    r13,[rax+r14*1]
db50:	4c 29 f2             	sub    rdx,r14
db53:	4c 89 ee             	mov    rsi,r13
db56:	e8 c5 38 00 00       	call   11420 <rpl_mbrtowc>
db5b:	48 85 c0             	test   rax,rax
db5e:	49 89 c7             	mov    r15,rax
db61:	74 4e                	je     dbb1 <quotearg_buffer_restyled+0x9b1>
db63:	48 83 f8 ff          	cmp    rax,0xffffffffffffffff
db67:	0f 84 18 06 00 00    	je     e185 <quotearg_buffer_restyled+0xf85>
db6d:	48 83 f8 fe          	cmp    rax,0xfffffffffffffffe
db71:	0f 84 9a 05 00 00    	je     e111 <quotearg_buffer_restyled+0xf11>
db77:	83 7c 24 08 02       	cmp    DWORD PTR [rsp+0x8],0x2
db7c:	0f 94 c0             	sete   al
db7f:	22 44 24 0f          	and    al,BYTE PTR [rsp+0xf]
db83:	0f 85 97 01 00 00    	jne    dd20 <quotearg_buffer_restyled+0xb20>
db89:	8b bc 24 9c 00 00 00 	mov    edi,DWORD PTR [rsp+0x9c]
db90:	e8 4b 52 ff ff       	call   2de0 <iswprint@plt>
db95:	48 8b 7c 24 28       	mov    rdi,QWORD PTR [rsp+0x28]
db9a:	85 c0                	test   eax,eax
db9c:	b8 00 00 00 00       	mov    eax,0x0
dba1:	44 0f 44 e0          	cmove  r12d,eax
dba5:	4c 01 fb             	add    rbx,r15
dba8:	e8 13 52 ff ff       	call   2dc0 <mbsinit@plt>
dbad:	85 c0                	test   eax,eax
dbaf:	74 82                	je     db33 <quotearg_buffer_restyled+0x933>
dbb1:	44 89 e2             	mov    edx,r12d
dbb4:	48 89 df             	mov    rdi,rbx
dbb7:	44 0f b6 44 24 7d    	movzx  r8d,BYTE PTR [rsp+0x7d]
dbbd:	83 f2 01             	xor    edx,0x1
dbc0:	0f b6 5c 24 7e       	movzx  ebx,BYTE PTR [rsp+0x7e]
dbc5:	44 0f b6 54 24 7f    	movzx  r10d,BYTE PTR [rsp+0x7f]
dbcb:	22 54 24 0d          	and    dl,BYTE PTR [rsp+0xd]
dbcf:	4c 8b bc 24 80 00 00 	mov    r15,QWORD PTR [rsp+0x80]
dbd6:	00
dbd7:	4c 8b 74 24 40       	mov    r14,QWORD PTR [rsp+0x40]
dbdc:	4c 8b 6c 24 70       	mov    r13,QWORD PTR [rsp+0x70]
dbe1:	4c 8b 5c 24 30       	mov    r11,QWORD PTR [rsp+0x30]
dbe6:	48 83 ff 01          	cmp    rdi,0x1
dbea:	0f 86 fb 05 00 00    	jbe    e1eb <quotearg_buffer_restyled+0xfeb>
dbf0:	48 89 f9             	mov    rcx,rdi
dbf3:	31 f6                	xor    esi,esi
dbf5:	44 0f b6 4c 24 0f    	movzx  r9d,BYTE PTR [rsp+0xf]
dbfb:	48 01 e9             	add    rcx,rbp
dbfe:	48 8b 7c 24 10       	mov    rdi,QWORD PTR [rsp+0x10]
dc03:	e9 b6 00 00 00       	jmp    dcbe <quotearg_buffer_restyled+0xabe>
dc08:	0f 1f 84 00 00 00 00 	nop    DWORD PTR [rax+rax*1+0x0]
dc0f:	00
dc10:	83 7c 24 08 02       	cmp    DWORD PTR [rsp+0x8],0x2
dc15:	0f 94 c0             	sete   al
dc18:	45 84 c9             	test   r9b,r9b
dc1b:	0f 85 af 04 00 00    	jne    e0d0 <quotearg_buffer_restyled+0xed0>
dc21:	44 89 c6             	mov    esi,r8d
dc24:	83 f6 01             	xor    esi,0x1
dc27:	40 20 f0             	and    al,sil
dc2a:	74 2f                	je     dc5b <quotearg_buffer_restyled+0xa5b>
dc2c:	4d 39 fd             	cmp    r13,r15
dc2f:	76 05                	jbe    dc36 <quotearg_buffer_restyled+0xa36>
dc31:	43 c6 04 3e 27       	mov    BYTE PTR [r14+r15*1],0x27
dc36:	49 8d 77 01          	lea    rsi,[r15+0x1]
dc3a:	49 39 f5             	cmp    r13,rsi
dc3d:	76 06                	jbe    dc45 <quotearg_buffer_restyled+0xa45>
dc3f:	43 c6 44 3e 01 24    	mov    BYTE PTR [r14+r15*1+0x1],0x24
dc45:	49 8d 77 02          	lea    rsi,[r15+0x2]
dc49:	49 39 f5             	cmp    r13,rsi
dc4c:	76 06                	jbe    dc54 <quotearg_buffer_restyled+0xa54>
dc4e:	43 c6 44 3e 02 27    	mov    BYTE PTR [r14+r15*1+0x2],0x27
dc54:	49 83 c7 03          	add    r15,0x3
dc58:	41 89 c0             	mov    r8d,eax
dc5b:	4d 39 fd             	cmp    r13,r15
dc5e:	76 05                	jbe    dc65 <quotearg_buffer_restyled+0xa65>
dc60:	43 c6 04 3e 5c       	mov    BYTE PTR [r14+r15*1],0x5c
dc65:	49 8d 47 01          	lea    rax,[r15+0x1]
dc69:	49 39 c5             	cmp    r13,rax
dc6c:	76 0d                	jbe    dc7b <quotearg_buffer_restyled+0xa7b>
dc6e:	89 d8                	mov    eax,ebx
dc70:	c0 e8 06             	shr    al,0x6
dc73:	83 c0 30             	add    eax,0x30
dc76:	43 88 44 3e 01       	mov    BYTE PTR [r14+r15*1+0x1],al
dc7b:	49 8d 47 02          	lea    rax,[r15+0x2]
dc7f:	49 39 c5             	cmp    r13,rax
dc82:	76 10                	jbe    dc94 <quotearg_buffer_restyled+0xa94>
dc84:	89 d8                	mov    eax,ebx
dc86:	c0 e8 03             	shr    al,0x3
dc89:	83 e0 07             	and    eax,0x7
dc8c:	83 c0 30             	add    eax,0x30
dc8f:	43 88 44 3e 02       	mov    BYTE PTR [r14+r15*1+0x2],al
dc94:	83 e3 07             	and    ebx,0x7
dc97:	48 83 c5 01          	add    rbp,0x1
dc9b:	49 83 c7 03          	add    r15,0x3
dc9f:	83 c3 30             	add    ebx,0x30
dca2:	48 39 cd             	cmp    rbp,rcx
dca5:	0f 83 e5 f7 ff ff    	jae    d490 <quotearg_buffer_restyled+0x290>
dcab:	89 d6                	mov    esi,edx
dcad:	4d 39 fd             	cmp    r13,r15
dcb0:	76 04                	jbe    dcb6 <quotearg_buffer_restyled+0xab6>
dcb2:	43 88 1c 3e          	mov    BYTE PTR [r14+r15*1],bl
dcb6:	0f b6 1c 2f          	movzx  ebx,BYTE PTR [rdi+rbp*1]
dcba:	49 83 c7 01          	add    r15,0x1
dcbe:	84 d2                	test   dl,dl
dcc0:	0f 85 4a ff ff ff    	jne    dc10 <quotearg_buffer_restyled+0xa10>
dcc6:	89 f0                	mov    eax,esi
dcc8:	83 f0 01             	xor    eax,0x1
dccb:	44 21 c0             	and    eax,r8d
dcce:	45 84 d2             	test   r10b,r10b
dcd1:	74 0e                	je     dce1 <quotearg_buffer_restyled+0xae1>
dcd3:	4d 39 fd             	cmp    r13,r15
dcd6:	76 05                	jbe    dcdd <quotearg_buffer_restyled+0xadd>
dcd8:	43 c6 04 3e 5c       	mov    BYTE PTR [r14+r15*1],0x5c
dcdd:	49 83 c7 01          	add    r15,0x1
dce1:	48 83 c5 01          	add    rbp,0x1
dce5:	48 39 cd             	cmp    rbp,rcx
dce8:	0f 83 7e f7 ff ff    	jae    d46c <quotearg_buffer_restyled+0x26c>
dcee:	84 c0                	test   al,al
dcf0:	0f 84 f8 03 00 00    	je     e0ee <quotearg_buffer_restyled+0xeee>
dcf6:	4d 39 fd             	cmp    r13,r15
dcf9:	76 05                	jbe    dd00 <quotearg_buffer_restyled+0xb00>
dcfb:	43 c6 04 3e 27       	mov    BYTE PTR [r14+r15*1],0x27
dd00:	49 8d 47 01          	lea    rax,[r15+0x1]
dd04:	49 39 c5             	cmp    r13,rax
dd07:	76 06                	jbe    dd0f <quotearg_buffer_restyled+0xb0f>
dd09:	43 c6 44 3e 01 27    	mov    BYTE PTR [r14+r15*1+0x1],0x27
dd0f:	49 83 c7 02          	add    r15,0x2
dd13:	45 31 d2             	xor    r10d,r10d
dd16:	45 31 c0             	xor    r8d,r8d
dd19:	eb 92                	jmp    dcad <quotearg_buffer_restyled+0xaad>
dd1b:	0f 1f 44 00 00       	nop    DWORD PTR [rax+rax*1+0x0]
dd20:	49 83 ff 01          	cmp    r15,0x1
dd24:	0f 84 5f fe ff ff    	je     db89 <quotearg_buffer_restyled+0x989>
dd2a:	48 8b 7c 24 10       	mov    rdi,QWORD PTR [rsp+0x10]
dd2f:	4a 8d 0c 3f          	lea    rcx,[rdi+r15*1]
dd33:	4a 8d 54 37 01       	lea    rdx,[rdi+r14*1+0x1]
dd38:	4e 8d 04 31          	lea    r8,[rcx+r14*1]
dd3c:	eb 0f                	jmp    dd4d <quotearg_buffer_restyled+0xb4d>
dd3e:	66 90                	xchg   ax,ax
dd40:	48 83 c2 01          	add    rdx,0x1
dd44:	49 39 d0             	cmp    r8,rdx
dd47:	0f 84 3c fe ff ff    	je     db89 <quotearg_buffer_restyled+0x989>
dd4d:	0f b6 0a             	movzx  ecx,BYTE PTR [rdx]
dd50:	83 e9 5b             	sub    ecx,0x5b
dd53:	80 f9 21             	cmp    cl,0x21
dd56:	77 e8                	ja     dd40 <quotearg_buffer_restyled+0xb40>
dd58:	be 01 00 00 00       	mov    esi,0x1
dd5d:	48 d3 e6             	shl    rsi,cl
dd60:	48 89 f1             	mov    rcx,rsi
dd63:	48 be 2b 00 00 00 02 	movabs rsi,0x20000002b
dd6a:	00 00 00
dd6d:	48 85 f1             	test   rcx,rsi
dd70:	74 ce                	je     dd40 <quotearg_buffer_restyled+0xb40>
dd72:	4c 8b 74 24 40       	mov    r14,QWORD PTR [rsp+0x40]
dd77:	4c 8b 6c 24 70       	mov    r13,QWORD PTR [rsp+0x70]
dd7c:	48 8b 6c 24 30       	mov    rbp,QWORD PTR [rsp+0x30]
dd81:	c7 44 24 08 02 00 00 	mov    DWORD PTR [rsp+0x8],0x2
dd88:	00
dd89:	80 7c 24 0d 00       	cmp    BYTE PTR [rsp+0xd],0x0
dd8e:	74 10                	je     dda0 <quotearg_buffer_restyled+0xba0>
dd90:	84 c0                	test   al,al
dd92:	b8 04 00 00 00       	mov    eax,0x4
dd97:	0f 44 44 24 08       	cmove  eax,DWORD PTR [rsp+0x8]
dd9c:	89 44 24 08          	mov    DWORD PTR [rsp+0x8],eax
dda0:	48 83 ec 08          	sub    rsp,0x8
dda4:	48 89 e9             	mov    rcx,rbp
dda7:	4c 89 ee             	mov    rsi,r13
ddaa:	ff 74 24 68          	push   QWORD PTR [rsp+0x68]
ddae:	ff 74 24 78          	push   QWORD PTR [rsp+0x78]
ddb2:	4c 89 f7             	mov    rdi,r14
ddb5:	6a 00                	push   0x0
ddb7:	44 8b 8c 24 98 00 00 	mov    r9d,DWORD PTR [rsp+0x98]
ddbe:	00
ddbf:	44 8b 44 24 28       	mov    r8d,DWORD PTR [rsp+0x28]
ddc4:	48 8b 54 24 30       	mov    rdx,QWORD PTR [rsp+0x30]
ddc9:	41 83 e1 fd          	and    r9d,0xfffffffd
ddcd:	e8 2e f4 ff ff       	call   d200 <quotearg_buffer_restyled>
ddd2:	48 83 c4 20          	add    rsp,0x20
ddd6:	49 89 c7             	mov    r15,rax
ddd9:	48 8b 9c 24 a8 00 00 	mov    rbx,QWORD PTR [rsp+0xa8]
dde0:	00
dde1:	64 48 33 1c 25 28 00 	xor    rbx,QWORD PTR fs:0x28
dde8:	00 00
ddea:	4c 89 f8             	mov    rax,r15
dded:	0f 85 00 06 00 00    	jne    e3f3 <quotearg_buffer_restyled+0x11f3>
ddf3:	48 81 c4 b8 00 00 00 	add    rsp,0xb8
ddfa:	5b                   	pop    rbx
ddfb:	5d                   	pop    rbp
ddfc:	41 5c                	pop    r12
ddfe:	41 5d                	pop    r13
de00:	41 5e                	pop    r14
de02:	41 5f                	pop    r15
de04:	c3                   	ret
de05:	0f 1f 00             	nop    DWORD PTR [rax]
de08:	4c 89 dd             	mov    rbp,r11
de0b:	e9 79 ff ff ff       	jmp    dd89 <quotearg_buffer_restyled+0xb89>
de10:	4d 39 fd             	cmp    r13,r15
de13:	76 05                	jbe    de1a <quotearg_buffer_restyled+0xc1a>
de15:	43 c6 04 3e 27       	mov    BYTE PTR [r14+r15*1],0x27
de1a:	49 8d 47 01          	lea    rax,[r15+0x1]
de1e:	49 39 c5             	cmp    r13,rax
de21:	76 06                	jbe    de29 <quotearg_buffer_restyled+0xc29>
de23:	43 c6 44 3e 01 5c    	mov    BYTE PTR [r14+r15*1+0x1],0x5c
de29:	49 8d 47 02          	lea    rax,[r15+0x2]
de2d:	49 39 c5             	cmp    r13,rax
de30:	0f 86 ec 05 00 00    	jbe    e422 <quotearg_buffer_restyled+0x1222>
de36:	4c 89 ea             	mov    rdx,r13
de39:	43 c6 44 3e 02 27    	mov    BYTE PTR [r14+r15*1+0x2],0x27
de3f:	4c 8b 6c 24 50       	mov    r13,QWORD PTR [rsp+0x50]
de44:	e9 d9 fb ff ff       	jmp    da22 <quotearg_buffer_restyled+0x822>
de49:	44 89 e0             	mov    eax,r12d
de4c:	bb 30 00 00 00       	mov    ebx,0x30
de51:	45 31 e4             	xor    r12d,r12d
de54:	e9 00 f6 ff ff       	jmp    d459 <quotearg_buffer_restyled+0x259>
de59:	43 c6 44 3e 02 27    	mov    BYTE PTR [r14+r15*1+0x2],0x27
de5f:	e9 c5 f9 ff ff       	jmp    d829 <quotearg_buffer_restyled+0x629>
de64:	85 db                	test   ebx,ebx
de66:	0f 85 27 f4 ff ff    	jne    d293 <quotearg_buffer_restyled+0x93>
de6c:	c6 44 24 0d 01       	mov    BYTE PTR [rsp+0xd],0x1
de71:	4d 85 ed             	test   r13,r13
de74:	0f 85 90 05 00 00    	jne    e40a <quotearg_buffer_restyled+0x120a>
de7a:	48 8d 05 b4 74 00 00 	lea    rax,[rip+0x74b4]        # 15335 <default_tuning+0x95>
de81:	48 c7 44 24 50 00 00 	mov    QWORD PTR [rsp+0x50],0x0
de88:	00 00
de8a:	c6 44 24 0e 01       	mov    BYTE PTR [rsp+0xe],0x1
de8f:	c6 44 24 7c 00       	mov    BYTE PTR [rsp+0x7c],0x0
de94:	45 31 e4             	xor    r12d,r12d
de97:	c6 44 24 0f 00       	mov    BYTE PTR [rsp+0xf],0x0
de9c:	48 c7 44 24 18 01 00 	mov    QWORD PTR [rsp+0x18],0x1
dea3:	00 00
dea5:	48 89 44 24 48       	mov    QWORD PTR [rsp+0x48],rax
deaa:	41 bf 01 00 00 00    	mov    r15d,0x1
deb0:	c7 44 24 08 02 00 00 	mov    DWORD PTR [rsp+0x8],0x2
deb7:	00
deb8:	e9 16 f4 ff ff       	jmp    d2d3 <quotearg_buffer_restyled+0xd3>
debd:	0f 1f 00             	nop    DWORD PTR [rax]
dec0:	85 db                	test   ebx,ebx
dec2:	0f 85 f5 03 00 00    	jne    e2bd <quotearg_buffer_restyled+0x10bd>
dec8:	4d 85 ed             	test   r13,r13
decb:	0f 84 25 02 00 00    	je     e0f6 <quotearg_buffer_restyled+0xef6>
ded1:	41 c6 06 22          	mov    BYTE PTR [r14],0x22
ded5:	c6 44 24 0e 01       	mov    BYTE PTR [rsp+0xe],0x1
deda:	45 31 e4             	xor    r12d,r12d
dedd:	c6 44 24 7c 00       	mov    BYTE PTR [rsp+0x7c],0x0
dee2:	48 c7 44 24 50 00 00 	mov    QWORD PTR [rsp+0x50],0x0
dee9:	00 00
deeb:	48 8d 05 41 74 00 00 	lea    rax,[rip+0x7441]        # 15333 <default_tuning+0x93>
def2:	c6 44 24 0f 00       	mov    BYTE PTR [rsp+0xf],0x0
def7:	c6 44 24 0d 01       	mov    BYTE PTR [rsp+0xd],0x1
defc:	48 c7 44 24 18 01 00 	mov    QWORD PTR [rsp+0x18],0x1
df03:	00 00
df05:	41 bf 01 00 00 00    	mov    r15d,0x1
df0b:	48 89 44 24 48       	mov    QWORD PTR [rsp+0x48],rax
df10:	e9 be f3 ff ff       	jmp    d2d3 <quotearg_buffer_restyled+0xd3>
df15:	48 8d 05 17 74 00 00 	lea    rax,[rip+0x7417]        # 15333 <default_tuning+0x93>
df1c:	c6 44 24 0e 01       	mov    BYTE PTR [rsp+0xe],0x1
df21:	c6 44 24 7c 00       	mov    BYTE PTR [rsp+0x7c],0x0
df26:	45 31 e4             	xor    r12d,r12d
df29:	48 c7 44 24 50 00 00 	mov    QWORD PTR [rsp+0x50],0x0
df30:	00 00
df32:	c6 44 24 0f 01       	mov    BYTE PTR [rsp+0xf],0x1
df37:	c6 44 24 0d 01       	mov    BYTE PTR [rsp+0xd],0x1
df3c:	48 c7 44 24 18 01 00 	mov    QWORD PTR [rsp+0x18],0x1
df43:	00 00
df45:	45 31 ff             	xor    r15d,r15d
df48:	48 89 44 24 48       	mov    QWORD PTR [rsp+0x48],rax
df4d:	c7 44 24 08 05 00 00 	mov    DWORD PTR [rsp+0x8],0x5
df54:	00
df55:	e9 79 f3 ff ff       	jmp    d2d3 <quotearg_buffer_restyled+0xd3>
df5a:	c6 44 24 0e 01       	mov    BYTE PTR [rsp+0xe],0x1
df5f:	c6 44 24 7c 00       	mov    BYTE PTR [rsp+0x7c],0x0
df64:	45 31 e4             	xor    r12d,r12d
df67:	48 c7 44 24 50 00 00 	mov    QWORD PTR [rsp+0x50],0x0
df6e:	00 00
df70:	c6 44 24 0f 00       	mov    BYTE PTR [rsp+0xf],0x0
df75:	45 31 ff             	xor    r15d,r15d
df78:	c6 44 24 0d 01       	mov    BYTE PTR [rsp+0xd],0x1
df7d:	48 c7 44 24 18 00 00 	mov    QWORD PTR [rsp+0x18],0x0
df84:	00 00
df86:	48 c7 44 24 48 00 00 	mov    QWORD PTR [rsp+0x48],0x0
df8d:	00 00
df8f:	e9 3f f3 ff ff       	jmp    d2d3 <quotearg_buffer_restyled+0xd3>
df94:	83 7c 24 08 0a       	cmp    DWORD PTR [rsp+0x8],0xa
df99:	74 56                	je     dff1 <quotearg_buffer_restyled+0xdf1>
df9b:	48 8d 35 95 73 00 00 	lea    rsi,[rip+0x7395]        # 15337 <default_tuning+0x97>
dfa2:	31 ff                	xor    edi,edi
dfa4:	ba 05 00 00 00       	mov    edx,0x5
dfa9:	e8 32 49 ff ff       	call   28e0 <dcgettext@plt>
dfae:	48 89 c1             	mov    rcx,rax
dfb1:	48 89 44 24 68       	mov    QWORD PTR [rsp+0x68],rax
dfb6:	48 8d 05 7a 73 00 00 	lea    rax,[rip+0x737a]        # 15337 <default_tuning+0x97>
dfbd:	48 39 c1             	cmp    rcx,rax
dfc0:	0f 84 98 03 00 00    	je     e35e <quotearg_buffer_restyled+0x115e>
dfc6:	48 8d 35 68 73 00 00 	lea    rsi,[rip+0x7368]        # 15335 <default_tuning+0x95>
dfcd:	31 ff                	xor    edi,edi
dfcf:	ba 05 00 00 00       	mov    edx,0x5
dfd4:	e8 07 49 ff ff       	call   28e0 <dcgettext@plt>
dfd9:	48 89 c1             	mov    rcx,rax
dfdc:	48 89 44 24 60       	mov    QWORD PTR [rsp+0x60],rax
dfe1:	48 8d 05 4d 73 00 00 	lea    rax,[rip+0x734d]        # 15335 <default_tuning+0x95>
dfe8:	48 39 c1             	cmp    rcx,rax
dfeb:	0f 84 83 03 00 00    	je     e374 <quotearg_buffer_restyled+0x1174>
dff1:	45 31 ff             	xor    r15d,r15d
dff4:	85 db                	test   ebx,ebx
dff6:	0f 84 c1 01 00 00    	je     e1bd <quotearg_buffer_restyled+0xfbd>
dffc:	85 db                	test   ebx,ebx
dffe:	48 8b 5c 24 60       	mov    rbx,QWORD PTR [rsp+0x60]
e003:	0f 95 44 24 0f       	setne  BYTE PTR [rsp+0xf]
e008:	45 31 e4             	xor    r12d,r12d
e00b:	48 89 df             	mov    rdi,rbx
e00e:	e8 ed 48 ff ff       	call   2900 <strlen@plt>
e013:	48 89 5c 24 48       	mov    QWORD PTR [rsp+0x48],rbx
e018:	48 89 44 24 18       	mov    QWORD PTR [rsp+0x18],rax
e01d:	c6 44 24 0e 01       	mov    BYTE PTR [rsp+0xe],0x1
e022:	c6 44 24 7c 00       	mov    BYTE PTR [rsp+0x7c],0x0
e027:	48 c7 44 24 50 00 00 	mov    QWORD PTR [rsp+0x50],0x0
e02e:	00 00
e030:	c6 44 24 0d 01       	mov    BYTE PTR [rsp+0xd],0x1
e035:	e9 99 f2 ff ff       	jmp    d2d3 <quotearg_buffer_restyled+0xd3>
e03a:	c6 44 24 0e 01       	mov    BYTE PTR [rsp+0xe],0x1
e03f:	c6 44 24 7c 00       	mov    BYTE PTR [rsp+0x7c],0x0
e044:	45 31 e4             	xor    r12d,r12d
e047:	48 c7 44 24 50 00 00 	mov    QWORD PTR [rsp+0x50],0x0
e04e:	00 00
e050:	c6 44 24 0f 00       	mov    BYTE PTR [rsp+0xf],0x0
e055:	45 31 ff             	xor    r15d,r15d
e058:	c6 44 24 0d 00       	mov    BYTE PTR [rsp+0xd],0x0
e05d:	48 c7 44 24 18 00 00 	mov    QWORD PTR [rsp+0x18],0x0
e064:	00 00
e066:	48 c7 44 24 48 00 00 	mov    QWORD PTR [rsp+0x48],0x0
e06d:	00 00
e06f:	e9 5f f2 ff ff       	jmp    d2d3 <quotearg_buffer_restyled+0xd3>
e074:	c6 44 24 0e 01       	mov    BYTE PTR [rsp+0xe],0x1
e079:	c6 44 24 7c 00       	mov    BYTE PTR [rsp+0x7c],0x0
e07e:	45 31 e4             	xor    r12d,r12d
e081:	48 c7 44 24 50 00 00 	mov    QWORD PTR [rsp+0x50],0x0
e088:	00 00
e08a:	c6 44 24 0f 01       	mov    BYTE PTR [rsp+0xf],0x1
e08f:	c6 44 24 0d 01       	mov    BYTE PTR [rsp+0xd],0x1
e094:	e9 1a f2 ff ff       	jmp    d2b3 <quotearg_buffer_restyled+0xb3>
e099:	4d 39 fd             	cmp    r13,r15
e09c:	76 05                	jbe    e0a3 <quotearg_buffer_restyled+0xea3>
e09e:	43 c6 04 3e 30       	mov    BYTE PTR [r14+r15*1],0x30
e0a3:	48 8d 41 02          	lea    rax,[rcx+0x2]
e0a7:	49 39 c5             	cmp    r13,rax
e0aa:	76 06                	jbe    e0b2 <quotearg_buffer_restyled+0xeb2>
e0ac:	41 c6 44 0e 02 30    	mov    BYTE PTR [r14+rcx*1+0x2],0x30
e0b2:	44 89 e0             	mov    eax,r12d
e0b5:	4c 8d 79 03          	lea    r15,[rcx+0x3]
e0b9:	45 31 e4             	xor    r12d,r12d
e0bc:	bb 30 00 00 00       	mov    ebx,0x30
e0c1:	e9 62 f3 ff ff       	jmp    d428 <quotearg_buffer_restyled+0x228>
e0c6:	66 2e 0f 1f 84 00 00 	nop    WORD PTR cs:[rax+rax*1+0x0]
e0cd:	00 00 00
e0d0:	0f b6 5c 24 0f       	movzx  ebx,BYTE PTR [rsp+0xf]
e0d5:	4c 89 dd             	mov    rbp,r11
e0d8:	88 5c 24 0d          	mov    BYTE PTR [rsp+0xd],bl
e0dc:	e9 a8 fc ff ff       	jmp    dd89 <quotearg_buffer_restyled+0xb89>
e0e1:	0f b6 54 24 0d       	movzx  edx,BYTE PTR [rsp+0xd]
e0e6:	45 31 e4             	xor    r12d,r12d
e0e9:	e9 02 fb ff ff       	jmp    dbf0 <quotearg_buffer_restyled+0x9f0>
e0ee:	45 31 d2             	xor    r10d,r10d
e0f1:	e9 b7 fb ff ff       	jmp    dcad <quotearg_buffer_restyled+0xaad>
e0f6:	48 c7 44 24 50 00 00 	mov    QWORD PTR [rsp+0x50],0x0
e0fd:	00 00
e0ff:	c6 44 24 0e 01       	mov    BYTE PTR [rsp+0xe],0x1
e104:	45 31 e4             	xor    r12d,r12d
e107:	c6 44 24 7c 00       	mov    BYTE PTR [rsp+0x7c],0x0
e10c:	e9 da fd ff ff       	jmp    deeb <quotearg_buffer_restyled+0xceb>
e111:	4c 8b 5c 24 30       	mov    r11,QWORD PTR [rsp+0x30]
e116:	4c 89 f6             	mov    rsi,r14
e119:	4c 89 e9             	mov    rcx,r13
e11c:	48 89 d8             	mov    rax,rbx
e11f:	48 89 df             	mov    rdi,rbx
e122:	44 0f b6 44 24 7d    	movzx  r8d,BYTE PTR [rsp+0x7d]
e128:	0f b6 5c 24 7e       	movzx  ebx,BYTE PTR [rsp+0x7e]
e12d:	4c 8b 8c 24 88 00 00 	mov    r9,QWORD PTR [rsp+0x88]
e134:	00
e135:	4c 39 de             	cmp    rsi,r11
e138:	44 0f b6 54 24 7f    	movzx  r10d,BYTE PTR [rsp+0x7f]
e13e:	4c 8b bc 24 80 00 00 	mov    r15,QWORD PTR [rsp+0x80]
e145:	00
e146:	4c 8b 74 24 40       	mov    r14,QWORD PTR [rsp+0x40]
e14b:	4c 8b 6c 24 70       	mov    r13,QWORD PTR [rsp+0x70]
e150:	73 26                	jae    e178 <quotearg_buffer_restyled+0xf78>
e152:	80 39 00             	cmp    BYTE PTR [rcx],0x0
e155:	75 10                	jne    e167 <quotearg_buffer_restyled+0xf67>
e157:	eb 1f                	jmp    e178 <quotearg_buffer_restyled+0xf78>
e159:	0f 1f 80 00 00 00 00 	nop    DWORD PTR [rax+0x0]
e160:	41 80 3c 01 00       	cmp    BYTE PTR [r9+rax*1],0x0
e165:	74 0e                	je     e175 <quotearg_buffer_restyled+0xf75>
e167:	48 83 c0 01          	add    rax,0x1
e16b:	48 8d 54 05 00       	lea    rdx,[rbp+rax*1+0x0]
e170:	49 39 d3             	cmp    r11,rdx
e173:	77 eb                	ja     e160 <quotearg_buffer_restyled+0xf60>
e175:	48 89 c7             	mov    rdi,rax
e178:	0f b6 54 24 0d       	movzx  edx,BYTE PTR [rsp+0xd]
e17d:	45 31 e4             	xor    r12d,r12d
e180:	e9 61 fa ff ff       	jmp    dbe6 <quotearg_buffer_restyled+0x9e6>
e185:	48 89 df             	mov    rdi,rbx
e188:	44 0f b6 44 24 7d    	movzx  r8d,BYTE PTR [rsp+0x7d]
e18e:	0f b6 5c 24 7e       	movzx  ebx,BYTE PTR [rsp+0x7e]
e193:	44 0f b6 54 24 7f    	movzx  r10d,BYTE PTR [rsp+0x7f]
e199:	4c 8b bc 24 80 00 00 	mov    r15,QWORD PTR [rsp+0x80]
e1a0:	00
e1a1:	45 31 e4             	xor    r12d,r12d
e1a4:	4c 8b 74 24 40       	mov    r14,QWORD PTR [rsp+0x40]
e1a9:	4c 8b 6c 24 70       	mov    r13,QWORD PTR [rsp+0x70]
e1ae:	4c 8b 5c 24 30       	mov    r11,QWORD PTR [rsp+0x30]
e1b3:	0f b6 54 24 0d       	movzx  edx,BYTE PTR [rsp+0xd]
e1b8:	e9 29 fa ff ff       	jmp    dbe6 <quotearg_buffer_restyled+0x9e6>
e1bd:	48 8b 54 24 68       	mov    rdx,QWORD PTR [rsp+0x68]
e1c2:	0f b6 02             	movzx  eax,BYTE PTR [rdx]
e1c5:	84 c0                	test   al,al
e1c7:	0f 84 2f fe ff ff    	je     dffc <quotearg_buffer_restyled+0xdfc>
e1cd:	0f 1f 00             	nop    DWORD PTR [rax]
e1d0:	4d 39 fd             	cmp    r13,r15
e1d3:	76 04                	jbe    e1d9 <quotearg_buffer_restyled+0xfd9>
e1d5:	43 88 04 3e          	mov    BYTE PTR [r14+r15*1],al
e1d9:	49 83 c7 01          	add    r15,0x1
e1dd:	42 0f b6 04 3a       	movzx  eax,BYTE PTR [rdx+r15*1]
e1e2:	84 c0                	test   al,al
e1e4:	75 ea                	jne    e1d0 <quotearg_buffer_restyled+0xfd0>
e1e6:	e9 11 fe ff ff       	jmp    dffc <quotearg_buffer_restyled+0xdfc>
e1eb:	89 d0                	mov    eax,edx
e1ed:	e9 55 f5 ff ff       	jmp    d747 <quotearg_buffer_restyled+0x547>
e1f2:	0f b6 1c 08          	movzx  ebx,BYTE PTR [rax+rcx*1]
e1f6:	80 fb 3e             	cmp    bl,0x3e
e1f9:	0f 87 71 f8 ff ff    	ja     da70 <quotearg_buffer_restyled+0x870>
e1ff:	48 b8 00 00 00 00 82 	movabs rax,0x7000a38200000000
e206:	a3 00 70
e209:	48 0f a3 d8          	bt     rax,rbx
e20d:	0f 83 5d f8 ff ff    	jae    da70 <quotearg_buffer_restyled+0x870>
e213:	80 7c 24 0f 00       	cmp    BYTE PTR [rsp+0xf],0x0
e218:	0f 85 e4 01 00 00    	jne    e402 <quotearg_buffer_restyled+0x1202>
e21e:	4d 39 fd             	cmp    r13,r15
e221:	76 05                	jbe    e228 <quotearg_buffer_restyled+0x1028>
e223:	43 c6 04 3e 3f       	mov    BYTE PTR [r14+r15*1],0x3f
e228:	49 8d 47 01          	lea    rax,[r15+0x1]
e22c:	49 39 c5             	cmp    r13,rax
e22f:	76 06                	jbe    e237 <quotearg_buffer_restyled+0x1037>
e231:	43 c6 44 3e 01 22    	mov    BYTE PTR [r14+r15*1+0x1],0x22
e237:	49 8d 47 02          	lea    rax,[r15+0x2]
e23b:	49 39 c5             	cmp    r13,rax
e23e:	76 06                	jbe    e246 <quotearg_buffer_restyled+0x1046>
e240:	43 c6 44 3e 02 22    	mov    BYTE PTR [r14+r15*1+0x2],0x22
e246:	49 8d 47 03          	lea    rax,[r15+0x3]
e24a:	49 39 c5             	cmp    r13,rax
e24d:	76 06                	jbe    e255 <quotearg_buffer_restyled+0x1055>
e24f:	43 c6 44 3e 03 3f    	mov    BYTE PTR [r14+r15*1+0x3],0x3f
e255:	49 83 c7 04          	add    r15,0x4
e259:	31 d2                	xor    edx,edx
e25b:	45 31 e4             	xor    r12d,r12d
e25e:	31 c0                	xor    eax,eax
e260:	48 89 cd             	mov    rbp,rcx
e263:	e9 c0 f1 ff ff       	jmp    d428 <quotearg_buffer_restyled+0x228>
e268:	85 db                	test   ebx,ebx
e26a:	0f 84 88 01 00 00    	je     e3f8 <quotearg_buffer_restyled+0x11f8>
e270:	48 8d 05 be 70 00 00 	lea    rax,[rip+0x70be]        # 15335 <default_tuning+0x95>
e277:	c6 44 24 0e 01       	mov    BYTE PTR [rsp+0xe],0x1
e27c:	c6 44 24 7c 00       	mov    BYTE PTR [rsp+0x7c],0x0
e281:	45 31 e4             	xor    r12d,r12d
e284:	48 c7 44 24 50 00 00 	mov    QWORD PTR [rsp+0x50],0x0
e28b:	00 00
e28d:	c6 44 24 0f 01       	mov    BYTE PTR [rsp+0xf],0x1
e292:	c6 44 24 0d 00       	mov    BYTE PTR [rsp+0xd],0x0
e297:	48 c7 44 24 18 01 00 	mov    QWORD PTR [rsp+0x18],0x1
e29e:	00 00
e2a0:	45 31 ff             	xor    r15d,r15d
e2a3:	48 89 44 24 48       	mov    QWORD PTR [rsp+0x48],rax
e2a8:	e9 26 f0 ff ff       	jmp    d2d3 <quotearg_buffer_restyled+0xd3>
e2ad:	0f 1f 00             	nop    DWORD PTR [rax]
e2b0:	4c 89 dd             	mov    rbp,r11
e2b3:	0f b6 44 24 0f       	movzx  eax,BYTE PTR [rsp+0xf]
e2b8:	e9 cc fa ff ff       	jmp    dd89 <quotearg_buffer_restyled+0xb89>
e2bd:	48 8d 05 6f 70 00 00 	lea    rax,[rip+0x706f]        # 15333 <default_tuning+0x93>
e2c4:	c6 44 24 0e 01       	mov    BYTE PTR [rsp+0xe],0x1
e2c9:	c6 44 24 7c 00       	mov    BYTE PTR [rsp+0x7c],0x0
e2ce:	45 31 e4             	xor    r12d,r12d
e2d1:	48 c7 44 24 50 00 00 	mov    QWORD PTR [rsp+0x50],0x0
e2d8:	00 00
e2da:	c6 44 24 0f 01       	mov    BYTE PTR [rsp+0xf],0x1
e2df:	c6 44 24 0d 01       	mov    BYTE PTR [rsp+0xd],0x1
e2e4:	48 c7 44 24 18 01 00 	mov    QWORD PTR [rsp+0x18],0x1
e2eb:	00 00
e2ed:	45 31 ff             	xor    r15d,r15d
e2f0:	48 89 44 24 48       	mov    QWORD PTR [rsp+0x48],rax
e2f5:	e9 d9 ef ff ff       	jmp    d2d3 <quotearg_buffer_restyled+0xd3>
e2fa:	89 d0                	mov    eax,edx
e2fc:	48 8b 5c 24 48       	mov    rbx,QWORD PTR [rsp+0x48]
e301:	48 85 db             	test   rbx,rbx
e304:	74 2c                	je     e332 <quotearg_buffer_restyled+0x1132>
e306:	84 c0                	test   al,al
e308:	74 28                	je     e332 <quotearg_buffer_restyled+0x1132>
e30a:	0f b6 0b             	movzx  ecx,BYTE PTR [rbx]
e30d:	48 89 d8             	mov    rax,rbx
e310:	84 c9                	test   cl,cl
e312:	74 1e                	je     e332 <quotearg_buffer_restyled+0x1132>
e314:	4c 89 fa             	mov    rdx,r15
e317:	4c 29 f8             	sub    rax,r15
e31a:	49 39 d5             	cmp    r13,rdx
e31d:	76 04                	jbe    e323 <quotearg_buffer_restyled+0x1123>
e31f:	41 88 0c 16          	mov    BYTE PTR [r14+rdx*1],cl
e323:	48 83 c2 01          	add    rdx,0x1
e327:	0f b6 0c 10          	movzx  ecx,BYTE PTR [rax+rdx*1]
e32b:	84 c9                	test   cl,cl
e32d:	75 eb                	jne    e31a <quotearg_buffer_restyled+0x111a>
e32f:	49 89 d7             	mov    r15,rdx
e332:	4d 39 fd             	cmp    r13,r15
e335:	0f 86 9e fa ff ff    	jbe    ddd9 <quotearg_buffer_restyled+0xbd9>
e33b:	43 c6 04 3e 00       	mov    BYTE PTR [r14+r15*1],0x0
e340:	e9 94 fa ff ff       	jmp    ddd9 <quotearg_buffer_restyled+0xbd9>
e345:	83 7c 24 08 02       	cmp    DWORD PTR [rsp+0x8],0x2
e34a:	0f b6 5c 24 0f       	movzx  ebx,BYTE PTR [rsp+0xf]
e34f:	4c 89 dd             	mov    rbp,r11
e352:	0f 94 c0             	sete   al
e355:	88 5c 24 0d          	mov    BYTE PTR [rsp+0xd],bl
e359:	e9 2b fa ff ff       	jmp    dd89 <quotearg_buffer_restyled+0xb89>
e35e:	8b 74 24 08          	mov    esi,DWORD PTR [rsp+0x8]
e362:	48 89 cf             	mov    rdi,rcx
e365:	e8 a6 ed ff ff       	call   d110 <gettext_quote.part.1>
e36a:	48 89 44 24 68       	mov    QWORD PTR [rsp+0x68],rax
e36f:	e9 52 fc ff ff       	jmp    dfc6 <quotearg_buffer_restyled+0xdc6>
e374:	8b 74 24 08          	mov    esi,DWORD PTR [rsp+0x8]
e378:	48 89 cf             	mov    rdi,rcx
e37b:	e8 90 ed ff ff       	call   d110 <gettext_quote.part.1>
e380:	48 89 44 24 60       	mov    QWORD PTR [rsp+0x60],rax
e385:	e9 67 fc ff ff       	jmp    dff1 <quotearg_buffer_restyled+0xdf1>
e38a:	0f b6 5c 24 0f       	movzx  ebx,BYTE PTR [rsp+0xf]
e38f:	4c 89 dd             	mov    rbp,r11
e392:	89 d0                	mov    eax,edx
e394:	88 5c 24 0d          	mov    BYTE PTR [rsp+0xd],bl
e398:	e9 ec f9 ff ff       	jmp    dd89 <quotearg_buffer_restyled+0xb89>
e39d:	48 83 ec 08          	sub    rsp,0x8
e3a1:	41 b8 05 00 00 00    	mov    r8d,0x5
e3a7:	4c 89 d9             	mov    rcx,r11
e3aa:	ff 74 24 68          	push   QWORD PTR [rsp+0x68]
e3ae:	ff 74 24 78          	push   QWORD PTR [rsp+0x78]
e3b2:	4c 89 f7             	mov    rdi,r14
e3b5:	ff 74 24 38          	push   QWORD PTR [rsp+0x38]
e3b9:	44 8b 8c 24 98 00 00 	mov    r9d,DWORD PTR [rsp+0x98]
e3c0:	00
e3c1:	48 8b 54 24 30       	mov    rdx,QWORD PTR [rsp+0x30]
e3c6:	48 8b 74 24 70       	mov    rsi,QWORD PTR [rsp+0x70]
e3cb:	e8 30 ee ff ff       	call   d200 <quotearg_buffer_restyled>
e3d0:	48 83 c4 20          	add    rsp,0x20
e3d4:	49 89 c7             	mov    r15,rax
e3d7:	e9 fd f9 ff ff       	jmp    ddd9 <quotearg_buffer_restyled+0xbd9>
e3dc:	0f b6 44 24 7c       	movzx  eax,BYTE PTR [rsp+0x7c]
e3e1:	e9 16 ff ff ff       	jmp    e2fc <quotearg_buffer_restyled+0x10fc>
e3e6:	c7 44 24 08 02 00 00 	mov    DWORD PTR [rsp+0x8],0x2
e3ed:	00
e3ee:	e9 96 f9 ff ff       	jmp    dd89 <quotearg_buffer_restyled+0xb89>
e3f3:	e8 38 45 ff ff       	call   2930 <__stack_chk_fail@plt>
e3f8:	c6 44 24 0d 00       	mov    BYTE PTR [rsp+0xd],0x0
e3fd:	e9 6f fa ff ff       	jmp    de71 <quotearg_buffer_restyled+0xc71>
e402:	4c 89 dd             	mov    rbp,r11
e405:	e9 96 f9 ff ff       	jmp    dda0 <quotearg_buffer_restyled+0xba0>
e40a:	c6 44 24 0e 01       	mov    BYTE PTR [rsp+0xe],0x1
e40f:	31 c0                	xor    eax,eax
e411:	45 31 e4             	xor    r12d,r12d
e414:	48 c7 44 24 50 00 00 	mov    QWORD PTR [rsp+0x50],0x0
e41b:	00 00
e41d:	e9 a2 f5 ff ff       	jmp    d9c4 <quotearg_buffer_restyled+0x7c4>
e422:	4c 89 ea             	mov    rdx,r13
e425:	4c 8b 6c 24 50       	mov    r13,QWORD PTR [rsp+0x50]
e42a:	e9 f3 f5 ff ff       	jmp    da22 <quotearg_buffer_restyled+0x822>
e42f:	e8 2c 43 ff ff       	call   2760 <abort@plt>
e434:	66 90                	xchg   ax,ax
e436:	66 2e 0f 1f 84 00 00 	nop    WORD PTR cs:[rax+rax*1+0x0]
e43d:	00 00 00

000000000000e440 <quotearg_n_options>:
e440:	41 57                	push   r15
e442:	41 56                	push   r14
e444:	4c 63 ff             	movsxd r15,edi
e447:	41 55                	push   r13
e449:	41 54                	push   r12
e44b:	49 89 d6             	mov    r14,rdx
e44e:	55                   	push   rbp
e44f:	53                   	push   rbx
e450:	48 89 cd             	mov    rbp,rcx
e453:	48 83 ec 28          	sub    rsp,0x28
e457:	48 89 74 24 08       	mov    QWORD PTR [rsp+0x8],rsi
e45c:	e8 0f 43 ff ff       	call   2770 <__errno_location@plt>
e461:	49 89 c5             	mov    r13,rax
e464:	8b 00                	mov    eax,DWORD PTR [rax]
e466:	45 85 ff             	test   r15d,r15d
e469:	48 8b 1d 10 bc 20 00 	mov    rbx,QWORD PTR [rip+0x20bc10]        # 21a080 <slotvec>
e470:	89 44 24 18          	mov    DWORD PTR [rsp+0x18],eax
e474:	0f 88 67 01 00 00    	js     e5e1 <quotearg_n_options+0x1a1>
e47a:	44 39 3d f7 bb 20 00 	cmp    DWORD PTR [rip+0x20bbf7],r15d        # 21a078 <nslots>
e481:	7f 62                	jg     e4e5 <quotearg_n_options+0xa5>
e483:	41 81 ff ff ff ff 7f 	cmp    r15d,0x7fffffff
e48a:	0f 84 56 01 00 00    	je     e5e6 <quotearg_n_options+0x1a6>
e490:	45 8d 67 01          	lea    r12d,[r15+0x1]
e494:	48 8d 05 f5 bb 20 00 	lea    rax,[rip+0x20bbf5]        # 21a090 <slotvec0>
e49b:	49 63 f4             	movsxd rsi,r12d
e49e:	48 c1 e6 04          	shl    rsi,0x4
e4a2:	48 39 c3             	cmp    rbx,rax
e4a5:	0f 84 15 01 00 00    	je     e5c0 <quotearg_n_options+0x180>
e4ab:	48 89 df             	mov    rdi,rbx
e4ae:	e8 cd 2b 00 00       	call   11080 <xrealloc>
e4b3:	48 89 c3             	mov    rbx,rax
e4b6:	48 89 05 c3 bb 20 00 	mov    QWORD PTR [rip+0x20bbc3],rax        # 21a080 <slotvec>
e4bd:	48 63 3d b4 bb 20 00 	movsxd rdi,DWORD PTR [rip+0x20bbb4]        # 21a078 <nslots>
e4c4:	44 89 e2             	mov    edx,r12d
e4c7:	31 f6                	xor    esi,esi
e4c9:	29 fa                	sub    edx,edi
e4cb:	48 c1 e7 04          	shl    rdi,0x4
e4cf:	48 63 d2             	movsxd rdx,edx
e4d2:	48 01 df             	add    rdi,rbx
e4d5:	48 c1 e2 04          	shl    rdx,0x4
e4d9:	e8 12 45 ff ff       	call   29f0 <memset@plt>
e4de:	44 89 25 93 bb 20 00 	mov    DWORD PTR [rip+0x20bb93],r12d        # 21a078 <nslots>
e4e5:	8b 45 04             	mov    eax,DWORD PTR [rbp+0x4]
e4e8:	49 c1 e7 04          	shl    r15,0x4
e4ec:	48 83 ec 08          	sub    rsp,0x8
e4f0:	4c 01 fb             	add    rbx,r15
e4f3:	4c 8d 7d 08          	lea    r15,[rbp+0x8]
e4f7:	44 8b 45 00          	mov    r8d,DWORD PTR [rbp+0x0]
e4fb:	4c 8b 1b             	mov    r11,QWORD PTR [rbx]
e4fe:	4c 8b 63 08          	mov    r12,QWORD PTR [rbx+0x8]
e502:	4c 89 f1             	mov    rcx,r14
e505:	83 c8 01             	or     eax,0x1
e508:	89 44 24 24          	mov    DWORD PTR [rsp+0x24],eax
e50c:	ff 75 30             	push   QWORD PTR [rbp+0x30]
e50f:	41 89 c1             	mov    r9d,eax
e512:	ff 75 28             	push   QWORD PTR [rbp+0x28]
e515:	41 57                	push   r15
e517:	4c 89 de             	mov    rsi,r11
e51a:	48 8b 54 24 28       	mov    rdx,QWORD PTR [rsp+0x28]
e51f:	4c 89 e7             	mov    rdi,r12
e522:	4c 89 5c 24 30       	mov    QWORD PTR [rsp+0x30],r11
e527:	e8 d4 ec ff ff       	call   d200 <quotearg_buffer_restyled>
e52c:	48 83 c4 20          	add    rsp,0x20
e530:	4c 8b 5c 24 10       	mov    r11,QWORD PTR [rsp+0x10]
e535:	49 39 c3             	cmp    r11,rax
e538:	77 67                	ja     e5a1 <quotearg_n_options+0x161>
e53a:	48 8d 70 01          	lea    rsi,[rax+0x1]
e53e:	48 8d 05 7b c0 20 00 	lea    rax,[rip+0x20c07b]        # 21a5c0 <slot0>
e545:	49 39 c4             	cmp    r12,rax
e548:	48 89 33             	mov    QWORD PTR [rbx],rsi
e54b:	74 12                	je     e55f <quotearg_n_options+0x11f>
e54d:	4c 89 e7             	mov    rdi,r12
e550:	48 89 74 24 10       	mov    QWORD PTR [rsp+0x10],rsi
e555:	e8 b6 48 ff ff       	call   2e10 <free@plt>
e55a:	48 8b 74 24 10       	mov    rsi,QWORD PTR [rsp+0x10]
e55f:	48 89 f7             	mov    rdi,rsi
e562:	48 89 74 24 10       	mov    QWORD PTR [rsp+0x10],rsi
e567:	e8 b4 2a 00 00       	call   11020 <xmalloc>
e56c:	48 83 ec 08          	sub    rsp,0x8
e570:	48 89 43 08          	mov    QWORD PTR [rbx+0x8],rax
e574:	44 8b 45 00          	mov    r8d,DWORD PTR [rbp+0x0]
e578:	ff 75 30             	push   QWORD PTR [rbp+0x30]
e57b:	ff 75 28             	push   QWORD PTR [rbp+0x28]
e57e:	4c 89 f1             	mov    rcx,r14
e581:	41 57                	push   r15
e583:	44 8b 4c 24 3c       	mov    r9d,DWORD PTR [rsp+0x3c]
e588:	48 89 c7             	mov    rdi,rax
e58b:	48 8b 54 24 28       	mov    rdx,QWORD PTR [rsp+0x28]
e590:	48 8b 74 24 30       	mov    rsi,QWORD PTR [rsp+0x30]
e595:	49 89 c4             	mov    r12,rax
e598:	e8 63 ec ff ff       	call   d200 <quotearg_buffer_restyled>
e59d:	48 83 c4 20          	add    rsp,0x20
e5a1:	8b 44 24 18          	mov    eax,DWORD PTR [rsp+0x18]
e5a5:	41 89 45 00          	mov    DWORD PTR [r13+0x0],eax
e5a9:	48 83 c4 28          	add    rsp,0x28
e5ad:	4c 89 e0             	mov    rax,r12
e5b0:	5b                   	pop    rbx
e5b1:	5d                   	pop    rbp
e5b2:	41 5c                	pop    r12
e5b4:	41 5d                	pop    r13
e5b6:	41 5e                	pop    r14
e5b8:	41 5f                	pop    r15
e5ba:	c3                   	ret
e5bb:	0f 1f 44 00 00       	nop    DWORD PTR [rax+rax*1+0x0]
e5c0:	31 ff                	xor    edi,edi
e5c2:	e8 b9 2a 00 00       	call   11080 <xrealloc>
e5c7:	66 0f 6f 05 c1 ba 20 	movdqa xmm0,XMMWORD PTR [rip+0x20bac1]        # 21a090 <slotvec0>
e5ce:	00
e5cf:	48 89 c3             	mov    rbx,rax
e5d2:	48 89 05 a7 ba 20 00 	mov    QWORD PTR [rip+0x20baa7],rax        # 21a080 <slotvec>
e5d9:	0f 11 00             	movups XMMWORD PTR [rax],xmm0
e5dc:	e9 dc fe ff ff       	jmp    e4bd <quotearg_n_options+0x7d>
e5e1:	e8 7a 41 ff ff       	call   2760 <abort@plt>
e5e6:	e8 85 2c 00 00       	call   11270 <xalloc_die>
e5eb:	0f 1f 44 00 00       	nop    DWORD PTR [rax+rax*1+0x0]

000000000000e5f0 <clone_quoting_options>:
e5f0:	41 54                	push   r12
e5f2:	55                   	push   rbp
e5f3:	53                   	push   rbx
e5f4:	48 89 fb             	mov    rbx,rdi
e5f7:	e8 74 41 ff ff       	call   2770 <__errno_location@plt>
e5fc:	44 8b 20             	mov    r12d,DWORD PTR [rax]
e5ff:	48 89 c5             	mov    rbp,rax
e602:	48 8d 05 b7 c0 20 00 	lea    rax,[rip+0x20c0b7]        # 21a6c0 <default_quoting_options>
e609:	48 85 db             	test   rbx,rbx
e60c:	be 38 00 00 00       	mov    esi,0x38
e611:	48 0f 44 d8          	cmove  rbx,rax
e615:	48 89 df             	mov    rdi,rbx
e618:	e8 03 2c 00 00       	call   11220 <xmemdup>
e61d:	44 89 65 00          	mov    DWORD PTR [rbp+0x0],r12d
e621:	5b                   	pop    rbx
e622:	5d                   	pop    rbp
e623:	41 5c                	pop    r12
e625:	c3                   	ret
e626:	66 2e 0f 1f 84 00 00 	nop    WORD PTR cs:[rax+rax*1+0x0]
e62d:	00 00 00

000000000000e630 <get_quoting_style>:
e630:	48 8d 05 89 c0 20 00 	lea    rax,[rip+0x20c089]        # 21a6c0 <default_quoting_options>
e637:	48 85 ff             	test   rdi,rdi
e63a:	48 0f 44 f8          	cmove  rdi,rax
e63e:	8b 07                	mov    eax,DWORD PTR [rdi]
e640:	c3                   	ret
e641:	0f 1f 44 00 00       	nop    DWORD PTR [rax+rax*1+0x0]
e646:	66 2e 0f 1f 84 00 00 	nop    WORD PTR cs:[rax+rax*1+0x0]
e64d:	00 00 00

000000000000e650 <set_quoting_style>:
e650:	48 8d 05 69 c0 20 00 	lea    rax,[rip+0x20c069]        # 21a6c0 <default_quoting_options>
e657:	48 85 ff             	test   rdi,rdi
e65a:	48 0f 44 f8          	cmove  rdi,rax
e65e:	89 37                	mov    DWORD PTR [rdi],esi
e660:	c3                   	ret
e661:	0f 1f 44 00 00       	nop    DWORD PTR [rax+rax*1+0x0]
e666:	66 2e 0f 1f 84 00 00 	nop    WORD PTR cs:[rax+rax*1+0x0]
e66d:	00 00 00

000000000000e670 <set_char_quoting>:
e670:	48 8d 05 49 c0 20 00 	lea    rax,[rip+0x20c049]        # 21a6c0 <default_quoting_options>
e677:	48 85 ff             	test   rdi,rdi
e67a:	89 f1                	mov    ecx,esi
e67c:	48 0f 44 f8          	cmove  rdi,rax
e680:	89 f0                	mov    eax,esi
e682:	83 e1 1f             	and    ecx,0x1f
e685:	c0 e8 05             	shr    al,0x5
e688:	0f b6 c0             	movzx  eax,al
e68b:	48 8d 7c 87 08       	lea    rdi,[rdi+rax*4+0x8]
e690:	8b 37                	mov    esi,DWORD PTR [rdi]
e692:	89 f0                	mov    eax,esi
e694:	d3 e8                	shr    eax,cl
e696:	31 c2                	xor    edx,eax
e698:	83 e0 01             	and    eax,0x1
e69b:	83 e2 01             	and    edx,0x1
e69e:	d3 e2                	shl    edx,cl
e6a0:	31 f2                	xor    edx,esi
e6a2:	89 17                	mov    DWORD PTR [rdi],edx
e6a4:	c3                   	ret
e6a5:	90                   	nop
e6a6:	66 2e 0f 1f 84 00 00 	nop    WORD PTR cs:[rax+rax*1+0x0]
e6ad:	00 00 00

000000000000e6b0 <set_quoting_flags>:
e6b0:	48 8d 05 09 c0 20 00 	lea    rax,[rip+0x20c009]        # 21a6c0 <default_quoting_options>
e6b7:	48 85 ff             	test   rdi,rdi
e6ba:	48 0f 44 f8          	cmove  rdi,rax
e6be:	8b 47 04             	mov    eax,DWORD PTR [rdi+0x4]
e6c1:	89 77 04             	mov    DWORD PTR [rdi+0x4],esi
e6c4:	c3                   	ret
e6c5:	90                   	nop
e6c6:	66 2e 0f 1f 84 00 00 	nop    WORD PTR cs:[rax+rax*1+0x0]
e6cd:	00 00 00

000000000000e6d0 <set_custom_quoting>:
e6d0:	48 8d 05 e9 bf 20 00 	lea    rax,[rip+0x20bfe9]        # 21a6c0 <default_quoting_options>
e6d7:	48 85 ff             	test   rdi,rdi
e6da:	48 0f 44 f8          	cmove  rdi,rax
e6de:	48 85 f6             	test   rsi,rsi
e6e1:	c7 07 0a 00 00 00    	mov    DWORD PTR [rdi],0xa
e6e7:	74 0e                	je     e6f7 <set_custom_quoting+0x27>
e6e9:	48 85 d2             	test   rdx,rdx
e6ec:	74 09                	je     e6f7 <set_custom_quoting+0x27>
e6ee:	48 89 77 28          	mov    QWORD PTR [rdi+0x28],rsi
e6f2:	48 89 57 30          	mov    QWORD PTR [rdi+0x30],rdx
e6f6:	c3                   	ret
e6f7:	48 83 ec 08          	sub    rsp,0x8
e6fb:	e8 60 40 ff ff       	call   2760 <abort@plt>

000000000000e700 <quotearg_buffer>:
e700:	41 57                	push   r15
e702:	41 56                	push   r14
e704:	48 8d 05 b5 bf 20 00 	lea    rax,[rip+0x20bfb5]        # 21a6c0 <default_quoting_options>
e70b:	41 55                	push   r13
e70d:	41 54                	push   r12
e70f:	49 89 fd             	mov    r13,rdi
e712:	55                   	push   rbp
e713:	53                   	push   rbx
e714:	4c 89 c3             	mov    rbx,r8
e717:	49 89 f6             	mov    r14,rsi
e71a:	49 89 d7             	mov    r15,rdx
e71d:	48 83 ec 18          	sub    rsp,0x18
e721:	4d 85 c0             	test   r8,r8
e724:	48 0f 44 d8          	cmove  rbx,rax
e728:	48 89 4c 24 08       	mov    QWORD PTR [rsp+0x8],rcx
e72d:	e8 3e 40 ff ff       	call   2770 <__errno_location@plt>
e732:	44 8b 20             	mov    r12d,DWORD PTR [rax]
e735:	48 89 c5             	mov    rbp,rax
e738:	48 8d 43 08          	lea    rax,[rbx+0x8]
e73c:	48 83 ec 08          	sub    rsp,0x8
e740:	44 8b 4b 04          	mov    r9d,DWORD PTR [rbx+0x4]
e744:	ff 73 30             	push   QWORD PTR [rbx+0x30]
e747:	44 8b 03             	mov    r8d,DWORD PTR [rbx]
e74a:	ff 73 28             	push   QWORD PTR [rbx+0x28]
e74d:	4c 89 fa             	mov    rdx,r15
e750:	50                   	push   rax
e751:	48 8b 4c 24 28       	mov    rcx,QWORD PTR [rsp+0x28]
e756:	4c 89 f6             	mov    rsi,r14
e759:	4c 89 ef             	mov    rdi,r13
e75c:	e8 9f ea ff ff       	call   d200 <quotearg_buffer_restyled>
e761:	44 89 65 00          	mov    DWORD PTR [rbp+0x0],r12d
e765:	48 83 c4 38          	add    rsp,0x38
e769:	5b                   	pop    rbx
e76a:	5d                   	pop    rbp
e76b:	41 5c                	pop    r12
e76d:	41 5d                	pop    r13
e76f:	41 5e                	pop    r14
e771:	41 5f                	pop    r15
e773:	c3                   	ret
e774:	66 90                	xchg   ax,ax
e776:	66 2e 0f 1f 84 00 00 	nop    WORD PTR cs:[rax+rax*1+0x0]
e77d:	00 00 00

000000000000e780 <quotearg_alloc_mem>:
e780:	41 57                	push   r15
e782:	41 56                	push   r14
e784:	48 8d 05 35 bf 20 00 	lea    rax,[rip+0x20bf35]        # 21a6c0 <default_quoting_options>
e78b:	41 55                	push   r13
e78d:	41 54                	push   r12
e78f:	49 89 d4             	mov    r12,rdx
e792:	55                   	push   rbp
e793:	53                   	push   rbx
e794:	48 89 cb             	mov    rbx,rcx
e797:	49 89 fe             	mov    r14,rdi
e79a:	49 89 f7             	mov    r15,rsi
e79d:	48 83 ec 38          	sub    rsp,0x38
e7a1:	48 85 c9             	test   rcx,rcx
e7a4:	48 0f 44 d8          	cmove  rbx,rax
e7a8:	31 ed                	xor    ebp,ebp
e7aa:	e8 c1 3f ff ff       	call   2770 <__errno_location@plt>
e7af:	4d 85 e4             	test   r12,r12
e7b2:	49 89 c5             	mov    r13,rax
e7b5:	8b 00                	mov    eax,DWORD PTR [rax]
e7b7:	40 0f 94 c5          	sete   bpl
e7bb:	0b 6b 04             	or     ebp,DWORD PTR [rbx+0x4]
e7be:	4c 8d 53 08          	lea    r10,[rbx+0x8]
e7c2:	48 83 ec 08          	sub    rsp,0x8
e7c6:	44 8b 03             	mov    r8d,DWORD PTR [rbx]
e7c9:	4c 89 f9             	mov    rcx,r15
e7cc:	89 44 24 14          	mov    DWORD PTR [rsp+0x14],eax
e7d0:	ff 73 30             	push   QWORD PTR [rbx+0x30]
e7d3:	4c 89 f2             	mov    rdx,r14
e7d6:	ff 73 28             	push   QWORD PTR [rbx+0x28]
e7d9:	41 52                	push   r10
e7db:	31 f6                	xor    esi,esi
e7dd:	41 89 e9             	mov    r9d,ebp
e7e0:	31 ff                	xor    edi,edi
e7e2:	4c 89 54 24 40       	mov    QWORD PTR [rsp+0x40],r10
e7e7:	e8 14 ea ff ff       	call   d200 <quotearg_buffer_restyled>
e7ec:	48 8d 70 01          	lea    rsi,[rax+0x1]
e7f0:	48 89 44 24 48       	mov    QWORD PTR [rsp+0x48],rax
e7f5:	48 83 c4 20          	add    rsp,0x20
e7f9:	48 89 f7             	mov    rdi,rsi
e7fc:	48 89 74 24 18       	mov    QWORD PTR [rsp+0x18],rsi
e801:	e8 1a 28 00 00       	call   11020 <xmalloc>
e806:	48 89 44 24 10       	mov    QWORD PTR [rsp+0x10],rax
e80b:	48 83 ec 08          	sub    rsp,0x8
e80f:	ff 73 30             	push   QWORD PTR [rbx+0x30]
e812:	ff 73 28             	push   QWORD PTR [rbx+0x28]
e815:	4c 8b 54 24 38       	mov    r10,QWORD PTR [rsp+0x38]
e81a:	41 89 e9             	mov    r9d,ebp
e81d:	44 8b 03             	mov    r8d,DWORD PTR [rbx]
e820:	4c 89 f9             	mov    rcx,r15
e823:	4c 89 f2             	mov    rdx,r14
e826:	48 89 c7             	mov    rdi,rax
e829:	41 52                	push   r10
e82b:	48 8b 74 24 38       	mov    rsi,QWORD PTR [rsp+0x38]
e830:	e8 cb e9 ff ff       	call   d200 <quotearg_buffer_restyled>
e835:	8b 44 24 2c          	mov    eax,DWORD PTR [rsp+0x2c]
e839:	48 83 c4 20          	add    rsp,0x20
e83d:	4d 85 e4             	test   r12,r12
e840:	41 89 45 00          	mov    DWORD PTR [r13+0x0],eax
e844:	74 09                	je     e84f <quotearg_alloc_mem+0xcf>
e846:	4c 8b 5c 24 28       	mov    r11,QWORD PTR [rsp+0x28]
e84b:	4d 89 1c 24          	mov    QWORD PTR [r12],r11
e84f:	48 8b 44 24 10       	mov    rax,QWORD PTR [rsp+0x10]
e854:	48 83 c4 38          	add    rsp,0x38
e858:	5b                   	pop    rbx
e859:	5d                   	pop    rbp
e85a:	41 5c                	pop    r12
e85c:	41 5d                	pop    r13
e85e:	41 5e                	pop    r14
e860:	41 5f                	pop    r15
e862:	c3                   	ret
e863:	0f 1f 00             	nop    DWORD PTR [rax]
e866:	66 2e 0f 1f 84 00 00 	nop    WORD PTR cs:[rax+rax*1+0x0]
e86d:	00 00 00

000000000000e870 <quotearg_alloc>:
e870:	48 89 d1             	mov    rcx,rdx
e873:	31 d2                	xor    edx,edx
e875:	e9 06 ff ff ff       	jmp    e780 <quotearg_alloc_mem>
e87a:	66 0f 1f 44 00 00    	nop    WORD PTR [rax+rax*1+0x0]

000000000000e880 <quotearg_free>:
e880:	8b 05 f2 b7 20 00    	mov    eax,DWORD PTR [rip+0x20b7f2]        # 21a078 <nslots>
e886:	41 54                	push   r12
e888:	4c 8b 25 f1 b7 20 00 	mov    r12,QWORD PTR [rip+0x20b7f1]        # 21a080 <slotvec>
e88f:	55                   	push   rbp
e890:	53                   	push   rbx
e891:	83 f8 01             	cmp    eax,0x1
e894:	7e 2b                	jle    e8c1 <quotearg_free+0x41>
e896:	83 e8 02             	sub    eax,0x2
e899:	49 8d 5c 24 18       	lea    rbx,[r12+0x18]
e89e:	48 c1 e0 04          	shl    rax,0x4
e8a2:	49 8d 6c 04 28       	lea    rbp,[r12+rax*1+0x28]
e8a7:	66 0f 1f 84 00 00 00 	nop    WORD PTR [rax+rax*1+0x0]
e8ae:	00 00
e8b0:	48 8b 3b             	mov    rdi,QWORD PTR [rbx]
e8b3:	48 83 c3 10          	add    rbx,0x10
e8b7:	e8 54 45 ff ff       	call   2e10 <free@plt>
e8bc:	48 39 eb             	cmp    rbx,rbp
e8bf:	75 ef                	jne    e8b0 <quotearg_free+0x30>
e8c1:	49 8b 7c 24 08       	mov    rdi,QWORD PTR [r12+0x8]
e8c6:	48 8d 1d f3 bc 20 00 	lea    rbx,[rip+0x20bcf3]        # 21a5c0 <slot0>
e8cd:	48 39 df             	cmp    rdi,rbx
e8d0:	74 17                	je     e8e9 <quotearg_free+0x69>
e8d2:	e8 39 45 ff ff       	call   2e10 <free@plt>
e8d7:	48 c7 05 ae b7 20 00 	mov    QWORD PTR [rip+0x20b7ae],0x100        # 21a090 <slotvec0>
e8de:	00 01 00 00
e8e2:	48 89 1d af b7 20 00 	mov    QWORD PTR [rip+0x20b7af],rbx        # 21a098 <slotvec0+0x8>
e8e9:	48 8d 1d a0 b7 20 00 	lea    rbx,[rip+0x20b7a0]        # 21a090 <slotvec0>
e8f0:	49 39 dc             	cmp    r12,rbx
e8f3:	74 0f                	je     e904 <quotearg_free+0x84>
e8f5:	4c 89 e7             	mov    rdi,r12
e8f8:	e8 13 45 ff ff       	call   2e10 <free@plt>
e8fd:	48 89 1d 7c b7 20 00 	mov    QWORD PTR [rip+0x20b77c],rbx        # 21a080 <slotvec>
e904:	5b                   	pop    rbx
e905:	c7 05 69 b7 20 00 01 	mov    DWORD PTR [rip+0x20b769],0x1        # 21a078 <nslots>
e90c:	00 00 00
e90f:	5d                   	pop    rbp
e910:	41 5c                	pop    r12
e912:	c3                   	ret
e913:	0f 1f 00             	nop    DWORD PTR [rax]
e916:	66 2e 0f 1f 84 00 00 	nop    WORD PTR cs:[rax+rax*1+0x0]
e91d:	00 00 00

000000000000e920 <quotearg_n>:
e920:	48 8d 0d 99 bd 20 00 	lea    rcx,[rip+0x20bd99]        # 21a6c0 <default_quoting_options>
e927:	48 c7 c2 ff ff ff ff 	mov    rdx,0xffffffffffffffff
e92e:	e9 0d fb ff ff       	jmp    e440 <quotearg_n_options>
e933:	0f 1f 00             	nop    DWORD PTR [rax]
e936:	66 2e 0f 1f 84 00 00 	nop    WORD PTR cs:[rax+rax*1+0x0]
e93d:	00 00 00

000000000000e940 <quotearg_n_mem>:
e940:	48 8d 0d 79 bd 20 00 	lea    rcx,[rip+0x20bd79]        # 21a6c0 <default_quoting_options>
e947:	e9 f4 fa ff ff       	jmp    e440 <quotearg_n_options>
e94c:	0f 1f 40 00          	nop    DWORD PTR [rax+0x0]

000000000000e950 <quotearg>:
e950:	48 8d 0d 69 bd 20 00 	lea    rcx,[rip+0x20bd69]        # 21a6c0 <default_quoting_options>
e957:	48 89 fe             	mov    rsi,rdi
e95a:	48 c7 c2 ff ff ff ff 	mov    rdx,0xffffffffffffffff
e961:	31 ff                	xor    edi,edi
e963:	e9 d8 fa ff ff       	jmp    e440 <quotearg_n_options>
e968:	0f 1f 84 00 00 00 00 	nop    DWORD PTR [rax+rax*1+0x0]
e96f:	00

000000000000e970 <quotearg_mem>:
e970:	48 8d 0d 49 bd 20 00 	lea    rcx,[rip+0x20bd49]        # 21a6c0 <default_quoting_options>
e977:	48 89 f2             	mov    rdx,rsi
e97a:	48 89 fe             	mov    rsi,rdi
e97d:	31 ff                	xor    edi,edi
e97f:	e9 bc fa ff ff       	jmp    e440 <quotearg_n_options>
e984:	66 90                	xchg   ax,ax
e986:	66 2e 0f 1f 84 00 00 	nop    WORD PTR cs:[rax+rax*1+0x0]
e98d:	00 00 00

000000000000e990 <quotearg_n_style>:
e990:	48 83 ec 48          	sub    rsp,0x48
e994:	48 89 d0             	mov    rax,rdx
e997:	64 48 8b 14 25 28 00 	mov    rdx,QWORD PTR fs:0x28
e99e:	00 00
e9a0:	48 89 54 24 38       	mov    QWORD PTR [rsp+0x38],rdx
e9a5:	31 d2                	xor    edx,edx
e9a7:	83 fe 0a             	cmp    esi,0xa
e9aa:	74 68                	je     ea14 <quotearg_n_style+0x84>
e9ac:	89 34 24             	mov    DWORD PTR [rsp],esi
e9af:	48 89 e1             	mov    rcx,rsp
e9b2:	48 c7 c2 ff ff ff ff 	mov    rdx,0xffffffffffffffff
e9b9:	48 89 c6             	mov    rsi,rax
e9bc:	48 c7 44 24 04 00 00 	mov    QWORD PTR [rsp+0x4],0x0
e9c3:	00 00
e9c5:	48 c7 44 24 0c 00 00 	mov    QWORD PTR [rsp+0xc],0x0
e9cc:	00 00
e9ce:	48 c7 44 24 14 00 00 	mov    QWORD PTR [rsp+0x14],0x0
e9d5:	00 00
e9d7:	48 c7 44 24 1c 00 00 	mov    QWORD PTR [rsp+0x1c],0x0
e9de:	00 00
e9e0:	48 c7 44 24 24 00 00 	mov    QWORD PTR [rsp+0x24],0x0
e9e7:	00 00
e9e9:	48 c7 44 24 2c 00 00 	mov    QWORD PTR [rsp+0x2c],0x0
e9f0:	00 00
e9f2:	c7 44 24 34 00 00 00 	mov    DWORD PTR [rsp+0x34],0x0
e9f9:	00
e9fa:	e8 41 fa ff ff       	call   e440 <quotearg_n_options>
e9ff:	48 8b 4c 24 38       	mov    rcx,QWORD PTR [rsp+0x38]
ea04:	64 48 33 0c 25 28 00 	xor    rcx,QWORD PTR fs:0x28
ea0b:	00 00
ea0d:	75 0a                	jne    ea19 <quotearg_n_style+0x89>
ea0f:	48 83 c4 48          	add    rsp,0x48
ea13:	c3                   	ret
ea14:	e8 47 3d ff ff       	call   2760 <abort@plt>
ea19:	e8 12 3f ff ff       	call   2930 <__stack_chk_fail@plt>
ea1e:	66 90                	xchg   ax,ax

000000000000ea20 <quotearg_n_style_mem>:
ea20:	48 83 ec 48          	sub    rsp,0x48
ea24:	48 89 d0             	mov    rax,rdx
ea27:	48 89 ca             	mov    rdx,rcx
ea2a:	64 48 8b 0c 25 28 00 	mov    rcx,QWORD PTR fs:0x28
ea31:	00 00
ea33:	48 89 4c 24 38       	mov    QWORD PTR [rsp+0x38],rcx
ea38:	31 c9                	xor    ecx,ecx
ea3a:	83 fe 0a             	cmp    esi,0xa
ea3d:	74 61                	je     eaa0 <quotearg_n_style_mem+0x80>
ea3f:	89 34 24             	mov    DWORD PTR [rsp],esi
ea42:	48 89 e1             	mov    rcx,rsp
ea45:	48 89 c6             	mov    rsi,rax
ea48:	48 c7 44 24 04 00 00 	mov    QWORD PTR [rsp+0x4],0x0
ea4f:	00 00
ea51:	48 c7 44 24 0c 00 00 	mov    QWORD PTR [rsp+0xc],0x0
ea58:	00 00
ea5a:	48 c7 44 24 14 00 00 	mov    QWORD PTR [rsp+0x14],0x0
ea61:	00 00
ea63:	48 c7 44 24 1c 00 00 	mov    QWORD PTR [rsp+0x1c],0x0
ea6a:	00 00
ea6c:	48 c7 44 24 24 00 00 	mov    QWORD PTR [rsp+0x24],0x0
ea73:	00 00
ea75:	48 c7 44 24 2c 00 00 	mov    QWORD PTR [rsp+0x2c],0x0
ea7c:	00 00
ea7e:	c7 44 24 34 00 00 00 	mov    DWORD PTR [rsp+0x34],0x0
ea85:	00
ea86:	e8 b5 f9 ff ff       	call   e440 <quotearg_n_options>
ea8b:	48 8b 54 24 38       	mov    rdx,QWORD PTR [rsp+0x38]
ea90:	64 48 33 14 25 28 00 	xor    rdx,QWORD PTR fs:0x28
ea97:	00 00
ea99:	75 0a                	jne    eaa5 <quotearg_n_style_mem+0x85>
ea9b:	48 83 c4 48          	add    rsp,0x48
ea9f:	c3                   	ret
eaa0:	e8 bb 3c ff ff       	call   2760 <abort@plt>
eaa5:	e8 86 3e ff ff       	call   2930 <__stack_chk_fail@plt>
eaaa:	66 0f 1f 44 00 00    	nop    WORD PTR [rax+rax*1+0x0]

000000000000eab0 <quotearg_style>:
eab0:	48 89 f2             	mov    rdx,rsi
eab3:	89 fe                	mov    esi,edi
eab5:	31 ff                	xor    edi,edi
eab7:	e9 d4 fe ff ff       	jmp    e990 <quotearg_n_style>
eabc:	0f 1f 40 00          	nop    DWORD PTR [rax+0x0]

000000000000eac0 <quotearg_style_mem>:
eac0:	48 89 d1             	mov    rcx,rdx
eac3:	48 89 f2             	mov    rdx,rsi
eac6:	89 fe                	mov    esi,edi
eac8:	31 ff                	xor    edi,edi
eaca:	e9 51 ff ff ff       	jmp    ea20 <quotearg_n_style_mem>
eacf:	90                   	nop

000000000000ead0 <quotearg_char_mem>:
ead0:	48 83 ec 48          	sub    rsp,0x48
ead4:	89 d1                	mov    ecx,edx
ead6:	64 48 8b 04 25 28 00 	mov    rax,QWORD PTR fs:0x28
eadd:	00 00
eadf:	48 89 44 24 38       	mov    QWORD PTR [rsp+0x38],rax
eae4:	31 c0                	xor    eax,eax
eae6:	48 8b 05 03 bc 20 00 	mov    rax,QWORD PTR [rip+0x20bc03]        # 21a6f0 <default_quoting_options+0x30>
eaed:	49 89 e0             	mov    r8,rsp
eaf0:	83 e1 1f             	and    ecx,0x1f
eaf3:	66 0f 6f 05 c5 bb 20 	movdqa xmm0,XMMWORD PTR [rip+0x20bbc5]        # 21a6c0 <default_quoting_options>
eafa:	00
eafb:	48 89 44 24 30       	mov    QWORD PTR [rsp+0x30],rax
eb00:	89 d0                	mov    eax,edx
eb02:	0f 29 04 24          	movaps XMMWORD PTR [rsp],xmm0
eb06:	c0 e8 05             	shr    al,0x5
eb09:	0f b6 c0             	movzx  eax,al
eb0c:	4d 8d 4c 80 08       	lea    r9,[r8+rax*4+0x8]
eb11:	66 0f 6f 05 b7 bb 20 	movdqa xmm0,XMMWORD PTR [rip+0x20bbb7]        # 21a6d0 <default_quoting_options+0x10>
eb18:	00
eb19:	0f 29 44 24 10       	movaps XMMWORD PTR [rsp+0x10],xmm0
eb1e:	66 0f 6f 05 ba bb 20 	movdqa xmm0,XMMWORD PTR [rip+0x20bbba]        # 21a6e0 <default_quoting_options+0x20>
eb25:	00
eb26:	0f 29 44 24 20       	movaps XMMWORD PTR [rsp+0x20],xmm0
eb2b:	41 8b 11             	mov    edx,DWORD PTR [r9]
eb2e:	89 d0                	mov    eax,edx
eb30:	d3 e8                	shr    eax,cl
eb32:	f7 d0                	not    eax
eb34:	83 e0 01             	and    eax,0x1
eb37:	d3 e0                	shl    eax,cl
eb39:	4c 89 c1             	mov    rcx,r8
eb3c:	31 d0                	xor    eax,edx
eb3e:	48 89 f2             	mov    rdx,rsi
eb41:	48 89 fe             	mov    rsi,rdi
eb44:	41 89 01             	mov    DWORD PTR [r9],eax
eb47:	31 ff                	xor    edi,edi
eb49:	e8 f2 f8 ff ff       	call   e440 <quotearg_n_options>
eb4e:	48 8b 74 24 38       	mov    rsi,QWORD PTR [rsp+0x38]
eb53:	64 48 33 34 25 28 00 	xor    rsi,QWORD PTR fs:0x28
eb5a:	00 00
eb5c:	75 05                	jne    eb63 <quotearg_char_mem+0x93>
eb5e:	48 83 c4 48          	add    rsp,0x48
eb62:	c3                   	ret
eb63:	e8 c8 3d ff ff       	call   2930 <__stack_chk_fail@plt>
eb68:	0f 1f 84 00 00 00 00 	nop    DWORD PTR [rax+rax*1+0x0]
eb6f:	00

000000000000eb70 <quotearg_char>:
eb70:	40 0f be d6          	movsx  edx,sil
eb74:	48 c7 c6 ff ff ff ff 	mov    rsi,0xffffffffffffffff
eb7b:	e9 50 ff ff ff       	jmp    ead0 <quotearg_char_mem>

000000000000eb80 <quotearg_colon>:
eb80:	ba 3a 00 00 00       	mov    edx,0x3a
eb85:	48 c7 c6 ff ff ff ff 	mov    rsi,0xffffffffffffffff
eb8c:	e9 3f ff ff ff       	jmp    ead0 <quotearg_char_mem>
eb91:	0f 1f 44 00 00       	nop    DWORD PTR [rax+rax*1+0x0]
eb96:	66 2e 0f 1f 84 00 00 	nop    WORD PTR cs:[rax+rax*1+0x0]
eb9d:	00 00 00

000000000000eba0 <quotearg_colon_mem>:
eba0:	ba 3a 00 00 00       	mov    edx,0x3a
eba5:	e9 26 ff ff ff       	jmp    ead0 <quotearg_char_mem>
ebaa:	66 0f 1f 44 00 00    	nop    WORD PTR [rax+rax*1+0x0]

000000000000ebb0 <quotearg_n_style_colon>:
ebb0:	48 83 ec 48          	sub    rsp,0x48
ebb4:	48 89 d0             	mov    rax,rdx
ebb7:	64 48 8b 14 25 28 00 	mov    rdx,QWORD PTR fs:0x28
ebbe:	00 00
ebc0:	48 89 54 24 38       	mov    QWORD PTR [rsp+0x38],rdx
ebc5:	31 d2                	xor    edx,edx
ebc7:	83 fe 0a             	cmp    esi,0xa
ebca:	74 68                	je     ec34 <quotearg_n_style_colon+0x84>
ebcc:	89 34 24             	mov    DWORD PTR [rsp],esi
ebcf:	48 89 e1             	mov    rcx,rsp
ebd2:	48 c7 c2 ff ff ff ff 	mov    rdx,0xffffffffffffffff
ebd9:	48 89 c6             	mov    rsi,rax
ebdc:	48 c7 44 24 04 00 00 	mov    QWORD PTR [rsp+0x4],0x0
ebe3:	00 00
ebe5:	48 c7 44 24 0c 00 00 	mov    QWORD PTR [rsp+0xc],0x4000000
ebec:	00 04
ebee:	48 c7 44 24 14 00 00 	mov    QWORD PTR [rsp+0x14],0x0
ebf5:	00 00
ebf7:	48 c7 44 24 1c 00 00 	mov    QWORD PTR [rsp+0x1c],0x0
ebfe:	00 00
ec00:	48 c7 44 24 24 00 00 	mov    QWORD PTR [rsp+0x24],0x0
ec07:	00 00
ec09:	48 c7 44 24 2c 00 00 	mov    QWORD PTR [rsp+0x2c],0x0
ec10:	00 00
ec12:	c7 44 24 34 00 00 00 	mov    DWORD PTR [rsp+0x34],0x0
ec19:	00
ec1a:	e8 21 f8 ff ff       	call   e440 <quotearg_n_options>
ec1f:	48 8b 4c 24 38       	mov    rcx,QWORD PTR [rsp+0x38]
ec24:	64 48 33 0c 25 28 00 	xor    rcx,QWORD PTR fs:0x28
ec2b:	00 00
ec2d:	75 0a                	jne    ec39 <quotearg_n_style_colon+0x89>
ec2f:	48 83 c4 48          	add    rsp,0x48
ec33:	c3                   	ret
ec34:	e8 27 3b ff ff       	call   2760 <abort@plt>
ec39:	e8 f2 3c ff ff       	call   2930 <__stack_chk_fail@plt>
ec3e:	66 90                	xchg   ax,ax

000000000000ec40 <quotearg_n_custom_mem>:
ec40:	48 83 ec 48          	sub    rsp,0x48
ec44:	49 89 c9             	mov    r9,rcx
ec47:	48 8b 0d a2 ba 20 00 	mov    rcx,QWORD PTR [rip+0x20baa2]        # 21a6f0 <default_quoting_options+0x30>
ec4e:	66 0f 6f 05 6a ba 20 	movdqa xmm0,XMMWORD PTR [rip+0x20ba6a]        # 21a6c0 <default_quoting_options>
ec55:	00
ec56:	64 48 8b 04 25 28 00 	mov    rax,QWORD PTR fs:0x28
ec5d:	00 00
ec5f:	48 89 44 24 38       	mov    QWORD PTR [rsp+0x38],rax
ec64:	31 c0                	xor    eax,eax
ec66:	0f 29 04 24          	movaps XMMWORD PTR [rsp],xmm0
ec6a:	48 85 f6             	test   rsi,rsi
ec6d:	48 89 4c 24 30       	mov    QWORD PTR [rsp+0x30],rcx
ec72:	c7 04 24 0a 00 00 00 	mov    DWORD PTR [rsp],0xa
ec79:	66 0f 6f 05 4f ba 20 	movdqa xmm0,XMMWORD PTR [rip+0x20ba4f]        # 21a6d0 <default_quoting_options+0x10>
ec80:	00
ec81:	0f 29 44 24 10       	movaps XMMWORD PTR [rsp+0x10],xmm0
ec86:	66 0f 6f 05 52 ba 20 	movdqa xmm0,XMMWORD PTR [rip+0x20ba52]        # 21a6e0 <default_quoting_options+0x20>
ec8d:	00
ec8e:	0f 29 44 24 20       	movaps XMMWORD PTR [rsp+0x20],xmm0
ec93:	74 32                	je     ecc7 <quotearg_n_custom_mem+0x87>
ec95:	48 85 d2             	test   rdx,rdx
ec98:	74 2d                	je     ecc7 <quotearg_n_custom_mem+0x87>
ec9a:	48 89 74 24 28       	mov    QWORD PTR [rsp+0x28],rsi
ec9f:	48 89 54 24 30       	mov    QWORD PTR [rsp+0x30],rdx
eca4:	48 89 e1             	mov    rcx,rsp
eca7:	4c 89 c2             	mov    rdx,r8
ecaa:	4c 89 ce             	mov    rsi,r9
ecad:	e8 8e f7 ff ff       	call   e440 <quotearg_n_options>
ecb2:	48 8b 7c 24 38       	mov    rdi,QWORD PTR [rsp+0x38]
ecb7:	64 48 33 3c 25 28 00 	xor    rdi,QWORD PTR fs:0x28
ecbe:	00 00
ecc0:	75 0a                	jne    eccc <quotearg_n_custom_mem+0x8c>
ecc2:	48 83 c4 48          	add    rsp,0x48
ecc6:	c3                   	ret
ecc7:	e8 94 3a ff ff       	call   2760 <abort@plt>
eccc:	e8 5f 3c ff ff       	call   2930 <__stack_chk_fail@plt>
ecd1:	0f 1f 44 00 00       	nop    DWORD PTR [rax+rax*1+0x0]
ecd6:	66 2e 0f 1f 84 00 00 	nop    WORD PTR cs:[rax+rax*1+0x0]
ecdd:	00 00 00

000000000000ece0 <quotearg_n_custom>:
ece0:	49 c7 c0 ff ff ff ff 	mov    r8,0xffffffffffffffff
ece7:	e9 54 ff ff ff       	jmp    ec40 <quotearg_n_custom_mem>
ecec:	0f 1f 40 00          	nop    DWORD PTR [rax+0x0]

000000000000ecf0 <quotearg_custom>:
ecf0:	48 89 d1             	mov    rcx,rdx
ecf3:	49 c7 c0 ff ff ff ff 	mov    r8,0xffffffffffffffff
ecfa:	48 89 f2             	mov    rdx,rsi
ecfd:	48 89 fe             	mov    rsi,rdi
ed00:	31 ff                	xor    edi,edi
ed02:	e9 39 ff ff ff       	jmp    ec40 <quotearg_n_custom_mem>
ed07:	66 0f 1f 84 00 00 00 	nop    WORD PTR [rax+rax*1+0x0]
ed0e:	00 00

000000000000ed10 <quotearg_custom_mem>:
ed10:	49 89 c8             	mov    r8,rcx
ed13:	48 89 d1             	mov    rcx,rdx
ed16:	48 89 f2             	mov    rdx,rsi
ed19:	48 89 fe             	mov    rsi,rdi
ed1c:	31 ff                	xor    edi,edi
ed1e:	e9 1d ff ff ff       	jmp    ec40 <quotearg_n_custom_mem>
ed23:	0f 1f 00             	nop    DWORD PTR [rax]
ed26:	66 2e 0f 1f 84 00 00 	nop    WORD PTR cs:[rax+rax*1+0x0]
ed2d:	00 00 00

000000000000ed30 <quote_n_mem>:
ed30:	48 8d 0d 09 b3 20 00 	lea    rcx,[rip+0x20b309]        # 21a040 <quote_quoting_options>
ed37:	e9 04 f7 ff ff       	jmp    e440 <quotearg_n_options>
ed3c:	0f 1f 40 00          	nop    DWORD PTR [rax+0x0]

000000000000ed40 <quote_mem>:
ed40:	48 8d 0d f9 b2 20 00 	lea    rcx,[rip+0x20b2f9]        # 21a040 <quote_quoting_options>
ed47:	48 89 f2             	mov    rdx,rsi
ed4a:	48 89 fe             	mov    rsi,rdi
ed4d:	31 ff                	xor    edi,edi
ed4f:	e9 ec f6 ff ff       	jmp    e440 <quotearg_n_options>
ed54:	66 90                	xchg   ax,ax
ed56:	66 2e 0f 1f 84 00 00 	nop    WORD PTR cs:[rax+rax*1+0x0]
ed5d:	00 00 00

000000000000ed60 <quote_n>:
ed60:	48 8d 0d d9 b2 20 00 	lea    rcx,[rip+0x20b2d9]        # 21a040 <quote_quoting_options>
ed67:	48 c7 c2 ff ff ff ff 	mov    rdx,0xffffffffffffffff
ed6e:	e9 cd f6 ff ff       	jmp    e440 <quotearg_n_options>
ed73:	0f 1f 00             	nop    DWORD PTR [rax]
ed76:	66 2e 0f 1f 84 00 00 	nop    WORD PTR cs:[rax+rax*1+0x0]
ed7d:	00 00 00

000000000000ed80 <quote>:
ed80:	48 8d 0d b9 b2 20 00 	lea    rcx,[rip+0x20b2b9]        # 21a040 <quote_quoting_options>
ed87:	48 89 fe             	mov    rsi,rdi
ed8a:	48 c7 c2 ff ff ff ff 	mov    rdx,0xffffffffffffffff
ed91:	31 ff                	xor    edi,edi
ed93:	e9 a8 f6 ff ff       	jmp    e440 <quotearg_n_options>
ed98:	0f 1f 84 00 00 00 00 	nop    DWORD PTR [rax+rax*1+0x0]
ed9f:	00

000000000000eda0 <renameatu>:
eda0:	41 57                	push   r15
eda2:	41 56                	push   r14
eda4:	45 89 c1             	mov    r9d,r8d
eda7:	41 55                	push   r13
eda9:	41 54                	push   r12
edab:	41 89 d6             	mov    r14d,edx
edae:	55                   	push   rbp
edaf:	53                   	push   rbx
edb0:	49 89 f4             	mov    r12,rsi
edb3:	49 89 cd             	mov    r13,rcx
edb6:	44 89 c5             	mov    ebp,r8d
edb9:	49 89 c8             	mov    r8,rcx
edbc:	48 81 ec 48 01 00 00 	sub    rsp,0x148
edc3:	89 d1                	mov    ecx,edx
edc5:	48 89 f2             	mov    rdx,rsi
edc8:	64 48 8b 04 25 28 00 	mov    rax,QWORD PTR fs:0x28
edcf:	00 00
edd1:	48 89 84 24 38 01 00 	mov    QWORD PTR [rsp+0x138],rax
edd8:	00
edd9:	31 c0                	xor    eax,eax
eddb:	89 fe                	mov    esi,edi
eddd:	89 7c 24 04          	mov    DWORD PTR [rsp+0x4],edi
ede1:	bf 3c 01 00 00       	mov    edi,0x13c
ede6:	e8 45 3d ff ff       	call   2b30 <syscall@plt>
edeb:	48 89 c3             	mov    rbx,rax
edee:	41 89 c7             	mov    r15d,eax
edf1:	e8 7a 39 ff ff       	call   2770 <__errno_location@plt>
edf6:	85 db                	test   ebx,ebx
edf8:	78 36                	js     ee30 <renameatu+0x90>
edfa:	48 8b 94 24 38 01 00 	mov    rdx,QWORD PTR [rsp+0x138]
ee01:	00
ee02:	64 48 33 14 25 28 00 	xor    rdx,QWORD PTR fs:0x28
ee09:	00 00
ee0b:	44 89 f8             	mov    eax,r15d
ee0e:	0f 85 f1 01 00 00    	jne    f005 <renameatu+0x265>
ee14:	48 81 c4 48 01 00 00 	add    rsp,0x148
ee1b:	5b                   	pop    rbx
ee1c:	5d                   	pop    rbp
ee1d:	41 5c                	pop    r12
ee1f:	41 5d                	pop    r13
ee21:	41 5e                	pop    r14
ee23:	41 5f                	pop    r15
ee25:	c3                   	ret
ee26:	66 2e 0f 1f 84 00 00 	nop    WORD PTR cs:[rax+rax*1+0x0]
ee2d:	00 00 00
ee30:	49 89 c1             	mov    r9,rax
ee33:	8b 00                	mov    eax,DWORD PTR [rax]
ee35:	8d 48 ea             	lea    ecx,[rax-0x16]
ee38:	83 e1 ef             	and    ecx,0xffffffef
ee3b:	0f 95 c3             	setne  bl
ee3e:	83 f8 5f             	cmp    eax,0x5f
ee41:	0f 95 c0             	setne  al
ee44:	20 c3                	and    bl,al
ee46:	75 b2                	jne    edfa <renameatu+0x5a>
ee48:	85 ed                	test   ebp,ebp
ee4a:	75 54                	jne    eea0 <renameatu+0x100>
ee4c:	4c 89 e7             	mov    rdi,r12
ee4f:	4c 89 4c 24 08       	mov    QWORD PTR [rsp+0x8],r9
ee54:	e8 a7 3a ff ff       	call   2900 <strlen@plt>
ee59:	4c 89 ef             	mov    rdi,r13
ee5c:	48 89 c5             	mov    rbp,rax
ee5f:	e8 9c 3a ff ff       	call   2900 <strlen@plt>
ee64:	48 85 ed             	test   rbp,rbp
ee67:	74 1a                	je     ee83 <renameatu+0xe3>
ee69:	48 85 c0             	test   rax,rax
ee6c:	4c 8b 4c 24 08       	mov    r9,QWORD PTR [rsp+0x8]
ee71:	74 10                	je     ee83 <renameatu+0xe3>
ee73:	41 80 7c 2c ff 2f    	cmp    BYTE PTR [r12+rbp*1-0x1],0x2f
ee79:	74 45                	je     eec0 <renameatu+0x120>
ee7b:	41 80 7c 05 ff 2f    	cmp    BYTE PTR [r13+rax*1-0x1],0x2f
ee81:	74 3d                	je     eec0 <renameatu+0x120>
ee83:	8b 7c 24 04          	mov    edi,DWORD PTR [rsp+0x4]
ee87:	4c 89 e9             	mov    rcx,r13
ee8a:	44 89 f2             	mov    edx,r14d
ee8d:	4c 89 e6             	mov    rsi,r12
ee90:	e8 cb 3e ff ff       	call   2d60 <renameat@plt>
ee95:	41 89 c7             	mov    r15d,eax
ee98:	e9 5d ff ff ff       	jmp    edfa <renameatu+0x5a>
ee9d:	0f 1f 00             	nop    DWORD PTR [rax]
eea0:	83 e5 fe             	and    ebp,0xfffffffe
eea3:	74 6b                	je     ef10 <renameatu+0x170>
eea5:	41 c7 01 5f 00 00 00 	mov    DWORD PTR [r9],0x5f
eeac:	41 bf ff ff ff ff    	mov    r15d,0xffffffff
eeb2:	e9 43 ff ff ff       	jmp    edfa <renameatu+0x5a>
eeb7:	66 0f 1f 84 00 00 00 	nop    WORD PTR [rax+rax*1+0x0]
eebe:	00 00
eec0:	8b 74 24 04          	mov    esi,DWORD PTR [rsp+0x4]
eec4:	48 8d 4c 24 10       	lea    rcx,[rsp+0x10]
eec9:	41 b8 00 01 00 00    	mov    r8d,0x100
eecf:	4c 89 e2             	mov    rdx,r12
eed2:	bf 01 00 00 00       	mov    edi,0x1
eed7:	4c 89 4c 24 08       	mov    QWORD PTR [rsp+0x8],r9
eedc:	e8 9f 3a ff ff       	call   2980 <__fxstatat@plt>
eee1:	85 c0                	test   eax,eax
eee3:	75 64                	jne    ef49 <renameatu+0x1a9>
eee5:	84 db                	test   bl,bl
eee7:	4c 8b 4c 24 08       	mov    r9,QWORD PTR [rsp+0x8]
eeec:	74 7c                	je     ef6a <renameatu+0x1ca>
eeee:	8b 44 24 28          	mov    eax,DWORD PTR [rsp+0x28]
eef2:	25 00 f0 00 00       	and    eax,0xf000
eef7:	3d 00 40 00 00       	cmp    eax,0x4000
eefc:	74 85                	je     ee83 <renameatu+0xe3>
eefe:	41 c7 01 02 00 00 00 	mov    DWORD PTR [r9],0x2
ef05:	41 bf ff ff ff ff    	mov    r15d,0xffffffff
ef0b:	e9 ea fe ff ff       	jmp    edfa <renameatu+0x5a>
ef10:	48 8d 8c 24 a0 00 00 	lea    rcx,[rsp+0xa0]
ef17:	00
ef18:	41 b8 00 01 00 00    	mov    r8d,0x100
ef1e:	4c 89 ea             	mov    rdx,r13
ef21:	44 89 f6             	mov    esi,r14d
ef24:	bf 01 00 00 00       	mov    edi,0x1
ef29:	4c 89 4c 24 08       	mov    QWORD PTR [rsp+0x8],r9
ef2e:	e8 4d 3a ff ff       	call   2980 <__fxstatat@plt>
ef33:	85 c0                	test   eax,eax
ef35:	4c 8b 4c 24 08       	mov    r9,QWORD PTR [rsp+0x8]
ef3a:	74 1c                	je     ef58 <renameatu+0x1b8>
ef3c:	41 8b 01             	mov    eax,DWORD PTR [r9]
ef3f:	83 f8 4b             	cmp    eax,0x4b
ef42:	74 14                	je     ef58 <renameatu+0x1b8>
ef44:	83 f8 02             	cmp    eax,0x2
ef47:	74 6f                	je     efb8 <renameatu+0x218>
ef49:	41 bf ff ff ff ff    	mov    r15d,0xffffffff
ef4f:	e9 a6 fe ff ff       	jmp    edfa <renameatu+0x5a>
ef54:	0f 1f 40 00          	nop    DWORD PTR [rax+0x0]
ef58:	41 c7 01 11 00 00 00 	mov    DWORD PTR [r9],0x11
ef5f:	41 bf ff ff ff ff    	mov    r15d,0xffffffff
ef65:	e9 90 fe ff ff       	jmp    edfa <renameatu+0x5a>
ef6a:	48 8d 8c 24 a0 00 00 	lea    rcx,[rsp+0xa0]
ef71:	00
ef72:	41 b8 00 01 00 00    	mov    r8d,0x100
ef78:	4c 89 ea             	mov    rdx,r13
ef7b:	44 89 f6             	mov    esi,r14d
ef7e:	bf 01 00 00 00       	mov    edi,0x1
ef83:	4c 89 4c 24 08       	mov    QWORD PTR [rsp+0x8],r9
ef88:	e8 f3 39 ff ff       	call   2980 <__fxstatat@plt>
ef8d:	85 c0                	test   eax,eax
ef8f:	4c 8b 4c 24 08       	mov    r9,QWORD PTR [rsp+0x8]
ef94:	74 2c                	je     efc2 <renameatu+0x222>
ef96:	41 83 39 02          	cmp    DWORD PTR [r9],0x2
ef9a:	75 ad                	jne    ef49 <renameatu+0x1a9>
ef9c:	8b 44 24 28          	mov    eax,DWORD PTR [rsp+0x28]
efa0:	25 00 f0 00 00       	and    eax,0xf000
efa5:	3d 00 40 00 00       	cmp    eax,0x4000
efaa:	75 9d                	jne    ef49 <renameatu+0x1a9>
efac:	e9 d2 fe ff ff       	jmp    ee83 <renameatu+0xe3>
efb1:	0f 1f 80 00 00 00 00 	nop    DWORD PTR [rax+0x0]
efb8:	bb 01 00 00 00       	mov    ebx,0x1
efbd:	e9 8a fe ff ff       	jmp    ee4c <renameatu+0xac>
efc2:	8b 84 24 b8 00 00 00 	mov    eax,DWORD PTR [rsp+0xb8]
efc9:	25 00 f0 00 00       	and    eax,0xf000
efce:	3d 00 40 00 00       	cmp    eax,0x4000
efd3:	74 0c                	je     efe1 <renameatu+0x241>
efd5:	41 c7 01 14 00 00 00 	mov    DWORD PTR [r9],0x14
efdc:	e9 68 ff ff ff       	jmp    ef49 <renameatu+0x1a9>
efe1:	8b 44 24 28          	mov    eax,DWORD PTR [rsp+0x28]
efe5:	25 00 f0 00 00       	and    eax,0xf000
efea:	3d 00 40 00 00       	cmp    eax,0x4000
efef:	0f 84 8e fe ff ff    	je     ee83 <renameatu+0xe3>
eff5:	41 c7 01 15 00 00 00 	mov    DWORD PTR [r9],0x15
effc:	41 83 cf ff          	or     r15d,0xffffffff
f000:	e9 f5 fd ff ff       	jmp    edfa <renameatu+0x5a>
f005:	e8 26 39 ff ff       	call   2930 <__stack_chk_fail@plt>
f00a:	66 0f 1f 44 00 00    	nop    WORD PTR [rax+rax*1+0x0]

000000000000f010 <safe_write>:
f010:	41 55                	push   r13
f012:	41 54                	push   r12
f014:	41 89 fd             	mov    r13d,edi
f017:	55                   	push   rbp
f018:	53                   	push   rbx
f019:	49 89 f4             	mov    r12,rsi
f01c:	48 89 d3             	mov    rbx,rdx
f01f:	48 83 ec 08          	sub    rsp,0x8
f023:	0f 1f 44 00 00       	nop    DWORD PTR [rax+rax*1+0x0]
f028:	48 89 da             	mov    rdx,rbx
f02b:	4c 89 e6             	mov    rsi,r12
f02e:	44 89 ef             	mov    edi,r13d
f031:	e8 0a 38 ff ff       	call   2840 <write@plt>
f036:	48 85 c0             	test   rax,rax
f039:	48 89 c5             	mov    rbp,rax
f03c:	79 22                	jns    f060 <safe_write+0x50>
f03e:	e8 2d 37 ff ff       	call   2770 <__errno_location@plt>
f043:	8b 00                	mov    eax,DWORD PTR [rax]
f045:	83 f8 04             	cmp    eax,0x4
f048:	74 de                	je     f028 <safe_write+0x18>
f04a:	83 f8 16             	cmp    eax,0x16
f04d:	75 11                	jne    f060 <safe_write+0x50>
f04f:	48 81 fb 00 00 f0 7f 	cmp    rbx,0x7ff00000
f056:	76 08                	jbe    f060 <safe_write+0x50>
f058:	bb 00 00 f0 7f       	mov    ebx,0x7ff00000
f05d:	eb c9                	jmp    f028 <safe_write+0x18>
f05f:	90                   	nop
f060:	48 83 c4 08          	add    rsp,0x8
f064:	48 89 e8             	mov    rax,rbp
f067:	5b                   	pop    rbx
f068:	5d                   	pop    rbp
f069:	41 5c                	pop    r12
f06b:	41 5d                	pop    r13
f06d:	c3                   	ret
f06e:	66 90                	xchg   ax,ax

000000000000f070 <same_nameat.part.0>:
f070:	41 55                	push   r13
f072:	41 54                	push   r12
f074:	41 89 fd             	mov    r13d,edi
f077:	55                   	push   rbp
f078:	53                   	push   rbx
f079:	48 89 f7             	mov    rdi,rsi
f07c:	89 d5                	mov    ebp,edx
f07e:	49 89 cc             	mov    r12,rcx
f081:	48 81 ec 38 01 00 00 	sub    rsp,0x138
f088:	64 48 8b 04 25 28 00 	mov    rax,QWORD PTR fs:0x28
f08f:	00 00
f091:	48 89 84 24 28 01 00 	mov    QWORD PTR [rsp+0x128],rax
f098:	00
f099:	31 c0                	xor    eax,eax
f09b:	e8 10 c4 ff ff       	call   b4b0 <dir_name>
f0a0:	48 89 e1             	mov    rcx,rsp
f0a3:	41 b8 00 01 00 00    	mov    r8d,0x100
f0a9:	48 89 c2             	mov    rdx,rax
f0ac:	44 89 ee             	mov    esi,r13d
f0af:	bf 01 00 00 00       	mov    edi,0x1
f0b4:	48 89 c3             	mov    rbx,rax
f0b7:	e8 c4 38 ff ff       	call   2980 <__fxstatat@plt>
f0bc:	85 c0                	test   eax,eax
f0be:	0f 85 ac 00 00 00    	jne    f170 <same_nameat.part.0+0x100>
f0c4:	48 89 df             	mov    rdi,rbx
f0c7:	e8 44 3d ff ff       	call   2e10 <free@plt>
f0cc:	4c 89 e7             	mov    rdi,r12
f0cf:	e8 dc c3 ff ff       	call   b4b0 <dir_name>
f0d4:	48 8d 8c 24 90 00 00 	lea    rcx,[rsp+0x90]
f0db:	00
f0dc:	41 b8 00 01 00 00    	mov    r8d,0x100
f0e2:	48 89 c2             	mov    rdx,rax
f0e5:	89 ee                	mov    esi,ebp
f0e7:	bf 01 00 00 00       	mov    edi,0x1
f0ec:	48 89 c3             	mov    rbx,rax
f0ef:	e8 8c 38 ff ff       	call   2980 <__fxstatat@plt>
f0f4:	85 c0                	test   eax,eax
f0f6:	75 50                	jne    f148 <same_nameat.part.0+0xd8>
f0f8:	31 ed                	xor    ebp,ebp
f0fa:	48 8b 84 24 98 00 00 	mov    rax,QWORD PTR [rsp+0x98]
f101:	00
f102:	48 39 44 24 08       	cmp    QWORD PTR [rsp+0x8],rax
f107:	75 10                	jne    f119 <same_nameat.part.0+0xa9>
f109:	48 8b 84 24 90 00 00 	mov    rax,QWORD PTR [rsp+0x90]
f110:	00
f111:	48 39 04 24          	cmp    QWORD PTR [rsp],rax
f115:	40 0f 94 c5          	sete   bpl
f119:	48 89 df             	mov    rdi,rbx
f11c:	e8 ef 3c ff ff       	call   2e10 <free@plt>
f121:	48 8b 94 24 28 01 00 	mov    rdx,QWORD PTR [rsp+0x128]
f128:	00
f129:	64 48 33 14 25 28 00 	xor    rdx,QWORD PTR fs:0x28
f130:	00 00
f132:	89 e8                	mov    eax,ebp
f134:	75 5c                	jne    f192 <same_nameat.part.0+0x122>
f136:	48 81 c4 38 01 00 00 	add    rsp,0x138
f13d:	5b                   	pop    rbx
f13e:	5d                   	pop    rbp
f13f:	41 5c                	pop    r12
f141:	41 5d                	pop    r13
f143:	c3                   	ret
f144:	0f 1f 40 00          	nop    DWORD PTR [rax+0x0]
f148:	e8 23 36 ff ff       	call   2770 <__errno_location@plt>
f14d:	8b 30                	mov    esi,DWORD PTR [rax]
f14f:	48 8d 15 37 60 00 00 	lea    rdx,[rip+0x6037]        # 1518d <__PRETTY_FUNCTION__.6956+0x6d>
f156:	48 89 d9             	mov    rcx,rbx
f159:	bf 01 00 00 00       	mov    edi,0x1
f15e:	31 c0                	xor    eax,eax
f160:	e8 4b 3b ff ff       	call   2cb0 <error@plt>
f165:	eb 91                	jmp    f0f8 <same_nameat.part.0+0x88>
f167:	66 0f 1f 84 00 00 00 	nop    WORD PTR [rax+rax*1+0x0]
f16e:	00 00
f170:	e8 fb 35 ff ff       	call   2770 <__errno_location@plt>
f175:	8b 30                	mov    esi,DWORD PTR [rax]
f177:	48 8d 15 0f 60 00 00 	lea    rdx,[rip+0x600f]        # 1518d <__PRETTY_FUNCTION__.6956+0x6d>
f17e:	48 89 d9             	mov    rcx,rbx
f181:	bf 01 00 00 00       	mov    edi,0x1
f186:	31 c0                	xor    eax,eax
f188:	e8 23 3b ff ff       	call   2cb0 <error@plt>
f18d:	e9 32 ff ff ff       	jmp    f0c4 <same_nameat.part.0+0x54>
f192:	e8 99 37 ff ff       	call   2930 <__stack_chk_fail@plt>
f197:	66 0f 1f 84 00 00 00 	nop    WORD PTR [rax+rax*1+0x0]
f19e:	00 00

000000000000f1a0 <same_nameat>:
f1a0:	41 57                	push   r15
f1a2:	41 56                	push   r14
f1a4:	41 89 d7             	mov    r15d,edx
f1a7:	41 55                	push   r13
f1a9:	41 54                	push   r12
f1ab:	55                   	push   rbp
f1ac:	53                   	push   rbx
f1ad:	48 89 cd             	mov    rbp,rcx
f1b0:	48 89 f3             	mov    rbx,rsi
f1b3:	48 83 ec 18          	sub    rsp,0x18
f1b7:	89 7c 24 0c          	mov    DWORD PTR [rsp+0xc],edi
f1bb:	48 89 f7             	mov    rdi,rsi
f1be:	e8 cd c3 ff ff       	call   b590 <last_component>
f1c3:	48 89 ef             	mov    rdi,rbp
f1c6:	49 89 c4             	mov    r12,rax
f1c9:	e8 c2 c3 ff ff       	call   b590 <last_component>
f1ce:	4c 89 e7             	mov    rdi,r12
f1d1:	49 89 c5             	mov    r13,rax
f1d4:	e8 17 c4 ff ff       	call   b5f0 <base_len>
f1d9:	4c 89 ef             	mov    rdi,r13
f1dc:	49 89 c6             	mov    r14,rax
f1df:	e8 0c c4 ff ff       	call   b5f0 <base_len>
f1e4:	49 39 c6             	cmp    r14,rax
f1e7:	74 17                	je     f200 <same_nameat+0x60>
f1e9:	48 83 c4 18          	add    rsp,0x18
f1ed:	31 c0                	xor    eax,eax
f1ef:	5b                   	pop    rbx
f1f0:	5d                   	pop    rbp
f1f1:	41 5c                	pop    r12
f1f3:	41 5d                	pop    r13
f1f5:	41 5e                	pop    r14
f1f7:	41 5f                	pop    r15
f1f9:	c3                   	ret
f1fa:	66 0f 1f 44 00 00    	nop    WORD PTR [rax+rax*1+0x0]
f200:	4c 89 f2             	mov    rdx,r14
f203:	4c 89 ee             	mov    rsi,r13
f206:	4c 89 e7             	mov    rdi,r12
f209:	e8 82 38 ff ff       	call   2a90 <memcmp@plt>
f20e:	85 c0                	test   eax,eax
f210:	75 d7                	jne    f1e9 <same_nameat+0x49>
f212:	8b 7c 24 0c          	mov    edi,DWORD PTR [rsp+0xc]
f216:	48 83 c4 18          	add    rsp,0x18
f21a:	48 89 e9             	mov    rcx,rbp
f21d:	44 89 fa             	mov    edx,r15d
f220:	48 89 de             	mov    rsi,rbx
f223:	5b                   	pop    rbx
f224:	5d                   	pop    rbp
f225:	41 5c                	pop    r12
f227:	41 5d                	pop    r13
f229:	41 5e                	pop    r14
f22b:	41 5f                	pop    r15
f22d:	e9 3e fe ff ff       	jmp    f070 <same_nameat.part.0>
f232:	0f 1f 40 00          	nop    DWORD PTR [rax+0x0]
f236:	66 2e 0f 1f 84 00 00 	nop    WORD PTR cs:[rax+rax*1+0x0]
f23d:	00 00 00

000000000000f240 <same_name>:
f240:	ba 9c ff ff ff       	mov    edx,0xffffff9c
f245:	48 89 f1             	mov    rcx,rsi
f248:	48 89 fe             	mov    rsi,rdi
f24b:	89 d7                	mov    edi,edx
f24d:	e9 4e ff ff ff       	jmp    f1a0 <same_nameat>
f252:	66 2e 0f 1f 84 00 00 	nop    WORD PTR cs:[rax+rax*1+0x0]
f259:	00 00 00
f25c:	0f 1f 40 00          	nop    DWORD PTR [rax+0x0]

000000000000f260 <direntry_cmp_inode>:
f260:	48 8b 46 08          	mov    rax,QWORD PTR [rsi+0x8]
f264:	48 39 47 08          	cmp    QWORD PTR [rdi+0x8],rax
f268:	72 0e                	jb     f278 <direntry_cmp_inode+0x18>
f26a:	0f 97 c0             	seta   al
f26d:	0f b6 c0             	movzx  eax,al
f270:	c3                   	ret
f271:	0f 1f 80 00 00 00 00 	nop    DWORD PTR [rax+0x0]
f278:	b8 ff ff ff ff       	mov    eax,0xffffffff
f27d:	c3                   	ret
f27e:	66 90                	xchg   ax,ax

000000000000f280 <direntry_cmp_name>:
f280:	48 8b 36             	mov    rsi,QWORD PTR [rsi]
f283:	48 8b 3f             	mov    rdi,QWORD PTR [rdi]
f286:	e9 65 38 ff ff       	jmp    2af0 <strcmp@plt>
f28b:	0f 1f 44 00 00       	nop    DWORD PTR [rax+rax*1+0x0]

000000000000f290 <streamsavedir>:
f290:	41 57                	push   r15
f292:	48 8d 05 a7 a7 20 00 	lea    rax,[rip+0x20a7a7]        # 219a40 <comparison_function_table>
f299:	41 56                	push   r14
f29b:	41 55                	push   r13
f29d:	41 54                	push   r12
f29f:	89 f6                	mov    esi,esi
f2a1:	55                   	push   rbp
f2a2:	53                   	push   rbx
f2a3:	48 83 ec 48          	sub    rsp,0x48
f2a7:	48 8b 04 f0          	mov    rax,QWORD PTR [rax+rsi*8]
f2ab:	48 85 ff             	test   rdi,rdi
f2ae:	48 89 44 24 08       	mov    QWORD PTR [rsp+0x8],rax
f2b3:	0f 84 04 03 00 00    	je     f5bd <streamsavedir+0x32d>
f2b9:	48 89 fb             	mov    rbx,rdi
f2bc:	45 31 f6             	xor    r14d,r14d
f2bf:	45 31 e4             	xor    r12d,r12d
f2c2:	e8 a9 34 ff ff       	call   2770 <__errno_location@plt>
f2c7:	45 31 ed             	xor    r13d,r13d
f2ca:	48 89 c5             	mov    rbp,rax
f2cd:	48 c7 44 24 28 00 00 	mov    QWORD PTR [rsp+0x28],0x0
f2d4:	00 00
f2d6:	48 c7 44 24 10 00 00 	mov    QWORD PTR [rsp+0x10],0x0
f2dd:	00 00
f2df:	48 c7 44 24 20 00 00 	mov    QWORD PTR [rsp+0x20],0x0
f2e6:	00 00
f2e8:	eb 0a                	jmp    f2f4 <streamsavedir+0x64>
f2ea:	66 0f 1f 44 00 00    	nop    WORD PTR [rax+rax*1+0x0]
f2f0:	84 c0                	test   al,al
f2f2:	75 35                	jne    f329 <streamsavedir+0x99>
f2f4:	c7 45 00 00 00 00 00 	mov    DWORD PTR [rbp+0x0],0x0
f2fb:	48 89 df             	mov    rdi,rbx
f2fe:	e8 ad 38 ff ff       	call   2bb0 <readdir@plt>
f303:	48 85 c0             	test   rax,rax
f306:	48 89 c1             	mov    rcx,rax
f309:	0f 84 a1 00 00 00    	je     f3b0 <streamsavedir+0x120>
f30f:	4c 8d 78 13          	lea    r15,[rax+0x13]
f313:	0f b6 40 13          	movzx  eax,BYTE PTR [rax+0x13]
f317:	3c 2e                	cmp    al,0x2e
f319:	75 d5                	jne    f2f0 <streamsavedir+0x60>
f31b:	80 79 14 2e          	cmp    BYTE PTR [rcx+0x14],0x2e
f31f:	74 7f                	je     f3a0 <streamsavedir+0x110>
f321:	0f b6 41 14          	movzx  eax,BYTE PTR [rcx+0x14]
f325:	84 c0                	test   al,al
f327:	74 cb                	je     f2f4 <streamsavedir+0x64>
f329:	4c 89 ff             	mov    rdi,r15
f32c:	48 89 4c 24 30       	mov    QWORD PTR [rsp+0x30],rcx
f331:	e8 ca 35 ff ff       	call   2900 <strlen@plt>
f336:	48 83 c0 01          	add    rax,0x1
f33a:	48 83 7c 24 08 00    	cmp    QWORD PTR [rsp+0x8],0x0
f340:	48 89 44 24 18       	mov    QWORD PTR [rsp+0x18],rax
f345:	0f 84 3d 01 00 00    	je     f488 <streamsavedir+0x1f8>
f34b:	4c 3b 64 24 28       	cmp    r12,QWORD PTR [rsp+0x28]
f350:	49 8d 44 24 01       	lea    rax,[r12+0x1]
f355:	48 8b 4c 24 30       	mov    rcx,QWORD PTR [rsp+0x30]
f35a:	48 89 44 24 38       	mov    QWORD PTR [rsp+0x38],rax
f35f:	0f 84 ac 01 00 00    	je     f511 <streamsavedir+0x281>
f365:	49 c1 e4 04          	shl    r12,0x4
f369:	4c 89 ff             	mov    rdi,r15
f36c:	4c 03 64 24 10       	add    r12,QWORD PTR [rsp+0x10]
f371:	48 89 4c 24 30       	mov    QWORD PTR [rsp+0x30],rcx
f376:	e8 d5 1e 00 00       	call   11250 <xstrdup>
f37b:	48 8b 4c 24 30       	mov    rcx,QWORD PTR [rsp+0x30]
f380:	4c 03 74 24 18       	add    r14,QWORD PTR [rsp+0x18]
f385:	49 89 04 24          	mov    QWORD PTR [r12],rax
f389:	48 8b 01             	mov    rax,QWORD PTR [rcx]
f38c:	49 89 44 24 08       	mov    QWORD PTR [r12+0x8],rax
f391:	4c 8b 64 24 38       	mov    r12,QWORD PTR [rsp+0x38]
f396:	e9 59 ff ff ff       	jmp    f2f4 <streamsavedir+0x64>
f39b:	0f 1f 44 00 00       	nop    DWORD PTR [rax+rax*1+0x0]
f3a0:	0f b6 41 15          	movzx  eax,BYTE PTR [rcx+0x15]
f3a4:	e9 47 ff ff ff       	jmp    f2f0 <streamsavedir+0x60>
f3a9:	0f 1f 80 00 00 00 00 	nop    DWORD PTR [rax+0x0]
f3b0:	8b 5d 00             	mov    ebx,DWORD PTR [rbp+0x0]
f3b3:	85 db                	test   ebx,ebx
f3b5:	0f 85 e5 01 00 00    	jne    f5a0 <streamsavedir+0x310>
f3bb:	48 83 7c 24 08 00    	cmp    QWORD PTR [rsp+0x8],0x0
f3c1:	0f 84 a9 00 00 00    	je     f470 <streamsavedir+0x1e0>
f3c7:	4d 85 e4             	test   r12,r12
f3ca:	49 8d 5e 01          	lea    rbx,[r14+0x1]
f3ce:	75 30                	jne    f400 <streamsavedir+0x170>
f3d0:	48 89 df             	mov    rdi,rbx
f3d3:	e8 48 1c 00 00       	call   11020 <xmalloc>
f3d8:	49 89 c5             	mov    r13,rax
f3db:	48 89 c3             	mov    rbx,rax
f3de:	48 8b 7c 24 10       	mov    rdi,QWORD PTR [rsp+0x10]
f3e3:	e8 28 3a ff ff       	call   2e10 <free@plt>
f3e8:	c6 03 00             	mov    BYTE PTR [rbx],0x0
f3eb:	48 83 c4 48          	add    rsp,0x48
f3ef:	4c 89 e8             	mov    rax,r13
f3f2:	5b                   	pop    rbx
f3f3:	5d                   	pop    rbp
f3f4:	41 5c                	pop    r12
f3f6:	41 5d                	pop    r13
f3f8:	41 5e                	pop    r14
f3fa:	41 5f                	pop    r15
f3fc:	c3                   	ret
f3fd:	0f 1f 00             	nop    DWORD PTR [rax]
f400:	4c 8b 7c 24 10       	mov    r15,QWORD PTR [rsp+0x10]
f405:	48 8b 4c 24 08       	mov    rcx,QWORD PTR [rsp+0x8]
f40a:	4c 89 e6             	mov    rsi,r12
f40d:	ba 10 00 00 00       	mov    edx,0x10
f412:	49 c1 e4 04          	shl    r12,0x4
f416:	4c 89 ff             	mov    rdi,r15
f419:	4c 89 fd             	mov    rbp,r15
f41c:	4d 01 fc             	add    r12,r15
f41f:	e8 dc 33 ff ff       	call   2800 <qsort@plt>
f424:	48 89 df             	mov    rdi,rbx
f427:	31 db                	xor    ebx,ebx
f429:	e8 f2 1b 00 00       	call   11020 <xmalloc>
f42e:	49 89 c5             	mov    r13,rax
f431:	0f 1f 80 00 00 00 00 	nop    DWORD PTR [rax+0x0]
f438:	48 8b 75 00          	mov    rsi,QWORD PTR [rbp+0x0]
f43c:	4d 8d 74 1d 00       	lea    r14,[r13+rbx*1+0x0]
f441:	48 83 c5 10          	add    rbp,0x10
f445:	4c 89 f7             	mov    rdi,r14
f448:	e8 73 34 ff ff       	call   28c0 <stpcpy@plt>
f44d:	48 8b 7d f0          	mov    rdi,QWORD PTR [rbp-0x10]
f451:	4c 29 f0             	sub    rax,r14
f454:	48 8d 5c 03 01       	lea    rbx,[rbx+rax*1+0x1]
f459:	e8 b2 39 ff ff       	call   2e10 <free@plt>
f45e:	49 39 ec             	cmp    r12,rbp
f461:	75 d5                	jne    f438 <streamsavedir+0x1a8>
f463:	4c 01 eb             	add    rbx,r13
f466:	e9 73 ff ff ff       	jmp    f3de <streamsavedir+0x14e>
f46b:	0f 1f 44 00 00       	nop    DWORD PTR [rax+rax*1+0x0]
f470:	4c 39 74 24 20       	cmp    QWORD PTR [rsp+0x20],r14
f475:	0f 84 e8 00 00 00    	je     f563 <streamsavedir+0x2d3>
f47b:	4b 8d 5c 35 00       	lea    rbx,[r13+r14*1+0x0]
f480:	e9 63 ff ff ff       	jmp    f3e8 <streamsavedir+0x158>
f485:	0f 1f 00             	nop    DWORD PTR [rax]
f488:	48 8b 74 24 18       	mov    rsi,QWORD PTR [rsp+0x18]
f48d:	48 8b 44 24 20       	mov    rax,QWORD PTR [rsp+0x20]
f492:	48 89 f2             	mov    rdx,rsi
f495:	4c 29 f0             	sub    rax,r14
f498:	4c 01 f2             	add    rdx,r14
f49b:	48 89 54 24 30       	mov    QWORD PTR [rsp+0x30],rdx
f4a0:	0f 92 c2             	setb   dl
f4a3:	48 39 f0             	cmp    rax,rsi
f4a6:	0f b6 d2             	movzx  edx,dl
f4a9:	77 4a                	ja     f4f5 <streamsavedir+0x265>
f4ab:	48 85 d2             	test   rdx,rdx
f4ae:	0f 85 e5 00 00 00    	jne    f599 <streamsavedir+0x309>
f4b4:	4d 85 ed             	test   r13,r13
f4b7:	48 8b 54 24 30       	mov    rdx,QWORD PTR [rsp+0x30]
f4bc:	0f 84 bd 00 00 00    	je     f57f <streamsavedir+0x2ef>
f4c2:	48 b8 53 55 55 55 55 	movabs rax,0x5555555555555553
f4c9:	55 55 55
f4cc:	48 39 c2             	cmp    rdx,rax
f4cf:	0f 87 c4 00 00 00    	ja     f599 <streamsavedir+0x309>
f4d5:	48 89 d0             	mov    rax,rdx
f4d8:	48 d1 e8             	shr    rax,1
f4db:	48 8d 44 02 01       	lea    rax,[rdx+rax*1+0x1]
f4e0:	48 89 44 24 20       	mov    QWORD PTR [rsp+0x20],rax
f4e5:	48 8b 74 24 20       	mov    rsi,QWORD PTR [rsp+0x20]
f4ea:	4c 89 ef             	mov    rdi,r13
f4ed:	e8 8e 1b 00 00       	call   11080 <xrealloc>
f4f2:	49 89 c5             	mov    r13,rax
f4f5:	48 8b 54 24 18       	mov    rdx,QWORD PTR [rsp+0x18]
f4fa:	4b 8d 7c 35 00       	lea    rdi,[r13+r14*1+0x0]
f4ff:	4c 89 fe             	mov    rsi,r15
f502:	e8 59 36 ff ff       	call   2b60 <memcpy@plt>
f507:	4c 8b 74 24 30       	mov    r14,QWORD PTR [rsp+0x30]
f50c:	e9 e3 fd ff ff       	jmp    f2f4 <streamsavedir+0x64>
f511:	48 83 7c 24 10 00    	cmp    QWORD PTR [rsp+0x10],0x0
f517:	0f 84 a8 00 00 00    	je     f5c5 <streamsavedir+0x335>
f51d:	48 b8 54 55 55 55 55 	movabs rax,0x555555555555554
f524:	55 55 05
f527:	49 39 c4             	cmp    r12,rax
f52a:	77 6d                	ja     f599 <streamsavedir+0x309>
f52c:	4c 89 e0             	mov    rax,r12
f52f:	48 d1 e8             	shr    rax,1
f532:	48 03 44 24 38       	add    rax,QWORD PTR [rsp+0x38]
f537:	48 89 44 24 28       	mov    QWORD PTR [rsp+0x28],rax
f53c:	48 8b 74 24 28       	mov    rsi,QWORD PTR [rsp+0x28]
f541:	48 8b 7c 24 10       	mov    rdi,QWORD PTR [rsp+0x10]
f546:	48 89 4c 24 30       	mov    QWORD PTR [rsp+0x30],rcx
f54b:	48 c1 e6 04          	shl    rsi,0x4
f54f:	e8 2c 1b 00 00       	call   11080 <xrealloc>
f554:	48 8b 4c 24 30       	mov    rcx,QWORD PTR [rsp+0x30]
f559:	48 89 44 24 10       	mov    QWORD PTR [rsp+0x10],rax
f55e:	e9 02 fe ff ff       	jmp    f365 <streamsavedir+0xd5>
f563:	48 8b 5c 24 20       	mov    rbx,QWORD PTR [rsp+0x20]
f568:	4c 89 ef             	mov    rdi,r13
f56b:	48 8d 73 01          	lea    rsi,[rbx+0x1]
f56f:	e8 0c 1b 00 00       	call   11080 <xrealloc>
f574:	49 89 c5             	mov    r13,rax
f577:	48 01 c3             	add    rbx,rax
f57a:	e9 69 fe ff ff       	jmp    f3e8 <streamsavedir+0x158>
f57f:	48 85 d2             	test   rdx,rdx
f582:	b8 80 00 00 00       	mov    eax,0x80
f587:	48 0f 45 c2          	cmovne rax,rdx
f58b:	48 85 c0             	test   rax,rax
f58e:	48 89 44 24 20       	mov    QWORD PTR [rsp+0x20],rax
f593:	0f 89 4c ff ff ff    	jns    f4e5 <streamsavedir+0x255>
f599:	e8 d2 1c 00 00       	call   11270 <xalloc_die>
f59e:	66 90                	xchg   ax,ax
f5a0:	48 8b 7c 24 10       	mov    rdi,QWORD PTR [rsp+0x10]
f5a5:	e8 66 38 ff ff       	call   2e10 <free@plt>
f5aa:	4c 89 ef             	mov    rdi,r13
f5ad:	45 31 ed             	xor    r13d,r13d
f5b0:	e8 5b 38 ff ff       	call   2e10 <free@plt>
f5b5:	89 5d 00             	mov    DWORD PTR [rbp+0x0],ebx
f5b8:	e9 2e fe ff ff       	jmp    f3eb <streamsavedir+0x15b>
f5bd:	45 31 ed             	xor    r13d,r13d
f5c0:	e9 26 fe ff ff       	jmp    f3eb <streamsavedir+0x15b>
f5c5:	4d 85 e4             	test   r12,r12
f5c8:	b8 08 00 00 00       	mov    eax,0x8
f5cd:	ba 10 00 00 00       	mov    edx,0x10
f5d2:	49 0f 45 c4          	cmovne rax,r12
f5d6:	31 f6                	xor    esi,esi
f5d8:	48 89 c7             	mov    rdi,rax
f5db:	48 89 44 24 28       	mov    QWORD PTR [rsp+0x28],rax
f5e0:	48 89 d0             	mov    rax,rdx
f5e3:	48 f7 e7             	mul    rdi
f5e6:	70 19                	jo     f601 <streamsavedir+0x371>
f5e8:	48 85 c0             	test   rax,rax
f5eb:	78 ac                	js     f599 <streamsavedir+0x309>
f5ed:	48 85 f6             	test   rsi,rsi
f5f0:	75 a7                	jne    f599 <streamsavedir+0x309>
f5f2:	49 8d 44 24 01       	lea    rax,[r12+0x1]
f5f7:	48 89 44 24 38       	mov    QWORD PTR [rsp+0x38],rax
f5fc:	e9 3b ff ff ff       	jmp    f53c <streamsavedir+0x2ac>
f601:	be 01 00 00 00       	mov    esi,0x1
f606:	eb e0                	jmp    f5e8 <streamsavedir+0x358>
f608:	0f 1f 84 00 00 00 00 	nop    DWORD PTR [rax+rax*1+0x0]
f60f:	00

000000000000f610 <savedir>:
f610:	41 54                	push   r12
f612:	55                   	push   rbp
f613:	89 f5                	mov    ebp,esi
f615:	53                   	push   rbx
f616:	e8 85 1f 00 00       	call   115a0 <opendir_safer>
f61b:	48 85 c0             	test   rax,rax
f61e:	74 28                	je     f648 <savedir+0x38>
f620:	89 ee                	mov    esi,ebp
f622:	48 89 c3             	mov    rbx,rax
f625:	48 89 c7             	mov    rdi,rax
f628:	e8 63 fc ff ff       	call   f290 <streamsavedir>
f62d:	48 89 df             	mov    rdi,rbx
f630:	48 89 c5             	mov    rbp,rax
f633:	e8 28 34 ff ff       	call   2a60 <closedir@plt>
f638:	85 c0                	test   eax,eax
f63a:	75 14                	jne    f650 <savedir+0x40>
f63c:	48 89 e8             	mov    rax,rbp
f63f:	5b                   	pop    rbx
f640:	5d                   	pop    rbp
f641:	41 5c                	pop    r12
f643:	c3                   	ret
f644:	0f 1f 40 00          	nop    DWORD PTR [rax+0x0]
f648:	31 ed                	xor    ebp,ebp
f64a:	eb f0                	jmp    f63c <savedir+0x2c>
f64c:	0f 1f 40 00          	nop    DWORD PTR [rax+0x0]
f650:	e8 1b 31 ff ff       	call   2770 <__errno_location@plt>
f655:	44 8b 20             	mov    r12d,DWORD PTR [rax]
f658:	48 89 c3             	mov    rbx,rax
f65b:	48 89 ef             	mov    rdi,rbp
f65e:	e8 ad 37 ff ff       	call   2e10 <free@plt>
f663:	31 ed                	xor    ebp,ebp
f665:	44 89 23             	mov    DWORD PTR [rbx],r12d
f668:	eb d2                	jmp    f63c <savedir+0x2c>
f66a:	66 0f 1f 44 00 00    	nop    WORD PTR [rax+rax*1+0x0]

000000000000f670 <try_nocreate>:
f670:	53                   	push   rbx
f671:	48 89 fe             	mov    rsi,rdi
f674:	bf 01 00 00 00       	mov    edi,0x1
f679:	48 81 ec a0 00 00 00 	sub    rsp,0xa0
f680:	48 89 e2             	mov    rdx,rsp
f683:	64 48 8b 04 25 28 00 	mov    rax,QWORD PTR fs:0x28
f68a:	00 00
f68c:	48 89 84 24 98 00 00 	mov    QWORD PTR [rsp+0x98],rax
f693:	00
f694:	31 c0                	xor    eax,eax
f696:	e8 75 32 ff ff       	call   2910 <__lxstat@plt>
f69b:	89 c3                	mov    ebx,eax
f69d:	e8 ce 30 ff ff       	call   2770 <__errno_location@plt>
f6a2:	85 db                	test   ebx,ebx
f6a4:	74 1a                	je     f6c0 <try_nocreate+0x50>
f6a6:	8b 10                	mov    edx,DWORD PTR [rax]
f6a8:	83 fa 4b             	cmp    edx,0x4b
f6ab:	74 13                	je     f6c0 <try_nocreate+0x50>
f6ad:	31 c0                	xor    eax,eax
f6af:	83 fa 02             	cmp    edx,0x2
f6b2:	0f 95 c0             	setne  al
f6b5:	f7 d8                	neg    eax
f6b7:	eb 12                	jmp    f6cb <try_nocreate+0x5b>
f6b9:	0f 1f 80 00 00 00 00 	nop    DWORD PTR [rax+0x0]
f6c0:	c7 00 11 00 00 00    	mov    DWORD PTR [rax],0x11
f6c6:	b8 ff ff ff ff       	mov    eax,0xffffffff
f6cb:	48 8b 8c 24 98 00 00 	mov    rcx,QWORD PTR [rsp+0x98]
f6d2:	00
f6d3:	64 48 33 0c 25 28 00 	xor    rcx,QWORD PTR fs:0x28
f6da:	00 00
f6dc:	75 09                	jne    f6e7 <try_nocreate+0x77>
f6de:	48 81 c4 a0 00 00 00 	add    rsp,0xa0
f6e5:	5b                   	pop    rbx
f6e6:	c3                   	ret
f6e7:	e8 44 32 ff ff       	call   2930 <__stack_chk_fail@plt>
f6ec:	0f 1f 40 00          	nop    DWORD PTR [rax+0x0]

000000000000f6f0 <try_dir>:
f6f0:	be c0 01 00 00       	mov    esi,0x1c0
f6f5:	e9 e6 30 ff ff       	jmp    27e0 <mkdir@plt>
f6fa:	66 0f 1f 44 00 00    	nop    WORD PTR [rax+rax*1+0x0]

000000000000f700 <try_file>:
f700:	8b 36                	mov    esi,DWORD PTR [rsi]
f702:	ba 80 01 00 00       	mov    edx,0x180
f707:	31 c0                	xor    eax,eax
f709:	40 80 e6 3c          	and    sil,0x3c
f70d:	40 80 ce c2          	or     sil,0xc2
f711:	e9 ba 35 ff ff       	jmp    2cd0 <open@plt>
f716:	66 2e 0f 1f 84 00 00 	nop    WORD PTR cs:[rax+rax*1+0x0]
f71d:	00 00 00

000000000000f720 <try_tempname_len>:
f720:	41 57                	push   r15
f722:	41 56                	push   r14
f724:	49 89 ff             	mov    r15,rdi
f727:	41 55                	push   r13
f729:	41 54                	push   r12
f72b:	4d 89 c6             	mov    r14,r8
f72e:	55                   	push   rbp
f72f:	53                   	push   rbx
f730:	89 f5                	mov    ebp,esi
f732:	48 83 ec 38          	sub    rsp,0x38
f736:	48 89 54 24 18       	mov    QWORD PTR [rsp+0x18],rdx
f73b:	48 89 3c 24          	mov    QWORD PTR [rsp],rdi
f73f:	48 89 4c 24 20       	mov    QWORD PTR [rsp+0x20],rcx
f744:	e8 27 30 ff ff       	call   2770 <__errno_location@plt>
f749:	48 89 44 24 08       	mov    QWORD PTR [rsp+0x8],rax
f74e:	8b 00                	mov    eax,DWORD PTR [rax]
f750:	4c 89 ff             	mov    rdi,r15
f753:	89 44 24 2c          	mov    DWORD PTR [rsp+0x2c],eax
f757:	e8 a4 31 ff ff       	call   2900 <strlen@plt>
f75c:	48 63 f5             	movsxd rsi,ebp
f75f:	4a 8d 14 36          	lea    rdx,[rsi+r14*1]
f763:	48 39 c2             	cmp    rdx,rax
f766:	0f 87 0f 01 00 00    	ja     f87b <try_tempname_len+0x15b>
f76c:	4c 29 f0             	sub    rax,r14
f76f:	48 89 c3             	mov    rbx,rax
f772:	48 29 f3             	sub    rbx,rsi
f775:	48 8d 35 29 5a 00 00 	lea    rsi,[rip+0x5a29]        # 151a5 <__PRETTY_FUNCTION__.6956+0x85>
f77c:	49 8d 04 1f          	lea    rax,[r15+rbx*1]
f780:	48 89 c7             	mov    rdi,rax
f783:	48 89 44 24 10       	mov    QWORD PTR [rsp+0x10],rax
f788:	e8 c3 32 ff ff       	call   2a50 <strspn@plt>
f78d:	49 39 c6             	cmp    r14,rax
f790:	0f 87 e5 00 00 00    	ja     f87b <try_tempname_len+0x15b>
f796:	31 ff                	xor    edi,edi
f798:	4c 89 f6             	mov    rsi,r14
f79b:	e8 80 20 00 00       	call   11820 <randint_all_new>
f7a0:	48 85 c0             	test   rax,rax
f7a3:	48 89 c5             	mov    rbp,rax
f7a6:	0f 84 e1 00 00 00    	je     f88d <try_tempname_len+0x16d>
f7ac:	48 8b 04 24          	mov    rax,QWORD PTR [rsp]
f7b0:	4c 8d 25 c9 60 00 00 	lea    r12,[rip+0x60c9]        # 15880 <letters>
f7b7:	41 bd f8 a2 03 00    	mov    r13d,0x3a2f8
f7bd:	4c 01 f0             	add    rax,r14
f7c0:	48 01 c3             	add    rbx,rax
f7c3:	0f 1f 44 00 00       	nop    DWORD PTR [rax+rax*1+0x0]
f7c8:	4d 85 f6             	test   r14,r14
f7cb:	4c 8b 7c 24 10       	mov    r15,QWORD PTR [rsp+0x10]
f7d0:	74 25                	je     f7f7 <try_tempname_len+0xd7>
f7d2:	66 0f 1f 44 00 00    	nop    WORD PTR [rax+rax*1+0x0]
f7d8:	be 3d 00 00 00       	mov    esi,0x3d
f7dd:	48 89 ef             	mov    rdi,rbp
f7e0:	49 83 c7 01          	add    r15,0x1
f7e4:	e8 87 20 00 00       	call   11870 <randint_genmax>
f7e9:	41 0f b6 04 04       	movzx  eax,BYTE PTR [r12+rax*1]
f7ee:	41 88 47 ff          	mov    BYTE PTR [r15-0x1],al
f7f2:	49 39 df             	cmp    r15,rbx
f7f5:	75 e1                	jne    f7d8 <try_tempname_len+0xb8>
f7f7:	48 8b 74 24 18       	mov    rsi,QWORD PTR [rsp+0x18]
f7fc:	48 8b 3c 24          	mov    rdi,QWORD PTR [rsp]
f800:	48 8b 44 24 20       	mov    rax,QWORD PTR [rsp+0x20]
f805:	ff d0                	call   rax
f807:	85 c0                	test   eax,eax
f809:	89 c2                	mov    edx,eax
f80b:	79 2c                	jns    f839 <try_tempname_len+0x119>
f80d:	48 8b 44 24 08       	mov    rax,QWORD PTR [rsp+0x8]
f812:	8b 08                	mov    ecx,DWORD PTR [rax]
f814:	83 f9 11             	cmp    ecx,0x11
f817:	75 5b                	jne    f874 <try_tempname_len+0x154>
f819:	41 83 ed 01          	sub    r13d,0x1
f81d:	75 a9                	jne    f7c8 <try_tempname_len+0xa8>
f81f:	48 89 ef             	mov    rdi,rbp
f822:	e8 89 21 00 00       	call   119b0 <randint_all_free>
f827:	48 8b 44 24 08       	mov    rax,QWORD PTR [rsp+0x8]
f82c:	ba ff ff ff ff       	mov    edx,0xffffffff
f831:	c7 00 11 00 00 00    	mov    DWORD PTR [rax],0x11
f837:	eb 2a                	jmp    f863 <try_tempname_len+0x143>
f839:	48 8b 4c 24 08       	mov    rcx,QWORD PTR [rsp+0x8]
f83e:	8b 44 24 2c          	mov    eax,DWORD PTR [rsp+0x2c]
f842:	89 01                	mov    DWORD PTR [rcx],eax
f844:	89 c1                	mov    ecx,eax
f846:	48 89 ef             	mov    rdi,rbp
f849:	89 54 24 10          	mov    DWORD PTR [rsp+0x10],edx
f84d:	89 0c 24             	mov    DWORD PTR [rsp],ecx
f850:	e8 5b 21 00 00       	call   119b0 <randint_all_free>
f855:	48 8b 44 24 08       	mov    rax,QWORD PTR [rsp+0x8]
f85a:	8b 0c 24             	mov    ecx,DWORD PTR [rsp]
f85d:	8b 54 24 10          	mov    edx,DWORD PTR [rsp+0x10]
f861:	89 08                	mov    DWORD PTR [rax],ecx
f863:	48 83 c4 38          	add    rsp,0x38
f867:	89 d0                	mov    eax,edx
f869:	5b                   	pop    rbx
f86a:	5d                   	pop    rbp
f86b:	41 5c                	pop    r12
f86d:	41 5d                	pop    r13
f86f:	41 5e                	pop    r14
f871:	41 5f                	pop    r15
f873:	c3                   	ret
f874:	ba ff ff ff ff       	mov    edx,0xffffffff
f879:	eb cb                	jmp    f846 <try_tempname_len+0x126>
f87b:	48 8b 44 24 08       	mov    rax,QWORD PTR [rsp+0x8]
f880:	ba ff ff ff ff       	mov    edx,0xffffffff
f885:	c7 00 16 00 00 00    	mov    DWORD PTR [rax],0x16
f88b:	eb d6                	jmp    f863 <try_tempname_len+0x143>
f88d:	ba ff ff ff ff       	mov    edx,0xffffffff
f892:	eb cf                	jmp    f863 <try_tempname_len+0x143>
f894:	66 90                	xchg   ax,ax
f896:	66 2e 0f 1f 84 00 00 	nop    WORD PTR cs:[rax+rax*1+0x0]
f89d:	00 00 00

000000000000f8a0 <gen_tempname_len>:
f8a0:	48 83 ec 18          	sub    rsp,0x18
f8a4:	83 f9 01             	cmp    ecx,0x1
f8a7:	89 54 24 0c          	mov    DWORD PTR [rsp+0xc],edx
f8ab:	74 63                	je     f910 <gen_tempname_len+0x70>
f8ad:	83 f9 02             	cmp    ecx,0x2
f8b0:	74 26                	je     f8d8 <gen_tempname_len+0x38>
f8b2:	85 c9                	test   ecx,ecx
f8b4:	74 3a                	je     f8f0 <gen_tempname_len+0x50>
f8b6:	48 8d 0d a3 5f 00 00 	lea    rcx,[rip+0x5fa3]        # 15860 <__PRETTY_FUNCTION__.5642>
f8bd:	48 8d 35 44 5f 00 00 	lea    rsi,[rip+0x5f44]        # 15808 <quoting_style_vals+0x28>
f8c4:	48 8d 3d 65 5f 00 00 	lea    rdi,[rip+0x5f65]        # 15830 <quoting_style_vals+0x50>
f8cb:	ba 47 01 00 00       	mov    edx,0x147
f8d0:	e8 0b 31 ff ff       	call   29e0 <__assert_fail@plt>
f8d5:	0f 1f 00             	nop    DWORD PTR [rax]
f8d8:	48 8d 54 24 0c       	lea    rdx,[rsp+0xc]
f8dd:	48 8d 0d 8c fd ff ff 	lea    rcx,[rip+0xfffffffffffffd8c]        # f670 <try_nocreate>
f8e4:	e8 37 fe ff ff       	call   f720 <try_tempname_len>
f8e9:	48 83 c4 18          	add    rsp,0x18
f8ed:	c3                   	ret
f8ee:	66 90                	xchg   ax,ax
f8f0:	48 8d 54 24 0c       	lea    rdx,[rsp+0xc]
f8f5:	48 8d 0d 04 fe ff ff 	lea    rcx,[rip+0xfffffffffffffe04]        # f700 <try_file>
f8fc:	e8 1f fe ff ff       	call   f720 <try_tempname_len>
f901:	48 83 c4 18          	add    rsp,0x18
f905:	c3                   	ret
f906:	66 2e 0f 1f 84 00 00 	nop    WORD PTR cs:[rax+rax*1+0x0]
f90d:	00 00 00
f910:	48 8d 54 24 0c       	lea    rdx,[rsp+0xc]
f915:	48 8d 0d d4 fd ff ff 	lea    rcx,[rip+0xfffffffffffffdd4]        # f6f0 <try_dir>
f91c:	e8 ff fd ff ff       	call   f720 <try_tempname_len>
f921:	48 83 c4 18          	add    rsp,0x18
f925:	c3                   	ret
f926:	66 2e 0f 1f 84 00 00 	nop    WORD PTR cs:[rax+rax*1+0x0]
f92d:	00 00 00

000000000000f930 <gen_tempname>:
f930:	41 b8 06 00 00 00    	mov    r8d,0x6
f936:	e9 65 ff ff ff       	jmp    f8a0 <gen_tempname_len>
f93b:	0f 1f 44 00 00       	nop    DWORD PTR [rax+rax*1+0x0]

000000000000f940 <try_tempname>:
f940:	41 b8 06 00 00 00    	mov    r8d,0x6
f946:	e9 d5 fd ff ff       	jmp    f720 <try_tempname_len>
f94b:	0f 1f 44 00 00       	nop    DWORD PTR [rax+rax*1+0x0]

000000000000f950 <fd_safer>:
f950:	41 55                	push   r13
f952:	41 54                	push   r12
f954:	55                   	push   rbp
f955:	53                   	push   rbx
f956:	89 fb                	mov    ebx,edi
f958:	48 83 ec 08          	sub    rsp,0x8
f95c:	83 ff 02             	cmp    edi,0x2
f95f:	77 21                	ja     f982 <fd_safer+0x32>
f961:	e8 1a 2b 00 00       	call   12480 <dup_safer>
f966:	41 89 c4             	mov    r12d,eax
f969:	e8 02 2e ff ff       	call   2770 <__errno_location@plt>
f96e:	44 8b 28             	mov    r13d,DWORD PTR [rax]
f971:	48 89 c5             	mov    rbp,rax
f974:	89 df                	mov    edi,ebx
f976:	e8 b5 30 ff ff       	call   2a30 <close@plt>
f97b:	44 89 e3             	mov    ebx,r12d
f97e:	44 89 6d 00          	mov    DWORD PTR [rbp+0x0],r13d
f982:	48 83 c4 08          	add    rsp,0x8
f986:	89 d8                	mov    eax,ebx
f988:	5b                   	pop    rbx
f989:	5d                   	pop    rbp
f98a:	41 5c                	pop    r12
f98c:	41 5d                	pop    r13
f98e:	c3                   	ret
f98f:	90                   	nop

000000000000f990 <dev_info_hash>:
f990:	48 8b 07             	mov    rax,QWORD PTR [rdi]
f993:	31 d2                	xor    edx,edx
f995:	48 f7 f6             	div    rsi
f998:	48 89 d0             	mov    rax,rdx
f99b:	c3                   	ret
f99c:	0f 1f 40 00          	nop    DWORD PTR [rax+0x0]

000000000000f9a0 <dev_info_compare>:
f9a0:	48 8b 06             	mov    rax,QWORD PTR [rsi]
f9a3:	48 39 07             	cmp    QWORD PTR [rdi],rax
f9a6:	0f 94 c0             	sete   al
f9a9:	c3                   	ret
f9aa:	66 0f 1f 44 00 00    	nop    WORD PTR [rax+rax*1+0x0]

000000000000f9b0 <utimecmpat>:
f9b0:	41 57                	push   r15
f9b2:	41 56                	push   r14
f9b4:	41 55                	push   r13
f9b6:	41 54                	push   r12
f9b8:	55                   	push   rbp
f9b9:	53                   	push   rbx
f9ba:	44 89 c3             	mov    ebx,r8d
f9bd:	83 e3 01             	and    ebx,0x1
f9c0:	48 81 ec 28 01 00 00 	sub    rsp,0x128
f9c7:	4c 8b 69 60          	mov    r13,QWORD PTR [rcx+0x60]
f9cb:	4c 8b 72 58          	mov    r14,QWORD PTR [rdx+0x58]
f9cf:	64 48 8b 04 25 28 00 	mov    rax,QWORD PTR fs:0x28
f9d6:	00 00
f9d8:	48 89 84 24 18 01 00 	mov    QWORD PTR [rsp+0x118],rax
f9df:	00
f9e0:	31 c0                	xor    eax,eax
f9e2:	85 db                	test   ebx,ebx
f9e4:	4c 8b 61 58          	mov    r12,QWORD PTR [rcx+0x58]
f9e8:	4c 8b 7a 60          	mov    r15,QWORD PTR [rdx+0x60]
f9ec:	45 89 e9             	mov    r9d,r13d
f9ef:	0f 84 e3 00 00 00    	je     fad8 <utimecmpat+0x128>
f9f5:	4d 39 e6             	cmp    r14,r12
f9f8:	41 89 fa             	mov    r10d,edi
f9fb:	0f 94 44 24 38       	sete   BYTE PTR [rsp+0x38]
fa00:	0f b6 7c 24 38       	movzx  edi,BYTE PTR [rsp+0x38]
fa05:	45 39 ef             	cmp    r15d,r13d
fa08:	0f 94 c0             	sete   al
fa0b:	40 20 f8             	and    al,dil
fa0e:	88 44 24 08          	mov    BYTE PTR [rsp+0x8],al
fa12:	0f 85 08 01 00 00    	jne    fb20 <utimecmpat+0x170>
fa18:	49 8d 44 24 ff       	lea    rax,[r12-0x1]
fa1d:	4c 39 f0             	cmp    rax,r14
fa20:	0f 8f 02 01 00 00    	jg     fb28 <utimecmpat+0x178>
fa26:	49 8d 46 ff          	lea    rax,[r14-0x1]
fa2a:	4c 39 e0             	cmp    rax,r12
fa2d:	0f 8f bc 00 00 00    	jg     faef <utimecmpat+0x13f>
fa33:	48 89 d5             	mov    rbp,rdx
fa36:	48 8b 15 c3 ac 20 00 	mov    rdx,QWORD PTR [rip+0x20acc3]        # 21a700 <ht.5307>
fa3d:	49 89 f3             	mov    r11,rsi
fa40:	48 85 d2             	test   rdx,rdx
fa43:	0f 84 97 05 00 00    	je     ffe0 <utimecmpat+0x630>
fa49:	48 8b 35 a8 ac 20 00 	mov    rsi,QWORD PTR [rip+0x20aca8]        # 21a6f8 <new_dst_res.5308>
fa50:	48 85 f6             	test   rsi,rsi
fa53:	0f 84 d7 00 00 00    	je     fb30 <utimecmpat+0x180>
fa59:	48 8b 45 00          	mov    rax,QWORD PTR [rbp+0x0]
fa5d:	48 89 d7             	mov    rdi,rdx
fa60:	4c 89 5c 24 28       	mov    QWORD PTR [rsp+0x28],r11
fa65:	44 89 54 24 20       	mov    DWORD PTR [rsp+0x20],r10d
fa6a:	44 89 4c 24 18       	mov    DWORD PTR [rsp+0x18],r9d
fa6f:	48 89 06             	mov    QWORD PTR [rsi],rax
fa72:	e8 59 d1 ff ff       	call   cbd0 <hash_insert>
fa77:	48 85 c0             	test   rax,rax
fa7a:	48 89 44 24 10       	mov    QWORD PTR [rsp+0x10],rax
fa7f:	44 8b 4c 24 18       	mov    r9d,DWORD PTR [rsp+0x18]
fa84:	44 8b 54 24 20       	mov    r10d,DWORD PTR [rsp+0x20]
fa89:	4c 8b 5c 24 28       	mov    r11,QWORD PTR [rsp+0x28]
fa8e:	0f 84 f4 00 00 00    	je     fb88 <utimecmpat+0x1d8>
fa94:	48 39 05 5d ac 20 00 	cmp    QWORD PTR [rip+0x20ac5d],rax        # 21a6f8 <new_dst_res.5308>
fa9b:	0f 84 9f 05 00 00    	je     10040 <utimecmpat+0x690>
faa1:	48 8b 44 24 10       	mov    rax,QWORD PTR [rsp+0x10]
faa6:	80 78 0c 00          	cmp    BYTE PTR [rax+0xc],0x0
faaa:	8b 70 08             	mov    esi,DWORD PTR [rax+0x8]
faad:	89 74 24 18          	mov    DWORD PTR [rsp+0x18],esi
fab1:	0f 84 53 01 00 00    	je     fc0a <utimecmpat+0x25a>
fab7:	31 c0                	xor    eax,eax
fab9:	81 fe 00 94 35 77    	cmp    esi,0x77359400
fabf:	0f 94 c0             	sete   al
fac2:	f7 d0                	not    eax
fac4:	48 98                	cdqe
fac6:	49 21 c4             	and    r12,rax
fac9:	44 89 c8             	mov    eax,r9d
facc:	45 89 e9             	mov    r9d,r13d
facf:	99                   	cdq
fad0:	f7 fe                	idiv   esi
fad2:	41 29 d1             	sub    r9d,edx
fad5:	0f 1f 00             	nop    DWORD PTR [rax]
fad8:	4d 39 f4             	cmp    r12,r14
fadb:	7f 4b                	jg     fb28 <utimecmpat+0x178>
fadd:	bb 01 00 00 00       	mov    ebx,0x1
fae2:	7c 0b                	jl     faef <utimecmpat+0x13f>
fae4:	45 39 f9             	cmp    r9d,r15d
fae7:	7f 3f                	jg     fb28 <utimecmpat+0x178>
fae9:	0f 9c c3             	setl   bl
faec:	0f b6 db             	movzx  ebx,bl
faef:	48 8b b4 24 18 01 00 	mov    rsi,QWORD PTR [rsp+0x118]
faf6:	00
faf7:	64 48 33 34 25 28 00 	xor    rsi,QWORD PTR fs:0x28
fafe:	00 00
fb00:	89 d8                	mov    eax,ebx
fb02:	0f 85 d0 05 00 00    	jne    100d8 <utimecmpat+0x728>
fb08:	48 81 c4 28 01 00 00 	add    rsp,0x128
fb0f:	5b                   	pop    rbx
fb10:	5d                   	pop    rbp
fb11:	41 5c                	pop    r12
fb13:	41 5d                	pop    r13
fb15:	41 5e                	pop    r14
fb17:	41 5f                	pop    r15
fb19:	c3                   	ret
fb1a:	66 0f 1f 44 00 00    	nop    WORD PTR [rax+rax*1+0x0]
fb20:	31 db                	xor    ebx,ebx
fb22:	eb cb                	jmp    faef <utimecmpat+0x13f>
fb24:	0f 1f 40 00          	nop    DWORD PTR [rax+0x0]
fb28:	bb ff ff ff ff       	mov    ebx,0xffffffff
fb2d:	eb c0                	jmp    faef <utimecmpat+0x13f>
fb2f:	90                   	nop
fb30:	bf 10 00 00 00       	mov    edi,0x10
fb35:	4c 89 5c 24 28       	mov    QWORD PTR [rsp+0x28],r11
fb3a:	44 89 54 24 20       	mov    DWORD PTR [rsp+0x20],r10d
fb3f:	44 89 4c 24 18       	mov    DWORD PTR [rsp+0x18],r9d
fb44:	48 89 54 24 10       	mov    QWORD PTR [rsp+0x10],rdx
fb49:	e8 72 30 ff ff       	call   2bc0 <malloc@plt>
fb4e:	48 85 c0             	test   rax,rax
fb51:	48 89 c6             	mov    rsi,rax
fb54:	48 89 05 9d ab 20 00 	mov    QWORD PTR [rip+0x20ab9d],rax        # 21a6f8 <new_dst_res.5308>
fb5b:	48 8b 54 24 10       	mov    rdx,QWORD PTR [rsp+0x10]
fb60:	44 8b 4c 24 18       	mov    r9d,DWORD PTR [rsp+0x18]
fb65:	44 8b 54 24 20       	mov    r10d,DWORD PTR [rsp+0x20]
fb6a:	4c 8b 5c 24 28       	mov    r11,QWORD PTR [rsp+0x28]
fb6f:	74 27                	je     fb98 <utimecmpat+0x1e8>
fb71:	c7 40 08 00 94 35 77 	mov    DWORD PTR [rax+0x8],0x77359400
fb78:	c6 40 0c 00          	mov    BYTE PTR [rax+0xc],0x0
fb7c:	e9 d8 fe ff ff       	jmp    fa59 <utimecmpat+0xa9>
fb81:	0f 1f 80 00 00 00 00 	nop    DWORD PTR [rax+0x0]
fb88:	48 8b 15 71 ab 20 00 	mov    rdx,QWORD PTR [rip+0x20ab71]        # 21a700 <ht.5307>
fb8f:	48 85 d2             	test   rdx,rdx
fb92:	0f 84 9a 04 00 00    	je     10032 <utimecmpat+0x682>
fb98:	48 8d 4c 24 50       	lea    rcx,[rsp+0x50]
fb9d:	48 8b 45 00          	mov    rax,QWORD PTR [rbp+0x0]
fba1:	48 89 d7             	mov    rdi,rdx
fba4:	4c 89 5c 24 30       	mov    QWORD PTR [rsp+0x30],r11
fba9:	44 89 54 24 28       	mov    DWORD PTR [rsp+0x28],r10d
fbae:	48 89 ce             	mov    rsi,rcx
fbb1:	44 89 4c 24 20       	mov    DWORD PTR [rsp+0x20],r9d
fbb6:	48 89 4c 24 18       	mov    QWORD PTR [rsp+0x18],rcx
fbbb:	48 89 44 24 50       	mov    QWORD PTR [rsp+0x50],rax
fbc0:	e8 9b c5 ff ff       	call   c160 <hash_lookup>
fbc5:	48 85 c0             	test   rax,rax
fbc8:	48 89 44 24 10       	mov    QWORD PTR [rsp+0x10],rax
fbcd:	48 8b 4c 24 18       	mov    rcx,QWORD PTR [rsp+0x18]
fbd2:	44 8b 4c 24 20       	mov    r9d,DWORD PTR [rsp+0x20]
fbd7:	44 8b 54 24 28       	mov    r10d,DWORD PTR [rsp+0x28]
fbdc:	4c 8b 5c 24 30       	mov    r11,QWORD PTR [rsp+0x30]
fbe1:	0f 85 ba fe ff ff    	jne    faa1 <utimecmpat+0xf1>
fbe7:	66 0f 1f 84 00 00 00 	nop    WORD PTR [rax+rax*1+0x0]
fbee:	00 00
fbf0:	c7 44 24 58 00 94 35 	mov    DWORD PTR [rsp+0x58],0x77359400
fbf7:	77
fbf8:	c6 44 24 5c 00       	mov    BYTE PTR [rsp+0x5c],0x0
fbfd:	c7 44 24 18 00 94 35 	mov    DWORD PTR [rsp+0x18],0x77359400
fc04:	77
fc05:	48 89 4c 24 10       	mov    QWORD PTR [rsp+0x10],rcx
fc0a:	48 8b 4d 50          	mov    rcx,QWORD PTR [rbp+0x50]
fc0e:	b8 67 66 66 66       	mov    eax,0x66666667
fc13:	48 8b 75 70          	mov    rsi,QWORD PTR [rbp+0x70]
fc17:	f7 e9                	imul   ecx
fc19:	89 c8                	mov    eax,ecx
fc1b:	48 89 4c 24 28       	mov    QWORD PTR [rsp+0x28],rcx
fc20:	c1 f8 1f             	sar    eax,0x1f
fc23:	c1 fa 02             	sar    edx,0x2
fc26:	29 c2                	sub    edx,eax
fc28:	8d 04 92             	lea    eax,[rdx+rdx*4]
fc2b:	89 54 24 20          	mov    DWORD PTR [rsp+0x20],edx
fc2f:	01 c0                	add    eax,eax
fc31:	29 c1                	sub    ecx,eax
fc33:	b8 67 66 66 66       	mov    eax,0x66666667
fc38:	f7 ee                	imul   esi
fc3a:	89 f0                	mov    eax,esi
fc3c:	c1 f8 1f             	sar    eax,0x1f
fc3f:	c1 fa 02             	sar    edx,0x2
fc42:	89 d7                	mov    edi,edx
fc44:	29 c7                	sub    edi,eax
fc46:	8d 04 bf             	lea    eax,[rdi+rdi*4]
fc49:	01 c0                	add    eax,eax
fc4b:	29 c6                	sub    esi,eax
fc4d:	b8 67 66 66 66       	mov    eax,0x66666667
fc52:	41 f7 ef             	imul   r15d
fc55:	44 89 f8             	mov    eax,r15d
fc58:	09 f1                	or     ecx,esi
fc5a:	c1 f8 1f             	sar    eax,0x1f
fc5d:	44 89 fe             	mov    esi,r15d
fc60:	c1 fa 02             	sar    edx,0x2
fc63:	41 89 d0             	mov    r8d,edx
fc66:	41 29 c0             	sub    r8d,eax
fc69:	43 8d 04 80          	lea    eax,[r8+r8*4]
fc6d:	01 c0                	add    eax,eax
fc6f:	29 c6                	sub    esi,eax
fc71:	09 f1                	or     ecx,esi
fc73:	0f 85 4f 03 00 00    	jne    ffc8 <utimecmpat+0x618>
fc79:	83 7c 24 18 0a       	cmp    DWORD PTR [rsp+0x18],0xa
fc7e:	48 8b 45 48          	mov    rax,QWORD PTR [rbp+0x48]
fc82:	89 f9                	mov    ecx,edi
fc84:	8b 54 24 20          	mov    edx,DWORD PTR [rsp+0x20]
fc88:	44 89 c6             	mov    esi,r8d
fc8b:	48 89 44 24 48       	mov    QWORD PTR [rsp+0x48],rax
fc90:	89 54 24 30          	mov    DWORD PTR [rsp+0x30],edx
fc94:	0f 8e 0e 04 00 00    	jle    100a8 <utimecmpat+0x6f8>
fc9a:	b8 67 66 66 66       	mov    eax,0x66666667
fc9f:	f7 ef                	imul   edi
fca1:	89 f8                	mov    eax,edi
fca3:	c1 f8 1f             	sar    eax,0x1f
fca6:	c1 fa 02             	sar    edx,0x2
fca9:	29 c2                	sub    edx,eax
fcab:	8d 04 92             	lea    eax,[rdx+rdx*4]
fcae:	01 c0                	add    eax,eax
fcb0:	29 c7                	sub    edi,eax
fcb2:	b8 67 66 66 66       	mov    eax,0x66666667
fcb7:	f7 6c 24 20          	imul   DWORD PTR [rsp+0x20]
fcbb:	8b 44 24 20          	mov    eax,DWORD PTR [rsp+0x20]
fcbf:	c1 f8 1f             	sar    eax,0x1f
fcc2:	c1 fa 02             	sar    edx,0x2
fcc5:	29 c2                	sub    edx,eax
fcc7:	8d 04 92             	lea    eax,[rdx+rdx*4]
fcca:	8b 54 24 20          	mov    edx,DWORD PTR [rsp+0x20]
fcce:	c7 44 24 20 0a 00 00 	mov    DWORD PTR [rsp+0x20],0xa
fcd5:	00
fcd6:	01 c0                	add    eax,eax
fcd8:	29 c2                	sub    edx,eax
fcda:	b8 67 66 66 66       	mov    eax,0x66666667
fcdf:	09 d7                	or     edi,edx
fce1:	41 f7 e8             	imul   r8d
fce4:	44 89 c0             	mov    eax,r8d
fce7:	89 7c 24 3c          	mov    DWORD PTR [rsp+0x3c],edi
fceb:	c1 f8 1f             	sar    eax,0x1f
fcee:	bf 67 66 66 66       	mov    edi,0x66666667
fcf3:	c1 fa 02             	sar    edx,0x2
fcf6:	29 c2                	sub    edx,eax
fcf8:	8d 04 92             	lea    eax,[rdx+rdx*4]
fcfb:	ba 08 00 00 00       	mov    edx,0x8
fd00:	01 c0                	add    eax,eax
fd02:	41 29 c0             	sub    r8d,eax
fd05:	8b 44 24 3c          	mov    eax,DWORD PTR [rsp+0x3c]
fd09:	44 09 c0             	or     eax,r8d
fd0c:	0f 85 b2 03 00 00    	jne    100c4 <utimecmpat+0x714>
fd12:	44 89 4c 24 3c       	mov    DWORD PTR [rsp+0x3c],r9d
fd17:	4c 89 74 24 40       	mov    QWORD PTR [rsp+0x40],r14
fd1c:	41 b9 0a 00 00 00    	mov    r9d,0xa
fd22:	44 8b 44 24 30       	mov    r8d,DWORD PTR [rsp+0x30]
fd27:	4c 89 64 24 20       	mov    QWORD PTR [rsp+0x20],r12
fd2c:	41 89 d6             	mov    r14d,edx
fd2f:	48 89 6c 24 30       	mov    QWORD PTR [rsp+0x30],rbp
fd34:	44 89 c0             	mov    eax,r8d
fd37:	41 c1 f8 1f          	sar    r8d,0x1f
fd3b:	43 8d 2c 89          	lea    ebp,[r9+r9*4]
fd3f:	f7 ef                	imul   edi
fd41:	89 c8                	mov    eax,ecx
fd43:	c1 f9 1f             	sar    ecx,0x1f
fd46:	01 ed                	add    ebp,ebp
fd48:	41 89 e9             	mov    r9d,ebp
fd4b:	c1 fa 02             	sar    edx,0x2
fd4e:	44 29 c2             	sub    edx,r8d
fd51:	41 89 d0             	mov    r8d,edx
fd54:	f7 ef                	imul   edi
fd56:	89 f0                	mov    eax,esi
fd58:	c1 fe 1f             	sar    esi,0x1f
fd5b:	c1 fa 02             	sar    edx,0x2
fd5e:	29 ca                	sub    edx,ecx
fd60:	89 d1                	mov    ecx,edx
fd62:	f7 ef                	imul   edi
fd64:	c1 fa 02             	sar    edx,0x2
fd67:	29 f2                	sub    edx,esi
fd69:	3b 6c 24 18          	cmp    ebp,DWORD PTR [rsp+0x18]
fd6d:	89 d6                	mov    esi,edx
fd6f:	0f 8d db 02 00 00    	jge    10050 <utimecmpat+0x6a0>
fd75:	44 89 c0             	mov    eax,r8d
fd78:	45 89 c4             	mov    r12d,r8d
fd7b:	f7 ef                	imul   edi
fd7d:	44 89 c0             	mov    eax,r8d
fd80:	c1 f8 1f             	sar    eax,0x1f
fd83:	c1 fa 02             	sar    edx,0x2
fd86:	29 c2                	sub    edx,eax
fd88:	8d 04 92             	lea    eax,[rdx+rdx*4]
fd8b:	01 c0                	add    eax,eax
fd8d:	41 29 c4             	sub    r12d,eax
fd90:	89 c8                	mov    eax,ecx
fd92:	f7 ef                	imul   edi
fd94:	89 c8                	mov    eax,ecx
fd96:	c1 f8 1f             	sar    eax,0x1f
fd99:	c1 fa 02             	sar    edx,0x2
fd9c:	29 c2                	sub    edx,eax
fd9e:	8d 04 92             	lea    eax,[rdx+rdx*4]
fda1:	89 ca                	mov    edx,ecx
fda3:	01 c0                	add    eax,eax
fda5:	29 c2                	sub    edx,eax
fda7:	89 f0                	mov    eax,esi
fda9:	41 09 d4             	or     r12d,edx
fdac:	f7 ef                	imul   edi
fdae:	89 f0                	mov    eax,esi
fdb0:	c1 f8 1f             	sar    eax,0x1f
fdb3:	c1 fa 02             	sar    edx,0x2
fdb6:	29 c2                	sub    edx,eax
fdb8:	8d 04 92             	lea    eax,[rdx+rdx*4]
fdbb:	89 f2                	mov    edx,esi
fdbd:	01 c0                	add    eax,eax
fdbf:	29 c2                	sub    edx,eax
fdc1:	41 09 d4             	or     r12d,edx
fdc4:	0f 85 86 02 00 00    	jne    10050 <utimecmpat+0x6a0>
fdca:	41 83 ee 01          	sub    r14d,0x1
fdce:	0f 85 60 ff ff ff    	jne    fd34 <utimecmpat+0x384>
fdd4:	4c 8b 74 24 40       	mov    r14,QWORD PTR [rsp+0x40]
fdd9:	48 8b 6c 24 30       	mov    rbp,QWORD PTR [rsp+0x30]
fdde:	48 8b 44 24 48       	mov    rax,QWORD PTR [rsp+0x48]
fde3:	4c 8b 64 24 20       	mov    r12,QWORD PTR [rsp+0x20]
fde8:	44 8b 4c 24 3c       	mov    r9d,DWORD PTR [rsp+0x3c]
fded:	4c 09 f0             	or     rax,r14
fdf0:	48 0b 45 68          	or     rax,QWORD PTR [rbp+0x68]
fdf4:	a8 01                	test   al,0x1
fdf6:	48 8b 44 24 10       	mov    rax,QWORD PTR [rsp+0x10]
fdfb:	0f 84 87 02 00 00    	je     10088 <utimecmpat+0x6d8>
fe01:	c7 40 08 00 ca 9a 3b 	mov    DWORD PTR [rax+0x8],0x3b9aca00
fe08:	c7 44 24 20 00 ca 9a 	mov    DWORD PTR [rsp+0x20],0x3b9aca00
fe0f:	3b
fe10:	4c 89 e0             	mov    rax,r12
fe13:	4d 39 e6             	cmp    r14,r12
fe16:	0f 8f d3 fc ff ff    	jg     faef <utimecmpat+0x13f>
fe1c:	45 39 ef             	cmp    r15d,r13d
fe1f:	7c 0b                	jl     fe2c <utimecmpat+0x47c>
fe21:	80 7c 24 38 00       	cmp    BYTE PTR [rsp+0x38],0x0
fe26:	0f 85 c3 fc ff ff    	jne    faef <utimecmpat+0x13f>
fe2c:	49 39 c6             	cmp    r14,rax
fe2f:	0f 8c f3 fc ff ff    	jl     fb28 <utimecmpat+0x178>
fe35:	75 16                	jne    fe4d <utimecmpat+0x49d>
fe37:	44 89 c8             	mov    eax,r9d
fe3a:	99                   	cdq
fe3b:	f7 7c 24 20          	idiv   DWORD PTR [rsp+0x20]
fe3f:	44 89 e8             	mov    eax,r13d
fe42:	29 d0                	sub    eax,edx
fe44:	44 39 f8             	cmp    eax,r15d
fe47:	0f 8f db fc ff ff    	jg     fb28 <utimecmpat+0x178>
fe4d:	48 8b 44 24 48       	mov    rax,QWORD PTR [rsp+0x48]
fe52:	ba 39 8e e3 38       	mov    edx,0x38e38e39
fe57:	48 8d 6c 24 60       	lea    rbp,[rsp+0x60]
fe5c:	4c 89 de             	mov    rsi,r11
fe5f:	44 89 d7             	mov    edi,r10d
fe62:	b9 00 01 00 00       	mov    ecx,0x100
fe67:	44 89 4c 24 18       	mov    DWORD PTR [rsp+0x18],r9d
fe6c:	44 89 54 24 38       	mov    DWORD PTR [rsp+0x38],r10d
fe71:	48 89 44 24 60       	mov    QWORD PTR [rsp+0x60],rax
fe76:	48 63 44 24 28       	movsxd rax,DWORD PTR [rsp+0x28]
fe7b:	48 89 44 24 68       	mov    QWORD PTR [rsp+0x68],rax
fe80:	0f b6 44 24 08       	movzx  eax,BYTE PTR [rsp+0x8]
fe85:	4c 89 5c 24 08       	mov    QWORD PTR [rsp+0x8],r11
fe8a:	4c 09 f0             	or     rax,r14
fe8d:	48 89 44 24 70       	mov    QWORD PTR [rsp+0x70],rax
fe92:	8b 44 24 20          	mov    eax,DWORD PTR [rsp+0x20]
fe96:	f7 e2                	mul    edx
fe98:	89 d0                	mov    eax,edx
fe9a:	48 89 ea             	mov    rdx,rbp
fe9d:	d1 e8                	shr    eax,1
fe9f:	44 01 f8             	add    eax,r15d
fea2:	48 98                	cdqe
fea4:	48 89 44 24 78       	mov    QWORD PTR [rsp+0x78],rax
fea9:	e8 a2 28 ff ff       	call   2750 <utimensat@plt>
feae:	85 c0                	test   eax,eax
feb0:	44 8b 54 24 38       	mov    r10d,DWORD PTR [rsp+0x38]
feb5:	4c 8b 5c 24 08       	mov    r11,QWORD PTR [rsp+0x8]
feba:	44 8b 4c 24 18       	mov    r9d,DWORD PTR [rsp+0x18]
febf:	74 0a                	je     fecb <utimecmpat+0x51b>
fec1:	bb fe ff ff ff       	mov    ebx,0xfffffffe
fec6:	e9 24 fc ff ff       	jmp    faef <utimecmpat+0x13f>
fecb:	48 8d 8c 24 80 00 00 	lea    rcx,[rsp+0x80]
fed2:	00
fed3:	4c 89 da             	mov    rdx,r11
fed6:	41 b8 00 01 00 00    	mov    r8d,0x100
fedc:	44 89 d6             	mov    esi,r10d
fedf:	bf 01 00 00 00       	mov    edi,0x1
fee4:	44 89 4c 24 18       	mov    DWORD PTR [rsp+0x18],r9d
fee9:	4c 89 5c 24 08       	mov    QWORD PTR [rsp+0x8],r11
feee:	44 89 54 24 38       	mov    DWORD PTR [rsp+0x38],r10d
fef3:	e8 88 2a ff ff       	call   2980 <__fxstatat@plt>
fef8:	48 8b 8c 24 e0 00 00 	mov    rcx,QWORD PTR [rsp+0xe0]
feff:	00
ff00:	41 89 c0             	mov    r8d,eax
ff03:	48 8b 84 24 d8 00 00 	mov    rax,QWORD PTR [rsp+0xd8]
ff0a:	00
ff0b:	49 63 d7             	movsxd rdx,r15d
ff0e:	44 8b 54 24 38       	mov    r10d,DWORD PTR [rsp+0x38]
ff13:	4c 8b 5c 24 08       	mov    r11,QWORD PTR [rsp+0x8]
ff18:	44 8b 4c 24 18       	mov    r9d,DWORD PTR [rsp+0x18]
ff1d:	48 31 d1             	xor    rcx,rdx
ff20:	4c 31 f0             	xor    rax,r14
ff23:	48 09 c8             	or     rax,rcx
ff26:	49 63 c8             	movsxd rcx,r8d
ff29:	48 09 c8             	or     rax,rcx
ff2c:	0f 85 ab 01 00 00    	jne    100dd <utimecmpat+0x72d>
ff32:	8b 8c 24 d8 00 00 00 	mov    ecx,DWORD PTR [rsp+0xd8]
ff39:	be 0a 00 00 00       	mov    esi,0xa
ff3e:	83 e1 01             	and    ecx,0x1
ff41:	69 c9 00 ca 9a 3b    	imul   ecx,ecx,0x3b9aca00
ff47:	03 8c 24 e0 00 00 00 	add    ecx,DWORD PTR [rsp+0xe0]
ff4e:	89 c8                	mov    eax,ecx
ff50:	99                   	cdq
ff51:	f7 fe                	idiv   esi
ff53:	85 d2                	test   edx,edx
ff55:	0f 85 ca 01 00 00    	jne    10125 <utimecmpat+0x775>
ff5b:	83 7c 24 20 0a       	cmp    DWORD PTR [rsp+0x20],0xa
ff60:	74 3b                	je     ff9d <utimecmpat+0x5ed>
ff62:	41 b8 09 00 00 00    	mov    r8d,0x9
ff68:	be 0a 00 00 00       	mov    esi,0xa
ff6d:	bf 0a 00 00 00       	mov    edi,0xa
ff72:	eb 09                	jmp    ff7d <utimecmpat+0x5cd>
ff74:	6b f6 0a             	imul   esi,esi,0xa
ff77:	3b 74 24 20          	cmp    esi,DWORD PTR [rsp+0x20]
ff7b:	74 20                	je     ff9d <utimecmpat+0x5ed>
ff7d:	89 c8                	mov    eax,ecx
ff7f:	99                   	cdq
ff80:	f7 ff                	idiv   edi
ff82:	99                   	cdq
ff83:	89 c1                	mov    ecx,eax
ff85:	f7 ff                	idiv   edi
ff87:	85 d2                	test   edx,edx
ff89:	0f 85 8d 01 00 00    	jne    1011c <utimecmpat+0x76c>
ff8f:	41 83 e8 01          	sub    r8d,0x1
ff93:	75 df                	jne    ff74 <utimecmpat+0x5c4>
ff95:	c7 44 24 20 00 94 35 	mov    DWORD PTR [rsp+0x20],0x77359400
ff9c:	77
ff9d:	8b 74 24 20          	mov    esi,DWORD PTR [rsp+0x20]
ffa1:	31 c0                	xor    eax,eax
ffa3:	81 fe 00 94 35 77    	cmp    esi,0x77359400
ffa9:	89 f3                	mov    ebx,esi
ffab:	0f 94 c0             	sete   al
ffae:	f7 d0                	not    eax
ffb0:	48 98                	cdqe
ffb2:	49 21 c4             	and    r12,rax
ffb5:	44 89 c8             	mov    eax,r9d
ffb8:	45 89 e9             	mov    r9d,r13d
ffbb:	99                   	cdq
ffbc:	f7 fe                	idiv   esi
ffbe:	41 29 d1             	sub    r9d,edx
ffc1:	0f 1f 80 00 00 00 00 	nop    DWORD PTR [rax+0x0]
ffc8:	48 8b 44 24 10       	mov    rax,QWORD PTR [rsp+0x10]
ffcd:	89 58 08             	mov    DWORD PTR [rax+0x8],ebx
ffd0:	c6 40 0c 01          	mov    BYTE PTR [rax+0xc],0x1
ffd4:	e9 ff fa ff ff       	jmp    fad8 <utimecmpat+0x128>
ffd9:	0f 1f 80 00 00 00 00 	nop    DWORD PTR [rax+0x0]
ffe0:	4c 8b 05 e1 9f 20 00 	mov    r8,QWORD PTR [rip+0x209fe1]        # 219fc8 <free@GLIBC_2.2.5>
ffe7:	48 8d 15 a2 f9 ff ff 	lea    rdx,[rip+0xfffffffffffff9a2]        # f990 <dev_info_hash>
ffee:	48 8d 0d ab f9 ff ff 	lea    rcx,[rip+0xfffffffffffff9ab]        # f9a0 <dev_info_compare>
fff5:	48 89 74 24 20       	mov    QWORD PTR [rsp+0x20],rsi
fffa:	bf 10 00 00 00       	mov    edi,0x10
ffff:	31 f6                	xor    esi,esi
10001:	44 89 54 24 18       	mov    DWORD PTR [rsp+0x18],r10d
10006:	44 89 6c 24 10       	mov    DWORD PTR [rsp+0x10],r13d
1000b:	e8 c0 c3 ff ff       	call   c3d0 <hash_initialize>
10010:	48 85 c0             	test   rax,rax
10013:	48 89 c2             	mov    rdx,rax
10016:	48 89 05 e3 a6 20 00 	mov    QWORD PTR [rip+0x20a6e3],rax        # 21a700 <ht.5307>
1001d:	44 8b 4c 24 10       	mov    r9d,DWORD PTR [rsp+0x10]
10022:	44 8b 54 24 18       	mov    r10d,DWORD PTR [rsp+0x18]
10027:	4c 8b 5c 24 20       	mov    r11,QWORD PTR [rsp+0x20]
1002c:	0f 85 17 fa ff ff    	jne    fa49 <utimecmpat+0x99>
10032:	48 8d 4c 24 50       	lea    rcx,[rsp+0x50]
10037:	e9 b4 fb ff ff       	jmp    fbf0 <utimecmpat+0x240>
1003c:	0f 1f 40 00          	nop    DWORD PTR [rax+0x0]
10040:	48 c7 05 ad a6 20 00 	mov    QWORD PTR [rip+0x20a6ad],0x0        # 21a6f8 <new_dst_res.5308>
10047:	00 00 00 00
1004b:	e9 51 fa ff ff       	jmp    faa1 <utimecmpat+0xf1>
10050:	81 fd 00 94 35 77    	cmp    ebp,0x77359400
10056:	4c 8b 64 24 20       	mov    r12,QWORD PTR [rsp+0x20]
1005b:	48 8b 74 24 10       	mov    rsi,QWORD PTR [rsp+0x10]
10060:	0f 94 44 24 08       	sete   BYTE PTR [rsp+0x8]
10065:	0f b6 44 24 08       	movzx  eax,BYTE PTR [rsp+0x8]
1006a:	44 89 4c 24 20       	mov    DWORD PTR [rsp+0x20],r9d
1006f:	4c 8b 74 24 40       	mov    r14,QWORD PTR [rsp+0x40]
10074:	44 8b 4c 24 3c       	mov    r9d,DWORD PTR [rsp+0x3c]
10079:	89 6e 08             	mov    DWORD PTR [rsi+0x8],ebp
1007c:	f7 d0                	not    eax
1007e:	48 98                	cdqe
10080:	4c 21 e0             	and    rax,r12
10083:	e9 8b fd ff ff       	jmp    fe13 <utimecmpat+0x463>
10088:	c7 40 08 00 94 35 77 	mov    DWORD PTR [rax+0x8],0x77359400
1008f:	4c 89 e0             	mov    rax,r12
10092:	c6 44 24 08 01       	mov    BYTE PTR [rsp+0x8],0x1
10097:	48 83 e0 fe          	and    rax,0xfffffffffffffffe
1009b:	c7 44 24 20 00 94 35 	mov    DWORD PTR [rsp+0x20],0x77359400
100a2:	77
100a3:	e9 6b fd ff ff       	jmp    fe13 <utimecmpat+0x463>
100a8:	48 8b 44 24 10       	mov    rax,QWORD PTR [rsp+0x10]
100ad:	c7 44 24 20 0a 00 00 	mov    DWORD PTR [rsp+0x20],0xa
100b4:	00
100b5:	c7 40 08 0a 00 00 00 	mov    DWORD PTR [rax+0x8],0xa
100bc:	4c 89 e0             	mov    rax,r12
100bf:	e9 4f fd ff ff       	jmp    fe13 <utimecmpat+0x463>
100c4:	48 8b 44 24 10       	mov    rax,QWORD PTR [rsp+0x10]
100c9:	c7 40 08 0a 00 00 00 	mov    DWORD PTR [rax+0x8],0xa
100d0:	4c 89 e0             	mov    rax,r12
100d3:	e9 3b fd ff ff       	jmp    fe13 <utimecmpat+0x463>
100d8:	e8 53 28 ff ff       	call   2930 <__stack_chk_fail@plt>
100dd:	48 89 54 24 78       	mov    QWORD PTR [rsp+0x78],rdx
100e2:	b9 00 01 00 00       	mov    ecx,0x100
100e7:	48 89 ea             	mov    rdx,rbp
100ea:	4c 89 de             	mov    rsi,r11
100ed:	44 89 d7             	mov    edi,r10d
100f0:	44 89 44 24 08       	mov    DWORD PTR [rsp+0x8],r8d
100f5:	44 89 4c 24 38       	mov    DWORD PTR [rsp+0x38],r9d
100fa:	4c 89 74 24 70       	mov    QWORD PTR [rsp+0x70],r14
100ff:	e8 4c 26 ff ff       	call   2750 <utimensat@plt>
10104:	44 8b 44 24 08       	mov    r8d,DWORD PTR [rsp+0x8]
10109:	44 8b 4c 24 38       	mov    r9d,DWORD PTR [rsp+0x38]
1010e:	45 85 c0             	test   r8d,r8d
10111:	0f 85 aa fd ff ff    	jne    fec1 <utimecmpat+0x511>
10117:	e9 16 fe ff ff       	jmp    ff32 <utimecmpat+0x582>
1011c:	89 74 24 20          	mov    DWORD PTR [rsp+0x20],esi
10120:	e9 78 fe ff ff       	jmp    ff9d <utimecmpat+0x5ed>
10125:	89 5c 24 20          	mov    DWORD PTR [rsp+0x20],ebx
10129:	e9 6f fe ff ff       	jmp    ff9d <utimecmpat+0x5ed>
1012e:	66 90                	xchg   ax,ax

0000000000010130 <utimecmp>:
10130:	41 89 c8             	mov    r8d,ecx
10133:	48 89 d1             	mov    rcx,rdx
10136:	48 89 f2             	mov    rdx,rsi
10139:	48 89 fe             	mov    rsi,rdi
1013c:	bf 9c ff ff ff       	mov    edi,0xffffff9c
10141:	e9 6a f8 ff ff       	jmp    f9b0 <utimecmpat>
10146:	66 2e 0f 1f 84 00 00 	nop    WORD PTR cs:[rax+rax*1+0x0]
1014d:	00 00 00

0000000000010150 <update_timespec>:
10150:	55                   	push   rbp
10151:	53                   	push   rbx
10152:	48 89 fd             	mov    rbp,rdi
10155:	48 83 ec 18          	sub    rsp,0x18
10159:	48 8b 1e             	mov    rbx,QWORD PTR [rsi]
1015c:	48 8b 43 08          	mov    rax,QWORD PTR [rbx+0x8]
10160:	48 8b 53 18          	mov    rdx,QWORD PTR [rbx+0x18]
10164:	48 3d fe ff ff 3f    	cmp    rax,0x3ffffffe
1016a:	74 64                	je     101d0 <update_timespec+0x80>
1016c:	48 3d ff ff ff 3f    	cmp    rax,0x3fffffff
10172:	74 1c                	je     10190 <update_timespec+0x40>
10174:	48 81 fa fe ff ff 3f 	cmp    rdx,0x3ffffffe
1017b:	74 31                	je     101ae <update_timespec+0x5e>
1017d:	31 c0                	xor    eax,eax
1017f:	48 81 fa ff ff ff 3f 	cmp    rdx,0x3fffffff
10186:	74 70                	je     101f8 <update_timespec+0xa8>
10188:	48 83 c4 18          	add    rsp,0x18
1018c:	5b                   	pop    rbx
1018d:	5d                   	pop    rbp
1018e:	c3                   	ret
1018f:	90                   	nop
10190:	48 81 fa ff ff ff 3f 	cmp    rdx,0x3fffffff
10197:	74 7f                	je     10218 <update_timespec+0xc8>
10199:	48 89 df             	mov    rdi,rbx
1019c:	e8 9f 14 00 00       	call   11640 <gettime>
101a1:	48 8b 53 18          	mov    rdx,QWORD PTR [rbx+0x18]
101a5:	48 81 fa fe ff ff 3f 	cmp    rdx,0x3ffffffe
101ac:	75 cf                	jne    1017d <update_timespec+0x2d>
101ae:	48 8b 45 60          	mov    rax,QWORD PTR [rbp+0x60]
101b2:	48 8b 55 58          	mov    rdx,QWORD PTR [rbp+0x58]
101b6:	48 89 43 18          	mov    QWORD PTR [rbx+0x18],rax
101ba:	48 89 53 10          	mov    QWORD PTR [rbx+0x10],rdx
101be:	48 83 c4 18          	add    rsp,0x18
101c2:	31 c0                	xor    eax,eax
101c4:	5b                   	pop    rbx
101c5:	5d                   	pop    rbp
101c6:	c3                   	ret
101c7:	66 0f 1f 84 00 00 00 	nop    WORD PTR [rax+rax*1+0x0]
101ce:	00 00
101d0:	48 81 fa fe ff ff 3f 	cmp    rdx,0x3ffffffe
101d7:	b8 01 00 00 00       	mov    eax,0x1
101dc:	74 aa                	je     10188 <update_timespec+0x38>
101de:	48 8b 47 50          	mov    rax,QWORD PTR [rdi+0x50]
101e2:	48 8b 4f 48          	mov    rcx,QWORD PTR [rdi+0x48]
101e6:	48 89 43 08          	mov    QWORD PTR [rbx+0x8],rax
101ea:	31 c0                	xor    eax,eax
101ec:	48 81 fa ff ff ff 3f 	cmp    rdx,0x3fffffff
101f3:	48 89 0b             	mov    QWORD PTR [rbx],rcx
101f6:	75 90                	jne    10188 <update_timespec+0x38>
101f8:	48 8d 7b 10          	lea    rdi,[rbx+0x10]
101fc:	88 44 24 0f          	mov    BYTE PTR [rsp+0xf],al
10200:	e8 3b 14 00 00       	call   11640 <gettime>
10205:	0f b6 44 24 0f       	movzx  eax,BYTE PTR [rsp+0xf]
1020a:	48 83 c4 18          	add    rsp,0x18
1020e:	5b                   	pop    rbx
1020f:	5d                   	pop    rbp
10210:	c3                   	ret
10211:	0f 1f 80 00 00 00 00 	nop    DWORD PTR [rax+0x0]
10218:	48 c7 06 00 00 00 00 	mov    QWORD PTR [rsi],0x0
1021f:	31 c0                	xor    eax,eax
10221:	e9 62 ff ff ff       	jmp    10188 <update_timespec+0x38>
10226:	66 2e 0f 1f 84 00 00 	nop    WORD PTR cs:[rax+rax*1+0x0]
1022d:	00 00 00

0000000000010230 <validate_timespec>:
10230:	4c 8b 4f 08          	mov    r9,QWORD PTR [rdi+0x8]
10234:	49 8d 89 02 00 00 c0 	lea    rcx,[r9-0x3ffffffe]
1023b:	48 83 f9 01          	cmp    rcx,0x1
1023f:	76 09                	jbe    1024a <validate_timespec+0x1a>
10241:	49 81 f9 ff c9 9a 3b 	cmp    r9,0x3b9ac9ff
10248:	77 76                	ja     102c0 <validate_timespec+0x90>
1024a:	48 8b 57 18          	mov    rdx,QWORD PTR [rdi+0x18]
1024e:	4c 8d 82 02 00 00 c0 	lea    r8,[rdx-0x3ffffffe]
10255:	49 83 f8 01          	cmp    r8,0x1
10259:	76 09                	jbe    10264 <validate_timespec+0x34>
1025b:	48 81 fa ff c9 9a 3b 	cmp    rdx,0x3b9ac9ff
10262:	77 5c                	ja     102c0 <validate_timespec+0x90>
10264:	31 f6                	xor    esi,esi
10266:	45 31 d2             	xor    r10d,r10d
10269:	48 83 f9 01          	cmp    rcx,0x1
1026d:	77 1a                	ja     10289 <validate_timespec+0x59>
1026f:	31 f6                	xor    esi,esi
10271:	49 81 f9 fe ff ff 3f 	cmp    r9,0x3ffffffe
10278:	48 c7 07 00 00 00 00 	mov    QWORD PTR [rdi],0x0
1027f:	40 0f 94 c6          	sete   sil
10283:	41 ba 01 00 00 00    	mov    r10d,0x1
10289:	49 83 f8 01          	cmp    r8,0x1
1028d:	77 1c                	ja     102ab <validate_timespec+0x7b>
1028f:	31 c0                	xor    eax,eax
10291:	48 81 fa fe ff ff 3f 	cmp    rdx,0x3ffffffe
10298:	48 c7 47 10 00 00 00 	mov    QWORD PTR [rdi+0x10],0x0
1029f:	00
102a0:	0f 94 c0             	sete   al
102a3:	41 ba 01 00 00 00    	mov    r10d,0x1
102a9:	01 c6                	add    esi,eax
102ab:	31 c0                	xor    eax,eax
102ad:	83 fe 01             	cmp    esi,0x1
102b0:	0f 94 c0             	sete   al
102b3:	44 01 d0             	add    eax,r10d
102b6:	c3                   	ret
102b7:	66 0f 1f 84 00 00 00 	nop    WORD PTR [rax+rax*1+0x0]
102be:	00 00
102c0:	48 83 ec 08          	sub    rsp,0x8
102c4:	e8 a7 24 ff ff       	call   2770 <__errno_location@plt>
102c9:	c7 00 16 00 00 00    	mov    DWORD PTR [rax],0x16
102cf:	b8 ff ff ff ff       	mov    eax,0xffffffff
102d4:	48 83 c4 08          	add    rsp,0x8
102d8:	c3                   	ret
102d9:	0f 1f 80 00 00 00 00 	nop    DWORD PTR [rax+0x0]

00000000000102e0 <lutimensat>:
102e0:	b9 00 01 00 00       	mov    ecx,0x100
102e5:	e9 66 24 ff ff       	jmp    2750 <utimensat@plt>
102ea:	66 0f 1f 44 00 00    	nop    WORD PTR [rax+rax*1+0x0]

00000000000102f0 <fdutimens>:
102f0:	41 56                	push   r14
102f2:	41 55                	push   r13
102f4:	41 54                	push   r12
102f6:	55                   	push   rbp
102f7:	49 89 f4             	mov    r12,rsi
102fa:	53                   	push   rbx
102fb:	89 fb                	mov    ebx,edi
102fd:	48 81 ec 10 01 00 00 	sub    rsp,0x110
10304:	64 48 8b 04 25 28 00 	mov    rax,QWORD PTR fs:0x28
1030b:	00 00
1030d:	48 89 84 24 08 01 00 	mov    QWORD PTR [rsp+0x108],rax
10314:	00
10315:	31 c0                	xor    eax,eax
10317:	48 85 d2             	test   rdx,rdx
1031a:	0f 84 c0 02 00 00    	je     105e0 <fdutimens+0x2f0>
10320:	f3 0f 6f 02          	movdqu xmm0,XMMWORD PTR [rdx]
10324:	48 8d 7c 24 10       	lea    rdi,[rsp+0x10]
10329:	0f 29 44 24 10       	movaps XMMWORD PTR [rsp+0x10],xmm0
1032e:	48 89 7c 24 08       	mov    QWORD PTR [rsp+0x8],rdi
10333:	f3 0f 6f 42 10       	movdqu xmm0,XMMWORD PTR [rdx+0x10]
10338:	0f 29 44 24 20       	movaps XMMWORD PTR [rsp+0x20],xmm0
1033d:	e8 ee fe ff ff       	call   10230 <validate_timespec>
10342:	85 c0                	test   eax,eax
10344:	41 89 c5             	mov    r13d,eax
10347:	0f 88 b6 03 00 00    	js     10703 <fdutimens+0x413>
1034d:	85 db                	test   ebx,ebx
1034f:	79 09                	jns    1035a <fdutimens+0x6a>
10351:	4d 85 e4             	test   r12,r12
10354:	0f 84 9e 03 00 00    	je     106f8 <fdutimens+0x408>
1035a:	8b 05 ac a3 20 00    	mov    eax,DWORD PTR [rip+0x20a3ac]        # 21a70c <utimensat_works_really>
10360:	85 c0                	test   eax,eax
10362:	78 34                	js     10398 <fdutimens+0xa8>
10364:	41 83 fd 02          	cmp    r13d,0x2
10368:	0f 84 02 02 00 00    	je     10570 <fdutimens+0x280>
1036e:	48 8b 74 24 08       	mov    rsi,QWORD PTR [rsp+0x8]
10373:	85 db                	test   ebx,ebx
10375:	0f 88 25 03 00 00    	js     106a0 <fdutimens+0x3b0>
1037b:	89 df                	mov    edi,ebx
1037d:	e8 ae 29 ff ff       	call   2d30 <futimens@plt>
10382:	83 f8 00             	cmp    eax,0x0
10385:	89 c5                	mov    ebp,eax
10387:	0f 8e 30 03 00 00    	jle    106bd <fdutimens+0x3cd>
1038d:	e8 de 23 ff ff       	call   2770 <__errno_location@plt>
10392:	c7 00 26 00 00 00    	mov    DWORD PTR [rax],0x26
10398:	45 85 ed             	test   r13d,r13d
1039b:	c7 05 67 a3 20 00 ff 	mov    DWORD PTR [rip+0x20a367],0xffffffff        # 21a70c <utimensat_works_really>
103a2:	ff ff ff
103a5:	c7 05 59 a3 20 00 ff 	mov    DWORD PTR [rip+0x20a359],0xffffffff        # 21a708 <lutimensat_works_really>
103ac:	ff ff ff
103af:	0f 85 5b 01 00 00    	jne    10510 <fdutimens+0x220>
103b5:	48 8b 74 24 08       	mov    rsi,QWORD PTR [rsp+0x8]
103ba:	48 85 f6             	test   rsi,rsi
103bd:	0f 84 8d 02 00 00    	je     10650 <fdutimens+0x360>
103c3:	48 8b 06             	mov    rax,QWORD PTR [rsi]
103c6:	48 8b 7e 08          	mov    rdi,QWORD PTR [rsi+0x8]
103ca:	48 b9 cf f7 53 e3 a5 	movabs rcx,0x20c49ba5e353f7cf
103d1:	9b c4 20
103d4:	4c 8d 6c 24 30       	lea    r13,[rsp+0x30]
103d9:	48 89 44 24 30       	mov    QWORD PTR [rsp+0x30],rax
103de:	48 89 f8             	mov    rax,rdi
103e1:	48 c1 ff 3f          	sar    rdi,0x3f
103e5:	48 f7 e9             	imul   rcx
103e8:	48 8b 46 10          	mov    rax,QWORD PTR [rsi+0x10]
103ec:	48 8b 76 18          	mov    rsi,QWORD PTR [rsi+0x18]
103f0:	48 89 44 24 40       	mov    QWORD PTR [rsp+0x40],rax
103f5:	48 89 f0             	mov    rax,rsi
103f8:	48 c1 fe 3f          	sar    rsi,0x3f
103fc:	48 c1 fa 07          	sar    rdx,0x7
10400:	48 29 fa             	sub    rdx,rdi
10403:	48 89 54 24 38       	mov    QWORD PTR [rsp+0x38],rdx
10408:	48 f7 e9             	imul   rcx
1040b:	48 89 d1             	mov    rcx,rdx
1040e:	48 c1 f9 07          	sar    rcx,0x7
10412:	48 29 f1             	sub    rcx,rsi
10415:	48 89 4c 24 48       	mov    QWORD PTR [rsp+0x48],rcx
1041a:	85 db                	test   ebx,ebx
1041c:	4c 89 ea             	mov    rdx,r13
1041f:	0f 88 d3 01 00 00    	js     105f8 <fdutimens+0x308>
10425:	31 f6                	xor    esi,esi
10427:	89 df                	mov    edi,ebx
10429:	e8 c2 29 ff ff       	call   2df0 <futimesat@plt>
1042e:	85 c0                	test   eax,eax
10430:	89 c5                	mov    ebp,eax
10432:	0f 85 f8 01 00 00    	jne    10630 <fdutimens+0x340>
10438:	4d 85 ed             	test   r13,r13
1043b:	0f 84 c6 01 00 00    	je     10607 <fdutimens+0x317>
10441:	49 81 7d 08 1f a1 07 	cmp    QWORD PTR [r13+0x8],0x7a11f
10448:	00
10449:	41 0f 9f c4          	setg   r12b
1044d:	49 81 7d 18 1f a1 07 	cmp    QWORD PTR [r13+0x18],0x7a11f
10454:	00
10455:	41 0f 9f c6          	setg   r14b
10459:	45 84 e4             	test   r12b,r12b
1045c:	75 09                	jne    10467 <fdutimens+0x177>
1045e:	45 84 f6             	test   r14b,r14b
10461:	0f 84 a0 01 00 00    	je     10607 <fdutimens+0x317>
10467:	48 8d 54 24 70       	lea    rdx,[rsp+0x70]
1046c:	89 de                	mov    esi,ebx
1046e:	bf 01 00 00 00       	mov    edi,0x1
10473:	e8 78 27 ff ff       	call   2bf0 <__fxstat@plt>
10478:	85 c0                	test   eax,eax
1047a:	0f 85 87 01 00 00    	jne    10607 <fdutimens+0x317>
10480:	48 8b 94 24 c8 00 00 	mov    rdx,QWORD PTR [rsp+0xc8]
10487:	00
10488:	49 2b 55 10          	sub    rdx,QWORD PTR [r13+0x10]
1048c:	48 8b 84 24 b8 00 00 	mov    rax,QWORD PTR [rsp+0xb8]
10493:	00
10494:	49 2b 45 00          	sub    rax,QWORD PTR [r13+0x0]
10498:	66 41 0f 6f 45 00    	movdqa xmm0,XMMWORD PTR [r13+0x0]
1049e:	48 83 fa 01          	cmp    rdx,0x1
104a2:	0f 94 c2             	sete   dl
104a5:	0f 29 44 24 50       	movaps XMMWORD PTR [rsp+0x50],xmm0
104aa:	41 21 d6             	and    r14d,edx
104ad:	48 83 f8 01          	cmp    rax,0x1
104b1:	66 41 0f 6f 45 10    	movdqa xmm0,XMMWORD PTR [r13+0x10]
104b7:	0f 29 44 24 60       	movaps XMMWORD PTR [rsp+0x60],xmm0
104bc:	0f 85 4e 02 00 00    	jne    10710 <fdutimens+0x420>
104c2:	45 84 e4             	test   r12b,r12b
104c5:	0f 84 45 02 00 00    	je     10710 <fdutimens+0x420>
104cb:	48 83 bc 24 c0 00 00 	cmp    QWORD PTR [rsp+0xc0],0x0
104d2:	00 00
104d4:	0f 85 36 02 00 00    	jne    10710 <fdutimens+0x420>
104da:	45 84 f6             	test   r14b,r14b
104dd:	48 c7 44 24 58 00 00 	mov    QWORD PTR [rsp+0x58],0x0
104e4:	00 00
104e6:	74 0f                	je     104f7 <fdutimens+0x207>
104e8:	48 83 bc 24 d0 00 00 	cmp    QWORD PTR [rsp+0xd0],0x0
104ef:	00 00
104f1:	0f 84 31 02 00 00    	je     10728 <fdutimens+0x438>
104f7:	48 8d 54 24 50       	lea    rdx,[rsp+0x50]
104fc:	31 f6                	xor    esi,esi
104fe:	89 df                	mov    edi,ebx
10500:	e8 eb 28 ff ff       	call   2df0 <futimesat@plt>
10505:	31 ed                	xor    ebp,ebp
10507:	e9 fb 00 00 00       	jmp    10607 <fdutimens+0x317>
1050c:	0f 1f 40 00          	nop    DWORD PTR [rax+0x0]
10510:	41 83 fd 03          	cmp    r13d,0x3
10514:	74 26                	je     1053c <fdutimens+0x24c>
10516:	85 db                	test   ebx,ebx
10518:	48 8d 54 24 70       	lea    rdx,[rsp+0x70]
1051d:	0f 88 3d 01 00 00    	js     10660 <fdutimens+0x370>
10523:	89 de                	mov    esi,ebx
10525:	bf 01 00 00 00       	mov    edi,0x1
1052a:	e8 c1 26 ff ff       	call   2bf0 <__fxstat@plt>
1052f:	85 c0                	test   eax,eax
10531:	0f 95 c0             	setne  al
10534:	84 c0                	test   al,al
10536:	0f 85 c7 01 00 00    	jne    10703 <fdutimens+0x413>
1053c:	48 83 7c 24 08 00    	cmp    QWORD PTR [rsp+0x8],0x0
10542:	0f 84 08 01 00 00    	je     10650 <fdutimens+0x360>
10548:	48 8d 74 24 08       	lea    rsi,[rsp+0x8]
1054d:	48 8d 7c 24 70       	lea    rdi,[rsp+0x70]
10552:	31 ed                	xor    ebp,ebp
10554:	e8 f7 fb ff ff       	call   10150 <update_timespec>
10559:	84 c0                	test   al,al
1055b:	0f 84 54 fe ff ff    	je     103b5 <fdutimens+0xc5>
10561:	e9 a1 00 00 00       	jmp    10607 <fdutimens+0x317>
10566:	66 2e 0f 1f 84 00 00 	nop    WORD PTR cs:[rax+rax*1+0x0]
1056d:	00 00 00
10570:	85 db                	test   ebx,ebx
10572:	48 8d 54 24 70       	lea    rdx,[rsp+0x70]
10577:	0f 88 03 01 00 00    	js     10680 <fdutimens+0x390>
1057d:	89 de                	mov    esi,ebx
1057f:	bf 01 00 00 00       	mov    edi,0x1
10584:	e8 67 26 ff ff       	call   2bf0 <__fxstat@plt>
10589:	85 c0                	test   eax,eax
1058b:	0f 95 c0             	setne  al
1058e:	84 c0                	test   al,al
10590:	0f 85 6d 01 00 00    	jne    10703 <fdutimens+0x413>
10596:	48 8b 74 24 08       	mov    rsi,QWORD PTR [rsp+0x8]
1059b:	48 81 7e 08 fe ff ff 	cmp    QWORD PTR [rsi+0x8],0x3ffffffe
105a2:	3f
105a3:	0f 84 27 01 00 00    	je     106d0 <fdutimens+0x3e0>
105a9:	48 81 7e 18 fe ff ff 	cmp    QWORD PTR [rsi+0x18],0x3ffffffe
105b0:	3f
105b1:	41 bd 03 00 00 00    	mov    r13d,0x3
105b7:	0f 85 b6 fd ff ff    	jne    10373 <fdutimens+0x83>
105bd:	48 8b 84 24 d0 00 00 	mov    rax,QWORD PTR [rsp+0xd0]
105c4:	00
105c5:	48 8b 94 24 c8 00 00 	mov    rdx,QWORD PTR [rsp+0xc8]
105cc:	00
105cd:	48 89 46 18          	mov    QWORD PTR [rsi+0x18],rax
105d1:	48 89 56 10          	mov    QWORD PTR [rsi+0x10],rdx
105d5:	e9 99 fd ff ff       	jmp    10373 <fdutimens+0x83>
105da:	66 0f 1f 44 00 00    	nop    WORD PTR [rax+rax*1+0x0]
105e0:	48 c7 44 24 08 00 00 	mov    QWORD PTR [rsp+0x8],0x0
105e7:	00 00
105e9:	45 31 ed             	xor    r13d,r13d
105ec:	e9 5c fd ff ff       	jmp    1034d <fdutimens+0x5d>
105f1:	0f 1f 80 00 00 00 00 	nop    DWORD PTR [rax+0x0]
105f8:	4c 89 e6             	mov    rsi,r12
105fb:	bf 9c ff ff ff       	mov    edi,0xffffff9c
10600:	e8 eb 27 ff ff       	call   2df0 <futimesat@plt>
10605:	89 c5                	mov    ebp,eax
10607:	48 8b 8c 24 08 01 00 	mov    rcx,QWORD PTR [rsp+0x108]
1060e:	00
1060f:	64 48 33 0c 25 28 00 	xor    rcx,QWORD PTR fs:0x28
10616:	00 00
10618:	89 e8                	mov    eax,ebp
1061a:	0f 85 16 01 00 00    	jne    10736 <fdutimens+0x446>
10620:	48 81 c4 10 01 00 00 	add    rsp,0x110
10627:	5b                   	pop    rbx
10628:	5d                   	pop    rbp
10629:	41 5c                	pop    r12
1062b:	41 5d                	pop    r13
1062d:	41 5e                	pop    r14
1062f:	c3                   	ret
10630:	4d 85 e4             	test   r12,r12
10633:	bd ff ff ff ff       	mov    ebp,0xffffffff
10638:	74 cd                	je     10607 <fdutimens+0x317>
1063a:	4c 89 ee             	mov    rsi,r13
1063d:	4c 89 e7             	mov    rdi,r12
10640:	e8 7b 24 ff ff       	call   2ac0 <utimes@plt>
10645:	89 c5                	mov    ebp,eax
10647:	eb be                	jmp    10607 <fdutimens+0x317>
10649:	0f 1f 80 00 00 00 00 	nop    DWORD PTR [rax+0x0]
10650:	45 31 ed             	xor    r13d,r13d
10653:	e9 c2 fd ff ff       	jmp    1041a <fdutimens+0x12a>
10658:	0f 1f 84 00 00 00 00 	nop    DWORD PTR [rax+rax*1+0x0]
1065f:	00
10660:	4c 89 e6             	mov    rsi,r12
10663:	bf 01 00 00 00       	mov    edi,0x1
10668:	e8 33 25 ff ff       	call   2ba0 <__xstat@plt>
1066d:	85 c0                	test   eax,eax
1066f:	0f 95 c0             	setne  al
10672:	e9 bd fe ff ff       	jmp    10534 <fdutimens+0x244>
10677:	66 0f 1f 84 00 00 00 	nop    WORD PTR [rax+rax*1+0x0]
1067e:	00 00
10680:	4c 89 e6             	mov    rsi,r12
10683:	bf 01 00 00 00       	mov    edi,0x1
10688:	e8 13 25 ff ff       	call   2ba0 <__xstat@plt>
1068d:	85 c0                	test   eax,eax
1068f:	0f 95 c0             	setne  al
10692:	e9 f7 fe ff ff       	jmp    1058e <fdutimens+0x29e>
10697:	66 0f 1f 84 00 00 00 	nop    WORD PTR [rax+rax*1+0x0]
1069e:	00 00
106a0:	31 c9                	xor    ecx,ecx
106a2:	48 89 f2             	mov    rdx,rsi
106a5:	bf 9c ff ff ff       	mov    edi,0xffffff9c
106aa:	4c 89 e6             	mov    rsi,r12
106ad:	e8 9e 20 ff ff       	call   2750 <utimensat@plt>
106b2:	83 f8 00             	cmp    eax,0x0
106b5:	89 c5                	mov    ebp,eax
106b7:	0f 8f d0 fc ff ff    	jg     1038d <fdutimens+0x9d>
106bd:	75 7c                	jne    1073b <fdutimens+0x44b>
106bf:	c7 05 43 a0 20 00 01 	mov    DWORD PTR [rip+0x20a043],0x1        # 21a70c <utimensat_works_really>
106c6:	00 00 00
106c9:	e9 39 ff ff ff       	jmp    10607 <fdutimens+0x317>
106ce:	66 90                	xchg   ax,ax
106d0:	48 8b 84 24 c0 00 00 	mov    rax,QWORD PTR [rsp+0xc0]
106d7:	00
106d8:	48 8b 94 24 b8 00 00 	mov    rdx,QWORD PTR [rsp+0xb8]
106df:	00
106e0:	41 bd 03 00 00 00    	mov    r13d,0x3
106e6:	48 89 16             	mov    QWORD PTR [rsi],rdx
106e9:	48 89 46 08          	mov    QWORD PTR [rsi+0x8],rax
106ed:	e9 81 fc ff ff       	jmp    10373 <fdutimens+0x83>
106f2:	66 0f 1f 44 00 00    	nop    WORD PTR [rax+rax*1+0x0]
106f8:	e8 73 20 ff ff       	call   2770 <__errno_location@plt>
106fd:	c7 00 09 00 00 00    	mov    DWORD PTR [rax],0x9
10703:	bd ff ff ff ff       	mov    ebp,0xffffffff
10708:	e9 fa fe ff ff       	jmp    10607 <fdutimens+0x317>
1070d:	0f 1f 00             	nop    DWORD PTR [rax]
10710:	45 84 f6             	test   r14b,r14b
10713:	0f 84 ec fd ff ff    	je     10505 <fdutimens+0x215>
10719:	48 83 bc 24 d0 00 00 	cmp    QWORD PTR [rsp+0xd0],0x0
10720:	00 00
10722:	0f 85 dd fd ff ff    	jne    10505 <fdutimens+0x215>
10728:	48 c7 44 24 68 00 00 	mov    QWORD PTR [rsp+0x68],0x0
1072f:	00 00
10731:	e9 c1 fd ff ff       	jmp    104f7 <fdutimens+0x207>
10736:	e8 f5 21 ff ff       	call   2930 <__stack_chk_fail@plt>
1073b:	e8 30 20 ff ff       	call   2770 <__errno_location@plt>
10740:	83 38 26             	cmp    DWORD PTR [rax],0x26
10743:	0f 85 76 ff ff ff    	jne    106bf <fdutimens+0x3cf>
10749:	e9 4a fc ff ff       	jmp    10398 <fdutimens+0xa8>
1074e:	66 90                	xchg   ax,ax

0000000000010750 <utimens>:
10750:	48 89 f2             	mov    rdx,rsi
10753:	48 89 fe             	mov    rsi,rdi
10756:	bf ff ff ff ff       	mov    edi,0xffffffff
1075b:	e9 90 fb ff ff       	jmp    102f0 <fdutimens>

0000000000010760 <lutimens>:
10760:	41 54                	push   r12
10762:	55                   	push   rbp
10763:	49 89 fc             	mov    r12,rdi
10766:	53                   	push   rbx
10767:	48 81 ec d0 00 00 00 	sub    rsp,0xd0
1076e:	64 48 8b 04 25 28 00 	mov    rax,QWORD PTR fs:0x28
10775:	00 00
10777:	48 89 84 24 c8 00 00 	mov    QWORD PTR [rsp+0xc8],rax
1077e:	00
1077f:	31 c0                	xor    eax,eax
10781:	48 85 f6             	test   rsi,rsi
10784:	0f 84 f6 00 00 00    	je     10880 <lutimens+0x120>
1078a:	f3 0f 6f 06          	movdqu xmm0,XMMWORD PTR [rsi]
1078e:	48 8d 7c 24 10       	lea    rdi,[rsp+0x10]
10793:	0f 29 44 24 10       	movaps XMMWORD PTR [rsp+0x10],xmm0
10798:	48 89 7c 24 08       	mov    QWORD PTR [rsp+0x8],rdi
1079d:	f3 0f 6f 46 10       	movdqu xmm0,XMMWORD PTR [rsi+0x10]
107a2:	0f 29 44 24 20       	movaps XMMWORD PTR [rsp+0x20],xmm0
107a7:	e8 84 fa ff ff       	call   10230 <validate_timespec>
107ac:	85 c0                	test   eax,eax
107ae:	89 c3                	mov    ebx,eax
107b0:	0f 88 0a 01 00 00    	js     108c0 <lutimens+0x160>
107b6:	8b 05 4c 9f 20 00    	mov    eax,DWORD PTR [rip+0x209f4c]        # 21a708 <lutimensat_works_really>
107bc:	85 c0                	test   eax,eax
107be:	78 36                	js     107f6 <lutimens+0x96>
107c0:	83 fb 02             	cmp    ebx,0x2
107c3:	0f 84 27 01 00 00    	je     108f0 <lutimens+0x190>
107c9:	48 8b 54 24 08       	mov    rdx,QWORD PTR [rsp+0x8]
107ce:	b9 00 01 00 00       	mov    ecx,0x100
107d3:	4c 89 e6             	mov    rsi,r12
107d6:	bf 9c ff ff ff       	mov    edi,0xffffff9c
107db:	e8 70 1f ff ff       	call   2750 <utimensat@plt>
107e0:	83 f8 00             	cmp    eax,0x0
107e3:	89 c5                	mov    ebp,eax
107e5:	0f 8e e5 00 00 00    	jle    108d0 <lutimens+0x170>
107eb:	e8 80 1f ff ff       	call   2770 <__errno_location@plt>
107f0:	c7 00 26 00 00 00    	mov    DWORD PTR [rax],0x26
107f6:	85 db                	test   ebx,ebx
107f8:	c7 05 06 9f 20 00 ff 	mov    DWORD PTR [rip+0x209f06],0xffffffff        # 21a708 <lutimensat_works_really>
107ff:	ff ff ff
10802:	0f 84 9d 00 00 00    	je     108a5 <lutimens+0x145>
10808:	83 fb 03             	cmp    ebx,0x3
1080b:	0f 85 37 01 00 00    	jne    10948 <lutimens+0x1e8>
10811:	48 83 7c 24 08 00    	cmp    QWORD PTR [rsp+0x8],0x0
10817:	74 17                	je     10830 <lutimens+0xd0>
10819:	48 8d 74 24 08       	lea    rsi,[rsp+0x8]
1081e:	48 8d 7c 24 30       	lea    rdi,[rsp+0x30]
10823:	31 ed                	xor    ebp,ebp
10825:	e8 26 f9 ff ff       	call   10150 <update_timespec>
1082a:	84 c0                	test   al,al
1082c:	75 2a                	jne    10858 <lutimens+0xf8>
1082e:	66 90                	xchg   ax,ax
10830:	8b 44 24 48          	mov    eax,DWORD PTR [rsp+0x48]
10834:	25 00 f0 00 00       	and    eax,0xf000
10839:	3d 00 a0 00 00       	cmp    eax,0xa000
1083e:	0f 84 52 01 00 00    	je     10996 <lutimens+0x236>
10844:	48 8b 54 24 08       	mov    rdx,QWORD PTR [rsp+0x8]
10849:	4c 89 e6             	mov    rsi,r12
1084c:	bf ff ff ff ff       	mov    edi,0xffffffff
10851:	e8 9a fa ff ff       	call   102f0 <fdutimens>
10856:	89 c5                	mov    ebp,eax
10858:	48 8b 8c 24 c8 00 00 	mov    rcx,QWORD PTR [rsp+0xc8]
1085f:	00
10860:	64 48 33 0c 25 28 00 	xor    rcx,QWORD PTR fs:0x28
10867:	00 00
10869:	89 e8                	mov    eax,ebp
1086b:	0f 85 35 01 00 00    	jne    109a6 <lutimens+0x246>
10871:	48 81 c4 d0 00 00 00 	add    rsp,0xd0
10878:	5b                   	pop    rbx
10879:	5d                   	pop    rbp
1087a:	41 5c                	pop    r12
1087c:	c3                   	ret
1087d:	0f 1f 00             	nop    DWORD PTR [rax]
10880:	8b 0d 82 9e 20 00    	mov    ecx,DWORD PTR [rip+0x209e82]        # 21a708 <lutimensat_works_really>
10886:	31 d2                	xor    edx,edx
10888:	31 db                	xor    ebx,ebx
1088a:	48 c7 44 24 08 00 00 	mov    QWORD PTR [rsp+0x8],0x0
10891:	00 00
10893:	85 c9                	test   ecx,ecx
10895:	0f 89 33 ff ff ff    	jns    107ce <lutimens+0x6e>
1089b:	c7 05 63 9e 20 00 ff 	mov    DWORD PTR [rip+0x209e63],0xffffffff        # 21a708 <lutimensat_works_really>
108a2:	ff ff ff
108a5:	48 8d 54 24 30       	lea    rdx,[rsp+0x30]
108aa:	4c 89 e6             	mov    rsi,r12
108ad:	bf 01 00 00 00       	mov    edi,0x1
108b2:	e8 59 20 ff ff       	call   2910 <__lxstat@plt>
108b7:	85 c0                	test   eax,eax
108b9:	0f 84 71 ff ff ff    	je     10830 <lutimens+0xd0>
108bf:	90                   	nop
108c0:	bd ff ff ff ff       	mov    ebp,0xffffffff
108c5:	eb 91                	jmp    10858 <lutimens+0xf8>
108c7:	66 0f 1f 84 00 00 00 	nop    WORD PTR [rax+rax*1+0x0]
108ce:	00 00
108d0:	0f 85 d5 00 00 00    	jne    109ab <lutimens+0x24b>
108d6:	c7 05 2c 9e 20 00 01 	mov    DWORD PTR [rip+0x209e2c],0x1        # 21a70c <utimensat_works_really>
108dd:	00 00 00
108e0:	c7 05 1e 9e 20 00 01 	mov    DWORD PTR [rip+0x209e1e],0x1        # 21a708 <lutimensat_works_really>
108e7:	00 00 00
108ea:	e9 69 ff ff ff       	jmp    10858 <lutimens+0xf8>
108ef:	90                   	nop
108f0:	48 8d 54 24 30       	lea    rdx,[rsp+0x30]
108f5:	4c 89 e6             	mov    rsi,r12
108f8:	bf 01 00 00 00       	mov    edi,0x1
108fd:	e8 0e 20 ff ff       	call   2910 <__lxstat@plt>
10902:	85 c0                	test   eax,eax
10904:	75 ba                	jne    108c0 <lutimens+0x160>
10906:	48 8b 54 24 08       	mov    rdx,QWORD PTR [rsp+0x8]
1090b:	48 81 7a 08 fe ff ff 	cmp    QWORD PTR [rdx+0x8],0x3ffffffe
10912:	3f
10913:	74 63                	je     10978 <lutimens+0x218>
10915:	48 81 7a 18 fe ff ff 	cmp    QWORD PTR [rdx+0x18],0x3ffffffe
1091c:	3f
1091d:	bb 03 00 00 00       	mov    ebx,0x3
10922:	0f 85 a6 fe ff ff    	jne    107ce <lutimens+0x6e>
10928:	48 8b 84 24 90 00 00 	mov    rax,QWORD PTR [rsp+0x90]
1092f:	00
10930:	48 8b 8c 24 88 00 00 	mov    rcx,QWORD PTR [rsp+0x88]
10937:	00
10938:	48 89 42 18          	mov    QWORD PTR [rdx+0x18],rax
1093c:	48 89 4a 10          	mov    QWORD PTR [rdx+0x10],rcx
10940:	e9 89 fe ff ff       	jmp    107ce <lutimens+0x6e>
10945:	0f 1f 00             	nop    DWORD PTR [rax]
10948:	48 8d 54 24 30       	lea    rdx,[rsp+0x30]
1094d:	4c 89 e6             	mov    rsi,r12
10950:	bf 01 00 00 00       	mov    edi,0x1
10955:	e8 b6 1f ff ff       	call   2910 <__lxstat@plt>
1095a:	85 c0                	test   eax,eax
1095c:	0f 85 5e ff ff ff    	jne    108c0 <lutimens+0x160>
10962:	48 83 7c 24 08 00    	cmp    QWORD PTR [rsp+0x8],0x0
10968:	0f 85 ab fe ff ff    	jne    10819 <lutimens+0xb9>
1096e:	e9 bd fe ff ff       	jmp    10830 <lutimens+0xd0>
10973:	0f 1f 44 00 00       	nop    DWORD PTR [rax+rax*1+0x0]
10978:	48 8b 84 24 80 00 00 	mov    rax,QWORD PTR [rsp+0x80]
1097f:	00
10980:	48 8b 4c 24 78       	mov    rcx,QWORD PTR [rsp+0x78]
10985:	bb 03 00 00 00       	mov    ebx,0x3
1098a:	48 89 0a             	mov    QWORD PTR [rdx],rcx
1098d:	48 89 42 08          	mov    QWORD PTR [rdx+0x8],rax
10991:	e9 38 fe ff ff       	jmp    107ce <lutimens+0x6e>
10996:	e8 d5 1d ff ff       	call   2770 <__errno_location@plt>
1099b:	c7 00 26 00 00 00    	mov    DWORD PTR [rax],0x26
109a1:	e9 1a ff ff ff       	jmp    108c0 <lutimens+0x160>
109a6:	e8 85 1f ff ff       	call   2930 <__stack_chk_fail@plt>
109ab:	e8 c0 1d ff ff       	call   2770 <__errno_location@plt>
109b0:	83 38 26             	cmp    DWORD PTR [rax],0x26
109b3:	0f 85 1d ff ff ff    	jne    108d6 <lutimens+0x176>
109b9:	e9 38 fe ff ff       	jmp    107f6 <lutimens+0x96>
109be:	66 90                	xchg   ax,ax

00000000000109c0 <version_etc_arn>:
109c0:	41 57                	push   r15
109c2:	41 56                	push   r14
109c4:	41 55                	push   r13
109c6:	41 54                	push   r12
109c8:	4d 89 cc             	mov    r12,r9
109cb:	55                   	push   rbp
109cc:	53                   	push   rbx
109cd:	48 89 fd             	mov    rbp,rdi
109d0:	4c 89 c3             	mov    rbx,r8
109d3:	48 83 ec 28          	sub    rsp,0x28
109d7:	48 85 f6             	test   rsi,rsi
109da:	0f 84 18 01 00 00    	je     10af8 <version_etc_arn+0x138>
109e0:	49 89 d0             	mov    r8,rdx
109e3:	48 8d 15 d5 4e 00 00 	lea    rdx,[rip+0x4ed5]        # 158bf <letters+0x3f>
109ea:	49 89 c9             	mov    r9,rcx
109ed:	31 c0                	xor    eax,eax
109ef:	48 89 f1             	mov    rcx,rsi
109f2:	be 01 00 00 00       	mov    esi,0x1
109f7:	e8 b4 23 ff ff       	call   2db0 <__fprintf_chk@plt>
109fc:	48 8d 35 cf 4e 00 00 	lea    rsi,[rip+0x4ecf]        # 158d2 <letters+0x52>
10a03:	31 ff                	xor    edi,edi
10a05:	ba 05 00 00 00       	mov    edx,0x5
10a0a:	e8 d1 1e ff ff       	call   28e0 <dcgettext@plt>
10a0f:	48 8d 15 ca 51 00 00 	lea    rdx,[rip+0x51ca]        # 15be0 <version_etc_copyright>
10a16:	48 89 c1             	mov    rcx,rax
10a19:	41 b8 e3 07 00 00    	mov    r8d,0x7e3
10a1f:	be 01 00 00 00       	mov    esi,0x1
10a24:	48 89 ef             	mov    rdi,rbp
10a27:	31 c0                	xor    eax,eax
10a29:	e8 82 23 ff ff       	call   2db0 <__fprintf_chk@plt>
10a2e:	48 8d 35 23 4f 00 00 	lea    rsi,[rip+0x4f23]        # 15958 <letters+0xd8>
10a35:	31 ff                	xor    edi,edi
10a37:	ba 05 00 00 00       	mov    edx,0x5
10a3c:	e8 9f 1e ff ff       	call   28e0 <dcgettext@plt>
10a41:	48 89 ee             	mov    rsi,rbp
10a44:	48 89 c7             	mov    rdi,rax
10a47:	e8 64 20 ff ff       	call   2ab0 <fputs_unlocked@plt>
10a4c:	49 83 fc 09          	cmp    r12,0x9
10a50:	0f 87 3a 03 00 00    	ja     10d90 <version_etc_arn+0x3d0>
10a56:	48 8d 15 5b 51 00 00 	lea    rdx,[rip+0x515b]        # 15bb8 <letters+0x338>
10a5d:	4a 63 04 a2          	movsxd rax,DWORD PTR [rdx+r12*4]
10a61:	48 01 d0             	add    rax,rdx
10a64:	ff e0                	jmp    rax
10a66:	66 2e 0f 1f 84 00 00 	nop    WORD PTR cs:[rax+rax*1+0x0]
10a6d:	00 00 00
10a70:	4c 8b 4b 38          	mov    r9,QWORD PTR [rbx+0x38]
10a74:	48 8b 43 10          	mov    rax,QWORD PTR [rbx+0x10]
10a78:	48 8d 35 49 50 00 00 	lea    rsi,[rip+0x5049]        # 15ac8 <letters+0x248>
10a7f:	4c 8b 43 08          	mov    r8,QWORD PTR [rbx+0x8]
10a83:	ba 05 00 00 00       	mov    edx,0x5
10a88:	31 ff                	xor    edi,edi
10a8a:	4c 8b 6b 30          	mov    r13,QWORD PTR [rbx+0x30]
10a8e:	4c 8b 63 28          	mov    r12,QWORD PTR [rbx+0x28]
10a92:	4c 89 4c 24 10       	mov    QWORD PTR [rsp+0x10],r9
10a97:	4c 8b 7b 20          	mov    r15,QWORD PTR [rbx+0x20]
10a9b:	4c 8b 73 18          	mov    r14,QWORD PTR [rbx+0x18]
10a9f:	48 89 04 24          	mov    QWORD PTR [rsp],rax
10aa3:	4c 89 44 24 08       	mov    QWORD PTR [rsp+0x8],r8
10aa8:	48 8b 1b             	mov    rbx,QWORD PTR [rbx]
10aab:	e8 30 1e ff ff       	call   28e0 <dcgettext@plt>
10ab0:	48 83 ec 08          	sub    rsp,0x8
10ab4:	4c 8b 4c 24 18       	mov    r9,QWORD PTR [rsp+0x18]
10ab9:	48 89 c2             	mov    rdx,rax
10abc:	48 89 d9             	mov    rcx,rbx
10abf:	be 01 00 00 00       	mov    esi,0x1
10ac4:	48 89 ef             	mov    rdi,rbp
10ac7:	31 c0                	xor    eax,eax
10ac9:	41 51                	push   r9
10acb:	41 55                	push   r13
10acd:	41 54                	push   r12
10acf:	41 57                	push   r15
10ad1:	41 56                	push   r14
10ad3:	4c 8b 4c 24 30       	mov    r9,QWORD PTR [rsp+0x30]
10ad8:	4c 8b 44 24 38       	mov    r8,QWORD PTR [rsp+0x38]
10add:	e8 ce 22 ff ff       	call   2db0 <__fprintf_chk@plt>
10ae2:	48 83 c4 30          	add    rsp,0x30
10ae6:	48 83 c4 28          	add    rsp,0x28
10aea:	5b                   	pop    rbx
10aeb:	5d                   	pop    rbp
10aec:	41 5c                	pop    r12
10aee:	41 5d                	pop    r13
10af0:	41 5e                	pop    r14
10af2:	41 5f                	pop    r15
10af4:	c3                   	ret
10af5:	0f 1f 00             	nop    DWORD PTR [rax]
10af8:	49 89 c8             	mov    r8,rcx
10afb:	48 89 d1             	mov    rcx,rdx
10afe:	48 8d 15 c6 4d 00 00 	lea    rdx,[rip+0x4dc6]        # 158cb <letters+0x4b>
10b05:	be 01 00 00 00       	mov    esi,0x1
10b0a:	31 c0                	xor    eax,eax
10b0c:	e8 9f 22 ff ff       	call   2db0 <__fprintf_chk@plt>
10b11:	e9 e6 fe ff ff       	jmp    109fc <version_etc_arn+0x3c>
10b16:	66 2e 0f 1f 84 00 00 	nop    WORD PTR cs:[rax+rax*1+0x0]
10b1d:	00 00 00
10b20:	4c 8b 53 40          	mov    r10,QWORD PTR [rbx+0x40]
10b24:	4c 8b 4b 38          	mov    r9,QWORD PTR [rbx+0x38]
10b28:	48 8d 35 c9 4f 00 00 	lea    rsi,[rip+0x4fc9]        # 15af8 <letters+0x278>
10b2f:	48 8b 43 10          	mov    rax,QWORD PTR [rbx+0x10]
10b33:	4c 8b 43 08          	mov    r8,QWORD PTR [rbx+0x8]
10b37:	ba 05 00 00 00       	mov    edx,0x5
10b3c:	4c 8b 6b 30          	mov    r13,QWORD PTR [rbx+0x30]
10b40:	4c 8b 63 28          	mov    r12,QWORD PTR [rbx+0x28]
10b44:	4c 8b 7b 20          	mov    r15,QWORD PTR [rbx+0x20]
10b48:	4c 8b 73 18          	mov    r14,QWORD PTR [rbx+0x18]
10b4c:	48 8b 1b             	mov    rbx,QWORD PTR [rbx]
10b4f:	4c 89 54 24 18       	mov    QWORD PTR [rsp+0x18],r10
10b54:	4c 89 4c 24 10       	mov    QWORD PTR [rsp+0x10],r9
10b59:	48 89 04 24          	mov    QWORD PTR [rsp],rax
10b5d:	4c 89 44 24 08       	mov    QWORD PTR [rsp+0x8],r8
10b62:	31 ff                	xor    edi,edi
10b64:	e8 77 1d ff ff       	call   28e0 <dcgettext@plt>
10b69:	4c 8b 54 24 18       	mov    r10,QWORD PTR [rsp+0x18]
10b6e:	41 52                	push   r10
10b70:	e9 3f ff ff ff       	jmp    10ab4 <version_etc_arn+0xf4>
10b75:	0f 1f 00             	nop    DWORD PTR [rax]
10b78:	48 8b 1b             	mov    rbx,QWORD PTR [rbx]
10b7b:	48 8d 35 54 4d 00 00 	lea    rsi,[rip+0x4d54]        # 158d6 <letters+0x56>
10b82:	ba 05 00 00 00       	mov    edx,0x5
10b87:	31 ff                	xor    edi,edi
10b89:	e8 52 1d ff ff       	call   28e0 <dcgettext@plt>
10b8e:	48 83 c4 28          	add    rsp,0x28
10b92:	48 89 d9             	mov    rcx,rbx
10b95:	48 89 ef             	mov    rdi,rbp
10b98:	5b                   	pop    rbx
10b99:	5d                   	pop    rbp
10b9a:	41 5c                	pop    r12
10b9c:	41 5d                	pop    r13
10b9e:	41 5e                	pop    r14
10ba0:	41 5f                	pop    r15
10ba2:	48 89 c2             	mov    rdx,rax
10ba5:	be 01 00 00 00       	mov    esi,0x1
10baa:	31 c0                	xor    eax,eax
10bac:	e9 ff 21 ff ff       	jmp    2db0 <__fprintf_chk@plt>
10bb1:	0f 1f 80 00 00 00 00 	nop    DWORD PTR [rax+0x0]
10bb8:	4c 8b 63 08          	mov    r12,QWORD PTR [rbx+0x8]
10bbc:	48 8d 35 23 4d 00 00 	lea    rsi,[rip+0x4d23]        # 158e6 <letters+0x66>
10bc3:	48 8b 1b             	mov    rbx,QWORD PTR [rbx]
10bc6:	ba 05 00 00 00       	mov    edx,0x5
10bcb:	31 ff                	xor    edi,edi
10bcd:	e8 0e 1d ff ff       	call   28e0 <dcgettext@plt>
10bd2:	48 83 c4 28          	add    rsp,0x28
10bd6:	4d 89 e0             	mov    r8,r12
10bd9:	48 89 d9             	mov    rcx,rbx
10bdc:	48 89 ef             	mov    rdi,rbp
10bdf:	48 89 c2             	mov    rdx,rax
10be2:	be 01 00 00 00       	mov    esi,0x1
10be7:	5b                   	pop    rbx
10be8:	5d                   	pop    rbp
10be9:	41 5c                	pop    r12
10beb:	41 5d                	pop    r13
10bed:	41 5e                	pop    r14
10bef:	41 5f                	pop    r15
10bf1:	31 c0                	xor    eax,eax
10bf3:	e9 b8 21 ff ff       	jmp    2db0 <__fprintf_chk@plt>
10bf8:	0f 1f 84 00 00 00 00 	nop    DWORD PTR [rax+rax*1+0x0]
10bff:	00
10c00:	4c 8b 6b 10          	mov    r13,QWORD PTR [rbx+0x10]
10c04:	4c 8b 63 08          	mov    r12,QWORD PTR [rbx+0x8]
10c08:	48 8d 35 ee 4c 00 00 	lea    rsi,[rip+0x4cee]        # 158fd <letters+0x7d>
10c0f:	48 8b 1b             	mov    rbx,QWORD PTR [rbx]
10c12:	ba 05 00 00 00       	mov    edx,0x5
10c17:	31 ff                	xor    edi,edi
10c19:	e8 c2 1c ff ff       	call   28e0 <dcgettext@plt>
10c1e:	48 83 c4 28          	add    rsp,0x28
10c22:	4d 89 e9             	mov    r9,r13
10c25:	4d 89 e0             	mov    r8,r12
10c28:	48 89 d9             	mov    rcx,rbx
10c2b:	48 89 ef             	mov    rdi,rbp
10c2e:	48 89 c2             	mov    rdx,rax
10c31:	5b                   	pop    rbx
10c32:	5d                   	pop    rbp
10c33:	41 5c                	pop    r12
10c35:	41 5d                	pop    r13
10c37:	41 5e                	pop    r14
10c39:	41 5f                	pop    r15
10c3b:	be 01 00 00 00       	mov    esi,0x1
10c40:	31 c0                	xor    eax,eax
10c42:	e9 69 21 ff ff       	jmp    2db0 <__fprintf_chk@plt>
10c47:	66 0f 1f 84 00 00 00 	nop    WORD PTR [rax+rax*1+0x0]
10c4e:	00 00
10c50:	48 8d 35 d1 4d 00 00 	lea    rsi,[rip+0x4dd1]        # 15a28 <letters+0x1a8>
10c57:	ba 05 00 00 00       	mov    edx,0x5
10c5c:	31 ff                	xor    edi,edi
10c5e:	4c 8b 73 18          	mov    r14,QWORD PTR [rbx+0x18]
10c62:	4c 8b 6b 10          	mov    r13,QWORD PTR [rbx+0x10]
10c66:	4c 8b 63 08          	mov    r12,QWORD PTR [rbx+0x8]
10c6a:	48 8b 1b             	mov    rbx,QWORD PTR [rbx]
10c6d:	e8 6e 1c ff ff       	call   28e0 <dcgettext@plt>
10c72:	48 83 ec 08          	sub    rsp,0x8
10c76:	41 56                	push   r14
10c78:	48 89 c2             	mov    rdx,rax
10c7b:	4d 89 e9             	mov    r9,r13
10c7e:	4d 89 e0             	mov    r8,r12
10c81:	48 89 d9             	mov    rcx,rbx
10c84:	48 89 ef             	mov    rdi,rbp
10c87:	be 01 00 00 00       	mov    esi,0x1
10c8c:	31 c0                	xor    eax,eax
10c8e:	e8 1d 21 ff ff       	call   2db0 <__fprintf_chk@plt>
10c93:	58                   	pop    rax
10c94:	5a                   	pop    rdx
10c95:	48 83 c4 28          	add    rsp,0x28
10c99:	5b                   	pop    rbx
10c9a:	5d                   	pop    rbp
10c9b:	41 5c                	pop    r12
10c9d:	41 5d                	pop    r13
10c9f:	41 5e                	pop    r14
10ca1:	41 5f                	pop    r15
10ca3:	c3                   	ret
10ca4:	0f 1f 40 00          	nop    DWORD PTR [rax+0x0]
10ca8:	4c 8b 7b 20          	mov    r15,QWORD PTR [rbx+0x20]
10cac:	48 8d 35 95 4d 00 00 	lea    rsi,[rip+0x4d95]        # 15a48 <letters+0x1c8>
10cb3:	ba 05 00 00 00       	mov    edx,0x5
10cb8:	31 ff                	xor    edi,edi
10cba:	4c 8b 73 18          	mov    r14,QWORD PTR [rbx+0x18]
10cbe:	4c 8b 6b 10          	mov    r13,QWORD PTR [rbx+0x10]
10cc2:	4c 8b 63 08          	mov    r12,QWORD PTR [rbx+0x8]
10cc6:	48 8b 1b             	mov    rbx,QWORD PTR [rbx]
10cc9:	e8 12 1c ff ff       	call   28e0 <dcgettext@plt>
10cce:	41 57                	push   r15
10cd0:	eb a4                	jmp    10c76 <version_etc_arn+0x2b6>
10cd2:	66 0f 1f 44 00 00    	nop    WORD PTR [rax+rax*1+0x0]
10cd8:	4c 8b 43 08          	mov    r8,QWORD PTR [rbx+0x8]
10cdc:	4c 8b 63 28          	mov    r12,QWORD PTR [rbx+0x28]
10ce0:	48 8d 35 89 4d 00 00 	lea    rsi,[rip+0x4d89]        # 15a70 <letters+0x1f0>
10ce7:	4c 8b 7b 20          	mov    r15,QWORD PTR [rbx+0x20]
10ceb:	4c 8b 73 18          	mov    r14,QWORD PTR [rbx+0x18]
10cef:	ba 05 00 00 00       	mov    edx,0x5
10cf4:	4c 8b 6b 10          	mov    r13,QWORD PTR [rbx+0x10]
10cf8:	31 ff                	xor    edi,edi
10cfa:	48 8b 1b             	mov    rbx,QWORD PTR [rbx]
10cfd:	4c 89 04 24          	mov    QWORD PTR [rsp],r8
10d01:	e8 da 1b ff ff       	call   28e0 <dcgettext@plt>
10d06:	48 83 ec 08          	sub    rsp,0x8
10d0a:	4d 89 e9             	mov    r9,r13
10d0d:	41 54                	push   r12
10d0f:	41 57                	push   r15
10d11:	41 56                	push   r14
10d13:	4c 8b 44 24 20       	mov    r8,QWORD PTR [rsp+0x20]
10d18:	48 89 d9             	mov    rcx,rbx
10d1b:	48 89 c2             	mov    rdx,rax
10d1e:	48 89 ef             	mov    rdi,rbp
10d21:	be 01 00 00 00       	mov    esi,0x1
10d26:	31 c0                	xor    eax,eax
10d28:	e8 83 20 ff ff       	call   2db0 <__fprintf_chk@plt>
10d2d:	48 83 c4 20          	add    rsp,0x20
10d31:	48 83 c4 28          	add    rsp,0x28
10d35:	5b                   	pop    rbx
10d36:	5d                   	pop    rbp
10d37:	41 5c                	pop    r12
10d39:	41 5d                	pop    r13
10d3b:	41 5e                	pop    r14
10d3d:	41 5f                	pop    r15
10d3f:	c3                   	ret
10d40:	4c 8b 4b 10          	mov    r9,QWORD PTR [rbx+0x10]
10d44:	4c 8b 6b 30          	mov    r13,QWORD PTR [rbx+0x30]
10d48:	48 8d 35 49 4d 00 00 	lea    rsi,[rip+0x4d49]        # 15a98 <letters+0x218>
10d4f:	4c 8b 63 28          	mov    r12,QWORD PTR [rbx+0x28]
10d53:	4c 8b 7b 20          	mov    r15,QWORD PTR [rbx+0x20]
10d57:	ba 05 00 00 00       	mov    edx,0x5
10d5c:	4c 8b 73 18          	mov    r14,QWORD PTR [rbx+0x18]
10d60:	4c 8b 43 08          	mov    r8,QWORD PTR [rbx+0x8]
10d64:	31 ff                	xor    edi,edi
10d66:	4c 89 4c 24 08       	mov    QWORD PTR [rsp+0x8],r9
10d6b:	48 8b 1b             	mov    rbx,QWORD PTR [rbx]
10d6e:	4c 89 04 24          	mov    QWORD PTR [rsp],r8
10d72:	e8 69 1b ff ff       	call   28e0 <dcgettext@plt>
10d77:	41 55                	push   r13
10d79:	41 54                	push   r12
10d7b:	41 57                	push   r15
10d7d:	41 56                	push   r14
10d7f:	4c 8b 4c 24 28       	mov    r9,QWORD PTR [rsp+0x28]
10d84:	eb 8d                	jmp    10d13 <version_etc_arn+0x353>
10d86:	66 2e 0f 1f 84 00 00 	nop    WORD PTR cs:[rax+rax*1+0x0]
10d8d:	00 00 00
10d90:	4c 8b 53 40          	mov    r10,QWORD PTR [rbx+0x40]
10d94:	4c 8b 4b 38          	mov    r9,QWORD PTR [rbx+0x38]
10d98:	ba 05 00 00 00       	mov    edx,0x5
10d9d:	48 8b 43 10          	mov    rax,QWORD PTR [rbx+0x10]
10da1:	4c 8b 43 08          	mov    r8,QWORD PTR [rbx+0x8]
10da5:	48 8d 35 84 4d 00 00 	lea    rsi,[rip+0x4d84]        # 15b30 <letters+0x2b0>
10dac:	4c 8b 6b 30          	mov    r13,QWORD PTR [rbx+0x30]
10db0:	4c 8b 63 28          	mov    r12,QWORD PTR [rbx+0x28]
10db4:	4c 8b 7b 20          	mov    r15,QWORD PTR [rbx+0x20]
10db8:	4c 8b 73 18          	mov    r14,QWORD PTR [rbx+0x18]
10dbc:	4c 89 54 24 18       	mov    QWORD PTR [rsp+0x18],r10
10dc1:	4c 89 4c 24 10       	mov    QWORD PTR [rsp+0x10],r9
10dc6:	48 89 04 24          	mov    QWORD PTR [rsp],rax
10dca:	4c 89 44 24 08       	mov    QWORD PTR [rsp+0x8],r8
10dcf:	48 8b 1b             	mov    rbx,QWORD PTR [rbx]
10dd2:	e9 8b fd ff ff       	jmp    10b62 <version_etc_arn+0x1a2>
10dd7:	66 0f 1f 84 00 00 00 	nop    WORD PTR [rax+rax*1+0x0]
10dde:	00 00

0000000000010de0 <version_etc_ar>:
10de0:	45 31 c9             	xor    r9d,r9d
10de3:	49 83 38 00          	cmp    QWORD PTR [r8],0x0
10de7:	74 12                	je     10dfb <version_etc_ar+0x1b>
10de9:	0f 1f 80 00 00 00 00 	nop    DWORD PTR [rax+0x0]
10df0:	49 83 c1 01          	add    r9,0x1
10df4:	4b 83 3c c8 00       	cmp    QWORD PTR [r8+r9*8],0x0
10df9:	75 f5                	jne    10df0 <version_etc_ar+0x10>
10dfb:	e9 c0 fb ff ff       	jmp    109c0 <version_etc_arn>

0000000000010e00 <version_etc_va>:
10e00:	48 83 ec 68          	sub    rsp,0x68
10e04:	4d 89 c2             	mov    r10,r8
10e07:	45 31 c9             	xor    r9d,r9d
10e0a:	64 48 8b 04 25 28 00 	mov    rax,QWORD PTR fs:0x28
10e11:	00 00
10e13:	48 89 44 24 58       	mov    QWORD PTR [rsp+0x58],rax
10e18:	31 c0                	xor    eax,eax
10e1a:	49 89 e0             	mov    r8,rsp
10e1d:	0f 1f 00             	nop    DWORD PTR [rax]
10e20:	41 8b 02             	mov    eax,DWORD PTR [r10]
10e23:	83 f8 2f             	cmp    eax,0x2f
10e26:	77 42                	ja     10e6a <version_etc_va+0x6a>
10e28:	41 89 c3             	mov    r11d,eax
10e2b:	4d 03 5a 10          	add    r11,QWORD PTR [r10+0x10]
10e2f:	83 c0 08             	add    eax,0x8
10e32:	41 89 02             	mov    DWORD PTR [r10],eax
10e35:	49 8b 03             	mov    rax,QWORD PTR [r11]
10e38:	48 85 c0             	test   rax,rax
10e3b:	4b 89 04 c8          	mov    QWORD PTR [r8+r9*8],rax
10e3f:	74 0a                	je     10e4b <version_etc_va+0x4b>
10e41:	49 83 c1 01          	add    r9,0x1
10e45:	49 83 f9 0a          	cmp    r9,0xa
10e49:	75 d5                	jne    10e20 <version_etc_va+0x20>
10e4b:	e8 70 fb ff ff       	call   109c0 <version_etc_arn>
10e50:	48 8b 44 24 58       	mov    rax,QWORD PTR [rsp+0x58]
10e55:	64 48 33 04 25 28 00 	xor    rax,QWORD PTR fs:0x28
10e5c:	00 00
10e5e:	75 05                	jne    10e65 <version_etc_va+0x65>
10e60:	48 83 c4 68          	add    rsp,0x68
10e64:	c3                   	ret
10e65:	e8 c6 1a ff ff       	call   2930 <__stack_chk_fail@plt>
10e6a:	4d 8b 5a 08          	mov    r11,QWORD PTR [r10+0x8]
10e6e:	49 8d 43 08          	lea    rax,[r11+0x8]
10e72:	49 89 42 08          	mov    QWORD PTR [r10+0x8],rax
10e76:	eb bd                	jmp    10e35 <version_etc_va+0x35>
10e78:	0f 1f 84 00 00 00 00 	nop    DWORD PTR [rax+rax*1+0x0]
10e7f:	00

0000000000010e80 <version_etc>:
10e80:	55                   	push   rbp
10e81:	53                   	push   rbx
10e82:	41 ba 20 00 00 00    	mov    r10d,0x20
10e88:	45 31 db             	xor    r11d,r11d
10e8b:	48 81 ec b8 00 00 00 	sub    rsp,0xb8
10e92:	64 48 8b 04 25 28 00 	mov    rax,QWORD PTR fs:0x28
10e99:	00 00
10e9b:	48 89 44 24 78       	mov    QWORD PTR [rsp+0x78],rax
10ea0:	31 c0                	xor    eax,eax
10ea2:	48 8d 84 24 d0 00 00 	lea    rax,[rsp+0xd0]
10ea9:	00
10eaa:	4c 89 84 24 a0 00 00 	mov    QWORD PTR [rsp+0xa0],r8
10eb1:	00
10eb2:	48 8d 9c 24 d0 00 00 	lea    rbx,[rsp+0xd0]
10eb9:	00
10eba:	4c 8d 44 24 20       	lea    r8,[rsp+0x20]
10ebf:	4c 89 8c 24 a8 00 00 	mov    QWORD PTR [rsp+0xa8],r9
10ec6:	00
10ec7:	c7 44 24 08 20 00 00 	mov    DWORD PTR [rsp+0x8],0x20
10ece:	00
10ecf:	48 89 44 24 10       	mov    QWORD PTR [rsp+0x10],rax
10ed4:	48 8d 84 24 80 00 00 	lea    rax,[rsp+0x80]
10edb:	00
10edc:	45 31 c9             	xor    r9d,r9d
10edf:	48 89 44 24 18       	mov    QWORD PTR [rsp+0x18],rax
10ee4:	48 89 c5             	mov    rbp,rax
10ee7:	66 0f 1f 84 00 00 00 	nop    WORD PTR [rax+rax*1+0x0]
10eee:	00 00
10ef0:	41 83 fa 2f          	cmp    r10d,0x2f
10ef4:	77 56                	ja     10f4c <version_etc+0xcc>
10ef6:	44 89 d0             	mov    eax,r10d
10ef9:	41 bb 01 00 00 00    	mov    r11d,0x1
10eff:	41 83 c2 08          	add    r10d,0x8
10f03:	48 01 e8             	add    rax,rbp
10f06:	48 8b 00             	mov    rax,QWORD PTR [rax]
10f09:	48 85 c0             	test   rax,rax
10f0c:	4b 89 04 c8          	mov    QWORD PTR [r8+r9*8],rax
10f10:	74 0a                	je     10f1c <version_etc+0x9c>
10f12:	49 83 c1 01          	add    r9,0x1
10f16:	49 83 f9 0a          	cmp    r9,0xa
10f1a:	75 d4                	jne    10ef0 <version_etc+0x70>
10f1c:	45 84 db             	test   r11b,r11b
10f1f:	75 24                	jne    10f45 <version_etc+0xc5>
10f21:	e8 9a fa ff ff       	call   109c0 <version_etc_arn>
10f26:	48 8b 44 24 78       	mov    rax,QWORD PTR [rsp+0x78]
10f2b:	64 48 33 04 25 28 00 	xor    rax,QWORD PTR fs:0x28
10f32:	00 00
10f34:	75 0a                	jne    10f40 <version_etc+0xc0>
10f36:	48 81 c4 b8 00 00 00 	add    rsp,0xb8
10f3d:	5b                   	pop    rbx
10f3e:	5d                   	pop    rbp
10f3f:	c3                   	ret
10f40:	e8 eb 19 ff ff       	call   2930 <__stack_chk_fail@plt>
10f45:	44 89 54 24 08       	mov    DWORD PTR [rsp+0x8],r10d
10f4a:	eb d5                	jmp    10f21 <version_etc+0xa1>
10f4c:	48 89 d8             	mov    rax,rbx
10f4f:	48 83 c3 08          	add    rbx,0x8
10f53:	eb b1                	jmp    10f06 <version_etc+0x86>
10f55:	90                   	nop
10f56:	66 2e 0f 1f 84 00 00 	nop    WORD PTR cs:[rax+rax*1+0x0]
10f5d:	00 00 00

0000000000010f60 <emit_bug_reporting_address>:
10f60:	53                   	push   rbx
10f61:	48 8d 35 b1 49 00 00 	lea    rsi,[rip+0x49b1]        # 15919 <letters+0x99>
10f68:	ba 05 00 00 00       	mov    edx,0x5
10f6d:	31 ff                	xor    edi,edi
10f6f:	e8 6c 19 ff ff       	call   28e0 <dcgettext@plt>
10f74:	48 8d 15 b3 49 00 00 	lea    rdx,[rip+0x49b3]        # 1592e <letters+0xae>
10f7b:	48 89 c6             	mov    rsi,rax
10f7e:	bf 01 00 00 00       	mov    edi,0x1
10f83:	31 c0                	xor    eax,eax
10f85:	e8 d6 1c ff ff       	call   2c60 <__printf_chk@plt>
10f8a:	48 8d 35 b3 49 00 00 	lea    rsi,[rip+0x49b3]        # 15944 <letters+0xc4>
10f91:	ba 05 00 00 00       	mov    edx,0x5
10f96:	31 ff                	xor    edi,edi
10f98:	e8 43 19 ff ff       	call   28e0 <dcgettext@plt>
10f9d:	48 8d 0d 44 34 00 00 	lea    rcx,[rip+0x3444]        # 143e8 <sparse_type+0x1368>
10fa4:	48 8d 15 13 1a 00 00 	lea    rdx,[rip+0x1a13]        # 129be <_IO_stdin_used+0xde>
10fab:	48 89 c6             	mov    rsi,rax
10fae:	bf 01 00 00 00       	mov    edi,0x1
10fb3:	31 c0                	xor    eax,eax
10fb5:	e8 a6 1c ff ff       	call   2c60 <__printf_chk@plt>
10fba:	48 8b 1d e7 90 20 00 	mov    rbx,QWORD PTR [rip+0x2090e7]        # 21a0a8 <stdout@@GLIBC_2.2.5>
10fc1:	48 8d 35 a8 4b 00 00 	lea    rsi,[rip+0x4ba8]        # 15b70 <letters+0x2f0>
10fc8:	31 ff                	xor    edi,edi
10fca:	ba 05 00 00 00       	mov    edx,0x5
10fcf:	e8 0c 19 ff ff       	call   28e0 <dcgettext@plt>
10fd4:	48 89 de             	mov    rsi,rbx
10fd7:	48 89 c7             	mov    rdi,rax
10fda:	5b                   	pop    rbx
10fdb:	e9 d0 1a ff ff       	jmp    2ab0 <fputs_unlocked@plt>

0000000000010fe0 <can_write_any_file>:
10fe0:	80 3d 2a 97 20 00 00 	cmp    BYTE PTR [rip+0x20972a],0x0        # 21a711 <initialized.3064>
10fe7:	74 0f                	je     10ff8 <can_write_any_file+0x18>
10fe9:	0f b6 05 20 97 20 00 	movzx  eax,BYTE PTR [rip+0x209720]        # 21a710 <can_write.3065>
10ff0:	c3                   	ret
10ff1:	0f 1f 80 00 00 00 00 	nop    DWORD PTR [rax+0x0]
10ff8:	48 83 ec 08          	sub    rsp,0x8
10ffc:	e8 ff 19 ff ff       	call   2a00 <geteuid@plt>
11001:	85 c0                	test   eax,eax
11003:	c6 05 07 97 20 00 01 	mov    BYTE PTR [rip+0x209707],0x1        # 21a711 <initialized.3064>
1100a:	0f 94 c0             	sete   al
1100d:	88 05 fd 96 20 00    	mov    BYTE PTR [rip+0x2096fd],al        # 21a710 <can_write.3065>
11013:	48 83 c4 08          	add    rsp,0x8
11017:	c3                   	ret
11018:	0f 1f 84 00 00 00 00 	nop    DWORD PTR [rax+rax*1+0x0]
1101f:	00

0000000000011020 <xmalloc>:
11020:	53                   	push   rbx
11021:	48 89 fb             	mov    rbx,rdi
11024:	e8 97 1b ff ff       	call   2bc0 <malloc@plt>
11029:	48 85 c0             	test   rax,rax
1102c:	75 05                	jne    11033 <xmalloc+0x13>
1102e:	48 85 db             	test   rbx,rbx
11031:	75 02                	jne    11035 <xmalloc+0x15>
11033:	5b                   	pop    rbx
11034:	c3                   	ret
11035:	e8 36 02 00 00       	call   11270 <xalloc_die>
1103a:	66 0f 1f 44 00 00    	nop    WORD PTR [rax+rax*1+0x0]

0000000000011040 <xnmalloc>:
11040:	48 89 f8             	mov    rax,rdi
11043:	48 f7 e6             	mul    rsi
11046:	48 89 c7             	mov    rdi,rax
11049:	0f 90 c0             	seto   al
1104c:	48 85 ff             	test   rdi,rdi
1104f:	78 0a                	js     1105b <xnmalloc+0x1b>
11051:	0f b6 c0             	movzx  eax,al
11054:	48 85 c0             	test   rax,rax
11057:	75 02                	jne    1105b <xnmalloc+0x1b>
11059:	eb c5                	jmp    11020 <xmalloc>
1105b:	48 83 ec 08          	sub    rsp,0x8
1105f:	e8 0c 02 00 00       	call   11270 <xalloc_die>
11064:	66 90                	xchg   ax,ax
11066:	66 2e 0f 1f 84 00 00 	nop    WORD PTR cs:[rax+rax*1+0x0]
1106d:	00 00 00

0000000000011070 <xcharalloc>:
11070:	eb ae                	jmp    11020 <xmalloc>
11072:	0f 1f 40 00          	nop    DWORD PTR [rax+0x0]
11076:	66 2e 0f 1f 84 00 00 	nop    WORD PTR cs:[rax+rax*1+0x0]
1107d:	00 00 00

0000000000011080 <xrealloc>:
11080:	48 85 f6             	test   rsi,rsi
11083:	53                   	push   rbx
11084:	48 89 f3             	mov    rbx,rsi
11087:	75 05                	jne    1108e <xrealloc+0xe>
11089:	48 85 ff             	test   rdi,rdi
1108c:	75 1a                	jne    110a8 <xrealloc+0x28>
1108e:	48 89 de             	mov    rsi,rbx
11091:	e8 8a 1b ff ff       	call   2c20 <realloc@plt>
11096:	48 85 c0             	test   rax,rax
11099:	75 05                	jne    110a0 <xrealloc+0x20>
1109b:	48 85 db             	test   rbx,rbx
1109e:	75 11                	jne    110b1 <xrealloc+0x31>
110a0:	5b                   	pop    rbx
110a1:	c3                   	ret
110a2:	66 0f 1f 44 00 00    	nop    WORD PTR [rax+rax*1+0x0]
110a8:	e8 63 1d ff ff       	call   2e10 <free@plt>
110ad:	31 c0                	xor    eax,eax
110af:	5b                   	pop    rbx
110b0:	c3                   	ret
110b1:	e8 ba 01 00 00       	call   11270 <xalloc_die>
110b6:	66 2e 0f 1f 84 00 00 	nop    WORD PTR cs:[rax+rax*1+0x0]
110bd:	00 00 00

00000000000110c0 <xnrealloc>:
110c0:	48 89 f0             	mov    rax,rsi
110c3:	48 f7 e2             	mul    rdx
110c6:	48 89 c6             	mov    rsi,rax
110c9:	0f 90 c0             	seto   al
110cc:	48 85 f6             	test   rsi,rsi
110cf:	78 0a                	js     110db <xnrealloc+0x1b>
110d1:	0f b6 c0             	movzx  eax,al
110d4:	48 85 c0             	test   rax,rax
110d7:	75 02                	jne    110db <xnrealloc+0x1b>
110d9:	eb a5                	jmp    11080 <xrealloc>
110db:	48 83 ec 08          	sub    rsp,0x8
110df:	e8 8c 01 00 00       	call   11270 <xalloc_die>
110e4:	66 90                	xchg   ax,ax
110e6:	66 2e 0f 1f 84 00 00 	nop    WORD PTR cs:[rax+rax*1+0x0]
110ed:	00 00 00

00000000000110f0 <x2nrealloc>:
110f0:	48 85 ff             	test   rdi,rdi
110f3:	49 89 d1             	mov    r9,rdx
110f6:	48 8b 0e             	mov    rcx,QWORD PTR [rsi]
110f9:	74 35                	je     11130 <x2nrealloc+0x40>
110fb:	31 d2                	xor    edx,edx
110fd:	48 b8 54 55 55 55 55 	movabs rax,0x5555555555555554
11104:	55 55 55
11107:	49 f7 f1             	div    r9
1110a:	48 39 c8             	cmp    rax,rcx
1110d:	76 3c                	jbe    1114b <x2nrealloc+0x5b>
1110f:	48 89 c8             	mov    rax,rcx
11112:	48 d1 e8             	shr    rax,1
11115:	48 8d 4c 08 01       	lea    rcx,[rax+rcx*1+0x1]
1111a:	48 89 0e             	mov    QWORD PTR [rsi],rcx
1111d:	49 0f af c9          	imul   rcx,r9
11121:	48 89 ce             	mov    rsi,rcx
11124:	e9 57 ff ff ff       	jmp    11080 <xrealloc>
11129:	0f 1f 80 00 00 00 00 	nop    DWORD PTR [rax+0x0]
11130:	48 85 c9             	test   rcx,rcx
11133:	74 23                	je     11158 <x2nrealloc+0x68>
11135:	48 89 c8             	mov    rax,rcx
11138:	49 f7 e1             	mul    r9
1113b:	0f 90 c2             	seto   dl
1113e:	48 85 c0             	test   rax,rax
11141:	0f b6 d2             	movzx  edx,dl
11144:	78 05                	js     1114b <x2nrealloc+0x5b>
11146:	48 85 d2             	test   rdx,rdx
11149:	74 cf                	je     1111a <x2nrealloc+0x2a>
1114b:	48 83 ec 08          	sub    rsp,0x8
1114f:	e8 1c 01 00 00       	call   11270 <xalloc_die>
11154:	0f 1f 40 00          	nop    DWORD PTR [rax+0x0]
11158:	31 d2                	xor    edx,edx
1115a:	b8 80 00 00 00       	mov    eax,0x80
1115f:	45 31 c0             	xor    r8d,r8d
11162:	49 f7 f1             	div    r9
11165:	48 85 c0             	test   rax,rax
11168:	41 0f 94 c0          	sete   r8b
1116c:	49 8d 0c 00          	lea    rcx,[r8+rax*1]
11170:	eb c3                	jmp    11135 <x2nrealloc+0x45>
11172:	0f 1f 40 00          	nop    DWORD PTR [rax+0x0]
11176:	66 2e 0f 1f 84 00 00 	nop    WORD PTR cs:[rax+rax*1+0x0]
1117d:	00 00 00

0000000000011180 <x2realloc>:
11180:	48 85 ff             	test   rdi,rdi
11183:	48 8b 06             	mov    rax,QWORD PTR [rsi]
11186:	74 28                	je     111b0 <x2realloc+0x30>
11188:	48 ba 53 55 55 55 55 	movabs rdx,0x5555555555555553
1118f:	55 55 55
11192:	48 39 d0             	cmp    rax,rdx
11195:	77 2a                	ja     111c1 <x2realloc+0x41>
11197:	48 89 c2             	mov    rdx,rax
1119a:	48 d1 ea             	shr    rdx,1
1119d:	48 8d 44 02 01       	lea    rax,[rdx+rax*1+0x1]
111a2:	48 89 06             	mov    QWORD PTR [rsi],rax
111a5:	48 89 c6             	mov    rsi,rax
111a8:	e9 d3 fe ff ff       	jmp    11080 <xrealloc>
111ad:	0f 1f 00             	nop    DWORD PTR [rax]
111b0:	48 85 c0             	test   rax,rax
111b3:	ba 80 00 00 00       	mov    edx,0x80
111b8:	48 0f 44 c2          	cmove  rax,rdx
111bc:	48 85 c0             	test   rax,rax
111bf:	79 e1                	jns    111a2 <x2realloc+0x22>
111c1:	48 83 ec 08          	sub    rsp,0x8
111c5:	e8 a6 00 00 00       	call   11270 <xalloc_die>
111ca:	66 0f 1f 44 00 00    	nop    WORD PTR [rax+rax*1+0x0]

00000000000111d0 <xzalloc>:
111d0:	53                   	push   rbx
111d1:	48 89 fb             	mov    rbx,rdi
111d4:	e8 47 fe ff ff       	call   11020 <xmalloc>
111d9:	48 89 da             	mov    rdx,rbx
111dc:	31 f6                	xor    esi,esi
111de:	48 89 c7             	mov    rdi,rax
111e1:	5b                   	pop    rbx
111e2:	e9 09 18 ff ff       	jmp    29f0 <memset@plt>
111e7:	66 0f 1f 84 00 00 00 	nop    WORD PTR [rax+rax*1+0x0]
111ee:	00 00

00000000000111f0 <xcalloc>:
111f0:	48 89 f8             	mov    rax,rdi
111f3:	48 83 ec 08          	sub    rsp,0x8
111f7:	48 f7 e6             	mul    rsi
111fa:	0f 90 c2             	seto   dl
111fd:	48 85 c0             	test   rax,rax
11200:	78 17                	js     11219 <xcalloc+0x29>
11202:	0f b6 d2             	movzx  edx,dl
11205:	48 85 d2             	test   rdx,rdx
11208:	75 0f                	jne    11219 <xcalloc+0x29>
1120a:	e8 c1 18 ff ff       	call   2ad0 <calloc@plt>
1120f:	48 85 c0             	test   rax,rax
11212:	74 05                	je     11219 <xcalloc+0x29>
11214:	48 83 c4 08          	add    rsp,0x8
11218:	c3                   	ret
11219:	e8 52 00 00 00       	call   11270 <xalloc_die>
1121e:	66 90                	xchg   ax,ax

0000000000011220 <xmemdup>:
11220:	55                   	push   rbp
11221:	53                   	push   rbx
11222:	48 89 fd             	mov    rbp,rdi
11225:	48 89 f7             	mov    rdi,rsi
11228:	48 89 f3             	mov    rbx,rsi
1122b:	48 83 ec 08          	sub    rsp,0x8
1122f:	e8 ec fd ff ff       	call   11020 <xmalloc>
11234:	48 83 c4 08          	add    rsp,0x8
11238:	48 89 da             	mov    rdx,rbx
1123b:	48 89 ee             	mov    rsi,rbp
1123e:	5b                   	pop    rbx
1123f:	5d                   	pop    rbp
11240:	48 89 c7             	mov    rdi,rax
11243:	e9 18 19 ff ff       	jmp    2b60 <memcpy@plt>
11248:	0f 1f 84 00 00 00 00 	nop    DWORD PTR [rax+rax*1+0x0]
1124f:	00

0000000000011250 <xstrdup>:
11250:	53                   	push   rbx
11251:	48 89 fb             	mov    rbx,rdi
11254:	e8 a7 16 ff ff       	call   2900 <strlen@plt>
11259:	48 89 df             	mov    rdi,rbx
1125c:	48 8d 70 01          	lea    rsi,[rax+0x1]
11260:	5b                   	pop    rbx
11261:	eb bd                	jmp    11220 <xmemdup>
11263:	66 2e 0f 1f 84 00 00 	nop    WORD PTR cs:[rax+rax*1+0x0]
1126a:	00 00 00
1126d:	0f 1f 00             	nop    DWORD PTR [rax]

0000000000011270 <xalloc_die>:
11270:	48 8d 35 98 49 00 00 	lea    rsi,[rip+0x4998]        # 15c0f <version_etc_copyright+0x2f>
11277:	48 83 ec 08          	sub    rsp,0x8
1127b:	ba 05 00 00 00       	mov    edx,0x5
11280:	31 ff                	xor    edi,edi
11282:	e8 59 16 ff ff       	call   28e0 <dcgettext@plt>
11287:	8b 3d a3 8d 20 00    	mov    edi,DWORD PTR [rip+0x208da3]        # 21a030 <exit_failure>
1128d:	48 8d 15 f9 3e 00 00 	lea    rdx,[rip+0x3ef9]        # 1518d <__PRETTY_FUNCTION__.6956+0x6d>
11294:	48 89 c1             	mov    rcx,rax
11297:	31 f6                	xor    esi,esi
11299:	31 c0                	xor    eax,eax
1129b:	e8 10 1a ff ff       	call   2cb0 <error@plt>
112a0:	e8 bb 14 ff ff       	call   2760 <abort@plt>
112a5:	66 2e 0f 1f 84 00 00 	nop    WORD PTR cs:[rax+rax*1+0x0]
112ac:	00 00 00
112af:	90                   	nop

00000000000112b0 <yesno>:
112b0:	53                   	push   rbx
112b1:	ba 0a 00 00 00       	mov    edx,0xa
112b6:	31 db                	xor    ebx,ebx
112b8:	48 83 ec 20          	sub    rsp,0x20
112bc:	48 8b 0d ed 8d 20 00 	mov    rcx,QWORD PTR [rip+0x208ded]        # 21a0b0 <stdin@@GLIBC_2.2.5>
112c3:	48 8d 74 24 10       	lea    rsi,[rsp+0x10]
112c8:	48 8d 7c 24 08       	lea    rdi,[rsp+0x8]
112cd:	48 c7 44 24 08 00 00 	mov    QWORD PTR [rsp+0x8],0x0
112d4:	00 00
112d6:	64 48 8b 04 25 28 00 	mov    rax,QWORD PTR fs:0x28
112dd:	00 00
112df:	48 89 44 24 18       	mov    QWORD PTR [rsp+0x18],rax
112e4:	31 c0                	xor    eax,eax
112e6:	48 c7 44 24 10 00 00 	mov    QWORD PTR [rsp+0x10],0x0
112ed:	00 00
112ef:	e8 ec 17 ff ff       	call   2ae0 <__getdelim@plt>
112f4:	48 85 c0             	test   rax,rax
112f7:	7e 19                	jle    11312 <yesno+0x62>
112f9:	48 8b 7c 24 08       	mov    rdi,QWORD PTR [rsp+0x8]
112fe:	48 8d 44 07 ff       	lea    rax,[rdi+rax*1-0x1]
11303:	80 38 0a             	cmp    BYTE PTR [rax],0xa
11306:	74 30                	je     11338 <yesno+0x88>
11308:	e8 13 18 ff ff       	call   2b20 <rpmatch@plt>
1130d:	85 c0                	test   eax,eax
1130f:	0f 9f c3             	setg   bl
11312:	48 8b 7c 24 08       	mov    rdi,QWORD PTR [rsp+0x8]
11317:	e8 f4 1a ff ff       	call   2e10 <free@plt>
1131c:	48 8b 54 24 18       	mov    rdx,QWORD PTR [rsp+0x18]
11321:	64 48 33 14 25 28 00 	xor    rdx,QWORD PTR fs:0x28
11328:	00 00
1132a:	89 d8                	mov    eax,ebx
1132c:	75 14                	jne    11342 <yesno+0x92>
1132e:	48 83 c4 20          	add    rsp,0x20
11332:	5b                   	pop    rbx
11333:	c3                   	ret
11334:	0f 1f 40 00          	nop    DWORD PTR [rax+0x0]
11338:	c6 00 00             	mov    BYTE PTR [rax],0x0
1133b:	48 8b 7c 24 08       	mov    rdi,QWORD PTR [rsp+0x8]
11340:	eb c6                	jmp    11308 <yesno+0x58>
11342:	e8 e9 15 ff ff       	call   2930 <__stack_chk_fail@plt>
11347:	66 0f 1f 84 00 00 00 	nop    WORD PTR [rax+rax*1+0x0]
1134e:	00 00

0000000000011350 <rpl_fflush>:
11350:	48 85 ff             	test   rdi,rdi
11353:	53                   	push   rbx
11354:	48 89 fb             	mov    rbx,rdi
11357:	74 11                	je     1136a <rpl_fflush+0x1a>
11359:	e8 b2 18 ff ff       	call   2c10 <__freading@plt>
1135e:	85 c0                	test   eax,eax
11360:	74 08                	je     1136a <rpl_fflush+0x1a>
11362:	f7 03 00 01 00 00    	test   DWORD PTR [rbx],0x100
11368:	75 0e                	jne    11378 <rpl_fflush+0x28>
1136a:	48 89 df             	mov    rdi,rbx
1136d:	5b                   	pop    rbx
1136e:	e9 5d 18 ff ff       	jmp    2bd0 <fflush@plt>
11373:	0f 1f 44 00 00       	nop    DWORD PTR [rax+rax*1+0x0]
11378:	48 89 df             	mov    rdi,rbx
1137b:	ba 01 00 00 00       	mov    edx,0x1
11380:	31 f6                	xor    esi,esi
11382:	e8 39 00 00 00       	call   113c0 <rpl_fseeko>
11387:	48 89 df             	mov    rdi,rbx
1138a:	5b                   	pop    rbx
1138b:	e9 40 18 ff ff       	jmp    2bd0 <fflush@plt>

0000000000011390 <freadahead>:
11390:	31 c0                	xor    eax,eax
11392:	48 8b 4f 20          	mov    rcx,QWORD PTR [rdi+0x20]
11396:	48 39 4f 28          	cmp    QWORD PTR [rdi+0x28],rcx
1139a:	77 1b                	ja     113b7 <freadahead+0x27>
1139c:	48 8b 47 10          	mov    rax,QWORD PTR [rdi+0x10]
113a0:	48 2b 47 08          	sub    rax,QWORD PTR [rdi+0x8]
113a4:	f7 07 00 01 00 00    	test   DWORD PTR [rdi],0x100
113aa:	74 0b                	je     113b7 <freadahead+0x27>
113ac:	48 8b 57 58          	mov    rdx,QWORD PTR [rdi+0x58]
113b0:	48 2b 57 48          	sub    rdx,QWORD PTR [rdi+0x48]
113b4:	48 01 d0             	add    rax,rdx
113b7:	f3 c3                	repz ret
113b9:	0f 1f 80 00 00 00 00 	nop    DWORD PTR [rax+0x0]

00000000000113c0 <rpl_fseeko>:
113c0:	48 8b 47 08          	mov    rax,QWORD PTR [rdi+0x8]
113c4:	48 39 47 10          	cmp    QWORD PTR [rdi+0x10],rax
113c8:	74 06                	je     113d0 <rpl_fseeko+0x10>
113ca:	e9 11 19 ff ff       	jmp    2ce0 <fseeko@plt>
113cf:	90                   	nop
113d0:	48 8b 47 20          	mov    rax,QWORD PTR [rdi+0x20]
113d4:	48 39 47 28          	cmp    QWORD PTR [rdi+0x28],rax
113d8:	75 f0                	jne    113ca <rpl_fseeko+0xa>
113da:	48 83 7f 48 00       	cmp    QWORD PTR [rdi+0x48],0x0
113df:	75 e9                	jne    113ca <rpl_fseeko+0xa>
113e1:	41 54                	push   r12
113e3:	55                   	push   rbp
113e4:	41 89 d4             	mov    r12d,edx
113e7:	53                   	push   rbx
113e8:	48 89 f5             	mov    rbp,rsi
113eb:	48 89 fb             	mov    rbx,rdi
113ee:	e8 8d 17 ff ff       	call   2b80 <fileno@plt>
113f3:	44 89 e2             	mov    edx,r12d
113f6:	48 89 ee             	mov    rsi,rbp
113f9:	89 c7                	mov    edi,eax
113fb:	e8 c0 15 ff ff       	call   29c0 <lseek@plt>
11400:	48 83 f8 ff          	cmp    rax,0xffffffffffffffff
11404:	74 0c                	je     11412 <rpl_fseeko+0x52>
11406:	83 23 ef             	and    DWORD PTR [rbx],0xffffffef
11409:	48 89 83 90 00 00 00 	mov    QWORD PTR [rbx+0x90],rax
11410:	31 c0                	xor    eax,eax
11412:	5b                   	pop    rbx
11413:	5d                   	pop    rbp
11414:	41 5c                	pop    r12
11416:	c3                   	ret
11417:	66 0f 1f 84 00 00 00 	nop    WORD PTR [rax+rax*1+0x0]
1141e:	00 00

0000000000011420 <rpl_mbrtowc>:
11420:	41 55                	push   r13
11422:	41 54                	push   r12
11424:	49 89 f5             	mov    r13,rsi
11427:	55                   	push   rbp
11428:	53                   	push   rbx
11429:	48 89 fb             	mov    rbx,rdi
1142c:	49 89 d4             	mov    r12,rdx
1142f:	48 83 ec 18          	sub    rsp,0x18
11433:	64 48 8b 04 25 28 00 	mov    rax,QWORD PTR fs:0x28
1143a:	00 00
1143c:	48 89 44 24 08       	mov    QWORD PTR [rsp+0x8],rax
11441:	31 c0                	xor    eax,eax
11443:	48 8d 44 24 04       	lea    rax,[rsp+0x4]
11448:	48 85 ff             	test   rdi,rdi
1144b:	48 0f 44 d8          	cmove  rbx,rax
1144f:	48 89 df             	mov    rdi,rbx
11452:	e8 09 15 ff ff       	call   2960 <mbrtowc@plt>
11457:	48 83 f8 fd          	cmp    rax,0xfffffffffffffffd
1145b:	48 89 c5             	mov    rbp,rax
1145e:	76 20                	jbe    11480 <rpl_mbrtowc+0x60>
11460:	4d 85 e4             	test   r12,r12
11463:	74 1b                	je     11480 <rpl_mbrtowc+0x60>
11465:	31 ff                	xor    edi,edi
11467:	e8 34 02 00 00       	call   116a0 <hard_locale>
1146c:	84 c0                	test   al,al
1146e:	75 10                	jne    11480 <rpl_mbrtowc+0x60>
11470:	41 0f b6 45 00       	movzx  eax,BYTE PTR [r13+0x0]
11475:	bd 01 00 00 00       	mov    ebp,0x1
1147a:	89 03                	mov    DWORD PTR [rbx],eax
1147c:	0f 1f 40 00          	nop    DWORD PTR [rax+0x0]
11480:	48 8b 54 24 08       	mov    rdx,QWORD PTR [rsp+0x8]
11485:	64 48 33 14 25 28 00 	xor    rdx,QWORD PTR fs:0x28
1148c:	00 00
1148e:	48 89 e8             	mov    rax,rbp
11491:	75 0b                	jne    1149e <rpl_mbrtowc+0x7e>
11493:	48 83 c4 18          	add    rsp,0x18
11497:	5b                   	pop    rbx
11498:	5d                   	pop    rbp
11499:	41 5c                	pop    r12
1149b:	41 5d                	pop    r13
1149d:	c3                   	ret
1149e:	e8 8d 14 ff ff       	call   2930 <__stack_chk_fail@plt>
114a3:	66 2e 0f 1f 84 00 00 	nop    WORD PTR cs:[rax+rax*1+0x0]
114aa:	00 00 00
114ad:	0f 1f 00             	nop    DWORD PTR [rax]

00000000000114b0 <free_permission_context>:
114b0:	f3 c3                	repz ret
114b2:	66 2e 0f 1f 84 00 00 	nop    WORD PTR cs:[rax+rax*1+0x0]
114b9:	00 00 00
114bc:	0f 1f 40 00          	nop    DWORD PTR [rax+0x0]

00000000000114c0 <get_permissions>:
114c0:	89 11                	mov    DWORD PTR [rcx],edx
114c2:	31 c0                	xor    eax,eax
114c4:	c3                   	ret
114c5:	66 2e 0f 1f 84 00 00 	nop    WORD PTR cs:[rax+rax*1+0x0]
114cc:	00 00 00
114cf:	90                   	nop

00000000000114d0 <chmod_or_fchmod>:
114d0:	89 f0                	mov    eax,esi
114d2:	89 d6                	mov    esi,edx
114d4:	83 f8 ff             	cmp    eax,0xffffffff
114d7:	74 07                	je     114e0 <chmod_or_fchmod+0x10>
114d9:	89 c7                	mov    edi,eax
114db:	e9 90 17 ff ff       	jmp    2c70 <fchmod@plt>
114e0:	e9 ab 17 ff ff       	jmp    2c90 <chmod@plt>
114e5:	90                   	nop
114e6:	66 2e 0f 1f 84 00 00 	nop    WORD PTR cs:[rax+rax*1+0x0]
114ed:	00 00 00

00000000000114f0 <set_permissions>:
114f0:	48 83 ec 08          	sub    rsp,0x8
114f4:	48 89 f0             	mov    rax,rsi
114f7:	89 d6                	mov    esi,edx
114f9:	8b 17                	mov    edx,DWORD PTR [rdi]
114fb:	48 89 c7             	mov    rdi,rax
114fe:	e8 cd ff ff ff       	call   114d0 <chmod_or_fchmod>
11503:	85 c0                	test   eax,eax
11505:	0f 95 c0             	setne  al
11508:	48 83 c4 08          	add    rsp,0x8
1150c:	0f b6 c0             	movzx  eax,al
1150f:	f7 d8                	neg    eax
11511:	c3                   	ret
11512:	66 2e 0f 1f 84 00 00 	nop    WORD PTR cs:[rax+rax*1+0x0]
11519:	00 00 00
1151c:	0f 1f 40 00          	nop    DWORD PTR [rax+0x0]

0000000000011520 <close_stream>:
11520:	41 54                	push   r12
11522:	55                   	push   rbp
11523:	48 89 fd             	mov    rbp,rdi
11526:	53                   	push   rbx
11527:	e8 94 12 ff ff       	call   27c0 <__fpending@plt>
1152c:	8b 5d 00             	mov    ebx,DWORD PTR [rbp+0x0]
1152f:	48 89 ef             	mov    rdi,rbp
11532:	49 89 c4             	mov    r12,rax
11535:	e8 56 0f 00 00       	call   12490 <rpl_fclose>
1153a:	83 e3 20             	and    ebx,0x20
1153d:	85 db                	test   ebx,ebx
1153f:	75 17                	jne    11558 <close_stream+0x38>
11541:	85 c0                	test   eax,eax
11543:	74 0a                	je     1154f <close_stream+0x2f>
11545:	4d 85 e4             	test   r12,r12
11548:	b8 ff ff ff ff       	mov    eax,0xffffffff
1154d:	74 39                	je     11588 <close_stream+0x68>
1154f:	5b                   	pop    rbx
11550:	5d                   	pop    rbp
11551:	41 5c                	pop    r12
11553:	c3                   	ret
11554:	0f 1f 40 00          	nop    DWORD PTR [rax+0x0]
11558:	85 c0                	test   eax,eax
1155a:	75 1c                	jne    11578 <close_stream+0x58>
1155c:	e8 0f 12 ff ff       	call   2770 <__errno_location@plt>
11561:	c7 00 00 00 00 00    	mov    DWORD PTR [rax],0x0
11567:	b8 ff ff ff ff       	mov    eax,0xffffffff
1156c:	5b                   	pop    rbx
1156d:	5d                   	pop    rbp
1156e:	41 5c                	pop    r12
11570:	c3                   	ret
11571:	0f 1f 80 00 00 00 00 	nop    DWORD PTR [rax+0x0]
11578:	5b                   	pop    rbx
11579:	b8 ff ff ff ff       	mov    eax,0xffffffff
1157e:	5d                   	pop    rbp
1157f:	41 5c                	pop    r12
11581:	c3                   	ret
11582:	66 0f 1f 44 00 00    	nop    WORD PTR [rax+rax*1+0x0]
11588:	e8 e3 11 ff ff       	call   2770 <__errno_location@plt>
1158d:	83 38 09             	cmp    DWORD PTR [rax],0x9
11590:	5b                   	pop    rbx
11591:	5d                   	pop    rbp
11592:	41 5c                	pop    r12
11594:	0f 95 c0             	setne  al
11597:	0f b6 c0             	movzx  eax,al
1159a:	f7 d8                	neg    eax
1159c:	c3                   	ret
1159d:	0f 1f 00             	nop    DWORD PTR [rax]

00000000000115a0 <opendir_safer>:
115a0:	41 56                	push   r14
115a2:	41 55                	push   r13
115a4:	41 54                	push   r12
115a6:	55                   	push   rbp
115a7:	53                   	push   rbx
115a8:	e8 f3 12 ff ff       	call   28a0 <opendir@plt>
115ad:	48 85 c0             	test   rax,rax
115b0:	48 89 c3             	mov    rbx,rax
115b3:	74 0d                	je     115c2 <opendir_safer+0x22>
115b5:	48 89 c7             	mov    rdi,rax
115b8:	e8 43 15 ff ff       	call   2b00 <dirfd@plt>
115bd:	83 f8 02             	cmp    eax,0x2
115c0:	76 0e                	jbe    115d0 <opendir_safer+0x30>
115c2:	48 89 d8             	mov    rax,rbx
115c5:	5b                   	pop    rbx
115c6:	5d                   	pop    rbp
115c7:	41 5c                	pop    r12
115c9:	41 5d                	pop    r13
115cb:	41 5e                	pop    r14
115cd:	c3                   	ret
115ce:	66 90                	xchg   ax,ax
115d0:	89 c7                	mov    edi,eax
115d2:	ba 03 00 00 00       	mov    edx,0x3
115d7:	be 06 04 00 00       	mov    esi,0x406
115dc:	31 c0                	xor    eax,eax
115de:	e8 2d 0f 00 00       	call   12510 <rpl_fcntl>
115e3:	41 89 c4             	mov    r12d,eax
115e6:	e8 85 11 ff ff       	call   2770 <__errno_location@plt>
115eb:	45 85 e4             	test   r12d,r12d
115ee:	48 89 c5             	mov    rbp,rax
115f1:	79 25                	jns    11618 <opendir_safer+0x78>
115f3:	44 8b 30             	mov    r14d,DWORD PTR [rax]
115f6:	45 31 ed             	xor    r13d,r13d
115f9:	48 89 df             	mov    rdi,rbx
115fc:	4c 89 eb             	mov    rbx,r13
115ff:	e8 5c 14 ff ff       	call   2a60 <closedir@plt>
11604:	44 89 75 00          	mov    DWORD PTR [rbp+0x0],r14d
11608:	48 89 d8             	mov    rax,rbx
1160b:	5b                   	pop    rbx
1160c:	5d                   	pop    rbp
1160d:	41 5c                	pop    r12
1160f:	41 5d                	pop    r13
11611:	41 5e                	pop    r14
11613:	c3                   	ret
11614:	0f 1f 40 00          	nop    DWORD PTR [rax+0x0]
11618:	44 89 e7             	mov    edi,r12d
1161b:	e8 00 17 ff ff       	call   2d20 <fdopendir@plt>
11620:	48 85 c0             	test   rax,rax
11623:	49 89 c5             	mov    r13,rax
11626:	44 8b 75 00          	mov    r14d,DWORD PTR [rbp+0x0]
1162a:	75 cd                	jne    115f9 <opendir_safer+0x59>
1162c:	44 89 e7             	mov    edi,r12d
1162f:	e8 fc 13 ff ff       	call   2a30 <close@plt>
11634:	eb c3                	jmp    115f9 <opendir_safer+0x59>
11636:	66 2e 0f 1f 84 00 00 	nop    WORD PTR cs:[rax+rax*1+0x0]
1163d:	00 00 00

0000000000011640 <gettime>:
11640:	48 89 fe             	mov    rsi,rdi
11643:	31 ff                	xor    edi,edi
11645:	e9 e6 11 ff ff       	jmp    2830 <clock_gettime@plt>
1164a:	66 0f 1f 44 00 00    	nop    WORD PTR [rax+rax*1+0x0]

0000000000011650 <current_timespec>:
11650:	48 83 ec 28          	sub    rsp,0x28
11654:	31 ff                	xor    edi,edi
11656:	48 89 e6             	mov    rsi,rsp
11659:	64 48 8b 04 25 28 00 	mov    rax,QWORD PTR fs:0x28
11660:	00 00
11662:	48 89 44 24 18       	mov    QWORD PTR [rsp+0x18],rax
11667:	31 c0                	xor    eax,eax
11669:	e8 c2 11 ff ff       	call   2830 <clock_gettime@plt>
1166e:	48 8b 4c 24 18       	mov    rcx,QWORD PTR [rsp+0x18]
11673:	64 48 33 0c 25 28 00 	xor    rcx,QWORD PTR fs:0x28
1167a:	00 00
1167c:	48 8b 04 24          	mov    rax,QWORD PTR [rsp]
11680:	48 8b 54 24 08       	mov    rdx,QWORD PTR [rsp+0x8]
11685:	75 05                	jne    1168c <current_timespec+0x3c>
11687:	48 83 c4 28          	add    rsp,0x28
1168b:	c3                   	ret
1168c:	e8 9f 12 ff ff       	call   2930 <__stack_chk_fail@plt>
11691:	66 2e 0f 1f 84 00 00 	nop    WORD PTR cs:[rax+rax*1+0x0]
11698:	00 00 00
1169b:	0f 1f 44 00 00       	nop    DWORD PTR [rax+rax*1+0x0]

00000000000116a0 <hard_locale>:
116a0:	48 83 ec 08          	sub    rsp,0x8
116a4:	31 f6                	xor    esi,esi
116a6:	e8 a5 15 ff ff       	call   2c50 <setlocale@plt>
116ab:	48 89 c2             	mov    rdx,rax
116ae:	b8 01 00 00 00       	mov    eax,0x1
116b3:	48 85 d2             	test   rdx,rdx
116b6:	74 1d                	je     116d5 <hard_locale+0x35>
116b8:	48 8d 3d 61 45 00 00 	lea    rdi,[rip+0x4561]        # 15c20 <version_etc_copyright+0x40>
116bf:	b9 02 00 00 00       	mov    ecx,0x2
116c4:	48 89 d6             	mov    rsi,rdx
116c7:	f3 a6                	repz cmps BYTE PTR ds:[rsi],BYTE PTR es:[rdi]
116c9:	0f 97 c1             	seta   cl
116cc:	80 d9 00             	sbb    cl,0x0
116cf:	31 c0                	xor    eax,eax
116d1:	84 c9                	test   cl,cl
116d3:	75 0b                	jne    116e0 <hard_locale+0x40>
116d5:	48 83 c4 08          	add    rsp,0x8
116d9:	c3                   	ret
116da:	66 0f 1f 44 00 00    	nop    WORD PTR [rax+rax*1+0x0]
116e0:	48 8d 3d 3b 45 00 00 	lea    rdi,[rip+0x453b]        # 15c22 <version_etc_copyright+0x42>
116e7:	b9 06 00 00 00       	mov    ecx,0x6
116ec:	48 89 d6             	mov    rsi,rdx
116ef:	f3 a6                	repz cmps BYTE PTR ds:[rsi],BYTE PTR es:[rdi]
116f1:	0f 97 c0             	seta   al
116f4:	1c 00                	sbb    al,0x0
116f6:	84 c0                	test   al,al
116f8:	0f 95 c0             	setne  al
116fb:	48 83 c4 08          	add    rsp,0x8
116ff:	c3                   	ret

0000000000011700 <hash_pjw>:
11700:	48 0f be 0f          	movsx  rcx,BYTE PTR [rdi]
11704:	84 c9                	test   cl,cl
11706:	74 28                	je     11730 <hash_pjw+0x30>
11708:	31 c0                	xor    eax,eax
1170a:	66 0f 1f 44 00 00    	nop    WORD PTR [rax+rax*1+0x0]
11710:	48 c1 c0 09          	rol    rax,0x9
11714:	48 83 c7 01          	add    rdi,0x1
11718:	48 01 c8             	add    rax,rcx
1171b:	48 0f be 0f          	movsx  rcx,BYTE PTR [rdi]
1171f:	84 c9                	test   cl,cl
11721:	75 ed                	jne    11710 <hash_pjw+0x10>
11723:	31 d2                	xor    edx,edx
11725:	48 f7 f6             	div    rsi
11728:	48 89 d0             	mov    rax,rdx
1172b:	c3                   	ret
1172c:	0f 1f 40 00          	nop    DWORD PTR [rax+0x0]
11730:	31 d2                	xor    edx,edx
11732:	48 89 d0             	mov    rax,rdx
11735:	c3                   	ret
11736:	66 2e 0f 1f 84 00 00 	nop    WORD PTR cs:[rax+rax*1+0x0]
1173d:	00 00 00

0000000000011740 <locale_charset>:
11740:	48 83 ec 08          	sub    rsp,0x8
11744:	bf 0e 00 00 00       	mov    edi,0xe
11749:	e8 92 14 ff ff       	call   2be0 <nl_langinfo@plt>
1174e:	48 85 c0             	test   rax,rax
11751:	74 1d                	je     11770 <locale_charset+0x30>
11753:	80 38 00             	cmp    BYTE PTR [rax],0x0
11756:	48 8d 15 cb 44 00 00 	lea    rdx,[rip+0x44cb]        # 15c28 <version_etc_copyright+0x48>
1175d:	48 0f 44 c2          	cmove  rax,rdx
11761:	48 83 c4 08          	add    rsp,0x8
11765:	c3                   	ret
11766:	66 2e 0f 1f 84 00 00 	nop    WORD PTR cs:[rax+rax*1+0x0]
1176d:	00 00 00
11770:	48 8d 05 b1 44 00 00 	lea    rax,[rip+0x44b1]        # 15c28 <version_etc_copyright+0x48>
11777:	48 83 c4 08          	add    rsp,0x8
1177b:	c3                   	ret
1177c:	0f 1f 40 00          	nop    DWORD PTR [rax+0x0]

0000000000011780 <openat_safer>:
11780:	48 83 ec 58          	sub    rsp,0x58
11784:	48 89 4c 24 38       	mov    QWORD PTR [rsp+0x38],rcx
11789:	31 c9                	xor    ecx,ecx
1178b:	64 48 8b 04 25 28 00 	mov    rax,QWORD PTR fs:0x28
11792:	00 00
11794:	48 89 44 24 18       	mov    QWORD PTR [rsp+0x18],rax
11799:	31 c0                	xor    eax,eax
1179b:	f6 c2 40             	test   dl,0x40
1179e:	75 28                	jne    117c8 <openat_safer+0x48>
117a0:	31 c0                	xor    eax,eax
117a2:	e8 79 11 ff ff       	call   2920 <openat@plt>
117a7:	89 c7                	mov    edi,eax
117a9:	e8 a2 e1 ff ff       	call   f950 <fd_safer>
117ae:	48 8b 74 24 18       	mov    rsi,QWORD PTR [rsp+0x18]
117b3:	64 48 33 34 25 28 00 	xor    rsi,QWORD PTR fs:0x28
117ba:	00 00
117bc:	75 2b                	jne    117e9 <openat_safer+0x69>
117be:	48 83 c4 58          	add    rsp,0x58
117c2:	c3                   	ret
117c3:	0f 1f 44 00 00       	nop    DWORD PTR [rax+rax*1+0x0]
117c8:	48 8d 44 24 60       	lea    rax,[rsp+0x60]
117cd:	c7 04 24 18 00 00 00 	mov    DWORD PTR [rsp],0x18
117d4:	8b 4c 24 38          	mov    ecx,DWORD PTR [rsp+0x38]
117d8:	48 89 44 24 08       	mov    QWORD PTR [rsp+0x8],rax
117dd:	48 8d 44 24 20       	lea    rax,[rsp+0x20]
117e2:	48 89 44 24 10       	mov    QWORD PTR [rsp+0x10],rax
117e7:	eb b7                	jmp    117a0 <openat_safer+0x20>
117e9:	e8 42 11 ff ff       	call   2930 <__stack_chk_fail@plt>
117ee:	66 90                	xchg   ax,ax

00000000000117f0 <randint_new>:
117f0:	53                   	push   rbx
117f1:	48 89 fb             	mov    rbx,rdi
117f4:	bf 18 00 00 00       	mov    edi,0x18
117f9:	e8 22 f8 ff ff       	call   11020 <xmalloc>
117fe:	48 89 18             	mov    QWORD PTR [rax],rbx
11801:	48 c7 40 10 00 00 00 	mov    QWORD PTR [rax+0x10],0x0
11808:	00
11809:	48 c7 40 08 00 00 00 	mov    QWORD PTR [rax+0x8],0x0
11810:	00
11811:	5b                   	pop    rbx
11812:	c3                   	ret
11813:	0f 1f 00             	nop    DWORD PTR [rax]
11816:	66 2e 0f 1f 84 00 00 	nop    WORD PTR cs:[rax+rax*1+0x0]
1181d:	00 00 00

0000000000011820 <randint_all_new>:
11820:	53                   	push   rbx
11821:	e8 4a 02 00 00       	call   11a70 <randread_new>
11826:	48 85 c0             	test   rax,rax
11829:	74 25                	je     11850 <randint_all_new+0x30>
1182b:	48 89 c3             	mov    rbx,rax
1182e:	bf 18 00 00 00       	mov    edi,0x18
11833:	e8 e8 f7 ff ff       	call   11020 <xmalloc>
11838:	48 89 18             	mov    QWORD PTR [rax],rbx
1183b:	48 c7 40 10 00 00 00 	mov    QWORD PTR [rax+0x10],0x0
11842:	00
11843:	48 c7 40 08 00 00 00 	mov    QWORD PTR [rax+0x8],0x0
1184a:	00
1184b:	5b                   	pop    rbx
1184c:	c3                   	ret
1184d:	0f 1f 00             	nop    DWORD PTR [rax]
11850:	31 c0                	xor    eax,eax
11852:	5b                   	pop    rbx
11853:	c3                   	ret
11854:	66 90                	xchg   ax,ax
11856:	66 2e 0f 1f 84 00 00 	nop    WORD PTR cs:[rax+rax*1+0x0]
1185d:	00 00 00

0000000000011860 <randint_get_source>:
11860:	48 8b 07             	mov    rax,QWORD PTR [rdi]
11863:	c3                   	ret
11864:	66 90                	xchg   ax,ax
11866:	66 2e 0f 1f 84 00 00 	nop    WORD PTR cs:[rax+rax*1+0x0]
1186d:	00 00 00

0000000000011870 <randint_genmax>:
11870:	41 57                	push   r15
11872:	41 56                	push   r14
11874:	4c 8d 7e 01          	lea    r15,[rsi+0x1]
11878:	41 55                	push   r13
1187a:	41 54                	push   r12
1187c:	49 89 fd             	mov    r13,rdi
1187f:	55                   	push   rbp
11880:	53                   	push   rbx
11881:	49 89 f6             	mov    r14,rsi
11884:	48 83 ec 28          	sub    rsp,0x28
11888:	48 8b 6f 08          	mov    rbp,QWORD PTR [rdi+0x8]
1188c:	48 8b 5f 10          	mov    rbx,QWORD PTR [rdi+0x10]
11890:	64 48 8b 04 25 28 00 	mov    rax,QWORD PTR fs:0x28
11897:	00 00
11899:	48 89 44 24 18       	mov    QWORD PTR [rsp+0x18],rax
1189e:	31 c0                	xor    eax,eax
118a0:	48 8b 07             	mov    rax,QWORD PTR [rdi]
118a3:	4c 8d 64 24 10       	lea    r12,[rsp+0x10]
118a8:	48 89 44 24 08       	mov    QWORD PTR [rsp+0x8],rax
118ad:	eb 36                	jmp    118e5 <randint_genmax+0x75>
118af:	90                   	nop
118b0:	4c 39 f3             	cmp    rbx,r14
118b3:	0f 84 86 00 00 00    	je     1193f <randint_genmax+0xcf>
118b9:	48 89 d8             	mov    rax,rbx
118bc:	31 d2                	xor    edx,edx
118be:	4c 29 f0             	sub    rax,r14
118c1:	49 f7 f7             	div    r15
118c4:	48 29 d3             	sub    rbx,rdx
118c7:	48 89 d7             	mov    rdi,rdx
118ca:	48 89 c6             	mov    rsi,rax
118cd:	31 d2                	xor    edx,edx
118cf:	48 89 e8             	mov    rax,rbp
118d2:	49 f7 f7             	div    r15
118d5:	48 39 dd             	cmp    rbp,rbx
118d8:	0f 86 9a 00 00 00    	jbe    11978 <randint_genmax+0x108>
118de:	48 8d 5f ff          	lea    rbx,[rdi-0x1]
118e2:	48 89 d5             	mov    rbp,rdx
118e5:	4c 39 f3             	cmp    rbx,r14
118e8:	73 c6                	jae    118b0 <randint_genmax+0x40>
118ea:	48 89 d8             	mov    rax,rbx
118ed:	31 d2                	xor    edx,edx
118ef:	90                   	nop
118f0:	48 c1 e0 08          	shl    rax,0x8
118f4:	48 83 c2 01          	add    rdx,0x1
118f8:	48 05 ff 00 00 00    	add    rax,0xff
118fe:	49 39 c6             	cmp    r14,rax
11901:	77 ed                	ja     118f0 <randint_genmax+0x80>
11903:	48 8b 7c 24 08       	mov    rdi,QWORD PTR [rsp+0x8]
11908:	4c 89 e6             	mov    rsi,r12
1190b:	e8 b0 04 00 00       	call   11dc0 <randread>
11910:	4c 89 e0             	mov    rax,r12
11913:	0f 1f 44 00 00       	nop    DWORD PTR [rax+rax*1+0x0]
11918:	0f b6 10             	movzx  edx,BYTE PTR [rax]
1191b:	48 c1 e3 08          	shl    rbx,0x8
1191f:	48 c1 e5 08          	shl    rbp,0x8
11923:	48 81 c3 ff 00 00 00 	add    rbx,0xff
1192a:	48 83 c0 01          	add    rax,0x1
1192e:	48 01 d5             	add    rbp,rdx
11931:	49 39 de             	cmp    r14,rbx
11934:	77 e2                	ja     11918 <randint_genmax+0xa8>
11936:	4c 39 f3             	cmp    rbx,r14
11939:	0f 85 7a ff ff ff    	jne    118b9 <randint_genmax+0x49>
1193f:	49 c7 45 10 00 00 00 	mov    QWORD PTR [r13+0x10],0x0
11946:	00
11947:	49 c7 45 08 00 00 00 	mov    QWORD PTR [r13+0x8],0x0
1194e:	00
1194f:	48 8b 4c 24 18       	mov    rcx,QWORD PTR [rsp+0x18]
11954:	64 48 33 0c 25 28 00 	xor    rcx,QWORD PTR fs:0x28
1195b:	00 00
1195d:	48 89 e8             	mov    rax,rbp
11960:	75 23                	jne    11985 <randint_genmax+0x115>
11962:	48 83 c4 28          	add    rsp,0x28
11966:	5b                   	pop    rbx
11967:	5d                   	pop    rbp
11968:	41 5c                	pop    r12
1196a:	41 5d                	pop    r13
1196c:	41 5e                	pop    r14
1196e:	41 5f                	pop    r15
11970:	c3                   	ret
11971:	0f 1f 80 00 00 00 00 	nop    DWORD PTR [rax+0x0]
11978:	49 89 45 08          	mov    QWORD PTR [r13+0x8],rax
1197c:	49 89 75 10          	mov    QWORD PTR [r13+0x10],rsi
11980:	48 89 d5             	mov    rbp,rdx
11983:	eb ca                	jmp    1194f <randint_genmax+0xdf>
11985:	e8 a6 0f ff ff       	call   2930 <__stack_chk_fail@plt>
1198a:	66 0f 1f 44 00 00    	nop    WORD PTR [rax+rax*1+0x0]

0000000000011990 <randint_free>:
11990:	53                   	push   rbx
11991:	48 c7 c2 ff ff ff ff 	mov    rdx,0xffffffffffffffff
11998:	48 89 fb             	mov    rbx,rdi
1199b:	be 18 00 00 00       	mov    esi,0x18
119a0:	e8 1b 13 ff ff       	call   2cc0 <__explicit_bzero_chk@plt>
119a5:	48 89 df             	mov    rdi,rbx
119a8:	5b                   	pop    rbx
119a9:	e9 62 14 ff ff       	jmp    2e10 <free@plt>
119ae:	66 90                	xchg   ax,ax

00000000000119b0 <randint_all_free>:
119b0:	41 55                	push   r13
119b2:	41 54                	push   r12
119b4:	55                   	push   rbp
119b5:	53                   	push   rbx
119b6:	48 89 fb             	mov    rbx,rdi
119b9:	48 83 ec 08          	sub    rsp,0x8
119bd:	48 8b 3f             	mov    rdi,QWORD PTR [rdi]
119c0:	e8 9b 05 00 00       	call   11f60 <randread_free>
119c5:	41 89 c4             	mov    r12d,eax
119c8:	e8 a3 0d ff ff       	call   2770 <__errno_location@plt>
119cd:	44 8b 28             	mov    r13d,DWORD PTR [rax]
119d0:	48 89 df             	mov    rdi,rbx
119d3:	48 c7 c2 ff ff ff ff 	mov    rdx,0xffffffffffffffff
119da:	be 18 00 00 00       	mov    esi,0x18
119df:	48 89 c5             	mov    rbp,rax
119e2:	e8 d9 12 ff ff       	call   2cc0 <__explicit_bzero_chk@plt>
119e7:	48 89 df             	mov    rdi,rbx
119ea:	e8 21 14 ff ff       	call   2e10 <free@plt>
119ef:	44 89 6d 00          	mov    DWORD PTR [rbp+0x0],r13d
119f3:	48 83 c4 08          	add    rsp,0x8
119f7:	44 89 e0             	mov    eax,r12d
119fa:	5b                   	pop    rbx
119fb:	5d                   	pop    rbp
119fc:	41 5c                	pop    r12
119fe:	41 5d                	pop    r13
11a00:	c3                   	ret
11a01:	66 2e 0f 1f 84 00 00 	nop    WORD PTR cs:[rax+rax*1+0x0]
11a08:	00 00 00
11a0b:	0f 1f 44 00 00       	nop    DWORD PTR [rax+rax*1+0x0]

0000000000011a10 <randread_error>:
11a10:	55                   	push   rbp
11a11:	53                   	push   rbx
11a12:	48 83 ec 08          	sub    rsp,0x8
11a16:	48 85 ff             	test   rdi,rdi
11a19:	74 3d                	je     11a58 <randread_error+0x48>
11a1b:	e8 60 d3 ff ff       	call   ed80 <quote>
11a20:	48 89 c5             	mov    rbp,rax
11a23:	e8 48 0d ff ff       	call   2770 <__errno_location@plt>
11a28:	83 38 00             	cmp    DWORD PTR [rax],0x0
11a2b:	48 89 c3             	mov    rbx,rax
11a2e:	ba 05 00 00 00       	mov    edx,0x5
11a33:	74 28                	je     11a5d <randread_error+0x4d>
11a35:	48 8d 35 02 42 00 00 	lea    rsi,[rip+0x4202]        # 15c3e <version_etc_copyright+0x5e>
11a3c:	31 ff                	xor    edi,edi
11a3e:	e8 9d 0e ff ff       	call   28e0 <dcgettext@plt>
11a43:	8b 3d e7 85 20 00    	mov    edi,DWORD PTR [rip+0x2085e7]        # 21a030 <exit_failure>
11a49:	8b 33                	mov    esi,DWORD PTR [rbx]
11a4b:	48 89 c2             	mov    rdx,rax
11a4e:	48 89 e9             	mov    rcx,rbp
11a51:	31 c0                	xor    eax,eax
11a53:	e8 58 12 ff ff       	call   2cb0 <error@plt>
11a58:	e8 03 0d ff ff       	call   2760 <abort@plt>
11a5d:	48 8d 35 ca 41 00 00 	lea    rsi,[rip+0x41ca]        # 15c2e <version_etc_copyright+0x4e>
11a64:	31 ff                	xor    edi,edi
11a66:	e8 75 0e ff ff       	call   28e0 <dcgettext@plt>
11a6b:	eb d6                	jmp    11a43 <randread_error+0x33>
11a6d:	0f 1f 00             	nop    DWORD PTR [rax]

0000000000011a70 <randread_new>:
11a70:	41 57                	push   r15
11a72:	41 56                	push   r14
11a74:	41 55                	push   r13
11a76:	41 54                	push   r12
11a78:	55                   	push   rbp
11a79:	53                   	push   rbx
11a7a:	48 83 ec 38          	sub    rsp,0x38
11a7e:	64 48 8b 04 25 28 00 	mov    rax,QWORD PTR fs:0x28
11a85:	00 00
11a87:	48 89 44 24 28       	mov    QWORD PTR [rsp+0x28],rax
11a8c:	31 c0                	xor    eax,eax
11a8e:	48 85 f6             	test   rsi,rsi
11a91:	0f 84 21 01 00 00    	je     11bb8 <randread_new+0x148>
11a97:	48 85 ff             	test   rdi,rdi
11a9a:	49 89 fc             	mov    r12,rdi
11a9d:	48 89 f5             	mov    rbp,rsi
11aa0:	74 7e                	je     11b20 <randread_new+0xb0>
11aa2:	48 8d 35 b1 41 00 00 	lea    rsi,[rip+0x41b1]        # 15c5a <version_etc_copyright+0x7a>
11aa9:	e8 e2 0c 00 00       	call   12790 <fopen_safer>
11aae:	48 85 c0             	test   rax,rax
11ab1:	49 89 c5             	mov    r13,rax
11ab4:	0f 84 fe 01 00 00    	je     11cb8 <randread_new+0x248>
11aba:	bf 38 10 00 00       	mov    edi,0x1038
11abf:	e8 5c f5 ff ff       	call   11020 <xmalloc>
11ac4:	48 89 c3             	mov    rbx,rax
11ac7:	4c 89 28             	mov    QWORD PTR [rax],r13
11aca:	48 8d 05 3f ff ff ff 	lea    rax,[rip+0xffffffffffffff3f]        # 11a10 <randread_error>
11ad1:	48 81 fd 00 10 00 00 	cmp    rbp,0x1000
11ad8:	b9 00 10 00 00       	mov    ecx,0x1000
11add:	48 8d 73 18          	lea    rsi,[rbx+0x18]
11ae1:	48 0f 46 cd          	cmovbe rcx,rbp
11ae5:	48 89 43 08          	mov    QWORD PTR [rbx+0x8],rax
11ae9:	4c 89 63 10          	mov    QWORD PTR [rbx+0x10],r12
11aed:	31 d2                	xor    edx,edx
11aef:	4c 89 ef             	mov    rdi,r13
11af2:	e8 89 11 ff ff       	call   2c80 <setvbuf@plt>
11af7:	48 8b 54 24 28       	mov    rdx,QWORD PTR [rsp+0x28]
11afc:	64 48 33 14 25 28 00 	xor    rdx,QWORD PTR fs:0x28
11b03:	00 00
11b05:	48 89 d8             	mov    rax,rbx
11b08:	0f 85 b1 01 00 00    	jne    11cbf <randread_new+0x24f>
11b0e:	48 83 c4 38          	add    rsp,0x38
11b12:	5b                   	pop    rbx
11b13:	5d                   	pop    rbp
11b14:	41 5c                	pop    r12
11b16:	41 5d                	pop    r13
11b18:	41 5e                	pop    r14
11b1a:	41 5f                	pop    r15
11b1c:	c3                   	ret
11b1d:	0f 1f 00             	nop    DWORD PTR [rax]
11b20:	bf 38 10 00 00       	mov    edi,0x1038
11b25:	e8 f6 f4 ff ff       	call   11020 <xmalloc>
11b2a:	48 89 c3             	mov    rbx,rax
11b2d:	48 c7 00 00 00 00 00 	mov    QWORD PTR [rax],0x0
11b34:	48 8d 05 d5 fe ff ff 	lea    rax,[rip+0xfffffffffffffed5]        # 11a10 <randread_error>
11b3b:	48 8d 3d 0b 41 00 00 	lea    rdi,[rip+0x410b]        # 15c4d <version_etc_copyright+0x6d>
11b42:	31 f6                	xor    esi,esi
11b44:	48 c7 43 10 00 00 00 	mov    QWORD PTR [rbx+0x10],0x0
11b4b:	00
11b4c:	48 89 43 08          	mov    QWORD PTR [rbx+0x8],rax
11b50:	48 c7 43 18 00 00 00 	mov    QWORD PTR [rbx+0x18],0x0
11b57:	00
11b58:	31 c0                	xor    eax,eax
11b5a:	e8 71 11 ff ff       	call   2cd0 <open@plt>
11b5f:	85 c0                	test   eax,eax
11b61:	4c 8d 6b 20          	lea    r13,[rbx+0x20]
11b65:	41 89 c7             	mov    r15d,eax
11b68:	78 7e                	js     11be8 <randread_new+0x178>
11b6a:	48 81 fd 00 08 00 00 	cmp    rbp,0x800
11b71:	48 89 ea             	mov    rdx,rbp
11b74:	41 be 00 08 00 00    	mov    r14d,0x800
11b7a:	49 0f 47 d6          	cmova  rdx,r14
11b7e:	b9 18 10 00 00       	mov    ecx,0x1018
11b83:	4c 89 ee             	mov    rsi,r13
11b86:	89 c7                	mov    edi,eax
11b88:	e8 43 0c ff ff       	call   27d0 <__read_chk@plt>
11b8d:	44 89 ff             	mov    edi,r15d
11b90:	48 89 c5             	mov    rbp,rax
11b93:	e8 98 0e ff ff       	call   2a30 <close@plt>
11b98:	48 81 fd ff 07 00 00 	cmp    rbp,0x7ff
11b9f:	0f 8e 1f 01 00 00    	jle    11cc4 <randread_new+0x254>
11ba5:	4c 89 ef             	mov    rdi,r13
11ba8:	e8 93 06 00 00       	call   12240 <isaac_seed>
11bad:	e9 45 ff ff ff       	jmp    11af7 <randread_new+0x87>
11bb2:	66 0f 1f 44 00 00    	nop    WORD PTR [rax+rax*1+0x0]
11bb8:	bf 38 10 00 00       	mov    edi,0x1038
11bbd:	e8 5e f4 ff ff       	call   11020 <xmalloc>
11bc2:	48 89 c3             	mov    rbx,rax
11bc5:	48 c7 00 00 00 00 00 	mov    QWORD PTR [rax],0x0
11bcc:	48 8d 05 3d fe ff ff 	lea    rax,[rip+0xfffffffffffffe3d]        # 11a10 <randread_error>
11bd3:	48 c7 43 10 00 00 00 	mov    QWORD PTR [rbx+0x10],0x0
11bda:	00
11bdb:	48 89 43 08          	mov    QWORD PTR [rbx+0x8],rax
11bdf:	e9 13 ff ff ff       	jmp    11af7 <randread_new+0x87>
11be4:	0f 1f 40 00          	nop    DWORD PTR [rax+0x0]
11be8:	4c 8d 64 24 10       	lea    r12,[rsp+0x10]
11bed:	31 f6                	xor    esi,esi
11bef:	41 be 18 00 00 00    	mov    r14d,0x18
11bf5:	4c 89 e7             	mov    rdi,r12
11bf8:	e8 d3 0d ff ff       	call   29d0 <gettimeofday@plt>
11bfd:	66 0f 6f 44 24 10    	movdqa xmm0,XMMWORD PTR [rsp+0x10]
11c03:	0f 11 43 20          	movups XMMWORD PTR [rbx+0x20],xmm0
11c07:	e8 44 0c ff ff       	call   2850 <getpid@plt>
11c0c:	89 43 30             	mov    DWORD PTR [rbx+0x30],eax
11c0f:	89 44 24 10          	mov    DWORD PTR [rsp+0x10],eax
11c13:	e8 68 11 ff ff       	call   2d80 <getppid@plt>
11c18:	89 44 24 10          	mov    DWORD PTR [rsp+0x10],eax
11c1c:	89 43 34             	mov    DWORD PTR [rbx+0x34],eax
11c1f:	bd 00 08 00 00       	mov    ebp,0x800
11c24:	b8 04 00 00 00       	mov    eax,0x4
11c29:	4c 29 f5             	sub    rbp,r14
11c2c:	48 83 fd 04          	cmp    rbp,0x4
11c30:	48 0f 47 e8          	cmova  rbp,rax
11c34:	e8 07 0d ff ff       	call   2940 <getuid@plt>
11c39:	85 ed                	test   ebp,ebp
11c3b:	89 44 24 10          	mov    DWORD PTR [rsp+0x10],eax
11c3f:	4b 8d 4c 35 00       	lea    rcx,[r13+r14*1+0x0]
11c44:	89 ee                	mov    esi,ebp
11c46:	74 14                	je     11c5c <randread_new+0x1ec>
11c48:	31 c0                	xor    eax,eax
11c4a:	89 c2                	mov    edx,eax
11c4c:	83 c0 01             	add    eax,0x1
11c4f:	41 0f b6 3c 14       	movzx  edi,BYTE PTR [r12+rdx*1]
11c54:	39 f0                	cmp    eax,esi
11c56:	40 88 3c 11          	mov    BYTE PTR [rcx+rdx*1],dil
11c5a:	72 ee                	jb     11c4a <randread_new+0x1da>
11c5c:	4c 01 f5             	add    rbp,r14
11c5f:	48 81 fd ff 07 00 00 	cmp    rbp,0x7ff
11c66:	0f 87 39 ff ff ff    	ja     11ba5 <randread_new+0x135>
11c6c:	e8 1f 0f ff ff       	call   2b90 <getgid@plt>
11c71:	89 44 24 10          	mov    DWORD PTR [rsp+0x10],eax
11c75:	b8 00 08 00 00       	mov    eax,0x800
11c7a:	ba 04 00 00 00       	mov    edx,0x4
11c7f:	48 29 e8             	sub    rax,rbp
11c82:	49 8d 4c 2d 00       	lea    rcx,[r13+rbp*1+0x0]
11c87:	48 83 f8 04          	cmp    rax,0x4
11c8b:	48 0f 47 c2          	cmova  rax,rdx
11c8f:	85 c0                	test   eax,eax
11c91:	89 c6                	mov    esi,eax
11c93:	0f 84 0c ff ff ff    	je     11ba5 <randread_new+0x135>
11c99:	31 c0                	xor    eax,eax
11c9b:	89 c2                	mov    edx,eax
11c9d:	83 c0 01             	add    eax,0x1
11ca0:	41 0f b6 3c 14       	movzx  edi,BYTE PTR [r12+rdx*1]
11ca5:	39 f0                	cmp    eax,esi
11ca7:	40 88 3c 11          	mov    BYTE PTR [rcx+rdx*1],dil
11cab:	72 ee                	jb     11c9b <randread_new+0x22b>
11cad:	e9 f3 fe ff ff       	jmp    11ba5 <randread_new+0x135>
11cb2:	66 0f 1f 44 00 00    	nop    WORD PTR [rax+rax*1+0x0]
11cb8:	31 db                	xor    ebx,ebx
11cba:	e9 38 fe ff ff       	jmp    11af7 <randread_new+0x87>
11cbf:	e8 6c 0c ff ff       	call   2930 <__stack_chk_fail@plt>
11cc4:	48 85 ed             	test   rbp,rbp
11cc7:	4d 89 f7             	mov    r15,r14
11cca:	b8 10 00 00 00       	mov    eax,0x10
11ccf:	49 0f 48 ec          	cmovs  rbp,r12
11cd3:	4c 8d 64 24 10       	lea    r12,[rsp+0x10]
11cd8:	49 29 ef             	sub    r15,rbp
11cdb:	49 83 ff 10          	cmp    r15,0x10
11cdf:	4c 89 e7             	mov    rdi,r12
11ce2:	4c 0f 47 f8          	cmova  r15,rax
11ce6:	31 f6                	xor    esi,esi
11ce8:	e8 e3 0c ff ff       	call   29d0 <gettimeofday@plt>
11ced:	49 8d 44 2d 00       	lea    rax,[r13+rbp*1+0x0]
11cf2:	4c 01 fd             	add    rbp,r15
11cf5:	44 89 f9             	mov    ecx,r15d
11cf8:	48 81 fd ff 07 00 00 	cmp    rbp,0x7ff
11cff:	4c 89 e6             	mov    rsi,r12
11d02:	48 89 c7             	mov    rdi,rax
11d05:	f3 a4                	rep movs BYTE PTR es:[rdi],BYTE PTR ds:[rsi]
11d07:	0f 87 98 fe ff ff    	ja     11ba5 <randread_new+0x135>
11d0d:	4d 89 f7             	mov    r15,r14
11d10:	41 b8 04 00 00 00    	mov    r8d,0x4
11d16:	49 29 ef             	sub    r15,rbp
11d19:	4c 89 44 24 08       	mov    QWORD PTR [rsp+0x8],r8
11d1e:	49 83 ff 04          	cmp    r15,0x4
11d22:	4d 0f 47 f8          	cmova  r15,r8
11d26:	4a 8d 54 3d 00       	lea    rdx,[rbp+r15*1+0x0]
11d2b:	4c 01 ed             	add    rbp,r13
11d2e:	48 89 14 24          	mov    QWORD PTR [rsp],rdx
11d32:	e8 19 0b ff ff       	call   2850 <getpid@plt>
11d37:	48 8b 14 24          	mov    rdx,QWORD PTR [rsp]
11d3b:	89 44 24 10          	mov    DWORD PTR [rsp+0x10],eax
11d3f:	44 89 f9             	mov    ecx,r15d
11d42:	48 89 ef             	mov    rdi,rbp
11d45:	4c 89 e6             	mov    rsi,r12
11d48:	4c 8b 44 24 08       	mov    r8,QWORD PTR [rsp+0x8]
11d4d:	f3 a4                	rep movs BYTE PTR es:[rdi],BYTE PTR ds:[rsi]
11d4f:	48 81 fa ff 07 00 00 	cmp    rdx,0x7ff
11d56:	0f 8f 49 fe ff ff    	jg     11ba5 <randread_new+0x135>
11d5c:	49 29 d6             	sub    r14,rdx
11d5f:	49 83 fe 04          	cmp    r14,0x4
11d63:	4d 0f 47 f0          	cmova  r14,r8
11d67:	e8 14 10 ff ff       	call   2d80 <getppid@plt>
11d6c:	48 8b 14 24          	mov    rdx,QWORD PTR [rsp]
11d70:	89 44 24 10          	mov    DWORD PTR [rsp+0x10],eax
11d74:	44 89 f1             	mov    ecx,r14d
11d77:	4c 89 e6             	mov    rsi,r12
11d7a:	49 8d 44 15 00       	lea    rax,[r13+rdx*1+0x0]
11d7f:	49 01 d6             	add    r14,rdx
11d82:	49 81 fe ff 07 00 00 	cmp    r14,0x7ff
11d89:	48 89 c7             	mov    rdi,rax
11d8c:	f3 a4                	rep movs BYTE PTR es:[rdi],BYTE PTR ds:[rsi]
11d8e:	0f 87 11 fe ff ff    	ja     11ba5 <randread_new+0x135>
11d94:	e9 86 fe ff ff       	jmp    11c1f <randread_new+0x1af>
11d99:	0f 1f 80 00 00 00 00 	nop    DWORD PTR [rax+0x0]

0000000000011da0 <randread_set_handler>:
11da0:	48 89 77 08          	mov    QWORD PTR [rdi+0x8],rsi
11da4:	c3                   	ret
11da5:	90                   	nop
11da6:	66 2e 0f 1f 84 00 00 	nop    WORD PTR cs:[rax+rax*1+0x0]
11dad:	00 00 00

0000000000011db0 <randread_set_handler_arg>:
11db0:	48 89 77 10          	mov    QWORD PTR [rdi+0x10],rsi
11db4:	c3                   	ret
11db5:	90                   	nop
11db6:	66 2e 0f 1f 84 00 00 	nop    WORD PTR cs:[rax+rax*1+0x0]
11dbd:	00 00 00

0000000000011dc0 <randread>:
11dc0:	41 57                	push   r15
11dc2:	41 56                	push   r14
11dc4:	41 55                	push   r13
11dc6:	41 54                	push   r12
11dc8:	49 89 fc             	mov    r12,rdi
11dcb:	55                   	push   rbp
11dcc:	53                   	push   rbx
11dcd:	48 89 d5             	mov    rbp,rdx
11dd0:	48 89 f3             	mov    rbx,rsi
11dd3:	48 83 ec 18          	sub    rsp,0x18
11dd7:	48 8b 0f             	mov    rcx,QWORD PTR [rdi]
11dda:	48 85 c9             	test   rcx,rcx
11ddd:	48 89 4c 24 08       	mov    QWORD PTR [rsp+0x8],rcx
11de2:	74 64                	je     11e48 <randread+0x88>
11de4:	e8 87 09 ff ff       	call   2770 <__errno_location@plt>
11de9:	48 8b 4c 24 08       	mov    rcx,QWORD PTR [rsp+0x8]
11dee:	49 89 c5             	mov    r13,rax
11df1:	eb 23                	jmp    11e16 <randread+0x56>
11df3:	0f 1f 44 00 00       	nop    DWORD PTR [rax+rax*1+0x0]
11df8:	49 8b 04 24          	mov    rax,QWORD PTR [r12]
11dfc:	49 8b 7c 24 10       	mov    rdi,QWORD PTR [r12+0x10]
11e01:	8b 00                	mov    eax,DWORD PTR [rax]
11e03:	83 e0 20             	and    eax,0x20
11e06:	0f 45 c2             	cmovne eax,edx
11e09:	41 89 45 00          	mov    DWORD PTR [r13+0x0],eax
11e0d:	41 ff 54 24 08       	call   QWORD PTR [r12+0x8]
11e12:	49 8b 0c 24          	mov    rcx,QWORD PTR [r12]
11e16:	48 89 ea             	mov    rdx,rbp
11e19:	48 89 df             	mov    rdi,rbx
11e1c:	be 01 00 00 00       	mov    esi,0x1
11e21:	e8 3a 0a ff ff       	call   2860 <fread_unlocked@plt>
11e26:	48 01 c3             	add    rbx,rax
11e29:	48 29 c5             	sub    rbp,rax
11e2c:	41 8b 55 00          	mov    edx,DWORD PTR [r13+0x0]
11e30:	75 c6                	jne    11df8 <randread+0x38>
11e32:	48 83 c4 18          	add    rsp,0x18
11e36:	5b                   	pop    rbx
11e37:	5d                   	pop    rbp
11e38:	41 5c                	pop    r12
11e3a:	41 5d                	pop    r13
11e3c:	41 5e                	pop    r14
11e3e:	41 5f                	pop    r15
11e40:	c3                   	ret
11e41:	0f 1f 80 00 00 00 00 	nop    DWORD PTR [rax+0x0]
11e48:	4c 8b 77 18          	mov    r14,QWORD PTR [rdi+0x18]
11e4c:	48 8d 87 38 08 00 00 	lea    rax,[rdi+0x838]
11e53:	4c 8d 6f 20          	lea    r13,[rdi+0x20]
11e57:	48 89 44 24 08       	mov    QWORD PTR [rsp+0x8],rax
11e5c:	4c 39 f2             	cmp    rdx,r14
11e5f:	0f 86 dd 00 00 00    	jbe    11f42 <randread+0x182>
11e65:	be 00 08 00 00       	mov    esi,0x800
11e6a:	48 89 df             	mov    rdi,rbx
11e6d:	4c 89 f2             	mov    rdx,r14
11e70:	4c 29 f6             	sub    rsi,r14
11e73:	48 03 74 24 08       	add    rsi,QWORD PTR [rsp+0x8]
11e78:	4c 01 f3             	add    rbx,r14
11e7b:	4c 29 f5             	sub    rbp,r14
11e7e:	e8 dd 0c ff ff       	call   2b60 <memcpy@plt>
11e83:	f6 c3 07             	test   bl,0x7
11e86:	75 68                	jne    11ef0 <randread+0x130>
11e88:	48 81 fd ff 07 00 00 	cmp    rbp,0x7ff
11e8f:	0f 86 9e 00 00 00    	jbe    11f33 <randread+0x173>
11e95:	4c 8d bd 00 f8 ff ff 	lea    r15,[rbp-0x800]
11e9c:	4d 89 fe             	mov    r14,r15
11e9f:	41 81 e6 ff 07 00 00 	and    r14d,0x7ff
11ea6:	eb 14                	jmp    11ebc <randread+0xfc>
11ea8:	0f 1f 84 00 00 00 00 	nop    DWORD PTR [rax+rax*1+0x0]
11eaf:	00
11eb0:	4d 39 f7             	cmp    r15,r14
11eb3:	74 3b                	je     11ef0 <randread+0x130>
11eb5:	49 81 ef 00 08 00 00 	sub    r15,0x800
11ebc:	48 89 de             	mov    rsi,rbx
11ebf:	4c 89 ef             	mov    rdi,r13
11ec2:	48 81 c3 00 08 00 00 	add    rbx,0x800
11ec9:	e8 e2 00 00 00       	call   11fb0 <isaac_refill>
11ece:	4d 85 ff             	test   r15,r15
11ed1:	4c 89 fd             	mov    rbp,r15
11ed4:	75 da                	jne    11eb0 <randread+0xf0>
11ed6:	49 c7 44 24 18 00 00 	mov    QWORD PTR [r12+0x18],0x0
11edd:	00 00
11edf:	48 83 c4 18          	add    rsp,0x18
11ee3:	5b                   	pop    rbx
11ee4:	5d                   	pop    rbp
11ee5:	41 5c                	pop    r12
11ee7:	41 5d                	pop    r13
11ee9:	41 5e                	pop    r14
11eeb:	41 5f                	pop    r15
11eed:	c3                   	ret
11eee:	66 90                	xchg   ax,ax
11ef0:	48 8b 74 24 08       	mov    rsi,QWORD PTR [rsp+0x8]
11ef5:	4c 89 ef             	mov    rdi,r13
11ef8:	41 be 00 08 00 00    	mov    r14d,0x800
11efe:	e8 ad 00 00 00       	call   11fb0 <isaac_refill>
11f03:	48 81 fd 00 08 00 00 	cmp    rbp,0x800
11f0a:	0f 87 55 ff ff ff    	ja     11e65 <randread+0xa5>
11f10:	41 be 00 08 00 00    	mov    r14d,0x800
11f16:	48 8b 74 24 08       	mov    rsi,QWORD PTR [rsp+0x8]
11f1b:	48 89 ea             	mov    rdx,rbp
11f1e:	48 89 df             	mov    rdi,rbx
11f21:	49 29 ee             	sub    r14,rbp
11f24:	e8 37 0c ff ff       	call   2b60 <memcpy@plt>
11f29:	4d 89 74 24 18       	mov    QWORD PTR [r12+0x18],r14
11f2e:	e9 ff fe ff ff       	jmp    11e32 <randread+0x72>
11f33:	48 8b 74 24 08       	mov    rsi,QWORD PTR [rsp+0x8]
11f38:	4c 89 ef             	mov    rdi,r13
11f3b:	e8 70 00 00 00       	call   11fb0 <isaac_refill>
11f40:	eb ce                	jmp    11f10 <randread+0x150>
11f42:	49 89 c7             	mov    r15,rax
11f45:	4d 29 f7             	sub    r15,r14
11f48:	49 8d 87 00 08 00 00 	lea    rax,[r15+0x800]
11f4f:	48 89 44 24 08       	mov    QWORD PTR [rsp+0x8],rax
11f54:	eb c0                	jmp    11f16 <randread+0x156>
11f56:	66 2e 0f 1f 84 00 00 	nop    WORD PTR cs:[rax+rax*1+0x0]
11f5d:	00 00 00

0000000000011f60 <randread_free>:
11f60:	55                   	push   rbp
11f61:	53                   	push   rbx
11f62:	48 c7 c2 ff ff ff ff 	mov    rdx,0xffffffffffffffff
11f69:	48 89 fb             	mov    rbx,rdi
11f6c:	be 38 10 00 00       	mov    esi,0x1038
11f71:	48 83 ec 08          	sub    rsp,0x8
11f75:	48 8b 2f             	mov    rbp,QWORD PTR [rdi]
11f78:	e8 43 0d ff ff       	call   2cc0 <__explicit_bzero_chk@plt>
11f7d:	48 89 df             	mov    rdi,rbx
11f80:	e8 8b 0e ff ff       	call   2e10 <free@plt>
11f85:	48 85 ed             	test   rbp,rbp
11f88:	74 16                	je     11fa0 <randread_free+0x40>
11f8a:	48 83 c4 08          	add    rsp,0x8
11f8e:	48 89 ef             	mov    rdi,rbp
11f91:	5b                   	pop    rbx
11f92:	5d                   	pop    rbp
11f93:	e9 f8 04 00 00       	jmp    12490 <rpl_fclose>
11f98:	0f 1f 84 00 00 00 00 	nop    DWORD PTR [rax+rax*1+0x0]
11f9f:	00
11fa0:	48 83 c4 08          	add    rsp,0x8
11fa4:	31 c0                	xor    eax,eax
11fa6:	5b                   	pop    rbx
11fa7:	5d                   	pop    rbp
11fa8:	c3                   	ret
11fa9:	0f 1f 80 00 00 00 00 	nop    DWORD PTR [rax+0x0]

0000000000011fb0 <isaac_refill>:
11fb0:	48 8b 87 10 08 00 00 	mov    rax,QWORD PTR [rdi+0x810]
11fb7:	48 8b 97 00 08 00 00 	mov    rdx,QWORD PTR [rdi+0x800]
11fbe:	4c 8d 8f 00 04 00 00 	lea    r9,[rdi+0x400]
11fc5:	48 8d 48 01          	lea    rcx,[rax+0x1]
11fc9:	48 89 f8             	mov    rax,rdi
11fcc:	48 89 8f 10 08 00 00 	mov    QWORD PTR [rdi+0x810],rcx
11fd3:	48 03 8f 08 08 00 00 	add    rcx,QWORD PTR [rdi+0x808]
11fda:	66 0f 1f 44 00 00    	nop    WORD PTR [rax+rax*1+0x0]
11fe0:	49 89 d0             	mov    r8,rdx
11fe3:	49 c1 e0 15          	shl    r8,0x15
11fe7:	4c 31 c2             	xor    rdx,r8
11fea:	4c 8b 00             	mov    r8,QWORD PTR [rax]
11fed:	48 f7 d2             	not    rdx
11ff0:	48 03 90 00 04 00 00 	add    rdx,QWORD PTR [rax+0x400]
11ff7:	4d 89 c2             	mov    r10,r8
11ffa:	41 81 e2 f8 07 00 00 	and    r10d,0x7f8
12001:	4e 8b 1c 17          	mov    r11,QWORD PTR [rdi+r10*1]
12005:	49 89 d2             	mov    r10,rdx
12008:	49 c1 ea 05          	shr    r10,0x5
1200c:	49 01 d3             	add    r11,rdx
1200f:	4c 31 d2             	xor    rdx,r10
12012:	4c 01 d9             	add    rcx,r11
12015:	48 89 08             	mov    QWORD PTR [rax],rcx
12018:	48 c1 e9 08          	shr    rcx,0x8
1201c:	81 e1 f8 07 00 00    	and    ecx,0x7f8
12022:	4c 8b 1c 0f          	mov    r11,QWORD PTR [rdi+rcx*1]
12026:	4d 01 c3             	add    r11,r8
12029:	4c 89 1e             	mov    QWORD PTR [rsi],r11
1202c:	48 03 90 08 04 00 00 	add    rdx,QWORD PTR [rax+0x408]
12033:	48 8b 48 08          	mov    rcx,QWORD PTR [rax+0x8]
12037:	49 89 d2             	mov    r10,rdx
1203a:	48 89 ca             	mov    rdx,rcx
1203d:	81 e2 f8 07 00 00    	and    edx,0x7f8
12043:	4c 8b 04 17          	mov    r8,QWORD PTR [rdi+rdx*1]
12047:	4c 89 d2             	mov    rdx,r10
1204a:	48 c1 e2 0c          	shl    rdx,0xc
1204e:	4c 31 d2             	xor    rdx,r10
12051:	4d 01 d0             	add    r8,r10
12054:	4d 01 d8             	add    r8,r11
12057:	4c 89 40 08          	mov    QWORD PTR [rax+0x8],r8
1205b:	49 c1 e8 08          	shr    r8,0x8
1205f:	41 81 e0 f8 07 00 00 	and    r8d,0x7f8
12066:	4a 03 0c 07          	add    rcx,QWORD PTR [rdi+r8*1]
1206a:	48 89 4e 08          	mov    QWORD PTR [rsi+0x8],rcx
1206e:	4c 8b 40 10          	mov    r8,QWORD PTR [rax+0x10]
12072:	49 89 cb             	mov    r11,rcx
12075:	48 03 90 10 04 00 00 	add    rdx,QWORD PTR [rax+0x410]
1207c:	4c 89 c1             	mov    rcx,r8
1207f:	81 e1 f8 07 00 00    	and    ecx,0x7f8
12085:	4c 8b 14 0f          	mov    r10,QWORD PTR [rdi+rcx*1]
12089:	49 01 d2             	add    r10,rdx
1208c:	4c 89 d1             	mov    rcx,r10
1208f:	4c 01 d9             	add    rcx,r11
12092:	48 89 48 10          	mov    QWORD PTR [rax+0x10],rcx
12096:	48 c1 e9 08          	shr    rcx,0x8
1209a:	81 e1 f8 07 00 00    	and    ecx,0x7f8
120a0:	4c 8b 14 0f          	mov    r10,QWORD PTR [rdi+rcx*1]
120a4:	48 89 d1             	mov    rcx,rdx
120a7:	48 c1 e9 21          	shr    rcx,0x21
120ab:	48 31 ca             	xor    rdx,rcx
120ae:	4d 01 c2             	add    r10,r8
120b1:	4c 89 56 10          	mov    QWORD PTR [rsi+0x10],r10
120b5:	48 8b 48 18          	mov    rcx,QWORD PTR [rax+0x18]
120b9:	48 03 90 18 04 00 00 	add    rdx,QWORD PTR [rax+0x418]
120c0:	49 89 c8             	mov    r8,rcx
120c3:	41 81 e0 f8 07 00 00 	and    r8d,0x7f8
120ca:	4e 8b 1c 07          	mov    r11,QWORD PTR [rdi+r8*1]
120ce:	49 01 d3             	add    r11,rdx
120d1:	4d 89 d8             	mov    r8,r11
120d4:	4d 01 d0             	add    r8,r10
120d7:	48 83 c0 20          	add    rax,0x20
120db:	48 83 c6 20          	add    rsi,0x20
120df:	4c 89 40 f8          	mov    QWORD PTR [rax-0x8],r8
120e3:	49 c1 e8 08          	shr    r8,0x8
120e7:	41 81 e0 f8 07 00 00 	and    r8d,0x7f8
120ee:	4a 03 0c 07          	add    rcx,QWORD PTR [rdi+r8*1]
120f2:	48 89 4e f8          	mov    QWORD PTR [rsi-0x8],rcx
120f6:	4c 39 c8             	cmp    rax,r9
120f9:	0f 82 e1 fe ff ff    	jb     11fe0 <isaac_refill+0x30>
120ff:	4c 8d 8f 00 08 00 00 	lea    r9,[rdi+0x800]
12106:	66 2e 0f 1f 84 00 00 	nop    WORD PTR cs:[rax+rax*1+0x0]
1210d:	00 00 00
12110:	49 89 d0             	mov    r8,rdx
12113:	49 c1 e0 15          	shl    r8,0x15
12117:	4c 31 c2             	xor    rdx,r8
1211a:	4c 8b 00             	mov    r8,QWORD PTR [rax]
1211d:	48 f7 d2             	not    rdx
12120:	48 03 90 00 fc ff ff 	add    rdx,QWORD PTR [rax-0x400]
12127:	4d 89 c2             	mov    r10,r8
1212a:	41 81 e2 f8 07 00 00 	and    r10d,0x7f8
12131:	4e 8b 1c 17          	mov    r11,QWORD PTR [rdi+r10*1]
12135:	49 89 d2             	mov    r10,rdx
12138:	49 c1 ea 05          	shr    r10,0x5
1213c:	49 01 d3             	add    r11,rdx
1213f:	4c 31 d2             	xor    rdx,r10
12142:	4c 01 d9             	add    rcx,r11
12145:	48 89 08             	mov    QWORD PTR [rax],rcx
12148:	48 c1 e9 08          	shr    rcx,0x8
1214c:	81 e1 f8 07 00 00    	and    ecx,0x7f8
12152:	4c 8b 1c 0f          	mov    r11,QWORD PTR [rdi+rcx*1]
12156:	4d 01 c3             	add    r11,r8
12159:	4c 89 1e             	mov    QWORD PTR [rsi],r11
1215c:	48 03 90 08 fc ff ff 	add    rdx,QWORD PTR [rax-0x3f8]
12163:	48 8b 48 08          	mov    rcx,QWORD PTR [rax+0x8]
12167:	49 89 d2             	mov    r10,rdx
1216a:	48 89 ca             	mov    rdx,rcx
1216d:	81 e2 f8 07 00 00    	and    edx,0x7f8
12173:	4c 8b 04 17          	mov    r8,QWORD PTR [rdi+rdx*1]
12177:	4c 89 d2             	mov    rdx,r10
1217a:	48 c1 e2 0c          	shl    rdx,0xc
1217e:	4c 31 d2             	xor    rdx,r10
12181:	4d 01 d0             	add    r8,r10
12184:	4d 01 d8             	add    r8,r11
12187:	4c 89 40 08          	mov    QWORD PTR [rax+0x8],r8
1218b:	49 c1 e8 08          	shr    r8,0x8
1218f:	41 81 e0 f8 07 00 00 	and    r8d,0x7f8
12196:	4a 03 0c 07          	add    rcx,QWORD PTR [rdi+r8*1]
1219a:	48 89 4e 08          	mov    QWORD PTR [rsi+0x8],rcx
1219e:	4c 8b 40 10          	mov    r8,QWORD PTR [rax+0x10]
121a2:	49 89 cb             	mov    r11,rcx
121a5:	48 03 90 10 fc ff ff 	add    rdx,QWORD PTR [rax-0x3f0]
121ac:	4c 89 c1             	mov    rcx,r8
121af:	81 e1 f8 07 00 00    	and    ecx,0x7f8
121b5:	4c 8b 14 0f          	mov    r10,QWORD PTR [rdi+rcx*1]
121b9:	49 01 d2             	add    r10,rdx
121bc:	4c 89 d1             	mov    rcx,r10
121bf:	4c 01 d9             	add    rcx,r11
121c2:	48 89 48 10          	mov    QWORD PTR [rax+0x10],rcx
121c6:	48 c1 e9 08          	shr    rcx,0x8
121ca:	81 e1 f8 07 00 00    	and    ecx,0x7f8
121d0:	4c 8b 14 0f          	mov    r10,QWORD PTR [rdi+rcx*1]
121d4:	48 89 d1             	mov    rcx,rdx
121d7:	48 c1 e9 21          	shr    rcx,0x21
121db:	48 31 ca             	xor    rdx,rcx
121de:	4d 01 c2             	add    r10,r8
121e1:	4c 89 56 10          	mov    QWORD PTR [rsi+0x10],r10
121e5:	48 8b 48 18          	mov    rcx,QWORD PTR [rax+0x18]
121e9:	48 03 90 18 fc ff ff 	add    rdx,QWORD PTR [rax-0x3e8]
121f0:	49 89 c8             	mov    r8,rcx
121f3:	41 81 e0 f8 07 00 00 	and    r8d,0x7f8
121fa:	4e 8b 1c 07          	mov    r11,QWORD PTR [rdi+r8*1]
121fe:	49 01 d3             	add    r11,rdx
12201:	4d 89 d8             	mov    r8,r11
12204:	4d 01 d0             	add    r8,r10
12207:	48 83 c0 20          	add    rax,0x20
1220b:	48 83 c6 20          	add    rsi,0x20
1220f:	4c 89 40 f8          	mov    QWORD PTR [rax-0x8],r8
12213:	49 c1 e8 08          	shr    r8,0x8
12217:	41 81 e0 f8 07 00 00 	and    r8d,0x7f8
1221e:	4a 03 0c 07          	add    rcx,QWORD PTR [rdi+r8*1]
12222:	48 89 4e f8          	mov    QWORD PTR [rsi-0x8],rcx
12226:	4c 39 c8             	cmp    rax,r9
12229:	0f 82 e1 fe ff ff    	jb     12110 <isaac_refill+0x160>
1222f:	48 89 97 00 08 00 00 	mov    QWORD PTR [rdi+0x800],rdx
12236:	48 89 8f 08 08 00 00 	mov    QWORD PTR [rdi+0x808],rcx
1223d:	c3                   	ret
1223e:	66 90                	xchg   ax,ax

0000000000012240 <isaac_seed>:
12240:	41 55                	push   r13
12242:	41 54                	push   r12
12244:	4c 8d a7 00 08 00 00 	lea    r12,[rdi+0x800]
1224b:	55                   	push   rbp
1224c:	48 89 fa             	mov    rdx,rdi
1224f:	53                   	push   rbx
12250:	48 89 f8             	mov    rax,rdi
12253:	48 b9 ab c0 44 6c 4f 	movabs rcx,0x98f5704f6c44c0ab
1225a:	70 f5 98
1225d:	49 ba ed 89 fc cb f2 	movabs r10,0xae985bf2cbfc89ed
12264:	5b 98 ae
12267:	48 bd 15 93 a0 a5 0f 	movabs rbp,0x48fe4a0fa5a09315
1226e:	4a fe 48
12271:	48 be ce e0 55 83 db 	movabs rsi,0x82f053db8355e0ce
12278:	53 f0 82
1227b:	49 b8 24 55 59 4a 82 	movabs r8,0xb29b2e824a595524
12282:	2e 9b b2
12285:	48 bb a0 12 47 3d 05 	movabs rbx,0x8c0ea5053d4712a0
1228c:	a5 0e 8c
1228f:	49 bb 62 c8 3a c7 22 	movabs r11,0xb9f8b322c73ac862
12296:	b3 f8 b9
12299:	49 b9 7c 4b 88 a2 77 	movabs r9,0x647c4677a2884b7c
122a0:	46 7c 64
122a3:	0f 1f 44 00 00       	nop    DWORD PTR [rax+rax*1+0x0]
122a8:	48 03 70 20          	add    rsi,QWORD PTR [rax+0x20]
122ac:	48 03 48 38          	add    rcx,QWORD PTR [rax+0x38]
122b0:	4c 8b 28             	mov    r13,QWORD PTR [rax]
122b3:	48 03 68 28          	add    rbp,QWORD PTR [rax+0x28]
122b7:	4c 03 50 30          	add    r10,QWORD PTR [rax+0x30]
122bb:	49 29 f5             	sub    r13,rsi
122be:	4d 01 e9             	add    r9,r13
122c1:	49 89 cd             	mov    r13,rcx
122c4:	49 c1 ed 09          	shr    r13,0x9
122c8:	4c 01 c9             	add    rcx,r9
122cb:	4c 31 ed             	xor    rbp,r13
122ce:	4c 8b 68 08          	mov    r13,QWORD PTR [rax+0x8]
122d2:	49 29 ed             	sub    r13,rbp
122d5:	4d 01 eb             	add    r11,r13
122d8:	4d 89 cd             	mov    r13,r9
122db:	49 c1 e5 09          	shl    r13,0x9
122df:	4d 01 d9             	add    r9,r11
122e2:	4d 31 ea             	xor    r10,r13
122e5:	4c 8b 68 10          	mov    r13,QWORD PTR [rax+0x10]
122e9:	4d 29 d5             	sub    r13,r10
122ec:	4c 01 eb             	add    rbx,r13
122ef:	4d 89 dd             	mov    r13,r11
122f2:	49 c1 ed 17          	shr    r13,0x17
122f6:	49 01 db             	add    r11,rbx
122f9:	4c 31 e9             	xor    rcx,r13
122fc:	4c 8b 68 18          	mov    r13,QWORD PTR [rax+0x18]
12300:	49 29 cd             	sub    r13,rcx
12303:	4d 01 e8             	add    r8,r13
12306:	49 89 dd             	mov    r13,rbx
12309:	49 c1 e5 0f          	shl    r13,0xf
1230d:	4c 01 c3             	add    rbx,r8
12310:	4d 31 e9             	xor    r9,r13
12313:	4d 89 c5             	mov    r13,r8
12316:	4c 29 ce             	sub    rsi,r9
12319:	49 c1 ed 0e          	shr    r13,0xe
1231d:	4c 89 08             	mov    QWORD PTR [rax],r9
12320:	4d 31 eb             	xor    r11,r13
12323:	49 89 f5             	mov    r13,rsi
12326:	49 01 f0             	add    r8,rsi
12329:	4c 29 dd             	sub    rbp,r11
1232c:	49 c1 e5 14          	shl    r13,0x14
12330:	4c 89 58 08          	mov    QWORD PTR [rax+0x8],r11
12334:	4c 31 eb             	xor    rbx,r13
12337:	4c 8d 2c 2e          	lea    r13,[rsi+rbp*1]
1233b:	48 89 ee             	mov    rsi,rbp
1233e:	49 29 da             	sub    r10,rbx
12341:	48 c1 ee 11          	shr    rsi,0x11
12345:	48 89 58 10          	mov    QWORD PTR [rax+0x10],rbx
12349:	49 31 f0             	xor    r8,rsi
1234c:	4c 89 d6             	mov    rsi,r10
1234f:	4c 01 d5             	add    rbp,r10
12352:	4c 29 c1             	sub    rcx,r8
12355:	48 c1 e6 0e          	shl    rsi,0xe
12359:	4c 89 40 18          	mov    QWORD PTR [rax+0x18],r8
1235d:	4c 31 ee             	xor    rsi,r13
12360:	49 01 ca             	add    r10,rcx
12363:	48 89 68 28          	mov    QWORD PTR [rax+0x28],rbp
12367:	48 89 70 20          	mov    QWORD PTR [rax+0x20],rsi
1236b:	4c 89 50 30          	mov    QWORD PTR [rax+0x30],r10
1236f:	48 83 c0 40          	add    rax,0x40
12373:	48 89 48 f8          	mov    QWORD PTR [rax-0x8],rcx
12377:	49 39 c4             	cmp    r12,rax
1237a:	0f 85 28 ff ff ff    	jne    122a8 <isaac_seed+0x68>
12380:	48 03 72 20          	add    rsi,QWORD PTR [rdx+0x20]
12384:	48 03 4a 38          	add    rcx,QWORD PTR [rdx+0x38]
12388:	4c 8b 22             	mov    r12,QWORD PTR [rdx]
1238b:	48 03 6a 28          	add    rbp,QWORD PTR [rdx+0x28]
1238f:	4c 03 52 30          	add    r10,QWORD PTR [rdx+0x30]
12393:	49 29 f4             	sub    r12,rsi
12396:	4d 01 e1             	add    r9,r12
12399:	49 89 cc             	mov    r12,rcx
1239c:	49 c1 ec 09          	shr    r12,0x9
123a0:	4c 01 c9             	add    rcx,r9
123a3:	4c 31 e5             	xor    rbp,r12
123a6:	4c 8b 62 08          	mov    r12,QWORD PTR [rdx+0x8]
123aa:	49 29 ec             	sub    r12,rbp
123ad:	4d 01 e3             	add    r11,r12
123b0:	4d 89 cc             	mov    r12,r9
123b3:	49 c1 e4 09          	shl    r12,0x9
123b7:	4d 01 d9             	add    r9,r11
123ba:	4d 31 e2             	xor    r10,r12
123bd:	4c 8b 62 10          	mov    r12,QWORD PTR [rdx+0x10]
123c1:	4d 29 d4             	sub    r12,r10
123c4:	4c 01 e3             	add    rbx,r12
123c7:	4d 89 dc             	mov    r12,r11
123ca:	49 c1 ec 17          	shr    r12,0x17
123ce:	49 01 db             	add    r11,rbx
123d1:	4c 31 e1             	xor    rcx,r12
123d4:	4c 8b 62 18          	mov    r12,QWORD PTR [rdx+0x18]
123d8:	49 29 cc             	sub    r12,rcx
123db:	4d 01 e0             	add    r8,r12
123de:	49 89 dc             	mov    r12,rbx
123e1:	49 c1 e4 0f          	shl    r12,0xf
123e5:	4c 01 c3             	add    rbx,r8
123e8:	4d 31 e1             	xor    r9,r12
123eb:	4d 89 c4             	mov    r12,r8
123ee:	4c 29 ce             	sub    rsi,r9
123f1:	49 c1 ec 0e          	shr    r12,0xe
123f5:	4c 89 0a             	mov    QWORD PTR [rdx],r9
123f8:	4d 31 e3             	xor    r11,r12
123fb:	49 89 f4             	mov    r12,rsi
123fe:	49 01 f0             	add    r8,rsi
12401:	4c 29 dd             	sub    rbp,r11
12404:	49 c1 e4 14          	shl    r12,0x14
12408:	4c 89 5a 08          	mov    QWORD PTR [rdx+0x8],r11
1240c:	4c 31 e3             	xor    rbx,r12
1240f:	4c 8d 24 2e          	lea    r12,[rsi+rbp*1]
12413:	48 89 ee             	mov    rsi,rbp
12416:	49 29 da             	sub    r10,rbx
12419:	48 c1 ee 11          	shr    rsi,0x11
1241d:	48 89 5a 10          	mov    QWORD PTR [rdx+0x10],rbx
12421:	49 31 f0             	xor    r8,rsi
12424:	4c 89 d6             	mov    rsi,r10
12427:	4c 01 d5             	add    rbp,r10
1242a:	4c 29 c1             	sub    rcx,r8
1242d:	48 c1 e6 0e          	shl    rsi,0xe
12431:	4c 89 42 18          	mov    QWORD PTR [rdx+0x18],r8
12435:	4c 31 e6             	xor    rsi,r12
12438:	49 01 ca             	add    r10,rcx
1243b:	48 89 6a 28          	mov    QWORD PTR [rdx+0x28],rbp
1243f:	48 89 72 20          	mov    QWORD PTR [rdx+0x20],rsi
12443:	4c 89 52 30          	mov    QWORD PTR [rdx+0x30],r10
12447:	48 83 c2 40          	add    rdx,0x40
1244b:	48 89 4a f8          	mov    QWORD PTR [rdx-0x8],rcx
1244f:	48 39 d0             	cmp    rax,rdx
12452:	0f 85 28 ff ff ff    	jne    12380 <isaac_seed+0x140>
12458:	5b                   	pop    rbx
12459:	48 c7 87 10 08 00 00 	mov    QWORD PTR [rdi+0x810],0x0
12460:	00 00 00 00
12464:	48 c7 87 08 08 00 00 	mov    QWORD PTR [rdi+0x808],0x0
1246b:	00 00 00 00
1246f:	5d                   	pop    rbp
12470:	48 c7 87 00 08 00 00 	mov    QWORD PTR [rdi+0x800],0x0
12477:	00 00 00 00
1247b:	41 5c                	pop    r12
1247d:	41 5d                	pop    r13
1247f:	c3                   	ret

0000000000012480 <dup_safer>:
12480:	ba 03 00 00 00       	mov    edx,0x3
12485:	31 f6                	xor    esi,esi
12487:	31 c0                	xor    eax,eax
12489:	e9 82 00 00 00       	jmp    12510 <rpl_fcntl>
1248e:	66 90                	xchg   ax,ax

0000000000012490 <rpl_fclose>:
12490:	41 54                	push   r12
12492:	55                   	push   rbp
12493:	53                   	push   rbx
12494:	48 89 fb             	mov    rbx,rdi
12497:	e8 e4 06 ff ff       	call   2b80 <fileno@plt>
1249c:	85 c0                	test   eax,eax
1249e:	48 89 df             	mov    rdi,rbx
124a1:	78 54                	js     124f7 <rpl_fclose+0x67>
124a3:	e8 68 07 ff ff       	call   2c10 <__freading@plt>
124a8:	85 c0                	test   eax,eax
124aa:	75 2c                	jne    124d8 <rpl_fclose+0x48>
124ac:	48 89 df             	mov    rdi,rbx
124af:	e8 9c ee ff ff       	call   11350 <rpl_fflush>
124b4:	85 c0                	test   eax,eax
124b6:	74 3c                	je     124f4 <rpl_fclose+0x64>
124b8:	e8 b3 02 ff ff       	call   2770 <__errno_location@plt>
124bd:	44 8b 20             	mov    r12d,DWORD PTR [rax]
124c0:	48 89 df             	mov    rdi,rbx
124c3:	48 89 c5             	mov    rbp,rax
124c6:	e8 c5 03 ff ff       	call   2890 <fclose@plt>
124cb:	45 85 e4             	test   r12d,r12d
124ce:	75 30                	jne    12500 <rpl_fclose+0x70>
124d0:	5b                   	pop    rbx
124d1:	5d                   	pop    rbp
124d2:	41 5c                	pop    r12
124d4:	c3                   	ret
124d5:	0f 1f 00             	nop    DWORD PTR [rax]
124d8:	48 89 df             	mov    rdi,rbx
124db:	e8 a0 06 ff ff       	call   2b80 <fileno@plt>
124e0:	31 f6                	xor    esi,esi
124e2:	ba 01 00 00 00       	mov    edx,0x1
124e7:	89 c7                	mov    edi,eax
124e9:	e8 d2 04 ff ff       	call   29c0 <lseek@plt>
124ee:	48 83 f8 ff          	cmp    rax,0xffffffffffffffff
124f2:	75 b8                	jne    124ac <rpl_fclose+0x1c>
124f4:	48 89 df             	mov    rdi,rbx
124f7:	5b                   	pop    rbx
124f8:	5d                   	pop    rbp
124f9:	41 5c                	pop    r12
124fb:	e9 90 03 ff ff       	jmp    2890 <fclose@plt>
12500:	44 89 65 00          	mov    DWORD PTR [rbp+0x0],r12d
12504:	b8 ff ff ff ff       	mov    eax,0xffffffff
12509:	eb c5                	jmp    124d0 <rpl_fclose+0x40>
1250b:	0f 1f 44 00 00       	nop    DWORD PTR [rax+rax*1+0x0]

0000000000012510 <rpl_fcntl>:
12510:	41 54                	push   r12
12512:	55                   	push   rbp
12513:	89 fd                	mov    ebp,edi
12515:	53                   	push   rbx
12516:	48 83 ec 50          	sub    rsp,0x50
1251a:	64 48 8b 04 25 28 00 	mov    rax,QWORD PTR fs:0x28
12521:	00 00
12523:	48 89 44 24 18       	mov    QWORD PTR [rsp+0x18],rax
12528:	31 c0                	xor    eax,eax
1252a:	48 8d 44 24 70       	lea    rax,[rsp+0x70]
1252f:	85 f6                	test   esi,esi
12531:	48 89 54 24 30       	mov    QWORD PTR [rsp+0x30],rdx
12536:	48 89 4c 24 38       	mov    QWORD PTR [rsp+0x38],rcx
1253b:	4c 89 44 24 40       	mov    QWORD PTR [rsp+0x40],r8
12540:	48 89 44 24 08       	mov    QWORD PTR [rsp+0x8],rax
12545:	48 8d 44 24 20       	lea    rax,[rsp+0x20]
1254a:	4c 89 4c 24 48       	mov    QWORD PTR [rsp+0x48],r9
1254f:	c7 04 24 10 00 00 00 	mov    DWORD PTR [rsp],0x10
12556:	48 89 44 24 10       	mov    QWORD PTR [rsp+0x10],rax
1255b:	0f 84 01 02 00 00    	je     12762 <rpl_fcntl+0x252>
12561:	81 fe 06 04 00 00    	cmp    esi,0x406
12567:	75 47                	jne    125b0 <rpl_fcntl+0xa0>
12569:	48 8b 44 24 10       	mov    rax,QWORD PTR [rsp+0x10]
1256e:	83 3d 9f 81 20 00 00 	cmp    DWORD PTR [rip+0x20819f],0x0        # 21a714 <have_dupfd_cloexec.3326>
12575:	c7 04 24 18 00 00 00 	mov    DWORD PTR [rsp],0x18
1257c:	44 8b 60 10          	mov    r12d,DWORD PTR [rax+0x10]
12580:	44 89 e2             	mov    edx,r12d
12583:	0f 88 2a 01 00 00    	js     126b3 <rpl_fcntl+0x1a3>
12589:	31 c0                	xor    eax,eax
1258b:	be 06 04 00 00       	mov    esi,0x406
12590:	e8 8b 02 ff ff       	call   2820 <fcntl@plt>
12595:	85 c0                	test   eax,eax
12597:	89 c3                	mov    ebx,eax
12599:	0f 88 89 01 00 00    	js     12728 <rpl_fcntl+0x218>
1259f:	c7 05 6b 81 20 00 01 	mov    DWORD PTR [rip+0x20816b],0x1        # 21a714 <have_dupfd_cloexec.3326>
125a6:	00 00 00
125a9:	eb 45                	jmp    125f0 <rpl_fcntl+0xe0>
125ab:	0f 1f 44 00 00       	nop    DWORD PTR [rax+rax*1+0x0]
125b0:	83 fe 0b             	cmp    esi,0xb
125b3:	74 2b                	je     125e0 <rpl_fcntl+0xd0>
125b5:	7f 59                	jg     12610 <rpl_fcntl+0x100>
125b7:	83 fe 04             	cmp    esi,0x4
125ba:	0f 84 d0 00 00 00    	je     12690 <rpl_fcntl+0x180>
125c0:	0f 8f ba 00 00 00    	jg     12680 <rpl_fcntl+0x170>
125c6:	83 fe 02             	cmp    esi,0x2
125c9:	0f 84 c1 00 00 00    	je     12690 <rpl_fcntl+0x180>
125cf:	7f 0f                	jg     125e0 <rpl_fcntl+0xd0>
125d1:	83 fe 01             	cmp    esi,0x1
125d4:	75 62                	jne    12638 <rpl_fcntl+0x128>
125d6:	66 2e 0f 1f 84 00 00 	nop    WORD PTR cs:[rax+rax*1+0x0]
125dd:	00 00 00
125e0:	89 ef                	mov    edi,ebp
125e2:	31 c0                	xor    eax,eax
125e4:	e8 37 02 ff ff       	call   2820 <fcntl@plt>
125e9:	89 c3                	mov    ebx,eax
125eb:	0f 1f 44 00 00       	nop    DWORD PTR [rax+rax*1+0x0]
125f0:	48 8b 4c 24 18       	mov    rcx,QWORD PTR [rsp+0x18]
125f5:	64 48 33 0c 25 28 00 	xor    rcx,QWORD PTR fs:0x28
125fc:	00 00
125fe:	89 d8                	mov    eax,ebx
12600:	0f 85 57 01 00 00    	jne    1275d <rpl_fcntl+0x24d>
12606:	48 83 c4 50          	add    rsp,0x50
1260a:	5b                   	pop    rbx
1260b:	5d                   	pop    rbp
1260c:	41 5c                	pop    r12
1260e:	c3                   	ret
1260f:	90                   	nop
12610:	81 fe 07 04 00 00    	cmp    esi,0x407
12616:	7f 48                	jg     12660 <rpl_fcntl+0x150>
12618:	81 fe 06 04 00 00    	cmp    esi,0x406
1261e:	7d 70                	jge    12690 <rpl_fcntl+0x180>
12620:	81 fe 01 04 00 00    	cmp    esi,0x401
12626:	74 b8                	je     125e0 <rpl_fcntl+0xd0>
12628:	81 fe 02 04 00 00    	cmp    esi,0x402
1262e:	74 60                	je     12690 <rpl_fcntl+0x180>
12630:	81 fe 00 04 00 00    	cmp    esi,0x400
12636:	74 58                	je     12690 <rpl_fcntl+0x180>
12638:	8b 04 24             	mov    eax,DWORD PTR [rsp]
1263b:	83 f8 2f             	cmp    eax,0x2f
1263e:	0f 87 36 01 00 00    	ja     1277a <rpl_fcntl+0x26a>
12644:	48 03 44 24 10       	add    rax,QWORD PTR [rsp+0x10]
12649:	48 8b 10             	mov    rdx,QWORD PTR [rax]
1264c:	89 ef                	mov    edi,ebp
1264e:	31 c0                	xor    eax,eax
12650:	e8 cb 01 ff ff       	call   2820 <fcntl@plt>
12655:	89 c3                	mov    ebx,eax
12657:	eb 97                	jmp    125f0 <rpl_fcntl+0xe0>
12659:	0f 1f 80 00 00 00 00 	nop    DWORD PTR [rax+0x0]
12660:	81 fe 09 04 00 00    	cmp    esi,0x409
12666:	74 28                	je     12690 <rpl_fcntl+0x180>
12668:	0f 8c 72 ff ff ff    	jl     125e0 <rpl_fcntl+0xd0>
1266e:	81 fe 0a 04 00 00    	cmp    esi,0x40a
12674:	75 c2                	jne    12638 <rpl_fcntl+0x128>
12676:	e9 65 ff ff ff       	jmp    125e0 <rpl_fcntl+0xd0>
1267b:	0f 1f 44 00 00       	nop    DWORD PTR [rax+rax*1+0x0]
12680:	83 fe 09             	cmp    esi,0x9
12683:	0f 84 57 ff ff ff    	je     125e0 <rpl_fcntl+0xd0>
12689:	7f 05                	jg     12690 <rpl_fcntl+0x180>
1268b:	83 fe 08             	cmp    esi,0x8
1268e:	75 a8                	jne    12638 <rpl_fcntl+0x128>
12690:	8b 04 24             	mov    eax,DWORD PTR [rsp]
12693:	83 f8 2f             	cmp    eax,0x2f
12696:	0f 87 e8 00 00 00    	ja     12784 <rpl_fcntl+0x274>
1269c:	48 03 44 24 10       	add    rax,QWORD PTR [rsp+0x10]
126a1:	8b 10                	mov    edx,DWORD PTR [rax]
126a3:	89 ef                	mov    edi,ebp
126a5:	31 c0                	xor    eax,eax
126a7:	e8 74 01 ff ff       	call   2820 <fcntl@plt>
126ac:	89 c3                	mov    ebx,eax
126ae:	e9 3d ff ff ff       	jmp    125f0 <rpl_fcntl+0xe0>
126b3:	31 f6                	xor    esi,esi
126b5:	31 c0                	xor    eax,eax
126b7:	e8 64 01 ff ff       	call   2820 <fcntl@plt>
126bc:	85 c0                	test   eax,eax
126be:	89 c3                	mov    ebx,eax
126c0:	0f 88 2a ff ff ff    	js     125f0 <rpl_fcntl+0xe0>
126c6:	83 3d 47 80 20 00 ff 	cmp    DWORD PTR [rip+0x208047],0xffffffff        # 21a714 <have_dupfd_cloexec.3326>
126cd:	0f 85 1d ff ff ff    	jne    125f0 <rpl_fcntl+0xe0>
126d3:	31 c0                	xor    eax,eax
126d5:	be 01 00 00 00       	mov    esi,0x1
126da:	89 df                	mov    edi,ebx
126dc:	e8 3f 01 ff ff       	call   2820 <fcntl@plt>
126e1:	85 c0                	test   eax,eax
126e3:	78 1c                	js     12701 <rpl_fcntl+0x1f1>
126e5:	83 c8 01             	or     eax,0x1
126e8:	be 02 00 00 00       	mov    esi,0x2
126ed:	89 df                	mov    edi,ebx
126ef:	89 c2                	mov    edx,eax
126f1:	31 c0                	xor    eax,eax
126f3:	e8 28 01 ff ff       	call   2820 <fcntl@plt>
126f8:	83 f8 ff             	cmp    eax,0xffffffff
126fb:	0f 85 ef fe ff ff    	jne    125f0 <rpl_fcntl+0xe0>
12701:	e8 6a 00 ff ff       	call   2770 <__errno_location@plt>
12706:	44 8b 20             	mov    r12d,DWORD PTR [rax]
12709:	48 89 c5             	mov    rbp,rax
1270c:	89 df                	mov    edi,ebx
1270e:	e8 1d 03 ff ff       	call   2a30 <close@plt>
12713:	bb ff ff ff ff       	mov    ebx,0xffffffff
12718:	44 89 65 00          	mov    DWORD PTR [rbp+0x0],r12d
1271c:	e9 cf fe ff ff       	jmp    125f0 <rpl_fcntl+0xe0>
12721:	0f 1f 80 00 00 00 00 	nop    DWORD PTR [rax+0x0]
12728:	e8 43 00 ff ff       	call   2770 <__errno_location@plt>
1272d:	83 38 16             	cmp    DWORD PTR [rax],0x16
12730:	0f 85 69 fe ff ff    	jne    1259f <rpl_fcntl+0x8f>
12736:	31 f6                	xor    esi,esi
12738:	31 c0                	xor    eax,eax
1273a:	44 89 e2             	mov    edx,r12d
1273d:	89 ef                	mov    edi,ebp
1273f:	e8 dc 00 ff ff       	call   2820 <fcntl@plt>
12744:	85 c0                	test   eax,eax
12746:	89 c3                	mov    ebx,eax
12748:	0f 88 a2 fe ff ff    	js     125f0 <rpl_fcntl+0xe0>
1274e:	c7 05 bc 7f 20 00 ff 	mov    DWORD PTR [rip+0x207fbc],0xffffffff        # 21a714 <have_dupfd_cloexec.3326>
12755:	ff ff ff
12758:	e9 76 ff ff ff       	jmp    126d3 <rpl_fcntl+0x1c3>
1275d:	e8 ce 01 ff ff       	call   2930 <__stack_chk_fail@plt>
12762:	48 8b 44 24 10       	mov    rax,QWORD PTR [rsp+0x10]
12767:	31 f6                	xor    esi,esi
12769:	8b 50 10             	mov    edx,DWORD PTR [rax+0x10]
1276c:	31 c0                	xor    eax,eax
1276e:	e8 ad 00 ff ff       	call   2820 <fcntl@plt>
12773:	89 c3                	mov    ebx,eax
12775:	e9 76 fe ff ff       	jmp    125f0 <rpl_fcntl+0xe0>
1277a:	48 8b 44 24 08       	mov    rax,QWORD PTR [rsp+0x8]
1277f:	e9 c5 fe ff ff       	jmp    12649 <rpl_fcntl+0x139>
12784:	48 8b 44 24 08       	mov    rax,QWORD PTR [rsp+0x8]
12789:	e9 13 ff ff ff       	jmp    126a1 <rpl_fcntl+0x191>
1278e:	66 90                	xchg   ax,ax

0000000000012790 <fopen_safer>:
12790:	41 54                	push   r12
12792:	55                   	push   rbp
12793:	48 89 f5             	mov    rbp,rsi
12796:	53                   	push   rbx
12797:	e8 64 05 ff ff       	call   2d00 <fopen@plt>
1279c:	48 85 c0             	test   rax,rax
1279f:	48 89 c3             	mov    rbx,rax
127a2:	74 0d                	je     127b1 <fopen_safer+0x21>
127a4:	48 89 c7             	mov    rdi,rax
127a7:	e8 d4 03 ff ff       	call   2b80 <fileno@plt>
127ac:	83 f8 02             	cmp    eax,0x2
127af:	76 0f                	jbe    127c0 <fopen_safer+0x30>
127b1:	48 89 d8             	mov    rax,rbx
127b4:	5b                   	pop    rbx
127b5:	5d                   	pop    rbp
127b6:	41 5c                	pop    r12
127b8:	c3                   	ret
127b9:	0f 1f 80 00 00 00 00 	nop    DWORD PTR [rax+0x0]
127c0:	89 c7                	mov    edi,eax
127c2:	e8 b9 fc ff ff       	call   12480 <dup_safer>
127c7:	85 c0                	test   eax,eax
127c9:	41 89 c4             	mov    r12d,eax
127cc:	78 3a                	js     12808 <fopen_safer+0x78>
127ce:	48 89 df             	mov    rdi,rbx
127d1:	e8 ba fc ff ff       	call   12490 <rpl_fclose>
127d6:	85 c0                	test   eax,eax
127d8:	75 13                	jne    127ed <fopen_safer+0x5d>
127da:	48 89 ee             	mov    rsi,rbp
127dd:	44 89 e7             	mov    edi,r12d
127e0:	e8 4b 04 ff ff       	call   2c30 <fdopen@plt>
127e5:	48 85 c0             	test   rax,rax
127e8:	48 89 c3             	mov    rbx,rax
127eb:	75 c4                	jne    127b1 <fopen_safer+0x21>
127ed:	e8 7e ff fe ff       	call   2770 <__errno_location@plt>
127f2:	8b 28                	mov    ebp,DWORD PTR [rax]
127f4:	48 89 c3             	mov    rbx,rax
127f7:	44 89 e7             	mov    edi,r12d
127fa:	e8 31 02 ff ff       	call   2a30 <close@plt>
127ff:	89 2b                	mov    DWORD PTR [rbx],ebp
12801:	31 db                	xor    ebx,ebx
12803:	eb ac                	jmp    127b1 <fopen_safer+0x21>
12805:	0f 1f 00             	nop    DWORD PTR [rax]
12808:	e8 63 ff fe ff       	call   2770 <__errno_location@plt>
1280d:	44 8b 20             	mov    r12d,DWORD PTR [rax]
12810:	48 89 c5             	mov    rbp,rax
12813:	48 89 df             	mov    rdi,rbx
12816:	e8 75 fc ff ff       	call   12490 <rpl_fclose>
1281b:	31 db                	xor    ebx,ebx
1281d:	44 89 65 00          	mov    DWORD PTR [rbp+0x0],r12d
12821:	eb 8e                	jmp    127b1 <fopen_safer+0x21>
12823:	66 2e 0f 1f 84 00 00 	nop    WORD PTR cs:[rax+rax*1+0x0]
1282a:	00 00 00
1282d:	0f 1f 00             	nop    DWORD PTR [rax]

0000000000012830 <__libc_csu_init>:
12830:	41 57                	push   r15
12832:	41 56                	push   r14
12834:	49 89 d7             	mov    r15,rdx
12837:	41 55                	push   r13
12839:	41 54                	push   r12
1283b:	4c 8d 25 ee 6c 20 00 	lea    r12,[rip+0x206cee]        # 219530 <__frame_dummy_init_array_entry>
12842:	55                   	push   rbp
12843:	48 8d 2d ee 6c 20 00 	lea    rbp,[rip+0x206cee]        # 219538 <__init_array_end>
1284a:	53                   	push   rbx
1284b:	41 89 fd             	mov    r13d,edi
1284e:	49 89 f6             	mov    r14,rsi
12851:	4c 29 e5             	sub    rbp,r12
12854:	48 83 ec 08          	sub    rsp,0x8
12858:	48 c1 fd 03          	sar    rbp,0x3
1285c:	e8 af fe fe ff       	call   2710 <_init>
12861:	48 85 ed             	test   rbp,rbp
12864:	74 20                	je     12886 <__libc_csu_init+0x56>
12866:	31 db                	xor    ebx,ebx
12868:	0f 1f 84 00 00 00 00 	nop    DWORD PTR [rax+rax*1+0x0]
1286f:	00
12870:	4c 89 fa             	mov    rdx,r15
12873:	4c 89 f6             	mov    rsi,r14
12876:	44 89 ef             	mov    edi,r13d
12879:	41 ff 14 dc          	call   QWORD PTR [r12+rbx*8]
1287d:	48 83 c3 01          	add    rbx,0x1
12881:	48 39 dd             	cmp    rbp,rbx
12884:	75 ea                	jne    12870 <__libc_csu_init+0x40>
12886:	48 83 c4 08          	add    rsp,0x8
1288a:	5b                   	pop    rbx
1288b:	5d                   	pop    rbp
1288c:	41 5c                	pop    r12
1288e:	41 5d                	pop    r13
12890:	41 5e                	pop    r14
12892:	41 5f                	pop    r15
12894:	c3                   	ret
12895:	90                   	nop
12896:	66 2e 0f 1f 84 00 00 	nop    WORD PTR cs:[rax+rax*1+0x0]
1289d:	00 00 00

00000000000128a0 <__libc_csu_fini>:
128a0:	f3 c3                	repz ret
128a2:	66 2e 0f 1f 84 00 00 	nop    WORD PTR cs:[rax+rax*1+0x0]
128a9:	00 00 00
128ac:	0f 1f 40 00          	nop    DWORD PTR [rax+0x0]

00000000000128b0 <atexit>:
128b0:	48 8b 15 51 77 20 00 	mov    rdx,QWORD PTR [rip+0x207751]        # 21a008 <__dso_handle>
128b7:	31 f6                	xor    esi,esi
128b9:	e9 92 04 ff ff       	jmp    2d50 <__cxa_atexit@plt>

Disassembly of section .fini:

00000000000128c0 <_fini>:
128c0:	48 83 ec 08          	sub    rsp,0x8
128c4:	48 83 c4 08          	add    rsp,0x8
128c8:	c3                   	ret
