


Disassembly of section .init:

00000000000019e8 <_init>:
19e8:	48 83 ec 08          	sub    rsp,0x8
19ec:	48 8b 05 e5 f5 20 00 	mov    rax,QWORD PTR [rip+0x20f5e5]        # 210fd8 <__gmon_start__>
19f3:	48 85 c0             	test   rax,rax
19f6:	74 02                	je     19fa <_init+0x12>
19f8:	ff d0                	call   rax
19fa:	48 83 c4 08          	add    rsp,0x8
19fe:	c3                   	ret

Disassembly of section .plt:

0000000000001a00 <.plt>:
1a00:	ff 35 6a f3 20 00    	push   QWORD PTR [rip+0x20f36a]        # 210d70 <_GLOBAL_OFFSET_TABLE_+0x8>
1a06:	ff 25 6c f3 20 00    	jmp    QWORD PTR [rip+0x20f36c]        # 210d78 <_GLOBAL_OFFSET_TABLE_+0x10>
1a0c:	0f 1f 40 00          	nop    DWORD PTR [rax+0x0]

0000000000001a10 <__ctype_toupper_loc@plt>:
1a10:	ff 25 6a f3 20 00    	jmp    QWORD PTR [rip+0x20f36a]        # 210d80 <__ctype_toupper_loc@GLIBC_2.3>
1a16:	68 00 00 00 00       	push   0x0
1a1b:	e9 e0 ff ff ff       	jmp    1a00 <.plt>

0000000000001a20 <getenv@plt>:
1a20:	ff 25 62 f3 20 00    	jmp    QWORD PTR [rip+0x20f362]        # 210d88 <getenv@GLIBC_2.2.5>
1a26:	68 01 00 00 00       	push   0x1
1a2b:	e9 d0 ff ff ff       	jmp    1a00 <.plt>

0000000000001a30 <sigprocmask@plt>:
1a30:	ff 25 5a f3 20 00    	jmp    QWORD PTR [rip+0x20f35a]        # 210d90 <sigprocmask@GLIBC_2.2.5>
1a36:	68 02 00 00 00       	push   0x2
1a3b:	e9 c0 ff ff ff       	jmp    1a00 <.plt>

0000000000001a40 <__snprintf_chk@plt>:
1a40:	ff 25 52 f3 20 00    	jmp    QWORD PTR [rip+0x20f352]        # 210d98 <__snprintf_chk@GLIBC_2.3.4>
1a46:	68 03 00 00 00       	push   0x3
1a4b:	e9 b0 ff ff ff       	jmp    1a00 <.plt>

0000000000001a50 <raise@plt>:
1a50:	ff 25 4a f3 20 00    	jmp    QWORD PTR [rip+0x20f34a]        # 210da0 <raise@GLIBC_2.2.5>
1a56:	68 04 00 00 00       	push   0x4
1a5b:	e9 a0 ff ff ff       	jmp    1a00 <.plt>

0000000000001a60 <free@plt>:
1a60:	ff 25 42 f3 20 00    	jmp    QWORD PTR [rip+0x20f342]        # 210da8 <free@GLIBC_2.2.5>
1a66:	68 05 00 00 00       	push   0x5
1a6b:	e9 90 ff ff ff       	jmp    1a00 <.plt>

0000000000001a70 <abort@plt>:
1a70:	ff 25 3a f3 20 00    	jmp    QWORD PTR [rip+0x20f33a]        # 210db0 <abort@GLIBC_2.2.5>
1a76:	68 06 00 00 00       	push   0x6
1a7b:	e9 80 ff ff ff       	jmp    1a00 <.plt>

0000000000001a80 <__errno_location@plt>:
1a80:	ff 25 32 f3 20 00    	jmp    QWORD PTR [rip+0x20f332]        # 210db8 <__errno_location@GLIBC_2.2.5>
1a86:	68 07 00 00 00       	push   0x7
1a8b:	e9 70 ff ff ff       	jmp    1a00 <.plt>

0000000000001a90 <fdatasync@plt>:
1a90:	ff 25 2a f3 20 00    	jmp    QWORD PTR [rip+0x20f32a]        # 210dc0 <fdatasync@GLIBC_2.2.5>
1a96:	68 08 00 00 00       	push   0x8
1a9b:	e9 60 ff ff ff       	jmp    1a00 <.plt>

0000000000001aa0 <error_at_line@plt>:
1aa0:	ff 25 22 f3 20 00    	jmp    QWORD PTR [rip+0x20f322]        # 210dc8 <error_at_line@GLIBC_2.2.5>
1aa6:	68 09 00 00 00       	push   0x9
1aab:	e9 50 ff ff ff       	jmp    1a00 <.plt>

0000000000001ab0 <strncmp@plt>:
1ab0:	ff 25 1a f3 20 00    	jmp    QWORD PTR [rip+0x20f31a]        # 210dd0 <strncmp@GLIBC_2.2.5>
1ab6:	68 0a 00 00 00       	push   0xa
1abb:	e9 40 ff ff ff       	jmp    1a00 <.plt>

0000000000001ac0 <_exit@plt>:
1ac0:	ff 25 12 f3 20 00    	jmp    QWORD PTR [rip+0x20f312]        # 210dd8 <_exit@GLIBC_2.2.5>
1ac6:	68 0b 00 00 00       	push   0xb
1acb:	e9 30 ff ff ff       	jmp    1a00 <.plt>

0000000000001ad0 <__fpending@plt>:
1ad0:	ff 25 0a f3 20 00    	jmp    QWORD PTR [rip+0x20f30a]        # 210de0 <__fpending@GLIBC_2.2.5>
1ad6:	68 0c 00 00 00       	push   0xc
1adb:	e9 20 ff ff ff       	jmp    1a00 <.plt>

0000000000001ae0 <sigaction@plt>:
1ae0:	ff 25 02 f3 20 00    	jmp    QWORD PTR [rip+0x20f302]        # 210de8 <sigaction@GLIBC_2.2.5>
1ae6:	68 0d 00 00 00       	push   0xd
1aeb:	e9 10 ff ff ff       	jmp    1a00 <.plt>

0000000000001af0 <localeconv@plt>:
1af0:	ff 25 fa f2 20 00    	jmp    QWORD PTR [rip+0x20f2fa]        # 210df0 <localeconv@GLIBC_2.2.5>
1af6:	68 0e 00 00 00       	push   0xe
1afb:	e9 00 ff ff ff       	jmp    1a00 <.plt>

0000000000001b00 <fcntl@plt>:
1b00:	ff 25 f2 f2 20 00    	jmp    QWORD PTR [rip+0x20f2f2]        # 210df8 <fcntl@GLIBC_2.2.5>
1b06:	68 0f 00 00 00       	push   0xf
1b0b:	e9 f0 fe ff ff       	jmp    1a00 <.plt>

0000000000001b10 <clock_gettime@plt>:
1b10:	ff 25 ea f2 20 00    	jmp    QWORD PTR [rip+0x20f2ea]        # 210e00 <clock_gettime@GLIBC_2.17>
1b16:	68 10 00 00 00       	push   0x10
1b1b:	e9 e0 fe ff ff       	jmp    1a00 <.plt>

0000000000001b20 <write@plt>:
1b20:	ff 25 e2 f2 20 00    	jmp    QWORD PTR [rip+0x20f2e2]        # 210e08 <write@GLIBC_2.2.5>
1b26:	68 11 00 00 00       	push   0x11
1b2b:	e9 d0 fe ff ff       	jmp    1a00 <.plt>

0000000000001b30 <textdomain@plt>:
1b30:	ff 25 da f2 20 00    	jmp    QWORD PTR [rip+0x20f2da]        # 210e10 <textdomain@GLIBC_2.2.5>
1b36:	68 12 00 00 00       	push   0x12
1b3b:	e9 c0 fe ff ff       	jmp    1a00 <.plt>

0000000000001b40 <fclose@plt>:
1b40:	ff 25 d2 f2 20 00    	jmp    QWORD PTR [rip+0x20f2d2]        # 210e18 <fclose@GLIBC_2.2.5>
1b46:	68 13 00 00 00       	push   0x13
1b4b:	e9 b0 fe ff ff       	jmp    1a00 <.plt>

0000000000001b50 <bindtextdomain@plt>:
1b50:	ff 25 ca f2 20 00    	jmp    QWORD PTR [rip+0x20f2ca]        # 210e20 <bindtextdomain@GLIBC_2.2.5>
1b56:	68 14 00 00 00       	push   0x14
1b5b:	e9 a0 fe ff ff       	jmp    1a00 <.plt>

0000000000001b60 <dcgettext@plt>:
1b60:	ff 25 c2 f2 20 00    	jmp    QWORD PTR [rip+0x20f2c2]        # 210e28 <dcgettext@GLIBC_2.2.5>
1b66:	68 15 00 00 00       	push   0x15
1b6b:	e9 90 fe ff ff       	jmp    1a00 <.plt>

0000000000001b70 <__ctype_get_mb_cur_max@plt>:
1b70:	ff 25 ba f2 20 00    	jmp    QWORD PTR [rip+0x20f2ba]        # 210e30 <__ctype_get_mb_cur_max@GLIBC_2.2.5>
1b76:	68 16 00 00 00       	push   0x16
1b7b:	e9 80 fe ff ff       	jmp    1a00 <.plt>

0000000000001b80 <strlen@plt>:
1b80:	ff 25 b2 f2 20 00    	jmp    QWORD PTR [rip+0x20f2b2]        # 210e38 <strlen@GLIBC_2.2.5>
1b86:	68 17 00 00 00       	push   0x17
1b8b:	e9 70 fe ff ff       	jmp    1a00 <.plt>

0000000000001b90 <__stack_chk_fail@plt>:
1b90:	ff 25 aa f2 20 00    	jmp    QWORD PTR [rip+0x20f2aa]        # 210e40 <__stack_chk_fail@GLIBC_2.4>
1b96:	68 18 00 00 00       	push   0x18
1b9b:	e9 60 fe ff ff       	jmp    1a00 <.plt>

0000000000001ba0 <getopt_long@plt>:
1ba0:	ff 25 a2 f2 20 00    	jmp    QWORD PTR [rip+0x20f2a2]        # 210e48 <getopt_long@GLIBC_2.2.5>
1ba6:	68 19 00 00 00       	push   0x19
1bab:	e9 50 fe ff ff       	jmp    1a00 <.plt>

0000000000001bb0 <mbrtowc@plt>:
1bb0:	ff 25 9a f2 20 00    	jmp    QWORD PTR [rip+0x20f29a]        # 210e50 <mbrtowc@GLIBC_2.2.5>
1bb6:	68 1a 00 00 00       	push   0x1a
1bbb:	e9 40 fe ff ff       	jmp    1a00 <.plt>

0000000000001bc0 <dup2@plt>:
1bc0:	ff 25 92 f2 20 00    	jmp    QWORD PTR [rip+0x20f292]        # 210e58 <dup2@GLIBC_2.2.5>
1bc6:	68 1b 00 00 00       	push   0x1b
1bcb:	e9 30 fe ff ff       	jmp    1a00 <.plt>

0000000000001bd0 <strchr@plt>:
1bd0:	ff 25 8a f2 20 00    	jmp    QWORD PTR [rip+0x20f28a]        # 210e60 <strchr@GLIBC_2.2.5>
1bd6:	68 1c 00 00 00       	push   0x1c
1bdb:	e9 20 fe ff ff       	jmp    1a00 <.plt>

0000000000001be0 <__overflow@plt>:
1be0:	ff 25 82 f2 20 00    	jmp    QWORD PTR [rip+0x20f282]        # 210e68 <__overflow@GLIBC_2.2.5>
1be6:	68 1d 00 00 00       	push   0x1d
1beb:	e9 10 fe ff ff       	jmp    1a00 <.plt>

0000000000001bf0 <strrchr@plt>:
1bf0:	ff 25 7a f2 20 00    	jmp    QWORD PTR [rip+0x20f27a]        # 210e70 <strrchr@GLIBC_2.2.5>
1bf6:	68 1e 00 00 00       	push   0x1e
1bfb:	e9 00 fe ff ff       	jmp    1a00 <.plt>

0000000000001c00 <ftruncate@plt>:
1c00:	ff 25 72 f2 20 00    	jmp    QWORD PTR [rip+0x20f272]        # 210e78 <ftruncate@GLIBC_2.2.5>
1c06:	68 1f 00 00 00       	push   0x1f
1c0b:	e9 f0 fd ff ff       	jmp    1a00 <.plt>

0000000000001c10 <lseek@plt>:
1c10:	ff 25 6a f2 20 00    	jmp    QWORD PTR [rip+0x20f26a]        # 210e80 <lseek@GLIBC_2.2.5>
1c16:	68 20 00 00 00       	push   0x20
1c1b:	e9 e0 fd ff ff       	jmp    1a00 <.plt>

0000000000001c20 <__assert_fail@plt>:
1c20:	ff 25 62 f2 20 00    	jmp    QWORD PTR [rip+0x20f262]        # 210e88 <__assert_fail@GLIBC_2.2.5>
1c26:	68 21 00 00 00       	push   0x21
1c2b:	e9 d0 fd ff ff       	jmp    1a00 <.plt>

0000000000001c30 <__strtoul_internal@plt>:
1c30:	ff 25 5a f2 20 00    	jmp    QWORD PTR [rip+0x20f25a]        # 210e90 <__strtoul_internal@GLIBC_2.2.5>
1c36:	68 22 00 00 00       	push   0x22
1c3b:	e9 c0 fd ff ff       	jmp    1a00 <.plt>

0000000000001c40 <memset@plt>:
1c40:	ff 25 52 f2 20 00    	jmp    QWORD PTR [rip+0x20f252]        # 210e98 <memset@GLIBC_2.2.5>
1c46:	68 23 00 00 00       	push   0x23
1c4b:	e9 b0 fd ff ff       	jmp    1a00 <.plt>

0000000000001c50 <ioctl@plt>:
1c50:	ff 25 4a f2 20 00    	jmp    QWORD PTR [rip+0x20f24a]        # 210ea0 <ioctl@GLIBC_2.2.5>
1c56:	68 24 00 00 00       	push   0x24
1c5b:	e9 a0 fd ff ff       	jmp    1a00 <.plt>

0000000000001c60 <close@plt>:
1c60:	ff 25 42 f2 20 00    	jmp    QWORD PTR [rip+0x20f242]        # 210ea8 <close@GLIBC_2.2.5>
1c66:	68 25 00 00 00       	push   0x25
1c6b:	e9 90 fd ff ff       	jmp    1a00 <.plt>

0000000000001c70 <posix_fadvise@plt>:
1c70:	ff 25 3a f2 20 00    	jmp    QWORD PTR [rip+0x20f23a]        # 210eb0 <posix_fadvise@GLIBC_2.2.5>
1c76:	68 26 00 00 00       	push   0x26
1c7b:	e9 80 fd ff ff       	jmp    1a00 <.plt>

0000000000001c80 <read@plt>:
1c80:	ff 25 32 f2 20 00    	jmp    QWORD PTR [rip+0x20f232]        # 210eb8 <read@GLIBC_2.2.5>
1c86:	68 27 00 00 00       	push   0x27
1c8b:	e9 70 fd ff ff       	jmp    1a00 <.plt>

0000000000001c90 <memcmp@plt>:
1c90:	ff 25 2a f2 20 00    	jmp    QWORD PTR [rip+0x20f22a]        # 210ec0 <memcmp@GLIBC_2.2.5>
1c96:	68 28 00 00 00       	push   0x28
1c9b:	e9 60 fd ff ff       	jmp    1a00 <.plt>

0000000000001ca0 <fputs_unlocked@plt>:
1ca0:	ff 25 22 f2 20 00    	jmp    QWORD PTR [rip+0x20f222]        # 210ec8 <fputs_unlocked@GLIBC_2.2.5>
1ca6:	68 29 00 00 00       	push   0x29
1cab:	e9 50 fd ff ff       	jmp    1a00 <.plt>

0000000000001cb0 <calloc@plt>:
1cb0:	ff 25 1a f2 20 00    	jmp    QWORD PTR [rip+0x20f21a]        # 210ed0 <calloc@GLIBC_2.2.5>
1cb6:	68 2a 00 00 00       	push   0x2a
1cbb:	e9 40 fd ff ff       	jmp    1a00 <.plt>

0000000000001cc0 <__memcpy_chk@plt>:
1cc0:	ff 25 12 f2 20 00    	jmp    QWORD PTR [rip+0x20f212]        # 210ed8 <__memcpy_chk@GLIBC_2.3.4>
1cc6:	68 2b 00 00 00       	push   0x2b
1ccb:	e9 30 fd ff ff       	jmp    1a00 <.plt>

0000000000001cd0 <sigemptyset@plt>:
1cd0:	ff 25 0a f2 20 00    	jmp    QWORD PTR [rip+0x20f20a]        # 210ee0 <sigemptyset@GLIBC_2.2.5>
1cd6:	68 2c 00 00 00       	push   0x2c
1cdb:	e9 20 fd ff ff       	jmp    1a00 <.plt>

0000000000001ce0 <memcpy@plt>:
1ce0:	ff 25 02 f2 20 00    	jmp    QWORD PTR [rip+0x20f202]        # 210ee8 <memcpy@GLIBC_2.14>
1ce6:	68 2d 00 00 00       	push   0x2d
1ceb:	e9 10 fd ff ff       	jmp    1a00 <.plt>

0000000000001cf0 <fileno@plt>:
1cf0:	ff 25 fa f1 20 00    	jmp    QWORD PTR [rip+0x20f1fa]        # 210ef0 <fileno@GLIBC_2.2.5>
1cf6:	68 2e 00 00 00       	push   0x2e
1cfb:	e9 00 fd ff ff       	jmp    1a00 <.plt>

0000000000001d00 <malloc@plt>:
1d00:	ff 25 f2 f1 20 00    	jmp    QWORD PTR [rip+0x20f1f2]        # 210ef8 <malloc@GLIBC_2.2.5>
1d06:	68 2f 00 00 00       	push   0x2f
1d0b:	e9 f0 fc ff ff       	jmp    1a00 <.plt>

0000000000001d10 <fflush@plt>:
1d10:	ff 25 ea f1 20 00    	jmp    QWORD PTR [rip+0x20f1ea]        # 210f00 <fflush@GLIBC_2.2.5>
1d16:	68 30 00 00 00       	push   0x30
1d1b:	e9 e0 fc ff ff       	jmp    1a00 <.plt>

0000000000001d20 <nl_langinfo@plt>:
1d20:	ff 25 e2 f1 20 00    	jmp    QWORD PTR [rip+0x20f1e2]        # 210f08 <nl_langinfo@GLIBC_2.2.5>
1d26:	68 31 00 00 00       	push   0x31
1d2b:	e9 d0 fc ff ff       	jmp    1a00 <.plt>

0000000000001d30 <__fxstat@plt>:
1d30:	ff 25 da f1 20 00    	jmp    QWORD PTR [rip+0x20f1da]        # 210f10 <__fxstat@GLIBC_2.2.5>
1d36:	68 32 00 00 00       	push   0x32
1d3b:	e9 c0 fc ff ff       	jmp    1a00 <.plt>

0000000000001d40 <__freading@plt>:
1d40:	ff 25 d2 f1 20 00    	jmp    QWORD PTR [rip+0x20f1d2]        # 210f18 <__freading@GLIBC_2.2.5>
1d46:	68 33 00 00 00       	push   0x33
1d4b:	e9 b0 fc ff ff       	jmp    1a00 <.plt>

0000000000001d50 <realloc@plt>:
1d50:	ff 25 ca f1 20 00    	jmp    QWORD PTR [rip+0x20f1ca]        # 210f20 <realloc@GLIBC_2.2.5>
1d56:	68 34 00 00 00       	push   0x34
1d5b:	e9 a0 fc ff ff       	jmp    1a00 <.plt>

0000000000001d60 <setlocale@plt>:
1d60:	ff 25 c2 f1 20 00    	jmp    QWORD PTR [rip+0x20f1c2]        # 210f28 <setlocale@GLIBC_2.2.5>
1d66:	68 35 00 00 00       	push   0x35
1d6b:	e9 90 fc ff ff       	jmp    1a00 <.plt>

0000000000001d70 <__printf_chk@plt>:
1d70:	ff 25 ba f1 20 00    	jmp    QWORD PTR [rip+0x20f1ba]        # 210f30 <__printf_chk@GLIBC_2.3.4>
1d76:	68 36 00 00 00       	push   0x36
1d7b:	e9 80 fc ff ff       	jmp    1a00 <.plt>

0000000000001d80 <memmove@plt>:
1d80:	ff 25 b2 f1 20 00    	jmp    QWORD PTR [rip+0x20f1b2]        # 210f38 <memmove@GLIBC_2.2.5>
1d86:	68 37 00 00 00       	push   0x37
1d8b:	e9 70 fc ff ff       	jmp    1a00 <.plt>

0000000000001d90 <error@plt>:
1d90:	ff 25 aa f1 20 00    	jmp    QWORD PTR [rip+0x20f1aa]        # 210f40 <error@GLIBC_2.2.5>
1d96:	68 38 00 00 00       	push   0x38
1d9b:	e9 60 fc ff ff       	jmp    1a00 <.plt>

0000000000001da0 <fsync@plt>:
1da0:	ff 25 a2 f1 20 00    	jmp    QWORD PTR [rip+0x20f1a2]        # 210f48 <fsync@GLIBC_2.2.5>
1da6:	68 39 00 00 00       	push   0x39
1dab:	e9 50 fc ff ff       	jmp    1a00 <.plt>

0000000000001db0 <open@plt>:
1db0:	ff 25 9a f1 20 00    	jmp    QWORD PTR [rip+0x20f19a]        # 210f50 <open@GLIBC_2.2.5>
1db6:	68 3a 00 00 00       	push   0x3a
1dbb:	e9 40 fc ff ff       	jmp    1a00 <.plt>

0000000000001dc0 <fseeko@plt>:
1dc0:	ff 25 92 f1 20 00    	jmp    QWORD PTR [rip+0x20f192]        # 210f58 <fseeko@GLIBC_2.2.5>
1dc6:	68 3b 00 00 00       	push   0x3b
1dcb:	e9 30 fc ff ff       	jmp    1a00 <.plt>

0000000000001dd0 <dcngettext@plt>:
1dd0:	ff 25 8a f1 20 00    	jmp    QWORD PTR [rip+0x20f18a]        # 210f60 <dcngettext@GLIBC_2.2.5>
1dd6:	68 3c 00 00 00       	push   0x3c
1ddb:	e9 20 fc ff ff       	jmp    1a00 <.plt>

0000000000001de0 <__cxa_atexit@plt>:
1de0:	ff 25 82 f1 20 00    	jmp    QWORD PTR [rip+0x20f182]        # 210f68 <__cxa_atexit@GLIBC_2.2.5>
1de6:	68 3d 00 00 00       	push   0x3d
1deb:	e9 10 fc ff ff       	jmp    1a00 <.plt>

0000000000001df0 <getpagesize@plt>:
1df0:	ff 25 7a f1 20 00    	jmp    QWORD PTR [rip+0x20f17a]        # 210f70 <getpagesize@GLIBC_2.2.5>
1df6:	68 3e 00 00 00       	push   0x3e
1dfb:	e9 00 fc ff ff       	jmp    1a00 <.plt>

0000000000001e00 <sigismember@plt>:
1e00:	ff 25 72 f1 20 00    	jmp    QWORD PTR [rip+0x20f172]        # 210f78 <sigismember@GLIBC_2.2.5>
1e06:	68 3f 00 00 00       	push   0x3f
1e0b:	e9 f0 fb ff ff       	jmp    1a00 <.plt>

0000000000001e10 <exit@plt>:
1e10:	ff 25 6a f1 20 00    	jmp    QWORD PTR [rip+0x20f16a]        # 210f80 <exit@GLIBC_2.2.5>
1e16:	68 40 00 00 00       	push   0x40
1e1b:	e9 e0 fb ff ff       	jmp    1a00 <.plt>

0000000000001e20 <fwrite@plt>:
1e20:	ff 25 62 f1 20 00    	jmp    QWORD PTR [rip+0x20f162]        # 210f88 <fwrite@GLIBC_2.2.5>
1e26:	68 41 00 00 00       	push   0x41
1e2b:	e9 d0 fb ff ff       	jmp    1a00 <.plt>

0000000000001e30 <__fprintf_chk@plt>:
1e30:	ff 25 5a f1 20 00    	jmp    QWORD PTR [rip+0x20f15a]        # 210f90 <__fprintf_chk@GLIBC_2.3.4>
1e36:	68 42 00 00 00       	push   0x42
1e3b:	e9 c0 fb ff ff       	jmp    1a00 <.plt>

0000000000001e40 <mbsinit@plt>:
1e40:	ff 25 52 f1 20 00    	jmp    QWORD PTR [rip+0x20f152]        # 210f98 <mbsinit@GLIBC_2.2.5>
1e46:	68 43 00 00 00       	push   0x43
1e4b:	e9 b0 fb ff ff       	jmp    1a00 <.plt>

0000000000001e50 <iswprint@plt>:
1e50:	ff 25 4a f1 20 00    	jmp    QWORD PTR [rip+0x20f14a]        # 210fa0 <iswprint@GLIBC_2.2.5>
1e56:	68 44 00 00 00       	push   0x44
1e5b:	e9 a0 fb ff ff       	jmp    1a00 <.plt>

0000000000001e60 <sigaddset@plt>:
1e60:	ff 25 42 f1 20 00    	jmp    QWORD PTR [rip+0x20f142]        # 210fa8 <sigaddset@GLIBC_2.2.5>
1e66:	68 45 00 00 00       	push   0x45
1e6b:	e9 90 fb ff ff       	jmp    1a00 <.plt>

0000000000001e70 <__ctype_tolower_loc@plt>:
1e70:	ff 25 3a f1 20 00    	jmp    QWORD PTR [rip+0x20f13a]        # 210fb0 <__ctype_tolower_loc@GLIBC_2.3>
1e76:	68 46 00 00 00       	push   0x46
1e7b:	e9 80 fb ff ff       	jmp    1a00 <.plt>

0000000000001e80 <__ctype_b_loc@plt>:
1e80:	ff 25 32 f1 20 00    	jmp    QWORD PTR [rip+0x20f132]        # 210fb8 <__ctype_b_loc@GLIBC_2.3>
1e86:	68 47 00 00 00       	push   0x47
1e8b:	e9 70 fb ff ff       	jmp    1a00 <.plt>

0000000000001e90 <__sprintf_chk@plt>:
1e90:	ff 25 2a f1 20 00    	jmp    QWORD PTR [rip+0x20f12a]        # 210fc0 <__sprintf_chk@GLIBC_2.3.4>
1e96:	68 48 00 00 00       	push   0x48
1e9b:	e9 60 fb ff ff       	jmp    1a00 <.plt>

Disassembly of section .plt.got:

0000000000001ea0 <__cxa_finalize@plt>:
1ea0:	ff 25 42 f1 20 00    	jmp    QWORD PTR [rip+0x20f142]        # 210fe8 <__cxa_finalize@GLIBC_2.2.5>
1ea6:	66 90                	xchg   ax,ax

Disassembly of section .text:

0000000000001eb0 <main>:
1eb0:	41 57                	push   r15
1eb2:	41 56                	push   r14
1eb4:	41 55                	push   r13
1eb6:	41 54                	push   r12
1eb8:	41 89 fc             	mov    r12d,edi
1ebb:	55                   	push   rbp
1ebc:	53                   	push   rbx
1ebd:	48 8d 3d 78 a9 00 00 	lea    rdi,[rip+0xa978]        # c83c <_IO_stdin_used+0x23c>
1ec4:	48 89 f5             	mov    rbp,rsi
1ec7:	48 81 ec e8 00 00 00 	sub    rsp,0xe8
1ece:	64 48 8b 04 25 28 00 	mov    rax,QWORD PTR fs:0x28
1ed5:	00 00
1ed7:	48 89 84 24 d8 00 00 	mov    QWORD PTR [rsp+0xd8],rax
1ede:	00
1edf:	31 c0                	xor    eax,eax
1ee1:	e8 3a fb ff ff       	call   1a20 <getenv@plt>
1ee6:	48 8d 3d 93 f3 20 00 	lea    rdi,[rip+0x20f393]        # 211280 <caught_signals>
1eed:	48 89 c3             	mov    rbx,rax
1ef0:	e8 db fd ff ff       	call   1cd0 <sigemptyset@plt>
1ef5:	48 85 db             	test   rbx,rbx
1ef8:	0f 84 7c 16 00 00    	je     357a <main+0x16ca>
1efe:	48 8d 44 24 40       	lea    rax,[rsp+0x40]
1f03:	31 f6                	xor    esi,esi
1f05:	bf 02 00 00 00       	mov    edi,0x2
1f0a:	48 89 c2             	mov    rdx,rax
1f0d:	48 89 44 24 20       	mov    QWORD PTR [rsp+0x20],rax
1f12:	e8 c9 fb ff ff       	call   1ae0 <sigaction@plt>
1f17:	48 83 7c 24 40 01    	cmp    QWORD PTR [rsp+0x40],0x1
1f1d:	74 11                	je     1f30 <main+0x80>
1f1f:	48 8d 3d 5a f3 20 00 	lea    rdi,[rip+0x20f35a]        # 211280 <caught_signals>
1f26:	be 02 00 00 00       	mov    esi,0x2
1f2b:	e8 30 ff ff ff       	call   1e60 <sigaddset@plt>
1f30:	66 0f 6f 05 48 f3 20 	movdqa xmm0,XMMWORD PTR [rip+0x20f348]        # 211280 <caught_signals>
1f37:	00
1f38:	48 8d 3d 41 f3 20 00 	lea    rdi,[rip+0x20f341]        # 211280 <caught_signals>
1f3f:	be 0a 00 00 00       	mov    esi,0xa
1f44:	0f 11 44 24 48       	movups XMMWORD PTR [rsp+0x48],xmm0
1f49:	66 0f 6f 05 3f f3 20 	movdqa xmm0,XMMWORD PTR [rip+0x20f33f]        # 211290 <caught_signals+0x10>
1f50:	00
1f51:	0f 11 44 24 58       	movups XMMWORD PTR [rsp+0x58],xmm0
1f56:	66 0f 6f 05 42 f3 20 	movdqa xmm0,XMMWORD PTR [rip+0x20f342]        # 2112a0 <caught_signals+0x20>
1f5d:	00
1f5e:	0f 11 44 24 68       	movups XMMWORD PTR [rsp+0x68],xmm0
1f63:	66 0f 6f 05 45 f3 20 	movdqa xmm0,XMMWORD PTR [rip+0x20f345]        # 2112b0 <caught_signals+0x30>
1f6a:	00
1f6b:	0f 11 44 24 78       	movups XMMWORD PTR [rsp+0x78],xmm0
1f70:	66 0f 6f 05 48 f3 20 	movdqa xmm0,XMMWORD PTR [rip+0x20f348]        # 2112c0 <caught_signals+0x40>
1f77:	00
1f78:	0f 11 84 24 88 00 00 	movups XMMWORD PTR [rsp+0x88],xmm0
1f7f:	00
1f80:	66 0f 6f 05 48 f3 20 	movdqa xmm0,XMMWORD PTR [rip+0x20f348]        # 2112d0 <caught_signals+0x50>
1f87:	00
1f88:	0f 11 84 24 98 00 00 	movups XMMWORD PTR [rsp+0x98],xmm0
1f8f:	00
1f90:	66 0f 6f 05 48 f3 20 	movdqa xmm0,XMMWORD PTR [rip+0x20f348]        # 2112e0 <caught_signals+0x60>
1f97:	00
1f98:	0f 11 84 24 a8 00 00 	movups XMMWORD PTR [rsp+0xa8],xmm0
1f9f:	00
1fa0:	66 0f 6f 05 48 f3 20 	movdqa xmm0,XMMWORD PTR [rip+0x20f348]        # 2112f0 <caught_signals+0x70>
1fa7:	00
1fa8:	0f 11 84 24 b8 00 00 	movups XMMWORD PTR [rsp+0xb8],xmm0
1faf:	00
1fb0:	e8 4b fe ff ff       	call   1e00 <sigismember@plt>
1fb5:	85 c0                	test   eax,eax
1fb7:	74 28                	je     1fe1 <main+0x131>
1fb9:	48 8b 74 24 20       	mov    rsi,QWORD PTR [rsp+0x20]
1fbe:	48 8d 05 db 1d 00 00 	lea    rax,[rip+0x1ddb]        # 3da0 <siginfo_handler>
1fc5:	31 d2                	xor    edx,edx
1fc7:	bf 0a 00 00 00       	mov    edi,0xa
1fcc:	c7 84 24 c8 00 00 00 	mov    DWORD PTR [rsp+0xc8],0x0
1fd3:	00 00 00 00
1fd7:	48 89 44 24 40       	mov    QWORD PTR [rsp+0x40],rax
1fdc:	e8 ff fa ff ff       	call   1ae0 <sigaction@plt>
1fe1:	48 8d 3d 98 f2 20 00 	lea    rdi,[rip+0x20f298]        # 211280 <caught_signals>
1fe8:	be 02 00 00 00       	mov    esi,0x2
1fed:	e8 0e fe ff ff       	call   1e00 <sigismember@plt>
1ff2:	85 c0                	test   eax,eax
1ff4:	74 28                	je     201e <main+0x16e>
1ff6:	48 8b 74 24 20       	mov    rsi,QWORD PTR [rsp+0x20]
1ffb:	48 8d 05 8e 1d 00 00 	lea    rax,[rip+0x1d8e]        # 3d90 <interrupt_handler>
2002:	31 d2                	xor    edx,edx
2004:	bf 02 00 00 00       	mov    edi,0x2
2009:	c7 84 24 c8 00 00 00 	mov    DWORD PTR [rsp+0xc8],0xc0000000
2010:	00 00 00 c0
2014:	48 89 44 24 40       	mov    QWORD PTR [rsp+0x40],rax
2019:	e8 c2 fa ff ff       	call   1ae0 <sigaction@plt>
201e:	48 8b 7d 00          	mov    rdi,QWORD PTR [rbp+0x0]
2022:	48 8d 1d 37 f1 20 00 	lea    rbx,[rip+0x20f137]        # 211160 <trans_table>
2029:	e8 72 4f 00 00       	call   6fa0 <set_program_name>
202e:	48 8d 35 6c c7 00 00 	lea    rsi,[rip+0xc76c]        # e7a1 <quoting_style_vals+0xa1>
2035:	bf 06 00 00 00       	mov    edi,0x6
203a:	e8 21 fd ff ff       	call   1d60 <setlocale@plt>
203f:	48 8d 35 06 a8 00 00 	lea    rsi,[rip+0xa806]        # c84c <_IO_stdin_used+0x24c>
2046:	48 8d 3d 29 a7 00 00 	lea    rdi,[rip+0xa729]        # c776 <_IO_stdin_used+0x176>
204d:	e8 fe fa ff ff       	call   1b50 <bindtextdomain@plt>
2052:	48 8d 3d 1d a7 00 00 	lea    rdi,[rip+0xa71d]        # c776 <_IO_stdin_used+0x176>
2059:	e8 d2 fa ff ff       	call   1b30 <textdomain@plt>
205e:	48 8d 3d cb 26 00 00 	lea    rdi,[rip+0x26cb]        # 4730 <maybe_close_stdout>
2065:	e8 76 a5 00 00       	call   c5e0 <atexit>
206a:	e8 81 fd ff ff       	call   1df0 <getpagesize@plt>
206f:	48 98                	cdqe
2071:	48 83 ec 08          	sub    rsp,0x8
2075:	4c 8b 05 ac ef 20 00 	mov    r8,QWORD PTR [rip+0x20efac]        # 211028 <Version>
207c:	48 89 05 55 f3 20 00 	mov    QWORD PTR [rip+0x20f355],rax        # 2113d8 <page_size>
2083:	48 8d 05 da a7 00 00 	lea    rax,[rip+0xa7da]        # c864 <_IO_stdin_used+0x264>
208a:	6a 00                	push   0x0
208c:	48 8d 0d e3 a6 00 00 	lea    rcx,[rip+0xa6e3]        # c776 <_IO_stdin_used+0x176>
2093:	48 8d 15 5a a6 00 00 	lea    rdx,[rip+0xa65a]        # c6f4 <_IO_stdin_used+0xf4>
209a:	41 b9 01 00 00 00    	mov    r9d,0x1
20a0:	50                   	push   rax
20a1:	48 8d 05 c8 a7 00 00 	lea    rax,[rip+0xa7c8]        # c870 <_IO_stdin_used+0x270>
20a8:	48 89 ee             	mov    rsi,rbp
20ab:	44 89 e7             	mov    edi,r12d
20ae:	50                   	push   rax
20af:	48 8d 05 ca a7 00 00 	lea    rax,[rip+0xa7ca]        # c880 <_IO_stdin_used+0x280>
20b6:	50                   	push   rax
20b7:	48 8d 05 72 2f 00 00 	lea    rax,[rip+0x2f72]        # 5030 <usage>
20be:	50                   	push   rax
20bf:	31 c0                	xor    eax,eax
20c1:	e8 9a 4d 00 00       	call   6e60 <parse_gnu_standard_options_only>
20c6:	c6 05 4b ef 20 00 00 	mov    BYTE PTR [rip+0x20ef4b],0x0        # 211018 <close_stdout_required>
20cd:	48 83 c4 30          	add    rsp,0x30
20d1:	31 c0                	xor    eax,eax
20d3:	0f 1f 44 00 00       	nop    DWORD PTR [rax+rax*1+0x0]
20d8:	88 04 03             	mov    BYTE PTR [rbx+rax*1],al
20db:	48 83 c0 01          	add    rax,0x1
20df:	48 3d 00 01 00 00    	cmp    rax,0x100
20e5:	75 f1                	jne    20d8 <main+0x228>
20e7:	8b 05 e3 ef 20 00    	mov    eax,DWORD PTR [rip+0x20efe3]        # 2110d0 <optind@@GLIBC_2.2.5>
20ed:	41 39 c4             	cmp    r12d,eax
20f0:	0f 8e 3c 09 00 00    	jle    2a32 <main+0xb82>
20f6:	48 63 d0             	movsxd rdx,eax
20f9:	f7 d0                	not    eax
20fb:	48 c7 44 24 08 00 00 	mov    QWORD PTR [rsp+0x8],0x0
2102:	00 00
2104:	44 01 e0             	add    eax,r12d
2107:	4c 8d 74 d5 00       	lea    r14,[rbp+rdx*8+0x0]
210c:	45 31 e4             	xor    r12d,r12d
210f:	48 01 d0             	add    rax,rdx
2112:	48 c7 44 24 10 ff ff 	mov    QWORD PTR [rsp+0x10],0xffffffffffffffff
2119:	ff ff
211b:	45 31 ff             	xor    r15d,r15d
211e:	48 8d 6c c5 08       	lea    rbp,[rbp+rax*8+0x8]
2123:	48 8d 44 24 38       	lea    rax,[rsp+0x38]
2128:	48 89 44 24 18       	mov    QWORD PTR [rsp+0x18],rax
212d:	0f 1f 00             	nop    DWORD PTR [rax]
2130:	4d 8b 2e             	mov    r13,QWORD PTR [r14]
2133:	be 3d 00 00 00       	mov    esi,0x3d
2138:	4c 89 ef             	mov    rdi,r13
213b:	e8 90 fa ff ff       	call   1bd0 <strchr@plt>
2140:	48 85 c0             	test   rax,rax
2143:	0f 84 d8 17 00 00    	je     3921 <main+0x1a71>
2149:	4c 8d 40 01          	lea    r8,[rax+0x1]
214d:	48 8d 0d a1 a6 00 00 	lea    rcx,[rip+0xa6a1]        # c7f5 <_IO_stdin_used+0x1f5>
2154:	4c 89 ea             	mov    rdx,r13
2157:	be 69 00 00 00       	mov    esi,0x69
215c:	0f 1f 40 00          	nop    DWORD PTR [rax+0x0]
2160:	48 83 c2 01          	add    rdx,0x1
2164:	48 83 c1 01          	add    rcx,0x1
2168:	40 38 72 ff          	cmp    BYTE PTR [rdx-0x1],sil
216c:	0f 85 3e 07 00 00    	jne    28b0 <main+0xa00>
2172:	0f b6 31             	movzx  esi,BYTE PTR [rcx]
2175:	40 84 f6             	test   sil,sil
2178:	75 e6                	jne    2160 <main+0x2b0>
217a:	0f b6 02             	movzx  eax,BYTE PTR [rdx]
217d:	3c 3d                	cmp    al,0x3d
217f:	74 08                	je     2189 <main+0x2d9>
2181:	84 c0                	test   al,al
2183:	0f 85 27 07 00 00    	jne    28b0 <main+0xa00>
2189:	4c 89 05 58 f2 20 00 	mov    QWORD PTR [rip+0x20f258],r8        # 2113e8 <input_file>
2190:	49 83 c6 08          	add    r14,0x8
2194:	4c 39 f5             	cmp    rbp,r14
2197:	75 97                	jne    2130 <main+0x280>
2199:	4d 85 ff             	test   r15,r15
219c:	0f 84 a5 08 00 00    	je     2a47 <main+0xb97>
21a2:	4c 89 3d 1f f2 20 00 	mov    QWORD PTR [rip+0x20f21f],r15        # 2113c8 <output_blocksize>
21a9:	4c 89 3d 20 f2 20 00 	mov    QWORD PTR [rip+0x20f220],r15        # 2113d0 <input_blocksize>
21b0:	48 83 3d 08 f2 20 00 	cmp    QWORD PTR [rip+0x20f208],0x0        # 2113c0 <conversion_blocksize>
21b7:	00
21b8:	75 07                	jne    21c1 <main+0x311>
21ba:	83 25 cb f1 20 00 e7 	and    DWORD PTR [rip+0x20f1cb],0xffffffe7        # 21138c <conversions_mask>
21c1:	8b 05 c1 f1 20 00    	mov    eax,DWORD PTR [rip+0x20f1c1]        # 211388 <input_flags>
21c7:	a9 00 10 10 00       	test   eax,0x101000
21cc:	74 0b                	je     21d9 <main+0x329>
21ce:	0d 00 10 10 00       	or     eax,0x101000
21d3:	89 05 af f1 20 00    	mov    DWORD PTR [rip+0x20f1af],eax        # 211388 <input_flags>
21d9:	8b 35 a5 f1 20 00    	mov    esi,DWORD PTR [rip+0x20f1a5]        # 211384 <output_flags>
21df:	40 f6 c6 01          	test   sil,0x1
21e3:	0f 85 9a 19 00 00    	jne    3b83 <main+0x1cd3>
21e9:	8b 0d 99 f1 20 00    	mov    ecx,DWORD PTR [rip+0x20f199]        # 211388 <input_flags>
21ef:	f6 c1 10             	test   cl,0x10
21f2:	0f 85 67 1a 00 00    	jne    3c5f <main+0x1daf>
21f8:	40 f6 c6 0c          	test   sil,0xc
21fc:	0f 85 2e 1a 00 00    	jne    3c30 <main+0x1d80>
2202:	f6 c1 08             	test   cl,0x8
2205:	48 8b 44 24 08       	mov    rax,QWORD PTR [rsp+0x8]
220a:	0f 84 0d 08 00 00    	je     2a1d <main+0xb6d>
2210:	48 85 c0             	test   rax,rax
2213:	0f 85 6b 08 00 00    	jne    2a84 <main+0xbd4>
2219:	f6 c1 04             	test   cl,0x4
221c:	48 8b 44 24 10       	mov    rax,QWORD PTR [rsp+0x10]
2221:	0f 84 e0 07 00 00    	je     2a07 <main+0xb57>
2227:	48 83 f8 ff          	cmp    rax,0xffffffffffffffff
222b:	74 17                	je     2244 <main+0x394>
222d:	31 d2                	xor    edx,edx
222f:	48 f7 35 9a f1 20 00 	div    QWORD PTR [rip+0x20f19a]        # 2113d0 <input_blocksize>
2236:	48 89 05 e3 ed 20 00 	mov    QWORD PTR [rip+0x20ede3],rax        # 211020 <max_records>
223d:	48 89 15 4c f1 20 00 	mov    QWORD PTR [rip+0x20f14c],rdx        # 211390 <max_bytes>
2244:	40 f6 c6 10          	test   sil,0x10
2248:	0f 84 a4 07 00 00    	je     29f2 <main+0xb42>
224e:	4d 85 e4             	test   r12,r12
2251:	0f 85 80 08 00 00    	jne    2ad7 <main+0xc27>
2257:	8b 2d 2f f1 20 00    	mov    ebp,DWORD PTR [rip+0x20f12f]        # 21138c <conversions_mask>
225d:	89 c8                	mov    eax,ecx
225f:	83 e0 01             	and    eax,0x1
2262:	f7 c5 00 08 00 00    	test   ebp,0x800
2268:	0f 85 96 0d 00 00    	jne    3004 <main+0x1154>
226e:	85 c0                	test   eax,eax
2270:	0f 84 2a 08 00 00    	je     2aa0 <main+0xbf0>
2276:	48 8d 05 13 29 00 00 	lea    rax,[rip+0x2913]        # 4b90 <iread_fullblock>
227d:	c6 05 a4 f0 20 00 00 	mov    BYTE PTR [rip+0x20f0a4],0x0        # 211328 <warn_partial_read>
2284:	48 89 05 d5 ef 20 00 	mov    QWORD PTR [rip+0x20efd5],rax        # 211260 <iread_fnc>
228b:	89 c8                	mov    eax,ecx
228d:	83 e0 fe             	and    eax,0xfffffffe
2290:	89 05 f2 f0 20 00    	mov    DWORD PTR [rip+0x20f0f2],eax        # 211388 <input_flags>
2296:	89 e8                	mov    eax,ebp
2298:	83 e0 07             	and    eax,0x7
229b:	8d 50 ff             	lea    edx,[rax-0x1]
229e:	85 c2                	test   edx,eax
22a0:	0f 85 66 19 00 00    	jne    3c0c <main+0x1d5c>
22a6:	89 e8                	mov    eax,ebp
22a8:	83 e0 18             	and    eax,0x18
22ab:	8d 50 ff             	lea    edx,[rax-0x1]
22ae:	85 c2                	test   edx,eax
22b0:	0f 85 81 17 00 00    	jne    3a37 <main+0x1b87>
22b6:	89 e8                	mov    eax,ebp
22b8:	83 e0 60             	and    eax,0x60
22bb:	8d 50 ff             	lea    edx,[rax-0x1]
22be:	85 c2                	test   edx,eax
22c0:	0f 85 95 17 00 00    	jne    3a5b <main+0x1bab>
22c6:	89 e8                	mov    eax,ebp
22c8:	25 00 30 00 00       	and    eax,0x3000
22cd:	8d 50 ff             	lea    edx,[rax-0x1]
22d0:	85 c2                	test   edx,eax
22d2:	0f 85 b9 17 00 00    	jne    3a91 <main+0x1be1>
22d8:	89 c8                	mov    eax,ecx
22da:	25 02 40 00 00       	and    eax,0x4002
22df:	8d 50 ff             	lea    edx,[rax-0x1]
22e2:	85 c2                	test   edx,eax
22e4:	0f 85 cb 17 00 00    	jne    3ab5 <main+0x1c05>
22ea:	89 f0                	mov    eax,esi
22ec:	25 02 40 00 00       	and    eax,0x4002
22f1:	8d 50 ff             	lea    edx,[rax-0x1]
22f4:	21 c2                	and    edx,eax
22f6:	89 54 24 28          	mov    DWORD PTR [rsp+0x28],edx
22fa:	0f 85 b5 17 00 00    	jne    3ab5 <main+0x1c05>
2300:	f6 c1 02             	test   cl,0x2
2303:	74 36                	je     233b <main+0x48b>
2305:	31 c0                	xor    eax,eax
2307:	48 83 3d 11 ed 20 00 	cmp    QWORD PTR [rip+0x20ed11],0x0        # 211020 <max_records>
230e:	00
230f:	c6 05 55 ef 20 00 01 	mov    BYTE PTR [rip+0x20ef55],0x1        # 21126b <i_nocache>
2316:	75 0d                	jne    2325 <main+0x475>
2318:	31 c0                	xor    eax,eax
231a:	48 83 3d 6e f0 20 00 	cmp    QWORD PTR [rip+0x20f06e],0x0        # 211390 <max_bytes>
2321:	00
2322:	0f 94 c0             	sete   al
2325:	88 05 3e ef 20 00    	mov    BYTE PTR [rip+0x20ef3e],al        # 211269 <i_nocache_eof>
232b:	80 25 37 ef 20 00 01 	and    BYTE PTR [rip+0x20ef37],0x1        # 211269 <i_nocache_eof>
2332:	83 e1 fc             	and    ecx,0xfffffffc
2335:	89 0d 4d f0 20 00    	mov    DWORD PTR [rip+0x20f04d],ecx        # 211388 <input_flags>
233b:	40 f6 c6 02          	test   sil,0x2
233f:	74 36                	je     2377 <main+0x4c7>
2341:	31 c0                	xor    eax,eax
2343:	48 83 3d d5 ec 20 00 	cmp    QWORD PTR [rip+0x20ecd5],0x0        # 211020 <max_records>
234a:	00
234b:	c6 05 18 ef 20 00 01 	mov    BYTE PTR [rip+0x20ef18],0x1        # 21126a <o_nocache>
2352:	75 0d                	jne    2361 <main+0x4b1>
2354:	31 c0                	xor    eax,eax
2356:	48 83 3d 32 f0 20 00 	cmp    QWORD PTR [rip+0x20f032],0x0        # 211390 <max_bytes>
235d:	00
235e:	0f 94 c0             	sete   al
2361:	88 05 01 ef 20 00    	mov    BYTE PTR [rip+0x20ef01],al        # 211268 <o_nocache_eof>
2367:	80 25 fa ee 20 00 01 	and    BYTE PTR [rip+0x20eefa],0x1        # 211268 <o_nocache_eof>
236e:	83 e6 fd             	and    esi,0xfffffffd
2371:	89 35 0d f0 20 00    	mov    DWORD PTR [rip+0x20f00d],esi        # 211384 <output_flags>
2377:	40 f6 c5 01          	test   bpl,0x1
237b:	74 35                	je     23b2 <main+0x502>
237d:	48 8d 05 dc ed 20 00 	lea    rax,[rip+0x20eddc]        # 211160 <trans_table>
2384:	48 8d 0d 55 b8 00 00 	lea    rcx,[rip+0xb855]        # dbe0 <ebcdic_to_ascii>
238b:	48 8d b0 00 01 00 00 	lea    rsi,[rax+0x100]
2392:	66 0f 1f 44 00 00    	nop    WORD PTR [rax+rax*1+0x0]
2398:	0f b6 10             	movzx  edx,BYTE PTR [rax]
239b:	48 83 c0 01          	add    rax,0x1
239f:	0f b6 14 11          	movzx  edx,BYTE PTR [rcx+rdx*1]
23a3:	88 50 ff             	mov    BYTE PTR [rax-0x1],dl
23a6:	48 39 c6             	cmp    rsi,rax
23a9:	75 ed                	jne    2398 <main+0x4e8>
23ab:	c6 05 ce ef 20 00 01 	mov    BYTE PTR [rip+0x20efce],0x1        # 211380 <translation_needed>
23b2:	40 f6 c5 40          	test   bpl,0x40
23b6:	0f 84 fc 0b 00 00    	je     2fb8 <main+0x1108>
23bc:	e8 4f f6 ff ff       	call   1a10 <__ctype_toupper_loc@plt>
23c1:	48 8b 30             	mov    rsi,QWORD PTR [rax]
23c4:	48 8d 05 95 ed 20 00 	lea    rax,[rip+0x20ed95]        # 211160 <trans_table>
23cb:	48 8d 88 00 01 00 00 	lea    rcx,[rax+0x100]
23d2:	66 0f 1f 44 00 00    	nop    WORD PTR [rax+rax*1+0x0]
23d8:	0f b6 10             	movzx  edx,BYTE PTR [rax]
23db:	48 83 c0 01          	add    rax,0x1
23df:	8b 14 96             	mov    edx,DWORD PTR [rsi+rdx*4]
23e2:	88 50 ff             	mov    BYTE PTR [rax-0x1],dl
23e5:	48 39 c1             	cmp    rcx,rax
23e8:	75 ee                	jne    23d8 <main+0x528>
23ea:	c6 05 8f ef 20 00 01 	mov    BYTE PTR [rip+0x20ef8f],0x1        # 211380 <translation_needed>
23f1:	40 f6 c5 02          	test   bpl,0x2
23f5:	0f 84 85 0b 00 00    	je     2f80 <main+0x10d0>
23fb:	48 8d 05 5e ed 20 00 	lea    rax,[rip+0x20ed5e]        # 211160 <trans_table>
2402:	48 8d 0d d7 b9 00 00 	lea    rcx,[rip+0xb9d7]        # dde0 <ascii_to_ebcdic>
2409:	48 8d b0 00 01 00 00 	lea    rsi,[rax+0x100]
2410:	0f b6 10             	movzx  edx,BYTE PTR [rax]
2413:	48 83 c0 01          	add    rax,0x1
2417:	0f b6 14 11          	movzx  edx,BYTE PTR [rcx+rdx*1]
241b:	88 50 ff             	mov    BYTE PTR [rax-0x1],dl
241e:	48 39 c6             	cmp    rsi,rax
2421:	75 ed                	jne    2410 <main+0x560>
2423:	c6 05 56 ef 20 00 01 	mov    BYTE PTR [rip+0x20ef56],0x1        # 211380 <translation_needed>
242a:	c6 05 e9 eb 20 00 25 	mov    BYTE PTR [rip+0x20ebe9],0x25        # 21101a <newline_character>
2431:	c6 05 e1 eb 20 00 40 	mov    BYTE PTR [rip+0x20ebe1],0x40        # 211019 <space_character>
2438:	48 8b 2d a9 ef 20 00 	mov    rbp,QWORD PTR [rip+0x20efa9]        # 2113e8 <input_file>
243f:	44 8b 25 42 ef 20 00 	mov    r12d,DWORD PTR [rip+0x20ef42]        # 211388 <input_flags>
2446:	e8 35 f6 ff ff       	call   1a80 <__errno_location@plt>
244b:	48 89 44 24 10       	mov    QWORD PTR [rsp+0x10],rax
2450:	48 85 ed             	test   rbp,rbp
2453:	0f 84 dc 0d 00 00    	je     3235 <main+0x1385>
2459:	31 c9                	xor    ecx,ecx
245b:	31 ff                	xor    edi,edi
245d:	44 89 e2             	mov    edx,r12d
2460:	48 89 ee             	mov    rsi,rbp
2463:	e8 b8 25 00 00       	call   4a20 <ifd_reopen>
2468:	85 c0                	test   eax,eax
246a:	0f 88 5c 17 00 00    	js     3bcc <main+0x1d1c>
2470:	31 f6                	xor    esi,esi
2472:	ba 01 00 00 00       	mov    edx,0x1
2477:	31 ff                	xor    edi,edi
2479:	e8 92 f7 ff ff       	call   1c10 <lseek@plt>
247e:	48 89 c2             	mov    rdx,rax
2481:	48 8b 35 58 ef 20 00 	mov    rsi,QWORD PTR [rip+0x20ef58]        # 2113e0 <output_file>
2488:	44 8b 25 f5 ee 20 00 	mov    r12d,DWORD PTR [rip+0x20eef5]        # 211384 <output_flags>
248f:	48 f7 d2             	not    rdx
2492:	48 c1 ea 3f          	shr    rdx,0x3f
2496:	48 85 c0             	test   rax,rax
2499:	88 15 9d ee 20 00    	mov    BYTE PTR [rip+0x20ee9d],dl        # 21133c <input_seekable>
249f:	ba 00 00 00 00       	mov    edx,0x0
24a4:	48 0f 48 c2          	cmovs  rax,rdx
24a8:	48 85 f6             	test   rsi,rsi
24ab:	48 89 05 7e ee 20 00 	mov    QWORD PTR [rip+0x20ee7e],rax        # 211330 <input_offset>
24b2:	48 8b 44 24 10       	mov    rax,QWORD PTR [rsp+0x10]
24b7:	8b 00                	mov    eax,DWORD PTR [rax]
24b9:	89 05 79 ee 20 00    	mov    DWORD PTR [rip+0x20ee79],eax        # 211338 <input_seek_errno>
24bf:	0f 84 cb 10 00 00    	je     3590 <main+0x16e0>
24c5:	8b 05 c1 ee 20 00    	mov    eax,DWORD PTR [rip+0x20eec1]        # 21138c <conversions_mask>
24cb:	31 d2                	xor    edx,edx
24cd:	89 c5                	mov    ebp,eax
24cf:	f6 c4 10             	test   ah,0x10
24d2:	0f 94 c2             	sete   dl
24d5:	c1 fd 06             	sar    ebp,0x6
24d8:	81 e5 80 00 00 00    	and    ebp,0x80
24de:	c1 e2 06             	shl    edx,0x6
24e1:	44 09 e5             	or     ebp,r12d
24e4:	09 d5                	or     ebp,edx
24e6:	48 83 3d ba ee 20 00 	cmp    QWORD PTR [rip+0x20eeba],0x0        # 2113a8 <seek_records>
24ed:	00
24ee:	0f 85 c8 0b 00 00    	jne    30bc <main+0x120c>
24f4:	25 00 02 00 00       	and    eax,0x200
24f9:	83 f8 01             	cmp    eax,0x1
24fc:	19 c0                	sbb    eax,eax
24fe:	25 00 02 00 00       	and    eax,0x200
2503:	09 c5                	or     ebp,eax
2505:	89 ea                	mov    edx,ebp
2507:	b9 b6 01 00 00       	mov    ecx,0x1b6
250c:	bf 01 00 00 00       	mov    edi,0x1
2511:	83 ca 01             	or     edx,0x1
2514:	e8 07 25 00 00       	call   4a20 <ifd_reopen>
2519:	85 c0                	test   eax,eax
251b:	0f 88 b8 15 00 00    	js     3ad9 <main+0x1c29>
2521:	48 8b 2d 80 ee 20 00 	mov    rbp,QWORD PTR [rip+0x20ee80]        # 2113a8 <seek_records>
2528:	48 85 ed             	test   rbp,rbp
252b:	74 46                	je     2573 <main+0x6c3>
252d:	f6 05 59 ee 20 00 02 	test   BYTE PTR [rip+0x20ee59],0x2        # 21138d <conversions_mask+0x1>
2534:	75 3d                	jne    2573 <main+0x6c3>
2536:	4c 8b 35 8b ee 20 00 	mov    r14,QWORD PTR [rip+0x20ee8b]        # 2113c8 <output_blocksize>
253d:	31 d2                	xor    edx,edx
253f:	48 b8 ff ff ff ff ff 	movabs rax,0x7fffffffffffffff
2546:	ff ff 7f
2549:	49 89 ec             	mov    r12,rbp
254c:	49 f7 f6             	div    r14
254f:	4d 0f af e6          	imul   r12,r14
2553:	4c 03 25 46 ee 20 00 	add    r12,QWORD PTR [rip+0x20ee46]        # 2113a0 <seek_bytes>
255a:	48 39 c5             	cmp    rbp,rax
255d:	0f 87 b6 15 00 00    	ja     3b19 <main+0x1c69>
2563:	4c 89 e7             	mov    rdi,r12
2566:	e8 85 28 00 00       	call   4df0 <iftruncate.constprop.6>
256b:	85 c0                	test   eax,eax
256d:	0f 85 5a 0f 00 00    	jne    34cd <main+0x161d>
2573:	e8 e8 39 00 00       	call   5f60 <gethrxtime>
2578:	4c 8b 35 39 ee 20 00 	mov    r14,QWORD PTR [rip+0x20ee39]        # 2113b8 <skip_records>
257f:	48 89 05 ca ed 20 00 	mov    QWORD PTR [rip+0x20edca],rax        # 211350 <start_time>
2586:	48 05 00 ca 9a 3b    	add    rax,0x3b9aca00
258c:	48 89 05 b5 ed 20 00 	mov    QWORD PTR [rip+0x20edb5],rax        # 211348 <next_time>
2593:	4d 85 f6             	test   r14,r14
2596:	75 0a                	jne    25a2 <main+0x6f2>
2598:	48 83 3d 10 ee 20 00 	cmp    QWORD PTR [rip+0x20ee10],0x0        # 2113b0 <skip_bytes>
259f:	00
25a0:	74 5c                	je     25fe <main+0x74e>
25a2:	4c 8b 3d 27 ee 20 00 	mov    r15,QWORD PTR [rip+0x20ee27]        # 2113d0 <input_blocksize>
25a9:	48 8b 35 38 ee 20 00 	mov    rsi,QWORD PTR [rip+0x20ee38]        # 2113e8 <input_file>
25b0:	4c 8d 05 f9 ed 20 00 	lea    r8,[rip+0x20edf9]        # 2113b0 <skip_bytes>
25b7:	31 ff                	xor    edi,edi
25b9:	4c 89 f2             	mov    rdx,r14
25bc:	48 8b 2d 6d ed 20 00 	mov    rbp,QWORD PTR [rip+0x20ed6d]        # 211330 <input_offset>
25c3:	4c 8b 25 e6 ed 20 00 	mov    r12,QWORD PTR [rip+0x20ede6]        # 2113b0 <skip_bytes>
25ca:	4c 89 f9             	mov    rcx,r15
25cd:	e8 5e 31 00 00       	call   5730 <skip>
25d2:	48 85 c0             	test   rax,rax
25d5:	0f 85 2e 05 00 00    	jne    2b09 <main+0xc59>
25db:	4c 89 f0             	mov    rax,r14
25de:	4c 01 e5             	add    rbp,r12
25e1:	49 0f af c7          	imul   rax,r15
25e5:	48 01 e8             	add    rax,rbp
25e8:	48 3b 05 41 ed 20 00 	cmp    rax,QWORD PTR [rip+0x20ed41]        # 211330 <input_offset>
25ef:	74 0d                	je     25fe <main+0x74e>
25f1:	80 3d 31 ed 20 00 01 	cmp    BYTE PTR [rip+0x20ed31],0x1        # 211329 <input_offset_overflow>
25f8:	0f 85 0b 05 00 00    	jne    2b09 <main+0xc59>
25fe:	48 8b 15 a3 ed 20 00 	mov    rdx,QWORD PTR [rip+0x20eda3]        # 2113a8 <seek_records>
2605:	48 8b 05 94 ed 20 00 	mov    rax,QWORD PTR [rip+0x20ed94]        # 2113a0 <seek_bytes>
260c:	48 85 d2             	test   rdx,rdx
260f:	75 09                	jne    261a <main+0x76a>
2611:	48 85 c0             	test   rax,rax
2614:	0f 84 90 00 00 00    	je     26aa <main+0x7fa>
261a:	48 8b 0d a7 ed 20 00 	mov    rcx,QWORD PTR [rip+0x20eda7]        # 2113c8 <output_blocksize>
2621:	48 8b 35 b8 ed 20 00 	mov    rsi,QWORD PTR [rip+0x20edb8]        # 2113e0 <output_file>
2628:	4c 8d 44 24 38       	lea    r8,[rsp+0x38]
262d:	bf 01 00 00 00       	mov    edi,0x1
2632:	48 89 44 24 38       	mov    QWORD PTR [rsp+0x38],rax
2637:	e8 f4 30 00 00       	call   5730 <skip>
263c:	48 85 c0             	test   rax,rax
263f:	49 89 c4             	mov    r12,rax
2642:	0f 84 9c 0a 00 00    	je     30e4 <main+0x1234>
2648:	48 8b 15 79 ed 20 00 	mov    rdx,QWORD PTR [rip+0x20ed79]        # 2113c8 <output_blocksize>
264f:	48 8b 3d ba ec 20 00 	mov    rdi,QWORD PTR [rip+0x20ecba]        # 211310 <obuf>
2656:	31 f6                	xor    esi,esi
2658:	e8 e3 f5 ff ff       	call   1c40 <memset@plt>
265d:	0f 1f 00             	nop    DWORD PTR [rax]
2660:	48 8b 2d 61 ed 20 00 	mov    rbp,QWORD PTR [rip+0x20ed61]        # 2113c8 <output_blocksize>
2667:	48 8b 3d a2 ec 20 00 	mov    rdi,QWORD PTR [rip+0x20eca2]        # 211310 <obuf>
266e:	48 89 ee             	mov    rsi,rbp
2671:	e8 ba 27 00 00       	call   4e30 <iwrite.constprop.7>
2676:	48 39 c5             	cmp    rbp,rax
2679:	0f 85 db 12 00 00    	jne    395a <main+0x1aaa>
267f:	49 83 ec 01          	sub    r12,0x1
2683:	75 db                	jne    2660 <main+0x7b0>
2685:	48 83 7c 24 38 00    	cmp    QWORD PTR [rsp+0x38],0x0
268b:	74 1d                	je     26aa <main+0x7fa>
268d:	48 8b 6c 24 38       	mov    rbp,QWORD PTR [rsp+0x38]
2692:	48 8b 3d 77 ec 20 00 	mov    rdi,QWORD PTR [rip+0x20ec77]        # 211310 <obuf>
2699:	48 89 ee             	mov    rsi,rbp
269c:	e8 8f 27 00 00       	call   4e30 <iwrite.constprop.7>
26a1:	48 39 c5             	cmp    rbp,rax
26a4:	0f 85 b0 12 00 00    	jne    395a <main+0x1aaa>
26aa:	48 83 3d 6e e9 20 00 	cmp    QWORD PTR [rip+0x20e96e],0x0        # 211020 <max_records>
26b1:	00
26b2:	75 0e                	jne    26c2 <main+0x812>
26b4:	48 83 3d d4 ec 20 00 	cmp    QWORD PTR [rip+0x20ecd4],0x0        # 211390 <max_bytes>
26bb:	00
26bc:	0f 84 41 0c 00 00    	je     3303 <main+0x1453>
26c2:	48 83 3d 4e ec 20 00 	cmp    QWORD PTR [rip+0x20ec4e],0x0        # 211318 <ibuf>
26c9:	00
26ca:	0f 84 74 0f 00 00    	je     3644 <main+0x1794>
26d0:	e8 cb 26 00 00       	call   4da0 <alloc_obuf>
26d5:	c7 44 24 18 00 00 00 	mov    DWORD PTR [rsp+0x18],0x0
26dc:	00
26dd:	48 c7 44 24 08 00 00 	mov    QWORD PTR [rsp+0x8],0x0
26e4:	00 00
26e6:	66 2e 0f 1f 84 00 00 	nop    WORD PTR cs:[rax+rax*1+0x0]
26ed:	00 00 00
26f0:	83 3d 25 e9 20 00 04 	cmp    DWORD PTR [rip+0x20e925],0x4        # 21101c <status_level>
26f7:	0f 84 80 01 00 00    	je     287d <main+0x9cd>
26fd:	4c 8b 2d 8c ec 20 00 	mov    r13,QWORD PTR [rip+0x20ec8c]        # 211390 <max_bytes>
2704:	48 8b 2d 55 ec 20 00 	mov    rbp,QWORD PTR [rip+0x20ec55]        # 211360 <r_full>
270b:	31 c0                	xor    eax,eax
270d:	48 03 2d 54 ec 20 00 	add    rbp,QWORD PTR [rip+0x20ec54]        # 211368 <r_partial>
2714:	4c 8b 25 05 e9 20 00 	mov    r12,QWORD PTR [rip+0x20e905]        # 211020 <max_records>
271b:	8b 35 6b ec 20 00    	mov    esi,DWORD PTR [rip+0x20ec6b]        # 21138c <conversions_mask>
2721:	4d 85 ed             	test   r13,r13
2724:	0f 95 c0             	setne  al
2727:	4c 01 e0             	add    rax,r12
272a:	48 39 c5             	cmp    rbp,rax
272d:	0f 83 0f 0a 00 00    	jae    3142 <main+0x1292>
2733:	89 f0                	mov    eax,esi
2735:	48 8b 0d dc eb 20 00 	mov    rcx,QWORD PTR [rip+0x20ebdc]        # 211318 <ibuf>
273c:	25 00 05 00 00       	and    eax,0x500
2741:	3d 00 05 00 00       	cmp    eax,0x500
2746:	75 1d                	jne    2765 <main+0x8b5>
2748:	48 8b 15 81 ec 20 00 	mov    rdx,QWORD PTR [rip+0x20ec81]        # 2113d0 <input_blocksize>
274f:	83 e6 18             	and    esi,0x18
2752:	b8 20 00 00 00       	mov    eax,0x20
2757:	48 89 cf             	mov    rdi,rcx
275a:	0f 45 f0             	cmovne esi,eax
275d:	e8 de f4 ff ff       	call   1c40 <memset@plt>
2762:	48 89 c1             	mov    rcx,rax
2765:	4c 39 e5             	cmp    rbp,r12
2768:	48 8b 05 f1 ea 20 00 	mov    rax,QWORD PTR [rip+0x20eaf1]        # 211260 <iread_fnc>
276f:	0f 82 9b 04 00 00    	jb     2c10 <main+0xd60>
2775:	31 ff                	xor    edi,edi
2777:	4c 89 ea             	mov    rdx,r13
277a:	48 89 ce             	mov    rsi,rcx
277d:	ff d0                	call   rax
277f:	48 83 f8 00          	cmp    rax,0x0
2783:	0f 8e 9f 04 00 00    	jle    2c28 <main+0xd78>
2789:	31 d2                	xor    edx,edx
278b:	48 89 c1             	mov    rcx,rax
278e:	48 03 0d 9b eb 20 00 	add    rcx,QWORD PTR [rip+0x20eb9b]        # 211330 <input_offset>
2795:	48 89 c5             	mov    rbp,rax
2798:	0f 92 c2             	setb   dl
279b:	48 89 0d 8e eb 20 00 	mov    QWORD PTR [rip+0x20eb8e],rcx        # 211330 <input_offset>
27a2:	48 85 d2             	test   rdx,rdx
27a5:	74 07                	je     27ae <main+0x8fe>
27a7:	c6 05 7b eb 20 00 01 	mov    BYTE PTR [rip+0x20eb7b],0x1        # 211329 <input_offset_overflow>
27ae:	80 3d b6 ea 20 00 00 	cmp    BYTE PTR [rip+0x20eab6],0x0        # 21126b <i_nocache>
27b5:	0f 85 7a 06 00 00    	jne    2e35 <main+0xf85>
27bb:	4c 8b 25 0e ec 20 00 	mov    r12,QWORD PTR [rip+0x20ec0e]        # 2113d0 <input_blocksize>
27c2:	49 39 ec             	cmp    r12,rbp
27c5:	0f 86 95 05 00 00    	jbe    2d60 <main+0xeb0>
27cb:	8b 35 bb eb 20 00    	mov    esi,DWORD PTR [rip+0x20ebbb]        # 21138c <conversions_mask>
27d1:	48 83 05 8f eb 20 00 	add    QWORD PTR [rip+0x20eb8f],0x1        # 211368 <r_partial>
27d8:	01
27d9:	48 89 6c 24 08       	mov    QWORD PTR [rsp+0x8],rbp
27de:	f7 c6 00 04 00 00    	test   esi,0x400
27e4:	74 3a                	je     2820 <main+0x970>
27e6:	f7 c6 00 01 00 00    	test   esi,0x100
27ec:	0f 85 05 08 00 00    	jne    2ff7 <main+0x1147>
27f2:	4c 89 e2             	mov    rdx,r12
27f5:	48 29 ea             	sub    rdx,rbp
27f8:	83 e6 18             	and    esi,0x18
27fb:	74 05                	je     2802 <main+0x952>
27fd:	be 20 00 00 00       	mov    esi,0x20
2802:	48 8b 3d 0f eb 20 00 	mov    rdi,QWORD PTR [rip+0x20eb0f]        # 211318 <ibuf>
2809:	48 01 ef             	add    rdi,rbp
280c:	e8 2f f4 ff ff       	call   1c40 <memset@plt>
2811:	48 89 6c 24 08       	mov    QWORD PTR [rsp+0x8],rbp
2816:	4c 89 e5             	mov    rbp,r12
2819:	0f 1f 80 00 00 00 00 	nop    DWORD PTR [rax+0x0]
2820:	4c 8b 3d f1 ea 20 00 	mov    r15,QWORD PTR [rip+0x20eaf1]        # 211318 <ibuf>
2827:	48 8b 3d e2 ea 20 00 	mov    rdi,QWORD PTR [rip+0x20eae2]        # 211310 <obuf>
282e:	49 39 ff             	cmp    r15,rdi
2831:	0f 84 70 06 00 00    	je     2ea7 <main+0xff7>
2837:	80 3d 42 eb 20 00 00 	cmp    BYTE PTR [rip+0x20eb42],0x0        # 211380 <translation_needed>
283e:	0f 85 32 05 00 00    	jne    2d76 <main+0xec6>
2844:	8b 0d 42 eb 20 00    	mov    ecx,DWORD PTR [rip+0x20eb42]        # 21138c <conversions_mask>
284a:	f6 c1 80             	test   cl,0x80
284d:	0f 85 5f 05 00 00    	jne    2db2 <main+0xf02>
2853:	f6 c1 08             	test   cl,0x8
2856:	0f 85 c9 05 00 00    	jne    2e25 <main+0xf75>
285c:	83 e1 10             	and    ecx,0x10
285f:	0f 84 68 03 00 00    	je     2bcd <main+0xd1d>
2865:	48 89 ee             	mov    rsi,rbp
2868:	4c 89 ff             	mov    rdi,r15
286b:	e8 d0 33 00 00       	call   5c40 <copy_with_unblock>
2870:	83 3d a5 e7 20 00 04 	cmp    DWORD PTR [rip+0x20e7a5],0x4        # 21101c <status_level>
2877:	0f 85 80 fe ff ff    	jne    26fd <main+0x84d>
287d:	e8 de 36 00 00       	call   5f60 <gethrxtime>
2882:	48 3b 05 bf ea 20 00 	cmp    rax,QWORD PTR [rip+0x20eabf]        # 211348 <next_time>
2889:	0f 8c 6e fe ff ff    	jl     26fd <main+0x84d>
288f:	48 89 c7             	mov    rdi,rax
2892:	e8 19 15 00 00       	call   3db0 <print_xfer_stats>
2897:	48 81 05 a6 ea 20 00 	add    QWORD PTR [rip+0x20eaa6],0x3b9aca00        # 211348 <next_time>
289e:	00 ca 9a 3b
28a2:	e9 56 fe ff ff       	jmp    26fd <main+0x84d>
28a7:	66 0f 1f 84 00 00 00 	nop    WORD PTR [rax+rax*1+0x0]
28ae:	00 00
28b0:	48 8d 05 41 9f 00 00 	lea    rax,[rip+0x9f41]        # c7f8 <_IO_stdin_used+0x1f8>
28b7:	4c 89 ea             	mov    rdx,r13
28ba:	b9 6f 00 00 00       	mov    ecx,0x6f
28bf:	48 83 c2 01          	add    rdx,0x1
28c3:	48 83 c0 01          	add    rax,0x1
28c7:	38 4a ff             	cmp    BYTE PTR [rdx-0x1],cl
28ca:	75 24                	jne    28f0 <main+0xa40>
28cc:	0f b6 08             	movzx  ecx,BYTE PTR [rax]
28cf:	84 c9                	test   cl,cl
28d1:	75 ec                	jne    28bf <main+0xa0f>
28d3:	0f b6 02             	movzx  eax,BYTE PTR [rdx]
28d6:	3c 3d                	cmp    al,0x3d
28d8:	74 04                	je     28de <main+0xa2e>
28da:	84 c0                	test   al,al
28dc:	75 12                	jne    28f0 <main+0xa40>
28de:	4c 89 05 fb ea 20 00 	mov    QWORD PTR [rip+0x20eafb],r8        # 2113e0 <output_file>
28e5:	e9 a6 f8 ff ff       	jmp    2190 <main+0x2e0>
28ea:	66 0f 1f 44 00 00    	nop    WORD PTR [rax+rax*1+0x0]
28f0:	48 8d 15 04 9f 00 00 	lea    rdx,[rip+0x9f04]        # c7fb <_IO_stdin_used+0x1fb>
28f7:	4c 89 e8             	mov    rax,r13
28fa:	b9 63 00 00 00       	mov    ecx,0x63
28ff:	48 83 c0 01          	add    rax,0x1
2903:	48 83 c2 01          	add    rdx,0x1
2907:	38 48 ff             	cmp    BYTE PTR [rax-0x1],cl
290a:	75 35                	jne    2941 <main+0xa91>
290c:	0f b6 0a             	movzx  ecx,BYTE PTR [rdx]
290f:	84 c9                	test   cl,cl
2911:	75 ec                	jne    28ff <main+0xa4f>
2913:	0f b6 00             	movzx  eax,BYTE PTR [rax]
2916:	84 c0                	test   al,al
2918:	74 04                	je     291e <main+0xa6e>
291a:	3c 3d                	cmp    al,0x3d
291c:	75 23                	jne    2941 <main+0xa91>
291e:	48 8d 0d 7e 9f 00 00 	lea    rcx,[rip+0x9f7e]        # c8a3 <_IO_stdin_used+0x2a3>
2925:	48 8d 35 34 b7 00 00 	lea    rsi,[rip+0xb734]        # e060 <conversions>
292c:	31 d2                	xor    edx,edx
292e:	4c 89 c7             	mov    rdi,r8
2931:	e8 0a 2d 00 00       	call   5640 <parse_symbols>
2936:	09 05 50 ea 20 00    	or     DWORD PTR [rip+0x20ea50],eax        # 21138c <conversions_mask>
293c:	e9 4f f8 ff ff       	jmp    2190 <main+0x2e0>
2941:	48 8d 15 b8 9e 00 00 	lea    rdx,[rip+0x9eb8]        # c800 <_IO_stdin_used+0x200>
2948:	4c 89 e8             	mov    rax,r13
294b:	b9 69 00 00 00       	mov    ecx,0x69
2950:	48 83 c0 01          	add    rax,0x1
2954:	48 83 c2 01          	add    rdx,0x1
2958:	38 48 ff             	cmp    BYTE PTR [rax-0x1],cl
295b:	75 35                	jne    2992 <main+0xae2>
295d:	0f b6 0a             	movzx  ecx,BYTE PTR [rdx]
2960:	84 c9                	test   cl,cl
2962:	75 ec                	jne    2950 <main+0xaa0>
2964:	0f b6 00             	movzx  eax,BYTE PTR [rax]
2967:	3c 3d                	cmp    al,0x3d
2969:	74 04                	je     296f <main+0xabf>
296b:	84 c0                	test   al,al
296d:	75 23                	jne    2992 <main+0xae2>
296f:	48 8d 0d 40 9f 00 00 	lea    rcx,[rip+0x9f40]        # c8b6 <_IO_stdin_used+0x2b6>
2976:	48 8d 35 a3 b5 00 00 	lea    rsi,[rip+0xb5a3]        # df20 <flags>
297d:	31 d2                	xor    edx,edx
297f:	4c 89 c7             	mov    rdi,r8
2982:	e8 b9 2c 00 00       	call   5640 <parse_symbols>
2987:	09 05 fb e9 20 00    	or     DWORD PTR [rip+0x20e9fb],eax        # 211388 <input_flags>
298d:	e9 fe f7 ff ff       	jmp    2190 <main+0x2e0>
2992:	48 8d 15 6d 9e 00 00 	lea    rdx,[rip+0x9e6d]        # c806 <_IO_stdin_used+0x206>
2999:	4c 89 e8             	mov    rax,r13
299c:	b9 6f 00 00 00       	mov    ecx,0x6f
29a1:	0f 1f 80 00 00 00 00 	nop    DWORD PTR [rax+0x0]
29a8:	48 83 c0 01          	add    rax,0x1
29ac:	48 83 c2 01          	add    rdx,0x1
29b0:	38 48 ff             	cmp    BYTE PTR [rax-0x1],cl
29b3:	0f 85 9c 01 00 00    	jne    2b55 <main+0xca5>
29b9:	0f b6 0a             	movzx  ecx,BYTE PTR [rdx]
29bc:	84 c9                	test   cl,cl
29be:	75 e8                	jne    29a8 <main+0xaf8>
29c0:	0f b6 00             	movzx  eax,BYTE PTR [rax]
29c3:	3c 3d                	cmp    al,0x3d
29c5:	74 08                	je     29cf <main+0xb1f>
29c7:	84 c0                	test   al,al
29c9:	0f 85 86 01 00 00    	jne    2b55 <main+0xca5>
29cf:	48 8d 0d f3 9e 00 00 	lea    rcx,[rip+0x9ef3]        # c8c9 <_IO_stdin_used+0x2c9>
29d6:	48 8d 35 43 b5 00 00 	lea    rsi,[rip+0xb543]        # df20 <flags>
29dd:	31 d2                	xor    edx,edx
29df:	4c 89 c7             	mov    rdi,r8
29e2:	e8 59 2c 00 00       	call   5640 <parse_symbols>
29e7:	09 05 97 e9 20 00    	or     DWORD PTR [rip+0x20e997],eax        # 211384 <output_flags>
29ed:	e9 9e f7 ff ff       	jmp    2190 <main+0x2e0>
29f2:	4d 85 e4             	test   r12,r12
29f5:	0f 84 5c f8 ff ff    	je     2257 <main+0x3a7>
29fb:	4c 89 25 a6 e9 20 00 	mov    QWORD PTR [rip+0x20e9a6],r12        # 2113a8 <seek_records>
2a02:	e9 50 f8 ff ff       	jmp    2257 <main+0x3a7>
2a07:	48 83 f8 ff          	cmp    rax,0xffffffffffffffff
2a0b:	0f 84 33 f8 ff ff    	je     2244 <main+0x394>
2a11:	48 89 05 08 e6 20 00 	mov    QWORD PTR [rip+0x20e608],rax        # 211020 <max_records>
2a18:	e9 27 f8 ff ff       	jmp    2244 <main+0x394>
2a1d:	48 85 c0             	test   rax,rax
2a20:	0f 84 f3 f7 ff ff    	je     2219 <main+0x369>
2a26:	48 89 05 8b e9 20 00 	mov    QWORD PTR [rip+0x20e98b],rax        # 2113b8 <skip_records>
2a2d:	e9 e7 f7 ff ff       	jmp    2219 <main+0x369>
2a32:	48 c7 44 24 10 ff ff 	mov    QWORD PTR [rsp+0x10],0xffffffffffffffff
2a39:	ff ff
2a3b:	48 c7 44 24 08 00 00 	mov    QWORD PTR [rsp+0x8],0x0
2a42:	00 00
2a44:	45 31 e4             	xor    r12d,r12d
2a47:	81 0d 3b e9 20 00 00 	or     DWORD PTR [rip+0x20e93b],0x800        # 21138c <conversions_mask>
2a4e:	08 00 00
2a51:	48 83 3d 77 e9 20 00 	cmp    QWORD PTR [rip+0x20e977],0x0        # 2113d0 <input_blocksize>
2a58:	00
2a59:	75 0b                	jne    2a66 <main+0xbb6>
2a5b:	48 c7 05 6a e9 20 00 	mov    QWORD PTR [rip+0x20e96a],0x200        # 2113d0 <input_blocksize>
2a62:	00 02 00 00
2a66:	48 83 3d 5a e9 20 00 	cmp    QWORD PTR [rip+0x20e95a],0x0        # 2113c8 <output_blocksize>
2a6d:	00
2a6e:	0f 85 3c f7 ff ff    	jne    21b0 <main+0x300>
2a74:	48 c7 05 49 e9 20 00 	mov    QWORD PTR [rip+0x20e949],0x200        # 2113c8 <output_blocksize>
2a7b:	00 02 00 00
2a7f:	e9 2c f7 ff ff       	jmp    21b0 <main+0x300>
2a84:	31 d2                	xor    edx,edx
2a86:	48 f7 35 43 e9 20 00 	div    QWORD PTR [rip+0x20e943]        # 2113d0 <input_blocksize>
2a8d:	48 89 05 24 e9 20 00 	mov    QWORD PTR [rip+0x20e924],rax        # 2113b8 <skip_records>
2a94:	48 89 15 15 e9 20 00 	mov    QWORD PTR [rip+0x20e915],rdx        # 2113b0 <skip_bytes>
2a9b:	e9 79 f7 ff ff       	jmp    2219 <main+0x369>
2aa0:	48 83 3d 10 e9 20 00 	cmp    QWORD PTR [rip+0x20e910],0x0        # 2113b8 <skip_records>
2aa7:	00
2aa8:	75 4c                	jne    2af6 <main+0xc46>
2aaa:	48 8b 05 6f e5 20 00 	mov    rax,QWORD PTR [rip+0x20e56f]        # 211020 <max_records>
2ab1:	48 83 e8 01          	sub    rax,0x1
2ab5:	48 83 f8 fd          	cmp    rax,0xfffffffffffffffd
2ab9:	76 3b                	jbe    2af6 <main+0xc46>
2abb:	89 f0                	mov    eax,esi
2abd:	09 c8                	or     eax,ecx
2abf:	f6 c4 40             	test   ah,0x40
2ac2:	75 32                	jne    2af6 <main+0xc46>
2ac4:	c6 05 5d e8 20 00 00 	mov    BYTE PTR [rip+0x20e85d],0x0        # 211328 <warn_partial_read>
2acb:	48 8d 05 9e 1f 00 00 	lea    rax,[rip+0x1f9e]        # 4a70 <iread>
2ad2:	e9 ad f7 ff ff       	jmp    2284 <main+0x3d4>
2ad7:	4c 89 e0             	mov    rax,r12
2ada:	31 d2                	xor    edx,edx
2adc:	48 f7 35 e5 e8 20 00 	div    QWORD PTR [rip+0x20e8e5]        # 2113c8 <output_blocksize>
2ae3:	48 89 05 be e8 20 00 	mov    QWORD PTR [rip+0x20e8be],rax        # 2113a8 <seek_records>
2aea:	48 89 15 af e8 20 00 	mov    QWORD PTR [rip+0x20e8af],rdx        # 2113a0 <seek_bytes>
2af1:	e9 61 f7 ff ff       	jmp    2257 <main+0x3a7>
2af6:	c6 05 2b e8 20 00 01 	mov    BYTE PTR [rip+0x20e82b],0x1        # 211328 <warn_partial_read>
2afd:	48 8d 05 6c 1f 00 00 	lea    rax,[rip+0x1f6c]        # 4a70 <iread>
2b04:	e9 7b f7 ff ff       	jmp    2284 <main+0x3d4>
2b09:	83 3d 0c e5 20 00 01 	cmp    DWORD PTR [rip+0x20e50c],0x1        # 21101c <status_level>
2b10:	0f 84 e8 fa ff ff    	je     25fe <main+0x74e>
2b16:	48 8b 15 cb e8 20 00 	mov    rdx,QWORD PTR [rip+0x20e8cb]        # 2113e8 <input_file>
2b1d:	31 ff                	xor    edi,edi
2b1f:	be 03 00 00 00       	mov    esi,0x3
2b24:	e8 b7 5f 00 00       	call   8ae0 <quotearg_n_style_colon>
2b29:	48 8d 35 a0 af 00 00 	lea    rsi,[rip+0xafa0]        # dad0 <_IO_stdin_used+0x14d0>
2b30:	48 89 c5             	mov    rbp,rax
2b33:	31 ff                	xor    edi,edi
2b35:	ba 05 00 00 00       	mov    edx,0x5
2b3a:	e8 21 f0 ff ff       	call   1b60 <dcgettext@plt>
2b3f:	48 89 e9             	mov    rcx,rbp
2b42:	48 89 c2             	mov    rdx,rax
2b45:	31 f6                	xor    esi,esi
2b47:	31 ff                	xor    edi,edi
2b49:	31 c0                	xor    eax,eax
2b4b:	e8 f0 15 00 00       	call   4140 <nl_error>
2b50:	e9 a9 fa ff ff       	jmp    25fe <main+0x74e>
2b55:	48 8d 15 b0 9c 00 00 	lea    rdx,[rip+0x9cb0]        # c80c <_IO_stdin_used+0x20c>
2b5c:	4c 89 e8             	mov    rax,r13
2b5f:	b9 73 00 00 00       	mov    ecx,0x73
2b64:	0f 1f 40 00          	nop    DWORD PTR [rax+0x0]
2b68:	48 83 c0 01          	add    rax,0x1
2b6c:	48 83 c2 01          	add    rdx,0x1
2b70:	38 48 ff             	cmp    BYTE PTR [rax-0x1],cl
2b73:	0f 85 37 08 00 00    	jne    33b0 <main+0x1500>
2b79:	0f b6 0a             	movzx  ecx,BYTE PTR [rdx]
2b7c:	84 c9                	test   cl,cl
2b7e:	75 e8                	jne    2b68 <main+0xcb8>
2b80:	0f b6 00             	movzx  eax,BYTE PTR [rax]
2b83:	84 c0                	test   al,al
2b85:	0f 85 1d 08 00 00    	jne    33a8 <main+0x14f8>
2b8b:	48 8d 0d 4b 9d 00 00 	lea    rcx,[rip+0x9d4b]        # c8dd <_IO_stdin_used+0x2dd>
2b92:	48 8d 35 47 b3 00 00 	lea    rsi,[rip+0xb347]        # dee0 <statuses>
2b99:	ba 01 00 00 00       	mov    edx,0x1
2b9e:	4c 89 c7             	mov    rdi,r8
2ba1:	e8 9a 2a 00 00       	call   5640 <parse_symbols>
2ba6:	89 05 70 e4 20 00    	mov    DWORD PTR [rip+0x20e470],eax        # 21101c <status_level>
2bac:	e9 df f5 ff ff       	jmp    2190 <main+0x2e0>
2bb1:	0f 1f 80 00 00 00 00 	nop    DWORD PTR [rax+0x0]
2bb8:	e8 c3 2e 00 00       	call   5a80 <write_output>
2bbd:	48 85 ed             	test   rbp,rbp
2bc0:	0f 84 2a fb ff ff    	je     26f0 <main+0x840>
2bc6:	48 8b 3d 43 e7 20 00 	mov    rdi,QWORD PTR [rip+0x20e743]        # 211310 <obuf>
2bcd:	4c 8b 35 f4 e7 20 00 	mov    r14,QWORD PTR [rip+0x20e7f4]        # 2113c8 <output_blocksize>
2bd4:	4c 8b 2d 2d e7 20 00 	mov    r13,QWORD PTR [rip+0x20e72d]        # 211308 <oc>
2bdb:	4c 89 fe             	mov    rsi,r15
2bde:	4d 89 f4             	mov    r12,r14
2be1:	4d 29 ec             	sub    r12,r13
2be4:	49 39 ec             	cmp    r12,rbp
2be7:	4c 0f 47 e5          	cmova  r12,rbp
2beb:	4c 01 ef             	add    rdi,r13
2bee:	4c 89 e2             	mov    rdx,r12
2bf1:	4c 29 e5             	sub    rbp,r12
2bf4:	4d 01 e7             	add    r15,r12
2bf7:	4d 01 ec             	add    r12,r13
2bfa:	e8 e1 f0 ff ff       	call   1ce0 <memcpy@plt>
2bff:	4d 39 e6             	cmp    r14,r12
2c02:	4c 89 25 ff e6 20 00 	mov    QWORD PTR [rip+0x20e6ff],r12        # 211308 <oc>
2c09:	77 b2                	ja     2bbd <main+0xd0d>
2c0b:	eb ab                	jmp    2bb8 <main+0xd08>
2c0d:	0f 1f 00             	nop    DWORD PTR [rax]
2c10:	31 ff                	xor    edi,edi
2c12:	48 8b 15 b7 e7 20 00 	mov    rdx,QWORD PTR [rip+0x20e7b7]        # 2113d0 <input_blocksize>
2c19:	48 89 ce             	mov    rsi,rcx
2c1c:	ff d0                	call   rax
2c1e:	48 83 f8 00          	cmp    rax,0x0
2c22:	0f 8f 61 fb ff ff    	jg     2789 <main+0x8d9>
2c28:	8b 35 5e e7 20 00    	mov    esi,DWORD PTR [rip+0x20e75e]        # 21138c <conversions_mask>
2c2e:	0f 84 d1 04 00 00    	je     3105 <main+0x1255>
2c34:	81 e6 00 01 00 00    	and    esi,0x100
2c3a:	74 09                	je     2c45 <main+0xd95>
2c3c:	83 3d d9 e3 20 00 01 	cmp    DWORD PTR [rip+0x20e3d9],0x1        # 21101c <status_level>
2c43:	74 5d                	je     2ca2 <main+0xdf2>
2c45:	48 8b 35 9c e7 20 00 	mov    rsi,QWORD PTR [rip+0x20e79c]        # 2113e8 <input_file>
2c4c:	bf 04 00 00 00       	mov    edi,0x4
2c51:	e8 8a 5d 00 00       	call   89e0 <quotearg_style>
2c56:	48 8d 35 79 9b 00 00 	lea    rsi,[rip+0x9b79]        # c7d6 <_IO_stdin_used+0x1d6>
2c5d:	31 ff                	xor    edi,edi
2c5f:	ba 05 00 00 00       	mov    edx,0x5
2c64:	48 89 c5             	mov    rbp,rax
2c67:	e8 f4 ee ff ff       	call   1b60 <dcgettext@plt>
2c6c:	48 89 c2             	mov    rdx,rax
2c6f:	48 8b 44 24 10       	mov    rax,QWORD PTR [rsp+0x10]
2c74:	31 ff                	xor    edi,edi
2c76:	48 89 e9             	mov    rcx,rbp
2c79:	8b 30                	mov    esi,DWORD PTR [rax]
2c7b:	31 c0                	xor    eax,eax
2c7d:	e8 be 14 00 00       	call   4140 <nl_error>
2c82:	8b 35 04 e7 20 00    	mov    esi,DWORD PTR [rip+0x20e704]        # 21138c <conversions_mask>
2c88:	f7 c6 00 01 00 00    	test   esi,0x100
2c8e:	0f 84 11 0b 00 00    	je     37a5 <main+0x18f5>
2c94:	83 3d 81 e3 20 00 01 	cmp    DWORD PTR [rip+0x20e381],0x1        # 21101c <status_level>
2c9b:	74 05                	je     2ca2 <main+0xdf2>
2c9d:	e8 ce 1a 00 00       	call   4770 <print_stats.part.2>
2ca2:	48 8b 2d 27 e7 20 00 	mov    rbp,QWORD PTR [rip+0x20e727]        # 2113d0 <input_blocksize>
2ca9:	48 2b 6c 24 08       	sub    rbp,QWORD PTR [rsp+0x8]
2cae:	31 ff                	xor    edi,edi
2cb0:	48 89 ee             	mov    rsi,rbp
2cb3:	e8 f8 18 00 00       	call   45b0 <invalidate_cache>
2cb8:	80 3d 7d e6 20 00 00 	cmp    BYTE PTR [rip+0x20e67d],0x0        # 21133c <input_seekable>
2cbf:	0f 85 7f 01 00 00    	jne    2e44 <main+0xf94>
2cc5:	8b 05 6d e6 20 00    	mov    eax,DWORD PTR [rip+0x20e66d]        # 211338 <input_seek_errno>
2ccb:	83 f8 1d             	cmp    eax,0x1d
2cce:	74 5f                	je     2d2f <main+0xe7f>
2cd0:	48 8b 7c 24 10       	mov    rdi,QWORD PTR [rsp+0x10]
2cd5:	89 07                	mov    DWORD PTR [rdi],eax
2cd7:	48 8b 15 0a e7 20 00 	mov    rdx,QWORD PTR [rip+0x20e70a]        # 2113e8 <input_file>
2cde:	be 03 00 00 00       	mov    esi,0x3
2ce3:	31 ff                	xor    edi,edi
2ce5:	e8 f6 5d 00 00       	call   8ae0 <quotearg_n_style_colon>
2cea:	48 8d 35 d5 9a 00 00 	lea    rsi,[rip+0x9ad5]        # c7c6 <_IO_stdin_used+0x1c6>
2cf1:	ba 05 00 00 00       	mov    edx,0x5
2cf6:	31 ff                	xor    edi,edi
2cf8:	48 89 c5             	mov    rbp,rax
2cfb:	e8 60 ee ff ff       	call   1b60 <dcgettext@plt>
2d00:	48 89 c2             	mov    rdx,rax
2d03:	48 8b 44 24 10       	mov    rax,QWORD PTR [rsp+0x10]
2d08:	48 89 e9             	mov    rcx,rbp
2d0b:	31 ff                	xor    edi,edi
2d0d:	8b 30                	mov    esi,DWORD PTR [rax]
2d0f:	31 c0                	xor    eax,eax
2d11:	e8 2a 14 00 00       	call   4140 <nl_error>
2d16:	c6 05 1f e6 20 00 00 	mov    BYTE PTR [rip+0x20e61f],0x0        # 21133c <input_seekable>
2d1d:	c7 05 11 e6 20 00 1d 	mov    DWORD PTR [rip+0x20e611],0x1d        # 211338 <input_seek_errno>
2d24:	00 00 00
2d27:	c7 44 24 18 01 00 00 	mov    DWORD PTR [rsp+0x18],0x1
2d2e:	00
2d2f:	f6 05 57 e6 20 00 04 	test   BYTE PTR [rip+0x20e657],0x4        # 21138d <conversions_mask+0x1>
2d36:	0f 84 b4 f9 ff ff    	je     26f0 <main+0x840>
2d3c:	48 83 7c 24 08 00    	cmp    QWORD PTR [rsp+0x8],0x0
2d42:	0f 85 a8 f9 ff ff    	jne    26f0 <main+0x840>
2d48:	4c 8b 25 81 e6 20 00 	mov    r12,QWORD PTR [rip+0x20e681]        # 2113d0 <input_blocksize>
2d4f:	31 ed                	xor    ebp,ebp
2d51:	49 39 ec             	cmp    r12,rbp
2d54:	0f 87 71 fa ff ff    	ja     27cb <main+0x91b>
2d5a:	66 0f 1f 44 00 00    	nop    WORD PTR [rax+rax*1+0x0]
2d60:	48 83 05 f8 e5 20 00 	add    QWORD PTR [rip+0x20e5f8],0x1        # 211360 <r_full>
2d67:	01
2d68:	48 c7 44 24 08 00 00 	mov    QWORD PTR [rsp+0x8],0x0
2d6f:	00 00
2d71:	e9 aa fa ff ff       	jmp    2820 <main+0x970>
2d76:	48 85 ed             	test   rbp,rbp
2d79:	0f 84 c5 fa ff ff    	je     2844 <main+0x994>
2d7f:	49 8d 0c 2f          	lea    rcx,[r15+rbp*1]
2d83:	4c 89 f8             	mov    rax,r15
2d86:	66 2e 0f 1f 84 00 00 	nop    WORD PTR cs:[rax+rax*1+0x0]
2d8d:	00 00 00
2d90:	0f b6 10             	movzx  edx,BYTE PTR [rax]
2d93:	48 83 c0 01          	add    rax,0x1
2d97:	0f b6 14 13          	movzx  edx,BYTE PTR [rbx+rdx*1]
2d9b:	88 50 ff             	mov    BYTE PTR [rax-0x1],dl
2d9e:	48 39 c8             	cmp    rax,rcx
2da1:	75 ed                	jne    2d90 <main+0xee0>
2da3:	8b 0d e3 e5 20 00    	mov    ecx,DWORD PTR [rip+0x20e5e3]        # 21138c <conversions_mask>
2da9:	f6 c1 80             	test   cl,0x80
2dac:	0f 84 a1 fa ff ff    	je     2853 <main+0x9a3>
2db2:	80 3d 88 e3 20 00 00 	cmp    BYTE PTR [rip+0x20e388],0x0        # 211141 <char_is_saved>
2db9:	74 19                	je     2dd4 <main+0xf24>
2dbb:	0f b6 05 7e e3 20 00 	movzx  eax,BYTE PTR [rip+0x20e37e]        # 211140 <saved_char>
2dc2:	48 83 c5 01          	add    rbp,0x1
2dc6:	c6 05 74 e3 20 00 00 	mov    BYTE PTR [rip+0x20e374],0x0        # 211141 <char_is_saved>
2dcd:	49 83 ef 01          	sub    r15,0x1
2dd1:	41 88 07             	mov    BYTE PTR [r15],al
2dd4:	40 f6 c5 01          	test   bpl,0x1
2dd8:	74 16                	je     2df0 <main+0xf40>
2dda:	48 83 ed 01          	sub    rbp,0x1
2dde:	c6 05 5c e3 20 00 01 	mov    BYTE PTR [rip+0x20e35c],0x1        # 211141 <char_is_saved>
2de5:	41 0f b6 04 2f       	movzx  eax,BYTE PTR [r15+rbp*1]
2dea:	88 05 50 e3 20 00    	mov    BYTE PTR [rip+0x20e350],al        # 211140 <saved_char>
2df0:	48 89 ea             	mov    rdx,rbp
2df3:	49 8d 04 2f          	lea    rax,[r15+rbp*1]
2df7:	48 d1 ea             	shr    rdx,1
2dfa:	74 1c                	je     2e18 <main+0xf68>
2dfc:	48 f7 da             	neg    rdx
2dff:	48 8d 34 50          	lea    rsi,[rax+rdx*2]
2e03:	0f 1f 44 00 00       	nop    DWORD PTR [rax+rax*1+0x0]
2e08:	0f b6 50 fe          	movzx  edx,BYTE PTR [rax-0x2]
2e0c:	48 83 e8 02          	sub    rax,0x2
2e10:	88 50 02             	mov    BYTE PTR [rax+0x2],dl
2e13:	48 39 f0             	cmp    rax,rsi
2e16:	75 f0                	jne    2e08 <main+0xf58>
2e18:	49 83 c7 01          	add    r15,0x1
2e1c:	f6 c1 08             	test   cl,0x8
2e1f:	0f 84 37 fa ff ff    	je     285c <main+0x9ac>
2e25:	48 89 ee             	mov    rsi,rbp
2e28:	4c 89 ff             	mov    rdi,r15
2e2b:	e8 f0 2c 00 00       	call   5b20 <copy_with_block>
2e30:	e9 bb f8 ff ff       	jmp    26f0 <main+0x840>
2e35:	48 89 c6             	mov    rsi,rax
2e38:	31 ff                	xor    edi,edi
2e3a:	e8 71 17 00 00       	call   45b0 <invalidate_cache>
2e3f:	e9 77 f9 ff ff       	jmp    27bb <main+0x90b>
2e44:	31 c0                	xor    eax,eax
2e46:	49 89 ec             	mov    r12,rbp
2e49:	4c 03 25 e0 e4 20 00 	add    r12,QWORD PTR [rip+0x20e4e0]        # 211330 <input_offset>
2e50:	0f 92 c0             	setb   al
2e53:	4c 89 25 d6 e4 20 00 	mov    QWORD PTR [rip+0x20e4d6],r12        # 211330 <input_offset>
2e5a:	48 85 c0             	test   rax,rax
2e5d:	0f 84 c1 01 00 00    	je     3024 <main+0x1174>
2e63:	c6 05 bf e4 20 00 01 	mov    BYTE PTR [rip+0x20e4bf],0x1        # 211329 <input_offset_overflow>
2e6a:	48 8b 35 77 e5 20 00 	mov    rsi,QWORD PTR [rip+0x20e577]        # 2113e8 <input_file>
2e71:	bf 04 00 00 00       	mov    edi,0x4
2e76:	e8 65 5b 00 00       	call   89e0 <quotearg_style>
2e7b:	48 8d 35 76 ac 00 00 	lea    rsi,[rip+0xac76]        # daf8 <_IO_stdin_used+0x14f8>
2e82:	48 89 c5             	mov    rbp,rax
2e85:	31 ff                	xor    edi,edi
2e87:	ba 05 00 00 00       	mov    edx,0x5
2e8c:	e8 cf ec ff ff       	call   1b60 <dcgettext@plt>
2e91:	48 89 e9             	mov    rcx,rbp
2e94:	48 89 c2             	mov    rdx,rax
2e97:	31 f6                	xor    esi,esi
2e99:	31 ff                	xor    edi,edi
2e9b:	31 c0                	xor    eax,eax
2e9d:	e8 9e 12 00 00       	call   4140 <nl_error>
2ea2:	e9 6f fe ff ff       	jmp    2d16 <main+0xe66>
2ea7:	48 89 ee             	mov    rsi,rbp
2eaa:	4c 89 ff             	mov    rdi,r15
2ead:	e8 7e 1f 00 00       	call   4e30 <iwrite.constprop.7>
2eb2:	48 01 05 9f e4 20 00 	add    QWORD PTR [rip+0x20e49f],rax        # 211358 <w_bytes>
2eb9:	48 39 e8             	cmp    rax,rbp
2ebc:	0f 84 27 04 00 00    	je     32e9 <main+0x1439>
2ec2:	48 8b 35 17 e5 20 00 	mov    rsi,QWORD PTR [rip+0x20e517]        # 2113e0 <output_file>
2ec9:	bf 04 00 00 00       	mov    edi,0x4
2ece:	e8 0d 5b 00 00       	call   89e0 <quotearg_style>
2ed3:	48 8d 35 5e 9a 00 00 	lea    rsi,[rip+0x9a5e]        # c938 <_IO_stdin_used+0x338>
2eda:	48 89 c3             	mov    rbx,rax
2edd:	ba 05 00 00 00       	mov    edx,0x5
2ee2:	31 ff                	xor    edi,edi
2ee4:	e8 77 ec ff ff       	call   1b60 <dcgettext@plt>
2ee9:	48 89 c2             	mov    rdx,rax
2eec:	48 8b 44 24 10       	mov    rax,QWORD PTR [rsp+0x10]
2ef1:	48 89 d9             	mov    rcx,rbx
2ef4:	31 ff                	xor    edi,edi
2ef6:	8b 30                	mov    esi,DWORD PTR [rax]
2ef8:	31 c0                	xor    eax,eax
2efa:	e8 41 12 00 00       	call   4140 <nl_error>
2eff:	c7 44 24 18 01 00 00 	mov    DWORD PTR [rsp+0x18],0x1
2f06:	00
2f07:	48 83 3d 11 e1 20 00 	cmp    QWORD PTR [rip+0x20e111],0x0        # 211020 <max_records>
2f0e:	00
2f0f:	0f 84 4c 03 00 00    	je     3261 <main+0x13b1>
2f15:	80 3d 4f e3 20 00 00 	cmp    BYTE PTR [rip+0x20e34f],0x0        # 21126b <i_nocache>
2f1c:	75 09                	jne    2f27 <main+0x1077>
2f1e:	80 3d 44 e3 20 00 00 	cmp    BYTE PTR [rip+0x20e344],0x0        # 211269 <i_nocache_eof>
2f25:	74 09                	je     2f30 <main+0x1080>
2f27:	31 f6                	xor    esi,esi
2f29:	31 ff                	xor    edi,edi
2f2b:	e8 80 16 00 00       	call   45b0 <invalidate_cache>
2f30:	80 3d 33 e3 20 00 00 	cmp    BYTE PTR [rip+0x20e333],0x0        # 21126a <o_nocache>
2f37:	75 09                	jne    2f42 <main+0x1092>
2f39:	80 3d 28 e3 20 00 00 	cmp    BYTE PTR [rip+0x20e328],0x0        # 211268 <o_nocache_eof>
2f40:	74 0c                	je     2f4e <main+0x109e>
2f42:	31 f6                	xor    esi,esi
2f44:	bf 01 00 00 00       	mov    edi,0x1
2f49:	e8 62 16 00 00       	call   45b0 <invalidate_cache>
2f4e:	e8 ad 1c 00 00       	call   4c00 <finish_up>
2f53:	48 8b 9c 24 d8 00 00 	mov    rbx,QWORD PTR [rsp+0xd8]
2f5a:	00
2f5b:	64 48 33 1c 25 28 00 	xor    rbx,QWORD PTR fs:0x28
2f62:	00 00
2f64:	8b 44 24 18          	mov    eax,DWORD PTR [rsp+0x18]
2f68:	0f 85 59 0c 00 00    	jne    3bc7 <main+0x1d17>
2f6e:	48 81 c4 e8 00 00 00 	add    rsp,0xe8
2f75:	5b                   	pop    rbx
2f76:	5d                   	pop    rbp
2f77:	41 5c                	pop    r12
2f79:	41 5d                	pop    r13
2f7b:	41 5e                	pop    r14
2f7d:	41 5f                	pop    r15
2f7f:	c3                   	ret
2f80:	40 80 e5 04          	and    bpl,0x4
2f84:	0f 84 ae f4 ff ff    	je     2438 <main+0x588>
2f8a:	48 8d 05 cf e1 20 00 	lea    rax,[rip+0x20e1cf]        # 211160 <trans_table>
2f91:	48 8d 0d 48 ad 00 00 	lea    rcx,[rip+0xad48]        # dce0 <ascii_to_ibm>
2f98:	48 8d b0 00 01 00 00 	lea    rsi,[rax+0x100]
2f9f:	90                   	nop
2fa0:	0f b6 10             	movzx  edx,BYTE PTR [rax]
2fa3:	48 83 c0 01          	add    rax,0x1
2fa7:	0f b6 14 11          	movzx  edx,BYTE PTR [rcx+rdx*1]
2fab:	88 50 ff             	mov    BYTE PTR [rax-0x1],dl
2fae:	48 39 c6             	cmp    rsi,rax
2fb1:	75 ed                	jne    2fa0 <main+0x10f0>
2fb3:	e9 6b f4 ff ff       	jmp    2423 <main+0x573>
2fb8:	40 f6 c5 20          	test   bpl,0x20
2fbc:	0f 84 2f f4 ff ff    	je     23f1 <main+0x541>
2fc2:	e8 a9 ee ff ff       	call   1e70 <__ctype_tolower_loc@plt>
2fc7:	48 8b 30             	mov    rsi,QWORD PTR [rax]
2fca:	48 8d 05 8f e1 20 00 	lea    rax,[rip+0x20e18f]        # 211160 <trans_table>
2fd1:	48 8d 88 00 01 00 00 	lea    rcx,[rax+0x100]
2fd8:	0f 1f 84 00 00 00 00 	nop    DWORD PTR [rax+rax*1+0x0]
2fdf:	00
2fe0:	0f b6 10             	movzx  edx,BYTE PTR [rax]
2fe3:	48 83 c0 01          	add    rax,0x1
2fe7:	8b 14 96             	mov    edx,DWORD PTR [rsi+rdx*4]
2fea:	88 50 ff             	mov    BYTE PTR [rax-0x1],dl
2fed:	48 39 c1             	cmp    rcx,rax
2ff0:	75 ee                	jne    2fe0 <main+0x1130>
2ff2:	e9 f3 f3 ff ff       	jmp    23ea <main+0x53a>
2ff7:	48 89 6c 24 08       	mov    QWORD PTR [rsp+0x8],rbp
2ffc:	4c 89 e5             	mov    rbp,r12
2fff:	e9 1c f8 ff ff       	jmp    2820 <main+0x970>
3004:	85 c0                	test   eax,eax
3006:	48 8d 15 83 1b 00 00 	lea    rdx,[rip+0x1b83]        # 4b90 <iread_fullblock>
300d:	48 8d 05 5c 1a 00 00 	lea    rax,[rip+0x1a5c]        # 4a70 <iread>
3014:	c6 05 0d e3 20 00 00 	mov    BYTE PTR [rip+0x20e30d],0x0        # 211328 <warn_partial_read>
301b:	48 0f 45 c2          	cmovne rax,rdx
301f:	e9 60 f2 ff ff       	jmp    2284 <main+0x3d4>
3024:	4c 89 e0             	mov    rax,r12
3027:	48 c1 e8 3f          	shr    rax,0x3f
302b:	08 05 f8 e2 20 00    	or     BYTE PTR [rip+0x20e2f8],al        # 211329 <input_offset_overflow>
3031:	0f 85 33 fe ff ff    	jne    2e6a <main+0xfba>
3037:	31 f6                	xor    esi,esi
3039:	31 ff                	xor    edi,edi
303b:	ba 01 00 00 00       	mov    edx,0x1
3040:	e8 cb eb ff ff       	call   1c10 <lseek@plt>
3045:	48 85 c0             	test   rax,rax
3048:	0f 88 89 fc ff ff    	js     2cd7 <main+0xe27>
304e:	49 39 c4             	cmp    r12,rax
3051:	0f 84 d8 fc ff ff    	je     2d2f <main+0xe7f>
3057:	49 29 c4             	sub    r12,rax
305a:	0f 88 e7 04 00 00    	js     3547 <main+0x1697>
3060:	4c 39 e5             	cmp    rbp,r12
3063:	0f 82 de 04 00 00    	jb     3547 <main+0x1697>
3069:	48 8b 3d 78 e3 20 00 	mov    rdi,QWORD PTR [rip+0x20e378]        # 2113e8 <input_file>
3070:	31 f6                	xor    esi,esi
3072:	b9 01 00 00 00       	mov    ecx,0x1
3077:	4c 89 e2             	mov    rdx,r12
307a:	e8 31 14 00 00       	call   44b0 <skip_via_lseek>
307f:	48 85 c0             	test   rax,rax
3082:	0f 89 a7 fc ff ff    	jns    2d2f <main+0xe7f>
3088:	48 8b 44 24 10       	mov    rax,QWORD PTR [rsp+0x10]
308d:	83 38 00             	cmp    DWORD PTR [rax],0x0
3090:	0f 85 41 fc ff ff    	jne    2cd7 <main+0xe27>
3096:	48 8d 35 b3 aa 00 00 	lea    rsi,[rip+0xaab3]        # db50 <_IO_stdin_used+0x1550>
309d:	31 ff                	xor    edi,edi
309f:	ba 05 00 00 00       	mov    edx,0x5
30a4:	e8 b7 ea ff ff       	call   1b60 <dcgettext@plt>
30a9:	31 f6                	xor    esi,esi
30ab:	48 89 c2             	mov    rdx,rax
30ae:	31 ff                	xor    edi,edi
30b0:	31 c0                	xor    eax,eax
30b2:	e8 89 10 00 00       	call   4140 <nl_error>
30b7:	e9 1b fc ff ff       	jmp    2cd7 <main+0xe27>
30bc:	89 ea                	mov    edx,ebp
30be:	b9 b6 01 00 00       	mov    ecx,0x1b6
30c3:	bf 01 00 00 00       	mov    edi,0x1
30c8:	83 ca 02             	or     edx,0x2
30cb:	e8 50 19 00 00       	call   4a20 <ifd_reopen>
30d0:	85 c0                	test   eax,eax
30d2:	0f 89 49 f4 ff ff    	jns    2521 <main+0x671>
30d8:	48 8b 35 01 e3 20 00 	mov    rsi,QWORD PTR [rip+0x20e301]        # 2113e0 <output_file>
30df:	e9 21 f4 ff ff       	jmp    2505 <main+0x655>
30e4:	48 8b 54 24 38       	mov    rdx,QWORD PTR [rsp+0x38]
30e9:	48 85 d2             	test   rdx,rdx
30ec:	0f 84 b8 f5 ff ff    	je     26aa <main+0x7fa>
30f2:	48 8b 3d 17 e2 20 00 	mov    rdi,QWORD PTR [rip+0x20e217]        # 211310 <obuf>
30f9:	31 f6                	xor    esi,esi
30fb:	e8 40 eb ff ff       	call   1c40 <memset@plt>
3100:	e9 88 f5 ff ff       	jmp    268d <main+0x7dd>
3105:	0f b6 05 5f e1 20 00 	movzx  eax,BYTE PTR [rip+0x20e15f]        # 21126b <i_nocache>
310c:	08 05 57 e1 20 00    	or     BYTE PTR [rip+0x20e157],al        # 211269 <i_nocache_eof>
3112:	80 3d 51 e1 20 00 00 	cmp    BYTE PTR [rip+0x20e151],0x0        # 21126a <o_nocache>
3119:	0f b6 05 48 e1 20 00 	movzx  eax,BYTE PTR [rip+0x20e148]        # 211268 <o_nocache_eof>
3120:	74 0f                	je     3131 <main+0x1281>
3122:	31 db                	xor    ebx,ebx
3124:	f7 c6 00 02 00 00    	test   esi,0x200
312a:	0f 94 c3             	sete   bl
312d:	89 5c 24 28          	mov    DWORD PTR [rsp+0x28],ebx
3131:	0b 44 24 28          	or     eax,DWORD PTR [rsp+0x28]
3135:	88 05 2d e1 20 00    	mov    BYTE PTR [rip+0x20e12d],al        # 211268 <o_nocache_eof>
313b:	80 25 26 e1 20 00 01 	and    BYTE PTR [rip+0x20e126],0x1        # 211268 <o_nocache_eof>
3142:	80 3d f8 df 20 00 00 	cmp    BYTE PTR [rip+0x20dff8],0x0        # 211141 <char_is_saved>
3149:	0f 84 c0 00 00 00    	je     320f <main+0x135f>
314f:	40 f6 c6 08          	test   sil,0x8
3153:	0f 85 86 06 00 00    	jne    37df <main+0x192f>
3159:	40 80 e6 10          	and    sil,0x10
315d:	0f 85 98 06 00 00    	jne    37fb <main+0x194b>
3163:	48 8b 05 9e e1 20 00 	mov    rax,QWORD PTR [rip+0x20e19e]        # 211308 <oc>
316a:	0f b6 0d cf df 20 00 	movzx  ecx,BYTE PTR [rip+0x20dfcf]        # 211140 <saved_char>
3171:	48 8b 15 98 e1 20 00 	mov    rdx,QWORD PTR [rip+0x20e198]        # 211310 <obuf>
3178:	48 8d 70 01          	lea    rsi,[rax+0x1]
317c:	48 3b 35 45 e2 20 00 	cmp    rsi,QWORD PTR [rip+0x20e245]        # 2113c8 <output_blocksize>
3183:	88 0c 02             	mov    BYTE PTR [rdx+rax*1],cl
3186:	48 89 35 7b e1 20 00 	mov    QWORD PTR [rip+0x20e17b],rsi        # 211308 <oc>
318d:	73 75                	jae    3204 <main+0x1354>
318f:	48 85 f6             	test   rsi,rsi
3192:	0f 85 b6 04 00 00    	jne    364e <main+0x179e>
3198:	80 3d f9 e1 20 00 00 	cmp    BYTE PTR [rip+0x20e1f9],0x0        # 211398 <final_op_was_seek>
319f:	0f 85 15 05 00 00    	jne    36ba <main+0x180a>
31a5:	8b 35 e1 e1 20 00    	mov    esi,DWORD PTR [rip+0x20e1e1]        # 21138c <conversions_mask>
31ab:	f7 c6 00 40 00 00    	test   esi,0x4000
31b1:	0f 85 c9 04 00 00    	jne    3680 <main+0x17d0>
31b7:	81 e6 00 80 00 00    	and    esi,0x8000
31bd:	0f 84 44 fd ff ff    	je     2f07 <main+0x1057>
31c3:	48 8b 5c 24 10       	mov    rbx,QWORD PTR [rsp+0x10]
31c8:	bf 01 00 00 00       	mov    edi,0x1
31cd:	e8 ce eb ff ff       	call   1da0 <fsync@plt>
31d2:	85 c0                	test   eax,eax
31d4:	0f 84 2d fd ff ff    	je     2f07 <main+0x1057>
31da:	83 3b 04             	cmp    DWORD PTR [rbx],0x4
31dd:	74 e9                	je     31c8 <main+0x1318>
31df:	48 8b 35 fa e1 20 00 	mov    rsi,QWORD PTR [rip+0x20e1fa]        # 2113e0 <output_file>
31e6:	bf 04 00 00 00       	mov    edi,0x4
31eb:	e8 f0 57 00 00       	call   89e0 <quotearg_style>
31f0:	ba 05 00 00 00       	mov    edx,0x5
31f5:	48 89 c3             	mov    rbx,rax
31f8:	48 8d 35 62 97 00 00 	lea    rsi,[rip+0x9762]        # c961 <_IO_stdin_used+0x361>
31ff:	e9 de fc ff ff       	jmp    2ee2 <main+0x1032>
3204:	e8 77 28 00 00       	call   5a80 <write_output>
3209:	8b 35 7d e1 20 00    	mov    esi,DWORD PTR [rip+0x20e17d]        # 21138c <conversions_mask>
320f:	40 80 e6 08          	and    sil,0x8
3213:	0f 84 37 01 00 00    	je     3350 <main+0x14a0>
3219:	48 8b 1d e0 e0 20 00 	mov    rbx,QWORD PTR [rip+0x20e0e0]        # 211300 <col>
3220:	48 85 db             	test   rbx,rbx
3223:	0f 85 15 01 00 00    	jne    333e <main+0x148e>
3229:	48 8b 35 d8 e0 20 00 	mov    rsi,QWORD PTR [rip+0x20e0d8]        # 211308 <oc>
3230:	e9 5a ff ff ff       	jmp    318f <main+0x12df>
3235:	48 8d 35 cb 96 00 00 	lea    rsi,[rip+0x96cb]        # c907 <_IO_stdin_used+0x307>
323c:	31 ff                	xor    edi,edi
323e:	ba 05 00 00 00       	mov    edx,0x5
3243:	e8 18 e9 ff ff       	call   1b60 <dcgettext@plt>
3248:	44 89 e6             	mov    esi,r12d
324b:	48 89 c2             	mov    rdx,rax
324e:	31 ff                	xor    edi,edi
3250:	48 89 05 91 e1 20 00 	mov    QWORD PTR [rip+0x20e191],rax        # 2113e8 <input_file>
3257:	e8 44 11 00 00       	call   43a0 <set_fd_flags>
325c:	e9 0f f2 ff ff       	jmp    2470 <main+0x5c0>
3261:	48 83 3d 27 e1 20 00 	cmp    QWORD PTR [rip+0x20e127],0x0        # 211390 <max_bytes>
3268:	00
3269:	0f 85 a6 fc ff ff    	jne    2f15 <main+0x1065>
326f:	80 3d f5 df 20 00 00 	cmp    BYTE PTR [rip+0x20dff5],0x0        # 21126b <i_nocache>
3276:	0f 85 e7 01 00 00    	jne    3463 <main+0x15b3>
327c:	80 3d e7 df 20 00 00 	cmp    BYTE PTR [rip+0x20dfe7],0x0        # 21126a <o_nocache>
3283:	0f 84 c5 fc ff ff    	je     2f4e <main+0x109e>
3289:	31 f6                	xor    esi,esi
328b:	bf 01 00 00 00       	mov    edi,0x1
3290:	e8 1b 13 00 00       	call   45b0 <invalidate_cache>
3295:	84 c0                	test   al,al
3297:	0f 85 b1 fc ff ff    	jne    2f4e <main+0x109e>
329d:	48 8b 15 3c e1 20 00 	mov    rdx,QWORD PTR [rip+0x20e13c]        # 2113e0 <output_file>
32a4:	be 03 00 00 00       	mov    esi,0x3
32a9:	31 ff                	xor    edi,edi
32ab:	e8 30 58 00 00       	call   8ae0 <quotearg_n_style_colon>
32b0:	48 8d 35 f9 a8 00 00 	lea    rsi,[rip+0xa8f9]        # dbb0 <_IO_stdin_used+0x15b0>
32b7:	ba 05 00 00 00       	mov    edx,0x5
32bc:	31 ff                	xor    edi,edi
32be:	48 89 c3             	mov    rbx,rax
32c1:	e8 9a e8 ff ff       	call   1b60 <dcgettext@plt>
32c6:	48 89 c2             	mov    rdx,rax
32c9:	48 8b 44 24 10       	mov    rax,QWORD PTR [rsp+0x10]
32ce:	48 89 d9             	mov    rcx,rbx
32d1:	31 ff                	xor    edi,edi
32d3:	8b 30                	mov    esi,DWORD PTR [rax]
32d5:	31 c0                	xor    eax,eax
32d7:	e8 64 0e 00 00       	call   4140 <nl_error>
32dc:	c7 44 24 18 01 00 00 	mov    DWORD PTR [rsp+0x18],0x1
32e3:	00
32e4:	e9 65 fc ff ff       	jmp    2f4e <main+0x109e>
32e9:	48 39 2d e0 e0 20 00 	cmp    QWORD PTR [rip+0x20e0e0],rbp        # 2113d0 <input_blocksize>
32f0:	0f 84 ca 01 00 00    	je     34c0 <main+0x1610>
32f6:	48 83 05 7a e0 20 00 	add    QWORD PTR [rip+0x20e07a],0x1        # 211378 <w_partial>
32fd:	01
32fe:	e9 ed f3 ff ff       	jmp    26f0 <main+0x840>
3303:	c7 44 24 18 00 00 00 	mov    DWORD PTR [rsp+0x18],0x0
330a:	00
330b:	e9 5f ff ff ff       	jmp    326f <main+0x13bf>
3310:	48 8d 46 01          	lea    rax,[rsi+0x1]
3314:	0f b6 0d fe dc 20 00 	movzx  ecx,BYTE PTR [rip+0x20dcfe]        # 211019 <space_character>
331b:	48 3b 05 a6 e0 20 00 	cmp    rax,QWORD PTR [rip+0x20e0a6]        # 2113c8 <output_blocksize>
3322:	48 8b 15 e7 df 20 00 	mov    rdx,QWORD PTR [rip+0x20dfe7]        # 211310 <obuf>
3329:	48 89 05 d8 df 20 00 	mov    QWORD PTR [rip+0x20dfd8],rax        # 211308 <oc>
3330:	88 0c 32             	mov    BYTE PTR [rdx+rsi*1],cl
3333:	72 05                	jb     333a <main+0x148a>
3335:	e8 46 27 00 00       	call   5a80 <write_output>
333a:	48 83 c3 01          	add    rbx,0x1
333e:	48 3b 1d 7b e0 20 00 	cmp    rbx,QWORD PTR [rip+0x20e07b]        # 2113c0 <conversion_blocksize>
3345:	48 8b 35 bc df 20 00 	mov    rsi,QWORD PTR [rip+0x20dfbc]        # 211308 <oc>
334c:	72 c2                	jb     3310 <main+0x1460>
334e:	eb 07                	jmp    3357 <main+0x14a7>
3350:	48 8b 35 b1 df 20 00 	mov    rsi,QWORD PTR [rip+0x20dfb1]        # 211308 <oc>
3357:	48 83 3d a1 df 20 00 	cmp    QWORD PTR [rip+0x20dfa1],0x0        # 211300 <col>
335e:	00
335f:	0f 84 2a fe ff ff    	je     318f <main+0x12df>
3365:	f6 05 20 e0 20 00 10 	test   BYTE PTR [rip+0x20e020],0x10        # 21138c <conversions_mask>
336c:	0f 84 1d fe ff ff    	je     318f <main+0x12df>
3372:	48 8d 46 01          	lea    rax,[rsi+0x1]
3376:	0f b6 0d 9d dc 20 00 	movzx  ecx,BYTE PTR [rip+0x20dc9d]        # 21101a <newline_character>
337d:	48 3b 05 44 e0 20 00 	cmp    rax,QWORD PTR [rip+0x20e044]        # 2113c8 <output_blocksize>
3384:	48 8b 15 85 df 20 00 	mov    rdx,QWORD PTR [rip+0x20df85]        # 211310 <obuf>
338b:	48 89 05 76 df 20 00 	mov    QWORD PTR [rip+0x20df76],rax        # 211308 <oc>
3392:	88 0c 32             	mov    BYTE PTR [rdx+rsi*1],cl
3395:	48 89 c6             	mov    rsi,rax
3398:	0f 82 f1 fd ff ff    	jb     318f <main+0x12df>
339e:	e8 dd 26 00 00       	call   5a80 <write_output>
33a3:	e9 81 fe ff ff       	jmp    3229 <main+0x1379>
33a8:	3c 3d                	cmp    al,0x3d
33aa:	0f 84 db f7 ff ff    	je     2b8b <main+0xcdb>
33b0:	48 8b 74 24 18       	mov    rsi,QWORD PTR [rsp+0x18]
33b5:	4c 89 c7             	mov    rdi,r8
33b8:	4c 89 44 24 28       	mov    QWORD PTR [rsp+0x28],r8
33bd:	c7 44 24 38 00 00 00 	mov    DWORD PTR [rsp+0x38],0x0
33c4:	00
33c5:	e8 86 0e 00 00       	call   4250 <parse_integer>
33ca:	4c 89 ea             	mov    rdx,r13
33cd:	be 69 00 00 00       	mov    esi,0x69
33d2:	48 8d 0d 3a 94 00 00 	lea    rcx,[rip+0x943a]        # c813 <_IO_stdin_used+0x213>
33d9:	4c 8b 44 24 28       	mov    r8,QWORD PTR [rsp+0x28]
33de:	eb 0c                	jmp    33ec <main+0x153c>
33e0:	0f b6 31             	movzx  esi,BYTE PTR [rcx]
33e3:	40 84 f6             	test   sil,sil
33e6:	0f 84 7b 03 00 00    	je     3767 <main+0x18b7>
33ec:	48 83 c2 01          	add    rdx,0x1
33f0:	48 83 c1 01          	add    rcx,0x1
33f4:	40 38 72 ff          	cmp    BYTE PTR [rdx-0x1],sil
33f8:	74 e6                	je     33e0 <main+0x1530>
33fa:	48 8d 0d 16 94 00 00 	lea    rcx,[rip+0x9416]        # c817 <_IO_stdin_used+0x217>
3401:	4c 89 ea             	mov    rdx,r13
3404:	be 6f 00 00 00       	mov    esi,0x6f
3409:	48 83 c2 01          	add    rdx,0x1
340d:	48 83 c1 01          	add    rcx,0x1
3411:	40 38 72 ff          	cmp    BYTE PTR [rdx-0x1],sil
3415:	75 1c                	jne    3433 <main+0x1583>
3417:	0f b6 31             	movzx  esi,BYTE PTR [rcx]
341a:	40 84 f6             	test   sil,sil
341d:	75 ea                	jne    3409 <main+0x1559>
341f:	0f b6 12             	movzx  edx,BYTE PTR [rdx]
3422:	84 d2                	test   dl,dl
3424:	0f 84 95 01 00 00    	je     35bf <main+0x170f>
342a:	80 fa 3d             	cmp    dl,0x3d
342d:	0f 84 8c 01 00 00    	je     35bf <main+0x170f>
3433:	4c 89 ea             	mov    rdx,r13
3436:	be 62 00 00 00       	mov    esi,0x62
343b:	48 8d 0d da 93 00 00 	lea    rcx,[rip+0x93da]        # c81c <_IO_stdin_used+0x21c>
3442:	eb 0c                	jmp    3450 <main+0x15a0>
3444:	0f b6 31             	movzx  esi,BYTE PTR [rcx]
3447:	40 84 f6             	test   sil,sil
344a:	0f 84 56 05 00 00    	je     39a6 <main+0x1af6>
3450:	48 83 c2 01          	add    rdx,0x1
3454:	48 83 c1 01          	add    rcx,0x1
3458:	40 38 72 ff          	cmp    BYTE PTR [rdx-0x1],sil
345c:	74 e6                	je     3444 <main+0x1594>
345e:	e9 4f 05 00 00       	jmp    39b2 <main+0x1b02>
3463:	31 f6                	xor    esi,esi
3465:	31 ff                	xor    edi,edi
3467:	e8 44 11 00 00       	call   45b0 <invalidate_cache>
346c:	84 c0                	test   al,al
346e:	0f 85 08 fe ff ff    	jne    327c <main+0x13cc>
3474:	48 8b 15 6d df 20 00 	mov    rdx,QWORD PTR [rip+0x20df6d]        # 2113e8 <input_file>
347b:	be 03 00 00 00       	mov    esi,0x3
3480:	31 ff                	xor    edi,edi
3482:	e8 59 56 00 00       	call   8ae0 <quotearg_n_style_colon>
3487:	48 8d 35 22 a7 00 00 	lea    rsi,[rip+0xa722]        # dbb0 <_IO_stdin_used+0x15b0>
348e:	ba 05 00 00 00       	mov    edx,0x5
3493:	31 ff                	xor    edi,edi
3495:	48 89 c3             	mov    rbx,rax
3498:	e8 c3 e6 ff ff       	call   1b60 <dcgettext@plt>
349d:	48 89 c2             	mov    rdx,rax
34a0:	48 8b 44 24 10       	mov    rax,QWORD PTR [rsp+0x10]
34a5:	48 89 d9             	mov    rcx,rbx
34a8:	31 ff                	xor    edi,edi
34aa:	8b 30                	mov    esi,DWORD PTR [rax]
34ac:	31 c0                	xor    eax,eax
34ae:	e8 8d 0c 00 00       	call   4140 <nl_error>
34b3:	c7 44 24 18 01 00 00 	mov    DWORD PTR [rsp+0x18],0x1
34ba:	00
34bb:	e9 bc fd ff ff       	jmp    327c <main+0x13cc>
34c0:	48 83 05 a8 de 20 00 	add    QWORD PTR [rip+0x20dea8],0x1        # 211370 <w_full>
34c7:	01
34c8:	e9 23 f2 ff ff       	jmp    26f0 <main+0x840>
34cd:	48 8b 44 24 10       	mov    rax,QWORD PTR [rsp+0x10]
34d2:	48 8b 54 24 20       	mov    rdx,QWORD PTR [rsp+0x20]
34d7:	be 01 00 00 00       	mov    esi,0x1
34dc:	bf 01 00 00 00       	mov    edi,0x1
34e1:	8b 28                	mov    ebp,DWORD PTR [rax]
34e3:	e8 48 e8 ff ff       	call   1d30 <__fxstat@plt>
34e8:	85 c0                	test   eax,eax
34ea:	0f 85 53 06 00 00    	jne    3b43 <main+0x1c93>
34f0:	8b 44 24 58          	mov    eax,DWORD PTR [rsp+0x58]
34f4:	25 00 f0 00 00       	and    eax,0xf000
34f9:	2d 00 40 00 00       	sub    eax,0x4000
34fe:	a9 00 b0 ff ff       	test   eax,0xffffb000
3503:	0f 85 6a f0 ff ff    	jne    2573 <main+0x6c3>
3509:	48 8b 35 d0 de 20 00 	mov    rsi,QWORD PTR [rip+0x20ded0]        # 2113e0 <output_file>
3510:	bf 04 00 00 00       	mov    edi,0x4
3515:	e8 c6 54 00 00       	call   89e0 <quotearg_style>
351a:	48 8d 35 77 a5 00 00 	lea    rsi,[rip+0xa577]        # da98 <_IO_stdin_used+0x1498>
3521:	48 89 c3             	mov    rbx,rax
3524:	ba 05 00 00 00       	mov    edx,0x5
3529:	31 ff                	xor    edi,edi
352b:	e8 30 e6 ff ff       	call   1b60 <dcgettext@plt>
3530:	49 89 d8             	mov    r8,rbx
3533:	48 89 c2             	mov    rdx,rax
3536:	4c 89 e1             	mov    rcx,r12
3539:	89 ee                	mov    esi,ebp
353b:	bf 01 00 00 00       	mov    edi,0x1
3540:	31 c0                	xor    eax,eax
3542:	e8 f9 0b 00 00       	call   4140 <nl_error>
3547:	83 3d ce da 20 00 01 	cmp    DWORD PTR [rip+0x20dace],0x1        # 21101c <status_level>
354e:	0f 84 15 fb ff ff    	je     3069 <main+0x11b9>
3554:	48 8d 35 c5 a5 00 00 	lea    rsi,[rip+0xa5c5]        # db20 <_IO_stdin_used+0x1520>
355b:	31 ff                	xor    edi,edi
355d:	ba 05 00 00 00       	mov    edx,0x5
3562:	e8 f9 e5 ff ff       	call   1b60 <dcgettext@plt>
3567:	31 f6                	xor    esi,esi
3569:	48 89 c2             	mov    rdx,rax
356c:	31 ff                	xor    edi,edi
356e:	31 c0                	xor    eax,eax
3570:	e8 cb 0b 00 00       	call   4140 <nl_error>
3575:	e9 ef fa ff ff       	jmp    3069 <main+0x11b9>
357a:	48 8d 3d ff dc 20 00 	lea    rdi,[rip+0x20dcff]        # 211280 <caught_signals>
3581:	be 0a 00 00 00       	mov    esi,0xa
3586:	e8 d5 e8 ff ff       	call   1e60 <sigaddset@plt>
358b:	e9 6e e9 ff ff       	jmp    1efe <main+0x4e>
3590:	48 8d 35 91 93 00 00 	lea    rsi,[rip+0x9391]        # c928 <_IO_stdin_used+0x328>
3597:	31 ff                	xor    edi,edi
3599:	ba 05 00 00 00       	mov    edx,0x5
359e:	e8 bd e5 ff ff       	call   1b60 <dcgettext@plt>
35a3:	44 89 e6             	mov    esi,r12d
35a6:	48 89 c2             	mov    rdx,rax
35a9:	bf 01 00 00 00       	mov    edi,0x1
35ae:	48 89 05 2b de 20 00 	mov    QWORD PTR [rip+0x20de2b],rax        # 2113e0 <output_file>
35b5:	e8 e6 0d 00 00       	call   43a0 <set_fd_flags>
35ba:	e9 b4 ef ff ff       	jmp    2573 <main+0x6c3>
35bf:	48 8b 15 12 de 20 00 	mov    rdx,QWORD PTR [rip+0x20de12]        # 2113d8 <page_size>
35c6:	48 bf ff ff ff ff ff 	movabs rdi,0x7fffffffffffffff
35cd:	ff ff 7f
35d0:	48 89 05 f1 dd 20 00 	mov    QWORD PTR [rip+0x20ddf1],rax        # 2113c8 <output_blocksize>
35d7:	48 f7 da             	neg    rdx
35da:	48 39 fa             	cmp    rdx,rdi
35dd:	48 0f 47 d7          	cmova  rdx,rdi
35e1:	48 85 c0             	test   rax,rax
35e4:	0f 84 e8 01 00 00    	je     37d2 <main+0x1922>
35ea:	48 39 d0             	cmp    rax,rdx
35ed:	0f 86 af 02 00 00    	jbe    38a2 <main+0x19f2>
35f3:	c7 44 24 38 01 00 00 	mov    DWORD PTR [rsp+0x38],0x1
35fa:	00
35fb:	4c 89 c7             	mov    rdi,r8
35fe:	e8 ad 56 00 00       	call   8cb0 <quote>
3603:	48 8d 35 6b 93 00 00 	lea    rsi,[rip+0x936b]        # c975 <_IO_stdin_used+0x375>
360a:	31 ff                	xor    edi,edi
360c:	ba 05 00 00 00       	mov    edx,0x5
3611:	48 89 c3             	mov    rbx,rax
3614:	e8 47 e5 ff ff       	call   1b60 <dcgettext@plt>
3619:	83 7c 24 38 01       	cmp    DWORD PTR [rsp+0x38],0x1
361e:	ba 00 00 00 00       	mov    edx,0x0
3623:	be 4b 00 00 00       	mov    esi,0x4b
3628:	48 89 c1             	mov    rcx,rax
362b:	49 89 d8             	mov    r8,rbx
362e:	bf 01 00 00 00       	mov    edi,0x1
3633:	0f 45 f2             	cmovne esi,edx
3636:	48 8d 15 62 91 00 00 	lea    rdx,[rip+0x9162]        # c79f <_IO_stdin_used+0x19f>
363d:	31 c0                	xor    eax,eax
363f:	e8 fc 0a 00 00       	call   4140 <nl_error>
3644:	e8 d7 15 00 00       	call   4c20 <alloc_ibuf.part.4>
3649:	e9 82 f0 ff ff       	jmp    26d0 <main+0x820>
364e:	48 8b 3d bb dc 20 00 	mov    rdi,QWORD PTR [rip+0x20dcbb]        # 211310 <obuf>
3655:	e8 d6 17 00 00       	call   4e30 <iwrite.constprop.7>
365a:	48 01 05 f7 dc 20 00 	add    QWORD PTR [rip+0x20dcf7],rax        # 211358 <w_bytes>
3661:	48 85 c0             	test   rax,rax
3664:	74 08                	je     366e <main+0x17be>
3666:	48 83 05 0a dd 20 00 	add    QWORD PTR [rip+0x20dd0a],0x1        # 211378 <w_partial>
366d:	01
366e:	48 3b 05 93 dc 20 00 	cmp    rax,QWORD PTR [rip+0x20dc93]        # 211308 <oc>
3675:	0f 84 1d fb ff ff    	je     3198 <main+0x12e8>
367b:	e9 42 f8 ff ff       	jmp    2ec2 <main+0x1012>
3680:	bf 01 00 00 00       	mov    edi,0x1
3685:	e8 06 e4 ff ff       	call   1a90 <fdatasync@plt>
368a:	85 c0                	test   eax,eax
368c:	74 21                	je     36af <main+0x17ff>
368e:	48 8b 44 24 10       	mov    rax,QWORD PTR [rsp+0x10]
3693:	8b 00                	mov    eax,DWORD PTR [rax]
3695:	89 44 24 08          	mov    DWORD PTR [rsp+0x8],eax
3699:	83 e8 16             	sub    eax,0x16
369c:	83 e0 ef             	and    eax,0xffffffef
369f:	0f 85 32 02 00 00    	jne    38d7 <main+0x1a27>
36a5:	81 0d dd dc 20 00 00 	or     DWORD PTR [rip+0x20dcdd],0x8000        # 21138c <conversions_mask>
36ac:	80 00 00
36af:	8b 35 d7 dc 20 00    	mov    esi,DWORD PTR [rip+0x20dcd7]        # 21138c <conversions_mask>
36b5:	e9 fd fa ff ff       	jmp    31b7 <main+0x1307>
36ba:	48 8b 54 24 20       	mov    rdx,QWORD PTR [rsp+0x20]
36bf:	be 01 00 00 00       	mov    esi,0x1
36c4:	bf 01 00 00 00       	mov    edi,0x1
36c9:	e8 62 e6 ff ff       	call   1d30 <__fxstat@plt>
36ce:	85 c0                	test   eax,eax
36d0:	0f 85 dc 01 00 00    	jne    38b2 <main+0x1a02>
36d6:	8b 44 24 58          	mov    eax,DWORD PTR [rsp+0x58]
36da:	25 00 f0 00 00       	and    eax,0xf000
36df:	3d 00 80 00 00       	cmp    eax,0x8000
36e4:	0f 85 bb fa ff ff    	jne    31a5 <main+0x12f5>
36ea:	31 f6                	xor    esi,esi
36ec:	ba 01 00 00 00       	mov    edx,0x1
36f1:	bf 01 00 00 00       	mov    edi,0x1
36f6:	e8 15 e5 ff ff       	call   1c10 <lseek@plt>
36fb:	48 85 c0             	test   rax,rax
36fe:	48 89 c3             	mov    rbx,rax
3701:	0f 88 9e fa ff ff    	js     31a5 <main+0x12f5>
3707:	48 3b 44 24 70       	cmp    rax,QWORD PTR [rsp+0x70]
370c:	0f 8e 93 fa ff ff    	jle    31a5 <main+0x12f5>
3712:	48 89 c7             	mov    rdi,rax
3715:	e8 d6 16 00 00       	call   4df0 <iftruncate.constprop.6>
371a:	85 c0                	test   eax,eax
371c:	0f 84 83 fa ff ff    	je     31a5 <main+0x12f5>
3722:	48 8b 35 b7 dc 20 00 	mov    rsi,QWORD PTR [rip+0x20dcb7]        # 2113e0 <output_file>
3729:	bf 04 00 00 00       	mov    edi,0x4
372e:	e8 ad 52 00 00       	call   89e0 <quotearg_style>
3733:	48 8d 35 3e a4 00 00 	lea    rsi,[rip+0xa43e]        # db78 <_IO_stdin_used+0x1578>
373a:	31 ff                	xor    edi,edi
373c:	ba 05 00 00 00       	mov    edx,0x5
3741:	48 89 c5             	mov    rbp,rax
3744:	e8 17 e4 ff ff       	call   1b60 <dcgettext@plt>
3749:	48 89 c2             	mov    rdx,rax
374c:	48 8b 44 24 10       	mov    rax,QWORD PTR [rsp+0x10]
3751:	49 89 e8             	mov    r8,rbp
3754:	48 89 d9             	mov    rcx,rbx
3757:	31 ff                	xor    edi,edi
3759:	8b 30                	mov    esi,DWORD PTR [rax]
375b:	31 c0                	xor    eax,eax
375d:	e8 de 09 00 00       	call   4140 <nl_error>
3762:	e9 98 f7 ff ff       	jmp    2eff <main+0x104f>
3767:	0f b6 12             	movzx  edx,BYTE PTR [rdx]
376a:	84 d2                	test   dl,dl
376c:	74 09                	je     3777 <main+0x18c7>
376e:	80 fa 3d             	cmp    dl,0x3d
3771:	0f 85 83 fc ff ff    	jne    33fa <main+0x154a>
3777:	48 8b 3d 5a dc 20 00 	mov    rdi,QWORD PTR [rip+0x20dc5a]        # 2113d8 <page_size>
377e:	48 89 05 4b dc 20 00 	mov    QWORD PTR [rip+0x20dc4b],rax        # 2113d0 <input_blocksize>
3785:	48 8d 57 02          	lea    rdx,[rdi+0x2]
3789:	48 bf ff ff ff ff ff 	movabs rdi,0x7fffffffffffffff
3790:	ff ff 7f
3793:	48 01 d2             	add    rdx,rdx
3796:	48 f7 da             	neg    rdx
3799:	48 39 fa             	cmp    rdx,rdi
379c:	48 0f 47 d7          	cmova  rdx,rdi
37a0:	e9 3c fe ff ff       	jmp    35e1 <main+0x1731>
37a5:	c7 44 24 18 01 00 00 	mov    DWORD PTR [rsp+0x18],0x1
37ac:	00
37ad:	e9 90 f9 ff ff       	jmp    3142 <main+0x1292>
37b2:	0f b6 12             	movzx  edx,BYTE PTR [rdx]
37b5:	84 d2                	test   dl,dl
37b7:	74 09                	je     37c2 <main+0x1912>
37b9:	80 fa 3d             	cmp    dl,0x3d
37bc:	0f 85 1b 02 00 00    	jne    39dd <main+0x1b2d>
37c2:	48 85 c0             	test   rax,rax
37c5:	48 89 05 f4 db 20 00 	mov    QWORD PTR [rip+0x20dbf4],rax        # 2113c0 <conversion_blocksize>
37cc:	0f 85 d0 00 00 00    	jne    38a2 <main+0x19f2>
37d2:	c7 44 24 38 04 00 00 	mov    DWORD PTR [rsp+0x38],0x4
37d9:	00
37da:	e9 1c fe ff ff       	jmp    35fb <main+0x174b>
37df:	48 8d 3d 5a d9 20 00 	lea    rdi,[rip+0x20d95a]        # 211140 <saved_char>
37e6:	be 01 00 00 00       	mov    esi,0x1
37eb:	e8 30 23 00 00       	call   5b20 <copy_with_block>
37f0:	8b 35 96 db 20 00    	mov    esi,DWORD PTR [rip+0x20db96]        # 21138c <conversions_mask>
37f6:	e9 14 fa ff ff       	jmp    320f <main+0x135f>
37fb:	48 8d 3d 3e d9 20 00 	lea    rdi,[rip+0x20d93e]        # 211140 <saved_char>
3802:	be 01 00 00 00       	mov    esi,0x1
3807:	e8 34 24 00 00       	call   5c40 <copy_with_unblock>
380c:	8b 35 7a db 20 00    	mov    esi,DWORD PTR [rip+0x20db7a]        # 21138c <conversions_mask>
3812:	e9 f8 f9 ff ff       	jmp    320f <main+0x135f>
3817:	0f b6 12             	movzx  edx,BYTE PTR [rdx]
381a:	80 fa 3d             	cmp    dl,0x3d
381d:	0f 84 5c 02 00 00    	je     3a7f <main+0x1bcf>
3823:	84 d2                	test   dl,dl
3825:	0f 84 54 02 00 00    	je     3a7f <main+0x1bcf>
382b:	48 8d 0d 9f 8f 00 00 	lea    rcx,[rip+0x8f9f]        # c7d1 <_IO_stdin_used+0x1d1>
3832:	4c 89 ea             	mov    rdx,r13
3835:	be 73 00 00 00       	mov    esi,0x73
383a:	48 83 c2 01          	add    rdx,0x1
383e:	48 83 c1 01          	add    rcx,0x1
3842:	40 38 72 ff          	cmp    BYTE PTR [rdx-0x1],sil
3846:	75 1c                	jne    3864 <main+0x19b4>
3848:	0f b6 31             	movzx  esi,BYTE PTR [rcx]
384b:	40 84 f6             	test   sil,sil
384e:	75 ea                	jne    383a <main+0x198a>
3850:	0f b6 12             	movzx  edx,BYTE PTR [rdx]
3853:	80 fa 3d             	cmp    dl,0x3d
3856:	0f 84 2d 02 00 00    	je     3a89 <main+0x1bd9>
385c:	84 d2                	test   dl,dl
385e:	0f 84 25 02 00 00    	je     3a89 <main+0x1bd9>
3864:	48 8d 0d b4 8f 00 00 	lea    rcx,[rip+0x8fb4]        # c81f <_IO_stdin_used+0x21f>
386b:	4c 89 ea             	mov    rdx,r13
386e:	be 63 00 00 00       	mov    esi,0x63
3873:	48 83 c2 01          	add    rdx,0x1
3877:	48 83 c1 01          	add    rcx,0x1
387b:	40 38 72 ff          	cmp    BYTE PTR [rdx-0x1],sil
387f:	0f 85 9c 00 00 00    	jne    3921 <main+0x1a71>
3885:	0f b6 31             	movzx  esi,BYTE PTR [rcx]
3888:	40 84 f6             	test   sil,sil
388b:	75 e6                	jne    3873 <main+0x19c3>
388d:	0f b6 12             	movzx  edx,BYTE PTR [rdx]
3890:	80 fa 3d             	cmp    dl,0x3d
3893:	74 08                	je     389d <main+0x19ed>
3895:	84 d2                	test   dl,dl
3897:	0f 85 84 00 00 00    	jne    3921 <main+0x1a71>
389d:	48 89 44 24 10       	mov    QWORD PTR [rsp+0x10],rax
38a2:	83 7c 24 38 00       	cmp    DWORD PTR [rsp+0x38],0x0
38a7:	0f 84 e3 e8 ff ff    	je     2190 <main+0x2e0>
38ad:	e9 49 fd ff ff       	jmp    35fb <main+0x174b>
38b2:	48 8b 35 27 db 20 00 	mov    rsi,QWORD PTR [rip+0x20db27]        # 2113e0 <output_file>
38b9:	bf 04 00 00 00       	mov    edi,0x4
38be:	e8 1d 51 00 00       	call   89e0 <quotearg_style>
38c3:	ba 05 00 00 00       	mov    edx,0x5
38c8:	48 89 c3             	mov    rbx,rax
38cb:	48 8d 35 d4 8e 00 00 	lea    rsi,[rip+0x8ed4]        # c7a6 <_IO_stdin_used+0x1a6>
38d2:	e9 0b f6 ff ff       	jmp    2ee2 <main+0x1032>
38d7:	48 8b 35 02 db 20 00 	mov    rsi,QWORD PTR [rip+0x20db02]        # 2113e0 <output_file>
38de:	bf 04 00 00 00       	mov    edi,0x4
38e3:	e8 f8 50 00 00       	call   89e0 <quotearg_style>
38e8:	48 8d 35 5a 90 00 00 	lea    rsi,[rip+0x905a]        # c949 <_IO_stdin_used+0x349>
38ef:	ba 05 00 00 00       	mov    edx,0x5
38f4:	31 ff                	xor    edi,edi
38f6:	48 89 c3             	mov    rbx,rax
38f9:	e8 62 e2 ff ff       	call   1b60 <dcgettext@plt>
38fe:	48 89 c2             	mov    rdx,rax
3901:	48 8b 44 24 10       	mov    rax,QWORD PTR [rsp+0x10]
3906:	48 89 d9             	mov    rcx,rbx
3909:	31 ff                	xor    edi,edi
390b:	8b 30                	mov    esi,DWORD PTR [rax]
390d:	31 c0                	xor    eax,eax
390f:	e8 2c 08 00 00       	call   4140 <nl_error>
3914:	c7 44 24 18 01 00 00 	mov    DWORD PTR [rsp+0x18],0x1
391b:	00
391c:	e9 84 fd ff ff       	jmp    36a5 <main+0x17f5>
3921:	4c 89 ef             	mov    rdi,r13
3924:	e8 87 53 00 00       	call   8cb0 <quote>
3929:	48 8d 35 5b 8f 00 00 	lea    rsi,[rip+0x8f5b]        # c88b <_IO_stdin_used+0x28b>
3930:	48 89 c3             	mov    rbx,rax
3933:	ba 05 00 00 00       	mov    edx,0x5
3938:	31 ff                	xor    edi,edi
393a:	e8 21 e2 ff ff       	call   1b60 <dcgettext@plt>
393f:	31 ff                	xor    edi,edi
3941:	48 89 c2             	mov    rdx,rax
3944:	48 89 d9             	mov    rcx,rbx
3947:	31 f6                	xor    esi,esi
3949:	31 c0                	xor    eax,eax
394b:	e8 f0 07 00 00       	call   4140 <nl_error>
3950:	bf 01 00 00 00       	mov    edi,0x1
3955:	e8 d6 16 00 00       	call   5030 <usage>
395a:	48 8b 35 7f da 20 00 	mov    rsi,QWORD PTR [rip+0x20da7f]        # 2113e0 <output_file>
3961:	bf 04 00 00 00       	mov    edi,0x4
3966:	e8 75 50 00 00       	call   89e0 <quotearg_style>
396b:	48 8d 35 75 8e 00 00 	lea    rsi,[rip+0x8e75]        # c7e7 <_IO_stdin_used+0x1e7>
3972:	ba 05 00 00 00       	mov    edx,0x5
3977:	31 ff                	xor    edi,edi
3979:	48 89 c3             	mov    rbx,rax
397c:	e8 df e1 ff ff       	call   1b60 <dcgettext@plt>
3981:	48 89 c2             	mov    rdx,rax
3984:	48 8b 44 24 10       	mov    rax,QWORD PTR [rsp+0x10]
3989:	31 ff                	xor    edi,edi
398b:	48 89 d9             	mov    rcx,rbx
398e:	8b 30                	mov    esi,DWORD PTR [rax]
3990:	31 c0                	xor    eax,eax
3992:	e8 a9 07 00 00       	call   4140 <nl_error>
3997:	e8 64 12 00 00       	call   4c00 <finish_up>
399c:	bf 01 00 00 00       	mov    edi,0x1
39a1:	e8 6a e4 ff ff       	call   1e10 <exit@plt>
39a6:	0f b6 12             	movzx  edx,BYTE PTR [rdx]
39a9:	84 d2                	test   dl,dl
39ab:	74 60                	je     3a0d <main+0x1b5d>
39ad:	80 fa 3d             	cmp    dl,0x3d
39b0:	74 5b                	je     3a0d <main+0x1b5d>
39b2:	4c 89 ea             	mov    rdx,r13
39b5:	be 63 00 00 00       	mov    esi,0x63
39ba:	48 8d 0d 5a 8e 00 00 	lea    rcx,[rip+0x8e5a]        # c81b <_IO_stdin_used+0x21b>
39c1:	eb 0c                	jmp    39cf <main+0x1b1f>
39c3:	0f b6 31             	movzx  esi,BYTE PTR [rcx]
39c6:	40 84 f6             	test   sil,sil
39c9:	0f 84 e3 fd ff ff    	je     37b2 <main+0x1902>
39cf:	48 83 c2 01          	add    rdx,0x1
39d3:	48 83 c1 01          	add    rcx,0x1
39d7:	40 38 72 ff          	cmp    BYTE PTR [rdx-0x1],sil
39db:	74 e6                	je     39c3 <main+0x1b13>
39dd:	4c 89 ea             	mov    rdx,r13
39e0:	be 73 00 00 00       	mov    esi,0x73
39e5:	48 8d 0d d5 8d 00 00 	lea    rcx,[rip+0x8dd5]        # c7c1 <_IO_stdin_used+0x1c1>
39ec:	eb 0c                	jmp    39fa <main+0x1b4a>
39ee:	0f b6 31             	movzx  esi,BYTE PTR [rcx]
39f1:	40 84 f6             	test   sil,sil
39f4:	0f 84 1d fe ff ff    	je     3817 <main+0x1967>
39fa:	48 83 c2 01          	add    rdx,0x1
39fe:	48 83 c1 01          	add    rcx,0x1
3a02:	40 38 72 ff          	cmp    BYTE PTR [rdx-0x1],sil
3a06:	74 e6                	je     39ee <main+0x1b3e>
3a08:	e9 1e fe ff ff       	jmp    382b <main+0x197b>
3a0d:	48 8b 3d c4 d9 20 00 	mov    rdi,QWORD PTR [rip+0x20d9c4]        # 2113d8 <page_size>
3a14:	49 89 c7             	mov    r15,rax
3a17:	48 8d 57 02          	lea    rdx,[rdi+0x2]
3a1b:	48 bf ff ff ff ff ff 	movabs rdi,0x7fffffffffffffff
3a22:	ff ff 7f
3a25:	48 01 d2             	add    rdx,rdx
3a28:	48 f7 da             	neg    rdx
3a2b:	48 39 fa             	cmp    rdx,rdi
3a2e:	48 0f 47 d7          	cmova  rdx,rdi
3a32:	e9 aa fb ff ff       	jmp    35e1 <main+0x1731>
3a37:	48 8d 35 7a 9f 00 00 	lea    rsi,[rip+0x9f7a]        # d9b8 <_IO_stdin_used+0x13b8>
3a3e:	ba 05 00 00 00       	mov    edx,0x5
3a43:	31 ff                	xor    edi,edi
3a45:	e8 16 e1 ff ff       	call   1b60 <dcgettext@plt>
3a4a:	31 f6                	xor    esi,esi
3a4c:	48 89 c2             	mov    rdx,rax
3a4f:	bf 01 00 00 00       	mov    edi,0x1
3a54:	31 c0                	xor    eax,eax
3a56:	e8 e5 06 00 00       	call   4140 <nl_error>
3a5b:	48 8d 35 7e 9f 00 00 	lea    rsi,[rip+0x9f7e]        # d9e0 <_IO_stdin_used+0x13e0>
3a62:	ba 05 00 00 00       	mov    edx,0x5
3a67:	31 ff                	xor    edi,edi
3a69:	e8 f2 e0 ff ff       	call   1b60 <dcgettext@plt>
3a6e:	31 f6                	xor    esi,esi
3a70:	48 89 c2             	mov    rdx,rax
3a73:	bf 01 00 00 00       	mov    edi,0x1
3a78:	31 c0                	xor    eax,eax
3a7a:	e8 c1 06 00 00       	call   4140 <nl_error>
3a7f:	48 89 44 24 08       	mov    QWORD PTR [rsp+0x8],rax
3a84:	e9 19 fe ff ff       	jmp    38a2 <main+0x19f2>
3a89:	49 89 c4             	mov    r12,rax
3a8c:	e9 11 fe ff ff       	jmp    38a2 <main+0x19f2>
3a91:	48 8d 35 68 9f 00 00 	lea    rsi,[rip+0x9f68]        # da00 <_IO_stdin_used+0x1400>
3a98:	ba 05 00 00 00       	mov    edx,0x5
3a9d:	31 ff                	xor    edi,edi
3a9f:	e8 bc e0 ff ff       	call   1b60 <dcgettext@plt>
3aa4:	31 f6                	xor    esi,esi
3aa6:	48 89 c2             	mov    rdx,rax
3aa9:	bf 01 00 00 00       	mov    edi,0x1
3aae:	31 c0                	xor    eax,eax
3ab0:	e8 8b 06 00 00       	call   4140 <nl_error>
3ab5:	48 8d 35 64 9f 00 00 	lea    rsi,[rip+0x9f64]        # da20 <_IO_stdin_used+0x1420>
3abc:	ba 05 00 00 00       	mov    edx,0x5
3ac1:	31 ff                	xor    edi,edi
3ac3:	e8 98 e0 ff ff       	call   1b60 <dcgettext@plt>
3ac8:	31 f6                	xor    esi,esi
3aca:	48 89 c2             	mov    rdx,rax
3acd:	bf 01 00 00 00       	mov    edi,0x1
3ad2:	31 c0                	xor    eax,eax
3ad4:	e8 67 06 00 00       	call   4140 <nl_error>
3ad9:	48 8b 35 00 d9 20 00 	mov    rsi,QWORD PTR [rip+0x20d900]        # 2113e0 <output_file>
3ae0:	bf 04 00 00 00       	mov    edi,0x4
3ae5:	e8 f6 4e 00 00       	call   89e0 <quotearg_style>
3aea:	48 8d 35 25 8e 00 00 	lea    rsi,[rip+0x8e25]        # c916 <_IO_stdin_used+0x316>
3af1:	ba 05 00 00 00       	mov    edx,0x5
3af6:	31 ff                	xor    edi,edi
3af8:	48 89 c3             	mov    rbx,rax
3afb:	e8 60 e0 ff ff       	call   1b60 <dcgettext@plt>
3b00:	48 89 c2             	mov    rdx,rax
3b03:	48 8b 44 24 10       	mov    rax,QWORD PTR [rsp+0x10]
3b08:	48 89 d9             	mov    rcx,rbx
3b0b:	bf 01 00 00 00       	mov    edi,0x1
3b10:	8b 30                	mov    esi,DWORD PTR [rax]
3b12:	31 c0                	xor    eax,eax
3b14:	e8 27 06 00 00       	call   4140 <nl_error>
3b19:	48 8d 35 28 9f 00 00 	lea    rsi,[rip+0x9f28]        # da48 <_IO_stdin_used+0x1448>
3b20:	ba 05 00 00 00       	mov    edx,0x5
3b25:	31 ff                	xor    edi,edi
3b27:	e8 34 e0 ff ff       	call   1b60 <dcgettext@plt>
3b2c:	4d 89 f0             	mov    r8,r14
3b2f:	48 89 c2             	mov    rdx,rax
3b32:	48 89 e9             	mov    rcx,rbp
3b35:	31 f6                	xor    esi,esi
3b37:	bf 01 00 00 00       	mov    edi,0x1
3b3c:	31 c0                	xor    eax,eax
3b3e:	e8 fd 05 00 00       	call   4140 <nl_error>
3b43:	48 8b 35 96 d8 20 00 	mov    rsi,QWORD PTR [rip+0x20d896]        # 2113e0 <output_file>
3b4a:	bf 04 00 00 00       	mov    edi,0x4
3b4f:	e8 8c 4e 00 00       	call   89e0 <quotearg_style>
3b54:	48 8d 35 4b 8c 00 00 	lea    rsi,[rip+0x8c4b]        # c7a6 <_IO_stdin_used+0x1a6>
3b5b:	ba 05 00 00 00       	mov    edx,0x5
3b60:	31 ff                	xor    edi,edi
3b62:	48 89 c3             	mov    rbx,rax
3b65:	e8 f6 df ff ff       	call   1b60 <dcgettext@plt>
3b6a:	48 89 c2             	mov    rdx,rax
3b6d:	48 8b 44 24 10       	mov    rax,QWORD PTR [rsp+0x10]
3b72:	48 89 d9             	mov    rcx,rbx
3b75:	bf 01 00 00 00       	mov    edi,0x1
3b7a:	8b 30                	mov    esi,DWORD PTR [rax]
3b7c:	31 c0                	xor    eax,eax
3b7e:	e8 bd 05 00 00       	call   4140 <nl_error>
3b83:	48 8d 3d 68 8d 00 00 	lea    rdi,[rip+0x8d68]        # c8f2 <_IO_stdin_used+0x2f2>
3b8a:	e8 21 51 00 00       	call   8cb0 <quote>
3b8f:	48 8d 35 33 8d 00 00 	lea    rsi,[rip+0x8d33]        # c8c9 <_IO_stdin_used+0x2c9>
3b96:	48 89 c3             	mov    rbx,rax
3b99:	ba 05 00 00 00       	mov    edx,0x5
3b9e:	31 ff                	xor    edi,edi
3ba0:	e8 bb df ff ff       	call   1b60 <dcgettext@plt>
3ba5:	48 8d 15 f3 8b 00 00 	lea    rdx,[rip+0x8bf3]        # c79f <_IO_stdin_used+0x19f>
3bac:	48 89 c1             	mov    rcx,rax
3baf:	31 ff                	xor    edi,edi
3bb1:	49 89 d8             	mov    r8,rbx
3bb4:	31 f6                	xor    esi,esi
3bb6:	31 c0                	xor    eax,eax
3bb8:	e8 83 05 00 00       	call   4140 <nl_error>
3bbd:	bf 01 00 00 00       	mov    edi,0x1
3bc2:	e8 69 14 00 00       	call   5030 <usage>
3bc7:	e8 c4 df ff ff       	call   1b90 <__stack_chk_fail@plt>
3bcc:	48 8b 35 15 d8 20 00 	mov    rsi,QWORD PTR [rip+0x20d815]        # 2113e8 <input_file>
3bd3:	bf 04 00 00 00       	mov    edi,0x4
3bd8:	e8 03 4e 00 00       	call   89e0 <quotearg_style>
3bdd:	48 8d 35 32 8d 00 00 	lea    rsi,[rip+0x8d32]        # c916 <_IO_stdin_used+0x316>
3be4:	ba 05 00 00 00       	mov    edx,0x5
3be9:	31 ff                	xor    edi,edi
3beb:	48 89 c3             	mov    rbx,rax
3bee:	e8 6d df ff ff       	call   1b60 <dcgettext@plt>
3bf3:	48 89 c2             	mov    rdx,rax
3bf6:	48 8b 44 24 10       	mov    rax,QWORD PTR [rsp+0x10]
3bfb:	48 89 d9             	mov    rcx,rbx
3bfe:	bf 01 00 00 00       	mov    edi,0x1
3c03:	8b 30                	mov    esi,DWORD PTR [rax]
3c05:	31 c0                	xor    eax,eax
3c07:	e8 34 05 00 00       	call   4140 <nl_error>
3c0c:	48 8d 35 75 9d 00 00 	lea    rsi,[rip+0x9d75]        # d988 <_IO_stdin_used+0x1388>
3c13:	ba 05 00 00 00       	mov    edx,0x5
3c18:	31 ff                	xor    edi,edi
3c1a:	e8 41 df ff ff       	call   1b60 <dcgettext@plt>
3c1f:	31 f6                	xor    esi,esi
3c21:	48 89 c2             	mov    rdx,rax
3c24:	bf 01 00 00 00       	mov    edi,0x1
3c29:	31 c0                	xor    eax,eax
3c2b:	e8 10 05 00 00       	call   4140 <nl_error>
3c30:	48 8d 05 ee 8b 00 00 	lea    rax,[rip+0x8bee]        # c825 <_IO_stdin_used+0x225>
3c37:	48 8d 3d f3 8b 00 00 	lea    rdi,[rip+0x8bf3]        # c831 <_IO_stdin_used+0x231>
3c3e:	40 80 e6 04          	and    sil,0x4
3c42:	48 0f 45 f8          	cmovne rdi,rax
3c46:	e8 65 50 00 00       	call   8cb0 <quote>
3c4b:	ba 05 00 00 00       	mov    edx,0x5
3c50:	48 89 c3             	mov    rbx,rax
3c53:	48 8d 35 6f 8c 00 00 	lea    rsi,[rip+0x8c6f]        # c8c9 <_IO_stdin_used+0x2c9>
3c5a:	e9 3f ff ff ff       	jmp    3b9e <main+0x1cee>
3c5f:	48 8d 3d 96 8c 00 00 	lea    rdi,[rip+0x8c96]        # c8fc <_IO_stdin_used+0x2fc>
3c66:	e8 45 50 00 00       	call   8cb0 <quote>
3c6b:	ba 05 00 00 00       	mov    edx,0x5
3c70:	48 89 c3             	mov    rbx,rax
3c73:	48 8d 35 3c 8c 00 00 	lea    rsi,[rip+0x8c3c]        # c8b6 <_IO_stdin_used+0x2b6>
3c7a:	e9 1f ff ff ff       	jmp    3b9e <main+0x1cee>
3c7f:	90                   	nop

0000000000003c80 <_start>:
3c80:	31 ed                	xor    ebp,ebp
3c82:	49 89 d1             	mov    r9,rdx
3c85:	5e                   	pop    rsi
3c86:	48 89 e2             	mov    rdx,rsp
3c89:	48 83 e4 f0          	and    rsp,0xfffffffffffffff0
3c8d:	50                   	push   rax
3c8e:	54                   	push   rsp
3c8f:	4c 8d 05 3a 89 00 00 	lea    r8,[rip+0x893a]        # c5d0 <__libc_csu_fini>
3c96:	48 8d 0d c3 88 00 00 	lea    rcx,[rip+0x88c3]        # c560 <__libc_csu_init>
3c9d:	48 8d 3d 0c e2 ff ff 	lea    rdi,[rip+0xffffffffffffe20c]        # 1eb0 <main>
3ca4:	ff 15 26 d3 20 00    	call   QWORD PTR [rip+0x20d326]        # 210fd0 <__libc_start_main@GLIBC_2.2.5>
3caa:	f4                   	hlt
3cab:	0f 1f 44 00 00       	nop    DWORD PTR [rax+rax*1+0x0]

0000000000003cb0 <deregister_tm_clones>:
3cb0:	48 8d 3d f1 d3 20 00 	lea    rdi,[rip+0x20d3f1]        # 2110a8 <__TMC_END__>
3cb7:	55                   	push   rbp
3cb8:	48 8d 05 e9 d3 20 00 	lea    rax,[rip+0x20d3e9]        # 2110a8 <__TMC_END__>
3cbf:	48 39 f8             	cmp    rax,rdi
3cc2:	48 89 e5             	mov    rbp,rsp
3cc5:	74 19                	je     3ce0 <deregister_tm_clones+0x30>
3cc7:	48 8b 05 fa d2 20 00 	mov    rax,QWORD PTR [rip+0x20d2fa]        # 210fc8 <_ITM_deregisterTMCloneTable>
3cce:	48 85 c0             	test   rax,rax
3cd1:	74 0d                	je     3ce0 <deregister_tm_clones+0x30>
3cd3:	5d                   	pop    rbp
3cd4:	ff e0                	jmp    rax
3cd6:	66 2e 0f 1f 84 00 00 	nop    WORD PTR cs:[rax+rax*1+0x0]
3cdd:	00 00 00
3ce0:	5d                   	pop    rbp
3ce1:	c3                   	ret
3ce2:	0f 1f 40 00          	nop    DWORD PTR [rax+0x0]
3ce6:	66 2e 0f 1f 84 00 00 	nop    WORD PTR cs:[rax+rax*1+0x0]
3ced:	00 00 00

0000000000003cf0 <register_tm_clones>:
3cf0:	48 8d 3d b1 d3 20 00 	lea    rdi,[rip+0x20d3b1]        # 2110a8 <__TMC_END__>
3cf7:	48 8d 35 aa d3 20 00 	lea    rsi,[rip+0x20d3aa]        # 2110a8 <__TMC_END__>
3cfe:	55                   	push   rbp
3cff:	48 29 fe             	sub    rsi,rdi
3d02:	48 89 e5             	mov    rbp,rsp
3d05:	48 c1 fe 03          	sar    rsi,0x3
3d09:	48 89 f0             	mov    rax,rsi
3d0c:	48 c1 e8 3f          	shr    rax,0x3f
3d10:	48 01 c6             	add    rsi,rax
3d13:	48 d1 fe             	sar    rsi,1
3d16:	74 18                	je     3d30 <register_tm_clones+0x40>
3d18:	48 8b 05 c1 d2 20 00 	mov    rax,QWORD PTR [rip+0x20d2c1]        # 210fe0 <_ITM_registerTMCloneTable>
3d1f:	48 85 c0             	test   rax,rax
3d22:	74 0c                	je     3d30 <register_tm_clones+0x40>
3d24:	5d                   	pop    rbp
3d25:	ff e0                	jmp    rax
3d27:	66 0f 1f 84 00 00 00 	nop    WORD PTR [rax+rax*1+0x0]
3d2e:	00 00
3d30:	5d                   	pop    rbp
3d31:	c3                   	ret
3d32:	0f 1f 40 00          	nop    DWORD PTR [rax+0x0]
3d36:	66 2e 0f 1f 84 00 00 	nop    WORD PTR cs:[rax+rax*1+0x0]
3d3d:	00 00 00

0000000000003d40 <__do_global_dtors_aux>:
3d40:	80 3d c1 d3 20 00 00 	cmp    BYTE PTR [rip+0x20d3c1],0x0        # 211108 <completed.7697>
3d47:	75 2f                	jne    3d78 <__do_global_dtors_aux+0x38>
3d49:	48 83 3d 97 d2 20 00 	cmp    QWORD PTR [rip+0x20d297],0x0        # 210fe8 <__cxa_finalize@GLIBC_2.2.5>
3d50:	00
3d51:	55                   	push   rbp
3d52:	48 89 e5             	mov    rbp,rsp
3d55:	74 0c                	je     3d63 <__do_global_dtors_aux+0x23>
3d57:	48 8b 3d aa d2 20 00 	mov    rdi,QWORD PTR [rip+0x20d2aa]        # 211008 <__dso_handle>
3d5e:	e8 3d e1 ff ff       	call   1ea0 <__cxa_finalize@plt>
3d63:	e8 48 ff ff ff       	call   3cb0 <deregister_tm_clones>
3d68:	c6 05 99 d3 20 00 01 	mov    BYTE PTR [rip+0x20d399],0x1        # 211108 <completed.7697>
3d6f:	5d                   	pop    rbp
3d70:	c3                   	ret
3d71:	0f 1f 80 00 00 00 00 	nop    DWORD PTR [rax+0x0]
3d78:	f3 c3                	repz ret
3d7a:	66 0f 1f 44 00 00    	nop    WORD PTR [rax+rax*1+0x0]

0000000000003d80 <frame_dummy>:
3d80:	55                   	push   rbp
3d81:	48 89 e5             	mov    rbp,rsp
3d84:	5d                   	pop    rbp
3d85:	e9 66 ff ff ff       	jmp    3cf0 <register_tm_clones>
3d8a:	66 0f 1f 44 00 00    	nop    WORD PTR [rax+rax*1+0x0]

0000000000003d90 <interrupt_handler>:
3d90:	89 3d da d4 20 00    	mov    DWORD PTR [rip+0x20d4da],edi        # 211270 <interrupt_signal>
3d96:	c3                   	ret
3d97:	66 0f 1f 84 00 00 00 	nop    WORD PTR [rax+rax*1+0x0]
3d9e:	00 00

0000000000003da0 <siginfo_handler>:
3da0:	8b 05 c6 d4 20 00    	mov    eax,DWORD PTR [rip+0x20d4c6]        # 21126c <info_signal_count>
3da6:	83 c0 01             	add    eax,0x1
3da9:	89 05 bd d4 20 00    	mov    DWORD PTR [rip+0x20d4bd],eax        # 21126c <info_signal_count>
3daf:	c3                   	ret

0000000000003db0 <print_xfer_stats>:
3db0:	41 57                	push   r15
3db2:	41 56                	push   r14
3db4:	49 89 fe             	mov    r14,rdi
3db7:	41 55                	push   r13
3db9:	41 54                	push   r12
3dbb:	55                   	push   rbp
3dbc:	53                   	push   rbx
3dbd:	48 89 fd             	mov    rbp,rdi
3dc0:	48 81 ec e8 07 00 00 	sub    rsp,0x7e8
3dc7:	64 48 8b 04 25 28 00 	mov    rax,QWORD PTR fs:0x28
3dce:	00 00
3dd0:	48 89 84 24 d8 07 00 	mov    QWORD PTR [rsp+0x7d8],rax
3dd7:	00
3dd8:	31 c0                	xor    eax,eax
3dda:	48 85 ff             	test   rdi,rdi
3ddd:	0f 84 4d 02 00 00    	je     4030 <print_xfer_stats+0x280>
3de3:	48 8d 5c 24 10       	lea    rbx,[rsp+0x10]
3de8:	48 8b 3d 69 d5 20 00 	mov    rdi,QWORD PTR [rip+0x20d569]        # 211358 <w_bytes>
3def:	41 b8 01 00 00 00    	mov    r8d,0x1
3df5:	b9 01 00 00 00       	mov    ecx,0x1
3dfa:	ba d1 01 00 00       	mov    edx,0x1d1
3dff:	48 89 de             	mov    rsi,rbx
3e02:	e8 19 23 00 00       	call   6120 <human_readable>
3e07:	48 8b 3d 4a d5 20 00 	mov    rdi,QWORD PTR [rip+0x20d54a]        # 211358 <w_bytes>
3e0e:	48 8d b3 8e 02 00 00 	lea    rsi,[rbx+0x28e]
3e15:	41 b8 01 00 00 00    	mov    r8d,0x1
3e1b:	b9 01 00 00 00       	mov    ecx,0x1
3e20:	ba f1 01 00 00       	mov    edx,0x1f1
3e25:	49 89 c4             	mov    r12,rax
3e28:	e8 f3 22 00 00       	call   6120 <human_readable>
3e2d:	49 89 c5             	mov    r13,rax
3e30:	48 8b 05 19 d5 20 00 	mov    rax,QWORD PTR [rip+0x20d519]        # 211350 <start_time>
3e37:	4c 39 f0             	cmp    rax,r14
3e3a:	0f 8d 48 01 00 00    	jge    3f88 <print_xfer_stats+0x1d8>
3e40:	49 29 c6             	sub    r14,rax
3e43:	4d 89 f0             	mov    r8,r14
3e46:	0f 88 64 02 00 00    	js     40b0 <print_xfer_stats+0x300>
3e4c:	66 0f ef c0          	pxor   xmm0,xmm0
3e50:	f2 49 0f 2a c6       	cvtsi2sd xmm0,r14
3e55:	f2 0f 5e 05 13 a3 00 	divsd  xmm0,QWORD PTR [rip+0xa313]        # e170 <conversions+0x110>
3e5c:	00
3e5d:	48 8b 3d f4 d4 20 00 	mov    rdi,QWORD PTR [rip+0x20d4f4]        # 211358 <w_bytes>
3e64:	48 8d b3 1c 05 00 00 	lea    rsi,[rbx+0x51c]
3e6b:	b9 00 ca 9a 3b       	mov    ecx,0x3b9aca00
3e70:	ba d1 01 00 00       	mov    edx,0x1d1
3e75:	f2 0f 11 44 24 08    	movsd  QWORD PTR [rsp+0x8],xmm0
3e7b:	e8 a0 22 00 00       	call   6120 <human_readable>
3e80:	48 89 c7             	mov    rdi,rax
3e83:	48 89 c3             	mov    rbx,rax
3e86:	e8 f5 dc ff ff       	call   1b80 <strlen@plt>
3e8b:	b9 2f 73 00 00       	mov    ecx,0x732f
3e90:	48 85 ed             	test   rbp,rbp
3e93:	c6 44 03 02 00       	mov    BYTE PTR [rbx+rax*1+0x2],0x0
3e98:	66 89 0c 03          	mov    WORD PTR [rbx+rax*1],cx
3e9c:	f2 0f 10 44 24 08    	movsd  xmm0,QWORD PTR [rsp+0x8]
3ea2:	4c 8d 05 62 87 00 00 	lea    r8,[rip+0x8762]        # c60b <_IO_stdin_used+0xb>
3ea9:	0f 85 2a 01 00 00    	jne    3fd9 <print_xfer_stats+0x229>
3eaf:	4c 8d b4 24 c0 07 00 	lea    r14,[rsp+0x7c0]
3eb6:	00
3eb7:	b9 18 00 00 00       	mov    ecx,0x18
3ebc:	ba 01 00 00 00       	mov    edx,0x1
3ec1:	be 18 00 00 00       	mov    esi,0x18
3ec6:	b8 01 00 00 00       	mov    eax,0x1
3ecb:	4c 89 f7             	mov    rdi,r14
3ece:	e8 6d db ff ff       	call   1a40 <__snprintf_chk@plt>
3ed3:	4c 89 e7             	mov    rdi,r12
3ed6:	e8 a5 dc ff ff       	call   1b80 <strlen@plt>
3edb:	41 80 7c 04 fe 20    	cmp    BYTE PTR [r12+rax*1-0x2],0x20
3ee1:	0f 84 79 01 00 00    	je     4060 <print_xfer_stats+0x2b0>
3ee7:	4c 89 ef             	mov    rdi,r13
3eea:	e8 91 dc ff ff       	call   1b80 <strlen@plt>
3eef:	41 80 7c 05 fe 20    	cmp    BYTE PTR [r13+rax*1-0x2],0x20
3ef5:	4c 8b 3d 5c d4 20 00 	mov    r15,QWORD PTR [rip+0x20d45c]        # 211358 <w_bytes>
3efc:	ba 05 00 00 00       	mov    edx,0x5
3f01:	0f 84 39 01 00 00    	je     4040 <print_xfer_stats+0x290>
3f07:	48 8d 35 7a 8a 00 00 	lea    rsi,[rip+0x8a7a]        # c988 <_IO_stdin_used+0x388>
3f0e:	31 ff                	xor    edi,edi
3f10:	e8 4b dc ff ff       	call   1b60 <dcgettext@plt>
3f15:	53                   	push   rbx
3f16:	41 56                	push   r14
3f18:	4d 89 e9             	mov    r9,r13
3f1b:	48 8b 3d de d1 20 00 	mov    rdi,QWORD PTR [rip+0x20d1de]        # 211100 <stderr@@GLIBC_2.2.5>
3f22:	48 89 c2             	mov    rdx,rax
3f25:	4d 89 e0             	mov    r8,r12
3f28:	4c 89 f9             	mov    rcx,r15
3f2b:	be 01 00 00 00       	mov    esi,0x1
3f30:	31 c0                	xor    eax,eax
3f32:	e8 f9 de ff ff       	call   1e30 <__fprintf_chk@plt>
3f37:	89 c3                	mov    ebx,eax
3f39:	58                   	pop    rax
3f3a:	5a                   	pop    rdx
3f3b:	48 85 ed             	test   rbp,rbp
3f3e:	0f 84 c4 00 00 00    	je     4008 <print_xfer_stats+0x258>
3f44:	85 db                	test   ebx,ebx
3f46:	78 0e                	js     3f56 <print_xfer_stats+0x1a6>
3f48:	8b 0d f2 d3 20 00    	mov    ecx,DWORD PTR [rip+0x20d3f2]        # 211340 <progress_len>
3f4e:	39 d9                	cmp    ecx,ebx
3f50:	0f 8f 82 01 00 00    	jg     40d8 <print_xfer_stats+0x328>
3f56:	89 1d e4 d3 20 00    	mov    DWORD PTR [rip+0x20d3e4],ebx        # 211340 <progress_len>
3f5c:	48 8b 84 24 d8 07 00 	mov    rax,QWORD PTR [rsp+0x7d8]
3f63:	00
3f64:	64 48 33 04 25 28 00 	xor    rax,QWORD PTR fs:0x28
3f6b:	00 00
3f6d:	0f 85 bf 01 00 00    	jne    4132 <print_xfer_stats+0x382>
3f73:	48 81 c4 e8 07 00 00 	add    rsp,0x7e8
3f7a:	5b                   	pop    rbx
3f7b:	5d                   	pop    rbp
3f7c:	41 5c                	pop    r12
3f7e:	41 5d                	pop    r13
3f80:	41 5e                	pop    r14
3f82:	41 5f                	pop    r15
3f84:	c3                   	ret
3f85:	0f 1f 00             	nop    DWORD PTR [rax]
3f88:	48 8d 35 81 86 00 00 	lea    rsi,[rip+0x8681]        # c610 <_IO_stdin_used+0x10>
3f8f:	31 ff                	xor    edi,edi
3f91:	ba 05 00 00 00       	mov    edx,0x5
3f96:	48 81 c3 1c 05 00 00 	add    rbx,0x51c
3f9d:	e8 be db ff ff       	call   1b60 <dcgettext@plt>
3fa2:	4c 8d 05 70 86 00 00 	lea    r8,[rip+0x8670]        # c619 <_IO_stdin_used+0x19>
3fa9:	49 89 c1             	mov    r9,rax
3fac:	b9 8e 02 00 00       	mov    ecx,0x28e
3fb1:	31 c0                	xor    eax,eax
3fb3:	ba 01 00 00 00       	mov    edx,0x1
3fb8:	be 8e 02 00 00       	mov    esi,0x28e
3fbd:	48 89 df             	mov    rdi,rbx
3fc0:	e8 7b da ff ff       	call   1a40 <__snprintf_chk@plt>
3fc5:	48 85 ed             	test   rbp,rbp
3fc8:	66 0f ef c0          	pxor   xmm0,xmm0
3fcc:	4c 8d 05 38 86 00 00 	lea    r8,[rip+0x8638]        # c60b <_IO_stdin_used+0xb>
3fd3:	0f 84 d6 fe ff ff    	je     3eaf <print_xfer_stats+0xff>
3fd9:	48 8b 3d 20 d1 20 00 	mov    rdi,QWORD PTR [rip+0x20d120]        # 211100 <stderr@@GLIBC_2.2.5>
3fe0:	48 8b 47 28          	mov    rax,QWORD PTR [rdi+0x28]
3fe4:	48 3b 47 30          	cmp    rax,QWORD PTR [rdi+0x30]
3fe8:	0f 83 22 01 00 00    	jae    4110 <print_xfer_stats+0x360>
3fee:	48 8d 50 01          	lea    rdx,[rax+0x1]
3ff2:	4c 8d 05 0b 86 00 00 	lea    r8,[rip+0x860b]        # c604 <_IO_stdin_used+0x4>
3ff9:	48 89 57 28          	mov    QWORD PTR [rdi+0x28],rdx
3ffd:	c6 00 0d             	mov    BYTE PTR [rax],0xd
4000:	e9 aa fe ff ff       	jmp    3eaf <print_xfer_stats+0xff>
4005:	0f 1f 00             	nop    DWORD PTR [rax]
4008:	48 8b 3d f1 d0 20 00 	mov    rdi,QWORD PTR [rip+0x20d0f1]        # 211100 <stderr@@GLIBC_2.2.5>
400f:	48 8b 47 28          	mov    rax,QWORD PTR [rdi+0x28]
4013:	48 3b 47 30          	cmp    rax,QWORD PTR [rdi+0x30]
4017:	0f 83 e3 00 00 00    	jae    4100 <print_xfer_stats+0x350>
401d:	48 8d 50 01          	lea    rdx,[rax+0x1]
4021:	48 89 57 28          	mov    QWORD PTR [rdi+0x28],rdx
4025:	c6 00 0a             	mov    BYTE PTR [rax],0xa
4028:	e9 2f ff ff ff       	jmp    3f5c <print_xfer_stats+0x1ac>
402d:	0f 1f 00             	nop    DWORD PTR [rax]
4030:	e8 2b 1f 00 00       	call   5f60 <gethrxtime>
4035:	49 89 c6             	mov    r14,rax
4038:	e9 a6 fd ff ff       	jmp    3de3 <print_xfer_stats+0x33>
403d:	0f 1f 00             	nop    DWORD PTR [rax]
4040:	48 8d 35 0a 86 00 00 	lea    rsi,[rip+0x860a]        # c651 <_IO_stdin_used+0x51>
4047:	31 ff                	xor    edi,edi
4049:	e8 12 db ff ff       	call   1b60 <dcgettext@plt>
404e:	48 83 ec 08          	sub    rsp,0x8
4052:	4d 89 f1             	mov    r9,r14
4055:	53                   	push   rbx
4056:	e9 c0 fe ff ff       	jmp    3f1b <print_xfer_stats+0x16b>
405b:	0f 1f 44 00 00       	nop    DWORD PTR [rax+rax*1+0x0]
4060:	4c 8b 25 f1 d2 20 00 	mov    r12,QWORD PTR [rip+0x20d2f1]        # 211358 <w_bytes>
4067:	48 8d 15 b2 85 00 00 	lea    rdx,[rip+0x85b2]        # c620 <_IO_stdin_used+0x20>
406e:	48 8d 35 c4 85 00 00 	lea    rsi,[rip+0x85c4]        # c639 <_IO_stdin_used+0x39>
4075:	41 b8 05 00 00 00    	mov    r8d,0x5
407b:	31 ff                	xor    edi,edi
407d:	4c 89 e1             	mov    rcx,r12
4080:	e8 4b dd ff ff       	call   1dd0 <dcngettext@plt>
4085:	48 8b 3d 74 d0 20 00 	mov    rdi,QWORD PTR [rip+0x20d074]        # 211100 <stderr@@GLIBC_2.2.5>
408c:	49 89 d9             	mov    r9,rbx
408f:	48 89 c2             	mov    rdx,rax
4092:	4d 89 f0             	mov    r8,r14
4095:	4c 89 e1             	mov    rcx,r12
4098:	be 01 00 00 00       	mov    esi,0x1
409d:	31 c0                	xor    eax,eax
409f:	e8 8c dd ff ff       	call   1e30 <__fprintf_chk@plt>
40a4:	89 c3                	mov    ebx,eax
40a6:	e9 90 fe ff ff       	jmp    3f3b <print_xfer_stats+0x18b>
40ab:	0f 1f 44 00 00       	nop    DWORD PTR [rax+rax*1+0x0]
40b0:	4c 89 f0             	mov    rax,r14
40b3:	4c 89 f2             	mov    rdx,r14
40b6:	66 0f ef c0          	pxor   xmm0,xmm0
40ba:	48 d1 e8             	shr    rax,1
40bd:	83 e2 01             	and    edx,0x1
40c0:	48 09 d0             	or     rax,rdx
40c3:	f2 48 0f 2a c0       	cvtsi2sd xmm0,rax
40c8:	f2 0f 58 c0          	addsd  xmm0,xmm0
40cc:	e9 84 fd ff ff       	jmp    3e55 <print_xfer_stats+0xa5>
40d1:	0f 1f 80 00 00 00 00 	nop    DWORD PTR [rax+0x0]
40d8:	48 8b 3d 21 d0 20 00 	mov    rdi,QWORD PTR [rip+0x20d021]        # 211100 <stderr@@GLIBC_2.2.5>
40df:	4c 8d 05 bb a6 00 00 	lea    r8,[rip+0xa6bb]        # e7a1 <quoting_style_vals+0xa1>
40e6:	48 8d 15 82 85 00 00 	lea    rdx,[rip+0x8582]        # c66f <_IO_stdin_used+0x6f>
40ed:	29 d9                	sub    ecx,ebx
40ef:	be 01 00 00 00       	mov    esi,0x1
40f4:	31 c0                	xor    eax,eax
40f6:	e8 35 dd ff ff       	call   1e30 <__fprintf_chk@plt>
40fb:	e9 56 fe ff ff       	jmp    3f56 <print_xfer_stats+0x1a6>
4100:	be 0a 00 00 00       	mov    esi,0xa
4105:	e8 d6 da ff ff       	call   1be0 <__overflow@plt>
410a:	e9 4d fe ff ff       	jmp    3f5c <print_xfer_stats+0x1ac>
410f:	90                   	nop
4110:	be 0d 00 00 00       	mov    esi,0xd
4115:	f2 0f 11 44 24 08    	movsd  QWORD PTR [rsp+0x8],xmm0
411b:	e8 c0 da ff ff       	call   1be0 <__overflow@plt>
4120:	4c 8d 05 dd 84 00 00 	lea    r8,[rip+0x84dd]        # c604 <_IO_stdin_used+0x4>
4127:	f2 0f 10 44 24 08    	movsd  xmm0,QWORD PTR [rsp+0x8]
412d:	e9 7d fd ff ff       	jmp    3eaf <print_xfer_stats+0xff>
4132:	e8 59 da ff ff       	call   1b90 <__stack_chk_fail@plt>
4137:	66 0f 1f 84 00 00 00 	nop    WORD PTR [rax+rax*1+0x0]
413e:	00 00

0000000000004140 <nl_error>:
4140:	55                   	push   rbp
4141:	53                   	push   rbx
4142:	89 f5                	mov    ebp,esi
4144:	89 fb                	mov    ebx,edi
4146:	48 81 ec e8 00 00 00 	sub    rsp,0xe8
414d:	84 c0                	test   al,al
414f:	48 89 4c 24 48       	mov    QWORD PTR [rsp+0x48],rcx
4154:	4c 89 44 24 50       	mov    QWORD PTR [rsp+0x50],r8
4159:	4c 89 4c 24 58       	mov    QWORD PTR [rsp+0x58],r9
415e:	74 3a                	je     419a <nl_error+0x5a>
4160:	0f 29 44 24 60       	movaps XMMWORD PTR [rsp+0x60],xmm0
4165:	0f 29 4c 24 70       	movaps XMMWORD PTR [rsp+0x70],xmm1
416a:	0f 29 94 24 80 00 00 	movaps XMMWORD PTR [rsp+0x80],xmm2
4171:	00
4172:	0f 29 9c 24 90 00 00 	movaps XMMWORD PTR [rsp+0x90],xmm3
4179:	00
417a:	0f 29 a4 24 a0 00 00 	movaps XMMWORD PTR [rsp+0xa0],xmm4
4181:	00
4182:	0f 29 ac 24 b0 00 00 	movaps XMMWORD PTR [rsp+0xb0],xmm5
4189:	00
418a:	0f 29 b4 24 c0 00 00 	movaps XMMWORD PTR [rsp+0xc0],xmm6
4191:	00
4192:	0f 29 bc 24 d0 00 00 	movaps XMMWORD PTR [rsp+0xd0],xmm7
4199:	00
419a:	64 48 8b 04 25 28 00 	mov    rax,QWORD PTR fs:0x28
41a1:	00 00
41a3:	48 89 44 24 28       	mov    QWORD PTR [rsp+0x28],rax
41a8:	31 c0                	xor    eax,eax
41aa:	8b 05 90 d1 20 00    	mov    eax,DWORD PTR [rip+0x20d190]        # 211340 <progress_len>
41b0:	85 c0                	test   eax,eax
41b2:	7e 26                	jle    41da <nl_error+0x9a>
41b4:	48 8b 3d 45 cf 20 00 	mov    rdi,QWORD PTR [rip+0x20cf45]        # 211100 <stderr@@GLIBC_2.2.5>
41bb:	48 8b 47 28          	mov    rax,QWORD PTR [rdi+0x28]
41bf:	48 3b 47 30          	cmp    rax,QWORD PTR [rdi+0x30]
41c3:	73 6b                	jae    4230 <nl_error+0xf0>
41c5:	48 8d 48 01          	lea    rcx,[rax+0x1]
41c9:	48 89 4f 28          	mov    QWORD PTR [rdi+0x28],rcx
41cd:	c6 00 0a             	mov    BYTE PTR [rax],0xa
41d0:	c7 05 66 d1 20 00 00 	mov    DWORD PTR [rip+0x20d166],0x0        # 211340 <progress_len>
41d7:	00 00 00
41da:	48 8d 84 24 00 01 00 	lea    rax,[rsp+0x100]
41e1:	00
41e2:	48 8d 4c 24 10       	lea    rcx,[rsp+0x10]
41e7:	89 ee                	mov    esi,ebp
41e9:	89 df                	mov    edi,ebx
41eb:	c7 44 24 10 18 00 00 	mov    DWORD PTR [rsp+0x10],0x18
41f2:	00
41f3:	c7 44 24 14 30 00 00 	mov    DWORD PTR [rsp+0x14],0x30
41fa:	00
41fb:	48 89 44 24 18       	mov    QWORD PTR [rsp+0x18],rax
4200:	48 8d 44 24 30       	lea    rax,[rsp+0x30]
4205:	48 89 44 24 20       	mov    QWORD PTR [rsp+0x20],rax
420a:	e8 81 4b 00 00       	call   8d90 <verror>
420f:	48 8b 44 24 28       	mov    rax,QWORD PTR [rsp+0x28]
4214:	64 48 33 04 25 28 00 	xor    rax,QWORD PTR fs:0x28
421b:	00 00
421d:	75 27                	jne    4246 <nl_error+0x106>
421f:	48 81 c4 e8 00 00 00 	add    rsp,0xe8
4226:	5b                   	pop    rbx
4227:	5d                   	pop    rbp
4228:	c3                   	ret
4229:	0f 1f 80 00 00 00 00 	nop    DWORD PTR [rax+0x0]
4230:	be 0a 00 00 00       	mov    esi,0xa
4235:	48 89 54 24 08       	mov    QWORD PTR [rsp+0x8],rdx
423a:	e8 a1 d9 ff ff       	call   1be0 <__overflow@plt>
423f:	48 8b 54 24 08       	mov    rdx,QWORD PTR [rsp+0x8]
4244:	eb 8a                	jmp    41d0 <nl_error+0x90>
4246:	e8 45 d9 ff ff       	call   1b90 <__stack_chk_fail@plt>
424b:	0f 1f 44 00 00       	nop    DWORD PTR [rax+rax*1+0x0]

0000000000004250 <parse_integer>:
4250:	41 55                	push   r13
4252:	41 54                	push   r12
4254:	4c 8d 05 18 84 00 00 	lea    r8,[rip+0x8418]        # c673 <_IO_stdin_used+0x73>
425b:	55                   	push   rbp
425c:	53                   	push   rbx
425d:	49 89 f4             	mov    r12,rsi
4260:	ba 0a 00 00 00       	mov    edx,0xa
4265:	48 89 fd             	mov    rbp,rdi
4268:	48 83 ec 28          	sub    rsp,0x28
426c:	48 8d 4c 24 08       	lea    rcx,[rsp+0x8]
4271:	48 8d 74 24 10       	lea    rsi,[rsp+0x10]
4276:	64 48 8b 04 25 28 00 	mov    rax,QWORD PTR fs:0x28
427d:	00 00
427f:	48 89 44 24 18       	mov    QWORD PTR [rsp+0x18],rax
4284:	31 c0                	xor    eax,eax
4286:	e8 c5 53 00 00       	call   9650 <xstrtoumax>
428b:	83 f8 02             	cmp    eax,0x2
428e:	89 c2                	mov    edx,eax
4290:	74 2e                	je     42c0 <parse_integer+0x70>
4292:	85 d2                	test   edx,edx
4294:	48 8b 44 24 08       	mov    rax,QWORD PTR [rsp+0x8]
4299:	75 2f                	jne    42ca <parse_integer+0x7a>
429b:	48 8b 5c 24 18       	mov    rbx,QWORD PTR [rsp+0x18]
42a0:	64 48 33 1c 25 28 00 	xor    rbx,QWORD PTR fs:0x28
42a7:	00 00
42a9:	0f 85 e1 00 00 00    	jne    4390 <parse_integer+0x140>
42af:	48 83 c4 28          	add    rsp,0x28
42b3:	5b                   	pop    rbx
42b4:	5d                   	pop    rbp
42b5:	41 5c                	pop    r12
42b7:	41 5d                	pop    r13
42b9:	c3                   	ret
42ba:	66 0f 1f 44 00 00    	nop    WORD PTR [rax+rax*1+0x0]
42c0:	48 8b 7c 24 10       	mov    rdi,QWORD PTR [rsp+0x10]
42c5:	80 3f 78             	cmp    BYTE PTR [rdi],0x78
42c8:	74 0e                	je     42d8 <parse_integer+0x88>
42ca:	41 89 14 24          	mov    DWORD PTR [r12],edx
42ce:	31 c0                	xor    eax,eax
42d0:	eb c9                	jmp    429b <parse_integer+0x4b>
42d2:	66 0f 1f 44 00 00    	nop    WORD PTR [rax+rax*1+0x0]
42d8:	48 83 c7 01          	add    rdi,0x1
42dc:	4c 89 e6             	mov    rsi,r12
42df:	e8 6c ff ff ff       	call   4250 <parse_integer>
42e4:	48 85 c0             	test   rax,rax
42e7:	48 89 c3             	mov    rbx,rax
42ea:	74 24                	je     4310 <parse_integer+0xc0>
42ec:	48 8b 4c 24 08       	mov    rcx,QWORD PTR [rsp+0x8]
42f1:	31 d2                	xor    edx,edx
42f3:	48 89 c8             	mov    rax,rcx
42f6:	48 0f af c3          	imul   rax,rbx
42fa:	48 f7 f3             	div    rbx
42fd:	48 39 c1             	cmp    rcx,rax
4300:	74 13                	je     4315 <parse_integer+0xc5>
4302:	41 c7 04 24 01 00 00 	mov    DWORD PTR [r12],0x1
4309:	00
430a:	31 c0                	xor    eax,eax
430c:	eb 8d                	jmp    429b <parse_integer+0x4b>
430e:	66 90                	xchg   ax,ax
4310:	48 8b 44 24 08       	mov    rax,QWORD PTR [rsp+0x8]
4315:	48 85 c0             	test   rax,rax
4318:	75 1e                	jne    4338 <parse_integer+0xe8>
431a:	4c 8d 25 61 83 00 00 	lea    r12,[rip+0x8361]        # c682 <_IO_stdin_used+0x82>
4321:	b9 02 00 00 00       	mov    ecx,0x2
4326:	48 89 ee             	mov    rsi,rbp
4329:	4c 89 e7             	mov    rdi,r12
432c:	f3 a6                	repz cmps BYTE PTR ds:[rsi],BYTE PTR es:[rdi]
432e:	0f 97 c2             	seta   dl
4331:	80 da 00             	sbb    dl,0x0
4334:	84 d2                	test   dl,dl
4336:	74 09                	je     4341 <parse_integer+0xf1>
4338:	48 0f af c3          	imul   rax,rbx
433c:	e9 5a ff ff ff       	jmp    429b <parse_integer+0x4b>
4341:	48 8d 35 39 83 00 00 	lea    rsi,[rip+0x8339]        # c681 <_IO_stdin_used+0x81>
4348:	bf 01 00 00 00       	mov    edi,0x1
434d:	e8 3e 49 00 00       	call   8c90 <quote_n>
4352:	4c 89 e6             	mov    rsi,r12
4355:	31 ff                	xor    edi,edi
4357:	49 89 c5             	mov    r13,rax
435a:	e8 31 49 00 00       	call   8c90 <quote_n>
435f:	48 8d 35 4a 86 00 00 	lea    rsi,[rip+0x864a]        # c9b0 <_IO_stdin_used+0x3b0>
4366:	48 89 c5             	mov    rbp,rax
4369:	ba 05 00 00 00       	mov    edx,0x5
436e:	31 ff                	xor    edi,edi
4370:	e8 eb d7 ff ff       	call   1b60 <dcgettext@plt>
4375:	4d 89 e8             	mov    r8,r13
4378:	48 89 c2             	mov    rdx,rax
437b:	48 89 e9             	mov    rcx,rbp
437e:	31 c0                	xor    eax,eax
4380:	31 f6                	xor    esi,esi
4382:	31 ff                	xor    edi,edi
4384:	e8 b7 fd ff ff       	call   4140 <nl_error>
4389:	48 8b 44 24 08       	mov    rax,QWORD PTR [rsp+0x8]
438e:	eb a8                	jmp    4338 <parse_integer+0xe8>
4390:	e8 fb d7 ff ff       	call   1b90 <__stack_chk_fail@plt>
4395:	90                   	nop
4396:	66 2e 0f 1f 84 00 00 	nop    WORD PTR cs:[rax+rax*1+0x0]
439d:	00 00 00

00000000000043a0 <set_fd_flags>:
43a0:	41 55                	push   r13
43a2:	41 54                	push   r12
43a4:	55                   	push   rbp
43a5:	53                   	push   rbx
43a6:	89 f3                	mov    ebx,esi
43a8:	48 81 ec a8 00 00 00 	sub    rsp,0xa8
43af:	64 48 8b 04 25 28 00 	mov    rax,QWORD PTR fs:0x28
43b6:	00 00
43b8:	48 89 84 24 98 00 00 	mov    QWORD PTR [rsp+0x98],rax
43bf:	00
43c0:	31 c0                	xor    eax,eax
43c2:	81 e3 ff fe fd ff    	and    ebx,0xfffdfeff
43c8:	75 25                	jne    43ef <set_fd_flags+0x4f>
43ca:	48 8b 84 24 98 00 00 	mov    rax,QWORD PTR [rsp+0x98]
43d1:	00
43d2:	64 48 33 04 25 28 00 	xor    rax,QWORD PTR fs:0x28
43d9:	00 00
43db:	0f 85 ca 00 00 00    	jne    44ab <set_fd_flags+0x10b>
43e1:	48 81 c4 a8 00 00 00 	add    rsp,0xa8
43e8:	5b                   	pop    rbx
43e9:	5d                   	pop    rbp
43ea:	41 5c                	pop    r12
43ec:	41 5d                	pop    r13
43ee:	c3                   	ret
43ef:	be 03 00 00 00       	mov    esi,0x3
43f4:	89 fd                	mov    ebp,edi
43f6:	49 89 d5             	mov    r13,rdx
43f9:	e8 f2 58 00 00       	call   9cf0 <rpl_fcntl>
43fe:	09 c3                	or     ebx,eax
4400:	85 c0                	test   eax,eax
4402:	41 89 c4             	mov    r12d,eax
4405:	78 51                	js     4458 <set_fd_flags+0xb8>
4407:	39 d8                	cmp    eax,ebx
4409:	74 bf                	je     43ca <set_fd_flags+0x2a>
440b:	f7 c3 00 00 01 00    	test   ebx,0x10000
4411:	75 17                	jne    442a <set_fd_flags+0x8a>
4413:	31 c0                	xor    eax,eax
4415:	89 da                	mov    edx,ebx
4417:	be 04 00 00 00       	mov    esi,0x4
441c:	89 ef                	mov    edi,ebp
441e:	e8 cd 58 00 00       	call   9cf0 <rpl_fcntl>
4423:	83 c0 01             	add    eax,0x1
4426:	75 a2                	jne    43ca <set_fd_flags+0x2a>
4428:	eb 2e                	jmp    4458 <set_fd_flags+0xb8>
442a:	48 89 e2             	mov    rdx,rsp
442d:	89 ee                	mov    esi,ebp
442f:	bf 01 00 00 00       	mov    edi,0x1
4434:	e8 f7 d8 ff ff       	call   1d30 <__fxstat@plt>
4439:	85 c0                	test   eax,eax
443b:	75 1b                	jne    4458 <set_fd_flags+0xb8>
443d:	8b 44 24 18          	mov    eax,DWORD PTR [rsp+0x18]
4441:	25 00 f0 00 00       	and    eax,0xf000
4446:	3d 00 40 00 00       	cmp    eax,0x4000
444b:	74 4a                	je     4497 <set_fd_flags+0xf7>
444d:	e8 2e d6 ff ff       	call   1a80 <__errno_location@plt>
4452:	c7 00 14 00 00 00    	mov    DWORD PTR [rax],0x14
4458:	4c 89 ee             	mov    rsi,r13
445b:	bf 04 00 00 00       	mov    edi,0x4
4460:	e8 7b 45 00 00       	call   89e0 <quotearg_style>
4465:	48 8d 35 19 82 00 00 	lea    rsi,[rip+0x8219]        # c685 <_IO_stdin_used+0x85>
446c:	ba 05 00 00 00       	mov    edx,0x5
4471:	31 ff                	xor    edi,edi
4473:	48 89 c5             	mov    rbp,rax
4476:	e8 e5 d6 ff ff       	call   1b60 <dcgettext@plt>
447b:	48 89 c3             	mov    rbx,rax
447e:	e8 fd d5 ff ff       	call   1a80 <__errno_location@plt>
4483:	8b 30                	mov    esi,DWORD PTR [rax]
4485:	48 89 e9             	mov    rcx,rbp
4488:	48 89 da             	mov    rdx,rbx
448b:	bf 01 00 00 00       	mov    edi,0x1
4490:	31 c0                	xor    eax,eax
4492:	e8 a9 fc ff ff       	call   4140 <nl_error>
4497:	81 e3 ff ff fe ff    	and    ebx,0xfffeffff
449d:	44 39 e3             	cmp    ebx,r12d
44a0:	0f 85 6d ff ff ff    	jne    4413 <set_fd_flags+0x73>
44a6:	e9 1f ff ff ff       	jmp    43ca <set_fd_flags+0x2a>
44ab:	e8 e0 d6 ff ff       	call   1b90 <__stack_chk_fail@plt>

00000000000044b0 <skip_via_lseek>:
44b0:	41 56                	push   r14
44b2:	41 55                	push   r13
44b4:	49 89 fd             	mov    r13,rdi
44b7:	41 54                	push   r12
44b9:	55                   	push   rbp
44ba:	41 89 cc             	mov    r12d,ecx
44bd:	53                   	push   rbx
44be:	89 f3                	mov    ebx,esi
44c0:	48 89 d5             	mov    rbp,rdx
44c3:	be 02 6d 30 80       	mov    esi,0x80306d02
44c8:	89 df                	mov    edi,ebx
44ca:	48 83 ec 70          	sub    rsp,0x70
44ce:	64 48 8b 04 25 28 00 	mov    rax,QWORD PTR fs:0x28
44d5:	00 00
44d7:	48 89 44 24 68       	mov    QWORD PTR [rsp+0x68],rax
44dc:	31 c0                	xor    eax,eax
44de:	48 89 e2             	mov    rdx,rsp
44e1:	e8 6a d7 ff ff       	call   1c50 <ioctl@plt>
44e6:	48 89 ee             	mov    rsi,rbp
44e9:	44 89 e2             	mov    edx,r12d
44ec:	89 df                	mov    edi,ebx
44ee:	41 89 c6             	mov    r14d,eax
44f1:	e8 1a d7 ff ff       	call   1c10 <lseek@plt>
44f6:	48 85 c0             	test   rax,rax
44f9:	48 89 c5             	mov    rbp,rax
44fc:	78 3a                	js     4538 <skip_via_lseek+0x88>
44fe:	45 85 f6             	test   r14d,r14d
4501:	75 35                	jne    4538 <skip_via_lseek+0x88>
4503:	48 8d 54 24 30       	lea    rdx,[rsp+0x30]
4508:	31 c0                	xor    eax,eax
450a:	be 02 6d 30 80       	mov    esi,0x80306d02
450f:	89 df                	mov    edi,ebx
4511:	e8 3a d7 ff ff       	call   1c50 <ioctl@plt>
4516:	85 c0                	test   eax,eax
4518:	75 1e                	jne    4538 <skip_via_lseek+0x88>
451a:	48 8b 44 24 38       	mov    rax,QWORD PTR [rsp+0x38]
451f:	48 39 44 24 08       	cmp    QWORD PTR [rsp+0x8],rax
4524:	75 12                	jne    4538 <skip_via_lseek+0x88>
4526:	48 8b 44 24 58       	mov    rax,QWORD PTR [rsp+0x58]
452b:	48 39 44 24 28       	cmp    QWORD PTR [rsp+0x28],rax
4530:	74 26                	je     4558 <skip_via_lseek+0xa8>
4532:	66 0f 1f 44 00 00    	nop    WORD PTR [rax+rax*1+0x0]
4538:	48 8b 4c 24 68       	mov    rcx,QWORD PTR [rsp+0x68]
453d:	64 48 33 0c 25 28 00 	xor    rcx,QWORD PTR fs:0x28
4544:	00 00
4546:	48 89 e8             	mov    rax,rbp
4549:	75 53                	jne    459e <skip_via_lseek+0xee>
454b:	48 83 c4 70          	add    rsp,0x70
454f:	5b                   	pop    rbx
4550:	5d                   	pop    rbp
4551:	41 5c                	pop    r12
4553:	41 5d                	pop    r13
4555:	41 5e                	pop    r14
4557:	c3                   	ret
4558:	83 3d bd ca 20 00 01 	cmp    DWORD PTR [rip+0x20cabd],0x1        # 21101c <status_level>
455f:	74 2c                	je     458d <skip_via_lseek+0xdd>
4561:	48 8b 5c 24 30       	mov    rbx,QWORD PTR [rsp+0x30]
4566:	48 8d 35 83 84 00 00 	lea    rsi,[rip+0x8483]        # c9f0 <_IO_stdin_used+0x3f0>
456d:	ba 05 00 00 00       	mov    edx,0x5
4572:	31 ff                	xor    edi,edi
4574:	e8 e7 d5 ff ff       	call   1b60 <dcgettext@plt>
4579:	49 89 d8             	mov    r8,rbx
457c:	48 89 c2             	mov    rdx,rax
457f:	4c 89 e9             	mov    rcx,r13
4582:	31 f6                	xor    esi,esi
4584:	31 ff                	xor    edi,edi
4586:	31 c0                	xor    eax,eax
4588:	e8 b3 fb ff ff       	call   4140 <nl_error>
458d:	e8 ee d4 ff ff       	call   1a80 <__errno_location@plt>
4592:	48 83 cd ff          	or     rbp,0xffffffffffffffff
4596:	c7 00 00 00 00 00    	mov    DWORD PTR [rax],0x0
459c:	eb 9a                	jmp    4538 <skip_via_lseek+0x88>
459e:	e8 ed d5 ff ff       	call   1b90 <__stack_chk_fail@plt>
45a3:	0f 1f 00             	nop    DWORD PTR [rax]
45a6:	66 2e 0f 1f 84 00 00 	nop    WORD PTR cs:[rax+rax*1+0x0]
45ad:	00 00 00

00000000000045b0 <invalidate_cache>:
45b0:	41 57                	push   r15
45b2:	41 56                	push   r14
45b4:	41 55                	push   r13
45b6:	41 54                	push   r12
45b8:	55                   	push   rbp
45b9:	53                   	push   rbx
45ba:	48 83 ec 08          	sub    rsp,0x8
45be:	85 ff                	test   edi,edi
45c0:	0f 85 8a 00 00 00    	jne    4650 <invalidate_cache+0xa0>
45c6:	44 0f b6 3d 9b cc 20 	movzx  r15d,BYTE PTR [rip+0x20cc9b]        # 211269 <i_nocache_eof>
45cd:	00
45ce:	48 8d 05 53 cb 20 00 	lea    rax,[rip+0x20cb53]        # 211128 <i_pending.7166>
45d5:	48 85 f6             	test   rsi,rsi
45d8:	48 8b 18             	mov    rbx,QWORD PTR [rax]
45db:	74 33                	je     4610 <invalidate_cache+0x60>
45dd:	48 01 f3             	add    rbx,rsi
45e0:	49 89 de             	mov    r14,rbx
45e3:	41 81 e6 ff ff 01 00 	and    r14d,0x1ffff
45ea:	4c 39 f3             	cmp    rbx,r14
45ed:	4c 89 30             	mov    QWORD PTR [rax],r14
45f0:	77 76                	ja     4668 <invalidate_cache+0xb8>
45f2:	41 bc 01 00 00 00    	mov    r12d,0x1
45f8:	48 83 c4 08          	add    rsp,0x8
45fc:	44 89 e0             	mov    eax,r12d
45ff:	5b                   	pop    rbx
4600:	5d                   	pop    rbp
4601:	41 5c                	pop    r12
4603:	41 5d                	pop    r13
4605:	41 5e                	pop    r14
4607:	41 5f                	pop    r15
4609:	c3                   	ret
460a:	66 0f 1f 44 00 00    	nop    WORD PTR [rax+rax*1+0x0]
4610:	48 85 db             	test   rbx,rbx
4613:	75 05                	jne    461a <invalidate_cache+0x6a>
4615:	45 84 ff             	test   r15b,r15b
4618:	74 d8                	je     45f2 <invalidate_cache+0x42>
461a:	45 31 f6             	xor    r14d,r14d
461d:	85 ff                	test   edi,edi
461f:	48 89 f5             	mov    rbp,rsi
4622:	41 89 fd             	mov    r13d,edi
4625:	75 49                	jne    4670 <invalidate_cache+0xc0>
4627:	44 0f b6 25 0d cd 20 	movzx  r12d,BYTE PTR [rip+0x20cd0d]        # 21133c <input_seekable>
462e:	00
462f:	48 8b 35 fa cc 20 00 	mov    rsi,QWORD PTR [rip+0x20ccfa]        # 211330 <input_offset>
4636:	45 84 e4             	test   r12b,r12b
4639:	75 61                	jne    469c <invalidate_cache+0xec>
463b:	e8 40 d4 ff ff       	call   1a80 <__errno_location@plt>
4640:	c7 00 1d 00 00 00    	mov    DWORD PTR [rax],0x1d
4646:	eb b0                	jmp    45f8 <invalidate_cache+0x48>
4648:	0f 1f 84 00 00 00 00 	nop    DWORD PTR [rax+rax*1+0x0]
464f:	00
4650:	44 0f b6 3d 10 cc 20 	movzx  r15d,BYTE PTR [rip+0x20cc10]        # 211268 <o_nocache_eof>
4657:	00
4658:	48 8d 05 c1 ca 20 00 	lea    rax,[rip+0x20cac1]        # 211120 <o_pending.7167>
465f:	e9 71 ff ff ff       	jmp    45d5 <invalidate_cache+0x25>
4664:	0f 1f 40 00          	nop    DWORD PTR [rax+0x0]
4668:	4c 29 f3             	sub    rbx,r14
466b:	74 85                	je     45f2 <invalidate_cache+0x42>
466d:	eb ae                	jmp    461d <invalidate_cache+0x6d>
466f:	90                   	nop
4670:	48 8b 35 99 c9 20 00 	mov    rsi,QWORD PTR [rip+0x20c999]        # 211010 <output_offset.7179>
4677:	45 31 e4             	xor    r12d,r12d
467a:	48 83 fe ff          	cmp    rsi,0xffffffffffffffff
467e:	0f 84 74 ff ff ff    	je     45f8 <invalidate_cache+0x48>
4684:	48 85 f6             	test   rsi,rsi
4687:	78 7f                	js     4708 <invalidate_cache+0x158>
4689:	48 85 ed             	test   rbp,rbp
468c:	74 1a                	je     46a8 <invalidate_cache+0xf8>
468e:	49 8d 04 1e          	lea    rax,[r14+rbx*1]
4692:	48 01 c6             	add    rsi,rax
4695:	48 89 35 74 c9 20 00 	mov    QWORD PTR [rip+0x20c974],rsi        # 211010 <output_offset.7179>
469c:	45 31 e4             	xor    r12d,r12d
469f:	48 85 f6             	test   rsi,rsi
46a2:	0f 88 50 ff ff ff    	js     45f8 <invalidate_cache+0x48>
46a8:	48 29 de             	sub    rsi,rbx
46ab:	48 85 ed             	test   rbp,rbp
46ae:	75 40                	jne    46f0 <invalidate_cache+0x140>
46b0:	48 85 db             	test   rbx,rbx
46b3:	74 3b                	je     46f0 <invalidate_cache+0x140>
46b5:	45 84 ff             	test   r15b,r15b
46b8:	74 46                	je     4700 <invalidate_cache+0x150>
46ba:	48 89 f0             	mov    rax,rsi
46bd:	31 d2                	xor    edx,edx
46bf:	31 db                	xor    ebx,ebx
46c1:	48 f7 35 10 cd 20 00 	div    QWORD PTR [rip+0x20cd10]        # 2113d8 <page_size>
46c8:	48 29 d6             	sub    rsi,rdx
46cb:	b9 04 00 00 00       	mov    ecx,0x4
46d0:	48 89 da             	mov    rdx,rbx
46d3:	44 89 ef             	mov    edi,r13d
46d6:	e8 95 d5 ff ff       	call   1c70 <posix_fadvise@plt>
46db:	83 f8 ff             	cmp    eax,0xffffffff
46de:	41 0f 95 c4          	setne  r12b
46e2:	e9 11 ff ff ff       	jmp    45f8 <invalidate_cache+0x48>
46e7:	66 0f 1f 84 00 00 00 	nop    WORD PTR [rax+rax*1+0x0]
46ee:	00 00
46f0:	4c 29 f6             	sub    rsi,r14
46f3:	48 85 db             	test   rbx,rbx
46f6:	75 d3                	jne    46cb <invalidate_cache+0x11b>
46f8:	eb c0                	jmp    46ba <invalidate_cache+0x10a>
46fa:	66 0f 1f 44 00 00    	nop    WORD PTR [rax+rax*1+0x0]
4700:	4c 29 f6             	sub    rsi,r14
4703:	eb c6                	jmp    46cb <invalidate_cache+0x11b>
4705:	0f 1f 00             	nop    DWORD PTR [rax]
4708:	31 f6                	xor    esi,esi
470a:	ba 01 00 00 00       	mov    edx,0x1
470f:	bf 01 00 00 00       	mov    edi,0x1
4714:	e8 f7 d4 ff ff       	call   1c10 <lseek@plt>
4719:	48 89 c6             	mov    rsi,rax
471c:	48 89 05 ed c8 20 00 	mov    QWORD PTR [rip+0x20c8ed],rax        # 211010 <output_offset.7179>
4723:	e9 74 ff ff ff       	jmp    469c <invalidate_cache+0xec>
4728:	0f 1f 84 00 00 00 00 	nop    DWORD PTR [rax+rax*1+0x0]
472f:	00

0000000000004730 <maybe_close_stdout>:
4730:	80 3d e1 c8 20 00 00 	cmp    BYTE PTR [rip+0x20c8e1],0x0        # 211018 <close_stdout_required>
4737:	75 1f                	jne    4758 <maybe_close_stdout+0x28>
4739:	48 83 ec 08          	sub    rsp,0x8
473d:	48 8b 3d bc c9 20 00 	mov    rdi,QWORD PTR [rip+0x20c9bc]        # 211100 <stderr@@GLIBC_2.2.5>
4744:	e8 67 16 00 00       	call   5db0 <close_stream>
4749:	85 c0                	test   eax,eax
474b:	75 10                	jne    475d <maybe_close_stdout+0x2d>
474d:	48 83 c4 08          	add    rsp,0x8
4751:	c3                   	ret
4752:	66 0f 1f 44 00 00    	nop    WORD PTR [rax+rax*1+0x0]
4758:	e9 f3 16 00 00       	jmp    5e50 <close_stdout>
475d:	bf 01 00 00 00       	mov    edi,0x1
4762:	e8 59 d3 ff ff       	call   1ac0 <_exit@plt>
4767:	66 0f 1f 84 00 00 00 	nop    WORD PTR [rax+rax*1+0x0]
476e:	00 00

0000000000004770 <print_stats.part.2>:
4770:	41 55                	push   r13
4772:	41 54                	push   r12
4774:	55                   	push   rbp
4775:	53                   	push   rbx
4776:	48 83 ec 08          	sub    rsp,0x8
477a:	8b 0d c0 cb 20 00    	mov    ecx,DWORD PTR [rip+0x20cbc0]        # 211340 <progress_len>
4780:	85 c9                	test   ecx,ecx
4782:	7e 2a                	jle    47ae <print_stats.part.2+0x3e>
4784:	48 8b 3d 75 c9 20 00 	mov    rdi,QWORD PTR [rip+0x20c975]        # 211100 <stderr@@GLIBC_2.2.5>
478b:	48 8b 47 28          	mov    rax,QWORD PTR [rdi+0x28]
478f:	48 3b 47 30          	cmp    rax,QWORD PTR [rdi+0x30]
4793:	0f 83 e7 00 00 00    	jae    4880 <print_stats.part.2+0x110>
4799:	48 8d 50 01          	lea    rdx,[rax+0x1]
479d:	48 89 57 28          	mov    QWORD PTR [rdi+0x28],rdx
47a1:	c6 00 0a             	mov    BYTE PTR [rax],0xa
47a4:	c7 05 92 cb 20 00 00 	mov    DWORD PTR [rip+0x20cb92],0x0        # 211340 <progress_len>
47ab:	00 00 00
47ae:	4c 8b 2d c3 cb 20 00 	mov    r13,QWORD PTR [rip+0x20cbc3]        # 211378 <w_partial>
47b5:	48 8d 35 ac 82 00 00 	lea    rsi,[rip+0x82ac]        # ca68 <_IO_stdin_used+0x468>
47bc:	48 8b 1d 9d cb 20 00 	mov    rbx,QWORD PTR [rip+0x20cb9d]        # 211360 <r_full>
47c3:	31 ff                	xor    edi,edi
47c5:	4c 8b 25 a4 cb 20 00 	mov    r12,QWORD PTR [rip+0x20cba4]        # 211370 <w_full>
47cc:	48 8b 2d 95 cb 20 00 	mov    rbp,QWORD PTR [rip+0x20cb95]        # 211368 <r_partial>
47d3:	ba 05 00 00 00       	mov    edx,0x5
47d8:	e8 83 d3 ff ff       	call   1b60 <dcgettext@plt>
47dd:	48 83 ec 08          	sub    rsp,0x8
47e1:	48 8b 3d 18 c9 20 00 	mov    rdi,QWORD PTR [rip+0x20c918]        # 211100 <stderr@@GLIBC_2.2.5>
47e8:	48 89 c2             	mov    rdx,rax
47eb:	41 55                	push   r13
47ed:	48 89 d9             	mov    rcx,rbx
47f0:	31 c0                	xor    eax,eax
47f2:	4d 89 e1             	mov    r9,r12
47f5:	49 89 e8             	mov    r8,rbp
47f8:	be 01 00 00 00       	mov    esi,0x1
47fd:	e8 2e d6 ff ff       	call   1e30 <__fprintf_chk@plt>
4802:	48 8b 1d 17 cb 20 00 	mov    rbx,QWORD PTR [rip+0x20cb17]        # 211320 <r_truncate>
4809:	58                   	pop    rax
480a:	5a                   	pop    rdx
480b:	48 85 db             	test   rbx,rbx
480e:	75 30                	jne    4840 <print_stats.part.2+0xd0>
4810:	83 3d 05 c8 20 00 02 	cmp    DWORD PTR [rip+0x20c805],0x2        # 21101c <status_level>
4817:	74 17                	je     4830 <print_stats.part.2+0xc0>
4819:	48 83 c4 08          	add    rsp,0x8
481d:	31 ff                	xor    edi,edi
481f:	5b                   	pop    rbx
4820:	5d                   	pop    rbp
4821:	41 5c                	pop    r12
4823:	41 5d                	pop    r13
4825:	e9 86 f5 ff ff       	jmp    3db0 <print_xfer_stats>
482a:	66 0f 1f 44 00 00    	nop    WORD PTR [rax+rax*1+0x0]
4830:	48 83 c4 08          	add    rsp,0x8
4834:	5b                   	pop    rbx
4835:	5d                   	pop    rbp
4836:	41 5c                	pop    r12
4838:	41 5d                	pop    r13
483a:	c3                   	ret
483b:	0f 1f 44 00 00       	nop    DWORD PTR [rax+rax*1+0x0]
4840:	48 8d 15 53 7e 00 00 	lea    rdx,[rip+0x7e53]        # c69a <_IO_stdin_used+0x9a>
4847:	48 8d 35 63 7e 00 00 	lea    rsi,[rip+0x7e63]        # c6b1 <_IO_stdin_used+0xb1>
484e:	48 89 d9             	mov    rcx,rbx
4851:	31 ff                	xor    edi,edi
4853:	41 b8 05 00 00 00    	mov    r8d,0x5
4859:	e8 72 d5 ff ff       	call   1dd0 <dcngettext@plt>
485e:	48 8b 3d 9b c8 20 00 	mov    rdi,QWORD PTR [rip+0x20c89b]        # 211100 <stderr@@GLIBC_2.2.5>
4865:	48 89 c2             	mov    rdx,rax
4868:	48 89 d9             	mov    rcx,rbx
486b:	be 01 00 00 00       	mov    esi,0x1
4870:	31 c0                	xor    eax,eax
4872:	e8 b9 d5 ff ff       	call   1e30 <__fprintf_chk@plt>
4877:	eb 97                	jmp    4810 <print_stats.part.2+0xa0>
4879:	0f 1f 80 00 00 00 00 	nop    DWORD PTR [rax+0x0]
4880:	be 0a 00 00 00       	mov    esi,0xa
4885:	e8 56 d3 ff ff       	call   1be0 <__overflow@plt>
488a:	e9 15 ff ff ff       	jmp    47a4 <print_stats.part.2+0x34>
488f:	90                   	nop

0000000000004890 <cleanup>:
4890:	55                   	push   rbp
4891:	53                   	push   rbx
4892:	31 ff                	xor    edi,edi
4894:	48 83 ec 08          	sub    rsp,0x8
4898:	e8 c3 d3 ff ff       	call   1c60 <close@plt>
489d:	85 c0                	test   eax,eax
489f:	78 15                	js     48b6 <cleanup+0x26>
48a1:	bf 01 00 00 00       	mov    edi,0x1
48a6:	e8 b5 d3 ff ff       	call   1c60 <close@plt>
48ab:	85 c0                	test   eax,eax
48ad:	78 4a                	js     48f9 <cleanup+0x69>
48af:	48 83 c4 08          	add    rsp,0x8
48b3:	5b                   	pop    rbx
48b4:	5d                   	pop    rbp
48b5:	c3                   	ret
48b6:	48 8b 35 2b cb 20 00 	mov    rsi,QWORD PTR [rip+0x20cb2b]        # 2113e8 <input_file>
48bd:	bf 04 00 00 00       	mov    edi,0x4
48c2:	e8 19 41 00 00       	call   89e0 <quotearg_style>
48c7:	48 8d 35 f9 7d 00 00 	lea    rsi,[rip+0x7df9]        # c6c7 <_IO_stdin_used+0xc7>
48ce:	ba 05 00 00 00       	mov    edx,0x5
48d3:	31 ff                	xor    edi,edi
48d5:	48 89 c5             	mov    rbp,rax
48d8:	e8 83 d2 ff ff       	call   1b60 <dcgettext@plt>
48dd:	48 89 c3             	mov    rbx,rax
48e0:	e8 9b d1 ff ff       	call   1a80 <__errno_location@plt>
48e5:	8b 30                	mov    esi,DWORD PTR [rax]
48e7:	48 89 e9             	mov    rcx,rbp
48ea:	48 89 da             	mov    rdx,rbx
48ed:	bf 01 00 00 00       	mov    edi,0x1
48f2:	31 c0                	xor    eax,eax
48f4:	e8 47 f8 ff ff       	call   4140 <nl_error>
48f9:	48 8b 35 e0 ca 20 00 	mov    rsi,QWORD PTR [rip+0x20cae0]        # 2113e0 <output_file>
4900:	bf 04 00 00 00       	mov    edi,0x4
4905:	e8 d6 40 00 00       	call   89e0 <quotearg_style>
490a:	48 8d 35 cc 7d 00 00 	lea    rsi,[rip+0x7dcc]        # c6dd <_IO_stdin_used+0xdd>
4911:	ba 05 00 00 00       	mov    edx,0x5
4916:	31 ff                	xor    edi,edi
4918:	48 89 c5             	mov    rbp,rax
491b:	e8 40 d2 ff ff       	call   1b60 <dcgettext@plt>
4920:	48 89 c3             	mov    rbx,rax
4923:	e8 58 d1 ff ff       	call   1a80 <__errno_location@plt>
4928:	8b 30                	mov    esi,DWORD PTR [rax]
492a:	48 89 e9             	mov    rcx,rbp
492d:	48 89 da             	mov    rdx,rbx
4930:	bf 01 00 00 00       	mov    edi,0x1
4935:	31 c0                	xor    eax,eax
4937:	e8 04 f8 ff ff       	call   4140 <nl_error>
493c:	0f 1f 40 00          	nop    DWORD PTR [rax+0x0]

0000000000004940 <process_signals>:
4940:	55                   	push   rbp
4941:	53                   	push   rbx
4942:	48 81 ec 98 00 00 00 	sub    rsp,0x98
4949:	64 48 8b 04 25 28 00 	mov    rax,QWORD PTR fs:0x28
4950:	00 00
4952:	48 89 84 24 88 00 00 	mov    QWORD PTR [rsp+0x88],rax
4959:	00
495a:	31 c0                	xor    eax,eax
495c:	48 89 e5             	mov    rbp,rsp
495f:	90                   	nop
4960:	8b 05 0a c9 20 00    	mov    eax,DWORD PTR [rip+0x20c90a]        # 211270 <interrupt_signal>
4966:	85 c0                	test   eax,eax
4968:	75 0a                	jne    4974 <process_signals+0x34>
496a:	8b 05 fc c8 20 00    	mov    eax,DWORD PTR [rip+0x20c8fc]        # 21126c <info_signal_count>
4970:	85 c0                	test   eax,eax
4972:	74 7c                	je     49f0 <process_signals+0xb0>
4974:	48 8d 35 05 c9 20 00 	lea    rsi,[rip+0x20c905]        # 211280 <caught_signals>
497b:	31 ff                	xor    edi,edi
497d:	48 89 ea             	mov    rdx,rbp
4980:	e8 ab d0 ff ff       	call   1a30 <sigprocmask@plt>
4985:	8b 1d e5 c8 20 00    	mov    ebx,DWORD PTR [rip+0x20c8e5]        # 211270 <interrupt_signal>
498b:	8b 05 db c8 20 00    	mov    eax,DWORD PTR [rip+0x20c8db]        # 21126c <info_signal_count>
4991:	85 c0                	test   eax,eax
4993:	74 09                	je     499e <process_signals+0x5e>
4995:	83 e8 01             	sub    eax,0x1
4998:	89 05 ce c8 20 00    	mov    DWORD PTR [rip+0x20c8ce],eax        # 21126c <info_signal_count>
499e:	31 d2                	xor    edx,edx
49a0:	48 89 ee             	mov    rsi,rbp
49a3:	bf 02 00 00 00       	mov    edi,0x2
49a8:	e8 83 d0 ff ff       	call   1a30 <sigprocmask@plt>
49ad:	85 db                	test   ebx,ebx
49af:	75 17                	jne    49c8 <process_signals+0x88>
49b1:	83 3d 64 c6 20 00 01 	cmp    DWORD PTR [rip+0x20c664],0x1        # 21101c <status_level>
49b8:	74 a6                	je     4960 <process_signals+0x20>
49ba:	e8 b1 fd ff ff       	call   4770 <print_stats.part.2>
49bf:	eb 9f                	jmp    4960 <process_signals+0x20>
49c1:	0f 1f 80 00 00 00 00 	nop    DWORD PTR [rax+0x0]
49c8:	e8 c3 fe ff ff       	call   4890 <cleanup>
49cd:	83 3d 48 c6 20 00 01 	cmp    DWORD PTR [rip+0x20c648],0x1        # 21101c <status_level>
49d4:	74 05                	je     49db <process_signals+0x9b>
49d6:	e8 95 fd ff ff       	call   4770 <print_stats.part.2>
49db:	89 df                	mov    edi,ebx
49dd:	e8 6e d0 ff ff       	call   1a50 <raise@plt>
49e2:	e9 79 ff ff ff       	jmp    4960 <process_signals+0x20>
49e7:	66 0f 1f 84 00 00 00 	nop    WORD PTR [rax+rax*1+0x0]
49ee:	00 00
49f0:	48 8b 84 24 88 00 00 	mov    rax,QWORD PTR [rsp+0x88]
49f7:	00
49f8:	64 48 33 04 25 28 00 	xor    rax,QWORD PTR fs:0x28
49ff:	00 00
4a01:	75 0a                	jne    4a0d <process_signals+0xcd>
4a03:	48 81 c4 98 00 00 00 	add    rsp,0x98
4a0a:	5b                   	pop    rbx
4a0b:	5d                   	pop    rbp
4a0c:	c3                   	ret
4a0d:	e8 7e d1 ff ff       	call   1b90 <__stack_chk_fail@plt>
4a12:	0f 1f 40 00          	nop    DWORD PTR [rax+0x0]
4a16:	66 2e 0f 1f 84 00 00 	nop    WORD PTR cs:[rax+rax*1+0x0]
4a1d:	00 00 00

0000000000004a20 <ifd_reopen>:
4a20:	41 56                	push   r14
4a22:	41 89 fe             	mov    r14d,edi
4a25:	41 55                	push   r13
4a27:	49 89 f5             	mov    r13,rsi
4a2a:	41 54                	push   r12
4a2c:	41 89 d4             	mov    r12d,edx
4a2f:	55                   	push   rbp
4a30:	89 cd                	mov    ebp,ecx
4a32:	53                   	push   rbx
4a33:	eb 0d                	jmp    4a42 <ifd_reopen+0x22>
4a35:	0f 1f 00             	nop    DWORD PTR [rax]
4a38:	e8 43 d0 ff ff       	call   1a80 <__errno_location@plt>
4a3d:	83 38 04             	cmp    DWORD PTR [rax],0x4
4a40:	75 1b                	jne    4a5d <ifd_reopen+0x3d>
4a42:	e8 f9 fe ff ff       	call   4940 <process_signals>
4a47:	89 e9                	mov    ecx,ebp
4a49:	44 89 e2             	mov    edx,r12d
4a4c:	4c 89 ee             	mov    rsi,r13
4a4f:	44 89 f7             	mov    edi,r14d
4a52:	e8 a9 14 00 00       	call   5f00 <fd_reopen>
4a57:	85 c0                	test   eax,eax
4a59:	89 c3                	mov    ebx,eax
4a5b:	78 db                	js     4a38 <ifd_reopen+0x18>
4a5d:	89 d8                	mov    eax,ebx
4a5f:	5b                   	pop    rbx
4a60:	5d                   	pop    rbp
4a61:	41 5c                	pop    r12
4a63:	41 5d                	pop    r13
4a65:	41 5e                	pop    r14
4a67:	c3                   	ret
4a68:	0f 1f 84 00 00 00 00 	nop    DWORD PTR [rax+rax*1+0x0]
4a6f:	00

0000000000004a70 <iread>:
4a70:	41 55                	push   r13
4a72:	41 54                	push   r12
4a74:	41 89 fd             	mov    r13d,edi
4a77:	55                   	push   rbp
4a78:	53                   	push   rbx
4a79:	49 89 f4             	mov    r12,rsi
4a7c:	48 89 d5             	mov    rbp,rdx
4a7f:	48 83 ec 08          	sub    rsp,0x8
4a83:	eb 19                	jmp    4a9e <iread+0x2e>
4a85:	0f 1f 00             	nop    DWORD PTR [rax]
4a88:	48 83 f8 00          	cmp    rax,0x0
4a8c:	7d 72                	jge    4b00 <iread+0x90>
4a8e:	e8 ed cf ff ff       	call   1a80 <__errno_location@plt>
4a93:	8b 10                	mov    edx,DWORD PTR [rax]
4a95:	83 fa 04             	cmp    edx,0x4
4a98:	0f 85 cc 00 00 00    	jne    4b6a <iread+0xfa>
4a9e:	e8 9d fe ff ff       	call   4940 <process_signals>
4aa3:	48 89 ea             	mov    rdx,rbp
4aa6:	4c 89 e6             	mov    rsi,r12
4aa9:	44 89 ef             	mov    edi,r13d
4aac:	e8 cf d1 ff ff       	call   1c80 <read@plt>
4ab1:	48 83 f8 ff          	cmp    rax,0xffffffffffffffff
4ab5:	48 89 c3             	mov    rbx,rax
4ab8:	75 ce                	jne    4a88 <iread+0x18>
4aba:	e8 c1 cf ff ff       	call   1a80 <__errno_location@plt>
4abf:	8b 10                	mov    edx,DWORD PTR [rax]
4ac1:	83 fa 16             	cmp    edx,0x16
4ac4:	75 cf                	jne    4a95 <iread+0x25>
4ac6:	48 8b 15 6b c6 20 00 	mov    rdx,QWORD PTR [rip+0x20c66b]        # 211138 <prev_nread.7186>
4acd:	48 85 d2             	test   rdx,rdx
4ad0:	7e 12                	jle    4ae4 <iread+0x74>
4ad2:	48 39 ea             	cmp    rdx,rbp
4ad5:	73 0d                	jae    4ae4 <iread+0x74>
4ad7:	f6 05 ab c8 20 00 40 	test   BYTE PTR [rip+0x20c8ab],0x40        # 211389 <input_flags+0x1>
4ade:	0f 85 94 00 00 00    	jne    4b78 <iread+0x108>
4ae4:	48 89 1d 4d c6 20 00 	mov    QWORD PTR [rip+0x20c64d],rbx        # 211138 <prev_nread.7186>
4aeb:	48 83 c4 08          	add    rsp,0x8
4aef:	48 89 d8             	mov    rax,rbx
4af2:	5b                   	pop    rbx
4af3:	5d                   	pop    rbp
4af4:	41 5c                	pop    r12
4af6:	41 5d                	pop    r13
4af8:	c3                   	ret
4af9:	0f 1f 80 00 00 00 00 	nop    DWORD PTR [rax+0x0]
4b00:	7e 68                	jle    4b6a <iread+0xfa>
4b02:	48 39 e8             	cmp    rax,rbp
4b05:	73 63                	jae    4b6a <iread+0xfa>
4b07:	e8 34 fe ff ff       	call   4940 <process_signals>
4b0c:	80 3d 15 c8 20 00 00 	cmp    BYTE PTR [rip+0x20c815],0x0        # 211328 <warn_partial_read>
4b13:	74 cf                	je     4ae4 <iread+0x74>
4b15:	4c 8b 25 1c c6 20 00 	mov    r12,QWORD PTR [rip+0x20c61c]        # 211138 <prev_nread.7186>
4b1c:	4d 85 e4             	test   r12,r12
4b1f:	7e c3                	jle    4ae4 <iread+0x74>
4b21:	49 39 ec             	cmp    r12,rbp
4b24:	73 be                	jae    4ae4 <iread+0x74>
4b26:	83 3d ef c4 20 00 01 	cmp    DWORD PTR [rip+0x20c4ef],0x1        # 21101c <status_level>
4b2d:	74 2f                	je     4b5e <iread+0xee>
4b2f:	48 8d 15 5a 7f 00 00 	lea    rdx,[rip+0x7f5a]        # ca90 <_IO_stdin_used+0x490>
4b36:	48 8d 35 93 7f 00 00 	lea    rsi,[rip+0x7f93]        # cad0 <_IO_stdin_used+0x4d0>
4b3d:	4c 89 e1             	mov    rcx,r12
4b40:	31 ff                	xor    edi,edi
4b42:	41 b8 05 00 00 00    	mov    r8d,0x5
4b48:	e8 83 d2 ff ff       	call   1dd0 <dcngettext@plt>
4b4d:	4c 89 e1             	mov    rcx,r12
4b50:	48 89 c2             	mov    rdx,rax
4b53:	31 f6                	xor    esi,esi
4b55:	31 ff                	xor    edi,edi
4b57:	31 c0                	xor    eax,eax
4b59:	e8 e2 f5 ff ff       	call   4140 <nl_error>
4b5e:	c6 05 c3 c7 20 00 00 	mov    BYTE PTR [rip+0x20c7c3],0x0        # 211328 <warn_partial_read>
4b65:	e9 7a ff ff ff       	jmp    4ae4 <iread+0x74>
4b6a:	48 85 db             	test   rbx,rbx
4b6d:	7f 9d                	jg     4b0c <iread+0x9c>
4b6f:	e9 70 ff ff ff       	jmp    4ae4 <iread+0x74>
4b74:	0f 1f 40 00          	nop    DWORD PTR [rax+0x0]
4b78:	c7 00 00 00 00 00    	mov    DWORD PTR [rax],0x0
4b7e:	31 db                	xor    ebx,ebx
4b80:	e9 5f ff ff ff       	jmp    4ae4 <iread+0x74>
4b85:	90                   	nop
4b86:	66 2e 0f 1f 84 00 00 	nop    WORD PTR cs:[rax+rax*1+0x0]
4b8d:	00 00 00

0000000000004b90 <iread_fullblock>:
4b90:	48 85 d2             	test   rdx,rdx
4b93:	74 59                	je     4bee <iread_fullblock+0x5e>
4b95:	41 55                	push   r13
4b97:	41 54                	push   r12
4b99:	41 89 fd             	mov    r13d,edi
4b9c:	55                   	push   rbp
4b9d:	53                   	push   rbx
4b9e:	48 89 f5             	mov    rbp,rsi
4ba1:	48 89 d3             	mov    rbx,rdx
4ba4:	45 31 e4             	xor    r12d,r12d
4ba7:	48 83 ec 08          	sub    rsp,0x8
4bab:	eb 10                	jmp    4bbd <iread_fullblock+0x2d>
4bad:	0f 1f 00             	nop    DWORD PTR [rax]
4bb0:	74 2e                	je     4be0 <iread_fullblock+0x50>
4bb2:	49 01 c4             	add    r12,rax
4bb5:	48 01 c5             	add    rbp,rax
4bb8:	48 29 c3             	sub    rbx,rax
4bbb:	74 23                	je     4be0 <iread_fullblock+0x50>
4bbd:	48 89 da             	mov    rdx,rbx
4bc0:	48 89 ee             	mov    rsi,rbp
4bc3:	44 89 ef             	mov    edi,r13d
4bc6:	e8 a5 fe ff ff       	call   4a70 <iread>
4bcb:	48 85 c0             	test   rax,rax
4bce:	79 e0                	jns    4bb0 <iread_fullblock+0x20>
4bd0:	48 83 c4 08          	add    rsp,0x8
4bd4:	5b                   	pop    rbx
4bd5:	5d                   	pop    rbp
4bd6:	41 5c                	pop    r12
4bd8:	41 5d                	pop    r13
4bda:	c3                   	ret
4bdb:	0f 1f 44 00 00       	nop    DWORD PTR [rax+rax*1+0x0]
4be0:	48 83 c4 08          	add    rsp,0x8
4be4:	4c 89 e0             	mov    rax,r12
4be7:	5b                   	pop    rbx
4be8:	5d                   	pop    rbp
4be9:	41 5c                	pop    r12
4beb:	41 5d                	pop    r13
4bed:	c3                   	ret
4bee:	31 c0                	xor    eax,eax
4bf0:	c3                   	ret
4bf1:	0f 1f 44 00 00       	nop    DWORD PTR [rax+rax*1+0x0]
4bf6:	66 2e 0f 1f 84 00 00 	nop    WORD PTR cs:[rax+rax*1+0x0]
4bfd:	00 00 00

0000000000004c00 <finish_up>:
4c00:	48 83 ec 08          	sub    rsp,0x8
4c04:	e8 87 fc ff ff       	call   4890 <cleanup>
4c09:	83 3d 0c c4 20 00 01 	cmp    DWORD PTR [rip+0x20c40c],0x1        # 21101c <status_level>
4c10:	74 05                	je     4c17 <finish_up+0x17>
4c12:	e8 59 fb ff ff       	call   4770 <print_stats.part.2>
4c17:	48 83 c4 08          	add    rsp,0x8
4c1b:	e9 20 fd ff ff       	jmp    4940 <process_signals>

0000000000004c20 <alloc_ibuf.part.4>:
4c20:	55                   	push   rbp
4c21:	53                   	push   rbx
4c22:	48 81 ec a8 02 00 00 	sub    rsp,0x2a8
4c29:	48 8b 1d a8 c7 20 00 	mov    rbx,QWORD PTR [rip+0x20c7a8]        # 2113d8 <page_size>
4c30:	48 8b 2d 99 c7 20 00 	mov    rbp,QWORD PTR [rip+0x20c799]        # 2113d0 <input_blocksize>
4c37:	64 48 8b 04 25 28 00 	mov    rax,QWORD PTR fs:0x28
4c3e:	00 00
4c40:	48 89 84 24 98 02 00 	mov    QWORD PTR [rsp+0x298],rax
4c47:	00
4c48:	31 c0                	xor    eax,eax
4c4a:	48 8d 7c 5d 03       	lea    rdi,[rbp+rbx*2+0x3]
4c4f:	e8 ac d0 ff ff       	call   1d00 <malloc@plt>
4c54:	48 85 c0             	test   rax,rax
4c57:	74 34                	je     4c8d <alloc_ibuf.part.4+0x6d>
4c59:	48 8d 4c 18 01       	lea    rcx,[rax+rbx*1+0x1]
4c5e:	31 d2                	xor    edx,edx
4c60:	48 89 c8             	mov    rax,rcx
4c63:	48 f7 f3             	div    rbx
4c66:	48 29 d1             	sub    rcx,rdx
4c69:	48 8b 84 24 98 02 00 	mov    rax,QWORD PTR [rsp+0x298]
4c70:	00
4c71:	64 48 33 04 25 28 00 	xor    rax,QWORD PTR fs:0x28
4c78:	00 00
4c7a:	48 89 0d 97 c6 20 00 	mov    QWORD PTR [rip+0x20c697],rcx        # 211318 <ibuf>
4c81:	75 52                	jne    4cd5 <alloc_ibuf.part.4+0xb5>
4c83:	48 81 c4 a8 02 00 00 	add    rsp,0x2a8
4c8a:	5b                   	pop    rbx
4c8b:	5d                   	pop    rbp
4c8c:	c3                   	ret
4c8d:	41 b8 01 00 00 00    	mov    r8d,0x1
4c93:	b9 01 00 00 00       	mov    ecx,0x1
4c98:	48 89 e6             	mov    rsi,rsp
4c9b:	ba f1 01 00 00       	mov    edx,0x1f1
4ca0:	48 89 ef             	mov    rdi,rbp
4ca3:	e8 78 14 00 00       	call   6120 <human_readable>
4ca8:	48 8d 35 61 7e 00 00 	lea    rsi,[rip+0x7e61]        # cb10 <_IO_stdin_used+0x510>
4caf:	48 89 c3             	mov    rbx,rax
4cb2:	ba 05 00 00 00       	mov    edx,0x5
4cb7:	31 ff                	xor    edi,edi
4cb9:	e8 a2 ce ff ff       	call   1b60 <dcgettext@plt>
4cbe:	49 89 d8             	mov    r8,rbx
4cc1:	48 89 c2             	mov    rdx,rax
4cc4:	48 89 e9             	mov    rcx,rbp
4cc7:	31 f6                	xor    esi,esi
4cc9:	bf 01 00 00 00       	mov    edi,0x1
4cce:	31 c0                	xor    eax,eax
4cd0:	e8 6b f4 ff ff       	call   4140 <nl_error>
4cd5:	e8 b6 ce ff ff       	call   1b90 <__stack_chk_fail@plt>
4cda:	66 0f 1f 44 00 00    	nop    WORD PTR [rax+rax*1+0x0]

0000000000004ce0 <alloc_obuf.part.5>:
4ce0:	55                   	push   rbp
4ce1:	53                   	push   rbx
4ce2:	48 81 ec a8 02 00 00 	sub    rsp,0x2a8
4ce9:	48 8b 1d e8 c6 20 00 	mov    rbx,QWORD PTR [rip+0x20c6e8]        # 2113d8 <page_size>
4cf0:	48 8b 2d d1 c6 20 00 	mov    rbp,QWORD PTR [rip+0x20c6d1]        # 2113c8 <output_blocksize>
4cf7:	64 48 8b 04 25 28 00 	mov    rax,QWORD PTR fs:0x28
4cfe:	00 00
4d00:	48 89 84 24 98 02 00 	mov    QWORD PTR [rsp+0x298],rax
4d07:	00
4d08:	31 c0                	xor    eax,eax
4d0a:	48 8d 7c 2b ff       	lea    rdi,[rbx+rbp*1-0x1]
4d0f:	e8 ec cf ff ff       	call   1d00 <malloc@plt>
4d14:	48 85 c0             	test   rax,rax
4d17:	74 34                	je     4d4d <alloc_obuf.part.5+0x6d>
4d19:	48 8d 4c 18 ff       	lea    rcx,[rax+rbx*1-0x1]
4d1e:	31 d2                	xor    edx,edx
4d20:	48 89 c8             	mov    rax,rcx
4d23:	48 f7 f3             	div    rbx
4d26:	48 29 d1             	sub    rcx,rdx
4d29:	48 8b 84 24 98 02 00 	mov    rax,QWORD PTR [rsp+0x298]
4d30:	00
4d31:	64 48 33 04 25 28 00 	xor    rax,QWORD PTR fs:0x28
4d38:	00 00
4d3a:	48 89 0d cf c5 20 00 	mov    QWORD PTR [rip+0x20c5cf],rcx        # 211310 <obuf>
4d41:	75 52                	jne    4d95 <alloc_obuf.part.5+0xb5>
4d43:	48 81 c4 a8 02 00 00 	add    rsp,0x2a8
4d4a:	5b                   	pop    rbx
4d4b:	5d                   	pop    rbp
4d4c:	c3                   	ret
4d4d:	41 b8 01 00 00 00    	mov    r8d,0x1
4d53:	b9 01 00 00 00       	mov    ecx,0x1
4d58:	48 89 e6             	mov    rsi,rsp
4d5b:	ba f1 01 00 00       	mov    edx,0x1f1
4d60:	48 89 ef             	mov    rdi,rbp
4d63:	e8 b8 13 00 00       	call   6120 <human_readable>
4d68:	48 8d 35 d9 7d 00 00 	lea    rsi,[rip+0x7dd9]        # cb48 <_IO_stdin_used+0x548>
4d6f:	48 89 c3             	mov    rbx,rax
4d72:	ba 05 00 00 00       	mov    edx,0x5
4d77:	31 ff                	xor    edi,edi
4d79:	e8 e2 cd ff ff       	call   1b60 <dcgettext@plt>
4d7e:	49 89 d8             	mov    r8,rbx
4d81:	48 89 c2             	mov    rdx,rax
4d84:	48 89 e9             	mov    rcx,rbp
4d87:	31 f6                	xor    esi,esi
4d89:	bf 01 00 00 00       	mov    edi,0x1
4d8e:	31 c0                	xor    eax,eax
4d90:	e8 ab f3 ff ff       	call   4140 <nl_error>
4d95:	e8 f6 cd ff ff       	call   1b90 <__stack_chk_fail@plt>
4d9a:	66 0f 1f 44 00 00    	nop    WORD PTR [rax+rax*1+0x0]

0000000000004da0 <alloc_obuf>:
4da0:	48 83 3d 68 c5 20 00 	cmp    QWORD PTR [rip+0x20c568],0x0        # 211310 <obuf>
4da7:	00
4da8:	74 02                	je     4dac <alloc_obuf+0xc>
4daa:	f3 c3                	repz ret
4dac:	f6 05 da c5 20 00 08 	test   BYTE PTR [rip+0x20c5da],0x8        # 21138d <conversions_mask+0x1>
4db3:	75 19                	jne    4dce <alloc_obuf+0x2e>
4db5:	48 83 3d 5b c5 20 00 	cmp    QWORD PTR [rip+0x20c55b],0x0        # 211318 <ibuf>
4dbc:	00
4dbd:	74 14                	je     4dd3 <alloc_obuf+0x33>
4dbf:	48 8b 05 52 c5 20 00 	mov    rax,QWORD PTR [rip+0x20c552]        # 211318 <ibuf>
4dc6:	48 89 05 43 c5 20 00 	mov    QWORD PTR [rip+0x20c543],rax        # 211310 <obuf>
4dcd:	c3                   	ret
4dce:	e9 0d ff ff ff       	jmp    4ce0 <alloc_obuf.part.5>
4dd3:	48 83 ec 08          	sub    rsp,0x8
4dd7:	e8 44 fe ff ff       	call   4c20 <alloc_ibuf.part.4>
4ddc:	48 8b 05 35 c5 20 00 	mov    rax,QWORD PTR [rip+0x20c535]        # 211318 <ibuf>
4de3:	48 89 05 26 c5 20 00 	mov    QWORD PTR [rip+0x20c526],rax        # 211310 <obuf>
4dea:	58                   	pop    rax
4deb:	c3                   	ret
4dec:	0f 1f 40 00          	nop    DWORD PTR [rax+0x0]

0000000000004df0 <iftruncate.constprop.6>:
4df0:	55                   	push   rbp
4df1:	53                   	push   rbx
4df2:	48 89 fd             	mov    rbp,rdi
4df5:	48 83 ec 08          	sub    rsp,0x8
4df9:	eb 0f                	jmp    4e0a <iftruncate.constprop.6+0x1a>
4dfb:	0f 1f 44 00 00       	nop    DWORD PTR [rax+rax*1+0x0]
4e00:	e8 7b cc ff ff       	call   1a80 <__errno_location@plt>
4e05:	83 38 04             	cmp    DWORD PTR [rax],0x4
4e08:	75 18                	jne    4e22 <iftruncate.constprop.6+0x32>
4e0a:	e8 31 fb ff ff       	call   4940 <process_signals>
4e0f:	48 89 ee             	mov    rsi,rbp
4e12:	bf 01 00 00 00       	mov    edi,0x1
4e17:	e8 e4 cd ff ff       	call   1c00 <ftruncate@plt>
4e1c:	85 c0                	test   eax,eax
4e1e:	89 c3                	mov    ebx,eax
4e20:	78 de                	js     4e00 <iftruncate.constprop.6+0x10>
4e22:	48 83 c4 08          	add    rsp,0x8
4e26:	89 d8                	mov    eax,ebx
4e28:	5b                   	pop    rbx
4e29:	5d                   	pop    rbp
4e2a:	c3                   	ret
4e2b:	0f 1f 44 00 00       	nop    DWORD PTR [rax+rax*1+0x0]

0000000000004e30 <iwrite.constprop.7>:
4e30:	41 55                	push   r13
4e32:	41 54                	push   r12
4e34:	49 89 fc             	mov    r12,rdi
4e37:	55                   	push   rbp
4e38:	53                   	push   rbx
4e39:	48 89 f5             	mov    rbp,rsi
4e3c:	48 83 ec 08          	sub    rsp,0x8
4e40:	f6 05 3e c5 20 00 40 	test   BYTE PTR [rip+0x20c53e],0x40        # 211385 <output_flags+0x1>
4e47:	74 0d                	je     4e56 <iwrite.constprop.7+0x26>
4e49:	48 39 35 78 c5 20 00 	cmp    QWORD PTR [rip+0x20c578],rsi        # 2113c8 <output_blocksize>
4e50:	0f 87 3a 01 00 00    	ja     4f90 <iwrite.constprop.7+0x160>
4e56:	31 db                	xor    ebx,ebx
4e58:	48 85 ed             	test   rbp,rbp
4e5b:	75 19                	jne    4e76 <iwrite.constprop.7+0x46>
4e5d:	e9 90 00 00 00       	jmp    4ef2 <iwrite.constprop.7+0xc2>
4e62:	66 0f 1f 44 00 00    	nop    WORD PTR [rax+rax*1+0x0]
4e68:	0f 84 ea 00 00 00    	je     4f58 <iwrite.constprop.7+0x128>
4e6e:	48 01 c3             	add    rbx,rax
4e71:	48 39 dd             	cmp    rbp,rbx
4e74:	76 6a                	jbe    4ee0 <iwrite.constprop.7+0xb0>
4e76:	e8 c5 fa ff ff       	call   4940 <process_signals>
4e7b:	44 8b 2d 0a c5 20 00 	mov    r13d,DWORD PTR [rip+0x20c50a]        # 21138c <conversions_mask>
4e82:	c6 05 0f c5 20 00 00 	mov    BYTE PTR [rip+0x20c50f],0x0        # 211398 <final_op_was_seek>
4e89:	41 f7 c5 00 00 01 00 	test   r13d,0x10000
4e90:	74 26                	je     4eb8 <iwrite.constprop.7+0x88>
4e92:	4c 89 e6             	mov    rsi,r12
4e95:	48 89 ea             	mov    rdx,rbp
4e98:	80 3e 00             	cmp    BYTE PTR [rsi],0x0
4e9b:	75 1b                	jne    4eb8 <iwrite.constprop.7+0x88>
4e9d:	48 83 c6 01          	add    rsi,0x1
4ea1:	48 83 ea 01          	sub    rdx,0x1
4ea5:	74 59                	je     4f00 <iwrite.constprop.7+0xd0>
4ea7:	f6 c2 0f             	test   dl,0xf
4eaa:	75 ec                	jne    4e98 <iwrite.constprop.7+0x68>
4eac:	4c 89 e7             	mov    rdi,r12
4eaf:	e8 dc cd ff ff       	call   1c90 <memcmp@plt>
4eb4:	85 c0                	test   eax,eax
4eb6:	74 48                	je     4f00 <iwrite.constprop.7+0xd0>
4eb8:	48 89 ea             	mov    rdx,rbp
4ebb:	49 8d 34 1c          	lea    rsi,[r12+rbx*1]
4ebf:	bf 01 00 00 00       	mov    edi,0x1
4ec4:	48 29 da             	sub    rdx,rbx
4ec7:	e8 54 cc ff ff       	call   1b20 <write@plt>
4ecc:	48 85 c0             	test   rax,rax
4ecf:	79 97                	jns    4e68 <iwrite.constprop.7+0x38>
4ed1:	e8 aa cb ff ff       	call   1a80 <__errno_location@plt>
4ed6:	83 38 04             	cmp    DWORD PTR [rax],0x4
4ed9:	74 96                	je     4e71 <iwrite.constprop.7+0x41>
4edb:	0f 1f 44 00 00       	nop    DWORD PTR [rax+rax*1+0x0]
4ee0:	80 3d 83 c3 20 00 00 	cmp    BYTE PTR [rip+0x20c383],0x0        # 21126a <o_nocache>
4ee7:	74 09                	je     4ef2 <iwrite.constprop.7+0xc2>
4ee9:	48 85 db             	test   rbx,rbx
4eec:	0f 85 7e 00 00 00    	jne    4f70 <iwrite.constprop.7+0x140>
4ef2:	48 83 c4 08          	add    rsp,0x8
4ef6:	48 89 d8             	mov    rax,rbx
4ef9:	5b                   	pop    rbx
4efa:	5d                   	pop    rbp
4efb:	41 5c                	pop    r12
4efd:	41 5d                	pop    r13
4eff:	c3                   	ret
4f00:	ba 01 00 00 00       	mov    edx,0x1
4f05:	48 89 ee             	mov    rsi,rbp
4f08:	bf 01 00 00 00       	mov    edi,0x1
4f0d:	e8 fe cc ff ff       	call   1c10 <lseek@plt>
4f12:	48 85 c0             	test   rax,rax
4f15:	78 29                	js     4f40 <iwrite.constprop.7+0x110>
4f17:	48 85 ed             	test   rbp,rbp
4f1a:	c6 05 77 c4 20 00 01 	mov    BYTE PTR [rip+0x20c477],0x1        # 211398 <final_op_was_seek>
4f21:	48 89 e8             	mov    rax,rbp
4f24:	0f 89 44 ff ff ff    	jns    4e6e <iwrite.constprop.7+0x3e>
4f2a:	e8 51 cb ff ff       	call   1a80 <__errno_location@plt>
4f2f:	83 38 04             	cmp    DWORD PTR [rax],0x4
4f32:	0f 84 39 ff ff ff    	je     4e71 <iwrite.constprop.7+0x41>
4f38:	eb a6                	jmp    4ee0 <iwrite.constprop.7+0xb0>
4f3a:	66 0f 1f 44 00 00    	nop    WORD PTR [rax+rax*1+0x0]
4f40:	41 81 e5 ff ff fe ff 	and    r13d,0xfffeffff
4f47:	44 89 2d 3e c4 20 00 	mov    DWORD PTR [rip+0x20c43e],r13d        # 21138c <conversions_mask>
4f4e:	e9 65 ff ff ff       	jmp    4eb8 <iwrite.constprop.7+0x88>
4f53:	0f 1f 44 00 00       	nop    DWORD PTR [rax+rax*1+0x0]
4f58:	e8 23 cb ff ff       	call   1a80 <__errno_location@plt>
4f5d:	c7 00 1c 00 00 00    	mov    DWORD PTR [rax],0x1c
4f63:	e9 78 ff ff ff       	jmp    4ee0 <iwrite.constprop.7+0xb0>
4f68:	0f 1f 84 00 00 00 00 	nop    DWORD PTR [rax+rax*1+0x0]
4f6f:	00
4f70:	48 89 de             	mov    rsi,rbx
4f73:	bf 01 00 00 00       	mov    edi,0x1
4f78:	e8 33 f6 ff ff       	call   45b0 <invalidate_cache>
4f7d:	48 83 c4 08          	add    rsp,0x8
4f81:	48 89 d8             	mov    rax,rbx
4f84:	5b                   	pop    rbx
4f85:	5d                   	pop    rbp
4f86:	41 5c                	pop    r12
4f88:	41 5d                	pop    r13
4f8a:	c3                   	ret
4f8b:	0f 1f 44 00 00       	nop    DWORD PTR [rax+rax*1+0x0]
4f90:	be 03 00 00 00       	mov    esi,0x3
4f95:	bf 01 00 00 00       	mov    edi,0x1
4f9a:	31 c0                	xor    eax,eax
4f9c:	e8 4f 4d 00 00       	call   9cf0 <rpl_fcntl>
4fa1:	80 e4 bf             	and    ah,0xbf
4fa4:	be 04 00 00 00       	mov    esi,0x4
4fa9:	bf 01 00 00 00       	mov    edi,0x1
4fae:	89 c2                	mov    edx,eax
4fb0:	31 c0                	xor    eax,eax
4fb2:	e8 39 4d 00 00       	call   9cf0 <rpl_fcntl>
4fb7:	85 c0                	test   eax,eax
4fb9:	74 09                	je     4fc4 <iwrite.constprop.7+0x194>
4fbb:	83 3d 5a c0 20 00 01 	cmp    DWORD PTR [rip+0x20c05a],0x1        # 21101c <status_level>
4fc2:	75 22                	jne    4fe6 <iwrite.constprop.7+0x1b6>
4fc4:	31 f6                	xor    esi,esi
4fc6:	bf 01 00 00 00       	mov    edi,0x1
4fcb:	c6 05 96 c2 20 00 01 	mov    BYTE PTR [rip+0x20c296],0x1        # 211268 <o_nocache_eof>
4fd2:	e8 d9 f5 ff ff       	call   45b0 <invalidate_cache>
4fd7:	81 0d ab c3 20 00 00 	or     DWORD PTR [rip+0x20c3ab],0x8000        # 21138c <conversions_mask>
4fde:	80 00 00
4fe1:	e9 70 fe ff ff       	jmp    4e56 <iwrite.constprop.7+0x26>
4fe6:	48 8b 15 f3 c3 20 00 	mov    rdx,QWORD PTR [rip+0x20c3f3]        # 2113e0 <output_file>
4fed:	31 ff                	xor    edi,edi
4fef:	be 03 00 00 00       	mov    esi,0x3
4ff4:	e8 e7 3a 00 00       	call   8ae0 <quotearg_n_style_colon>
4ff9:	48 8d 35 88 7b 00 00 	lea    rsi,[rip+0x7b88]        # cb88 <_IO_stdin_used+0x588>
5000:	31 ff                	xor    edi,edi
5002:	ba 05 00 00 00       	mov    edx,0x5
5007:	49 89 c5             	mov    r13,rax
500a:	e8 51 cb ff ff       	call   1b60 <dcgettext@plt>
500f:	48 89 c3             	mov    rbx,rax
5012:	e8 69 ca ff ff       	call   1a80 <__errno_location@plt>
5017:	8b 30                	mov    esi,DWORD PTR [rax]
5019:	4c 89 e9             	mov    rcx,r13
501c:	48 89 da             	mov    rdx,rbx
501f:	31 ff                	xor    edi,edi
5021:	31 c0                	xor    eax,eax
5023:	e8 18 f1 ff ff       	call   4140 <nl_error>
5028:	eb 9a                	jmp    4fc4 <iwrite.constprop.7+0x194>
502a:	66 0f 1f 44 00 00    	nop    WORD PTR [rax+rax*1+0x0]

0000000000005030 <usage>:
5030:	41 55                	push   r13
5032:	41 54                	push   r12
5034:	ba 05 00 00 00       	mov    edx,0x5
5039:	55                   	push   rbp
503a:	53                   	push   rbx
503b:	89 fd                	mov    ebp,edi
503d:	48 81 ec 88 00 00 00 	sub    rsp,0x88
5044:	48 8b 1d b5 c3 20 00 	mov    rbx,QWORD PTR [rip+0x20c3b5]        # 211400 <program_name>
504b:	64 48 8b 04 25 28 00 	mov    rax,QWORD PTR fs:0x28
5052:	00 00
5054:	48 89 44 24 78       	mov    QWORD PTR [rsp+0x78],rax
5059:	31 c0                	xor    eax,eax
505b:	85 ff                	test   edi,edi
505d:	74 2e                	je     508d <usage+0x5d>
505f:	48 8d 35 42 7b 00 00 	lea    rsi,[rip+0x7b42]        # cba8 <_IO_stdin_used+0x5a8>
5066:	31 ff                	xor    edi,edi
5068:	e8 f3 ca ff ff       	call   1b60 <dcgettext@plt>
506d:	48 8b 3d 8c c0 20 00 	mov    rdi,QWORD PTR [rip+0x20c08c]        # 211100 <stderr@@GLIBC_2.2.5>
5074:	48 89 c2             	mov    rdx,rax
5077:	48 89 d9             	mov    rcx,rbx
507a:	be 01 00 00 00       	mov    esi,0x1
507f:	31 c0                	xor    eax,eax
5081:	e8 aa cd ff ff       	call   1e30 <__fprintf_chk@plt>
5086:	89 ef                	mov    edi,ebp
5088:	e8 83 cd ff ff       	call   1e10 <exit@plt>
508d:	48 8d 35 3c 7b 00 00 	lea    rsi,[rip+0x7b3c]        # cbd0 <_IO_stdin_used+0x5d0>
5094:	31 ff                	xor    edi,edi
5096:	e8 c5 ca ff ff       	call   1b60 <dcgettext@plt>
509b:	48 89 d9             	mov    rcx,rbx
509e:	48 89 da             	mov    rdx,rbx
50a1:	48 89 c6             	mov    rsi,rax
50a4:	bf 01 00 00 00       	mov    edi,0x1
50a9:	31 c0                	xor    eax,eax
50ab:	e8 c0 cc ff ff       	call   1d70 <__printf_chk@plt>
50b0:	48 8b 1d 11 c0 20 00 	mov    rbx,QWORD PTR [rip+0x20c011]        # 2110c8 <stdout@@GLIBC_2.2.5>
50b7:	48 8d 35 42 7b 00 00 	lea    rsi,[rip+0x7b42]        # cc00 <_IO_stdin_used+0x600>
50be:	ba 05 00 00 00       	mov    edx,0x5
50c3:	31 ff                	xor    edi,edi
50c5:	e8 96 ca ff ff       	call   1b60 <dcgettext@plt>
50ca:	48 89 de             	mov    rsi,rbx
50cd:	48 89 c7             	mov    rdi,rax
50d0:	e8 cb cb ff ff       	call   1ca0 <fputs_unlocked@plt>
50d5:	48 8b 1d ec bf 20 00 	mov    rbx,QWORD PTR [rip+0x20bfec]        # 2110c8 <stdout@@GLIBC_2.2.5>
50dc:	48 8d 35 bd 7c 00 00 	lea    rsi,[rip+0x7cbd]        # cda0 <_IO_stdin_used+0x7a0>
50e3:	ba 05 00 00 00       	mov    edx,0x5
50e8:	31 ff                	xor    edi,edi
50ea:	e8 71 ca ff ff       	call   1b60 <dcgettext@plt>
50ef:	48 89 de             	mov    rsi,rbx
50f2:	48 89 c7             	mov    rdi,rax
50f5:	e8 a6 cb ff ff       	call   1ca0 <fputs_unlocked@plt>
50fa:	48 8b 1d c7 bf 20 00 	mov    rbx,QWORD PTR [rip+0x20bfc7]        # 2110c8 <stdout@@GLIBC_2.2.5>
5101:	48 8d 35 38 7f 00 00 	lea    rsi,[rip+0x7f38]        # d040 <_IO_stdin_used+0xa40>
5108:	ba 05 00 00 00       	mov    edx,0x5
510d:	31 ff                	xor    edi,edi
510f:	e8 4c ca ff ff       	call   1b60 <dcgettext@plt>
5114:	48 89 de             	mov    rsi,rbx
5117:	48 89 c7             	mov    rdi,rax
511a:	e8 81 cb ff ff       	call   1ca0 <fputs_unlocked@plt>
511f:	48 8b 1d a2 bf 20 00 	mov    rbx,QWORD PTR [rip+0x20bfa2]        # 2110c8 <stdout@@GLIBC_2.2.5>
5126:	48 8d 35 3b 80 00 00 	lea    rsi,[rip+0x803b]        # d168 <_IO_stdin_used+0xb68>
512d:	ba 05 00 00 00       	mov    edx,0x5
5132:	31 ff                	xor    edi,edi
5134:	e8 27 ca ff ff       	call   1b60 <dcgettext@plt>
5139:	48 89 de             	mov    rsi,rbx
513c:	48 89 c7             	mov    rdi,rax
513f:	e8 5c cb ff ff       	call   1ca0 <fputs_unlocked@plt>
5144:	48 8b 1d 7d bf 20 00 	mov    rbx,QWORD PTR [rip+0x20bf7d]        # 2110c8 <stdout@@GLIBC_2.2.5>
514b:	48 8d 35 66 82 00 00 	lea    rsi,[rip+0x8266]        # d3b8 <_IO_stdin_used+0xdb8>
5152:	ba 05 00 00 00       	mov    edx,0x5
5157:	31 ff                	xor    edi,edi
5159:	e8 02 ca ff ff       	call   1b60 <dcgettext@plt>
515e:	48 89 de             	mov    rsi,rbx
5161:	48 89 c7             	mov    rdi,rax
5164:	e8 37 cb ff ff       	call   1ca0 <fputs_unlocked@plt>
5169:	48 8b 1d 58 bf 20 00 	mov    rbx,QWORD PTR [rip+0x20bf58]        # 2110c8 <stdout@@GLIBC_2.2.5>
5170:	48 8d 35 61 83 00 00 	lea    rsi,[rip+0x8361]        # d4d8 <_IO_stdin_used+0xed8>
5177:	ba 05 00 00 00       	mov    edx,0x5
517c:	31 ff                	xor    edi,edi
517e:	e8 dd c9 ff ff       	call   1b60 <dcgettext@plt>
5183:	48 89 de             	mov    rsi,rbx
5186:	48 89 c7             	mov    rdi,rax
5189:	e8 12 cb ff ff       	call   1ca0 <fputs_unlocked@plt>
518e:	48 8b 1d 33 bf 20 00 	mov    rbx,QWORD PTR [rip+0x20bf33]        # 2110c8 <stdout@@GLIBC_2.2.5>
5195:	48 8d 35 ac 83 00 00 	lea    rsi,[rip+0x83ac]        # d548 <_IO_stdin_used+0xf48>
519c:	ba 05 00 00 00       	mov    edx,0x5
51a1:	31 ff                	xor    edi,edi
51a3:	e8 b8 c9 ff ff       	call   1b60 <dcgettext@plt>
51a8:	48 89 de             	mov    rsi,rbx
51ab:	48 89 c7             	mov    rdi,rax
51ae:	e8 ed ca ff ff       	call   1ca0 <fputs_unlocked@plt>
51b3:	48 8b 1d 0e bf 20 00 	mov    rbx,QWORD PTR [rip+0x20bf0e]        # 2110c8 <stdout@@GLIBC_2.2.5>
51ba:	48 8d 35 af 83 00 00 	lea    rsi,[rip+0x83af]        # d570 <_IO_stdin_used+0xf70>
51c1:	ba 05 00 00 00       	mov    edx,0x5
51c6:	31 ff                	xor    edi,edi
51c8:	e8 93 c9 ff ff       	call   1b60 <dcgettext@plt>
51cd:	48 89 de             	mov    rsi,rbx
51d0:	48 89 c7             	mov    rdi,rax
51d3:	e8 c8 ca ff ff       	call   1ca0 <fputs_unlocked@plt>
51d8:	48 8b 1d e9 be 20 00 	mov    rbx,QWORD PTR [rip+0x20bee9]        # 2110c8 <stdout@@GLIBC_2.2.5>
51df:	48 8d 35 b2 83 00 00 	lea    rsi,[rip+0x83b2]        # d598 <_IO_stdin_used+0xf98>
51e6:	ba 05 00 00 00       	mov    edx,0x5
51eb:	31 ff                	xor    edi,edi
51ed:	e8 6e c9 ff ff       	call   1b60 <dcgettext@plt>
51f2:	48 89 de             	mov    rsi,rbx
51f5:	48 89 c7             	mov    rdi,rax
51f8:	e8 a3 ca ff ff       	call   1ca0 <fputs_unlocked@plt>
51fd:	48 8b 1d c4 be 20 00 	mov    rbx,QWORD PTR [rip+0x20bec4]        # 2110c8 <stdout@@GLIBC_2.2.5>
5204:	48 8d 35 bd 83 00 00 	lea    rsi,[rip+0x83bd]        # d5c8 <_IO_stdin_used+0xfc8>
520b:	ba 05 00 00 00       	mov    edx,0x5
5210:	31 ff                	xor    edi,edi
5212:	e8 49 c9 ff ff       	call   1b60 <dcgettext@plt>
5217:	48 89 de             	mov    rsi,rbx
521a:	48 89 c7             	mov    rdi,rax
521d:	e8 7e ca ff ff       	call   1ca0 <fputs_unlocked@plt>
5222:	48 8b 1d 9f be 20 00 	mov    rbx,QWORD PTR [rip+0x20be9f]        # 2110c8 <stdout@@GLIBC_2.2.5>
5229:	48 8d 35 c8 83 00 00 	lea    rsi,[rip+0x83c8]        # d5f8 <_IO_stdin_used+0xff8>
5230:	ba 05 00 00 00       	mov    edx,0x5
5235:	31 ff                	xor    edi,edi
5237:	e8 24 c9 ff ff       	call   1b60 <dcgettext@plt>
523c:	48 89 de             	mov    rsi,rbx
523f:	48 89 c7             	mov    rdi,rax
5242:	e8 59 ca ff ff       	call   1ca0 <fputs_unlocked@plt>
5247:	48 8b 1d 7a be 20 00 	mov    rbx,QWORD PTR [rip+0x20be7a]        # 2110c8 <stdout@@GLIBC_2.2.5>
524e:	48 8d 35 e3 83 00 00 	lea    rsi,[rip+0x83e3]        # d638 <_IO_stdin_used+0x1038>
5255:	ba 05 00 00 00       	mov    edx,0x5
525a:	31 ff                	xor    edi,edi
525c:	e8 ff c8 ff ff       	call   1b60 <dcgettext@plt>
5261:	48 89 de             	mov    rsi,rbx
5264:	48 89 c7             	mov    rdi,rax
5267:	e8 34 ca ff ff       	call   1ca0 <fputs_unlocked@plt>
526c:	48 8b 1d 55 be 20 00 	mov    rbx,QWORD PTR [rip+0x20be55]        # 2110c8 <stdout@@GLIBC_2.2.5>
5273:	48 8d 35 e6 83 00 00 	lea    rsi,[rip+0x83e6]        # d660 <_IO_stdin_used+0x1060>
527a:	ba 05 00 00 00       	mov    edx,0x5
527f:	31 ff                	xor    edi,edi
5281:	e8 da c8 ff ff       	call   1b60 <dcgettext@plt>
5286:	48 89 de             	mov    rsi,rbx
5289:	48 89 c7             	mov    rdi,rax
528c:	e8 0f ca ff ff       	call   1ca0 <fputs_unlocked@plt>
5291:	48 8b 1d 30 be 20 00 	mov    rbx,QWORD PTR [rip+0x20be30]        # 2110c8 <stdout@@GLIBC_2.2.5>
5298:	48 8d 35 e9 83 00 00 	lea    rsi,[rip+0x83e9]        # d688 <_IO_stdin_used+0x1088>
529f:	ba 05 00 00 00       	mov    edx,0x5
52a4:	31 ff                	xor    edi,edi
52a6:	e8 b5 c8 ff ff       	call   1b60 <dcgettext@plt>
52ab:	48 89 de             	mov    rsi,rbx
52ae:	48 89 c7             	mov    rdi,rax
52b1:	e8 ea c9 ff ff       	call   1ca0 <fputs_unlocked@plt>
52b6:	48 8b 1d 0b be 20 00 	mov    rbx,QWORD PTR [rip+0x20be0b]        # 2110c8 <stdout@@GLIBC_2.2.5>
52bd:	48 8d 35 04 84 00 00 	lea    rsi,[rip+0x8404]        # d6c8 <_IO_stdin_used+0x10c8>
52c4:	ba 05 00 00 00       	mov    edx,0x5
52c9:	31 ff                	xor    edi,edi
52cb:	e8 90 c8 ff ff       	call   1b60 <dcgettext@plt>
52d0:	48 89 de             	mov    rsi,rbx
52d3:	48 89 c7             	mov    rdi,rax
52d6:	e8 c5 c9 ff ff       	call   1ca0 <fputs_unlocked@plt>
52db:	48 8b 1d e6 bd 20 00 	mov    rbx,QWORD PTR [rip+0x20bde6]        # 2110c8 <stdout@@GLIBC_2.2.5>
52e2:	48 8d 35 1f 84 00 00 	lea    rsi,[rip+0x841f]        # d708 <_IO_stdin_used+0x1108>
52e9:	ba 05 00 00 00       	mov    edx,0x5
52ee:	31 ff                	xor    edi,edi
52f0:	e8 6b c8 ff ff       	call   1b60 <dcgettext@plt>
52f5:	48 89 de             	mov    rsi,rbx
52f8:	48 89 c7             	mov    rdi,rax
52fb:	e8 a0 c9 ff ff       	call   1ca0 <fputs_unlocked@plt>
5300:	48 8b 1d c1 bd 20 00 	mov    rbx,QWORD PTR [rip+0x20bdc1]        # 2110c8 <stdout@@GLIBC_2.2.5>
5307:	48 8d 35 22 84 00 00 	lea    rsi,[rip+0x8422]        # d730 <_IO_stdin_used+0x1130>
530e:	ba 05 00 00 00       	mov    edx,0x5
5313:	31 ff                	xor    edi,edi
5315:	e8 46 c8 ff ff       	call   1b60 <dcgettext@plt>
531a:	48 89 de             	mov    rsi,rbx
531d:	48 89 c7             	mov    rdi,rax
5320:	e8 7b c9 ff ff       	call   1ca0 <fputs_unlocked@plt>
5325:	48 8b 1d 9c bd 20 00 	mov    rbx,QWORD PTR [rip+0x20bd9c]        # 2110c8 <stdout@@GLIBC_2.2.5>
532c:	48 8d 35 3d 84 00 00 	lea    rsi,[rip+0x843d]        # d770 <_IO_stdin_used+0x1170>
5333:	ba 05 00 00 00       	mov    edx,0x5
5338:	31 ff                	xor    edi,edi
533a:	e8 21 c8 ff ff       	call   1b60 <dcgettext@plt>
533f:	48 89 de             	mov    rsi,rbx
5342:	48 89 c7             	mov    rdi,rax
5345:	e8 56 c9 ff ff       	call   1ca0 <fputs_unlocked@plt>
534a:	48 8b 1d 77 bd 20 00 	mov    rbx,QWORD PTR [rip+0x20bd77]        # 2110c8 <stdout@@GLIBC_2.2.5>
5351:	48 8d 35 58 84 00 00 	lea    rsi,[rip+0x8458]        # d7b0 <_IO_stdin_used+0x11b0>
5358:	ba 05 00 00 00       	mov    edx,0x5
535d:	31 ff                	xor    edi,edi
535f:	e8 fc c7 ff ff       	call   1b60 <dcgettext@plt>
5364:	48 89 de             	mov    rsi,rbx
5367:	48 89 c7             	mov    rdi,rax
536a:	e8 31 c9 ff ff       	call   1ca0 <fputs_unlocked@plt>
536f:	48 8d 35 7a 84 00 00 	lea    rsi,[rip+0x847a]        # d7f0 <_IO_stdin_used+0x11f0>
5376:	31 ff                	xor    edi,edi
5378:	ba 05 00 00 00       	mov    edx,0x5
537d:	e8 de c7 ff ff       	call   1b60 <dcgettext@plt>
5382:	48 8d 15 6e 73 00 00 	lea    rdx,[rip+0x736e]        # c6f7 <_IO_stdin_used+0xf7>
5389:	48 89 c6             	mov    rsi,rax
538c:	bf 01 00 00 00       	mov    edi,0x1
5391:	31 c0                	xor    eax,eax
5393:	e8 d8 c9 ff ff       	call   1d70 <__printf_chk@plt>
5398:	48 8b 1d 29 bd 20 00 	mov    rbx,QWORD PTR [rip+0x20bd29]        # 2110c8 <stdout@@GLIBC_2.2.5>
539f:	48 8d 35 d2 84 00 00 	lea    rsi,[rip+0x84d2]        # d878 <_IO_stdin_used+0x1278>
53a6:	ba 05 00 00 00       	mov    edx,0x5
53ab:	31 ff                	xor    edi,edi
53ad:	e8 ae c7 ff ff       	call   1b60 <dcgettext@plt>
53b2:	48 89 de             	mov    rsi,rbx
53b5:	48 89 c7             	mov    rdi,rax
53b8:	e8 e3 c8 ff ff       	call   1ca0 <fputs_unlocked@plt>
53bd:	48 8b 1d 04 bd 20 00 	mov    rbx,QWORD PTR [rip+0x20bd04]        # 2110c8 <stdout@@GLIBC_2.2.5>
53c4:	48 8d 35 dd 84 00 00 	lea    rsi,[rip+0x84dd]        # d8a8 <_IO_stdin_used+0x12a8>
53cb:	ba 05 00 00 00       	mov    edx,0x5
53d0:	31 ff                	xor    edi,edi
53d2:	e8 89 c7 ff ff       	call   1b60 <dcgettext@plt>
53d7:	48 89 de             	mov    rsi,rbx
53da:	48 89 c7             	mov    rdi,rax
53dd:	48 8d 1d 10 73 00 00 	lea    rbx,[rip+0x7310]        # c6f4 <_IO_stdin_used+0xf4>
53e4:	e8 b7 c8 ff ff       	call   1ca0 <fputs_unlocked@plt>
53e9:	48 8d 05 0c 73 00 00 	lea    rax,[rip+0x730c]        # c6fc <_IO_stdin_used+0xfc>
53f0:	48 8d 0d 46 73 00 00 	lea    rcx,[rip+0x7346]        # c73d <_IO_stdin_used+0x13d>
53f7:	48 c7 44 24 60 00 00 	mov    QWORD PTR [rsp+0x60],0x0
53fe:	00 00
5400:	48 c7 44 24 68 00 00 	mov    QWORD PTR [rsp+0x68],0x0
5407:	00 00
5409:	48 89 e2             	mov    rdx,rsp
540c:	48 89 04 24          	mov    QWORD PTR [rsp],rax
5410:	48 8d 05 e7 72 00 00 	lea    rax,[rip+0x72e7]        # c6fe <_IO_stdin_used+0xfe>
5417:	48 89 4c 24 30       	mov    QWORD PTR [rsp+0x30],rcx
541c:	48 8d 0d 24 73 00 00 	lea    rcx,[rip+0x7324]        # c747 <_IO_stdin_used+0x147>
5423:	48 89 44 24 08       	mov    QWORD PTR [rsp+0x8],rax
5428:	48 8d 05 47 73 00 00 	lea    rax,[rip+0x7347]        # c776 <_IO_stdin_used+0x176>
542f:	48 89 4c 24 40       	mov    QWORD PTR [rsp+0x40],rcx
5434:	48 8d 0d 16 73 00 00 	lea    rcx,[rip+0x7316]        # c751 <_IO_stdin_used+0x151>
543b:	48 89 44 24 10       	mov    QWORD PTR [rsp+0x10],rax
5440:	48 8d 05 c7 72 00 00 	lea    rax,[rip+0x72c7]        # c70e <_IO_stdin_used+0x10e>
5447:	48 89 4c 24 50       	mov    QWORD PTR [rsp+0x50],rcx
544c:	48 89 44 24 18       	mov    QWORD PTR [rsp+0x18],rax
5451:	48 8d 05 cc 72 00 00 	lea    rax,[rip+0x72cc]        # c724 <_IO_stdin_used+0x124>
5458:	48 89 44 24 20       	mov    QWORD PTR [rsp+0x20],rax
545d:	48 8d 05 ca 72 00 00 	lea    rax,[rip+0x72ca]        # c72e <_IO_stdin_used+0x12e>
5464:	48 89 44 24 28       	mov    QWORD PTR [rsp+0x28],rax
5469:	48 89 44 24 38       	mov    QWORD PTR [rsp+0x38],rax
546e:	48 89 44 24 48       	mov    QWORD PTR [rsp+0x48],rax
5473:	48 89 44 24 58       	mov    QWORD PTR [rsp+0x58],rax
5478:	0f 1f 84 00 00 00 00 	nop    DWORD PTR [rax+rax*1+0x0]
547f:	00
5480:	48 83 c2 10          	add    rdx,0x10
5484:	48 8b 3a             	mov    rdi,QWORD PTR [rdx]
5487:	48 85 ff             	test   rdi,rdi
548a:	74 13                	je     549f <usage+0x46f>
548c:	b9 03 00 00 00       	mov    ecx,0x3
5491:	48 89 de             	mov    rsi,rbx
5494:	f3 a6                	repz cmps BYTE PTR ds:[rsi],BYTE PTR es:[rdi]
5496:	0f 97 c0             	seta   al
5499:	1c 00                	sbb    al,0x0
549b:	84 c0                	test   al,al
549d:	75 e1                	jne    5480 <usage+0x450>
549f:	4c 8b 62 08          	mov    r12,QWORD PTR [rdx+0x8]
54a3:	31 ff                	xor    edi,edi
54a5:	ba 05 00 00 00       	mov    edx,0x5
54aa:	48 8d 35 aa 72 00 00 	lea    rsi,[rip+0x72aa]        # c75b <_IO_stdin_used+0x15b>
54b1:	4d 85 e4             	test   r12,r12
54b4:	0f 84 c1 00 00 00    	je     557b <usage+0x54b>
54ba:	e8 a1 c6 ff ff       	call   1b60 <dcgettext@plt>
54bf:	48 8d 0d 1a 84 00 00 	lea    rcx,[rip+0x841a]        # d8e0 <_IO_stdin_used+0x12e0>
54c6:	48 8d 15 a5 72 00 00 	lea    rdx,[rip+0x72a5]        # c772 <_IO_stdin_used+0x172>
54cd:	48 89 c6             	mov    rsi,rax
54d0:	bf 01 00 00 00       	mov    edi,0x1
54d5:	31 c0                	xor    eax,eax
54d7:	e8 94 c8 ff ff       	call   1d70 <__printf_chk@plt>
54dc:	31 f6                	xor    esi,esi
54de:	bf 05 00 00 00       	mov    edi,0x5
54e3:	e8 78 c8 ff ff       	call   1d60 <setlocale@plt>
54e8:	48 85 c0             	test   rax,rax
54eb:	74 1c                	je     5509 <usage+0x4d9>
54ed:	48 8d 35 8c 72 00 00 	lea    rsi,[rip+0x728c]        # c780 <_IO_stdin_used+0x180>
54f4:	ba 03 00 00 00       	mov    edx,0x3
54f9:	48 89 c7             	mov    rdi,rax
54fc:	e8 af c5 ff ff       	call   1ab0 <strncmp@plt>
5501:	85 c0                	test   eax,eax
5503:	0f 85 07 01 00 00    	jne    5610 <usage+0x5e0>
5509:	48 8d 35 74 72 00 00 	lea    rsi,[rip+0x7274]        # c784 <_IO_stdin_used+0x184>
5510:	31 ff                	xor    edi,edi
5512:	ba 05 00 00 00       	mov    edx,0x5
5517:	e8 44 c6 ff ff       	call   1b60 <dcgettext@plt>
551c:	48 8d 0d d1 71 00 00 	lea    rcx,[rip+0x71d1]        # c6f4 <_IO_stdin_used+0xf4>
5523:	48 8d 15 b6 83 00 00 	lea    rdx,[rip+0x83b6]        # d8e0 <_IO_stdin_used+0x12e0>
552a:	48 89 c6             	mov    rsi,rax
552d:	bf 01 00 00 00       	mov    edi,0x1
5532:	31 c0                	xor    eax,eax
5534:	e8 37 c8 ff ff       	call   1d70 <__printf_chk@plt>
5539:	49 39 dc             	cmp    r12,rbx
553c:	48 8d 0d d5 71 00 00 	lea    rcx,[rip+0x71d5]        # c718 <_IO_stdin_used+0x118>
5543:	48 8d 1d 57 92 00 00 	lea    rbx,[rip+0x9257]        # e7a1 <quoting_style_vals+0xa1>
554a:	48 0f 44 d9          	cmove  rbx,rcx
554e:	48 8d 35 fb 83 00 00 	lea    rsi,[rip+0x83fb]        # d950 <_IO_stdin_used+0x1350>
5555:	31 ff                	xor    edi,edi
5557:	ba 05 00 00 00       	mov    edx,0x5
555c:	e8 ff c5 ff ff       	call   1b60 <dcgettext@plt>
5561:	48 89 d9             	mov    rcx,rbx
5564:	48 89 c6             	mov    rsi,rax
5567:	4c 89 e2             	mov    rdx,r12
556a:	bf 01 00 00 00       	mov    edi,0x1
556f:	31 c0                	xor    eax,eax
5571:	e8 fa c7 ff ff       	call   1d70 <__printf_chk@plt>
5576:	e9 0b fb ff ff       	jmp    5086 <usage+0x56>
557b:	e8 e0 c5 ff ff       	call   1b60 <dcgettext@plt>
5580:	48 8d 0d 59 83 00 00 	lea    rcx,[rip+0x8359]        # d8e0 <_IO_stdin_used+0x12e0>
5587:	48 8d 15 e4 71 00 00 	lea    rdx,[rip+0x71e4]        # c772 <_IO_stdin_used+0x172>
558e:	48 89 c6             	mov    rsi,rax
5591:	bf 01 00 00 00       	mov    edi,0x1
5596:	31 c0                	xor    eax,eax
5598:	e8 d3 c7 ff ff       	call   1d70 <__printf_chk@plt>
559d:	31 f6                	xor    esi,esi
559f:	bf 05 00 00 00       	mov    edi,0x5
55a4:	e8 b7 c7 ff ff       	call   1d60 <setlocale@plt>
55a9:	48 85 c0             	test   rax,rax
55ac:	74 18                	je     55c6 <usage+0x596>
55ae:	48 8d 35 cb 71 00 00 	lea    rsi,[rip+0x71cb]        # c780 <_IO_stdin_used+0x180>
55b5:	ba 03 00 00 00       	mov    edx,0x3
55ba:	48 89 c7             	mov    rdi,rax
55bd:	e8 ee c4 ff ff       	call   1ab0 <strncmp@plt>
55c2:	85 c0                	test   eax,eax
55c4:	75 43                	jne    5609 <usage+0x5d9>
55c6:	48 8d 35 b7 71 00 00 	lea    rsi,[rip+0x71b7]        # c784 <_IO_stdin_used+0x184>
55cd:	ba 05 00 00 00       	mov    edx,0x5
55d2:	31 ff                	xor    edi,edi
55d4:	4c 8d 25 19 71 00 00 	lea    r12,[rip+0x7119]        # c6f4 <_IO_stdin_used+0xf4>
55db:	48 8d 1d 36 71 00 00 	lea    rbx,[rip+0x7136]        # c718 <_IO_stdin_used+0x118>
55e2:	e8 79 c5 ff ff       	call   1b60 <dcgettext@plt>
55e7:	48 8d 0d 06 71 00 00 	lea    rcx,[rip+0x7106]        # c6f4 <_IO_stdin_used+0xf4>
55ee:	48 8d 15 eb 82 00 00 	lea    rdx,[rip+0x82eb]        # d8e0 <_IO_stdin_used+0x12e0>
55f5:	48 89 c6             	mov    rsi,rax
55f8:	bf 01 00 00 00       	mov    edi,0x1
55fd:	31 c0                	xor    eax,eax
55ff:	e8 6c c7 ff ff       	call   1d70 <__printf_chk@plt>
5604:	e9 45 ff ff ff       	jmp    554e <usage+0x51e>
5609:	4c 8d 25 e4 70 00 00 	lea    r12,[rip+0x70e4]        # c6f4 <_IO_stdin_used+0xf4>
5610:	4c 8b 2d b1 ba 20 00 	mov    r13,QWORD PTR [rip+0x20bab1]        # 2110c8 <stdout@@GLIBC_2.2.5>
5617:	48 8d 35 ea 82 00 00 	lea    rsi,[rip+0x82ea]        # d908 <_IO_stdin_used+0x1308>
561e:	31 ff                	xor    edi,edi
5620:	ba 05 00 00 00       	mov    edx,0x5
5625:	e8 36 c5 ff ff       	call   1b60 <dcgettext@plt>
562a:	4c 89 ee             	mov    rsi,r13
562d:	48 89 c7             	mov    rdi,rax
5630:	e8 6b c6 ff ff       	call   1ca0 <fputs_unlocked@plt>
5635:	e9 cf fe ff ff       	jmp    5509 <usage+0x4d9>
563a:	66 0f 1f 44 00 00    	nop    WORD PTR [rax+rax*1+0x0]

0000000000005640 <parse_symbols>:
5640:	41 56                	push   r14
5642:	49 89 fe             	mov    r14,rdi
5645:	41 55                	push   r13
5647:	49 89 cd             	mov    r13,rcx
564a:	41 54                	push   r12
564c:	49 89 f4             	mov    r12,rsi
564f:	55                   	push   rbp
5650:	89 d5                	mov    ebp,edx
5652:	53                   	push   rbx
5653:	31 db                	xor    ebx,ebx
5655:	be 2c 00 00 00       	mov    esi,0x2c
565a:	4c 89 f7             	mov    rdi,r14
565d:	e8 6e c5 ff ff       	call   1bd0 <strchr@plt>
5662:	4d 89 e0             	mov    r8,r12
5665:	0f 1f 00             	nop    DWORD PTR [rax]
5668:	4c 89 c1             	mov    rcx,r8
566b:	4c 89 f2             	mov    rdx,r14
566e:	eb 0d                	jmp    567d <parse_symbols+0x3d>
5670:	48 83 c2 01          	add    rdx,0x1
5674:	48 83 c1 01          	add    rcx,0x1
5678:	40 38 fe             	cmp    sil,dil
567b:	75 1e                	jne    569b <parse_symbols+0x5b>
567d:	0f b6 31             	movzx  esi,BYTE PTR [rcx]
5680:	0f b6 3a             	movzx  edi,BYTE PTR [rdx]
5683:	40 84 f6             	test   sil,sil
5686:	75 e8                	jne    5670 <parse_symbols+0x30>
5688:	40 80 ff 2c          	cmp    dil,0x2c
568c:	74 05                	je     5693 <parse_symbols+0x53>
568e:	40 84 ff             	test   dil,dil
5691:	75 08                	jne    569b <parse_symbols+0x5b>
5693:	41 8b 50 0c          	mov    edx,DWORD PTR [r8+0xc]
5697:	85 d2                	test   edx,edx
5699:	75 0c                	jne    56a7 <parse_symbols+0x67>
569b:	41 80 38 00          	cmp    BYTE PTR [r8],0x0
569f:	74 26                	je     56c7 <parse_symbols+0x87>
56a1:	49 83 c0 10          	add    r8,0x10
56a5:	eb c1                	jmp    5668 <parse_symbols+0x28>
56a7:	09 d3                	or     ebx,edx
56a9:	40 84 ed             	test   bpl,bpl
56ac:	0f 44 d3             	cmove  edx,ebx
56af:	48 85 c0             	test   rax,rax
56b2:	74 08                	je     56bc <parse_symbols+0x7c>
56b4:	4c 8d 70 01          	lea    r14,[rax+0x1]
56b8:	89 d3                	mov    ebx,edx
56ba:	eb 99                	jmp    5655 <parse_symbols+0x15>
56bc:	5b                   	pop    rbx
56bd:	89 d0                	mov    eax,edx
56bf:	5d                   	pop    rbp
56c0:	41 5c                	pop    r12
56c2:	41 5d                	pop    r13
56c4:	41 5e                	pop    r14
56c6:	c3                   	ret
56c7:	48 85 c0             	test   rax,rax
56ca:	74 49                	je     5715 <parse_symbols+0xd5>
56cc:	4c 29 f0             	sub    rax,r14
56cf:	48 89 c1             	mov    rcx,rax
56d2:	4c 89 f2             	mov    rdx,r14
56d5:	be 08 00 00 00       	mov    esi,0x8
56da:	31 ff                	xor    edi,edi
56dc:	e8 6f 32 00 00       	call   8950 <quotearg_n_style_mem>
56e1:	ba 05 00 00 00       	mov    edx,0x5
56e6:	4c 89 ee             	mov    rsi,r13
56e9:	31 ff                	xor    edi,edi
56eb:	48 89 c3             	mov    rbx,rax
56ee:	e8 6d c4 ff ff       	call   1b60 <dcgettext@plt>
56f3:	48 8d 15 a5 70 00 00 	lea    rdx,[rip+0x70a5]        # c79f <_IO_stdin_used+0x19f>
56fa:	48 89 c1             	mov    rcx,rax
56fd:	31 ff                	xor    edi,edi
56ff:	49 89 d8             	mov    r8,rbx
5702:	31 f6                	xor    esi,esi
5704:	31 c0                	xor    eax,eax
5706:	e8 35 ea ff ff       	call   4140 <nl_error>
570b:	bf 01 00 00 00       	mov    edi,0x1
5710:	e8 1b f9 ff ff       	call   5030 <usage>
5715:	31 c0                	xor    eax,eax
5717:	48 83 c9 ff          	or     rcx,0xffffffffffffffff
571b:	4c 89 f7             	mov    rdi,r14
571e:	f2 ae                	repnz scas al,BYTE PTR es:[rdi]
5720:	48 89 c8             	mov    rax,rcx
5723:	48 f7 d0             	not    rax
5726:	48 83 e8 01          	sub    rax,0x1
572a:	eb a3                	jmp    56cf <parse_symbols+0x8f>
572c:	0f 1f 40 00          	nop    DWORD PTR [rax+0x0]

0000000000005730 <skip>:
5730:	41 57                	push   r15
5732:	41 56                	push   r14
5734:	49 89 d6             	mov    r14,rdx
5737:	41 55                	push   r13
5739:	41 54                	push   r12
573b:	4d 89 c5             	mov    r13,r8
573e:	55                   	push   rbp
573f:	53                   	push   rbx
5740:	49 89 cc             	mov    r12,rcx
5743:	89 fb                	mov    ebx,edi
5745:	48 81 ec b8 00 00 00 	sub    rsp,0xb8
574c:	49 8b 28             	mov    rbp,QWORD PTR [r8]
574f:	64 48 8b 04 25 28 00 	mov    rax,QWORD PTR fs:0x28
5756:	00 00
5758:	48 89 84 24 a8 00 00 	mov    QWORD PTR [rsp+0xa8],rax
575f:	00
5760:	31 c0                	xor    eax,eax
5762:	48 89 34 24          	mov    QWORD PTR [rsp],rsi
5766:	e8 15 c3 ff ff       	call   1a80 <__errno_location@plt>
576b:	31 d2                	xor    edx,edx
576d:	49 89 c7             	mov    r15,rax
5770:	c7 00 00 00 00 00    	mov    DWORD PTR [rax],0x0
5776:	48 b8 ff ff ff ff ff 	movabs rax,0x7fffffffffffffff
577d:	ff ff 7f
5780:	49 f7 f4             	div    r12
5783:	4c 39 f0             	cmp    rax,r14
5786:	72 6b                	jb     57f3 <skip+0xc3>
5788:	4c 89 f0             	mov    rax,r14
578b:	48 8b 3c 24          	mov    rdi,QWORD PTR [rsp]
578f:	b9 01 00 00 00       	mov    ecx,0x1
5794:	49 0f af c4          	imul   rax,r12
5798:	89 de                	mov    esi,ebx
579a:	48 01 c5             	add    rbp,rax
579d:	48 89 ea             	mov    rdx,rbp
57a0:	e8 0b ed ff ff       	call   44b0 <skip_via_lseek>
57a5:	48 85 c0             	test   rax,rax
57a8:	0f 88 17 01 00 00    	js     58c5 <skip+0x195>
57ae:	85 db                	test   ebx,ebx
57b0:	0f 84 6c 01 00 00    	je     5922 <skip+0x1f2>
57b6:	66 2e 0f 1f 84 00 00 	nop    WORD PTR cs:[rax+rax*1+0x0]
57bd:	00 00 00
57c0:	49 c7 45 00 00 00 00 	mov    QWORD PTR [r13+0x0],0x0
57c7:	00
57c8:	31 c0                	xor    eax,eax
57ca:	48 8b 8c 24 a8 00 00 	mov    rcx,QWORD PTR [rsp+0xa8]
57d1:	00
57d2:	64 48 33 0c 25 28 00 	xor    rcx,QWORD PTR fs:0x28
57d9:	00 00
57db:	0f 85 5f 02 00 00    	jne    5a40 <skip+0x310>
57e1:	48 81 c4 b8 00 00 00 	add    rsp,0xb8
57e8:	5b                   	pop    rbx
57e9:	5d                   	pop    rbp
57ea:	41 5c                	pop    r12
57ec:	41 5d                	pop    r13
57ee:	41 5e                	pop    r14
57f0:	41 5f                	pop    r15
57f2:	c3                   	ret
57f3:	48 8b 3c 24          	mov    rdi,QWORD PTR [rsp]
57f7:	31 d2                	xor    edx,edx
57f9:	b9 02 00 00 00       	mov    ecx,0x2
57fe:	89 de                	mov    esi,ebx
5800:	e8 ab ec ff ff       	call   44b0 <skip_via_lseek>
5805:	48 85 c0             	test   rax,rax
5808:	0f 89 e0 00 00 00    	jns    58ee <skip+0x1be>
580e:	c7 44 24 0c 00 00 00 	mov    DWORD PTR [rsp+0xc],0x0
5815:	00
5816:	85 db                	test   ebx,ebx
5818:	75 7f                	jne    5899 <skip+0x169>
581a:	48 83 3d f6 ba 20 00 	cmp    QWORD PTR [rip+0x20baf6],0x0        # 211318 <ibuf>
5821:	00
5822:	0f 84 59 01 00 00    	je     5981 <skip+0x251>
5828:	48 8b 2d e9 ba 20 00 	mov    rbp,QWORD PTR [rip+0x20bae9]        # 211318 <ibuf>
582f:	90                   	nop
5830:	4d 85 f6             	test   r14,r14
5833:	48 8b 05 26 ba 20 00 	mov    rax,QWORD PTR [rip+0x20ba26]        # 211260 <iread_fnc>
583a:	4c 89 e2             	mov    rdx,r12
583d:	74 71                	je     58b0 <skip+0x180>
583f:	48 89 ee             	mov    rsi,rbp
5842:	89 df                	mov    edi,ebx
5844:	ff d0                	call   rax
5846:	48 85 c0             	test   rax,rax
5849:	0f 88 4f 01 00 00    	js     599e <skip+0x26e>
584f:	74 6c                	je     58bd <skip+0x18d>
5851:	85 db                	test   ebx,ebx
5853:	75 1f                	jne    5874 <skip+0x144>
5855:	31 d2                	xor    edx,edx
5857:	48 03 05 d2 ba 20 00 	add    rax,QWORD PTR [rip+0x20bad2]        # 211330 <input_offset>
585e:	0f 92 c2             	setb   dl
5861:	48 89 05 c8 ba 20 00 	mov    QWORD PTR [rip+0x20bac8],rax        # 211330 <input_offset>
5868:	48 85 d2             	test   rdx,rdx
586b:	74 07                	je     5874 <skip+0x144>
586d:	c6 05 b5 ba 20 00 01 	mov    BYTE PTR [rip+0x20bab5],0x1        # 211329 <input_offset_overflow>
5874:	4d 85 f6             	test   r14,r14
5877:	0f 84 43 ff ff ff    	je     57c0 <skip+0x90>
587d:	49 83 ee 01          	sub    r14,0x1
5881:	75 ad                	jne    5830 <skip+0x100>
5883:	49 8b 55 00          	mov    rdx,QWORD PTR [r13+0x0]
5887:	48 85 d2             	test   rdx,rdx
588a:	0f 84 a9 01 00 00    	je     5a39 <skip+0x309>
5890:	48 8b 05 c9 b9 20 00 	mov    rax,QWORD PTR [rip+0x20b9c9]        # 211260 <iread_fnc>
5897:	eb 1f                	jmp    58b8 <skip+0x188>
5899:	e8 02 f5 ff ff       	call   4da0 <alloc_obuf>
589e:	48 8b 2d 6b ba 20 00 	mov    rbp,QWORD PTR [rip+0x20ba6b]        # 211310 <obuf>
58a5:	eb 89                	jmp    5830 <skip+0x100>
58a7:	66 0f 1f 84 00 00 00 	nop    WORD PTR [rax+rax*1+0x0]
58ae:	00 00
58b0:	49 8b 55 00          	mov    rdx,QWORD PTR [r13+0x0]
58b4:	0f 1f 40 00          	nop    DWORD PTR [rax+0x0]
58b8:	45 31 f6             	xor    r14d,r14d
58bb:	eb 82                	jmp    583f <skip+0x10f>
58bd:	4c 89 f0             	mov    rax,r14
58c0:	e9 05 ff ff ff       	jmp    57ca <skip+0x9a>
58c5:	41 8b 07             	mov    eax,DWORD PTR [r15]
58c8:	48 8b 3c 24          	mov    rdi,QWORD PTR [rsp]
58cc:	31 d2                	xor    edx,edx
58ce:	b9 02 00 00 00       	mov    ecx,0x2
58d3:	89 de                	mov    esi,ebx
58d5:	89 44 24 0c          	mov    DWORD PTR [rsp+0xc],eax
58d9:	e8 d2 eb ff ff       	call   44b0 <skip_via_lseek>
58de:	48 85 c0             	test   rax,rax
58e1:	0f 88 2f ff ff ff    	js     5816 <skip+0xe6>
58e7:	83 7c 24 0c 00       	cmp    DWORD PTR [rsp+0xc],0x0
58ec:	75 08                	jne    58f6 <skip+0x1c6>
58ee:	c7 44 24 0c 4b 00 00 	mov    DWORD PTR [rsp+0xc],0x4b
58f5:	00
58f6:	31 ff                	xor    edi,edi
58f8:	85 db                	test   ebx,ebx
58fa:	48 8b 14 24          	mov    rdx,QWORD PTR [rsp]
58fe:	be 03 00 00 00       	mov    esi,0x3
5903:	0f 85 00 01 00 00    	jne    5a09 <skip+0x2d9>
5909:	e8 d2 31 00 00       	call   8ae0 <quotearg_n_style_colon>
590e:	ba 05 00 00 00       	mov    edx,0x5
5913:	48 89 c3             	mov    rbx,rax
5916:	48 8d 35 99 6e 00 00 	lea    rsi,[rip+0x6e99]        # c7b6 <_IO_stdin_used+0x1b6>
591d:	e9 fb 00 00 00       	jmp    5a1d <skip+0x2ed>
5922:	48 8d 54 24 10       	lea    rdx,[rsp+0x10]
5927:	31 f6                	xor    esi,esi
5929:	bf 01 00 00 00       	mov    edi,0x1
592e:	e8 fd c3 ff ff       	call   1d30 <__fxstat@plt>
5933:	85 c0                	test   eax,eax
5935:	0f 85 0a 01 00 00    	jne    5a45 <skip+0x315>
593b:	8b 54 24 28          	mov    edx,DWORD PTR [rsp+0x28]
593f:	31 c0                	xor    eax,eax
5941:	48 8b 0d e8 b9 20 00 	mov    rcx,QWORD PTR [rip+0x20b9e8]        # 211330 <input_offset>
5948:	81 e2 00 d0 00 00    	and    edx,0xd000
594e:	81 fa 00 80 00 00    	cmp    edx,0x8000
5954:	75 0f                	jne    5965 <skip+0x235>
5956:	48 8b 74 24 40       	mov    rsi,QWORD PTR [rsp+0x40]
595b:	48 8d 54 0d 00       	lea    rdx,[rbp+rcx*1+0x0]
5960:	48 39 d6             	cmp    rsi,rdx
5963:	72 26                	jb     598b <skip+0x25b>
5965:	48 01 cd             	add    rbp,rcx
5968:	48 89 2d c1 b9 20 00 	mov    QWORD PTR [rip+0x20b9c1],rbp        # 211330 <input_offset>
596f:	0f 83 55 fe ff ff    	jae    57ca <skip+0x9a>
5975:	c6 05 ad b9 20 00 01 	mov    BYTE PTR [rip+0x20b9ad],0x1        # 211329 <input_offset_overflow>
597c:	e9 49 fe ff ff       	jmp    57ca <skip+0x9a>
5981:	e8 9a f2 ff ff       	call   4c20 <alloc_ibuf.part.4>
5986:	e9 9d fe ff ff       	jmp    5828 <skip+0xf8>
598b:	48 89 e8             	mov    rax,rbp
598e:	31 d2                	xor    edx,edx
5990:	48 29 f0             	sub    rax,rsi
5993:	48 29 ce             	sub    rsi,rcx
5996:	49 f7 f4             	div    r12
5999:	48 89 f5             	mov    rbp,rsi
599c:	eb c7                	jmp    5965 <skip+0x235>
599e:	85 db                	test   ebx,ebx
59a0:	75 5c                	jne    59fe <skip+0x2ce>
59a2:	48 8b 34 24          	mov    rsi,QWORD PTR [rsp]
59a6:	bf 04 00 00 00       	mov    edi,0x4
59ab:	e8 30 30 00 00       	call   89e0 <quotearg_style>
59b0:	48 8d 35 1f 6e 00 00 	lea    rsi,[rip+0x6e1f]        # c7d6 <_IO_stdin_used+0x1d6>
59b7:	31 ff                	xor    edi,edi
59b9:	ba 05 00 00 00       	mov    edx,0x5
59be:	48 89 c3             	mov    rbx,rax
59c1:	e8 9a c1 ff ff       	call   1b60 <dcgettext@plt>
59c6:	41 8b 37             	mov    esi,DWORD PTR [r15]
59c9:	48 89 c2             	mov    rdx,rax
59cc:	31 ff                	xor    edi,edi
59ce:	31 c0                	xor    eax,eax
59d0:	48 89 d9             	mov    rcx,rbx
59d3:	e8 68 e7 ff ff       	call   4140 <nl_error>
59d8:	f6 05 ae b9 20 00 01 	test   BYTE PTR [rip+0x20b9ae],0x1        # 21138d <conversions_mask+0x1>
59df:	74 0e                	je     59ef <skip+0x2bf>
59e1:	83 3d 34 b6 20 00 01 	cmp    DWORD PTR [rip+0x20b634],0x1        # 21101c <status_level>
59e8:	74 05                	je     59ef <skip+0x2bf>
59ea:	e8 81 ed ff ff       	call   4770 <print_stats.part.2>
59ef:	e8 0c f2 ff ff       	call   4c00 <finish_up>
59f4:	bf 01 00 00 00       	mov    edi,0x1
59f9:	e8 12 c4 ff ff       	call   1e10 <exit@plt>
59fe:	48 8b 14 24          	mov    rdx,QWORD PTR [rsp]
5a02:	be 03 00 00 00       	mov    esi,0x3
5a07:	31 ff                	xor    edi,edi
5a09:	e8 d2 30 00 00       	call   8ae0 <quotearg_n_style_colon>
5a0e:	48 8d 35 b1 6d 00 00 	lea    rsi,[rip+0x6db1]        # c7c6 <_IO_stdin_used+0x1c6>
5a15:	48 89 c3             	mov    rbx,rax
5a18:	ba 05 00 00 00       	mov    edx,0x5
5a1d:	31 ff                	xor    edi,edi
5a1f:	e8 3c c1 ff ff       	call   1b60 <dcgettext@plt>
5a24:	8b 74 24 0c          	mov    esi,DWORD PTR [rsp+0xc]
5a28:	48 89 c2             	mov    rdx,rax
5a2b:	48 89 d9             	mov    rcx,rbx
5a2e:	31 ff                	xor    edi,edi
5a30:	31 c0                	xor    eax,eax
5a32:	e8 09 e7 ff ff       	call   4140 <nl_error>
5a37:	eb b6                	jmp    59ef <skip+0x2bf>
5a39:	31 c0                	xor    eax,eax
5a3b:	e9 8a fd ff ff       	jmp    57ca <skip+0x9a>
5a40:	e8 4b c1 ff ff       	call   1b90 <__stack_chk_fail@plt>
5a45:	48 8b 34 24          	mov    rsi,QWORD PTR [rsp]
5a49:	bf 04 00 00 00       	mov    edi,0x4
5a4e:	e8 8d 2f 00 00       	call   89e0 <quotearg_style>
5a53:	48 8d 35 4c 6d 00 00 	lea    rsi,[rip+0x6d4c]        # c7a6 <_IO_stdin_used+0x1a6>
5a5a:	ba 05 00 00 00       	mov    edx,0x5
5a5f:	31 ff                	xor    edi,edi
5a61:	48 89 c3             	mov    rbx,rax
5a64:	e8 f7 c0 ff ff       	call   1b60 <dcgettext@plt>
5a69:	41 8b 37             	mov    esi,DWORD PTR [r15]
5a6c:	48 89 c2             	mov    rdx,rax
5a6f:	48 89 d9             	mov    rcx,rbx
5a72:	bf 01 00 00 00       	mov    edi,0x1
5a77:	31 c0                	xor    eax,eax
5a79:	e8 c2 e6 ff ff       	call   4140 <nl_error>
5a7e:	66 90                	xchg   ax,ax

0000000000005a80 <write_output>:
5a80:	48 8b 35 41 b9 20 00 	mov    rsi,QWORD PTR [rip+0x20b941]        # 2113c8 <output_blocksize>
5a87:	48 8b 3d 82 b8 20 00 	mov    rdi,QWORD PTR [rip+0x20b882]        # 211310 <obuf>
5a8e:	41 54                	push   r12
5a90:	55                   	push   rbp
5a91:	53                   	push   rbx
5a92:	e8 99 f3 ff ff       	call   4e30 <iwrite.constprop.7>
5a97:	48 01 05 ba b8 20 00 	add    QWORD PTR [rip+0x20b8ba],rax        # 211358 <w_bytes>
5a9e:	48 39 05 23 b9 20 00 	cmp    QWORD PTR [rip+0x20b923],rax        # 2113c8 <output_blocksize>
5aa5:	75 18                	jne    5abf <write_output+0x3f>
5aa7:	5b                   	pop    rbx
5aa8:	48 83 05 c0 b8 20 00 	add    QWORD PTR [rip+0x20b8c0],0x1        # 211370 <w_full>
5aaf:	01
5ab0:	48 c7 05 4d b8 20 00 	mov    QWORD PTR [rip+0x20b84d],0x0        # 211308 <oc>
5ab7:	00 00 00 00
5abb:	5d                   	pop    rbp
5abc:	41 5c                	pop    r12
5abe:	c3                   	ret
5abf:	48 8b 35 1a b9 20 00 	mov    rsi,QWORD PTR [rip+0x20b91a]        # 2113e0 <output_file>
5ac6:	bf 04 00 00 00       	mov    edi,0x4
5acb:	48 89 c3             	mov    rbx,rax
5ace:	e8 0d 2f 00 00       	call   89e0 <quotearg_style>
5ad3:	48 8d 35 0d 6d 00 00 	lea    rsi,[rip+0x6d0d]        # c7e7 <_IO_stdin_used+0x1e7>
5ada:	31 ff                	xor    edi,edi
5adc:	ba 05 00 00 00       	mov    edx,0x5
5ae1:	49 89 c4             	mov    r12,rax
5ae4:	e8 77 c0 ff ff       	call   1b60 <dcgettext@plt>
5ae9:	48 89 c5             	mov    rbp,rax
5aec:	e8 8f bf ff ff       	call   1a80 <__errno_location@plt>
5af1:	8b 30                	mov    esi,DWORD PTR [rax]
5af3:	31 ff                	xor    edi,edi
5af5:	31 c0                	xor    eax,eax
5af7:	4c 89 e1             	mov    rcx,r12
5afa:	48 89 ea             	mov    rdx,rbp
5afd:	e8 3e e6 ff ff       	call   4140 <nl_error>
5b02:	48 85 db             	test   rbx,rbx
5b05:	74 08                	je     5b0f <write_output+0x8f>
5b07:	48 83 05 69 b8 20 00 	add    QWORD PTR [rip+0x20b869],0x1        # 211378 <w_partial>
5b0e:	01
5b0f:	e8 ec f0 ff ff       	call   4c00 <finish_up>
5b14:	bf 01 00 00 00       	mov    edi,0x1
5b19:	e8 f2 c2 ff ff       	call   1e10 <exit@plt>
5b1e:	66 90                	xchg   ax,ax

0000000000005b20 <copy_with_block>:
5b20:	48 85 f6             	test   rsi,rsi
5b23:	0f 84 07 01 00 00    	je     5c30 <copy_with_block+0x110>
5b29:	41 54                	push   r12
5b2b:	4c 8d 24 37          	lea    r12,[rdi+rsi*1]
5b2f:	55                   	push   rbp
5b30:	48 89 fd             	mov    rbp,rdi
5b33:	53                   	push   rbx
5b34:	eb 52                	jmp    5b88 <copy_with_block+0x68>
5b36:	66 2e 0f 1f 84 00 00 	nop    WORD PTR cs:[rax+rax*1+0x0]
5b3d:	00 00 00
5b40:	48 39 da             	cmp    rdx,rbx
5b43:	0f 84 bf 00 00 00    	je     5c08 <copy_with_block+0xe8>
5b49:	76 29                	jbe    5b74 <copy_with_block+0x54>
5b4b:	48 8b 0d b6 b7 20 00 	mov    rcx,QWORD PTR [rip+0x20b7b6]        # 211308 <oc>
5b52:	48 8b 35 b7 b7 20 00 	mov    rsi,QWORD PTR [rip+0x20b7b7]        # 211310 <obuf>
5b59:	48 8d 51 01          	lea    rdx,[rcx+0x1]
5b5d:	48 3b 15 64 b8 20 00 	cmp    rdx,QWORD PTR [rip+0x20b864]        # 2113c8 <output_blocksize>
5b64:	88 04 0e             	mov    BYTE PTR [rsi+rcx*1],al
5b67:	48 89 15 9a b7 20 00 	mov    QWORD PTR [rip+0x20b79a],rdx        # 211308 <oc>
5b6e:	0f 83 a4 00 00 00    	jae    5c18 <copy_with_block+0xf8>
5b74:	48 83 c5 01          	add    rbp,0x1
5b78:	48 83 c3 01          	add    rbx,0x1
5b7c:	49 39 ec             	cmp    r12,rbp
5b7f:	48 89 1d 7a b7 20 00 	mov    QWORD PTR [rip+0x20b77a],rbx        # 211300 <col>
5b86:	74 33                	je     5bbb <copy_with_block+0x9b>
5b88:	0f b6 45 00          	movzx  eax,BYTE PTR [rbp+0x0]
5b8c:	48 8b 1d 6d b7 20 00 	mov    rbx,QWORD PTR [rip+0x20b76d]        # 211300 <col>
5b93:	3a 05 81 b4 20 00    	cmp    al,BYTE PTR [rip+0x20b481]        # 21101a <newline_character>
5b99:	48 8b 15 20 b8 20 00 	mov    rdx,QWORD PTR [rip+0x20b820]        # 2113c0 <conversion_blocksize>
5ba0:	75 9e                	jne    5b40 <copy_with_block+0x20>
5ba2:	48 39 da             	cmp    rdx,rbx
5ba5:	77 2b                	ja     5bd2 <copy_with_block+0xb2>
5ba7:	48 83 c5 01          	add    rbp,0x1
5bab:	48 c7 05 4a b7 20 00 	mov    QWORD PTR [rip+0x20b74a],0x0        # 211300 <col>
5bb2:	00 00 00 00
5bb6:	49 39 ec             	cmp    r12,rbp
5bb9:	75 cd                	jne    5b88 <copy_with_block+0x68>
5bbb:	5b                   	pop    rbx
5bbc:	5d                   	pop    rbp
5bbd:	41 5c                	pop    r12
5bbf:	c3                   	ret
5bc0:	e8 bb fe ff ff       	call   5a80 <write_output>
5bc5:	48 83 c3 01          	add    rbx,0x1
5bc9:	48 39 1d f0 b7 20 00 	cmp    QWORD PTR [rip+0x20b7f0],rbx        # 2113c0 <conversion_blocksize>
5bd0:	76 d5                	jbe    5ba7 <copy_with_block+0x87>
5bd2:	48 8b 15 2f b7 20 00 	mov    rdx,QWORD PTR [rip+0x20b72f]        # 211308 <oc>
5bd9:	0f b6 35 39 b4 20 00 	movzx  esi,BYTE PTR [rip+0x20b439]        # 211019 <space_character>
5be0:	48 8b 0d 29 b7 20 00 	mov    rcx,QWORD PTR [rip+0x20b729]        # 211310 <obuf>
5be7:	48 8d 42 01          	lea    rax,[rdx+0x1]
5beb:	48 3b 05 d6 b7 20 00 	cmp    rax,QWORD PTR [rip+0x20b7d6]        # 2113c8 <output_blocksize>
5bf2:	40 88 34 11          	mov    BYTE PTR [rcx+rdx*1],sil
5bf6:	48 89 05 0b b7 20 00 	mov    QWORD PTR [rip+0x20b70b],rax        # 211308 <oc>
5bfd:	72 c6                	jb     5bc5 <copy_with_block+0xa5>
5bff:	eb bf                	jmp    5bc0 <copy_with_block+0xa0>
5c01:	0f 1f 80 00 00 00 00 	nop    DWORD PTR [rax+0x0]
5c08:	48 83 05 10 b7 20 00 	add    QWORD PTR [rip+0x20b710],0x1        # 211320 <r_truncate>
5c0f:	01
5c10:	e9 5f ff ff ff       	jmp    5b74 <copy_with_block+0x54>
5c15:	0f 1f 00             	nop    DWORD PTR [rax]
5c18:	e8 63 fe ff ff       	call   5a80 <write_output>
5c1d:	48 8b 1d dc b6 20 00 	mov    rbx,QWORD PTR [rip+0x20b6dc]        # 211300 <col>
5c24:	e9 4b ff ff ff       	jmp    5b74 <copy_with_block+0x54>
5c29:	0f 1f 80 00 00 00 00 	nop    DWORD PTR [rax+0x0]
5c30:	f3 c3                	repz ret
5c32:	0f 1f 40 00          	nop    DWORD PTR [rax+0x0]
5c36:	66 2e 0f 1f 84 00 00 	nop    WORD PTR cs:[rax+rax*1+0x0]
5c3d:	00 00 00

0000000000005c40 <copy_with_unblock>:
5c40:	48 85 f6             	test   rsi,rsi
5c43:	0f 84 5f 01 00 00    	je     5da8 <copy_with_unblock+0x168>
5c49:	41 55                	push   r13
5c4b:	41 54                	push   r12
5c4d:	49 89 fc             	mov    r12,rdi
5c50:	55                   	push   rbp
5c51:	53                   	push   rbx
5c52:	48 89 f5             	mov    rbp,rsi
5c55:	31 db                	xor    ebx,ebx
5c57:	48 83 ec 08          	sub    rsp,0x8
5c5b:	eb 5b                	jmp    5cb8 <copy_with_unblock+0x78>
5c5d:	0f 1f 00             	nop    DWORD PTR [rax]
5c60:	48 8b 15 a1 b6 20 00 	mov    rdx,QWORD PTR [rip+0x20b6a1]        # 211308 <oc>
5c67:	48 83 eb 01          	sub    rbx,0x1
5c6b:	0f b6 35 a8 b3 20 00 	movzx  esi,BYTE PTR [rip+0x20b3a8]        # 21101a <newline_character>
5c72:	48 8b 0d 97 b6 20 00 	mov    rcx,QWORD PTR [rip+0x20b697]        # 211310 <obuf>
5c79:	48 c7 05 ac b4 20 00 	mov    QWORD PTR [rip+0x20b4ac],0x0        # 211130 <pending_spaces.7443>
5c80:	00 00 00 00
5c84:	48 c7 05 71 b6 20 00 	mov    QWORD PTR [rip+0x20b671],0x0        # 211300 <col>
5c8b:	00 00 00 00
5c8f:	48 8d 42 01          	lea    rax,[rdx+0x1]
5c93:	48 3b 05 2e b7 20 00 	cmp    rax,QWORD PTR [rip+0x20b72e]        # 2113c8 <output_blocksize>
5c9a:	40 88 34 11          	mov    BYTE PTR [rcx+rdx*1],sil
5c9e:	48 89 05 63 b6 20 00 	mov    QWORD PTR [rip+0x20b663],rax        # 211308 <oc>
5ca5:	0f 83 c8 00 00 00    	jae    5d73 <copy_with_unblock+0x133>
5cab:	48 83 c3 01          	add    rbx,0x1
5caf:	48 39 dd             	cmp    rbp,rbx
5cb2:	0f 86 cd 00 00 00    	jbe    5d85 <copy_with_unblock+0x145>
5cb8:	48 8b 05 41 b6 20 00 	mov    rax,QWORD PTR [rip+0x20b641]        # 211300 <col>
5cbf:	48 3b 05 fa b6 20 00 	cmp    rax,QWORD PTR [rip+0x20b6fa]        # 2113c0 <conversion_blocksize>
5cc6:	45 0f b6 2c 1c       	movzx  r13d,BYTE PTR [r12+rbx*1]
5ccb:	48 8d 50 01          	lea    rdx,[rax+0x1]
5ccf:	48 89 15 2a b6 20 00 	mov    QWORD PTR [rip+0x20b62a],rdx        # 211300 <col>
5cd6:	73 88                	jae    5c60 <copy_with_unblock+0x20>
5cd8:	0f b6 0d 3a b3 20 00 	movzx  ecx,BYTE PTR [rip+0x20b33a]        # 211019 <space_character>
5cdf:	48 8b 15 4a b4 20 00 	mov    rdx,QWORD PTR [rip+0x20b44a]        # 211130 <pending_spaces.7443>
5ce6:	44 38 e9             	cmp    cl,r13b
5ce9:	0f 84 a1 00 00 00    	je     5d90 <copy_with_unblock+0x150>
5cef:	48 85 d2             	test   rdx,rdx
5cf2:	48 8b 3d 17 b6 20 00 	mov    rdi,QWORD PTR [rip+0x20b617]        # 211310 <obuf>
5cf9:	48 8b 05 08 b6 20 00 	mov    rax,QWORD PTR [rip+0x20b608]        # 211308 <oc>
5d00:	48 8b 35 c1 b6 20 00 	mov    rsi,QWORD PTR [rip+0x20b6c1]        # 2113c8 <output_blocksize>
5d07:	75 1b                	jne    5d24 <copy_with_unblock+0xe4>
5d09:	e9 92 00 00 00       	jmp    5da0 <copy_with_unblock+0x160>
5d0e:	66 90                	xchg   ax,ax
5d10:	48 83 2d 18 b4 20 00 	sub    QWORD PTR [rip+0x20b418],0x1        # 211130 <pending_spaces.7443>
5d17:	01
5d18:	74 41                	je     5d5b <copy_with_unblock+0x11b>
5d1a:	0f b6 0d f8 b2 20 00 	movzx  ecx,BYTE PTR [rip+0x20b2f8]        # 211019 <space_character>
5d21:	48 89 d0             	mov    rax,rdx
5d24:	48 8d 50 01          	lea    rdx,[rax+0x1]
5d28:	88 0c 07             	mov    BYTE PTR [rdi+rax*1],cl
5d2b:	48 39 f2             	cmp    rdx,rsi
5d2e:	48 89 15 d3 b5 20 00 	mov    QWORD PTR [rip+0x20b5d3],rdx        # 211308 <oc>
5d35:	72 d9                	jb     5d10 <copy_with_unblock+0xd0>
5d37:	e8 44 fd ff ff       	call   5a80 <write_output>
5d3c:	48 83 2d ec b3 20 00 	sub    QWORD PTR [rip+0x20b3ec],0x1        # 211130 <pending_spaces.7443>
5d43:	01
5d44:	48 8b 3d c5 b5 20 00 	mov    rdi,QWORD PTR [rip+0x20b5c5]        # 211310 <obuf>
5d4b:	48 8b 15 b6 b5 20 00 	mov    rdx,QWORD PTR [rip+0x20b5b6]        # 211308 <oc>
5d52:	48 8b 35 6f b6 20 00 	mov    rsi,QWORD PTR [rip+0x20b66f]        # 2113c8 <output_blocksize>
5d59:	75 bf                	jne    5d1a <copy_with_unblock+0xda>
5d5b:	48 8d 42 01          	lea    rax,[rdx+0x1]
5d5f:	44 88 2c 17          	mov    BYTE PTR [rdi+rdx*1],r13b
5d63:	48 39 f0             	cmp    rax,rsi
5d66:	48 89 05 9b b5 20 00 	mov    QWORD PTR [rip+0x20b59b],rax        # 211308 <oc>
5d6d:	0f 82 38 ff ff ff    	jb     5cab <copy_with_unblock+0x6b>
5d73:	48 83 c3 01          	add    rbx,0x1
5d77:	e8 04 fd ff ff       	call   5a80 <write_output>
5d7c:	48 39 dd             	cmp    rbp,rbx
5d7f:	0f 87 33 ff ff ff    	ja     5cb8 <copy_with_unblock+0x78>
5d85:	48 83 c4 08          	add    rsp,0x8
5d89:	5b                   	pop    rbx
5d8a:	5d                   	pop    rbp
5d8b:	41 5c                	pop    r12
5d8d:	41 5d                	pop    r13
5d8f:	c3                   	ret
5d90:	48 83 c2 01          	add    rdx,0x1
5d94:	48 89 15 95 b3 20 00 	mov    QWORD PTR [rip+0x20b395],rdx        # 211130 <pending_spaces.7443>
5d9b:	e9 0b ff ff ff       	jmp    5cab <copy_with_unblock+0x6b>
5da0:	48 89 c2             	mov    rdx,rax
5da3:	eb b6                	jmp    5d5b <copy_with_unblock+0x11b>
5da5:	0f 1f 00             	nop    DWORD PTR [rax]
5da8:	f3 c3                	repz ret
5daa:	66 0f 1f 44 00 00    	nop    WORD PTR [rax+rax*1+0x0]

0000000000005db0 <close_stream>:
5db0:	41 54                	push   r12
5db2:	55                   	push   rbp
5db3:	48 89 fd             	mov    rbp,rdi
5db6:	53                   	push   rbx
5db7:	e8 14 bd ff ff       	call   1ad0 <__fpending@plt>
5dbc:	8b 5d 00             	mov    ebx,DWORD PTR [rbp+0x0]
5dbf:	48 89 ef             	mov    rdi,rbp
5dc2:	49 89 c4             	mov    r12,rax
5dc5:	e8 a6 3e 00 00       	call   9c70 <rpl_fclose>
5dca:	83 e3 20             	and    ebx,0x20
5dcd:	85 db                	test   ebx,ebx
5dcf:	75 17                	jne    5de8 <close_stream+0x38>
5dd1:	85 c0                	test   eax,eax
5dd3:	74 0a                	je     5ddf <close_stream+0x2f>
5dd5:	4d 85 e4             	test   r12,r12
5dd8:	b8 ff ff ff ff       	mov    eax,0xffffffff
5ddd:	74 39                	je     5e18 <close_stream+0x68>
5ddf:	5b                   	pop    rbx
5de0:	5d                   	pop    rbp
5de1:	41 5c                	pop    r12
5de3:	c3                   	ret
5de4:	0f 1f 40 00          	nop    DWORD PTR [rax+0x0]
5de8:	85 c0                	test   eax,eax
5dea:	75 1c                	jne    5e08 <close_stream+0x58>
5dec:	e8 8f bc ff ff       	call   1a80 <__errno_location@plt>
5df1:	c7 00 00 00 00 00    	mov    DWORD PTR [rax],0x0
5df7:	b8 ff ff ff ff       	mov    eax,0xffffffff
5dfc:	5b                   	pop    rbx
5dfd:	5d                   	pop    rbp
5dfe:	41 5c                	pop    r12
5e00:	c3                   	ret
5e01:	0f 1f 80 00 00 00 00 	nop    DWORD PTR [rax+0x0]
5e08:	5b                   	pop    rbx
5e09:	b8 ff ff ff ff       	mov    eax,0xffffffff
5e0e:	5d                   	pop    rbp
5e0f:	41 5c                	pop    r12
5e11:	c3                   	ret
5e12:	66 0f 1f 44 00 00    	nop    WORD PTR [rax+rax*1+0x0]
5e18:	e8 63 bc ff ff       	call   1a80 <__errno_location@plt>
5e1d:	83 38 09             	cmp    DWORD PTR [rax],0x9
5e20:	5b                   	pop    rbx
5e21:	5d                   	pop    rbp
5e22:	41 5c                	pop    r12
5e24:	0f 95 c0             	setne  al
5e27:	0f b6 c0             	movzx  eax,al
5e2a:	f7 d8                	neg    eax
5e2c:	c3                   	ret
5e2d:	0f 1f 00             	nop    DWORD PTR [rax]

0000000000005e30 <close_stdout_set_file_name>:
5e30:	48 89 3d c1 b5 20 00 	mov    QWORD PTR [rip+0x20b5c1],rdi        # 2113f8 <file_name>
5e37:	c3                   	ret
5e38:	0f 1f 84 00 00 00 00 	nop    DWORD PTR [rax+rax*1+0x0]
5e3f:	00

0000000000005e40 <close_stdout_set_ignore_EPIPE>:
5e40:	40 88 3d a9 b5 20 00 	mov    BYTE PTR [rip+0x20b5a9],dil        # 2113f0 <ignore_EPIPE>
5e47:	c3                   	ret
5e48:	0f 1f 84 00 00 00 00 	nop    DWORD PTR [rax+rax*1+0x0]
5e4f:	00

0000000000005e50 <close_stdout>:
5e50:	55                   	push   rbp
5e51:	53                   	push   rbx
5e52:	48 83 ec 08          	sub    rsp,0x8
5e56:	48 8b 3d 6b b2 20 00 	mov    rdi,QWORD PTR [rip+0x20b26b]        # 2110c8 <stdout@@GLIBC_2.2.5>
5e5d:	e8 4e ff ff ff       	call   5db0 <close_stream>
5e62:	85 c0                	test   eax,eax
5e64:	74 16                	je     5e7c <close_stdout+0x2c>
5e66:	e8 15 bc ff ff       	call   1a80 <__errno_location@plt>
5e6b:	80 3d 7e b5 20 00 00 	cmp    BYTE PTR [rip+0x20b57e],0x0        # 2113f0 <ignore_EPIPE>
5e72:	48 89 c3             	mov    rbx,rax
5e75:	74 1c                	je     5e93 <close_stdout+0x43>
5e77:	83 38 20             	cmp    DWORD PTR [rax],0x20
5e7a:	75 17                	jne    5e93 <close_stdout+0x43>
5e7c:	48 8b 3d 7d b2 20 00 	mov    rdi,QWORD PTR [rip+0x20b27d]        # 211100 <stderr@@GLIBC_2.2.5>
5e83:	e8 28 ff ff ff       	call   5db0 <close_stream>
5e88:	85 c0                	test   eax,eax
5e8a:	75 46                	jne    5ed2 <close_stdout+0x82>
5e8c:	48 83 c4 08          	add    rsp,0x8
5e90:	5b                   	pop    rbx
5e91:	5d                   	pop    rbp
5e92:	c3                   	ret
5e93:	48 8d 35 e3 82 00 00 	lea    rsi,[rip+0x82e3]        # e17d <conversions+0x11d>
5e9a:	31 ff                	xor    edi,edi
5e9c:	ba 05 00 00 00       	mov    edx,0x5
5ea1:	e8 ba bc ff ff       	call   1b60 <dcgettext@plt>
5ea6:	48 8b 3d 4b b5 20 00 	mov    rdi,QWORD PTR [rip+0x20b54b]        # 2113f8 <file_name>
5ead:	48 89 c5             	mov    rbp,rax
5eb0:	48 85 ff             	test   rdi,rdi
5eb3:	74 28                	je     5edd <close_stdout+0x8d>
5eb5:	e8 f6 2b 00 00       	call   8ab0 <quotearg_colon>
5eba:	8b 33                	mov    esi,DWORD PTR [rbx]
5ebc:	48 8d 15 dc 68 00 00 	lea    rdx,[rip+0x68dc]        # c79f <_IO_stdin_used+0x19f>
5ec3:	48 89 c1             	mov    rcx,rax
5ec6:	49 89 e8             	mov    r8,rbp
5ec9:	31 ff                	xor    edi,edi
5ecb:	31 c0                	xor    eax,eax
5ecd:	e8 be be ff ff       	call   1d90 <error@plt>
5ed2:	8b 3d 58 b1 20 00    	mov    edi,DWORD PTR [rip+0x20b158]        # 211030 <exit_failure>
5ed8:	e8 e3 bb ff ff       	call   1ac0 <_exit@plt>
5edd:	8b 33                	mov    esi,DWORD PTR [rbx]
5edf:	48 8d 15 86 67 00 00 	lea    rdx,[rip+0x6786]        # c66c <_IO_stdin_used+0x6c>
5ee6:	48 89 c1             	mov    rcx,rax
5ee9:	31 ff                	xor    edi,edi
5eeb:	31 c0                	xor    eax,eax
5eed:	e8 9e be ff ff       	call   1d90 <error@plt>
5ef2:	eb de                	jmp    5ed2 <close_stdout+0x82>
5ef4:	66 2e 0f 1f 84 00 00 	nop    WORD PTR cs:[rax+rax*1+0x0]
5efb:	00 00 00
5efe:	66 90                	xchg   ax,ax

0000000000005f00 <fd_reopen>:
5f00:	41 55                	push   r13
5f02:	41 54                	push   r12
5f04:	31 c0                	xor    eax,eax
5f06:	55                   	push   rbp
5f07:	53                   	push   rbx
5f08:	89 fd                	mov    ebp,edi
5f0a:	48 89 f7             	mov    rdi,rsi
5f0d:	89 d6                	mov    esi,edx
5f0f:	89 ca                	mov    edx,ecx
5f11:	48 83 ec 08          	sub    rsp,0x8
5f15:	e8 96 be ff ff       	call   1db0 <open@plt>
5f1a:	39 c5                	cmp    ebp,eax
5f1c:	89 c3                	mov    ebx,eax
5f1e:	74 29                	je     5f49 <fd_reopen+0x49>
5f20:	85 c0                	test   eax,eax
5f22:	78 25                	js     5f49 <fd_reopen+0x49>
5f24:	89 ee                	mov    esi,ebp
5f26:	89 c7                	mov    edi,eax
5f28:	e8 93 bc ff ff       	call   1bc0 <dup2@plt>
5f2d:	41 89 c4             	mov    r12d,eax
5f30:	e8 4b bb ff ff       	call   1a80 <__errno_location@plt>
5f35:	44 8b 28             	mov    r13d,DWORD PTR [rax]
5f38:	48 89 c5             	mov    rbp,rax
5f3b:	89 df                	mov    edi,ebx
5f3d:	e8 1e bd ff ff       	call   1c60 <close@plt>
5f42:	44 89 e3             	mov    ebx,r12d
5f45:	44 89 6d 00          	mov    DWORD PTR [rbp+0x0],r13d
5f49:	48 83 c4 08          	add    rsp,0x8
5f4d:	89 d8                	mov    eax,ebx
5f4f:	5b                   	pop    rbx
5f50:	5d                   	pop    rbp
5f51:	41 5c                	pop    r12
5f53:	41 5d                	pop    r13
5f55:	c3                   	ret
5f56:	66 2e 0f 1f 84 00 00 	nop    WORD PTR cs:[rax+rax*1+0x0]
5f5d:	00 00 00

0000000000005f60 <gethrxtime>:
5f60:	53                   	push   rbx
5f61:	bf 01 00 00 00       	mov    edi,0x1
5f66:	48 83 ec 20          	sub    rsp,0x20
5f6a:	48 89 e3             	mov    rbx,rsp
5f6d:	48 89 de             	mov    rsi,rbx
5f70:	64 48 8b 04 25 28 00 	mov    rax,QWORD PTR fs:0x28
5f77:	00 00
5f79:	48 89 44 24 18       	mov    QWORD PTR [rsp+0x18],rax
5f7e:	31 c0                	xor    eax,eax
5f80:	e8 8b bb ff ff       	call   1b10 <clock_gettime@plt>
5f85:	85 c0                	test   eax,eax
5f87:	74 08                	je     5f91 <gethrxtime+0x31>
5f89:	48 89 df             	mov    rdi,rbx
5f8c:	e8 5f 00 00 00       	call   5ff0 <gettime>
5f91:	48 8b 4c 24 08       	mov    rcx,QWORD PTR [rsp+0x8]
5f96:	48 ba b3 94 d6 26 e8 	movabs rdx,0x112e0be826d694b3
5f9d:	0b 2e 11
5fa0:	48 89 c8             	mov    rax,rcx
5fa3:	48 f7 ea             	imul   rdx
5fa6:	48 89 c8             	mov    rax,rcx
5fa9:	48 c1 f8 3f          	sar    rax,0x3f
5fad:	48 c1 fa 1a          	sar    rdx,0x1a
5fb1:	48 29 c2             	sub    rdx,rax
5fb4:	48 8b 04 24          	mov    rax,QWORD PTR [rsp]
5fb8:	48 01 d0             	add    rax,rdx
5fbb:	48 69 d2 00 ca 9a 3b 	imul   rdx,rdx,0x3b9aca00
5fc2:	48 69 c0 00 ca 9a 3b 	imul   rax,rax,0x3b9aca00
5fc9:	48 29 d1             	sub    rcx,rdx
5fcc:	48 01 c8             	add    rax,rcx
5fcf:	48 8b 74 24 18       	mov    rsi,QWORD PTR [rsp+0x18]
5fd4:	64 48 33 34 25 28 00 	xor    rsi,QWORD PTR fs:0x28
5fdb:	00 00
5fdd:	75 06                	jne    5fe5 <gethrxtime+0x85>
5fdf:	48 83 c4 20          	add    rsp,0x20
5fe3:	5b                   	pop    rbx
5fe4:	c3                   	ret
5fe5:	e8 a6 bb ff ff       	call   1b90 <__stack_chk_fail@plt>
5fea:	66 0f 1f 44 00 00    	nop    WORD PTR [rax+rax*1+0x0]

0000000000005ff0 <gettime>:
5ff0:	48 89 fe             	mov    rsi,rdi
5ff3:	31 ff                	xor    edi,edi
5ff5:	e9 16 bb ff ff       	jmp    1b10 <clock_gettime@plt>
5ffa:	66 0f 1f 44 00 00    	nop    WORD PTR [rax+rax*1+0x0]

0000000000006000 <current_timespec>:
6000:	48 83 ec 28          	sub    rsp,0x28
6004:	31 ff                	xor    edi,edi
6006:	48 89 e6             	mov    rsi,rsp
6009:	64 48 8b 04 25 28 00 	mov    rax,QWORD PTR fs:0x28
6010:	00 00
6012:	48 89 44 24 18       	mov    QWORD PTR [rsp+0x18],rax
6017:	31 c0                	xor    eax,eax
6019:	e8 f2 ba ff ff       	call   1b10 <clock_gettime@plt>
601e:	48 8b 4c 24 18       	mov    rcx,QWORD PTR [rsp+0x18]
6023:	64 48 33 0c 25 28 00 	xor    rcx,QWORD PTR fs:0x28
602a:	00 00
602c:	48 8b 04 24          	mov    rax,QWORD PTR [rsp]
6030:	48 8b 54 24 08       	mov    rdx,QWORD PTR [rsp+0x8]
6035:	75 05                	jne    603c <current_timespec+0x3c>
6037:	48 83 c4 28          	add    rsp,0x28
603b:	c3                   	ret
603c:	e8 4f bb ff ff       	call   1b90 <__stack_chk_fail@plt>
6041:	66 2e 0f 1f 84 00 00 	nop    WORD PTR cs:[rax+rax*1+0x0]
6048:	00 00 00
604b:	0f 1f 44 00 00       	nop    DWORD PTR [rax+rax*1+0x0]

0000000000006050 <adjust_value.part.0>:
6050:	d9 05 8e 81 00 00    	fld    DWORD PTR [rip+0x818e]        # e1e4 <power_letter+0xc>
6056:	db 6c 24 08          	fld    TBYTE PTR [rsp+0x8]
605a:	db e9                	fucomi st,st(1)
605c:	73 72                	jae    60d0 <adjust_value.part.0+0x80>
605e:	dd d9                	fstp   st(1)
6060:	d9 7c 24 f6          	fnstcw WORD PTR [rsp-0xa]
6064:	0f b7 44 24 f6       	movzx  eax,WORD PTR [rsp-0xa]
6069:	80 cc 0c             	or     ah,0xc
606c:	66 89 44 24 f4       	mov    WORD PTR [rsp-0xc],ax
6071:	d9 c0                	fld    st(0)
6073:	d9 6c 24 f4          	fldcw  WORD PTR [rsp-0xc]
6077:	df 7c 24 e8          	fistp  QWORD PTR [rsp-0x18]
607b:	d9 6c 24 f6          	fldcw  WORD PTR [rsp-0xa]
607f:	48 8b 44 24 e8       	mov    rax,QWORD PTR [rsp-0x18]
6084:	48 89 44 24 e0       	mov    QWORD PTR [rsp-0x20],rax
6089:	48 85 c0             	test   rax,rax
608c:	df 6c 24 e0          	fild   QWORD PTR [rsp-0x20]
6090:	79 06                	jns    6098 <adjust_value.part.0+0x48>
6092:	d8 05 50 81 00 00    	fadd   DWORD PTR [rip+0x8150]        # e1e8 <power_letter+0x10>
6098:	85 ff                	test   edi,edi
609a:	75 2c                	jne    60c8 <adjust_value.part.0+0x78>
609c:	d9 c9                	fxch   st(1)
609e:	df e9                	fucomip st,st(1)
60a0:	7a 06                	jp     60a8 <adjust_value.part.0+0x58>
60a2:	74 26                	je     60ca <adjust_value.part.0+0x7a>
60a4:	dd d8                	fstp   st(0)
60a6:	eb 08                	jmp    60b0 <adjust_value.part.0+0x60>
60a8:	dd d8                	fstp   st(0)
60aa:	66 0f 1f 44 00 00    	nop    WORD PTR [rax+rax*1+0x0]
60b0:	48 83 c0 01          	add    rax,0x1
60b4:	48 89 44 24 e0       	mov    QWORD PTR [rsp-0x20],rax
60b9:	48 85 c0             	test   rax,rax
60bc:	df 6c 24 e0          	fild   QWORD PTR [rsp-0x20]
60c0:	78 4e                	js     6110 <adjust_value.part.0+0xc0>
60c2:	eb 06                	jmp    60ca <adjust_value.part.0+0x7a>
60c4:	0f 1f 40 00          	nop    DWORD PTR [rax+0x0]
60c8:	dd d9                	fstp   st(1)
60ca:	f3 c3                	repz ret
60cc:	0f 1f 40 00          	nop    DWORD PTR [rax+0x0]
60d0:	d9 7c 24 f6          	fnstcw WORD PTR [rsp-0xa]
60d4:	0f b7 44 24 f6       	movzx  eax,WORD PTR [rsp-0xa]
60d9:	dc e1                	fsub   st(1),st
60db:	d9 c9                	fxch   st(1)
60dd:	48 ba 00 00 00 00 00 	movabs rdx,0x8000000000000000
60e4:	00 00 80
60e7:	80 cc 0c             	or     ah,0xc
60ea:	66 89 44 24 f4       	mov    WORD PTR [rsp-0xc],ax
60ef:	d9 6c 24 f4          	fldcw  WORD PTR [rsp-0xc]
60f3:	df 7c 24 e8          	fistp  QWORD PTR [rsp-0x18]
60f7:	d9 6c 24 f6          	fldcw  WORD PTR [rsp-0xa]
60fb:	48 8b 44 24 e8       	mov    rax,QWORD PTR [rsp-0x18]
6100:	48 31 d0             	xor    rax,rdx
6103:	e9 7c ff ff ff       	jmp    6084 <adjust_value.part.0+0x34>
6108:	0f 1f 84 00 00 00 00 	nop    DWORD PTR [rax+rax*1+0x0]
610f:	00
6110:	d8 05 d2 80 00 00    	fadd   DWORD PTR [rip+0x80d2]        # e1e8 <power_letter+0x10>
6116:	c3                   	ret
6117:	66 0f 1f 84 00 00 00 	nop    WORD PTR [rax+rax*1+0x0]
611e:	00 00

0000000000006120 <human_readable>:
6120:	41 57                	push   r15
6122:	41 56                	push   r14
6124:	89 d0                	mov    eax,edx
6126:	41 55                	push   r13
6128:	41 54                	push   r12
612a:	41 89 d7             	mov    r15d,edx
612d:	55                   	push   rbp
612e:	53                   	push   rbx
612f:	83 e0 20             	and    eax,0x20
6132:	41 83 e7 03          	and    r15d,0x3
6136:	41 89 d4             	mov    r12d,edx
6139:	48 89 fb             	mov    rbx,rdi
613c:	48 81 ec 98 00 00 00 	sub    rsp,0x98
6143:	48 89 4c 24 18       	mov    QWORD PTR [rsp+0x18],rcx
6148:	89 44 24 30          	mov    DWORD PTR [rsp+0x30],eax
614c:	64 48 8b 0c 25 28 00 	mov    rcx,QWORD PTR fs:0x28
6153:	00 00
6155:	48 89 8c 24 88 00 00 	mov    QWORD PTR [rsp+0x88],rcx
615c:	00
615d:	31 c9                	xor    ecx,ecx
615f:	83 f8 01             	cmp    eax,0x1
6162:	48 89 34 24          	mov    QWORD PTR [rsp],rsi
6166:	4c 89 44 24 10       	mov    QWORD PTR [rsp+0x10],r8
616b:	19 c0                	sbb    eax,eax
616d:	83 e0 e8             	and    eax,0xffffffe8
6170:	05 00 04 00 00       	add    eax,0x400
6175:	89 44 24 34          	mov    DWORD PTR [rsp+0x34],eax
6179:	e8 72 b9 ff ff       	call   1af0 <localeconv@plt>
617e:	4c 8b 30             	mov    r14,QWORD PTR [rax]
6181:	49 89 c5             	mov    r13,rax
6184:	4c 89 f7             	mov    rdi,r14
6187:	e8 f4 b9 ff ff       	call   1b80 <strlen@plt>
618c:	49 8b 4d 10          	mov    rcx,QWORD PTR [r13+0x10]
6190:	4d 8b 6d 08          	mov    r13,QWORD PTR [r13+0x8]
6194:	48 89 c5             	mov    rbp,rax
6197:	48 83 e8 01          	sub    rax,0x1
619b:	ba 01 00 00 00       	mov    edx,0x1
61a0:	48 83 f8 10          	cmp    rax,0x10
61a4:	48 8d 05 de 7f 00 00 	lea    rax,[rip+0x7fde]        # e189 <conversions+0x129>
61ab:	4c 89 ef             	mov    rdi,r13
61ae:	48 0f 43 ea          	cmovae rbp,rdx
61b2:	48 89 4c 24 38       	mov    QWORD PTR [rsp+0x38],rcx
61b7:	4c 0f 43 f0          	cmovae r14,rax
61bb:	e8 c0 b9 ff ff       	call   1b80 <strlen@plt>
61c0:	48 83 f8 11          	cmp    rax,0x11
61c4:	48 8d 05 d6 85 00 00 	lea    rax,[rip+0x85d6]        # e7a1 <quoting_style_vals+0xa1>
61cb:	48 8b 7c 24 10       	mov    rdi,QWORD PTR [rsp+0x10]
61d0:	48 8b 4c 24 18       	mov    rcx,QWORD PTR [rsp+0x18]
61d5:	4c 0f 43 e8          	cmovae r13,rax
61d9:	48 8b 04 24          	mov    rax,QWORD PTR [rsp]
61dd:	48 05 87 02 00 00    	add    rax,0x287
61e3:	48 39 cf             	cmp    rdi,rcx
61e6:	48 89 44 24 08       	mov    QWORD PTR [rsp+0x8],rax
61eb:	0f 87 47 01 00 00    	ja     6338 <human_readable+0x218>
61f1:	31 d2                	xor    edx,edx
61f3:	48 89 c8             	mov    rax,rcx
61f6:	48 f7 f7             	div    rdi
61f9:	48 85 d2             	test   rdx,rdx
61fc:	48 89 c7             	mov    rdi,rax
61ff:	0f 84 5b 03 00 00    	je     6560 <human_readable+0x440>
6205:	48 89 4c 24 18       	mov    QWORD PTR [rsp+0x18],rcx
620a:	48 85 c9             	test   rcx,rcx
620d:	df 6c 24 18          	fild   QWORD PTR [rsp+0x18]
6211:	79 06                	jns    6219 <human_readable+0xf9>
6213:	d8 05 cf 7f 00 00    	fadd   DWORD PTR [rip+0x7fcf]        # e1e8 <power_letter+0x10>
6219:	48 8b 44 24 10       	mov    rax,QWORD PTR [rsp+0x10]
621e:	48 89 44 24 18       	mov    QWORD PTR [rsp+0x18],rax
6223:	48 85 c0             	test   rax,rax
6226:	df 6c 24 18          	fild   QWORD PTR [rsp+0x18]
622a:	79 06                	jns    6232 <human_readable+0x112>
622c:	d8 05 b6 7f 00 00    	fadd   DWORD PTR [rip+0x7fb6]        # e1e8 <power_letter+0x10>
6232:	de f9                	fdivrp st(1),st
6234:	48 89 5c 24 18       	mov    QWORD PTR [rsp+0x18],rbx
6239:	48 85 db             	test   rbx,rbx
623c:	df 6c 24 18          	fild   QWORD PTR [rsp+0x18]
6240:	79 06                	jns    6248 <human_readable+0x128>
6242:	d8 05 a0 7f 00 00    	fadd   DWORD PTR [rip+0x7fa0]        # e1e8 <power_letter+0x10>
6248:	41 f6 c4 10          	test   r12b,0x10
624c:	de c9                	fmulp  st(1),st
624e:	0f 84 c4 01 00 00    	je     6418 <human_readable+0x2f8>
6254:	db 44 24 34          	fild   DWORD PTR [rsp+0x34]
6258:	31 db                	xor    ebx,ebx
625a:	d9 c0                	fld    st(0)
625c:	eb 06                	jmp    6264 <human_readable+0x144>
625e:	66 90                	xchg   ax,ax
6260:	dd d9                	fstp   st(1)
6262:	d9 ca                	fxch   st(2)
6264:	d9 c0                	fld    st(0)
6266:	83 c3 01             	add    ebx,0x1
6269:	d8 ca                	fmul   st,st(2)
626b:	d9 cb                	fxch   st(3)
626d:	db eb                	fucomi st,st(3)
626f:	72 0f                	jb     6280 <human_readable+0x160>
6271:	83 fb 08             	cmp    ebx,0x8
6274:	75 ea                	jne    6260 <human_readable+0x140>
6276:	dd da                	fstp   st(2)
6278:	dd da                	fstp   st(2)
627a:	eb 08                	jmp    6284 <human_readable+0x164>
627c:	0f 1f 40 00          	nop    DWORD PTR [rax+0x0]
6280:	dd da                	fstp   st(2)
6282:	dd da                	fstp   st(2)
6284:	8b 4c 24 30          	mov    ecx,DWORD PTR [rsp+0x30]
6288:	48 83 c5 01          	add    rbp,0x1
628c:	31 c0                	xor    eax,eax
628e:	de f1                	fdivp  st(1),st
6290:	85 c9                	test   ecx,ecx
6292:	0f 94 c0             	sete   al
6295:	41 83 ff 01          	cmp    r15d,0x1
6299:	48 8d 44 05 01       	lea    rax,[rbp+rax*1+0x1]
629e:	48 89 44 24 18       	mov    QWORD PTR [rsp+0x18],rax
62a3:	0f 84 67 05 00 00    	je     6810 <human_readable+0x6f0>
62a9:	db 2d 41 7f 00 00    	fld    TBYTE PTR [rip+0x7f41]        # e1f0 <power_letter+0x18>
62af:	df e9                	fucomip st,st(1)
62b1:	0f 87 d1 03 00 00    	ja     6688 <human_readable+0x568>
62b7:	d9 c0                	fld    st(0)
62b9:	db 7c 24 20          	fstp   TBYTE PTR [rsp+0x20]
62bd:	48 83 ec 10          	sub    rsp,0x10
62c1:	48 8d 0d c9 7e 00 00 	lea    rcx,[rip+0x7ec9]        # e191 <conversions+0x131>
62c8:	be 01 00 00 00       	mov    esi,0x1
62cd:	48 c7 c2 ff ff ff ff 	mov    rdx,0xffffffffffffffff
62d4:	31 c0                	xor    eax,eax
62d6:	4c 8b 74 24 10       	mov    r14,QWORD PTR [rsp+0x10]
62db:	4c 89 f7             	mov    rdi,r14
62de:	db 3c 24             	fstp   TBYTE PTR [rsp]
62e1:	e8 aa bb ff ff       	call   1e90 <__sprintf_chk@plt>
62e6:	4c 89 f7             	mov    rdi,r14
62e9:	e8 92 b8 ff ff       	call   1b80 <strlen@plt>
62ee:	59                   	pop    rcx
62ef:	5e                   	pop    rsi
62f0:	48 3b 44 24 18       	cmp    rax,QWORD PTR [rsp+0x18]
62f5:	49 89 c6             	mov    r14,rax
62f8:	db 6c 24 20          	fld    TBYTE PTR [rsp+0x20]
62fc:	0f 87 a6 05 00 00    	ja     68a8 <human_readable+0x788>
6302:	41 f6 c4 08          	test   r12b,0x8
6306:	0f 84 64 01 00 00    	je     6470 <human_readable+0x350>
630c:	48 8b 04 24          	mov    rax,QWORD PTR [rsp]
6310:	42 80 7c 30 ff 30    	cmp    BYTE PTR [rax+r14*1-0x1],0x30
6316:	0f 85 5c 01 00 00    	jne    6478 <human_readable+0x358>
631c:	d9 05 ca 7e 00 00    	fld    DWORD PTR [rip+0x7eca]        # e1ec <power_letter+0x14>
6322:	41 83 ff 01          	cmp    r15d,0x1
6326:	dc c9                	fmul   st(1),st
6328:	0f 85 82 05 00 00    	jne    68b0 <human_readable+0x790>
632e:	e9 30 05 00 00       	jmp    6863 <human_readable+0x743>
6333:	0f 1f 44 00 00       	nop    DWORD PTR [rax+rax*1+0x0]
6338:	48 85 c9             	test   rcx,rcx
633b:	0f 84 c4 fe ff ff    	je     6205 <human_readable+0xe5>
6341:	48 8b 44 24 10       	mov    rax,QWORD PTR [rsp+0x10]
6346:	31 d2                	xor    edx,edx
6348:	48 f7 f1             	div    rcx
634b:	48 85 d2             	test   rdx,rdx
634e:	49 89 c0             	mov    r8,rax
6351:	0f 85 ae fe ff ff    	jne    6205 <human_readable+0xe5>
6357:	48 89 d8             	mov    rax,rbx
635a:	31 d2                	xor    edx,edx
635c:	49 f7 f0             	div    r8
635f:	48 89 c3             	mov    rbx,rax
6362:	48 8d 04 92          	lea    rax,[rdx+rdx*4]
6366:	31 d2                	xor    edx,edx
6368:	48 89 de             	mov    rsi,rbx
636b:	48 01 c0             	add    rax,rax
636e:	49 f7 f0             	div    r8
6371:	48 01 d2             	add    rdx,rdx
6374:	41 89 c1             	mov    r9d,eax
6377:	49 39 d0             	cmp    r8,rdx
637a:	0f 86 88 05 00 00    	jbe    6908 <human_readable+0x7e8>
6380:	31 ff                	xor    edi,edi
6382:	48 85 d2             	test   rdx,rdx
6385:	40 0f 95 c7          	setne  dil
6389:	44 89 e1             	mov    ecx,r12d
638c:	4c 8b 44 24 08       	mov    r8,QWORD PTR [rsp+0x8]
6391:	bb ff ff ff ff       	mov    ebx,0xffffffff
6396:	83 e1 10             	and    ecx,0x10
6399:	0f 84 c1 03 00 00    	je     6760 <human_readable+0x640>
639f:	44 8b 44 24 34       	mov    r8d,DWORD PTR [rsp+0x34]
63a4:	49 39 f0             	cmp    r8,rsi
63a7:	4d 89 c3             	mov    r11,r8
63aa:	0f 87 70 05 00 00    	ja     6920 <human_readable+0x800>
63b0:	31 db                	xor    ebx,ebx
63b2:	eb 23                	jmp    63d7 <human_readable+0x2b7>
63b4:	0f 1f 40 00          	nop    DWORD PTR [rax+0x0]
63b8:	85 ff                	test   edi,edi
63ba:	40 0f 95 c7          	setne  dil
63be:	40 0f b6 ff          	movzx  edi,dil
63c2:	83 c3 01             	add    ebx,0x1
63c5:	4d 39 d0             	cmp    r8,r10
63c8:	0f 87 0f 03 00 00    	ja     66dd <human_readable+0x5bd>
63ce:	83 fb 08             	cmp    ebx,0x8
63d1:	0f 84 a1 05 00 00    	je     6978 <human_readable+0x858>
63d7:	48 89 f0             	mov    rax,rsi
63da:	31 d2                	xor    edx,edx
63dc:	89 fe                	mov    esi,edi
63de:	49 f7 f0             	div    r8
63e1:	d1 fe                	sar    esi,1
63e3:	49 89 c2             	mov    r10,rax
63e6:	8d 04 92             	lea    eax,[rdx+rdx*4]
63e9:	31 d2                	xor    edx,edx
63eb:	41 8d 04 41          	lea    eax,[r9+rax*2]
63ef:	41 f7 f3             	div    r11d
63f2:	8d 14 56             	lea    edx,[rsi+rdx*2]
63f5:	41 89 c1             	mov    r9d,eax
63f8:	4c 89 d6             	mov    rsi,r10
63fb:	01 d7                	add    edi,edx
63fd:	41 39 d3             	cmp    r11d,edx
6400:	77 b6                	ja     63b8 <human_readable+0x298>
6402:	41 39 fb             	cmp    r11d,edi
6405:	40 0f 92 c7          	setb   dil
6409:	40 0f b6 ff          	movzx  edi,dil
640d:	83 c7 02             	add    edi,0x2
6410:	eb b0                	jmp    63c2 <human_readable+0x2a2>
6412:	66 0f 1f 44 00 00    	nop    WORD PTR [rax+rax*1+0x0]
6418:	41 83 ff 01          	cmp    r15d,0x1
641c:	74 0e                	je     642c <human_readable+0x30c>
641e:	db 2d cc 7d 00 00    	fld    TBYTE PTR [rip+0x7dcc]        # e1f0 <power_letter+0x18>
6424:	df e9                	fucomip st,st(1)
6426:	0f 87 84 02 00 00    	ja     66b0 <human_readable+0x590>
642c:	48 83 ec 10          	sub    rsp,0x10
6430:	48 8d 0d 54 7d 00 00 	lea    rcx,[rip+0x7d54]        # e18b <conversions+0x12b>
6437:	be 01 00 00 00       	mov    esi,0x1
643c:	48 8b 5c 24 10       	mov    rbx,QWORD PTR [rsp+0x10]
6441:	48 c7 c2 ff ff ff ff 	mov    rdx,0xffffffffffffffff
6448:	31 c0                	xor    eax,eax
644a:	db 3c 24             	fstp   TBYTE PTR [rsp]
644d:	31 ed                	xor    ebp,ebp
644f:	48 89 df             	mov    rdi,rbx
6452:	e8 39 ba ff ff       	call   1e90 <__sprintf_chk@plt>
6457:	48 89 df             	mov    rdi,rbx
645a:	bb ff ff ff ff       	mov    ebx,0xffffffff
645f:	e8 1c b7 ff ff       	call   1b80 <strlen@plt>
6464:	5e                   	pop    rsi
6465:	5f                   	pop    rdi
6466:	49 89 c6             	mov    r14,rax
6469:	eb 15                	jmp    6480 <human_readable+0x360>
646b:	0f 1f 44 00 00       	nop    DWORD PTR [rax+rax*1+0x0]
6470:	dd d8                	fstp   st(0)
6472:	eb 0c                	jmp    6480 <human_readable+0x360>
6474:	0f 1f 40 00          	nop    DWORD PTR [rax+0x0]
6478:	dd d8                	fstp   st(0)
647a:	66 0f 1f 44 00 00    	nop    WORD PTR [rax+rax*1+0x0]
6480:	4c 8b 7c 24 08       	mov    r15,QWORD PTR [rsp+0x8]
6485:	48 8b 34 24          	mov    rsi,QWORD PTR [rsp]
6489:	4c 89 f2             	mov    rdx,r14
648c:	4d 29 f7             	sub    r15,r14
648f:	49 29 ee             	sub    r14,rbp
6492:	4c 89 ff             	mov    rdi,r15
6495:	e8 e6 b8 ff ff       	call   1d80 <memmove@plt>
649a:	4d 89 f0             	mov    r8,r14
649d:	4d 01 f8             	add    r8,r15
64a0:	41 f6 c4 04          	test   r12b,0x4
64a4:	0f 85 de 00 00 00    	jne    6588 <human_readable+0x468>
64aa:	41 f6 c4 80          	test   r12b,0x80
64ae:	74 77                	je     6527 <human_readable+0x407>
64b0:	83 fb ff             	cmp    ebx,0xffffffff
64b3:	0f 84 17 03 00 00    	je     67d0 <human_readable+0x6b0>
64b9:	44 89 e0             	mov    eax,r12d
64bc:	25 00 01 00 00       	and    eax,0x100
64c1:	89 c1                	mov    ecx,eax
64c3:	09 d9                	or     ecx,ebx
64c5:	74 60                	je     6527 <human_readable+0x407>
64c7:	41 83 e4 40          	and    r12d,0x40
64cb:	0f 85 97 01 00 00    	jne    6668 <human_readable+0x548>
64d1:	85 db                	test   ebx,ebx
64d3:	0f 84 2d 06 00 00    	je     6b06 <human_readable+0x9e6>
64d9:	83 fb 01             	cmp    ebx,0x1
64dc:	75 0e                	jne    64ec <human_readable+0x3cc>
64de:	44 8b 4c 24 30       	mov    r9d,DWORD PTR [rsp+0x30]
64e3:	45 85 c9             	test   r9d,r9d
64e6:	0f 84 44 04 00 00    	je     6930 <human_readable+0x810>
64ec:	48 8d 0d e5 7c 00 00 	lea    rcx,[rip+0x7ce5]        # e1d8 <power_letter>
64f3:	48 63 db             	movsxd rbx,ebx
64f6:	48 8b 7c 24 08       	mov    rdi,QWORD PTR [rsp+0x8]
64fb:	85 c0                	test   eax,eax
64fd:	0f b6 0c 19          	movzx  ecx,BYTE PTR [rcx+rbx*1]
6501:	48 8d 57 01          	lea    rdx,[rdi+0x1]
6505:	88 0f                	mov    BYTE PTR [rdi],cl
6507:	0f 84 37 04 00 00    	je     6944 <human_readable+0x824>
650d:	44 8b 44 24 30       	mov    r8d,DWORD PTR [rsp+0x30]
6512:	45 85 c0             	test   r8d,r8d
6515:	0f 85 b5 01 00 00    	jne    66d0 <human_readable+0x5b0>
651b:	48 8d 42 01          	lea    rax,[rdx+0x1]
651f:	c6 02 42             	mov    BYTE PTR [rdx],0x42
6522:	48 89 44 24 08       	mov    QWORD PTR [rsp+0x8],rax
6527:	48 8b 44 24 08       	mov    rax,QWORD PTR [rsp+0x8]
652c:	48 8b 8c 24 88 00 00 	mov    rcx,QWORD PTR [rsp+0x88]
6533:	00
6534:	64 48 33 0c 25 28 00 	xor    rcx,QWORD PTR fs:0x28
653b:	00 00
653d:	c6 00 00             	mov    BYTE PTR [rax],0x0
6540:	4c 89 f8             	mov    rax,r15
6543:	0f 85 92 05 00 00    	jne    6adb <human_readable+0x9bb>
6549:	48 81 c4 98 00 00 00 	add    rsp,0x98
6550:	5b                   	pop    rbx
6551:	5d                   	pop    rbp
6552:	41 5c                	pop    r12
6554:	41 5d                	pop    r13
6556:	41 5e                	pop    r14
6558:	41 5f                	pop    r15
655a:	c3                   	ret
655b:	0f 1f 44 00 00       	nop    DWORD PTR [rax+rax*1+0x0]
6560:	48 89 de             	mov    rsi,rbx
6563:	31 d2                	xor    edx,edx
6565:	48 0f af f0          	imul   rsi,rax
6569:	48 89 f0             	mov    rax,rsi
656c:	48 f7 f7             	div    rdi
656f:	48 39 d8             	cmp    rax,rbx
6572:	0f 85 8d fc ff ff    	jne    6205 <human_readable+0xe5>
6578:	31 ff                	xor    edi,edi
657a:	45 31 c9             	xor    r9d,r9d
657d:	e9 07 fe ff ff       	jmp    6389 <human_readable+0x269>
6582:	66 0f 1f 44 00 00    	nop    WORD PTR [rax+rax*1+0x0]
6588:	4d 89 c6             	mov    r14,r8
658b:	4c 89 ef             	mov    rdi,r13
658e:	4c 89 44 24 48       	mov    QWORD PTR [rsp+0x48],r8
6593:	4d 29 fe             	sub    r14,r15
6596:	48 c7 c5 ff ff ff ff 	mov    rbp,0xffffffffffffffff
659d:	e8 de b5 ff ff       	call   1b80 <strlen@plt>
65a2:	48 8d 7c 24 50       	lea    rdi,[rsp+0x50]
65a7:	b9 29 00 00 00       	mov    ecx,0x29
65ac:	4c 89 f2             	mov    rdx,r14
65af:	4c 89 fe             	mov    rsi,r15
65b2:	48 89 44 24 40       	mov    QWORD PTR [rsp+0x40],rax
65b7:	48 89 7c 24 18       	mov    QWORD PTR [rsp+0x18],rdi
65bc:	e8 ff b6 ff ff       	call   1cc0 <__memcpy_chk@plt>
65c1:	44 89 e1             	mov    ecx,r12d
65c4:	89 5c 24 20          	mov    DWORD PTR [rsp+0x20],ebx
65c8:	4d 89 f4             	mov    r12,r14
65cb:	4c 89 eb             	mov    rbx,r13
65ce:	4c 8b 44 24 48       	mov    r8,QWORD PTR [rsp+0x48]
65d3:	4c 8b 7c 24 38       	mov    r15,QWORD PTR [rsp+0x38]
65d8:	4c 8b 6c 24 40       	mov    r13,QWORD PTR [rsp+0x40]
65dd:	41 89 ce             	mov    r14d,ecx
65e0:	eb 40                	jmp    6622 <human_readable+0x502>
65e2:	66 0f 1f 44 00 00    	nop    WORD PTR [rax+rax*1+0x0]
65e8:	48 8b 44 24 18       	mov    rax,QWORD PTR [rsp+0x18]
65ed:	49 29 ec             	sub    r12,rbp
65f0:	49 29 e8             	sub    r8,rbp
65f3:	4c 89 c7             	mov    rdi,r8
65f6:	48 89 ea             	mov    rdx,rbp
65f9:	4a 8d 34 20          	lea    rsi,[rax+r12*1]
65fd:	e8 de b6 ff ff       	call   1ce0 <memcpy@plt>
6602:	4d 85 e4             	test   r12,r12
6605:	49 89 c0             	mov    r8,rax
6608:	0f 84 0a 05 00 00    	je     6b18 <human_readable+0x9f8>
660e:	4d 29 e8             	sub    r8,r13
6611:	4c 89 ea             	mov    rdx,r13
6614:	48 89 de             	mov    rsi,rbx
6617:	4c 89 c7             	mov    rdi,r8
661a:	e8 c1 b6 ff ff       	call   1ce0 <memcpy@plt>
661f:	49 89 c0             	mov    r8,rax
6622:	41 0f b6 07          	movzx  eax,BYTE PTR [r15]
6626:	84 c0                	test   al,al
6628:	74 0d                	je     6637 <human_readable+0x517>
662a:	3c 7f                	cmp    al,0x7f
662c:	0f b6 e8             	movzx  ebp,al
662f:	49 0f 43 ec          	cmovae rbp,r12
6633:	49 83 c7 01          	add    r15,0x1
6637:	4c 39 e5             	cmp    rbp,r12
663a:	76 ac                	jbe    65e8 <human_readable+0x4c8>
663c:	44 89 f0             	mov    eax,r14d
663f:	4d 89 c7             	mov    r15,r8
6642:	4d 89 e6             	mov    r14,r12
6645:	48 8b 74 24 18       	mov    rsi,QWORD PTR [rsp+0x18]
664a:	4d 29 f7             	sub    r15,r14
664d:	4c 89 f2             	mov    rdx,r14
6650:	4c 89 ff             	mov    rdi,r15
6653:	8b 5c 24 20          	mov    ebx,DWORD PTR [rsp+0x20]
6657:	41 89 c4             	mov    r12d,eax
665a:	e8 81 b6 ff ff       	call   1ce0 <memcpy@plt>
665f:	e9 46 fe ff ff       	jmp    64aa <human_readable+0x38a>
6664:	0f 1f 40 00          	nop    DWORD PTR [rax+0x0]
6668:	48 8b 0c 24          	mov    rcx,QWORD PTR [rsp]
666c:	48 8d b9 88 02 00 00 	lea    rdi,[rcx+0x288]
6673:	c6 81 87 02 00 00 20 	mov    BYTE PTR [rcx+0x287],0x20
667a:	48 89 7c 24 08       	mov    QWORD PTR [rsp+0x8],rdi
667f:	e9 4d fe ff ff       	jmp    64d1 <human_readable+0x3b1>
6684:	0f 1f 40 00          	nop    DWORD PTR [rax+0x0]
6688:	48 83 ec 10          	sub    rsp,0x10
668c:	44 89 ff             	mov    edi,r15d
668f:	d9 c0                	fld    st(0)
6691:	db 3c 24             	fstp   TBYTE PTR [rsp]
6694:	db 7c 24 30          	fstp   TBYTE PTR [rsp+0x30]
6698:	e8 b3 f9 ff ff       	call   6050 <adjust_value.part.0>
669d:	58                   	pop    rax
669e:	5a                   	pop    rdx
669f:	db 6c 24 20          	fld    TBYTE PTR [rsp+0x20]
66a3:	e9 11 fc ff ff       	jmp    62b9 <human_readable+0x199>
66a8:	0f 1f 84 00 00 00 00 	nop    DWORD PTR [rax+rax*1+0x0]
66af:	00
66b0:	48 83 ec 10          	sub    rsp,0x10
66b4:	44 89 ff             	mov    edi,r15d
66b7:	db 3c 24             	fstp   TBYTE PTR [rsp]
66ba:	e8 91 f9 ff ff       	call   6050 <adjust_value.part.0>
66bf:	41 58                	pop    r8
66c1:	41 59                	pop    r9
66c3:	e9 64 fd ff ff       	jmp    642c <human_readable+0x30c>
66c8:	0f 1f 84 00 00 00 00 	nop    DWORD PTR [rax+rax*1+0x0]
66cf:	00
66d0:	48 8d 57 02          	lea    rdx,[rdi+0x2]
66d4:	c6 47 01 69          	mov    BYTE PTR [rdi+0x1],0x69
66d8:	e9 3e fe ff ff       	jmp    651b <human_readable+0x3fb>
66dd:	49 83 fa 09          	cmp    r10,0x9
66e1:	0f 87 91 02 00 00    	ja     6978 <human_readable+0x858>
66e7:	41 83 ff 01          	cmp    r15d,0x1
66eb:	0f 84 b1 02 00 00    	je     69a2 <human_readable+0x882>
66f1:	45 85 ff             	test   r15d,r15d
66f4:	0f 94 c2             	sete   dl
66f7:	85 ff                	test   edi,edi
66f9:	41 0f 9f c0          	setg   r8b
66fd:	44 21 c2             	and    edx,r8d
6700:	84 d2                	test   dl,dl
6702:	0f 84 81 02 00 00    	je     6989 <human_readable+0x869>
6708:	44 8d 48 01          	lea    r9d,[rax+0x1]
670c:	41 83 f9 0a          	cmp    r9d,0xa
6710:	0f 84 fb 02 00 00    	je     6a11 <human_readable+0x8f1>
6716:	41 83 c1 30          	add    r9d,0x30
671a:	48 8b 04 24          	mov    rax,QWORD PTR [rsp]
671e:	4c 8d 80 86 02 00 00 	lea    r8,[rax+0x286]
6725:	44 88 88 86 02 00 00 	mov    BYTE PTR [rax+0x286],r9b
672c:	89 e8                	mov    eax,ebp
672e:	49 29 e8             	sub    r8,rbp
6731:	83 fd 08             	cmp    ebp,0x8
6734:	0f 83 87 02 00 00    	jae    69c1 <human_readable+0x8a1>
673a:	40 f6 c5 04          	test   bpl,0x4
673e:	0f 85 82 03 00 00    	jne    6ac6 <human_readable+0x9a6>
6744:	85 c0                	test   eax,eax
6746:	74 0f                	je     6757 <human_readable+0x637>
6748:	41 0f b6 16          	movzx  edx,BYTE PTR [r14]
674c:	a8 02                	test   al,0x2
674e:	41 88 10             	mov    BYTE PTR [r8],dl
6751:	0f 85 89 03 00 00    	jne    6ae0 <human_readable+0x9c0>
6757:	31 ff                	xor    edi,edi
6759:	45 31 c9             	xor    r9d,r9d
675c:	0f 1f 40 00          	nop    DWORD PTR [rax+0x0]
6760:	41 83 ff 01          	cmp    r15d,0x1
6764:	0f 84 76 01 00 00    	je     68e0 <human_readable+0x7c0>
676a:	45 85 ff             	test   r15d,r15d
676d:	75 21                	jne    6790 <human_readable+0x670>
676f:	44 01 cf             	add    edi,r9d
6772:	85 ff                	test   edi,edi
6774:	7e 1a                	jle    6790 <human_readable+0x670>
6776:	48 83 c6 01          	add    rsi,0x1
677a:	85 c9                	test   ecx,ecx
677c:	74 12                	je     6790 <human_readable+0x670>
677e:	8b 44 24 34          	mov    eax,DWORD PTR [rsp+0x34]
6782:	48 39 f0             	cmp    rax,rsi
6785:	0f 84 c5 01 00 00    	je     6950 <human_readable+0x830>
678b:	0f 1f 44 00 00       	nop    DWORD PTR [rax+rax*1+0x0]
6790:	4d 89 c7             	mov    r15,r8
6793:	48 b9 cd cc cc cc cc 	movabs rcx,0xcccccccccccccccd
679a:	cc cc cc
679d:	0f 1f 00             	nop    DWORD PTR [rax]
67a0:	48 89 f0             	mov    rax,rsi
67a3:	49 83 ef 01          	sub    r15,0x1
67a7:	48 f7 e1             	mul    rcx
67aa:	48 c1 ea 03          	shr    rdx,0x3
67ae:	48 8d 04 92          	lea    rax,[rdx+rdx*4]
67b2:	48 01 c0             	add    rax,rax
67b5:	48 29 c6             	sub    rsi,rax
67b8:	83 c6 30             	add    esi,0x30
67bb:	48 85 d2             	test   rdx,rdx
67be:	41 88 37             	mov    BYTE PTR [r15],sil
67c1:	48 89 d6             	mov    rsi,rdx
67c4:	75 da                	jne    67a0 <human_readable+0x680>
67c6:	e9 d5 fc ff ff       	jmp    64a0 <human_readable+0x380>
67cb:	0f 1f 44 00 00       	nop    DWORD PTR [rax+rax*1+0x0]
67d0:	48 8b 4c 24 10       	mov    rcx,QWORD PTR [rsp+0x10]
67d5:	48 83 f9 01          	cmp    rcx,0x1
67d9:	0f 86 a3 01 00 00    	jbe    6982 <human_readable+0x862>
67df:	8b 54 24 34          	mov    edx,DWORD PTR [rsp+0x34]
67e3:	bb 01 00 00 00       	mov    ebx,0x1
67e8:	b8 01 00 00 00       	mov    eax,0x1
67ed:	48 0f af c2          	imul   rax,rdx
67f1:	48 39 c1             	cmp    rcx,rax
67f4:	0f 86 bf fc ff ff    	jbe    64b9 <human_readable+0x399>
67fa:	83 c3 01             	add    ebx,0x1
67fd:	83 fb 08             	cmp    ebx,0x8
6800:	75 eb                	jne    67ed <human_readable+0x6cd>
6802:	e9 b2 fc ff ff       	jmp    64b9 <human_readable+0x399>
6807:	66 0f 1f 84 00 00 00 	nop    WORD PTR [rax+rax*1+0x0]
680e:	00 00
6810:	48 83 ec 10          	sub    rsp,0x10
6814:	48 8d 0d 76 79 00 00 	lea    rcx,[rip+0x7976]        # e191 <conversions+0x131>
681b:	48 c7 c2 ff ff ff ff 	mov    rdx,0xffffffffffffffff
6822:	d9 c0                	fld    st(0)
6824:	db 3c 24             	fstp   TBYTE PTR [rsp]
6827:	4c 8b 74 24 10       	mov    r14,QWORD PTR [rsp+0x10]
682c:	be 01 00 00 00       	mov    esi,0x1
6831:	31 c0                	xor    eax,eax
6833:	4c 89 f7             	mov    rdi,r14
6836:	db 7c 24 30          	fstp   TBYTE PTR [rsp+0x30]
683a:	e8 51 b6 ff ff       	call   1e90 <__sprintf_chk@plt>
683f:	4c 89 f7             	mov    rdi,r14
6842:	e8 39 b3 ff ff       	call   1b80 <strlen@plt>
6847:	49 89 c6             	mov    r14,rax
684a:	58                   	pop    rax
684b:	5a                   	pop    rdx
684c:	4c 3b 74 24 18       	cmp    r14,QWORD PTR [rsp+0x18]
6851:	db 6c 24 20          	fld    TBYTE PTR [rsp+0x20]
6855:	0f 86 a7 fa ff ff    	jbe    6302 <human_readable+0x1e2>
685b:	d9 05 8b 79 00 00    	fld    DWORD PTR [rip+0x798b]        # e1ec <power_letter+0x14>
6861:	dc c9                	fmul   st(1),st
6863:	de f9                	fdivrp st(1),st
6865:	48 83 ec 10          	sub    rsp,0x10
6869:	48 8d 0d 1b 79 00 00 	lea    rcx,[rip+0x791b]        # e18b <conversions+0x12b>
6870:	4c 8b 74 24 10       	mov    r14,QWORD PTR [rsp+0x10]
6875:	48 c7 c2 ff ff ff ff 	mov    rdx,0xffffffffffffffff
687c:	be 01 00 00 00       	mov    esi,0x1
6881:	31 c0                	xor    eax,eax
6883:	31 ed                	xor    ebp,ebp
6885:	4c 89 f7             	mov    rdi,r14
6888:	db 3c 24             	fstp   TBYTE PTR [rsp]
688b:	e8 00 b6 ff ff       	call   1e90 <__sprintf_chk@plt>
6890:	4c 89 f7             	mov    rdi,r14
6893:	e8 e8 b2 ff ff       	call   1b80 <strlen@plt>
6898:	41 5a                	pop    r10
689a:	49 89 c6             	mov    r14,rax
689d:	41 5b                	pop    r11
689f:	e9 dc fb ff ff       	jmp    6480 <human_readable+0x360>
68a4:	0f 1f 40 00          	nop    DWORD PTR [rax+0x0]
68a8:	d9 05 3e 79 00 00    	fld    DWORD PTR [rip+0x793e]        # e1ec <power_letter+0x14>
68ae:	dc c9                	fmul   st(1),st
68b0:	db 2d 3a 79 00 00    	fld    TBYTE PTR [rip+0x793a]        # e1f0 <power_letter+0x18>
68b6:	df ea                	fucomip st,st(2)
68b8:	76 a9                	jbe    6863 <human_readable+0x743>
68ba:	d9 5c 24 18          	fstp   DWORD PTR [rsp+0x18]
68be:	48 83 ec 10          	sub    rsp,0x10
68c2:	44 89 ff             	mov    edi,r15d
68c5:	db 3c 24             	fstp   TBYTE PTR [rsp]
68c8:	e8 83 f7 ff ff       	call   6050 <adjust_value.part.0>
68cd:	5d                   	pop    rbp
68ce:	41 5e                	pop    r14
68d0:	d9 44 24 18          	fld    DWORD PTR [rsp+0x18]
68d4:	eb 8d                	jmp    6863 <human_readable+0x743>
68d6:	66 2e 0f 1f 84 00 00 	nop    WORD PTR cs:[rax+rax*1+0x0]
68dd:	00 00 00
68e0:	48 89 f0             	mov    rax,rsi
68e3:	48 63 ff             	movsxd rdi,edi
68e6:	83 e0 01             	and    eax,0x1
68e9:	48 01 f8             	add    rax,rdi
68ec:	0f 95 c0             	setne  al
68ef:	0f b6 c0             	movzx  eax,al
68f2:	41 01 c1             	add    r9d,eax
68f5:	41 83 f9 05          	cmp    r9d,0x5
68f9:	0f 8f 77 fe ff ff    	jg     6776 <human_readable+0x656>
68ff:	e9 8c fe ff ff       	jmp    6790 <human_readable+0x670>
6904:	0f 1f 40 00          	nop    DWORD PTR [rax+0x0]
6908:	40 0f 92 c7          	setb   dil
690c:	40 0f b6 ff          	movzx  edi,dil
6910:	83 c7 02             	add    edi,0x2
6913:	e9 71 fa ff ff       	jmp    6389 <human_readable+0x269>
6918:	0f 1f 84 00 00 00 00 	nop    DWORD PTR [rax+rax*1+0x0]
691f:	00
6920:	4c 8b 44 24 08       	mov    r8,QWORD PTR [rsp+0x8]
6925:	31 db                	xor    ebx,ebx
6927:	e9 34 fe ff ff       	jmp    6760 <human_readable+0x640>
692c:	0f 1f 40 00          	nop    DWORD PTR [rax+0x0]
6930:	48 8b 5c 24 08       	mov    rbx,QWORD PTR [rsp+0x8]
6935:	85 c0                	test   eax,eax
6937:	48 8d 53 01          	lea    rdx,[rbx+0x1]
693b:	c6 03 6b             	mov    BYTE PTR [rbx],0x6b
693e:	0f 85 d7 fb ff ff    	jne    651b <human_readable+0x3fb>
6944:	48 89 54 24 08       	mov    QWORD PTR [rsp+0x8],rdx
6949:	e9 d9 fb ff ff       	jmp    6527 <human_readable+0x407>
694e:	66 90                	xchg   ax,ax
6950:	83 fb 08             	cmp    ebx,0x8
6953:	0f 84 37 fe ff ff    	je     6790 <human_readable+0x670>
6959:	83 c3 01             	add    ebx,0x1
695c:	41 f6 c4 08          	test   r12b,0x8
6960:	0f 84 bc 00 00 00    	je     6a22 <human_readable+0x902>
6966:	4d 8d 78 ff          	lea    r15,[r8-0x1]
696a:	41 c6 40 ff 31       	mov    BYTE PTR [r8-0x1],0x31
696f:	e9 2c fb ff ff       	jmp    64a0 <human_readable+0x380>
6974:	0f 1f 40 00          	nop    DWORD PTR [rax+0x0]
6978:	4c 8b 44 24 08       	mov    r8,QWORD PTR [rsp+0x8]
697d:	e9 de fd ff ff       	jmp    6760 <human_readable+0x640>
6982:	31 db                	xor    ebx,ebx
6984:	e9 30 fb ff ff       	jmp    64b9 <human_readable+0x399>
6989:	85 c0                	test   eax,eax
698b:	0f 85 85 fd ff ff    	jne    6716 <human_readable+0x5f6>
6991:	41 f6 c4 08          	test   r12b,0x8
6995:	75 1d                	jne    69b4 <human_readable+0x894>
6997:	41 b9 30 00 00 00    	mov    r9d,0x30
699d:	e9 78 fd ff ff       	jmp    671a <human_readable+0x5fa>
69a2:	89 c2                	mov    edx,eax
69a4:	83 e2 01             	and    edx,0x1
69a7:	01 fa                	add    edx,edi
69a9:	83 fa 02             	cmp    edx,0x2
69ac:	0f 9f c2             	setg   dl
69af:	e9 4c fd ff ff       	jmp    6700 <human_readable+0x5e0>
69b4:	4c 8b 44 24 08       	mov    r8,QWORD PTR [rsp+0x8]
69b9:	45 31 c9             	xor    r9d,r9d
69bc:	e9 9f fd ff ff       	jmp    6760 <human_readable+0x640>
69c1:	49 8b 06             	mov    rax,QWORD PTR [r14]
69c4:	4d 89 f1             	mov    r9,r14
69c7:	49 89 00             	mov    QWORD PTR [r8],rax
69ca:	89 e8                	mov    eax,ebp
69cc:	49 8b 54 06 f8       	mov    rdx,QWORD PTR [r14+rax*1-0x8]
69d1:	49 89 54 00 f8       	mov    QWORD PTR [r8+rax*1-0x8],rdx
69d6:	49 8d 50 08          	lea    rdx,[r8+0x8]
69da:	4c 89 c0             	mov    rax,r8
69dd:	48 83 e2 f8          	and    rdx,0xfffffffffffffff8
69e1:	48 29 d0             	sub    rax,rdx
69e4:	49 29 c1             	sub    r9,rax
69e7:	01 e8                	add    eax,ebp
69e9:	83 e0 f8             	and    eax,0xfffffff8
69ec:	83 f8 08             	cmp    eax,0x8
69ef:	0f 82 62 fd ff ff    	jb     6757 <human_readable+0x637>
69f5:	83 e0 f8             	and    eax,0xfffffff8
69f8:	31 ff                	xor    edi,edi
69fa:	41 89 fa             	mov    r10d,edi
69fd:	83 c7 08             	add    edi,0x8
6a00:	4f 8b 1c 11          	mov    r11,QWORD PTR [r9+r10*1]
6a04:	39 c7                	cmp    edi,eax
6a06:	4e 89 1c 12          	mov    QWORD PTR [rdx+r10*1],r11
6a0a:	72 ee                	jb     69fa <human_readable+0x8da>
6a0c:	e9 46 fd ff ff       	jmp    6757 <human_readable+0x637>
6a11:	49 8d 72 01          	lea    rsi,[r10+0x1]
6a15:	48 83 fe 0a          	cmp    rsi,0xa
6a19:	74 55                	je     6a70 <human_readable+0x950>
6a1b:	31 ff                	xor    edi,edi
6a1d:	e9 6f ff ff ff       	jmp    6991 <human_readable+0x871>
6a22:	48 89 e8             	mov    rax,rbp
6a25:	41 c6 40 ff 30       	mov    BYTE PTR [r8-0x1],0x30
6a2a:	48 f7 d0             	not    rax
6a2d:	49 01 c0             	add    r8,rax
6a30:	83 fd 08             	cmp    ebp,0x8
6a33:	89 e8                	mov    eax,ebp
6a35:	73 43                	jae    6a7a <human_readable+0x95a>
6a37:	83 e5 04             	and    ebp,0x4
6a3a:	0f 85 b1 00 00 00    	jne    6af1 <human_readable+0x9d1>
6a40:	85 c0                	test   eax,eax
6a42:	0f 84 1e ff ff ff    	je     6966 <human_readable+0x846>
6a48:	41 0f b6 16          	movzx  edx,BYTE PTR [r14]
6a4c:	a8 02                	test   al,0x2
6a4e:	41 88 10             	mov    BYTE PTR [r8],dl
6a51:	0f 84 0f ff ff ff    	je     6966 <human_readable+0x846>
6a57:	41 0f b7 54 06 fe    	movzx  edx,WORD PTR [r14+rax*1-0x2]
6a5d:	66 41 89 54 00 fe    	mov    WORD PTR [r8+rax*1-0x2],dx
6a63:	e9 fe fe ff ff       	jmp    6966 <human_readable+0x846>
6a68:	0f 1f 84 00 00 00 00 	nop    DWORD PTR [rax+rax*1+0x0]
6a6f:	00
6a70:	4c 8b 44 24 08       	mov    r8,QWORD PTR [rsp+0x8]
6a75:	e9 dd fc ff ff       	jmp    6757 <human_readable+0x637>
6a7a:	49 8b 06             	mov    rax,QWORD PTR [r14]
6a7d:	49 8d 48 08          	lea    rcx,[r8+0x8]
6a81:	48 83 e1 f8          	and    rcx,0xfffffffffffffff8
6a85:	49 89 00             	mov    QWORD PTR [r8],rax
6a88:	89 e8                	mov    eax,ebp
6a8a:	49 8b 54 06 f8       	mov    rdx,QWORD PTR [r14+rax*1-0x8]
6a8f:	49 89 54 00 f8       	mov    QWORD PTR [r8+rax*1-0x8],rdx
6a94:	4c 89 c0             	mov    rax,r8
6a97:	48 29 c8             	sub    rax,rcx
6a9a:	49 29 c6             	sub    r14,rax
6a9d:	01 e8                	add    eax,ebp
6a9f:	83 e0 f8             	and    eax,0xfffffff8
6aa2:	83 f8 08             	cmp    eax,0x8
6aa5:	0f 82 bb fe ff ff    	jb     6966 <human_readable+0x846>
6aab:	83 e0 f8             	and    eax,0xfffffff8
6aae:	31 d2                	xor    edx,edx
6ab0:	89 d6                	mov    esi,edx
6ab2:	83 c2 08             	add    edx,0x8
6ab5:	49 8b 3c 36          	mov    rdi,QWORD PTR [r14+rsi*1]
6ab9:	39 c2                	cmp    edx,eax
6abb:	48 89 3c 31          	mov    QWORD PTR [rcx+rsi*1],rdi
6abf:	72 ef                	jb     6ab0 <human_readable+0x990>
6ac1:	e9 a0 fe ff ff       	jmp    6966 <human_readable+0x846>
6ac6:	41 8b 16             	mov    edx,DWORD PTR [r14]
6ac9:	41 89 10             	mov    DWORD PTR [r8],edx
6acc:	41 8b 54 06 fc       	mov    edx,DWORD PTR [r14+rax*1-0x4]
6ad1:	41 89 54 00 fc       	mov    DWORD PTR [r8+rax*1-0x4],edx
6ad6:	e9 7c fc ff ff       	jmp    6757 <human_readable+0x637>
6adb:	e8 b0 b0 ff ff       	call   1b90 <__stack_chk_fail@plt>
6ae0:	41 0f b7 54 06 fe    	movzx  edx,WORD PTR [r14+rax*1-0x2]
6ae6:	66 41 89 54 00 fe    	mov    WORD PTR [r8+rax*1-0x2],dx
6aec:	e9 66 fc ff ff       	jmp    6757 <human_readable+0x637>
6af1:	41 8b 16             	mov    edx,DWORD PTR [r14]
6af4:	41 89 10             	mov    DWORD PTR [r8],edx
6af7:	41 8b 54 06 fc       	mov    edx,DWORD PTR [r14+rax*1-0x4]
6afc:	41 89 54 00 fc       	mov    DWORD PTR [r8+rax*1-0x4],edx
6b01:	e9 60 fe ff ff       	jmp    6966 <human_readable+0x846>
6b06:	85 c0                	test   eax,eax
6b08:	48 8b 54 24 08       	mov    rdx,QWORD PTR [rsp+0x8]
6b0d:	0f 85 08 fa ff ff    	jne    651b <human_readable+0x3fb>
6b13:	e9 0f fa ff ff       	jmp    6527 <human_readable+0x407>
6b18:	8b 5c 24 20          	mov    ebx,DWORD PTR [rsp+0x20]
6b1c:	49 89 c7             	mov    r15,rax
6b1f:	45 89 f4             	mov    r12d,r14d
6b22:	e9 83 f9 ff ff       	jmp    64aa <human_readable+0x38a>
6b27:	66 0f 1f 84 00 00 00 	nop    WORD PTR [rax+rax*1+0x0]
6b2e:	00 00

0000000000006b30 <human_options>:
6b30:	41 55                	push   r13
6b32:	41 54                	push   r12
6b34:	49 89 f5             	mov    r13,rsi
6b37:	55                   	push   rbp
6b38:	53                   	push   rbx
6b39:	49 89 d4             	mov    r12,rdx
6b3c:	48 89 fb             	mov    rbx,rdi
6b3f:	48 83 ec 18          	sub    rsp,0x18
6b43:	64 48 8b 04 25 28 00 	mov    rax,QWORD PTR fs:0x28
6b4a:	00 00
6b4c:	48 89 44 24 08       	mov    QWORD PTR [rsp+0x8],rax
6b51:	31 c0                	xor    eax,eax
6b53:	48 85 ff             	test   rdi,rdi
6b56:	0f 84 14 01 00 00    	je     6c70 <human_options+0x140>
6b5c:	31 ed                	xor    ebp,ebp
6b5e:	80 3b 27             	cmp    BYTE PTR [rbx],0x27
6b61:	75 09                	jne    6b6c <human_options+0x3c>
6b63:	48 83 c3 01          	add    rbx,0x1
6b67:	bd 04 00 00 00       	mov    ebp,0x4
6b6c:	48 8d 15 5d 76 00 00 	lea    rdx,[rip+0x765d]        # e1d0 <block_size_opts>
6b73:	48 8d 35 26 9f 20 00 	lea    rsi,[rip+0x209f26]        # 210aa0 <block_size_args>
6b7a:	b9 04 00 00 00       	mov    ecx,0x4
6b7f:	48 89 df             	mov    rdi,rbx
6b82:	e8 a9 35 00 00       	call   a130 <argmatch>
6b87:	85 c0                	test   eax,eax
6b89:	78 3d                	js     6bc8 <human_options+0x98>
6b8b:	48 8d 15 3e 76 00 00 	lea    rdx,[rip+0x763e]        # e1d0 <block_size_opts>
6b92:	48 98                	cdqe
6b94:	49 c7 04 24 01 00 00 	mov    QWORD PTR [r12],0x1
6b9b:	00
6b9c:	0b 2c 82             	or     ebp,DWORD PTR [rdx+rax*4]
6b9f:	31 c0                	xor    eax,eax
6ba1:	41 89 6d 00          	mov    DWORD PTR [r13+0x0],ebp
6ba5:	48 8b 4c 24 08       	mov    rcx,QWORD PTR [rsp+0x8]
6baa:	64 48 33 0c 25 28 00 	xor    rcx,QWORD PTR fs:0x28
6bb1:	00 00
6bb3:	0f 85 58 01 00 00    	jne    6d11 <human_options+0x1e1>
6bb9:	48 83 c4 18          	add    rsp,0x18
6bbd:	5b                   	pop    rbx
6bbe:	5d                   	pop    rbp
6bbf:	41 5c                	pop    r12
6bc1:	41 5d                	pop    r13
6bc3:	c3                   	ret
6bc4:	0f 1f 40 00          	nop    DWORD PTR [rax+0x0]
6bc8:	4c 8d 05 dd 75 00 00 	lea    r8,[rip+0x75dd]        # e1ac <conversions+0x14c>
6bcf:	31 d2                	xor    edx,edx
6bd1:	48 89 e6             	mov    rsi,rsp
6bd4:	4c 89 e1             	mov    rcx,r12
6bd7:	48 89 df             	mov    rdi,rbx
6bda:	e8 71 2a 00 00       	call   9650 <xstrtoumax>
6bdf:	85 c0                	test   eax,eax
6be1:	75 45                	jne    6c28 <human_options+0xf8>
6be3:	0f b6 33             	movzx  esi,BYTE PTR [rbx]
6be6:	8d 56 d0             	lea    edx,[rsi-0x30]
6be9:	80 fa 09             	cmp    dl,0x9
6bec:	76 2a                	jbe    6c18 <human_options+0xe8>
6bee:	48 8b 0c 24          	mov    rcx,QWORD PTR [rsp]
6bf2:	48 39 cb             	cmp    rbx,rcx
6bf5:	75 12                	jne    6c09 <human_options+0xd9>
6bf7:	e9 d4 00 00 00       	jmp    6cd0 <human_options+0x1a0>
6bfc:	0f 1f 40 00          	nop    DWORD PTR [rax+0x0]
6c00:	48 39 cb             	cmp    rbx,rcx
6c03:	0f 84 c7 00 00 00    	je     6cd0 <human_options+0x1a0>
6c09:	48 83 c3 01          	add    rbx,0x1
6c0d:	0f b6 3b             	movzx  edi,BYTE PTR [rbx]
6c10:	8d 57 d0             	lea    edx,[rdi-0x30]
6c13:	80 fa 09             	cmp    dl,0x9
6c16:	77 e8                	ja     6c00 <human_options+0xd0>
6c18:	49 8b 14 24          	mov    rdx,QWORD PTR [r12]
6c1c:	41 89 6d 00          	mov    DWORD PTR [r13+0x0],ebp
6c20:	eb 12                	jmp    6c34 <human_options+0x104>
6c22:	66 0f 1f 44 00 00    	nop    WORD PTR [rax+rax*1+0x0]
6c28:	49 8b 14 24          	mov    rdx,QWORD PTR [r12]
6c2c:	41 c7 45 00 00 00 00 	mov    DWORD PTR [r13+0x0],0x0
6c33:	00
6c34:	48 85 d2             	test   rdx,rdx
6c37:	0f 85 68 ff ff ff    	jne    6ba5 <human_options+0x75>
6c3d:	48 8d 3d f8 5b 00 00 	lea    rdi,[rip+0x5bf8]        # c83c <_IO_stdin_used+0x23c>
6c44:	e8 d7 ad ff ff       	call   1a20 <getenv@plt>
6c49:	48 83 f8 01          	cmp    rax,0x1
6c4d:	48 19 c0             	sbb    rax,rax
6c50:	25 00 02 00 00       	and    eax,0x200
6c55:	48 05 00 02 00 00    	add    rax,0x200
6c5b:	49 89 04 24          	mov    QWORD PTR [r12],rax
6c5f:	b8 04 00 00 00       	mov    eax,0x4
6c64:	e9 3c ff ff ff       	jmp    6ba5 <human_options+0x75>
6c69:	0f 1f 80 00 00 00 00 	nop    DWORD PTR [rax+0x0]
6c70:	48 8d 3d 20 75 00 00 	lea    rdi,[rip+0x7520]        # e197 <conversions+0x137>
6c77:	e8 a4 ad ff ff       	call   1a20 <getenv@plt>
6c7c:	48 85 c0             	test   rax,rax
6c7f:	48 89 c3             	mov    rbx,rax
6c82:	0f 85 d4 fe ff ff    	jne    6b5c <human_options+0x2c>
6c88:	48 8d 3d 13 75 00 00 	lea    rdi,[rip+0x7513]        # e1a2 <conversions+0x142>
6c8f:	e8 8c ad ff ff       	call   1a20 <getenv@plt>
6c94:	48 85 c0             	test   rax,rax
6c97:	48 89 c3             	mov    rbx,rax
6c9a:	0f 85 bc fe ff ff    	jne    6b5c <human_options+0x2c>
6ca0:	48 8d 3d 95 5b 00 00 	lea    rdi,[rip+0x5b95]        # c83c <_IO_stdin_used+0x23c>
6ca7:	e8 74 ad ff ff       	call   1a20 <getenv@plt>
6cac:	48 85 c0             	test   rax,rax
6caf:	74 49                	je     6cfa <human_options+0x1ca>
6cb1:	49 c7 04 24 00 02 00 	mov    QWORD PTR [r12],0x200
6cb8:	00
6cb9:	31 c0                	xor    eax,eax
6cbb:	41 c7 45 00 00 00 00 	mov    DWORD PTR [r13+0x0],0x0
6cc2:	00
6cc3:	e9 dd fe ff ff       	jmp    6ba5 <human_options+0x75>
6cc8:	0f 1f 84 00 00 00 00 	nop    DWORD PTR [rax+rax*1+0x0]
6ccf:	00
6cd0:	80 79 ff 42          	cmp    BYTE PTR [rcx-0x1],0x42
6cd4:	74 12                	je     6ce8 <human_options+0x1b8>
6cd6:	40 80 cd 80          	or     bpl,0x80
6cda:	83 cd 20             	or     ebp,0x20
6cdd:	e9 36 ff ff ff       	jmp    6c18 <human_options+0xe8>
6ce2:	66 0f 1f 44 00 00    	nop    WORD PTR [rax+rax*1+0x0]
6ce8:	81 cd 80 01 00 00    	or     ebp,0x180
6cee:	80 79 fe 69          	cmp    BYTE PTR [rcx-0x2],0x69
6cf2:	0f 85 20 ff ff ff    	jne    6c18 <human_options+0xe8>
6cf8:	eb e0                	jmp    6cda <human_options+0x1aa>
6cfa:	49 c7 04 24 00 04 00 	mov    QWORD PTR [r12],0x400
6d01:	00
6d02:	31 c0                	xor    eax,eax
6d04:	41 c7 45 00 00 00 00 	mov    DWORD PTR [r13+0x0],0x0
6d0b:	00
6d0c:	e9 94 fe ff ff       	jmp    6ba5 <human_options+0x75>
6d11:	e8 7a ae ff ff       	call   1b90 <__stack_chk_fail@plt>
6d16:	66 2e 0f 1f 84 00 00 	nop    WORD PTR cs:[rax+rax*1+0x0]
6d1d:	00 00 00

0000000000006d20 <parse_long_options>:
6d20:	41 55                	push   r13
6d22:	41 54                	push   r12
6d24:	4d 89 c5             	mov    r13,r8
6d27:	55                   	push   rbp
6d28:	53                   	push   rbx
6d29:	48 89 d5             	mov    rbp,rdx
6d2c:	49 89 cc             	mov    r12,rcx
6d2f:	48 81 ec e8 00 00 00 	sub    rsp,0xe8
6d36:	84 c0                	test   al,al
6d38:	74 3a                	je     6d74 <parse_long_options+0x54>
6d3a:	0f 29 44 24 60       	movaps XMMWORD PTR [rsp+0x60],xmm0
6d3f:	0f 29 4c 24 70       	movaps XMMWORD PTR [rsp+0x70],xmm1
6d44:	0f 29 94 24 80 00 00 	movaps XMMWORD PTR [rsp+0x80],xmm2
6d4b:	00
6d4c:	0f 29 9c 24 90 00 00 	movaps XMMWORD PTR [rsp+0x90],xmm3
6d53:	00
6d54:	0f 29 a4 24 a0 00 00 	movaps XMMWORD PTR [rsp+0xa0],xmm4
6d5b:	00
6d5c:	0f 29 ac 24 b0 00 00 	movaps XMMWORD PTR [rsp+0xb0],xmm5
6d63:	00
6d64:	0f 29 b4 24 c0 00 00 	movaps XMMWORD PTR [rsp+0xc0],xmm6
6d6b:	00
6d6c:	0f 29 bc 24 d0 00 00 	movaps XMMWORD PTR [rsp+0xd0],xmm7
6d73:	00
6d74:	64 48 8b 04 25 28 00 	mov    rax,QWORD PTR fs:0x28
6d7b:	00 00
6d7d:	48 89 44 24 28       	mov    QWORD PTR [rsp+0x28],rax
6d82:	31 c0                	xor    eax,eax
6d84:	83 ff 02             	cmp    edi,0x2
6d87:	8b 1d 53 a3 20 00    	mov    ebx,DWORD PTR [rip+0x20a353]        # 2110e0 <opterr@@GLIBC_2.2.5>
6d8d:	c7 05 49 a3 20 00 00 	mov    DWORD PTR [rip+0x20a349],0x0        # 2110e0 <opterr@@GLIBC_2.2.5>
6d94:	00 00 00
6d97:	74 37                	je     6dd0 <parse_long_options+0xb0>
6d99:	48 8b 44 24 28       	mov    rax,QWORD PTR [rsp+0x28]
6d9e:	64 48 33 04 25 28 00 	xor    rax,QWORD PTR fs:0x28
6da5:	00 00
6da7:	89 1d 33 a3 20 00    	mov    DWORD PTR [rip+0x20a333],ebx        # 2110e0 <opterr@@GLIBC_2.2.5>
6dad:	c7 05 19 a3 20 00 00 	mov    DWORD PTR [rip+0x20a319],0x0        # 2110d0 <optind@@GLIBC_2.2.5>
6db4:	00 00 00
6db7:	0f 85 9d 00 00 00    	jne    6e5a <parse_long_options+0x13a>
6dbd:	48 81 c4 e8 00 00 00 	add    rsp,0xe8
6dc4:	5b                   	pop    rbx
6dc5:	5d                   	pop    rbp
6dc6:	41 5c                	pop    r12
6dc8:	41 5d                	pop    r13
6dca:	c3                   	ret
6dcb:	0f 1f 44 00 00       	nop    DWORD PTR [rax+rax*1+0x0]
6dd0:	48 8d 0d e9 9c 20 00 	lea    rcx,[rip+0x209ce9]        # 210ac0 <long_options>
6dd7:	48 8d 15 22 74 00 00 	lea    rdx,[rip+0x7422]        # e200 <power_letter+0x28>
6dde:	45 31 c0             	xor    r8d,r8d
6de1:	4c 89 4c 24 08       	mov    QWORD PTR [rsp+0x8],r9
6de6:	e8 b5 ad ff ff       	call   1ba0 <getopt_long@plt>
6deb:	83 f8 ff             	cmp    eax,0xffffffff
6dee:	74 a9                	je     6d99 <parse_long_options+0x79>
6df0:	83 f8 68             	cmp    eax,0x68
6df3:	4c 8b 4c 24 08       	mov    r9,QWORD PTR [rsp+0x8]
6df8:	74 56                	je     6e50 <parse_long_options+0x130>
6dfa:	83 f8 76             	cmp    eax,0x76
6dfd:	75 9a                	jne    6d99 <parse_long_options+0x79>
6dff:	48 8d 84 24 10 01 00 	lea    rax,[rsp+0x110]
6e06:	00
6e07:	48 8b 3d ba a2 20 00 	mov    rdi,QWORD PTR [rip+0x20a2ba]        # 2110c8 <stdout@@GLIBC_2.2.5>
6e0e:	4c 8d 44 24 10       	lea    r8,[rsp+0x10]
6e13:	4c 89 e9             	mov    rcx,r13
6e16:	4c 89 e2             	mov    rdx,r12
6e19:	48 89 ee             	mov    rsi,rbp
6e1c:	48 89 44 24 18       	mov    QWORD PTR [rsp+0x18],rax
6e21:	48 8d 44 24 30       	lea    rax,[rsp+0x30]
6e26:	c7 44 24 10 30 00 00 	mov    DWORD PTR [rsp+0x10],0x30
6e2d:	00
6e2e:	c7 44 24 14 30 00 00 	mov    DWORD PTR [rsp+0x14],0x30
6e35:	00
6e36:	48 89 44 24 20       	mov    QWORD PTR [rsp+0x20],rax
6e3b:	e8 a0 23 00 00       	call   91e0 <version_etc_va>
6e40:	31 ff                	xor    edi,edi
6e42:	e8 c9 af ff ff       	call   1e10 <exit@plt>
6e47:	66 0f 1f 84 00 00 00 	nop    WORD PTR [rax+rax*1+0x0]
6e4e:	00 00
6e50:	31 ff                	xor    edi,edi
6e52:	41 ff d1             	call   r9
6e55:	e9 3f ff ff ff       	jmp    6d99 <parse_long_options+0x79>
6e5a:	e8 31 ad ff ff       	call   1b90 <__stack_chk_fail@plt>
6e5f:	90                   	nop

0000000000006e60 <parse_gnu_standard_options_only>:
6e60:	41 56                	push   r14
6e62:	41 55                	push   r13
6e64:	4d 89 c6             	mov    r14,r8
6e67:	41 54                	push   r12
6e69:	55                   	push   rbp
6e6a:	49 89 d4             	mov    r12,rdx
6e6d:	53                   	push   rbx
6e6e:	49 89 cd             	mov    r13,rcx
6e71:	48 81 ec d0 00 00 00 	sub    rsp,0xd0
6e78:	84 c0                	test   al,al
6e7a:	48 8b ac 24 00 01 00 	mov    rbp,QWORD PTR [rsp+0x100]
6e81:	00
6e82:	74 37                	je     6ebb <parse_gnu_standard_options_only+0x5b>
6e84:	0f 29 44 24 50       	movaps XMMWORD PTR [rsp+0x50],xmm0
6e89:	0f 29 4c 24 60       	movaps XMMWORD PTR [rsp+0x60],xmm1
6e8e:	0f 29 54 24 70       	movaps XMMWORD PTR [rsp+0x70],xmm2
6e93:	0f 29 9c 24 80 00 00 	movaps XMMWORD PTR [rsp+0x80],xmm3
6e9a:	00
6e9b:	0f 29 a4 24 90 00 00 	movaps XMMWORD PTR [rsp+0x90],xmm4
6ea2:	00
6ea3:	0f 29 ac 24 a0 00 00 	movaps XMMWORD PTR [rsp+0xa0],xmm5
6eaa:	00
6eab:	0f 29 b4 24 b0 00 00 	movaps XMMWORD PTR [rsp+0xb0],xmm6
6eb2:	00
6eb3:	0f 29 bc 24 c0 00 00 	movaps XMMWORD PTR [rsp+0xc0],xmm7
6eba:	00
6ebb:	64 48 8b 04 25 28 00 	mov    rax,QWORD PTR fs:0x28
6ec2:	00 00
6ec4:	48 89 44 24 18       	mov    QWORD PTR [rsp+0x18],rax
6ec9:	31 c0                	xor    eax,eax
6ecb:	48 8d 15 cf 78 00 00 	lea    rdx,[rip+0x78cf]        # e7a1 <quoting_style_vals+0xa1>
6ed2:	48 8d 05 27 73 00 00 	lea    rax,[rip+0x7327]        # e200 <power_letter+0x28>
6ed9:	45 84 c9             	test   r9b,r9b
6edc:	48 8d 0d dd 9b 20 00 	lea    rcx,[rip+0x209bdd]        # 210ac0 <long_options>
6ee3:	48 0f 44 d0          	cmove  rdx,rax
6ee7:	45 31 c0             	xor    r8d,r8d
6eea:	8b 1d f0 a1 20 00    	mov    ebx,DWORD PTR [rip+0x20a1f0]        # 2110e0 <opterr@@GLIBC_2.2.5>
6ef0:	c7 05 e6 a1 20 00 01 	mov    DWORD PTR [rip+0x20a1e6],0x1        # 2110e0 <opterr@@GLIBC_2.2.5>
6ef7:	00 00 00
6efa:	e8 a1 ac ff ff       	call   1ba0 <getopt_long@plt>
6eff:	83 f8 ff             	cmp    eax,0xffffffff
6f02:	74 64                	je     6f68 <parse_gnu_standard_options_only+0x108>
6f04:	83 f8 68             	cmp    eax,0x68
6f07:	0f 84 83 00 00 00    	je     6f90 <parse_gnu_standard_options_only+0x130>
6f0d:	83 f8 76             	cmp    eax,0x76
6f10:	75 4e                	jne    6f60 <parse_gnu_standard_options_only+0x100>
6f12:	48 8d 84 24 08 01 00 	lea    rax,[rsp+0x108]
6f19:	00
6f1a:	48 8b 3d a7 a1 20 00 	mov    rdi,QWORD PTR [rip+0x20a1a7]        # 2110c8 <stdout@@GLIBC_2.2.5>
6f21:	49 89 e0             	mov    r8,rsp
6f24:	4c 89 f1             	mov    rcx,r14
6f27:	4c 89 ea             	mov    rdx,r13
6f2a:	4c 89 e6             	mov    rsi,r12
6f2d:	48 89 44 24 08       	mov    QWORD PTR [rsp+0x8],rax
6f32:	48 8d 44 24 20       	lea    rax,[rsp+0x20]
6f37:	c7 04 24 30 00 00 00 	mov    DWORD PTR [rsp],0x30
6f3e:	c7 44 24 04 30 00 00 	mov    DWORD PTR [rsp+0x4],0x30
6f45:	00
6f46:	48 89 44 24 10       	mov    QWORD PTR [rsp+0x10],rax
6f4b:	e8 90 22 00 00       	call   91e0 <version_etc_va>
6f50:	31 ff                	xor    edi,edi
6f52:	e8 b9 ae ff ff       	call   1e10 <exit@plt>
6f57:	66 0f 1f 84 00 00 00 	nop    WORD PTR [rax+rax*1+0x0]
6f5e:	00 00
6f60:	8b 3d ca a0 20 00    	mov    edi,DWORD PTR [rip+0x20a0ca]        # 211030 <exit_failure>
6f66:	ff d5                	call   rbp
6f68:	48 8b 44 24 18       	mov    rax,QWORD PTR [rsp+0x18]
6f6d:	64 48 33 04 25 28 00 	xor    rax,QWORD PTR fs:0x28
6f74:	00 00
6f76:	89 1d 64 a1 20 00    	mov    DWORD PTR [rip+0x20a164],ebx        # 2110e0 <opterr@@GLIBC_2.2.5>
6f7c:	75 18                	jne    6f96 <parse_gnu_standard_options_only+0x136>
6f7e:	48 81 c4 d0 00 00 00 	add    rsp,0xd0
6f85:	5b                   	pop    rbx
6f86:	5d                   	pop    rbp
6f87:	41 5c                	pop    r12
6f89:	41 5d                	pop    r13
6f8b:	41 5e                	pop    r14
6f8d:	c3                   	ret
6f8e:	66 90                	xchg   ax,ax
6f90:	31 ff                	xor    edi,edi
6f92:	ff d5                	call   rbp
6f94:	eb d2                	jmp    6f68 <parse_gnu_standard_options_only+0x108>
6f96:	e8 f5 ab ff ff       	call   1b90 <__stack_chk_fail@plt>
6f9b:	0f 1f 44 00 00       	nop    DWORD PTR [rax+rax*1+0x0]

0000000000006fa0 <set_program_name>:
6fa0:	48 85 ff             	test   rdi,rdi
6fa3:	53                   	push   rbx
6fa4:	74 77                	je     701d <set_program_name+0x7d>
6fa6:	be 2f 00 00 00       	mov    esi,0x2f
6fab:	48 89 fb             	mov    rbx,rdi
6fae:	e8 3d ac ff ff       	call   1bf0 <strrchr@plt>
6fb3:	48 85 c0             	test   rax,rax
6fb6:	74 55                	je     700d <set_program_name+0x6d>
6fb8:	4c 8d 40 01          	lea    r8,[rax+0x1]
6fbc:	4c 89 c2             	mov    rdx,r8
6fbf:	48 29 da             	sub    rdx,rbx
6fc2:	48 83 fa 06          	cmp    rdx,0x6
6fc6:	7e 45                	jle    700d <set_program_name+0x6d>
6fc8:	48 8d 70 fa          	lea    rsi,[rax-0x6]
6fcc:	48 8d 3d 6d 72 00 00 	lea    rdi,[rip+0x726d]        # e240 <power_letter+0x68>
6fd3:	b9 07 00 00 00       	mov    ecx,0x7
6fd8:	f3 a6                	repz cmps BYTE PTR ds:[rsi],BYTE PTR es:[rdi]
6fda:	0f 97 c2             	seta   dl
6fdd:	80 da 00             	sbb    dl,0x0
6fe0:	84 d2                	test   dl,dl
6fe2:	75 29                	jne    700d <set_program_name+0x6d>
6fe4:	48 8d 3d 5d 72 00 00 	lea    rdi,[rip+0x725d]        # e248 <power_letter+0x70>
6feb:	b9 03 00 00 00       	mov    ecx,0x3
6ff0:	4c 89 c6             	mov    rsi,r8
6ff3:	4c 89 c3             	mov    rbx,r8
6ff6:	f3 a6                	repz cmps BYTE PTR ds:[rsi],BYTE PTR es:[rdi]
6ff8:	0f 97 c2             	seta   dl
6ffb:	80 da 00             	sbb    dl,0x0
6ffe:	84 d2                	test   dl,dl
7000:	75 0b                	jne    700d <set_program_name+0x6d>
7002:	48 8d 58 04          	lea    rbx,[rax+0x4]
7006:	48 89 1d b3 a0 20 00 	mov    QWORD PTR [rip+0x20a0b3],rbx        # 2110c0 <__progname@@GLIBC_2.2.5>
700d:	48 89 1d ec a3 20 00 	mov    QWORD PTR [rip+0x20a3ec],rbx        # 211400 <program_name>
7014:	48 89 1d bd a0 20 00 	mov    QWORD PTR [rip+0x20a0bd],rbx        # 2110d8 <__progname_full@@GLIBC_2.2.5>
701b:	5b                   	pop    rbx
701c:	c3                   	ret
701d:	48 8b 0d dc a0 20 00 	mov    rcx,QWORD PTR [rip+0x20a0dc]        # 211100 <stderr@@GLIBC_2.2.5>
7024:	48 8d 3d dd 71 00 00 	lea    rdi,[rip+0x71dd]        # e208 <power_letter+0x30>
702b:	ba 37 00 00 00       	mov    edx,0x37
7030:	be 01 00 00 00       	mov    esi,0x1
7035:	e8 e6 ad ff ff       	call   1e20 <fwrite@plt>
703a:	e8 31 aa ff ff       	call   1a70 <abort@plt>
703f:	90                   	nop

0000000000007040 <gettext_quote.part.1>:
7040:	55                   	push   rbp
7041:	53                   	push   rbx
7042:	48 89 fd             	mov    rbp,rdi
7045:	89 f3                	mov    ebx,esi
7047:	48 83 ec 08          	sub    rsp,0x8
704b:	e8 c0 34 00 00       	call   a510 <locale_charset>
7050:	0f b6 10             	movzx  edx,BYTE PTR [rax]
7053:	83 e2 df             	and    edx,0xffffffdf
7056:	80 fa 55             	cmp    dl,0x55
7059:	74 75                	je     70d0 <gettext_quote.part.1+0x90>
705b:	80 fa 47             	cmp    dl,0x47
705e:	74 20                	je     7080 <gettext_quote.part.1+0x40>
7060:	48 8d 05 f4 71 00 00 	lea    rax,[rip+0x71f4]        # e25b <power_letter+0x83>
7067:	48 8d 15 ef 71 00 00 	lea    rdx,[rip+0x71ef]        # e25d <power_letter+0x85>
706e:	83 fb 09             	cmp    ebx,0x9
7071:	48 0f 45 c2          	cmovne rax,rdx
7075:	48 83 c4 08          	add    rsp,0x8
7079:	5b                   	pop    rbx
707a:	5d                   	pop    rbp
707b:	c3                   	ret
707c:	0f 1f 40 00          	nop    DWORD PTR [rax+0x0]
7080:	0f b6 50 01          	movzx  edx,BYTE PTR [rax+0x1]
7084:	83 e2 df             	and    edx,0xffffffdf
7087:	80 fa 42             	cmp    dl,0x42
708a:	75 d4                	jne    7060 <gettext_quote.part.1+0x20>
708c:	80 78 02 31          	cmp    BYTE PTR [rax+0x2],0x31
7090:	75 ce                	jne    7060 <gettext_quote.part.1+0x20>
7092:	80 78 03 38          	cmp    BYTE PTR [rax+0x3],0x38
7096:	75 c8                	jne    7060 <gettext_quote.part.1+0x20>
7098:	80 78 04 30          	cmp    BYTE PTR [rax+0x4],0x30
709c:	75 c2                	jne    7060 <gettext_quote.part.1+0x20>
709e:	80 78 05 33          	cmp    BYTE PTR [rax+0x5],0x33
70a2:	75 bc                	jne    7060 <gettext_quote.part.1+0x20>
70a4:	80 78 06 30          	cmp    BYTE PTR [rax+0x6],0x30
70a8:	75 b6                	jne    7060 <gettext_quote.part.1+0x20>
70aa:	80 78 07 00          	cmp    BYTE PTR [rax+0x7],0x0
70ae:	75 b0                	jne    7060 <gettext_quote.part.1+0x20>
70b0:	80 7d 00 60          	cmp    BYTE PTR [rbp+0x0],0x60
70b4:	48 8d 05 99 71 00 00 	lea    rax,[rip+0x7199]        # e254 <power_letter+0x7c>
70bb:	48 8d 15 96 71 00 00 	lea    rdx,[rip+0x7196]        # e258 <power_letter+0x80>
70c2:	48 0f 45 c2          	cmovne rax,rdx
70c6:	48 83 c4 08          	add    rsp,0x8
70ca:	5b                   	pop    rbx
70cb:	5d                   	pop    rbp
70cc:	c3                   	ret
70cd:	0f 1f 00             	nop    DWORD PTR [rax]
70d0:	0f b6 50 01          	movzx  edx,BYTE PTR [rax+0x1]
70d4:	83 e2 df             	and    edx,0xffffffdf
70d7:	80 fa 54             	cmp    dl,0x54
70da:	75 84                	jne    7060 <gettext_quote.part.1+0x20>
70dc:	0f b6 50 02          	movzx  edx,BYTE PTR [rax+0x2]
70e0:	83 e2 df             	and    edx,0xffffffdf
70e3:	80 fa 46             	cmp    dl,0x46
70e6:	0f 85 74 ff ff ff    	jne    7060 <gettext_quote.part.1+0x20>
70ec:	80 78 03 2d          	cmp    BYTE PTR [rax+0x3],0x2d
70f0:	0f 85 6a ff ff ff    	jne    7060 <gettext_quote.part.1+0x20>
70f6:	80 78 04 38          	cmp    BYTE PTR [rax+0x4],0x38
70fa:	0f 85 60 ff ff ff    	jne    7060 <gettext_quote.part.1+0x20>
7100:	80 78 05 00          	cmp    BYTE PTR [rax+0x5],0x0
7104:	0f 85 56 ff ff ff    	jne    7060 <gettext_quote.part.1+0x20>
710a:	80 7d 00 60          	cmp    BYTE PTR [rbp+0x0],0x60
710e:	48 8d 05 37 71 00 00 	lea    rax,[rip+0x7137]        # e24c <power_letter+0x74>
7115:	48 8d 15 34 71 00 00 	lea    rdx,[rip+0x7134]        # e250 <power_letter+0x78>
711c:	48 0f 45 c2          	cmovne rax,rdx
7120:	48 83 c4 08          	add    rsp,0x8
7124:	5b                   	pop    rbx
7125:	5d                   	pop    rbp
7126:	c3                   	ret
7127:	66 0f 1f 84 00 00 00 	nop    WORD PTR [rax+rax*1+0x0]
712e:	00 00

0000000000007130 <quotearg_buffer_restyled>:
7130:	41 57                	push   r15
7132:	41 56                	push   r14
7134:	45 89 c7             	mov    r15d,r8d
7137:	41 55                	push   r13
7139:	41 54                	push   r12
713b:	49 89 fe             	mov    r14,rdi
713e:	55                   	push   rbp
713f:	53                   	push   rbx
7140:	44 89 cb             	mov    ebx,r9d
7143:	49 89 f5             	mov    r13,rsi
7146:	48 89 cd             	mov    rbp,rcx
7149:	83 e3 02             	and    ebx,0x2
714c:	48 81 ec b8 00 00 00 	sub    rsp,0xb8
7153:	48 8b 84 24 f0 00 00 	mov    rax,QWORD PTR [rsp+0xf0]
715a:	00
715b:	48 89 54 24 10       	mov    QWORD PTR [rsp+0x10],rdx
7160:	44 89 44 24 08       	mov    DWORD PTR [rsp+0x8],r8d
7165:	44 89 4c 24 78       	mov    DWORD PTR [rsp+0x78],r9d
716a:	48 89 44 24 20       	mov    QWORD PTR [rsp+0x20],rax
716f:	48 8b 84 24 f8 00 00 	mov    rax,QWORD PTR [rsp+0xf8]
7176:	00
7177:	48 89 44 24 68       	mov    QWORD PTR [rsp+0x68],rax
717c:	48 8b 84 24 00 01 00 	mov    rax,QWORD PTR [rsp+0x100]
7183:	00
7184:	48 89 44 24 60       	mov    QWORD PTR [rsp+0x60],rax
7189:	64 48 8b 04 25 28 00 	mov    rax,QWORD PTR fs:0x28
7190:	00 00
7192:	48 89 84 24 a8 00 00 	mov    QWORD PTR [rsp+0xa8],rax
7199:	00
719a:	31 c0                	xor    eax,eax
719c:	e8 cf a9 ff ff       	call   1b70 <__ctype_get_mb_cur_max@plt>
71a1:	41 83 ff 0a          	cmp    r15d,0xa
71a5:	48 89 44 24 58       	mov    QWORD PTR [rsp+0x58],rax
71aa:	0f 87 af 11 00 00    	ja     835f <quotearg_buffer_restyled+0x122f>
71b0:	48 8d 0d 09 71 00 00 	lea    rcx,[rip+0x7109]        # e2c0 <power_letter+0xe8>
71b7:	44 89 fa             	mov    edx,r15d
71ba:	48 63 04 91          	movsxd rax,DWORD PTR [rcx+rdx*4]
71be:	48 01 c8             	add    rax,rcx
71c1:	ff e0                	jmp    rax
71c3:	c6 44 24 0e 01       	mov    BYTE PTR [rsp+0xe],0x1
71c8:	c6 44 24 7c 00       	mov    BYTE PTR [rsp+0x7c],0x0
71cd:	45 31 e4             	xor    r12d,r12d
71d0:	48 c7 44 24 50 00 00 	mov    QWORD PTR [rsp+0x50],0x0
71d7:	00 00
71d9:	c6 44 24 0f 01       	mov    BYTE PTR [rsp+0xf],0x1
71de:	c6 44 24 0d 00       	mov    BYTE PTR [rsp+0xd],0x0
71e3:	48 8d 05 73 70 00 00 	lea    rax,[rip+0x7073]        # e25d <power_letter+0x85>
71ea:	48 c7 44 24 18 01 00 	mov    QWORD PTR [rsp+0x18],0x1
71f1:	00 00
71f3:	45 31 ff             	xor    r15d,r15d
71f6:	c7 44 24 08 02 00 00 	mov    DWORD PTR [rsp+0x8],0x2
71fd:	00
71fe:	48 89 44 24 48       	mov    QWORD PTR [rsp+0x48],rax
7203:	45 31 db             	xor    r11d,r11d
7206:	48 89 e8             	mov    rax,rbp
7209:	45 89 e0             	mov    r8d,r12d
720c:	4c 89 dd             	mov    rbp,r11
720f:	49 89 c3             	mov    r11,rax
7212:	66 0f 1f 44 00 00    	nop    WORD PTR [rax+rax*1+0x0]
7218:	49 39 eb             	cmp    r11,rbp
721b:	41 0f 95 c4          	setne  r12b
721f:	49 83 fb ff          	cmp    r11,0xffffffffffffffff
7223:	75 0d                	jne    7232 <quotearg_buffer_restyled+0x102>
7225:	48 8b 44 24 10       	mov    rax,QWORD PTR [rsp+0x10]
722a:	80 3c 28 00          	cmp    BYTE PTR [rax+rbp*1],0x0
722e:	41 0f 95 c4          	setne  r12b
7232:	45 84 e4             	test   r12b,r12b
7235:	0f 84 55 06 00 00    	je     7890 <quotearg_buffer_restyled+0x760>
723b:	83 7c 24 08 02       	cmp    DWORD PTR [rsp+0x8],0x2
7240:	48 8b 7c 24 10       	mov    rdi,QWORD PTR [rsp+0x10]
7245:	4c 8d 0c 2f          	lea    r9,[rdi+rbp*1]
7249:	0f 95 c0             	setne  al
724c:	22 44 24 0d          	and    al,BYTE PTR [rsp+0xd]
7250:	41 89 c2             	mov    r10d,eax
7253:	0f 84 a7 00 00 00    	je     7300 <quotearg_buffer_restyled+0x1d0>
7259:	48 8b 44 24 18       	mov    rax,QWORD PTR [rsp+0x18]
725e:	48 85 c0             	test   rax,rax
7261:	0f 84 29 04 00 00    	je     7690 <quotearg_buffer_restyled+0x560>
7267:	49 83 fb ff          	cmp    r11,0xffffffffffffffff
726b:	48 8d 5c 05 00       	lea    rbx,[rbp+rax*1+0x0]
7270:	75 2e                	jne    72a0 <quotearg_buffer_restyled+0x170>
7272:	48 83 f8 01          	cmp    rax,0x1
7276:	76 28                	jbe    72a0 <quotearg_buffer_restyled+0x170>
7278:	44 88 44 24 38       	mov    BYTE PTR [rsp+0x38],r8b
727d:	44 88 54 24 30       	mov    BYTE PTR [rsp+0x30],r10b
7282:	4c 89 4c 24 28       	mov    QWORD PTR [rsp+0x28],r9
7287:	e8 f4 a8 ff ff       	call   1b80 <strlen@plt>
728c:	44 0f b6 44 24 38    	movzx  r8d,BYTE PTR [rsp+0x38]
7292:	44 0f b6 54 24 30    	movzx  r10d,BYTE PTR [rsp+0x30]
7298:	49 89 c3             	mov    r11,rax
729b:	4c 8b 4c 24 28       	mov    r9,QWORD PTR [rsp+0x28]
72a0:	4c 39 db             	cmp    rbx,r11
72a3:	44 88 54 24 28       	mov    BYTE PTR [rsp+0x28],r10b
72a8:	0f 87 b2 05 00 00    	ja     7860 <quotearg_buffer_restyled+0x730>
72ae:	48 8b 54 24 18       	mov    rdx,QWORD PTR [rsp+0x18]
72b3:	48 8b 74 24 48       	mov    rsi,QWORD PTR [rsp+0x48]
72b8:	4c 89 cf             	mov    rdi,r9
72bb:	4c 89 5c 24 40       	mov    QWORD PTR [rsp+0x40],r11
72c0:	44 88 44 24 38       	mov    BYTE PTR [rsp+0x38],r8b
72c5:	4c 89 4c 24 30       	mov    QWORD PTR [rsp+0x30],r9
72ca:	e8 c1 a9 ff ff       	call   1c90 <memcmp@plt>
72cf:	85 c0                	test   eax,eax
72d1:	4c 8b 4c 24 30       	mov    r9,QWORD PTR [rsp+0x30]
72d6:	44 0f b6 44 24 38    	movzx  r8d,BYTE PTR [rsp+0x38]
72dc:	4c 8b 5c 24 40       	mov    r11,QWORD PTR [rsp+0x40]
72e1:	0f 85 79 05 00 00    	jne    7860 <quotearg_buffer_restyled+0x730>
72e7:	80 7c 24 0f 00       	cmp    BYTE PTR [rsp+0xf],0x0
72ec:	44 0f b6 54 24 28    	movzx  r10d,BYTE PTR [rsp+0x28]
72f2:	0f 85 7d 0f 00 00    	jne    8275 <quotearg_buffer_restyled+0x1145>
72f8:	0f 1f 84 00 00 00 00 	nop    DWORD PTR [rax+rax*1+0x0]
72ff:	00
7300:	41 0f b6 19          	movzx  ebx,BYTE PTR [r9]
7304:	80 fb 7e             	cmp    bl,0x7e
7307:	0f 87 1b 03 00 00    	ja     7628 <quotearg_buffer_restyled+0x4f8>
730d:	48 8d 0d d8 6f 00 00 	lea    rcx,[rip+0x6fd8]        # e2ec <power_letter+0x114>
7314:	0f b6 d3             	movzx  edx,bl
7317:	48 63 04 91          	movsxd rax,DWORD PTR [rcx+rdx*4]
731b:	48 01 c8             	add    rax,rcx
731e:	ff e0                	jmp    rax
7320:	45 31 d2             	xor    r10d,r10d
7323:	49 83 fb 01          	cmp    r11,0x1
7327:	0f 95 c0             	setne  al
732a:	49 83 fb ff          	cmp    r11,0xffffffffffffffff
732e:	75 0c                	jne    733c <quotearg_buffer_restyled+0x20c>
7330:	48 8b 44 24 10       	mov    rax,QWORD PTR [rsp+0x10]
7335:	80 78 01 00          	cmp    BYTE PTR [rax+0x1],0x0
7339:	0f 95 c0             	setne  al
733c:	83 7c 24 08 02       	cmp    DWORD PTR [rsp+0x8],0x2
7341:	0f 94 c2             	sete   dl
7344:	84 c0                	test   al,al
7346:	0f 84 4c 02 00 00    	je     7598 <quotearg_buffer_restyled+0x468>
734c:	45 31 e4             	xor    r12d,r12d
734f:	31 c0                	xor    eax,eax
7351:	0f 1f 80 00 00 00 00 	nop    DWORD PTR [rax+0x0]
7358:	80 7c 24 0d 01       	cmp    BYTE PTR [rsp+0xd],0x1
735d:	0f 85 0f 01 00 00    	jne    7472 <quotearg_buffer_restyled+0x342>
7363:	84 d2                	test   dl,dl
7365:	0f 85 07 01 00 00    	jne    7472 <quotearg_buffer_restyled+0x342>
736b:	48 8b 74 24 20       	mov    rsi,QWORD PTR [rsp+0x20]
7370:	48 85 f6             	test   rsi,rsi
7373:	74 14                	je     7389 <quotearg_buffer_restyled+0x259>
7375:	89 da                	mov    edx,ebx
7377:	c0 ea 05             	shr    dl,0x5
737a:	0f b6 d2             	movzx  edx,dl
737d:	8b 14 96             	mov    edx,DWORD PTR [rsi+rdx*4]
7380:	0f a3 da             	bt     edx,ebx
7383:	0f 82 4a 01 00 00    	jb     74d3 <quotearg_buffer_restyled+0x3a3>
7389:	45 84 d2             	test   r10b,r10b
738c:	0f 85 41 01 00 00    	jne    74d3 <quotearg_buffer_restyled+0x3a3>
7392:	83 f0 01             	xor    eax,0x1
7395:	48 83 c5 01          	add    rbp,0x1
7399:	44 21 c0             	and    eax,r8d
739c:	84 c0                	test   al,al
739e:	74 20                	je     73c0 <quotearg_buffer_restyled+0x290>
73a0:	4d 39 fd             	cmp    r13,r15
73a3:	76 05                	jbe    73aa <quotearg_buffer_restyled+0x27a>
73a5:	43 c6 04 3e 27       	mov    BYTE PTR [r14+r15*1],0x27
73aa:	49 8d 47 01          	lea    rax,[r15+0x1]
73ae:	49 39 c5             	cmp    r13,rax
73b1:	76 06                	jbe    73b9 <quotearg_buffer_restyled+0x289>
73b3:	43 c6 44 3e 01 27    	mov    BYTE PTR [r14+r15*1+0x1],0x27
73b9:	49 83 c7 02          	add    r15,0x2
73bd:	45 31 c0             	xor    r8d,r8d
73c0:	4d 39 ef             	cmp    r15,r13
73c3:	73 04                	jae    73c9 <quotearg_buffer_restyled+0x299>
73c5:	43 88 1c 3e          	mov    BYTE PTR [r14+r15*1],bl
73c9:	0f b6 7c 24 0e       	movzx  edi,BYTE PTR [rsp+0xe]
73ce:	49 83 c7 01          	add    r15,0x1
73d2:	b8 00 00 00 00       	mov    eax,0x0
73d7:	45 84 e4             	test   r12b,r12b
73da:	0f 44 f8             	cmove  edi,eax
73dd:	40 88 7c 24 0e       	mov    BYTE PTR [rsp+0xe],dil
73e2:	e9 31 fe ff ff       	jmp    7218 <quotearg_buffer_restyled+0xe8>
73e7:	66 0f 1f 84 00 00 00 	nop    WORD PTR [rax+rax*1+0x0]
73ee:	00 00
73f0:	45 31 d2             	xor    r10d,r10d
73f3:	8b 44 24 08          	mov    eax,DWORD PTR [rsp+0x8]
73f7:	83 f8 02             	cmp    eax,0x2
73fa:	0f 84 b8 05 00 00    	je     79b8 <quotearg_buffer_restyled+0x888>
7400:	83 f8 05             	cmp    eax,0x5
7403:	0f 84 6f 05 00 00    	je     7978 <quotearg_buffer_restyled+0x848>
7409:	83 f8 02             	cmp    eax,0x2
740c:	bb 3f 00 00 00       	mov    ebx,0x3f
7411:	0f 94 c2             	sete   dl
7414:	45 31 e4             	xor    r12d,r12d
7417:	31 c0                	xor    eax,eax
7419:	e9 3a ff ff ff       	jmp    7358 <quotearg_buffer_restyled+0x228>
741e:	66 90                	xchg   ax,ax
7420:	45 31 d2             	xor    r10d,r10d
7423:	83 7c 24 08 02       	cmp    DWORD PTR [rsp+0x8],0x2
7428:	0f 84 02 05 00 00    	je     7930 <quotearg_buffer_restyled+0x800>
742e:	44 88 64 24 7c       	mov    BYTE PTR [rsp+0x7c],r12b
7433:	31 d2                	xor    edx,edx
7435:	31 c0                	xor    eax,eax
7437:	bb 27 00 00 00       	mov    ebx,0x27
743c:	e9 17 ff ff ff       	jmp    7358 <quotearg_buffer_restyled+0x228>
7441:	0f 1f 80 00 00 00 00 	nop    DWORD PTR [rax+0x0]
7448:	ba 09 00 00 00       	mov    edx,0x9
744d:	bb 74 00 00 00       	mov    ebx,0x74
7452:	83 7c 24 08 02       	cmp    DWORD PTR [rsp+0x8],0x2
7457:	0f 94 c0             	sete   al
745a:	22 44 24 0f          	and    al,BYTE PTR [rsp+0xf]
745e:	0f 85 4a 01 00 00    	jne    75ae <quotearg_buffer_restyled+0x47e>
7464:	80 7c 24 0d 00       	cmp    BYTE PTR [rsp+0xd],0x0
7469:	75 65                	jne    74d0 <quotearg_buffer_restyled+0x3a0>
746b:	89 d3                	mov    ebx,edx
746d:	45 31 e4             	xor    r12d,r12d
7470:	31 c0                	xor    eax,eax
7472:	80 7c 24 0f 00       	cmp    BYTE PTR [rsp+0xf],0x0
7477:	0f 85 ee fe ff ff    	jne    736b <quotearg_buffer_restyled+0x23b>
747d:	e9 07 ff ff ff       	jmp    7389 <quotearg_buffer_restyled+0x259>
7482:	66 0f 1f 44 00 00    	nop    WORD PTR [rax+rax*1+0x0]
7488:	ba 08 00 00 00       	mov    edx,0x8
748d:	bb 62 00 00 00       	mov    ebx,0x62
7492:	eb d0                	jmp    7464 <quotearg_buffer_restyled+0x334>
7494:	0f 1f 40 00          	nop    DWORD PTR [rax+0x0]
7498:	83 7c 24 08 02       	cmp    DWORD PTR [rsp+0x8],0x2
749d:	0f 84 cd 03 00 00    	je     7870 <quotearg_buffer_restyled+0x740>
74a3:	80 7c 24 0d 00       	cmp    BYTE PTR [rsp+0xd],0x0
74a8:	0f 84 12 02 00 00    	je     76c0 <quotearg_buffer_restyled+0x590>
74ae:	80 7c 24 0f 00       	cmp    BYTE PTR [rsp+0xf],0x0
74b3:	0f 84 07 02 00 00    	je     76c0 <quotearg_buffer_restyled+0x590>
74b9:	48 83 7c 24 18 00    	cmp    QWORD PTR [rsp+0x18],0x0
74bf:	0f 85 b6 03 00 00    	jne    787b <quotearg_buffer_restyled+0x74b>
74c5:	bb 5c 00 00 00       	mov    ebx,0x5c
74ca:	66 0f 1f 44 00 00    	nop    WORD PTR [rax+rax*1+0x0]
74d0:	45 31 e4             	xor    r12d,r12d
74d3:	83 7c 24 08 02       	cmp    DWORD PTR [rsp+0x8],0x2
74d8:	0f 94 c2             	sete   dl
74db:	80 7c 24 0f 00       	cmp    BYTE PTR [rsp+0xf],0x0
74e0:	89 d0                	mov    eax,edx
74e2:	0f 85 50 08 00 00    	jne    7d38 <quotearg_buffer_restyled+0xc08>
74e8:	44 89 c0             	mov    eax,r8d
74eb:	83 f0 01             	xor    eax,0x1
74ee:	20 d0                	and    al,dl
74f0:	74 2f                	je     7521 <quotearg_buffer_restyled+0x3f1>
74f2:	4d 39 fd             	cmp    r13,r15
74f5:	76 05                	jbe    74fc <quotearg_buffer_restyled+0x3cc>
74f7:	43 c6 04 3e 27       	mov    BYTE PTR [r14+r15*1],0x27
74fc:	49 8d 57 01          	lea    rdx,[r15+0x1]
7500:	49 39 d5             	cmp    r13,rdx
7503:	76 06                	jbe    750b <quotearg_buffer_restyled+0x3db>
7505:	43 c6 44 3e 01 24    	mov    BYTE PTR [r14+r15*1+0x1],0x24
750b:	49 8d 57 02          	lea    rdx,[r15+0x2]
750f:	49 39 d5             	cmp    r13,rdx
7512:	76 06                	jbe    751a <quotearg_buffer_restyled+0x3ea>
7514:	43 c6 44 3e 02 27    	mov    BYTE PTR [r14+r15*1+0x2],0x27
751a:	49 83 c7 03          	add    r15,0x3
751e:	41 89 c0             	mov    r8d,eax
7521:	4d 39 fd             	cmp    r13,r15
7524:	76 05                	jbe    752b <quotearg_buffer_restyled+0x3fb>
7526:	43 c6 04 3e 5c       	mov    BYTE PTR [r14+r15*1],0x5c
752b:	49 83 c7 01          	add    r15,0x1
752f:	48 83 c5 01          	add    rbp,0x1
7533:	e9 88 fe ff ff       	jmp    73c0 <quotearg_buffer_restyled+0x290>
7538:	0f 1f 84 00 00 00 00 	nop    DWORD PTR [rax+rax*1+0x0]
753f:	00
7540:	80 7c 24 0d 00       	cmp    BYTE PTR [rsp+0xd],0x0
7545:	0f 85 c8 01 00 00    	jne    7713 <quotearg_buffer_restyled+0x5e3>
754b:	31 d2                	xor    edx,edx
754d:	f6 44 24 78 01       	test   BYTE PTR [rsp+0x78],0x1
7552:	0f 84 13 ff ff ff    	je     746b <quotearg_buffer_restyled+0x33b>
7558:	48 83 c5 01          	add    rbp,0x1
755c:	e9 b7 fc ff ff       	jmp    7218 <quotearg_buffer_restyled+0xe8>
7561:	0f 1f 80 00 00 00 00 	nop    DWORD PTR [rax+0x0]
7568:	83 7c 24 08 02       	cmp    DWORD PTR [rsp+0x8],0x2
756d:	0f 94 c2             	sete   dl
7570:	31 c0                	xor    eax,eax
7572:	e9 e1 fd ff ff       	jmp    7358 <quotearg_buffer_restyled+0x228>
7577:	66 0f 1f 84 00 00 00 	nop    WORD PTR [rax+rax*1+0x0]
757e:	00 00
7580:	ba 07 00 00 00       	mov    edx,0x7
7585:	bb 61 00 00 00       	mov    ebx,0x61
758a:	e9 d5 fe ff ff       	jmp    7464 <quotearg_buffer_restyled+0x334>
758f:	90                   	nop
7590:	83 7c 24 08 02       	cmp    DWORD PTR [rsp+0x8],0x2
7595:	0f 94 c2             	sete   dl
7598:	48 85 ed             	test   rbp,rbp
759b:	0f 85 ab fd ff ff    	jne    734c <quotearg_buffer_restyled+0x21c>
75a1:	0f b6 44 24 0f       	movzx  eax,BYTE PTR [rsp+0xf]
75a6:	20 d0                	and    al,dl
75a8:	0f 84 aa fd ff ff    	je     7358 <quotearg_buffer_restyled+0x228>
75ae:	4c 89 dd             	mov    rbp,r11
75b1:	c7 44 24 08 02 00 00 	mov    DWORD PTR [rsp+0x8],0x2
75b8:	00
75b9:	e9 fb 06 00 00       	jmp    7cb9 <quotearg_buffer_restyled+0xb89>
75be:	66 90                	xchg   ax,ax
75c0:	83 7c 24 08 02       	cmp    DWORD PTR [rsp+0x8],0x2
75c5:	0f 94 c2             	sete   dl
75c8:	45 31 e4             	xor    r12d,r12d
75cb:	eb d4                	jmp    75a1 <quotearg_buffer_restyled+0x471>
75cd:	0f 1f 00             	nop    DWORD PTR [rax]
75d0:	83 7c 24 08 02       	cmp    DWORD PTR [rsp+0x8],0x2
75d5:	bb 20 00 00 00       	mov    ebx,0x20
75da:	0f 94 c2             	sete   dl
75dd:	eb c2                	jmp    75a1 <quotearg_buffer_restyled+0x471>
75df:	90                   	nop
75e0:	ba 0d 00 00 00       	mov    edx,0xd
75e5:	bb 72 00 00 00       	mov    ebx,0x72
75ea:	e9 63 fe ff ff       	jmp    7452 <quotearg_buffer_restyled+0x322>
75ef:	90                   	nop
75f0:	ba 0c 00 00 00       	mov    edx,0xc
75f5:	bb 66 00 00 00       	mov    ebx,0x66
75fa:	e9 65 fe ff ff       	jmp    7464 <quotearg_buffer_restyled+0x334>
75ff:	90                   	nop
7600:	ba 0b 00 00 00       	mov    edx,0xb
7605:	bb 76 00 00 00       	mov    ebx,0x76
760a:	e9 55 fe ff ff       	jmp    7464 <quotearg_buffer_restyled+0x334>
760f:	90                   	nop
7610:	ba 0a 00 00 00       	mov    edx,0xa
7615:	bb 6e 00 00 00       	mov    ebx,0x6e
761a:	e9 33 fe ff ff       	jmp    7452 <quotearg_buffer_restyled+0x322>
761f:	90                   	nop
7620:	45 31 d2             	xor    r10d,r10d
7623:	0f 1f 44 00 00       	nop    DWORD PTR [rax+rax*1+0x0]
7628:	48 83 7c 24 58 01    	cmp    QWORD PTR [rsp+0x58],0x1
762e:	0f 85 a4 03 00 00    	jne    79d8 <quotearg_buffer_restyled+0x8a8>
7634:	4c 89 5c 24 38       	mov    QWORD PTR [rsp+0x38],r11
7639:	44 88 44 24 30       	mov    BYTE PTR [rsp+0x30],r8b
763e:	44 88 54 24 28       	mov    BYTE PTR [rsp+0x28],r10b
7643:	e8 38 a8 ff ff       	call   1e80 <__ctype_b_loc@plt>
7648:	48 8b 08             	mov    rcx,QWORD PTR [rax]
764b:	0f b6 d3             	movzx  edx,bl
764e:	44 0f b6 54 24 28    	movzx  r10d,BYTE PTR [rsp+0x28]
7654:	44 0f b6 44 24 30    	movzx  r8d,BYTE PTR [rsp+0x30]
765a:	4c 8b 5c 24 38       	mov    r11,QWORD PTR [rsp+0x38]
765f:	bf 01 00 00 00       	mov    edi,0x1
7664:	0f b7 04 51          	movzx  eax,WORD PTR [rcx+rdx*2]
7668:	66 25 00 40          	and    ax,0x4000
766c:	41 0f 95 c4          	setne  r12b
7670:	0f 94 c0             	sete   al
7673:	22 44 24 0d          	and    al,BYTE PTR [rsp+0xd]
7677:	84 c0                	test   al,al
7679:	0f 85 92 09 00 00    	jne    8011 <quotearg_buffer_restyled+0xee1>
767f:	83 7c 24 08 02       	cmp    DWORD PTR [rsp+0x8],0x2
7684:	0f 94 c2             	sete   dl
7687:	e9 cc fc ff ff       	jmp    7358 <quotearg_buffer_restyled+0x228>
768c:	0f 1f 40 00          	nop    DWORD PTR [rax+0x0]
7690:	41 0f b6 19          	movzx  ebx,BYTE PTR [r9]
7694:	80 fb 7e             	cmp    bl,0x7e
7697:	77 87                	ja     7620 <quotearg_buffer_restyled+0x4f0>
7699:	48 8d 0d 48 6e 00 00 	lea    rcx,[rip+0x6e48]        # e4e8 <power_letter+0x310>
76a0:	0f b6 d3             	movzx  edx,bl
76a3:	48 63 04 91          	movsxd rax,DWORD PTR [rcx+rdx*4]
76a7:	48 01 c8             	add    rax,rcx
76aa:	ff e0                	jmp    rax
76ac:	0f 1f 40 00          	nop    DWORD PTR [rax+0x0]
76b0:	45 31 d2             	xor    r10d,r10d
76b3:	80 7c 24 0d 00       	cmp    BYTE PTR [rsp+0xd],0x0
76b8:	0f 85 f0 fd ff ff    	jne    74ae <quotearg_buffer_restyled+0x37e>
76be:	66 90                	xchg   ax,ax
76c0:	ba 5c 00 00 00       	mov    edx,0x5c
76c5:	bb 5c 00 00 00       	mov    ebx,0x5c
76ca:	e9 95 fd ff ff       	jmp    7464 <quotearg_buffer_restyled+0x334>
76cf:	90                   	nop
76d0:	ba 0c 00 00 00       	mov    edx,0xc
76d5:	45 31 d2             	xor    r10d,r10d
76d8:	bb 66 00 00 00       	mov    ebx,0x66
76dd:	e9 82 fd ff ff       	jmp    7464 <quotearg_buffer_restyled+0x334>
76e2:	66 0f 1f 44 00 00    	nop    WORD PTR [rax+rax*1+0x0]
76e8:	ba 0a 00 00 00       	mov    edx,0xa
76ed:	45 31 d2             	xor    r10d,r10d
76f0:	bb 6e 00 00 00       	mov    ebx,0x6e
76f5:	e9 58 fd ff ff       	jmp    7452 <quotearg_buffer_restyled+0x322>
76fa:	66 0f 1f 44 00 00    	nop    WORD PTR [rax+rax*1+0x0]
7700:	bb 61 00 00 00       	mov    ebx,0x61
7705:	e9 c6 fd ff ff       	jmp    74d0 <quotearg_buffer_restyled+0x3a0>
770a:	66 0f 1f 44 00 00    	nop    WORD PTR [rax+rax*1+0x0]
7710:	45 31 d2             	xor    r10d,r10d
7713:	83 7c 24 08 02       	cmp    DWORD PTR [rsp+0x8],0x2
7718:	0f 94 c2             	sete   dl
771b:	80 7c 24 0f 00       	cmp    BYTE PTR [rsp+0xf],0x0
7720:	0f 85 94 0b 00 00    	jne    82ba <quotearg_buffer_restyled+0x118a>
7726:	44 89 c0             	mov    eax,r8d
7729:	4c 89 f9             	mov    rcx,r15
772c:	83 f0 01             	xor    eax,0x1
772f:	20 d0                	and    al,dl
7731:	74 2d                	je     7760 <quotearg_buffer_restyled+0x630>
7733:	4d 39 fd             	cmp    r13,r15
7736:	76 05                	jbe    773d <quotearg_buffer_restyled+0x60d>
7738:	43 c6 04 3e 27       	mov    BYTE PTR [r14+r15*1],0x27
773d:	49 8d 4f 01          	lea    rcx,[r15+0x1]
7741:	49 39 cd             	cmp    r13,rcx
7744:	76 06                	jbe    774c <quotearg_buffer_restyled+0x61c>
7746:	43 c6 44 3e 01 24    	mov    BYTE PTR [r14+r15*1+0x1],0x24
774c:	49 8d 4f 02          	lea    rcx,[r15+0x2]
7750:	49 39 cd             	cmp    r13,rcx
7753:	0f 87 30 06 00 00    	ja     7d89 <quotearg_buffer_restyled+0xc59>
7759:	49 8d 4f 03          	lea    rcx,[r15+0x3]
775d:	41 89 c0             	mov    r8d,eax
7760:	49 39 cd             	cmp    r13,rcx
7763:	76 05                	jbe    776a <quotearg_buffer_restyled+0x63a>
7765:	41 c6 04 0e 5c       	mov    BYTE PTR [r14+rcx*1],0x5c
776a:	83 7c 24 08 02       	cmp    DWORD PTR [rsp+0x8],0x2
776f:	4c 8d 79 01          	lea    r15,[rcx+0x1]
7773:	0f 84 00 06 00 00    	je     7d79 <quotearg_buffer_restyled+0xc49>
7779:	48 8d 45 01          	lea    rax,[rbp+0x1]
777d:	4c 39 d8             	cmp    rax,r11
7780:	73 19                	jae    779b <quotearg_buffer_restyled+0x66b>
7782:	48 8b 44 24 10       	mov    rax,QWORD PTR [rsp+0x10]
7787:	0f b6 44 28 01       	movzx  eax,BYTE PTR [rax+rbp*1+0x1]
778c:	88 44 24 28          	mov    BYTE PTR [rsp+0x28],al
7790:	83 e8 30             	sub    eax,0x30
7793:	3c 09                	cmp    al,0x9
7795:	0f 86 2e 08 00 00    	jbe    7fc9 <quotearg_buffer_restyled+0xe99>
779b:	44 89 e0             	mov    eax,r12d
779e:	bb 30 00 00 00       	mov    ebx,0x30
77a3:	45 31 e4             	xor    r12d,r12d
77a6:	e9 ad fb ff ff       	jmp    7358 <quotearg_buffer_restyled+0x228>
77ab:	0f 1f 44 00 00       	nop    DWORD PTR [rax+rax*1+0x0]
77b0:	83 7c 24 08 02       	cmp    DWORD PTR [rsp+0x8],0x2
77b5:	45 89 d4             	mov    r12d,r10d
77b8:	0f 94 c2             	sete   dl
77bb:	45 31 d2             	xor    r10d,r10d
77be:	31 c0                	xor    eax,eax
77c0:	e9 93 fb ff ff       	jmp    7358 <quotearg_buffer_restyled+0x228>
77c5:	0f 1f 00             	nop    DWORD PTR [rax]
77c8:	83 7c 24 08 02       	cmp    DWORD PTR [rsp+0x8],0x2
77cd:	0f 94 c2             	sete   dl
77d0:	45 31 d2             	xor    r10d,r10d
77d3:	e9 c0 fd ff ff       	jmp    7598 <quotearg_buffer_restyled+0x468>
77d8:	0f 1f 84 00 00 00 00 	nop    DWORD PTR [rax+rax*1+0x0]
77df:	00
77e0:	83 7c 24 08 02       	cmp    DWORD PTR [rsp+0x8],0x2
77e5:	0f 94 c2             	sete   dl
77e8:	45 31 d2             	xor    r10d,r10d
77eb:	45 31 e4             	xor    r12d,r12d
77ee:	e9 ae fd ff ff       	jmp    75a1 <quotearg_buffer_restyled+0x471>
77f3:	0f 1f 44 00 00       	nop    DWORD PTR [rax+rax*1+0x0]
77f8:	83 7c 24 08 02       	cmp    DWORD PTR [rsp+0x8],0x2
77fd:	45 89 d4             	mov    r12d,r10d
7800:	bb 20 00 00 00       	mov    ebx,0x20
7805:	0f 94 c2             	sete   dl
7808:	45 31 d2             	xor    r10d,r10d
780b:	e9 91 fd ff ff       	jmp    75a1 <quotearg_buffer_restyled+0x471>
7810:	ba 0d 00 00 00       	mov    edx,0xd
7815:	45 31 d2             	xor    r10d,r10d
7818:	bb 72 00 00 00       	mov    ebx,0x72
781d:	e9 30 fc ff ff       	jmp    7452 <quotearg_buffer_restyled+0x322>
7822:	66 0f 1f 44 00 00    	nop    WORD PTR [rax+rax*1+0x0]
7828:	bb 76 00 00 00       	mov    ebx,0x76
782d:	e9 9e fc ff ff       	jmp    74d0 <quotearg_buffer_restyled+0x3a0>
7832:	66 0f 1f 44 00 00    	nop    WORD PTR [rax+rax*1+0x0]
7838:	ba 09 00 00 00       	mov    edx,0x9
783d:	45 31 d2             	xor    r10d,r10d
7840:	bb 74 00 00 00       	mov    ebx,0x74
7845:	e9 08 fc ff ff       	jmp    7452 <quotearg_buffer_restyled+0x322>
784a:	66 0f 1f 44 00 00    	nop    WORD PTR [rax+rax*1+0x0]
7850:	bb 62 00 00 00       	mov    ebx,0x62
7855:	e9 76 fc ff ff       	jmp    74d0 <quotearg_buffer_restyled+0x3a0>
785a:	66 0f 1f 44 00 00    	nop    WORD PTR [rax+rax*1+0x0]
7860:	45 31 d2             	xor    r10d,r10d
7863:	e9 98 fa ff ff       	jmp    7300 <quotearg_buffer_restyled+0x1d0>
7868:	0f 1f 84 00 00 00 00 	nop    DWORD PTR [rax+rax*1+0x0]
786f:	00
7870:	80 7c 24 0f 00       	cmp    BYTE PTR [rsp+0xf],0x0
7875:	0f 85 65 09 00 00    	jne    81e0 <quotearg_buffer_restyled+0x10b0>
787b:	48 83 c5 01          	add    rbp,0x1
787f:	44 89 c0             	mov    eax,r8d
7882:	45 31 e4             	xor    r12d,r12d
7885:	bb 5c 00 00 00       	mov    ebx,0x5c
788a:	e9 0d fb ff ff       	jmp    739c <quotearg_buffer_restyled+0x26c>
788f:	90                   	nop
7890:	83 7c 24 08 02       	cmp    DWORD PTR [rsp+0x8],0x2
7895:	0f b6 5c 24 0f       	movzx  ebx,BYTE PTR [rsp+0xf]
789a:	45 89 c4             	mov    r12d,r8d
789d:	4c 89 dd             	mov    rbp,r11
78a0:	0f 94 c2             	sete   dl
78a3:	89 d8                	mov    eax,ebx
78a5:	4d 85 ff             	test   r15,r15
78a8:	0f 94 c1             	sete   cl
78ab:	21 d0                	and    eax,edx
78ad:	20 c8                	and    al,cl
78af:	0f 85 61 0a 00 00    	jne    8316 <quotearg_buffer_restyled+0x11e6>
78b5:	89 d8                	mov    eax,ebx
78b7:	83 f0 01             	xor    eax,0x1
78ba:	20 c2                	and    dl,al
78bc:	0f 84 6a 09 00 00    	je     822c <quotearg_buffer_restyled+0x10fc>
78c2:	80 7c 24 7c 00       	cmp    BYTE PTR [rsp+0x7c],0x0
78c7:	0f 84 5d 09 00 00    	je     822a <quotearg_buffer_restyled+0x10fa>
78cd:	80 7c 24 0e 00       	cmp    BYTE PTR [rsp+0xe],0x0
78d2:	0f 85 f5 09 00 00    	jne    82cd <quotearg_buffer_restyled+0x119d>
78d8:	4d 85 ed             	test   r13,r13
78db:	0f 94 c0             	sete   al
78de:	48 83 7c 24 50 00    	cmp    QWORD PTR [rsp+0x50],0x0
78e4:	0f 95 c2             	setne  dl
78e7:	20 d0                	and    al,dl
78e9:	0f 84 1d 0a 00 00    	je     830c <quotearg_buffer_restyled+0x11dc>
78ef:	4c 8b 6c 24 50       	mov    r13,QWORD PTR [rsp+0x50]
78f4:	48 8d 1d 62 69 00 00 	lea    rbx,[rip+0x6962]        # e25d <power_letter+0x85>
78fb:	41 c6 06 27          	mov    BYTE PTR [r14],0x27
78ff:	c7 44 24 08 02 00 00 	mov    DWORD PTR [rsp+0x8],0x2
7906:	00
7907:	41 bf 01 00 00 00    	mov    r15d,0x1
790d:	48 c7 44 24 18 01 00 	mov    QWORD PTR [rsp+0x18],0x1
7914:	00 00
7916:	c6 44 24 0f 00       	mov    BYTE PTR [rsp+0xf],0x0
791b:	48 89 5c 24 48       	mov    QWORD PTR [rsp+0x48],rbx
7920:	88 44 24 7c          	mov    BYTE PTR [rsp+0x7c],al
7924:	e9 da f8 ff ff       	jmp    7203 <quotearg_buffer_restyled+0xd3>
7929:	0f 1f 80 00 00 00 00 	nop    DWORD PTR [rax+0x0]
7930:	80 7c 24 0f 00       	cmp    BYTE PTR [rsp+0xf],0x0
7935:	0f 85 a5 08 00 00    	jne    81e0 <quotearg_buffer_restyled+0x10b0>
793b:	4d 85 ed             	test   r13,r13
793e:	0f 84 fc 03 00 00    	je     7d40 <quotearg_buffer_restyled+0xc10>
7944:	31 d2                	xor    edx,edx
7946:	48 83 7c 24 50 00    	cmp    QWORD PTR [rsp+0x50],0x0
794c:	0f 85 ee 03 00 00    	jne    7d40 <quotearg_buffer_restyled+0xc10>
7952:	4c 89 6c 24 50       	mov    QWORD PTR [rsp+0x50],r13
7957:	49 83 c7 03          	add    r15,0x3
795b:	31 c0                	xor    eax,eax
795d:	44 88 64 24 7c       	mov    BYTE PTR [rsp+0x7c],r12b
7962:	45 31 c0             	xor    r8d,r8d
7965:	49 89 d5             	mov    r13,rdx
7968:	bb 27 00 00 00       	mov    ebx,0x27
796d:	e9 17 fa ff ff       	jmp    7389 <quotearg_buffer_restyled+0x259>
7972:	66 0f 1f 44 00 00    	nop    WORD PTR [rax+rax*1+0x0]
7978:	f6 44 24 78 04       	test   BYTE PTR [rsp+0x78],0x4
797d:	74 21                	je     79a0 <quotearg_buffer_restyled+0x870>
797f:	48 8d 4d 02          	lea    rcx,[rbp+0x2]
7983:	4c 39 d9             	cmp    rcx,r11
7986:	73 18                	jae    79a0 <quotearg_buffer_restyled+0x870>
7988:	48 8b 44 24 10       	mov    rax,QWORD PTR [rsp+0x10]
798d:	80 7c 28 01 3f       	cmp    BYTE PTR [rax+rbp*1+0x1],0x3f
7992:	0f 84 8a 07 00 00    	je     8122 <quotearg_buffer_restyled+0xff2>
7998:	0f 1f 84 00 00 00 00 	nop    DWORD PTR [rax+rax*1+0x0]
799f:	00
79a0:	31 d2                	xor    edx,edx
79a2:	45 31 e4             	xor    r12d,r12d
79a5:	31 c0                	xor    eax,eax
79a7:	bb 3f 00 00 00       	mov    ebx,0x3f
79ac:	e9 a7 f9 ff ff       	jmp    7358 <quotearg_buffer_restyled+0x228>
79b1:	0f 1f 80 00 00 00 00 	nop    DWORD PTR [rax+0x0]
79b8:	80 7c 24 0f 00       	cmp    BYTE PTR [rsp+0xf],0x0
79bd:	0f 85 1d 08 00 00    	jne    81e0 <quotearg_buffer_restyled+0x10b0>
79c3:	45 31 e4             	xor    r12d,r12d
79c6:	31 c0                	xor    eax,eax
79c8:	bb 3f 00 00 00       	mov    ebx,0x3f
79cd:	e9 b7 f9 ff ff       	jmp    7389 <quotearg_buffer_restyled+0x259>
79d2:	66 0f 1f 44 00 00    	nop    WORD PTR [rax+rax*1+0x0]
79d8:	48 8d 84 24 a0 00 00 	lea    rax,[rsp+0xa0]
79df:	00
79e0:	49 83 fb ff          	cmp    r11,0xffffffffffffffff
79e4:	48 c7 84 24 a0 00 00 	mov    QWORD PTR [rsp+0xa0],0x0
79eb:	00 00 00 00 00
79f0:	48 89 44 24 28       	mov    QWORD PTR [rsp+0x28],rax
79f5:	75 2d                	jne    7a24 <quotearg_buffer_restyled+0x8f4>
79f7:	48 8b 7c 24 10       	mov    rdi,QWORD PTR [rsp+0x10]
79fc:	44 88 44 24 40       	mov    BYTE PTR [rsp+0x40],r8b
7a01:	44 88 54 24 38       	mov    BYTE PTR [rsp+0x38],r10b
7a06:	4c 89 4c 24 30       	mov    QWORD PTR [rsp+0x30],r9
7a0b:	e8 70 a1 ff ff       	call   1b80 <strlen@plt>
7a10:	44 0f b6 44 24 40    	movzx  r8d,BYTE PTR [rsp+0x40]
7a16:	44 0f b6 54 24 38    	movzx  r10d,BYTE PTR [rsp+0x38]
7a1c:	49 89 c3             	mov    r11,rax
7a1f:	4c 8b 4c 24 30       	mov    r9,QWORD PTR [rsp+0x30]
7a24:	48 8d 84 24 9c 00 00 	lea    rax,[rsp+0x9c]
7a2b:	00
7a2c:	31 c9                	xor    ecx,ecx
7a2e:	88 5c 24 7e          	mov    BYTE PTR [rsp+0x7e],bl
7a32:	44 88 44 24 7d       	mov    BYTE PTR [rsp+0x7d],r8b
7a37:	48 89 cb             	mov    rbx,rcx
7a3a:	4c 89 8c 24 88 00 00 	mov    QWORD PTR [rsp+0x88],r9
7a41:	00
7a42:	48 89 44 24 38       	mov    QWORD PTR [rsp+0x38],rax
7a47:	44 88 54 24 7f       	mov    BYTE PTR [rsp+0x7f],r10b
7a4c:	4c 89 bc 24 80 00 00 	mov    QWORD PTR [rsp+0x80],r15
7a53:	00
7a54:	4c 89 74 24 40       	mov    QWORD PTR [rsp+0x40],r14
7a59:	4c 89 6c 24 70       	mov    QWORD PTR [rsp+0x70],r13
7a5e:	4c 89 5c 24 30       	mov    QWORD PTR [rsp+0x30],r11
7a63:	48 8b 44 24 10       	mov    rax,QWORD PTR [rsp+0x10]
7a68:	4c 8d 74 1d 00       	lea    r14,[rbp+rbx*1+0x0]
7a6d:	48 8b 54 24 30       	mov    rdx,QWORD PTR [rsp+0x30]
7a72:	48 8b 4c 24 28       	mov    rcx,QWORD PTR [rsp+0x28]
7a77:	48 8b 7c 24 38       	mov    rdi,QWORD PTR [rsp+0x38]
7a7c:	4e 8d 2c 30          	lea    r13,[rax+r14*1]
7a80:	4c 29 f2             	sub    rdx,r14
7a83:	4c 89 ee             	mov    rsi,r13
7a86:	e8 85 25 00 00       	call   a010 <rpl_mbrtowc>
7a8b:	48 85 c0             	test   rax,rax
7a8e:	49 89 c7             	mov    r15,rax
7a91:	74 4e                	je     7ae1 <quotearg_buffer_restyled+0x9b1>
7a93:	48 83 f8 ff          	cmp    rax,0xffffffffffffffff
7a97:	0f 84 18 06 00 00    	je     80b5 <quotearg_buffer_restyled+0xf85>
7a9d:	48 83 f8 fe          	cmp    rax,0xfffffffffffffffe
7aa1:	0f 84 9a 05 00 00    	je     8041 <quotearg_buffer_restyled+0xf11>
7aa7:	83 7c 24 08 02       	cmp    DWORD PTR [rsp+0x8],0x2
7aac:	0f 94 c0             	sete   al
7aaf:	22 44 24 0f          	and    al,BYTE PTR [rsp+0xf]
7ab3:	0f 85 97 01 00 00    	jne    7c50 <quotearg_buffer_restyled+0xb20>
7ab9:	8b bc 24 9c 00 00 00 	mov    edi,DWORD PTR [rsp+0x9c]
7ac0:	e8 8b a3 ff ff       	call   1e50 <iswprint@plt>
7ac5:	48 8b 7c 24 28       	mov    rdi,QWORD PTR [rsp+0x28]
7aca:	85 c0                	test   eax,eax
7acc:	b8 00 00 00 00       	mov    eax,0x0
7ad1:	44 0f 44 e0          	cmove  r12d,eax
7ad5:	4c 01 fb             	add    rbx,r15
7ad8:	e8 63 a3 ff ff       	call   1e40 <mbsinit@plt>
7add:	85 c0                	test   eax,eax
7adf:	74 82                	je     7a63 <quotearg_buffer_restyled+0x933>
7ae1:	44 89 e2             	mov    edx,r12d
7ae4:	48 89 df             	mov    rdi,rbx
7ae7:	44 0f b6 44 24 7d    	movzx  r8d,BYTE PTR [rsp+0x7d]
7aed:	83 f2 01             	xor    edx,0x1
7af0:	0f b6 5c 24 7e       	movzx  ebx,BYTE PTR [rsp+0x7e]
7af5:	44 0f b6 54 24 7f    	movzx  r10d,BYTE PTR [rsp+0x7f]
7afb:	22 54 24 0d          	and    dl,BYTE PTR [rsp+0xd]
7aff:	4c 8b bc 24 80 00 00 	mov    r15,QWORD PTR [rsp+0x80]
7b06:	00
7b07:	4c 8b 74 24 40       	mov    r14,QWORD PTR [rsp+0x40]
7b0c:	4c 8b 6c 24 70       	mov    r13,QWORD PTR [rsp+0x70]
7b11:	4c 8b 5c 24 30       	mov    r11,QWORD PTR [rsp+0x30]
7b16:	48 83 ff 01          	cmp    rdi,0x1
7b1a:	0f 86 fb 05 00 00    	jbe    811b <quotearg_buffer_restyled+0xfeb>
7b20:	48 89 f9             	mov    rcx,rdi
7b23:	31 f6                	xor    esi,esi
7b25:	44 0f b6 4c 24 0f    	movzx  r9d,BYTE PTR [rsp+0xf]
7b2b:	48 01 e9             	add    rcx,rbp
7b2e:	48 8b 7c 24 10       	mov    rdi,QWORD PTR [rsp+0x10]
7b33:	e9 b6 00 00 00       	jmp    7bee <quotearg_buffer_restyled+0xabe>
7b38:	0f 1f 84 00 00 00 00 	nop    DWORD PTR [rax+rax*1+0x0]
7b3f:	00
7b40:	83 7c 24 08 02       	cmp    DWORD PTR [rsp+0x8],0x2
7b45:	0f 94 c0             	sete   al
7b48:	45 84 c9             	test   r9b,r9b
7b4b:	0f 85 af 04 00 00    	jne    8000 <quotearg_buffer_restyled+0xed0>
7b51:	44 89 c6             	mov    esi,r8d
7b54:	83 f6 01             	xor    esi,0x1
7b57:	40 20 f0             	and    al,sil
7b5a:	74 2f                	je     7b8b <quotearg_buffer_restyled+0xa5b>
7b5c:	4d 39 fd             	cmp    r13,r15
7b5f:	76 05                	jbe    7b66 <quotearg_buffer_restyled+0xa36>
7b61:	43 c6 04 3e 27       	mov    BYTE PTR [r14+r15*1],0x27
7b66:	49 8d 77 01          	lea    rsi,[r15+0x1]
7b6a:	49 39 f5             	cmp    r13,rsi
7b6d:	76 06                	jbe    7b75 <quotearg_buffer_restyled+0xa45>
7b6f:	43 c6 44 3e 01 24    	mov    BYTE PTR [r14+r15*1+0x1],0x24
7b75:	49 8d 77 02          	lea    rsi,[r15+0x2]
7b79:	49 39 f5             	cmp    r13,rsi
7b7c:	76 06                	jbe    7b84 <quotearg_buffer_restyled+0xa54>
7b7e:	43 c6 44 3e 02 27    	mov    BYTE PTR [r14+r15*1+0x2],0x27
7b84:	49 83 c7 03          	add    r15,0x3
7b88:	41 89 c0             	mov    r8d,eax
7b8b:	4d 39 fd             	cmp    r13,r15
7b8e:	76 05                	jbe    7b95 <quotearg_buffer_restyled+0xa65>
7b90:	43 c6 04 3e 5c       	mov    BYTE PTR [r14+r15*1],0x5c
7b95:	49 8d 47 01          	lea    rax,[r15+0x1]
7b99:	49 39 c5             	cmp    r13,rax
7b9c:	76 0d                	jbe    7bab <quotearg_buffer_restyled+0xa7b>
7b9e:	89 d8                	mov    eax,ebx
7ba0:	c0 e8 06             	shr    al,0x6
7ba3:	83 c0 30             	add    eax,0x30
7ba6:	43 88 44 3e 01       	mov    BYTE PTR [r14+r15*1+0x1],al
7bab:	49 8d 47 02          	lea    rax,[r15+0x2]
7baf:	49 39 c5             	cmp    r13,rax
7bb2:	76 10                	jbe    7bc4 <quotearg_buffer_restyled+0xa94>
7bb4:	89 d8                	mov    eax,ebx
7bb6:	c0 e8 03             	shr    al,0x3
7bb9:	83 e0 07             	and    eax,0x7
7bbc:	83 c0 30             	add    eax,0x30
7bbf:	43 88 44 3e 02       	mov    BYTE PTR [r14+r15*1+0x2],al
7bc4:	83 e3 07             	and    ebx,0x7
7bc7:	48 83 c5 01          	add    rbp,0x1
7bcb:	49 83 c7 03          	add    r15,0x3
7bcf:	83 c3 30             	add    ebx,0x30
7bd2:	48 39 cd             	cmp    rbp,rcx
7bd5:	0f 83 e5 f7 ff ff    	jae    73c0 <quotearg_buffer_restyled+0x290>
7bdb:	89 d6                	mov    esi,edx
7bdd:	4d 39 fd             	cmp    r13,r15
7be0:	76 04                	jbe    7be6 <quotearg_buffer_restyled+0xab6>
7be2:	43 88 1c 3e          	mov    BYTE PTR [r14+r15*1],bl
7be6:	0f b6 1c 2f          	movzx  ebx,BYTE PTR [rdi+rbp*1]
7bea:	49 83 c7 01          	add    r15,0x1
7bee:	84 d2                	test   dl,dl
7bf0:	0f 85 4a ff ff ff    	jne    7b40 <quotearg_buffer_restyled+0xa10>
7bf6:	89 f0                	mov    eax,esi
7bf8:	83 f0 01             	xor    eax,0x1
7bfb:	44 21 c0             	and    eax,r8d
7bfe:	45 84 d2             	test   r10b,r10b
7c01:	74 0e                	je     7c11 <quotearg_buffer_restyled+0xae1>
7c03:	4d 39 fd             	cmp    r13,r15
7c06:	76 05                	jbe    7c0d <quotearg_buffer_restyled+0xadd>
7c08:	43 c6 04 3e 5c       	mov    BYTE PTR [r14+r15*1],0x5c
7c0d:	49 83 c7 01          	add    r15,0x1
7c11:	48 83 c5 01          	add    rbp,0x1
7c15:	48 39 cd             	cmp    rbp,rcx
7c18:	0f 83 7e f7 ff ff    	jae    739c <quotearg_buffer_restyled+0x26c>
7c1e:	84 c0                	test   al,al
7c20:	0f 84 f8 03 00 00    	je     801e <quotearg_buffer_restyled+0xeee>
7c26:	4d 39 fd             	cmp    r13,r15
7c29:	76 05                	jbe    7c30 <quotearg_buffer_restyled+0xb00>
7c2b:	43 c6 04 3e 27       	mov    BYTE PTR [r14+r15*1],0x27
7c30:	49 8d 47 01          	lea    rax,[r15+0x1]
7c34:	49 39 c5             	cmp    r13,rax
7c37:	76 06                	jbe    7c3f <quotearg_buffer_restyled+0xb0f>
7c39:	43 c6 44 3e 01 27    	mov    BYTE PTR [r14+r15*1+0x1],0x27
7c3f:	49 83 c7 02          	add    r15,0x2
7c43:	45 31 d2             	xor    r10d,r10d
7c46:	45 31 c0             	xor    r8d,r8d
7c49:	eb 92                	jmp    7bdd <quotearg_buffer_restyled+0xaad>
7c4b:	0f 1f 44 00 00       	nop    DWORD PTR [rax+rax*1+0x0]
7c50:	49 83 ff 01          	cmp    r15,0x1
7c54:	0f 84 5f fe ff ff    	je     7ab9 <quotearg_buffer_restyled+0x989>
7c5a:	48 8b 7c 24 10       	mov    rdi,QWORD PTR [rsp+0x10]
7c5f:	4a 8d 0c 3f          	lea    rcx,[rdi+r15*1]
7c63:	4a 8d 54 37 01       	lea    rdx,[rdi+r14*1+0x1]
7c68:	4e 8d 04 31          	lea    r8,[rcx+r14*1]
7c6c:	eb 0f                	jmp    7c7d <quotearg_buffer_restyled+0xb4d>
7c6e:	66 90                	xchg   ax,ax
7c70:	48 83 c2 01          	add    rdx,0x1
7c74:	49 39 d0             	cmp    r8,rdx
7c77:	0f 84 3c fe ff ff    	je     7ab9 <quotearg_buffer_restyled+0x989>
7c7d:	0f b6 0a             	movzx  ecx,BYTE PTR [rdx]
7c80:	83 e9 5b             	sub    ecx,0x5b
7c83:	80 f9 21             	cmp    cl,0x21
7c86:	77 e8                	ja     7c70 <quotearg_buffer_restyled+0xb40>
7c88:	be 01 00 00 00       	mov    esi,0x1
7c8d:	48 d3 e6             	shl    rsi,cl
7c90:	48 89 f1             	mov    rcx,rsi
7c93:	48 be 2b 00 00 00 02 	movabs rsi,0x20000002b
7c9a:	00 00 00
7c9d:	48 85 f1             	test   rcx,rsi
7ca0:	74 ce                	je     7c70 <quotearg_buffer_restyled+0xb40>
7ca2:	4c 8b 74 24 40       	mov    r14,QWORD PTR [rsp+0x40]
7ca7:	4c 8b 6c 24 70       	mov    r13,QWORD PTR [rsp+0x70]
7cac:	48 8b 6c 24 30       	mov    rbp,QWORD PTR [rsp+0x30]
7cb1:	c7 44 24 08 02 00 00 	mov    DWORD PTR [rsp+0x8],0x2
7cb8:	00
7cb9:	80 7c 24 0d 00       	cmp    BYTE PTR [rsp+0xd],0x0
7cbe:	74 10                	je     7cd0 <quotearg_buffer_restyled+0xba0>
7cc0:	84 c0                	test   al,al
7cc2:	b8 04 00 00 00       	mov    eax,0x4
7cc7:	0f 44 44 24 08       	cmove  eax,DWORD PTR [rsp+0x8]
7ccc:	89 44 24 08          	mov    DWORD PTR [rsp+0x8],eax
7cd0:	48 83 ec 08          	sub    rsp,0x8
7cd4:	48 89 e9             	mov    rcx,rbp
7cd7:	4c 89 ee             	mov    rsi,r13
7cda:	ff 74 24 68          	push   QWORD PTR [rsp+0x68]
7cde:	ff 74 24 78          	push   QWORD PTR [rsp+0x78]
7ce2:	4c 89 f7             	mov    rdi,r14
7ce5:	6a 00                	push   0x0
7ce7:	44 8b 8c 24 98 00 00 	mov    r9d,DWORD PTR [rsp+0x98]
7cee:	00
7cef:	44 8b 44 24 28       	mov    r8d,DWORD PTR [rsp+0x28]
7cf4:	48 8b 54 24 30       	mov    rdx,QWORD PTR [rsp+0x30]
7cf9:	41 83 e1 fd          	and    r9d,0xfffffffd
7cfd:	e8 2e f4 ff ff       	call   7130 <quotearg_buffer_restyled>
7d02:	48 83 c4 20          	add    rsp,0x20
7d06:	49 89 c7             	mov    r15,rax
7d09:	48 8b 9c 24 a8 00 00 	mov    rbx,QWORD PTR [rsp+0xa8]
7d10:	00
7d11:	64 48 33 1c 25 28 00 	xor    rbx,QWORD PTR fs:0x28
7d18:	00 00
7d1a:	4c 89 f8             	mov    rax,r15
7d1d:	0f 85 00 06 00 00    	jne    8323 <quotearg_buffer_restyled+0x11f3>
7d23:	48 81 c4 b8 00 00 00 	add    rsp,0xb8
7d2a:	5b                   	pop    rbx
7d2b:	5d                   	pop    rbp
7d2c:	41 5c                	pop    r12
7d2e:	41 5d                	pop    r13
7d30:	41 5e                	pop    r14
7d32:	41 5f                	pop    r15
7d34:	c3                   	ret
7d35:	0f 1f 00             	nop    DWORD PTR [rax]
7d38:	4c 89 dd             	mov    rbp,r11
7d3b:	e9 79 ff ff ff       	jmp    7cb9 <quotearg_buffer_restyled+0xb89>
7d40:	4d 39 fd             	cmp    r13,r15
7d43:	76 05                	jbe    7d4a <quotearg_buffer_restyled+0xc1a>
7d45:	43 c6 04 3e 27       	mov    BYTE PTR [r14+r15*1],0x27
7d4a:	49 8d 47 01          	lea    rax,[r15+0x1]
7d4e:	49 39 c5             	cmp    r13,rax
7d51:	76 06                	jbe    7d59 <quotearg_buffer_restyled+0xc29>
7d53:	43 c6 44 3e 01 5c    	mov    BYTE PTR [r14+r15*1+0x1],0x5c
7d59:	49 8d 47 02          	lea    rax,[r15+0x2]
7d5d:	49 39 c5             	cmp    r13,rax
7d60:	0f 86 ec 05 00 00    	jbe    8352 <quotearg_buffer_restyled+0x1222>
7d66:	4c 89 ea             	mov    rdx,r13
7d69:	43 c6 44 3e 02 27    	mov    BYTE PTR [r14+r15*1+0x2],0x27
7d6f:	4c 8b 6c 24 50       	mov    r13,QWORD PTR [rsp+0x50]
7d74:	e9 d9 fb ff ff       	jmp    7952 <quotearg_buffer_restyled+0x822>
7d79:	44 89 e0             	mov    eax,r12d
7d7c:	bb 30 00 00 00       	mov    ebx,0x30
7d81:	45 31 e4             	xor    r12d,r12d
7d84:	e9 00 f6 ff ff       	jmp    7389 <quotearg_buffer_restyled+0x259>
7d89:	43 c6 44 3e 02 27    	mov    BYTE PTR [r14+r15*1+0x2],0x27
7d8f:	e9 c5 f9 ff ff       	jmp    7759 <quotearg_buffer_restyled+0x629>
7d94:	85 db                	test   ebx,ebx
7d96:	0f 85 27 f4 ff ff    	jne    71c3 <quotearg_buffer_restyled+0x93>
7d9c:	c6 44 24 0d 01       	mov    BYTE PTR [rsp+0xd],0x1
7da1:	4d 85 ed             	test   r13,r13
7da4:	0f 85 90 05 00 00    	jne    833a <quotearg_buffer_restyled+0x120a>
7daa:	48 8d 05 ac 64 00 00 	lea    rax,[rip+0x64ac]        # e25d <power_letter+0x85>
7db1:	48 c7 44 24 50 00 00 	mov    QWORD PTR [rsp+0x50],0x0
7db8:	00 00
7dba:	c6 44 24 0e 01       	mov    BYTE PTR [rsp+0xe],0x1
7dbf:	c6 44 24 7c 00       	mov    BYTE PTR [rsp+0x7c],0x0
7dc4:	45 31 e4             	xor    r12d,r12d
7dc7:	c6 44 24 0f 00       	mov    BYTE PTR [rsp+0xf],0x0
7dcc:	48 c7 44 24 18 01 00 	mov    QWORD PTR [rsp+0x18],0x1
7dd3:	00 00
7dd5:	48 89 44 24 48       	mov    QWORD PTR [rsp+0x48],rax
7dda:	41 bf 01 00 00 00    	mov    r15d,0x1
7de0:	c7 44 24 08 02 00 00 	mov    DWORD PTR [rsp+0x8],0x2
7de7:	00
7de8:	e9 16 f4 ff ff       	jmp    7203 <quotearg_buffer_restyled+0xd3>
7ded:	0f 1f 00             	nop    DWORD PTR [rax]
7df0:	85 db                	test   ebx,ebx
7df2:	0f 85 f5 03 00 00    	jne    81ed <quotearg_buffer_restyled+0x10bd>
7df8:	4d 85 ed             	test   r13,r13
7dfb:	0f 84 25 02 00 00    	je     8026 <quotearg_buffer_restyled+0xef6>
7e01:	41 c6 06 22          	mov    BYTE PTR [r14],0x22
7e05:	c6 44 24 0e 01       	mov    BYTE PTR [rsp+0xe],0x1
7e0a:	45 31 e4             	xor    r12d,r12d
7e0d:	c6 44 24 7c 00       	mov    BYTE PTR [rsp+0x7c],0x0
7e12:	48 c7 44 24 50 00 00 	mov    QWORD PTR [rsp+0x50],0x0
7e19:	00 00
7e1b:	48 8d 05 39 64 00 00 	lea    rax,[rip+0x6439]        # e25b <power_letter+0x83>
7e22:	c6 44 24 0f 00       	mov    BYTE PTR [rsp+0xf],0x0
7e27:	c6 44 24 0d 01       	mov    BYTE PTR [rsp+0xd],0x1
7e2c:	48 c7 44 24 18 01 00 	mov    QWORD PTR [rsp+0x18],0x1
7e33:	00 00
7e35:	41 bf 01 00 00 00    	mov    r15d,0x1
7e3b:	48 89 44 24 48       	mov    QWORD PTR [rsp+0x48],rax
7e40:	e9 be f3 ff ff       	jmp    7203 <quotearg_buffer_restyled+0xd3>
7e45:	48 8d 05 0f 64 00 00 	lea    rax,[rip+0x640f]        # e25b <power_letter+0x83>
7e4c:	c6 44 24 0e 01       	mov    BYTE PTR [rsp+0xe],0x1
7e51:	c6 44 24 7c 00       	mov    BYTE PTR [rsp+0x7c],0x0
7e56:	45 31 e4             	xor    r12d,r12d
7e59:	48 c7 44 24 50 00 00 	mov    QWORD PTR [rsp+0x50],0x0
7e60:	00 00
7e62:	c6 44 24 0f 01       	mov    BYTE PTR [rsp+0xf],0x1
7e67:	c6 44 24 0d 01       	mov    BYTE PTR [rsp+0xd],0x1
7e6c:	48 c7 44 24 18 01 00 	mov    QWORD PTR [rsp+0x18],0x1
7e73:	00 00
7e75:	45 31 ff             	xor    r15d,r15d
7e78:	48 89 44 24 48       	mov    QWORD PTR [rsp+0x48],rax
7e7d:	c7 44 24 08 05 00 00 	mov    DWORD PTR [rsp+0x8],0x5
7e84:	00
7e85:	e9 79 f3 ff ff       	jmp    7203 <quotearg_buffer_restyled+0xd3>
7e8a:	c6 44 24 0e 01       	mov    BYTE PTR [rsp+0xe],0x1
7e8f:	c6 44 24 7c 00       	mov    BYTE PTR [rsp+0x7c],0x0
7e94:	45 31 e4             	xor    r12d,r12d
7e97:	48 c7 44 24 50 00 00 	mov    QWORD PTR [rsp+0x50],0x0
7e9e:	00 00
7ea0:	c6 44 24 0f 00       	mov    BYTE PTR [rsp+0xf],0x0
7ea5:	45 31 ff             	xor    r15d,r15d
7ea8:	c6 44 24 0d 01       	mov    BYTE PTR [rsp+0xd],0x1
7ead:	48 c7 44 24 18 00 00 	mov    QWORD PTR [rsp+0x18],0x0
7eb4:	00 00
7eb6:	48 c7 44 24 48 00 00 	mov    QWORD PTR [rsp+0x48],0x0
7ebd:	00 00
7ebf:	e9 3f f3 ff ff       	jmp    7203 <quotearg_buffer_restyled+0xd3>
7ec4:	83 7c 24 08 0a       	cmp    DWORD PTR [rsp+0x8],0xa
7ec9:	74 56                	je     7f21 <quotearg_buffer_restyled+0xdf1>
7ecb:	48 8d 35 8d 63 00 00 	lea    rsi,[rip+0x638d]        # e25f <power_letter+0x87>
7ed2:	31 ff                	xor    edi,edi
7ed4:	ba 05 00 00 00       	mov    edx,0x5
7ed9:	e8 82 9c ff ff       	call   1b60 <dcgettext@plt>
7ede:	48 89 c1             	mov    rcx,rax
7ee1:	48 89 44 24 68       	mov    QWORD PTR [rsp+0x68],rax
7ee6:	48 8d 05 72 63 00 00 	lea    rax,[rip+0x6372]        # e25f <power_letter+0x87>
7eed:	48 39 c1             	cmp    rcx,rax
7ef0:	0f 84 98 03 00 00    	je     828e <quotearg_buffer_restyled+0x115e>
7ef6:	48 8d 35 60 63 00 00 	lea    rsi,[rip+0x6360]        # e25d <power_letter+0x85>
7efd:	31 ff                	xor    edi,edi
7eff:	ba 05 00 00 00       	mov    edx,0x5
7f04:	e8 57 9c ff ff       	call   1b60 <dcgettext@plt>
7f09:	48 89 c1             	mov    rcx,rax
7f0c:	48 89 44 24 60       	mov    QWORD PTR [rsp+0x60],rax
7f11:	48 8d 05 45 63 00 00 	lea    rax,[rip+0x6345]        # e25d <power_letter+0x85>
7f18:	48 39 c1             	cmp    rcx,rax
7f1b:	0f 84 83 03 00 00    	je     82a4 <quotearg_buffer_restyled+0x1174>
7f21:	45 31 ff             	xor    r15d,r15d
7f24:	85 db                	test   ebx,ebx
7f26:	0f 84 c1 01 00 00    	je     80ed <quotearg_buffer_restyled+0xfbd>
7f2c:	85 db                	test   ebx,ebx
7f2e:	48 8b 5c 24 60       	mov    rbx,QWORD PTR [rsp+0x60]
7f33:	0f 95 44 24 0f       	setne  BYTE PTR [rsp+0xf]
7f38:	45 31 e4             	xor    r12d,r12d
7f3b:	48 89 df             	mov    rdi,rbx
7f3e:	e8 3d 9c ff ff       	call   1b80 <strlen@plt>
7f43:	48 89 5c 24 48       	mov    QWORD PTR [rsp+0x48],rbx
7f48:	48 89 44 24 18       	mov    QWORD PTR [rsp+0x18],rax
7f4d:	c6 44 24 0e 01       	mov    BYTE PTR [rsp+0xe],0x1
7f52:	c6 44 24 7c 00       	mov    BYTE PTR [rsp+0x7c],0x0
7f57:	48 c7 44 24 50 00 00 	mov    QWORD PTR [rsp+0x50],0x0
7f5e:	00 00
7f60:	c6 44 24 0d 01       	mov    BYTE PTR [rsp+0xd],0x1
7f65:	e9 99 f2 ff ff       	jmp    7203 <quotearg_buffer_restyled+0xd3>
7f6a:	c6 44 24 0e 01       	mov    BYTE PTR [rsp+0xe],0x1
7f6f:	c6 44 24 7c 00       	mov    BYTE PTR [rsp+0x7c],0x0
7f74:	45 31 e4             	xor    r12d,r12d
7f77:	48 c7 44 24 50 00 00 	mov    QWORD PTR [rsp+0x50],0x0
7f7e:	00 00
7f80:	c6 44 24 0f 00       	mov    BYTE PTR [rsp+0xf],0x0
7f85:	45 31 ff             	xor    r15d,r15d
7f88:	c6 44 24 0d 00       	mov    BYTE PTR [rsp+0xd],0x0
7f8d:	48 c7 44 24 18 00 00 	mov    QWORD PTR [rsp+0x18],0x0
7f94:	00 00
7f96:	48 c7 44 24 48 00 00 	mov    QWORD PTR [rsp+0x48],0x0
7f9d:	00 00
7f9f:	e9 5f f2 ff ff       	jmp    7203 <quotearg_buffer_restyled+0xd3>
7fa4:	c6 44 24 0e 01       	mov    BYTE PTR [rsp+0xe],0x1
7fa9:	c6 44 24 7c 00       	mov    BYTE PTR [rsp+0x7c],0x0
7fae:	45 31 e4             	xor    r12d,r12d
7fb1:	48 c7 44 24 50 00 00 	mov    QWORD PTR [rsp+0x50],0x0
7fb8:	00 00
7fba:	c6 44 24 0f 01       	mov    BYTE PTR [rsp+0xf],0x1
7fbf:	c6 44 24 0d 01       	mov    BYTE PTR [rsp+0xd],0x1
7fc4:	e9 1a f2 ff ff       	jmp    71e3 <quotearg_buffer_restyled+0xb3>
7fc9:	4d 39 fd             	cmp    r13,r15
7fcc:	76 05                	jbe    7fd3 <quotearg_buffer_restyled+0xea3>
7fce:	43 c6 04 3e 30       	mov    BYTE PTR [r14+r15*1],0x30
7fd3:	48 8d 41 02          	lea    rax,[rcx+0x2]
7fd7:	49 39 c5             	cmp    r13,rax
7fda:	76 06                	jbe    7fe2 <quotearg_buffer_restyled+0xeb2>
7fdc:	41 c6 44 0e 02 30    	mov    BYTE PTR [r14+rcx*1+0x2],0x30
7fe2:	44 89 e0             	mov    eax,r12d
7fe5:	4c 8d 79 03          	lea    r15,[rcx+0x3]
7fe9:	45 31 e4             	xor    r12d,r12d
7fec:	bb 30 00 00 00       	mov    ebx,0x30
7ff1:	e9 62 f3 ff ff       	jmp    7358 <quotearg_buffer_restyled+0x228>
7ff6:	66 2e 0f 1f 84 00 00 	nop    WORD PTR cs:[rax+rax*1+0x0]
7ffd:	00 00 00
8000:	0f b6 5c 24 0f       	movzx  ebx,BYTE PTR [rsp+0xf]
8005:	4c 89 dd             	mov    rbp,r11
8008:	88 5c 24 0d          	mov    BYTE PTR [rsp+0xd],bl
800c:	e9 a8 fc ff ff       	jmp    7cb9 <quotearg_buffer_restyled+0xb89>
8011:	0f b6 54 24 0d       	movzx  edx,BYTE PTR [rsp+0xd]
8016:	45 31 e4             	xor    r12d,r12d
8019:	e9 02 fb ff ff       	jmp    7b20 <quotearg_buffer_restyled+0x9f0>
801e:	45 31 d2             	xor    r10d,r10d
8021:	e9 b7 fb ff ff       	jmp    7bdd <quotearg_buffer_restyled+0xaad>
8026:	48 c7 44 24 50 00 00 	mov    QWORD PTR [rsp+0x50],0x0
802d:	00 00
802f:	c6 44 24 0e 01       	mov    BYTE PTR [rsp+0xe],0x1
8034:	45 31 e4             	xor    r12d,r12d
8037:	c6 44 24 7c 00       	mov    BYTE PTR [rsp+0x7c],0x0
803c:	e9 da fd ff ff       	jmp    7e1b <quotearg_buffer_restyled+0xceb>
8041:	4c 8b 5c 24 30       	mov    r11,QWORD PTR [rsp+0x30]
8046:	4c 89 f6             	mov    rsi,r14
8049:	4c 89 e9             	mov    rcx,r13
804c:	48 89 d8             	mov    rax,rbx
804f:	48 89 df             	mov    rdi,rbx
8052:	44 0f b6 44 24 7d    	movzx  r8d,BYTE PTR [rsp+0x7d]
8058:	0f b6 5c 24 7e       	movzx  ebx,BYTE PTR [rsp+0x7e]
805d:	4c 8b 8c 24 88 00 00 	mov    r9,QWORD PTR [rsp+0x88]
8064:	00
8065:	4c 39 de             	cmp    rsi,r11
8068:	44 0f b6 54 24 7f    	movzx  r10d,BYTE PTR [rsp+0x7f]
806e:	4c 8b bc 24 80 00 00 	mov    r15,QWORD PTR [rsp+0x80]
8075:	00
8076:	4c 8b 74 24 40       	mov    r14,QWORD PTR [rsp+0x40]
807b:	4c 8b 6c 24 70       	mov    r13,QWORD PTR [rsp+0x70]
8080:	73 26                	jae    80a8 <quotearg_buffer_restyled+0xf78>
8082:	80 39 00             	cmp    BYTE PTR [rcx],0x0
8085:	75 10                	jne    8097 <quotearg_buffer_restyled+0xf67>
8087:	eb 1f                	jmp    80a8 <quotearg_buffer_restyled+0xf78>
8089:	0f 1f 80 00 00 00 00 	nop    DWORD PTR [rax+0x0]
8090:	41 80 3c 01 00       	cmp    BYTE PTR [r9+rax*1],0x0
8095:	74 0e                	je     80a5 <quotearg_buffer_restyled+0xf75>
8097:	48 83 c0 01          	add    rax,0x1
809b:	48 8d 54 05 00       	lea    rdx,[rbp+rax*1+0x0]
80a0:	49 39 d3             	cmp    r11,rdx
80a3:	77 eb                	ja     8090 <quotearg_buffer_restyled+0xf60>
80a5:	48 89 c7             	mov    rdi,rax
80a8:	0f b6 54 24 0d       	movzx  edx,BYTE PTR [rsp+0xd]
80ad:	45 31 e4             	xor    r12d,r12d
80b0:	e9 61 fa ff ff       	jmp    7b16 <quotearg_buffer_restyled+0x9e6>
80b5:	48 89 df             	mov    rdi,rbx
80b8:	44 0f b6 44 24 7d    	movzx  r8d,BYTE PTR [rsp+0x7d]
80be:	0f b6 5c 24 7e       	movzx  ebx,BYTE PTR [rsp+0x7e]
80c3:	44 0f b6 54 24 7f    	movzx  r10d,BYTE PTR [rsp+0x7f]
80c9:	4c 8b bc 24 80 00 00 	mov    r15,QWORD PTR [rsp+0x80]
80d0:	00
80d1:	45 31 e4             	xor    r12d,r12d
80d4:	4c 8b 74 24 40       	mov    r14,QWORD PTR [rsp+0x40]
80d9:	4c 8b 6c 24 70       	mov    r13,QWORD PTR [rsp+0x70]
80de:	4c 8b 5c 24 30       	mov    r11,QWORD PTR [rsp+0x30]
80e3:	0f b6 54 24 0d       	movzx  edx,BYTE PTR [rsp+0xd]
80e8:	e9 29 fa ff ff       	jmp    7b16 <quotearg_buffer_restyled+0x9e6>
80ed:	48 8b 54 24 68       	mov    rdx,QWORD PTR [rsp+0x68]
80f2:	0f b6 02             	movzx  eax,BYTE PTR [rdx]
80f5:	84 c0                	test   al,al
80f7:	0f 84 2f fe ff ff    	je     7f2c <quotearg_buffer_restyled+0xdfc>
80fd:	0f 1f 00             	nop    DWORD PTR [rax]
8100:	4d 39 fd             	cmp    r13,r15
8103:	76 04                	jbe    8109 <quotearg_buffer_restyled+0xfd9>
8105:	43 88 04 3e          	mov    BYTE PTR [r14+r15*1],al
8109:	49 83 c7 01          	add    r15,0x1
810d:	42 0f b6 04 3a       	movzx  eax,BYTE PTR [rdx+r15*1]
8112:	84 c0                	test   al,al
8114:	75 ea                	jne    8100 <quotearg_buffer_restyled+0xfd0>
8116:	e9 11 fe ff ff       	jmp    7f2c <quotearg_buffer_restyled+0xdfc>
811b:	89 d0                	mov    eax,edx
811d:	e9 55 f5 ff ff       	jmp    7677 <quotearg_buffer_restyled+0x547>
8122:	0f b6 1c 08          	movzx  ebx,BYTE PTR [rax+rcx*1]
8126:	80 fb 3e             	cmp    bl,0x3e
8129:	0f 87 71 f8 ff ff    	ja     79a0 <quotearg_buffer_restyled+0x870>
812f:	48 b8 00 00 00 00 82 	movabs rax,0x7000a38200000000
8136:	a3 00 70
8139:	48 0f a3 d8          	bt     rax,rbx
813d:	0f 83 5d f8 ff ff    	jae    79a0 <quotearg_buffer_restyled+0x870>
8143:	80 7c 24 0f 00       	cmp    BYTE PTR [rsp+0xf],0x0
8148:	0f 85 e4 01 00 00    	jne    8332 <quotearg_buffer_restyled+0x1202>
814e:	4d 39 fd             	cmp    r13,r15
8151:	76 05                	jbe    8158 <quotearg_buffer_restyled+0x1028>
8153:	43 c6 04 3e 3f       	mov    BYTE PTR [r14+r15*1],0x3f
8158:	49 8d 47 01          	lea    rax,[r15+0x1]
815c:	49 39 c5             	cmp    r13,rax
815f:	76 06                	jbe    8167 <quotearg_buffer_restyled+0x1037>
8161:	43 c6 44 3e 01 22    	mov    BYTE PTR [r14+r15*1+0x1],0x22
8167:	49 8d 47 02          	lea    rax,[r15+0x2]
816b:	49 39 c5             	cmp    r13,rax
816e:	76 06                	jbe    8176 <quotearg_buffer_restyled+0x1046>
8170:	43 c6 44 3e 02 22    	mov    BYTE PTR [r14+r15*1+0x2],0x22
8176:	49 8d 47 03          	lea    rax,[r15+0x3]
817a:	49 39 c5             	cmp    r13,rax
817d:	76 06                	jbe    8185 <quotearg_buffer_restyled+0x1055>
817f:	43 c6 44 3e 03 3f    	mov    BYTE PTR [r14+r15*1+0x3],0x3f
8185:	49 83 c7 04          	add    r15,0x4
8189:	31 d2                	xor    edx,edx
818b:	45 31 e4             	xor    r12d,r12d
818e:	31 c0                	xor    eax,eax
8190:	48 89 cd             	mov    rbp,rcx
8193:	e9 c0 f1 ff ff       	jmp    7358 <quotearg_buffer_restyled+0x228>
8198:	85 db                	test   ebx,ebx
819a:	0f 84 88 01 00 00    	je     8328 <quotearg_buffer_restyled+0x11f8>
81a0:	48 8d 05 b6 60 00 00 	lea    rax,[rip+0x60b6]        # e25d <power_letter+0x85>
81a7:	c6 44 24 0e 01       	mov    BYTE PTR [rsp+0xe],0x1
81ac:	c6 44 24 7c 00       	mov    BYTE PTR [rsp+0x7c],0x0
81b1:	45 31 e4             	xor    r12d,r12d
81b4:	48 c7 44 24 50 00 00 	mov    QWORD PTR [rsp+0x50],0x0
81bb:	00 00
81bd:	c6 44 24 0f 01       	mov    BYTE PTR [rsp+0xf],0x1
81c2:	c6 44 24 0d 00       	mov    BYTE PTR [rsp+0xd],0x0
81c7:	48 c7 44 24 18 01 00 	mov    QWORD PTR [rsp+0x18],0x1
81ce:	00 00
81d0:	45 31 ff             	xor    r15d,r15d
81d3:	48 89 44 24 48       	mov    QWORD PTR [rsp+0x48],rax
81d8:	e9 26 f0 ff ff       	jmp    7203 <quotearg_buffer_restyled+0xd3>
81dd:	0f 1f 00             	nop    DWORD PTR [rax]
81e0:	4c 89 dd             	mov    rbp,r11
81e3:	0f b6 44 24 0f       	movzx  eax,BYTE PTR [rsp+0xf]
81e8:	e9 cc fa ff ff       	jmp    7cb9 <quotearg_buffer_restyled+0xb89>
81ed:	48 8d 05 67 60 00 00 	lea    rax,[rip+0x6067]        # e25b <power_letter+0x83>
81f4:	c6 44 24 0e 01       	mov    BYTE PTR [rsp+0xe],0x1
81f9:	c6 44 24 7c 00       	mov    BYTE PTR [rsp+0x7c],0x0
81fe:	45 31 e4             	xor    r12d,r12d
8201:	48 c7 44 24 50 00 00 	mov    QWORD PTR [rsp+0x50],0x0
8208:	00 00
820a:	c6 44 24 0f 01       	mov    BYTE PTR [rsp+0xf],0x1
820f:	c6 44 24 0d 01       	mov    BYTE PTR [rsp+0xd],0x1
8214:	48 c7 44 24 18 01 00 	mov    QWORD PTR [rsp+0x18],0x1
821b:	00 00
821d:	45 31 ff             	xor    r15d,r15d
8220:	48 89 44 24 48       	mov    QWORD PTR [rsp+0x48],rax
8225:	e9 d9 ef ff ff       	jmp    7203 <quotearg_buffer_restyled+0xd3>
822a:	89 d0                	mov    eax,edx
822c:	48 8b 5c 24 48       	mov    rbx,QWORD PTR [rsp+0x48]
8231:	48 85 db             	test   rbx,rbx
8234:	74 2c                	je     8262 <quotearg_buffer_restyled+0x1132>
8236:	84 c0                	test   al,al
8238:	74 28                	je     8262 <quotearg_buffer_restyled+0x1132>
823a:	0f b6 0b             	movzx  ecx,BYTE PTR [rbx]
823d:	48 89 d8             	mov    rax,rbx
8240:	84 c9                	test   cl,cl
8242:	74 1e                	je     8262 <quotearg_buffer_restyled+0x1132>
8244:	4c 89 fa             	mov    rdx,r15
8247:	4c 29 f8             	sub    rax,r15
824a:	49 39 d5             	cmp    r13,rdx
824d:	76 04                	jbe    8253 <quotearg_buffer_restyled+0x1123>
824f:	41 88 0c 16          	mov    BYTE PTR [r14+rdx*1],cl
8253:	48 83 c2 01          	add    rdx,0x1
8257:	0f b6 0c 10          	movzx  ecx,BYTE PTR [rax+rdx*1]
825b:	84 c9                	test   cl,cl
825d:	75 eb                	jne    824a <quotearg_buffer_restyled+0x111a>
825f:	49 89 d7             	mov    r15,rdx
8262:	4d 39 fd             	cmp    r13,r15
8265:	0f 86 9e fa ff ff    	jbe    7d09 <quotearg_buffer_restyled+0xbd9>
826b:	43 c6 04 3e 00       	mov    BYTE PTR [r14+r15*1],0x0
8270:	e9 94 fa ff ff       	jmp    7d09 <quotearg_buffer_restyled+0xbd9>
8275:	83 7c 24 08 02       	cmp    DWORD PTR [rsp+0x8],0x2
827a:	0f b6 5c 24 0f       	movzx  ebx,BYTE PTR [rsp+0xf]
827f:	4c 89 dd             	mov    rbp,r11
8282:	0f 94 c0             	sete   al
8285:	88 5c 24 0d          	mov    BYTE PTR [rsp+0xd],bl
8289:	e9 2b fa ff ff       	jmp    7cb9 <quotearg_buffer_restyled+0xb89>
828e:	8b 74 24 08          	mov    esi,DWORD PTR [rsp+0x8]
8292:	48 89 cf             	mov    rdi,rcx
8295:	e8 a6 ed ff ff       	call   7040 <gettext_quote.part.1>
829a:	48 89 44 24 68       	mov    QWORD PTR [rsp+0x68],rax
829f:	e9 52 fc ff ff       	jmp    7ef6 <quotearg_buffer_restyled+0xdc6>
82a4:	8b 74 24 08          	mov    esi,DWORD PTR [rsp+0x8]
82a8:	48 89 cf             	mov    rdi,rcx
82ab:	e8 90 ed ff ff       	call   7040 <gettext_quote.part.1>
82b0:	48 89 44 24 60       	mov    QWORD PTR [rsp+0x60],rax
82b5:	e9 67 fc ff ff       	jmp    7f21 <quotearg_buffer_restyled+0xdf1>
82ba:	0f b6 5c 24 0f       	movzx  ebx,BYTE PTR [rsp+0xf]
82bf:	4c 89 dd             	mov    rbp,r11
82c2:	89 d0                	mov    eax,edx
82c4:	88 5c 24 0d          	mov    BYTE PTR [rsp+0xd],bl
82c8:	e9 ec f9 ff ff       	jmp    7cb9 <quotearg_buffer_restyled+0xb89>
82cd:	48 83 ec 08          	sub    rsp,0x8
82d1:	41 b8 05 00 00 00    	mov    r8d,0x5
82d7:	4c 89 d9             	mov    rcx,r11
82da:	ff 74 24 68          	push   QWORD PTR [rsp+0x68]
82de:	ff 74 24 78          	push   QWORD PTR [rsp+0x78]
82e2:	4c 89 f7             	mov    rdi,r14
82e5:	ff 74 24 38          	push   QWORD PTR [rsp+0x38]
82e9:	44 8b 8c 24 98 00 00 	mov    r9d,DWORD PTR [rsp+0x98]
82f0:	00
82f1:	48 8b 54 24 30       	mov    rdx,QWORD PTR [rsp+0x30]
82f6:	48 8b 74 24 70       	mov    rsi,QWORD PTR [rsp+0x70]
82fb:	e8 30 ee ff ff       	call   7130 <quotearg_buffer_restyled>
8300:	48 83 c4 20          	add    rsp,0x20
8304:	49 89 c7             	mov    r15,rax
8307:	e9 fd f9 ff ff       	jmp    7d09 <quotearg_buffer_restyled+0xbd9>
830c:	0f b6 44 24 7c       	movzx  eax,BYTE PTR [rsp+0x7c]
8311:	e9 16 ff ff ff       	jmp    822c <quotearg_buffer_restyled+0x10fc>
8316:	c7 44 24 08 02 00 00 	mov    DWORD PTR [rsp+0x8],0x2
831d:	00
831e:	e9 96 f9 ff ff       	jmp    7cb9 <quotearg_buffer_restyled+0xb89>
8323:	e8 68 98 ff ff       	call   1b90 <__stack_chk_fail@plt>
8328:	c6 44 24 0d 00       	mov    BYTE PTR [rsp+0xd],0x0
832d:	e9 6f fa ff ff       	jmp    7da1 <quotearg_buffer_restyled+0xc71>
8332:	4c 89 dd             	mov    rbp,r11
8335:	e9 96 f9 ff ff       	jmp    7cd0 <quotearg_buffer_restyled+0xba0>
833a:	c6 44 24 0e 01       	mov    BYTE PTR [rsp+0xe],0x1
833f:	31 c0                	xor    eax,eax
8341:	45 31 e4             	xor    r12d,r12d
8344:	48 c7 44 24 50 00 00 	mov    QWORD PTR [rsp+0x50],0x0
834b:	00 00
834d:	e9 a2 f5 ff ff       	jmp    78f4 <quotearg_buffer_restyled+0x7c4>
8352:	4c 89 ea             	mov    rdx,r13
8355:	4c 8b 6c 24 50       	mov    r13,QWORD PTR [rsp+0x50]
835a:	e9 f3 f5 ff ff       	jmp    7952 <quotearg_buffer_restyled+0x822>
835f:	e8 0c 97 ff ff       	call   1a70 <abort@plt>
8364:	66 90                	xchg   ax,ax
8366:	66 2e 0f 1f 84 00 00 	nop    WORD PTR cs:[rax+rax*1+0x0]
836d:	00 00 00

0000000000008370 <quotearg_n_options>:
8370:	41 57                	push   r15
8372:	41 56                	push   r14
8374:	4c 63 ff             	movsxd r15,edi
8377:	41 55                	push   r13
8379:	41 54                	push   r12
837b:	49 89 d6             	mov    r14,rdx
837e:	55                   	push   rbp
837f:	53                   	push   rbx
8380:	48 89 cd             	mov    rbp,rcx
8383:	48 83 ec 28          	sub    rsp,0x28
8387:	48 89 74 24 08       	mov    QWORD PTR [rsp+0x8],rsi
838c:	e8 ef 96 ff ff       	call   1a80 <__errno_location@plt>
8391:	49 89 c5             	mov    r13,rax
8394:	8b 00                	mov    eax,DWORD PTR [rax]
8396:	45 85 ff             	test   r15d,r15d
8399:	48 8b 1d e0 8c 20 00 	mov    rbx,QWORD PTR [rip+0x208ce0]        # 211080 <slotvec>
83a0:	89 44 24 18          	mov    DWORD PTR [rsp+0x18],eax
83a4:	0f 88 67 01 00 00    	js     8511 <quotearg_n_options+0x1a1>
83aa:	44 39 3d c7 8c 20 00 	cmp    DWORD PTR [rip+0x208cc7],r15d        # 211078 <nslots>
83b1:	7f 62                	jg     8415 <quotearg_n_options+0xa5>
83b3:	41 81 ff ff ff ff 7f 	cmp    r15d,0x7fffffff
83ba:	0f 84 56 01 00 00    	je     8516 <quotearg_n_options+0x1a6>
83c0:	45 8d 67 01          	lea    r12d,[r15+0x1]
83c4:	48 8d 05 c5 8c 20 00 	lea    rax,[rip+0x208cc5]        # 211090 <slotvec0>
83cb:	49 63 f4             	movsxd rsi,r12d
83ce:	48 c1 e6 04          	shl    rsi,0x4
83d2:	48 39 c3             	cmp    rbx,rax
83d5:	0f 84 15 01 00 00    	je     84f0 <quotearg_n_options+0x180>
83db:	48 89 df             	mov    rdi,rbx
83de:	e8 3d 10 00 00       	call   9420 <xrealloc>
83e3:	48 89 c3             	mov    rbx,rax
83e6:	48 89 05 93 8c 20 00 	mov    QWORD PTR [rip+0x208c93],rax        # 211080 <slotvec>
83ed:	48 63 3d 84 8c 20 00 	movsxd rdi,DWORD PTR [rip+0x208c84]        # 211078 <nslots>
83f4:	44 89 e2             	mov    edx,r12d
83f7:	31 f6                	xor    esi,esi
83f9:	29 fa                	sub    edx,edi
83fb:	48 c1 e7 04          	shl    rdi,0x4
83ff:	48 63 d2             	movsxd rdx,edx
8402:	48 01 df             	add    rdi,rbx
8405:	48 c1 e2 04          	shl    rdx,0x4
8409:	e8 32 98 ff ff       	call   1c40 <memset@plt>
840e:	44 89 25 63 8c 20 00 	mov    DWORD PTR [rip+0x208c63],r12d        # 211078 <nslots>
8415:	8b 45 04             	mov    eax,DWORD PTR [rbp+0x4]
8418:	49 c1 e7 04          	shl    r15,0x4
841c:	48 83 ec 08          	sub    rsp,0x8
8420:	4c 01 fb             	add    rbx,r15
8423:	4c 8d 7d 08          	lea    r15,[rbp+0x8]
8427:	44 8b 45 00          	mov    r8d,DWORD PTR [rbp+0x0]
842b:	4c 8b 1b             	mov    r11,QWORD PTR [rbx]
842e:	4c 8b 63 08          	mov    r12,QWORD PTR [rbx+0x8]
8432:	4c 89 f1             	mov    rcx,r14
8435:	83 c8 01             	or     eax,0x1
8438:	89 44 24 24          	mov    DWORD PTR [rsp+0x24],eax
843c:	ff 75 30             	push   QWORD PTR [rbp+0x30]
843f:	41 89 c1             	mov    r9d,eax
8442:	ff 75 28             	push   QWORD PTR [rbp+0x28]
8445:	41 57                	push   r15
8447:	4c 89 de             	mov    rsi,r11
844a:	48 8b 54 24 28       	mov    rdx,QWORD PTR [rsp+0x28]
844f:	4c 89 e7             	mov    rdi,r12
8452:	4c 89 5c 24 30       	mov    QWORD PTR [rsp+0x30],r11
8457:	e8 d4 ec ff ff       	call   7130 <quotearg_buffer_restyled>
845c:	48 83 c4 20          	add    rsp,0x20
8460:	4c 8b 5c 24 10       	mov    r11,QWORD PTR [rsp+0x10]
8465:	49 39 c3             	cmp    r11,rax
8468:	77 67                	ja     84d1 <quotearg_n_options+0x161>
846a:	48 8d 70 01          	lea    rsi,[rax+0x1]
846e:	48 8d 05 ab 8f 20 00 	lea    rax,[rip+0x208fab]        # 211420 <slot0>
8475:	49 39 c4             	cmp    r12,rax
8478:	48 89 33             	mov    QWORD PTR [rbx],rsi
847b:	74 12                	je     848f <quotearg_n_options+0x11f>
847d:	4c 89 e7             	mov    rdi,r12
8480:	48 89 74 24 10       	mov    QWORD PTR [rsp+0x10],rsi
8485:	e8 d6 95 ff ff       	call   1a60 <free@plt>
848a:	48 8b 74 24 10       	mov    rsi,QWORD PTR [rsp+0x10]
848f:	48 89 f7             	mov    rdi,rsi
8492:	48 89 74 24 10       	mov    QWORD PTR [rsp+0x10],rsi
8497:	e8 24 0f 00 00       	call   93c0 <xmalloc>
849c:	48 83 ec 08          	sub    rsp,0x8
84a0:	48 89 43 08          	mov    QWORD PTR [rbx+0x8],rax
84a4:	44 8b 45 00          	mov    r8d,DWORD PTR [rbp+0x0]
84a8:	ff 75 30             	push   QWORD PTR [rbp+0x30]
84ab:	ff 75 28             	push   QWORD PTR [rbp+0x28]
84ae:	4c 89 f1             	mov    rcx,r14
84b1:	41 57                	push   r15
84b3:	44 8b 4c 24 3c       	mov    r9d,DWORD PTR [rsp+0x3c]
84b8:	48 89 c7             	mov    rdi,rax
84bb:	48 8b 54 24 28       	mov    rdx,QWORD PTR [rsp+0x28]
84c0:	48 8b 74 24 30       	mov    rsi,QWORD PTR [rsp+0x30]
84c5:	49 89 c4             	mov    r12,rax
84c8:	e8 63 ec ff ff       	call   7130 <quotearg_buffer_restyled>
84cd:	48 83 c4 20          	add    rsp,0x20
84d1:	8b 44 24 18          	mov    eax,DWORD PTR [rsp+0x18]
84d5:	41 89 45 00          	mov    DWORD PTR [r13+0x0],eax
84d9:	48 83 c4 28          	add    rsp,0x28
84dd:	4c 89 e0             	mov    rax,r12
84e0:	5b                   	pop    rbx
84e1:	5d                   	pop    rbp
84e2:	41 5c                	pop    r12
84e4:	41 5d                	pop    r13
84e6:	41 5e                	pop    r14
84e8:	41 5f                	pop    r15
84ea:	c3                   	ret
84eb:	0f 1f 44 00 00       	nop    DWORD PTR [rax+rax*1+0x0]
84f0:	31 ff                	xor    edi,edi
84f2:	e8 29 0f 00 00       	call   9420 <xrealloc>
84f7:	66 0f 6f 05 91 8b 20 	movdqa xmm0,XMMWORD PTR [rip+0x208b91]        # 211090 <slotvec0>
84fe:	00
84ff:	48 89 c3             	mov    rbx,rax
8502:	48 89 05 77 8b 20 00 	mov    QWORD PTR [rip+0x208b77],rax        # 211080 <slotvec>
8509:	0f 11 00             	movups XMMWORD PTR [rax],xmm0
850c:	e9 dc fe ff ff       	jmp    83ed <quotearg_n_options+0x7d>
8511:	e8 5a 95 ff ff       	call   1a70 <abort@plt>
8516:	e8 f5 10 00 00       	call   9610 <xalloc_die>
851b:	0f 1f 44 00 00       	nop    DWORD PTR [rax+rax*1+0x0]

0000000000008520 <clone_quoting_options>:
8520:	41 54                	push   r12
8522:	55                   	push   rbp
8523:	53                   	push   rbx
8524:	48 89 fb             	mov    rbx,rdi
8527:	e8 54 95 ff ff       	call   1a80 <__errno_location@plt>
852c:	44 8b 20             	mov    r12d,DWORD PTR [rax]
852f:	48 89 c5             	mov    rbp,rax
8532:	48 8d 05 e7 8f 20 00 	lea    rax,[rip+0x208fe7]        # 211520 <default_quoting_options>
8539:	48 85 db             	test   rbx,rbx
853c:	be 38 00 00 00       	mov    esi,0x38
8541:	48 0f 44 d8          	cmove  rbx,rax
8545:	48 89 df             	mov    rdi,rbx
8548:	e8 73 10 00 00       	call   95c0 <xmemdup>
854d:	44 89 65 00          	mov    DWORD PTR [rbp+0x0],r12d
8551:	5b                   	pop    rbx
8552:	5d                   	pop    rbp
8553:	41 5c                	pop    r12
8555:	c3                   	ret
8556:	66 2e 0f 1f 84 00 00 	nop    WORD PTR cs:[rax+rax*1+0x0]
855d:	00 00 00

0000000000008560 <get_quoting_style>:
8560:	48 8d 05 b9 8f 20 00 	lea    rax,[rip+0x208fb9]        # 211520 <default_quoting_options>
8567:	48 85 ff             	test   rdi,rdi
856a:	48 0f 44 f8          	cmove  rdi,rax
856e:	8b 07                	mov    eax,DWORD PTR [rdi]
8570:	c3                   	ret
8571:	0f 1f 44 00 00       	nop    DWORD PTR [rax+rax*1+0x0]
8576:	66 2e 0f 1f 84 00 00 	nop    WORD PTR cs:[rax+rax*1+0x0]
857d:	00 00 00

0000000000008580 <set_quoting_style>:
8580:	48 8d 05 99 8f 20 00 	lea    rax,[rip+0x208f99]        # 211520 <default_quoting_options>
8587:	48 85 ff             	test   rdi,rdi
858a:	48 0f 44 f8          	cmove  rdi,rax
858e:	89 37                	mov    DWORD PTR [rdi],esi
8590:	c3                   	ret
8591:	0f 1f 44 00 00       	nop    DWORD PTR [rax+rax*1+0x0]
8596:	66 2e 0f 1f 84 00 00 	nop    WORD PTR cs:[rax+rax*1+0x0]
859d:	00 00 00

00000000000085a0 <set_char_quoting>:
85a0:	48 8d 05 79 8f 20 00 	lea    rax,[rip+0x208f79]        # 211520 <default_quoting_options>
85a7:	48 85 ff             	test   rdi,rdi
85aa:	89 f1                	mov    ecx,esi
85ac:	48 0f 44 f8          	cmove  rdi,rax
85b0:	89 f0                	mov    eax,esi
85b2:	83 e1 1f             	and    ecx,0x1f
85b5:	c0 e8 05             	shr    al,0x5
85b8:	0f b6 c0             	movzx  eax,al
85bb:	48 8d 7c 87 08       	lea    rdi,[rdi+rax*4+0x8]
85c0:	8b 37                	mov    esi,DWORD PTR [rdi]
85c2:	89 f0                	mov    eax,esi
85c4:	d3 e8                	shr    eax,cl
85c6:	31 c2                	xor    edx,eax
85c8:	83 e0 01             	and    eax,0x1
85cb:	83 e2 01             	and    edx,0x1
85ce:	d3 e2                	shl    edx,cl
85d0:	31 f2                	xor    edx,esi
85d2:	89 17                	mov    DWORD PTR [rdi],edx
85d4:	c3                   	ret
85d5:	90                   	nop
85d6:	66 2e 0f 1f 84 00 00 	nop    WORD PTR cs:[rax+rax*1+0x0]
85dd:	00 00 00

00000000000085e0 <set_quoting_flags>:
85e0:	48 8d 05 39 8f 20 00 	lea    rax,[rip+0x208f39]        # 211520 <default_quoting_options>
85e7:	48 85 ff             	test   rdi,rdi
85ea:	48 0f 44 f8          	cmove  rdi,rax
85ee:	8b 47 04             	mov    eax,DWORD PTR [rdi+0x4]
85f1:	89 77 04             	mov    DWORD PTR [rdi+0x4],esi
85f4:	c3                   	ret
85f5:	90                   	nop
85f6:	66 2e 0f 1f 84 00 00 	nop    WORD PTR cs:[rax+rax*1+0x0]
85fd:	00 00 00

0000000000008600 <set_custom_quoting>:
8600:	48 8d 05 19 8f 20 00 	lea    rax,[rip+0x208f19]        # 211520 <default_quoting_options>
8607:	48 85 ff             	test   rdi,rdi
860a:	48 0f 44 f8          	cmove  rdi,rax
860e:	48 85 f6             	test   rsi,rsi
8611:	c7 07 0a 00 00 00    	mov    DWORD PTR [rdi],0xa
8617:	74 0e                	je     8627 <set_custom_quoting+0x27>
8619:	48 85 d2             	test   rdx,rdx
861c:	74 09                	je     8627 <set_custom_quoting+0x27>
861e:	48 89 77 28          	mov    QWORD PTR [rdi+0x28],rsi
8622:	48 89 57 30          	mov    QWORD PTR [rdi+0x30],rdx
8626:	c3                   	ret
8627:	48 83 ec 08          	sub    rsp,0x8
862b:	e8 40 94 ff ff       	call   1a70 <abort@plt>

0000000000008630 <quotearg_buffer>:
8630:	41 57                	push   r15
8632:	41 56                	push   r14
8634:	48 8d 05 e5 8e 20 00 	lea    rax,[rip+0x208ee5]        # 211520 <default_quoting_options>
863b:	41 55                	push   r13
863d:	41 54                	push   r12
863f:	49 89 fd             	mov    r13,rdi
8642:	55                   	push   rbp
8643:	53                   	push   rbx
8644:	4c 89 c3             	mov    rbx,r8
8647:	49 89 f6             	mov    r14,rsi
864a:	49 89 d7             	mov    r15,rdx
864d:	48 83 ec 18          	sub    rsp,0x18
8651:	4d 85 c0             	test   r8,r8
8654:	48 0f 44 d8          	cmove  rbx,rax
8658:	48 89 4c 24 08       	mov    QWORD PTR [rsp+0x8],rcx
865d:	e8 1e 94 ff ff       	call   1a80 <__errno_location@plt>
8662:	44 8b 20             	mov    r12d,DWORD PTR [rax]
8665:	48 89 c5             	mov    rbp,rax
8668:	48 8d 43 08          	lea    rax,[rbx+0x8]
866c:	48 83 ec 08          	sub    rsp,0x8
8670:	44 8b 4b 04          	mov    r9d,DWORD PTR [rbx+0x4]
8674:	ff 73 30             	push   QWORD PTR [rbx+0x30]
8677:	44 8b 03             	mov    r8d,DWORD PTR [rbx]
867a:	ff 73 28             	push   QWORD PTR [rbx+0x28]
867d:	4c 89 fa             	mov    rdx,r15
8680:	50                   	push   rax
8681:	48 8b 4c 24 28       	mov    rcx,QWORD PTR [rsp+0x28]
8686:	4c 89 f6             	mov    rsi,r14
8689:	4c 89 ef             	mov    rdi,r13
868c:	e8 9f ea ff ff       	call   7130 <quotearg_buffer_restyled>
8691:	44 89 65 00          	mov    DWORD PTR [rbp+0x0],r12d
8695:	48 83 c4 38          	add    rsp,0x38
8699:	5b                   	pop    rbx
869a:	5d                   	pop    rbp
869b:	41 5c                	pop    r12
869d:	41 5d                	pop    r13
869f:	41 5e                	pop    r14
86a1:	41 5f                	pop    r15
86a3:	c3                   	ret
86a4:	66 90                	xchg   ax,ax
86a6:	66 2e 0f 1f 84 00 00 	nop    WORD PTR cs:[rax+rax*1+0x0]
86ad:	00 00 00

00000000000086b0 <quotearg_alloc_mem>:
86b0:	41 57                	push   r15
86b2:	41 56                	push   r14
86b4:	48 8d 05 65 8e 20 00 	lea    rax,[rip+0x208e65]        # 211520 <default_quoting_options>
86bb:	41 55                	push   r13
86bd:	41 54                	push   r12
86bf:	49 89 d4             	mov    r12,rdx
86c2:	55                   	push   rbp
86c3:	53                   	push   rbx
86c4:	48 89 cb             	mov    rbx,rcx
86c7:	49 89 fe             	mov    r14,rdi
86ca:	49 89 f7             	mov    r15,rsi
86cd:	48 83 ec 38          	sub    rsp,0x38
86d1:	48 85 c9             	test   rcx,rcx
86d4:	48 0f 44 d8          	cmove  rbx,rax
86d8:	31 ed                	xor    ebp,ebp
86da:	e8 a1 93 ff ff       	call   1a80 <__errno_location@plt>
86df:	4d 85 e4             	test   r12,r12
86e2:	49 89 c5             	mov    r13,rax
86e5:	8b 00                	mov    eax,DWORD PTR [rax]
86e7:	40 0f 94 c5          	sete   bpl
86eb:	0b 6b 04             	or     ebp,DWORD PTR [rbx+0x4]
86ee:	4c 8d 53 08          	lea    r10,[rbx+0x8]
86f2:	48 83 ec 08          	sub    rsp,0x8
86f6:	44 8b 03             	mov    r8d,DWORD PTR [rbx]
86f9:	4c 89 f9             	mov    rcx,r15
86fc:	89 44 24 14          	mov    DWORD PTR [rsp+0x14],eax
8700:	ff 73 30             	push   QWORD PTR [rbx+0x30]
8703:	4c 89 f2             	mov    rdx,r14
8706:	ff 73 28             	push   QWORD PTR [rbx+0x28]
8709:	41 52                	push   r10
870b:	31 f6                	xor    esi,esi
870d:	41 89 e9             	mov    r9d,ebp
8710:	31 ff                	xor    edi,edi
8712:	4c 89 54 24 40       	mov    QWORD PTR [rsp+0x40],r10
8717:	e8 14 ea ff ff       	call   7130 <quotearg_buffer_restyled>
871c:	48 8d 70 01          	lea    rsi,[rax+0x1]
8720:	48 89 44 24 48       	mov    QWORD PTR [rsp+0x48],rax
8725:	48 83 c4 20          	add    rsp,0x20
8729:	48 89 f7             	mov    rdi,rsi
872c:	48 89 74 24 18       	mov    QWORD PTR [rsp+0x18],rsi
8731:	e8 8a 0c 00 00       	call   93c0 <xmalloc>
8736:	48 89 44 24 10       	mov    QWORD PTR [rsp+0x10],rax
873b:	48 83 ec 08          	sub    rsp,0x8
873f:	ff 73 30             	push   QWORD PTR [rbx+0x30]
8742:	ff 73 28             	push   QWORD PTR [rbx+0x28]
8745:	4c 8b 54 24 38       	mov    r10,QWORD PTR [rsp+0x38]
874a:	41 89 e9             	mov    r9d,ebp
874d:	44 8b 03             	mov    r8d,DWORD PTR [rbx]
8750:	4c 89 f9             	mov    rcx,r15
8753:	4c 89 f2             	mov    rdx,r14
8756:	48 89 c7             	mov    rdi,rax
8759:	41 52                	push   r10
875b:	48 8b 74 24 38       	mov    rsi,QWORD PTR [rsp+0x38]
8760:	e8 cb e9 ff ff       	call   7130 <quotearg_buffer_restyled>
8765:	8b 44 24 2c          	mov    eax,DWORD PTR [rsp+0x2c]
8769:	48 83 c4 20          	add    rsp,0x20
876d:	4d 85 e4             	test   r12,r12
8770:	41 89 45 00          	mov    DWORD PTR [r13+0x0],eax
8774:	74 09                	je     877f <quotearg_alloc_mem+0xcf>
8776:	4c 8b 5c 24 28       	mov    r11,QWORD PTR [rsp+0x28]
877b:	4d 89 1c 24          	mov    QWORD PTR [r12],r11
877f:	48 8b 44 24 10       	mov    rax,QWORD PTR [rsp+0x10]
8784:	48 83 c4 38          	add    rsp,0x38
8788:	5b                   	pop    rbx
8789:	5d                   	pop    rbp
878a:	41 5c                	pop    r12
878c:	41 5d                	pop    r13
878e:	41 5e                	pop    r14
8790:	41 5f                	pop    r15
8792:	c3                   	ret
8793:	0f 1f 00             	nop    DWORD PTR [rax]
8796:	66 2e 0f 1f 84 00 00 	nop    WORD PTR cs:[rax+rax*1+0x0]
879d:	00 00 00

00000000000087a0 <quotearg_alloc>:
87a0:	48 89 d1             	mov    rcx,rdx
87a3:	31 d2                	xor    edx,edx
87a5:	e9 06 ff ff ff       	jmp    86b0 <quotearg_alloc_mem>
87aa:	66 0f 1f 44 00 00    	nop    WORD PTR [rax+rax*1+0x0]

00000000000087b0 <quotearg_free>:
87b0:	8b 05 c2 88 20 00    	mov    eax,DWORD PTR [rip+0x2088c2]        # 211078 <nslots>
87b6:	41 54                	push   r12
87b8:	4c 8b 25 c1 88 20 00 	mov    r12,QWORD PTR [rip+0x2088c1]        # 211080 <slotvec>
87bf:	55                   	push   rbp
87c0:	53                   	push   rbx
87c1:	83 f8 01             	cmp    eax,0x1
87c4:	7e 2b                	jle    87f1 <quotearg_free+0x41>
87c6:	83 e8 02             	sub    eax,0x2
87c9:	49 8d 5c 24 18       	lea    rbx,[r12+0x18]
87ce:	48 c1 e0 04          	shl    rax,0x4
87d2:	49 8d 6c 04 28       	lea    rbp,[r12+rax*1+0x28]
87d7:	66 0f 1f 84 00 00 00 	nop    WORD PTR [rax+rax*1+0x0]
87de:	00 00
87e0:	48 8b 3b             	mov    rdi,QWORD PTR [rbx]
87e3:	48 83 c3 10          	add    rbx,0x10
87e7:	e8 74 92 ff ff       	call   1a60 <free@plt>
87ec:	48 39 eb             	cmp    rbx,rbp
87ef:	75 ef                	jne    87e0 <quotearg_free+0x30>
87f1:	49 8b 7c 24 08       	mov    rdi,QWORD PTR [r12+0x8]
87f6:	48 8d 1d 23 8c 20 00 	lea    rbx,[rip+0x208c23]        # 211420 <slot0>
87fd:	48 39 df             	cmp    rdi,rbx
8800:	74 17                	je     8819 <quotearg_free+0x69>
8802:	e8 59 92 ff ff       	call   1a60 <free@plt>
8807:	48 c7 05 7e 88 20 00 	mov    QWORD PTR [rip+0x20887e],0x100        # 211090 <slotvec0>
880e:	00 01 00 00
8812:	48 89 1d 7f 88 20 00 	mov    QWORD PTR [rip+0x20887f],rbx        # 211098 <slotvec0+0x8>
8819:	48 8d 1d 70 88 20 00 	lea    rbx,[rip+0x208870]        # 211090 <slotvec0>
8820:	49 39 dc             	cmp    r12,rbx
8823:	74 0f                	je     8834 <quotearg_free+0x84>
8825:	4c 89 e7             	mov    rdi,r12
8828:	e8 33 92 ff ff       	call   1a60 <free@plt>
882d:	48 89 1d 4c 88 20 00 	mov    QWORD PTR [rip+0x20884c],rbx        # 211080 <slotvec>
8834:	5b                   	pop    rbx
8835:	c7 05 39 88 20 00 01 	mov    DWORD PTR [rip+0x208839],0x1        # 211078 <nslots>
883c:	00 00 00
883f:	5d                   	pop    rbp
8840:	41 5c                	pop    r12
8842:	c3                   	ret
8843:	0f 1f 00             	nop    DWORD PTR [rax]
8846:	66 2e 0f 1f 84 00 00 	nop    WORD PTR cs:[rax+rax*1+0x0]
884d:	00 00 00

0000000000008850 <quotearg_n>:
8850:	48 8d 0d c9 8c 20 00 	lea    rcx,[rip+0x208cc9]        # 211520 <default_quoting_options>
8857:	48 c7 c2 ff ff ff ff 	mov    rdx,0xffffffffffffffff
885e:	e9 0d fb ff ff       	jmp    8370 <quotearg_n_options>
8863:	0f 1f 00             	nop    DWORD PTR [rax]
8866:	66 2e 0f 1f 84 00 00 	nop    WORD PTR cs:[rax+rax*1+0x0]
886d:	00 00 00

0000000000008870 <quotearg_n_mem>:
8870:	48 8d 0d a9 8c 20 00 	lea    rcx,[rip+0x208ca9]        # 211520 <default_quoting_options>
8877:	e9 f4 fa ff ff       	jmp    8370 <quotearg_n_options>
887c:	0f 1f 40 00          	nop    DWORD PTR [rax+0x0]

0000000000008880 <quotearg>:
8880:	48 8d 0d 99 8c 20 00 	lea    rcx,[rip+0x208c99]        # 211520 <default_quoting_options>
8887:	48 89 fe             	mov    rsi,rdi
888a:	48 c7 c2 ff ff ff ff 	mov    rdx,0xffffffffffffffff
8891:	31 ff                	xor    edi,edi
8893:	e9 d8 fa ff ff       	jmp    8370 <quotearg_n_options>
8898:	0f 1f 84 00 00 00 00 	nop    DWORD PTR [rax+rax*1+0x0]
889f:	00

00000000000088a0 <quotearg_mem>:
88a0:	48 8d 0d 79 8c 20 00 	lea    rcx,[rip+0x208c79]        # 211520 <default_quoting_options>
88a7:	48 89 f2             	mov    rdx,rsi
88aa:	48 89 fe             	mov    rsi,rdi
88ad:	31 ff                	xor    edi,edi
88af:	e9 bc fa ff ff       	jmp    8370 <quotearg_n_options>
88b4:	66 90                	xchg   ax,ax
88b6:	66 2e 0f 1f 84 00 00 	nop    WORD PTR cs:[rax+rax*1+0x0]
88bd:	00 00 00

00000000000088c0 <quotearg_n_style>:
88c0:	48 83 ec 48          	sub    rsp,0x48
88c4:	48 89 d0             	mov    rax,rdx
88c7:	64 48 8b 14 25 28 00 	mov    rdx,QWORD PTR fs:0x28
88ce:	00 00
88d0:	48 89 54 24 38       	mov    QWORD PTR [rsp+0x38],rdx
88d5:	31 d2                	xor    edx,edx
88d7:	83 fe 0a             	cmp    esi,0xa
88da:	74 68                	je     8944 <quotearg_n_style+0x84>
88dc:	89 34 24             	mov    DWORD PTR [rsp],esi
88df:	48 89 e1             	mov    rcx,rsp
88e2:	48 c7 c2 ff ff ff ff 	mov    rdx,0xffffffffffffffff
88e9:	48 89 c6             	mov    rsi,rax
88ec:	48 c7 44 24 04 00 00 	mov    QWORD PTR [rsp+0x4],0x0
88f3:	00 00
88f5:	48 c7 44 24 0c 00 00 	mov    QWORD PTR [rsp+0xc],0x0
88fc:	00 00
88fe:	48 c7 44 24 14 00 00 	mov    QWORD PTR [rsp+0x14],0x0
8905:	00 00
8907:	48 c7 44 24 1c 00 00 	mov    QWORD PTR [rsp+0x1c],0x0
890e:	00 00
8910:	48 c7 44 24 24 00 00 	mov    QWORD PTR [rsp+0x24],0x0
8917:	00 00
8919:	48 c7 44 24 2c 00 00 	mov    QWORD PTR [rsp+0x2c],0x0
8920:	00 00
8922:	c7 44 24 34 00 00 00 	mov    DWORD PTR [rsp+0x34],0x0
8929:	00
892a:	e8 41 fa ff ff       	call   8370 <quotearg_n_options>
892f:	48 8b 4c 24 38       	mov    rcx,QWORD PTR [rsp+0x38]
8934:	64 48 33 0c 25 28 00 	xor    rcx,QWORD PTR fs:0x28
893b:	00 00
893d:	75 0a                	jne    8949 <quotearg_n_style+0x89>
893f:	48 83 c4 48          	add    rsp,0x48
8943:	c3                   	ret
8944:	e8 27 91 ff ff       	call   1a70 <abort@plt>
8949:	e8 42 92 ff ff       	call   1b90 <__stack_chk_fail@plt>
894e:	66 90                	xchg   ax,ax

0000000000008950 <quotearg_n_style_mem>:
8950:	48 83 ec 48          	sub    rsp,0x48
8954:	48 89 d0             	mov    rax,rdx
8957:	48 89 ca             	mov    rdx,rcx
895a:	64 48 8b 0c 25 28 00 	mov    rcx,QWORD PTR fs:0x28
8961:	00 00
8963:	48 89 4c 24 38       	mov    QWORD PTR [rsp+0x38],rcx
8968:	31 c9                	xor    ecx,ecx
896a:	83 fe 0a             	cmp    esi,0xa
896d:	74 61                	je     89d0 <quotearg_n_style_mem+0x80>
896f:	89 34 24             	mov    DWORD PTR [rsp],esi
8972:	48 89 e1             	mov    rcx,rsp
8975:	48 89 c6             	mov    rsi,rax
8978:	48 c7 44 24 04 00 00 	mov    QWORD PTR [rsp+0x4],0x0
897f:	00 00
8981:	48 c7 44 24 0c 00 00 	mov    QWORD PTR [rsp+0xc],0x0
8988:	00 00
898a:	48 c7 44 24 14 00 00 	mov    QWORD PTR [rsp+0x14],0x0
8991:	00 00
8993:	48 c7 44 24 1c 00 00 	mov    QWORD PTR [rsp+0x1c],0x0
899a:	00 00
899c:	48 c7 44 24 24 00 00 	mov    QWORD PTR [rsp+0x24],0x0
89a3:	00 00
89a5:	48 c7 44 24 2c 00 00 	mov    QWORD PTR [rsp+0x2c],0x0
89ac:	00 00
89ae:	c7 44 24 34 00 00 00 	mov    DWORD PTR [rsp+0x34],0x0
89b5:	00
89b6:	e8 b5 f9 ff ff       	call   8370 <quotearg_n_options>
89bb:	48 8b 54 24 38       	mov    rdx,QWORD PTR [rsp+0x38]
89c0:	64 48 33 14 25 28 00 	xor    rdx,QWORD PTR fs:0x28
89c7:	00 00
89c9:	75 0a                	jne    89d5 <quotearg_n_style_mem+0x85>
89cb:	48 83 c4 48          	add    rsp,0x48
89cf:	c3                   	ret
89d0:	e8 9b 90 ff ff       	call   1a70 <abort@plt>
89d5:	e8 b6 91 ff ff       	call   1b90 <__stack_chk_fail@plt>
89da:	66 0f 1f 44 00 00    	nop    WORD PTR [rax+rax*1+0x0]

00000000000089e0 <quotearg_style>:
89e0:	48 89 f2             	mov    rdx,rsi
89e3:	89 fe                	mov    esi,edi
89e5:	31 ff                	xor    edi,edi
89e7:	e9 d4 fe ff ff       	jmp    88c0 <quotearg_n_style>
89ec:	0f 1f 40 00          	nop    DWORD PTR [rax+0x0]

00000000000089f0 <quotearg_style_mem>:
89f0:	48 89 d1             	mov    rcx,rdx
89f3:	48 89 f2             	mov    rdx,rsi
89f6:	89 fe                	mov    esi,edi
89f8:	31 ff                	xor    edi,edi
89fa:	e9 51 ff ff ff       	jmp    8950 <quotearg_n_style_mem>
89ff:	90                   	nop

0000000000008a00 <quotearg_char_mem>:
8a00:	48 83 ec 48          	sub    rsp,0x48
8a04:	89 d1                	mov    ecx,edx
8a06:	64 48 8b 04 25 28 00 	mov    rax,QWORD PTR fs:0x28
8a0d:	00 00
8a0f:	48 89 44 24 38       	mov    QWORD PTR [rsp+0x38],rax
8a14:	31 c0                	xor    eax,eax
8a16:	48 8b 05 33 8b 20 00 	mov    rax,QWORD PTR [rip+0x208b33]        # 211550 <default_quoting_options+0x30>
8a1d:	49 89 e0             	mov    r8,rsp
8a20:	83 e1 1f             	and    ecx,0x1f
8a23:	66 0f 6f 05 f5 8a 20 	movdqa xmm0,XMMWORD PTR [rip+0x208af5]        # 211520 <default_quoting_options>
8a2a:	00
8a2b:	48 89 44 24 30       	mov    QWORD PTR [rsp+0x30],rax
8a30:	89 d0                	mov    eax,edx
8a32:	0f 29 04 24          	movaps XMMWORD PTR [rsp],xmm0
8a36:	c0 e8 05             	shr    al,0x5
8a39:	0f b6 c0             	movzx  eax,al
8a3c:	4d 8d 4c 80 08       	lea    r9,[r8+rax*4+0x8]
8a41:	66 0f 6f 05 e7 8a 20 	movdqa xmm0,XMMWORD PTR [rip+0x208ae7]        # 211530 <default_quoting_options+0x10>
8a48:	00
8a49:	0f 29 44 24 10       	movaps XMMWORD PTR [rsp+0x10],xmm0
8a4e:	66 0f 6f 05 ea 8a 20 	movdqa xmm0,XMMWORD PTR [rip+0x208aea]        # 211540 <default_quoting_options+0x20>
8a55:	00
8a56:	0f 29 44 24 20       	movaps XMMWORD PTR [rsp+0x20],xmm0
8a5b:	41 8b 11             	mov    edx,DWORD PTR [r9]
8a5e:	89 d0                	mov    eax,edx
8a60:	d3 e8                	shr    eax,cl
8a62:	f7 d0                	not    eax
8a64:	83 e0 01             	and    eax,0x1
8a67:	d3 e0                	shl    eax,cl
8a69:	4c 89 c1             	mov    rcx,r8
8a6c:	31 d0                	xor    eax,edx
8a6e:	48 89 f2             	mov    rdx,rsi
8a71:	48 89 fe             	mov    rsi,rdi
8a74:	41 89 01             	mov    DWORD PTR [r9],eax
8a77:	31 ff                	xor    edi,edi
8a79:	e8 f2 f8 ff ff       	call   8370 <quotearg_n_options>
8a7e:	48 8b 74 24 38       	mov    rsi,QWORD PTR [rsp+0x38]
8a83:	64 48 33 34 25 28 00 	xor    rsi,QWORD PTR fs:0x28
8a8a:	00 00
8a8c:	75 05                	jne    8a93 <quotearg_char_mem+0x93>
8a8e:	48 83 c4 48          	add    rsp,0x48
8a92:	c3                   	ret
8a93:	e8 f8 90 ff ff       	call   1b90 <__stack_chk_fail@plt>
8a98:	0f 1f 84 00 00 00 00 	nop    DWORD PTR [rax+rax*1+0x0]
8a9f:	00

0000000000008aa0 <quotearg_char>:
8aa0:	40 0f be d6          	movsx  edx,sil
8aa4:	48 c7 c6 ff ff ff ff 	mov    rsi,0xffffffffffffffff
8aab:	e9 50 ff ff ff       	jmp    8a00 <quotearg_char_mem>

0000000000008ab0 <quotearg_colon>:
8ab0:	ba 3a 00 00 00       	mov    edx,0x3a
8ab5:	48 c7 c6 ff ff ff ff 	mov    rsi,0xffffffffffffffff
8abc:	e9 3f ff ff ff       	jmp    8a00 <quotearg_char_mem>
8ac1:	0f 1f 44 00 00       	nop    DWORD PTR [rax+rax*1+0x0]
8ac6:	66 2e 0f 1f 84 00 00 	nop    WORD PTR cs:[rax+rax*1+0x0]
8acd:	00 00 00

0000000000008ad0 <quotearg_colon_mem>:
8ad0:	ba 3a 00 00 00       	mov    edx,0x3a
8ad5:	e9 26 ff ff ff       	jmp    8a00 <quotearg_char_mem>
8ada:	66 0f 1f 44 00 00    	nop    WORD PTR [rax+rax*1+0x0]

0000000000008ae0 <quotearg_n_style_colon>:
8ae0:	48 83 ec 48          	sub    rsp,0x48
8ae4:	48 89 d0             	mov    rax,rdx
8ae7:	64 48 8b 14 25 28 00 	mov    rdx,QWORD PTR fs:0x28
8aee:	00 00
8af0:	48 89 54 24 38       	mov    QWORD PTR [rsp+0x38],rdx
8af5:	31 d2                	xor    edx,edx
8af7:	83 fe 0a             	cmp    esi,0xa
8afa:	74 68                	je     8b64 <quotearg_n_style_colon+0x84>
8afc:	89 34 24             	mov    DWORD PTR [rsp],esi
8aff:	48 89 e1             	mov    rcx,rsp
8b02:	48 c7 c2 ff ff ff ff 	mov    rdx,0xffffffffffffffff
8b09:	48 89 c6             	mov    rsi,rax
8b0c:	48 c7 44 24 04 00 00 	mov    QWORD PTR [rsp+0x4],0x0
8b13:	00 00
8b15:	48 c7 44 24 0c 00 00 	mov    QWORD PTR [rsp+0xc],0x4000000
8b1c:	00 04
8b1e:	48 c7 44 24 14 00 00 	mov    QWORD PTR [rsp+0x14],0x0
8b25:	00 00
8b27:	48 c7 44 24 1c 00 00 	mov    QWORD PTR [rsp+0x1c],0x0
8b2e:	00 00
8b30:	48 c7 44 24 24 00 00 	mov    QWORD PTR [rsp+0x24],0x0
8b37:	00 00
8b39:	48 c7 44 24 2c 00 00 	mov    QWORD PTR [rsp+0x2c],0x0
8b40:	00 00
8b42:	c7 44 24 34 00 00 00 	mov    DWORD PTR [rsp+0x34],0x0
8b49:	00
8b4a:	e8 21 f8 ff ff       	call   8370 <quotearg_n_options>
8b4f:	48 8b 4c 24 38       	mov    rcx,QWORD PTR [rsp+0x38]
8b54:	64 48 33 0c 25 28 00 	xor    rcx,QWORD PTR fs:0x28
8b5b:	00 00
8b5d:	75 0a                	jne    8b69 <quotearg_n_style_colon+0x89>
8b5f:	48 83 c4 48          	add    rsp,0x48
8b63:	c3                   	ret
8b64:	e8 07 8f ff ff       	call   1a70 <abort@plt>
8b69:	e8 22 90 ff ff       	call   1b90 <__stack_chk_fail@plt>
8b6e:	66 90                	xchg   ax,ax

0000000000008b70 <quotearg_n_custom_mem>:
8b70:	48 83 ec 48          	sub    rsp,0x48
8b74:	49 89 c9             	mov    r9,rcx
8b77:	48 8b 0d d2 89 20 00 	mov    rcx,QWORD PTR [rip+0x2089d2]        # 211550 <default_quoting_options+0x30>
8b7e:	66 0f 6f 05 9a 89 20 	movdqa xmm0,XMMWORD PTR [rip+0x20899a]        # 211520 <default_quoting_options>
8b85:	00
8b86:	64 48 8b 04 25 28 00 	mov    rax,QWORD PTR fs:0x28
8b8d:	00 00
8b8f:	48 89 44 24 38       	mov    QWORD PTR [rsp+0x38],rax
8b94:	31 c0                	xor    eax,eax
8b96:	0f 29 04 24          	movaps XMMWORD PTR [rsp],xmm0
8b9a:	48 85 f6             	test   rsi,rsi
8b9d:	48 89 4c 24 30       	mov    QWORD PTR [rsp+0x30],rcx
8ba2:	c7 04 24 0a 00 00 00 	mov    DWORD PTR [rsp],0xa
8ba9:	66 0f 6f 05 7f 89 20 	movdqa xmm0,XMMWORD PTR [rip+0x20897f]        # 211530 <default_quoting_options+0x10>
8bb0:	00
8bb1:	0f 29 44 24 10       	movaps XMMWORD PTR [rsp+0x10],xmm0
8bb6:	66 0f 6f 05 82 89 20 	movdqa xmm0,XMMWORD PTR [rip+0x208982]        # 211540 <default_quoting_options+0x20>
8bbd:	00
8bbe:	0f 29 44 24 20       	movaps XMMWORD PTR [rsp+0x20],xmm0
8bc3:	74 32                	je     8bf7 <quotearg_n_custom_mem+0x87>
8bc5:	48 85 d2             	test   rdx,rdx
8bc8:	74 2d                	je     8bf7 <quotearg_n_custom_mem+0x87>
8bca:	48 89 74 24 28       	mov    QWORD PTR [rsp+0x28],rsi
8bcf:	48 89 54 24 30       	mov    QWORD PTR [rsp+0x30],rdx
8bd4:	48 89 e1             	mov    rcx,rsp
8bd7:	4c 89 c2             	mov    rdx,r8
8bda:	4c 89 ce             	mov    rsi,r9
8bdd:	e8 8e f7 ff ff       	call   8370 <quotearg_n_options>
8be2:	48 8b 7c 24 38       	mov    rdi,QWORD PTR [rsp+0x38]
8be7:	64 48 33 3c 25 28 00 	xor    rdi,QWORD PTR fs:0x28
8bee:	00 00
8bf0:	75 0a                	jne    8bfc <quotearg_n_custom_mem+0x8c>
8bf2:	48 83 c4 48          	add    rsp,0x48
8bf6:	c3                   	ret
8bf7:	e8 74 8e ff ff       	call   1a70 <abort@plt>
8bfc:	e8 8f 8f ff ff       	call   1b90 <__stack_chk_fail@plt>
8c01:	0f 1f 44 00 00       	nop    DWORD PTR [rax+rax*1+0x0]
8c06:	66 2e 0f 1f 84 00 00 	nop    WORD PTR cs:[rax+rax*1+0x0]
8c0d:	00 00 00

0000000000008c10 <quotearg_n_custom>:
8c10:	49 c7 c0 ff ff ff ff 	mov    r8,0xffffffffffffffff
8c17:	e9 54 ff ff ff       	jmp    8b70 <quotearg_n_custom_mem>
8c1c:	0f 1f 40 00          	nop    DWORD PTR [rax+0x0]

0000000000008c20 <quotearg_custom>:
8c20:	48 89 d1             	mov    rcx,rdx
8c23:	49 c7 c0 ff ff ff ff 	mov    r8,0xffffffffffffffff
8c2a:	48 89 f2             	mov    rdx,rsi
8c2d:	48 89 fe             	mov    rsi,rdi
8c30:	31 ff                	xor    edi,edi
8c32:	e9 39 ff ff ff       	jmp    8b70 <quotearg_n_custom_mem>
8c37:	66 0f 1f 84 00 00 00 	nop    WORD PTR [rax+rax*1+0x0]
8c3e:	00 00

0000000000008c40 <quotearg_custom_mem>:
8c40:	49 89 c8             	mov    r8,rcx
8c43:	48 89 d1             	mov    rcx,rdx
8c46:	48 89 f2             	mov    rdx,rsi
8c49:	48 89 fe             	mov    rsi,rdi
8c4c:	31 ff                	xor    edi,edi
8c4e:	e9 1d ff ff ff       	jmp    8b70 <quotearg_n_custom_mem>
8c53:	0f 1f 00             	nop    DWORD PTR [rax]
8c56:	66 2e 0f 1f 84 00 00 	nop    WORD PTR cs:[rax+rax*1+0x0]
8c5d:	00 00 00

0000000000008c60 <quote_n_mem>:
8c60:	48 8d 0d d9 83 20 00 	lea    rcx,[rip+0x2083d9]        # 211040 <quote_quoting_options>
8c67:	e9 04 f7 ff ff       	jmp    8370 <quotearg_n_options>
8c6c:	0f 1f 40 00          	nop    DWORD PTR [rax+0x0]

0000000000008c70 <quote_mem>:
8c70:	48 8d 0d c9 83 20 00 	lea    rcx,[rip+0x2083c9]        # 211040 <quote_quoting_options>
8c77:	48 89 f2             	mov    rdx,rsi
8c7a:	48 89 fe             	mov    rsi,rdi
8c7d:	31 ff                	xor    edi,edi
8c7f:	e9 ec f6 ff ff       	jmp    8370 <quotearg_n_options>
8c84:	66 90                	xchg   ax,ax
8c86:	66 2e 0f 1f 84 00 00 	nop    WORD PTR cs:[rax+rax*1+0x0]
8c8d:	00 00 00

0000000000008c90 <quote_n>:
8c90:	48 8d 0d a9 83 20 00 	lea    rcx,[rip+0x2083a9]        # 211040 <quote_quoting_options>
8c97:	48 c7 c2 ff ff ff ff 	mov    rdx,0xffffffffffffffff
8c9e:	e9 cd f6 ff ff       	jmp    8370 <quotearg_n_options>
8ca3:	0f 1f 00             	nop    DWORD PTR [rax]
8ca6:	66 2e 0f 1f 84 00 00 	nop    WORD PTR cs:[rax+rax*1+0x0]
8cad:	00 00 00

0000000000008cb0 <quote>:
8cb0:	48 8d 0d 89 83 20 00 	lea    rcx,[rip+0x208389]        # 211040 <quote_quoting_options>
8cb7:	48 89 fe             	mov    rsi,rdi
8cba:	48 c7 c2 ff ff ff ff 	mov    rdx,0xffffffffffffffff
8cc1:	31 ff                	xor    edi,edi
8cc3:	e9 a8 f6 ff ff       	jmp    8370 <quotearg_n_options>
8cc8:	0f 1f 84 00 00 00 00 	nop    DWORD PTR [rax+rax*1+0x0]
8ccf:	00

0000000000008cd0 <verror_at_line>:
8cd0:	41 56                	push   r14
8cd2:	41 55                	push   r13
8cd4:	41 89 f5             	mov    r13d,esi
8cd7:	41 54                	push   r12
8cd9:	55                   	push   rbp
8cda:	41 89 fc             	mov    r12d,edi
8cdd:	53                   	push   rbx
8cde:	4c 89 ce             	mov    rsi,r9
8ce1:	4c 89 c7             	mov    rdi,r8
8ce4:	48 89 d5             	mov    rbp,rdx
8ce7:	41 89 ce             	mov    r14d,ecx
8cea:	e8 d1 0e 00 00       	call   9bc0 <xvasprintf>
8cef:	48 85 c0             	test   rax,rax
8cf2:	74 63                	je     8d57 <verror_at_line+0x87>
8cf4:	48 85 ed             	test   rbp,rbp
8cf7:	48 89 c3             	mov    rbx,rax
8cfa:	74 34                	je     8d30 <verror_at_line+0x60>
8cfc:	4c 8d 05 69 39 00 00 	lea    r8,[rip+0x3969]        # c66c <_IO_stdin_used+0x6c>
8d03:	44 89 e7             	mov    edi,r12d
8d06:	49 89 c1             	mov    r9,rax
8d09:	44 89 f1             	mov    ecx,r14d
8d0c:	48 89 ea             	mov    rdx,rbp
8d0f:	44 89 ee             	mov    esi,r13d
8d12:	31 c0                	xor    eax,eax
8d14:	e8 87 8d ff ff       	call   1aa0 <error_at_line@plt>
8d19:	48 89 df             	mov    rdi,rbx
8d1c:	5b                   	pop    rbx
8d1d:	5d                   	pop    rbp
8d1e:	41 5c                	pop    r12
8d20:	41 5d                	pop    r13
8d22:	41 5e                	pop    r14
8d24:	e9 37 8d ff ff       	jmp    1a60 <free@plt>
8d29:	0f 1f 80 00 00 00 00 	nop    DWORD PTR [rax+0x0]
8d30:	48 8d 15 35 39 00 00 	lea    rdx,[rip+0x3935]        # c66c <_IO_stdin_used+0x6c>
8d37:	44 89 e7             	mov    edi,r12d
8d3a:	48 89 c1             	mov    rcx,rax
8d3d:	44 89 ee             	mov    esi,r13d
8d40:	31 c0                	xor    eax,eax
8d42:	e8 49 90 ff ff       	call   1d90 <error@plt>
8d47:	48 89 df             	mov    rdi,rbx
8d4a:	5b                   	pop    rbx
8d4b:	5d                   	pop    rbp
8d4c:	41 5c                	pop    r12
8d4e:	41 5d                	pop    r13
8d50:	41 5e                	pop    r14
8d52:	e9 09 8d ff ff       	jmp    1a60 <free@plt>
8d57:	48 8d 35 ca 59 00 00 	lea    rsi,[rip+0x59ca]        # e728 <quoting_style_vals+0x28>
8d5e:	ba 05 00 00 00       	mov    edx,0x5
8d63:	31 ff                	xor    edi,edi
8d65:	e8 f6 8d ff ff       	call   1b60 <dcgettext@plt>
8d6a:	48 89 c3             	mov    rbx,rax
8d6d:	e8 0e 8d ff ff       	call   1a80 <__errno_location@plt>
8d72:	8b 30                	mov    esi,DWORD PTR [rax]
8d74:	48 89 da             	mov    rdx,rbx
8d77:	31 ff                	xor    edi,edi
8d79:	31 c0                	xor    eax,eax
8d7b:	e8 10 90 ff ff       	call   1d90 <error@plt>
8d80:	e8 eb 8c ff ff       	call   1a70 <abort@plt>
8d85:	90                   	nop
8d86:	66 2e 0f 1f 84 00 00 	nop    WORD PTR cs:[rax+rax*1+0x0]
8d8d:	00 00 00

0000000000008d90 <verror>:
8d90:	49 89 d0             	mov    r8,rdx
8d93:	49 89 c9             	mov    r9,rcx
8d96:	31 d2                	xor    edx,edx
8d98:	31 c9                	xor    ecx,ecx
8d9a:	e9 31 ff ff ff       	jmp    8cd0 <verror_at_line>
8d9f:	90                   	nop

0000000000008da0 <version_etc_arn>:
8da0:	41 57                	push   r15
8da2:	41 56                	push   r14
8da4:	41 55                	push   r13
8da6:	41 54                	push   r12
8da8:	4d 89 cc             	mov    r12,r9
8dab:	55                   	push   rbp
8dac:	53                   	push   rbx
8dad:	48 89 fd             	mov    rbp,rdi
8db0:	4c 89 c3             	mov    rbx,r8
8db3:	48 83 ec 28          	sub    rsp,0x28
8db7:	48 85 f6             	test   rsi,rsi
8dba:	0f 84 18 01 00 00    	je     8ed8 <version_etc_arn+0x138>
8dc0:	49 89 d0             	mov    r8,rdx
8dc3:	48 8d 15 7e 59 00 00 	lea    rdx,[rip+0x597e]        # e748 <quoting_style_vals+0x48>
8dca:	49 89 c9             	mov    r9,rcx
8dcd:	31 c0                	xor    eax,eax
8dcf:	48 89 f1             	mov    rcx,rsi
8dd2:	be 01 00 00 00       	mov    esi,0x1
8dd7:	e8 54 90 ff ff       	call   1e30 <__fprintf_chk@plt>
8ddc:	48 8d 35 78 59 00 00 	lea    rsi,[rip+0x5978]        # e75b <quoting_style_vals+0x5b>
8de3:	31 ff                	xor    edi,edi
8de5:	ba 05 00 00 00       	mov    edx,0x5
8dea:	e8 71 8d ff ff       	call   1b60 <dcgettext@plt>
8def:	48 8d 15 8a 5c 00 00 	lea    rdx,[rip+0x5c8a]        # ea80 <version_etc_copyright>
8df6:	48 89 c1             	mov    rcx,rax
8df9:	41 b8 e3 07 00 00    	mov    r8d,0x7e3
8dff:	be 01 00 00 00       	mov    esi,0x1
8e04:	48 89 ef             	mov    rdi,rbp
8e07:	31 c0                	xor    eax,eax
8e09:	e8 22 90 ff ff       	call   1e30 <__fprintf_chk@plt>
8e0e:	48 8d 35 d3 59 00 00 	lea    rsi,[rip+0x59d3]        # e7e8 <quoting_style_vals+0xe8>
8e15:	31 ff                	xor    edi,edi
8e17:	ba 05 00 00 00       	mov    edx,0x5
8e1c:	e8 3f 8d ff ff       	call   1b60 <dcgettext@plt>
8e21:	48 89 ee             	mov    rsi,rbp
8e24:	48 89 c7             	mov    rdi,rax
8e27:	e8 74 8e ff ff       	call   1ca0 <fputs_unlocked@plt>
8e2c:	49 83 fc 09          	cmp    r12,0x9
8e30:	0f 87 3a 03 00 00    	ja     9170 <version_etc_arn+0x3d0>
8e36:	48 8d 15 07 5c 00 00 	lea    rdx,[rip+0x5c07]        # ea44 <quoting_style_vals+0x344>
8e3d:	4a 63 04 a2          	movsxd rax,DWORD PTR [rdx+r12*4]
8e41:	48 01 d0             	add    rax,rdx
8e44:	ff e0                	jmp    rax
8e46:	66 2e 0f 1f 84 00 00 	nop    WORD PTR cs:[rax+rax*1+0x0]
8e4d:	00 00 00
8e50:	4c 8b 4b 38          	mov    r9,QWORD PTR [rbx+0x38]
8e54:	48 8b 43 10          	mov    rax,QWORD PTR [rbx+0x10]
8e58:	48 8d 35 f9 5a 00 00 	lea    rsi,[rip+0x5af9]        # e958 <quoting_style_vals+0x258>
8e5f:	4c 8b 43 08          	mov    r8,QWORD PTR [rbx+0x8]
8e63:	ba 05 00 00 00       	mov    edx,0x5
8e68:	31 ff                	xor    edi,edi
8e6a:	4c 8b 6b 30          	mov    r13,QWORD PTR [rbx+0x30]
8e6e:	4c 8b 63 28          	mov    r12,QWORD PTR [rbx+0x28]
8e72:	4c 89 4c 24 10       	mov    QWORD PTR [rsp+0x10],r9
8e77:	4c 8b 7b 20          	mov    r15,QWORD PTR [rbx+0x20]
8e7b:	4c 8b 73 18          	mov    r14,QWORD PTR [rbx+0x18]
8e7f:	48 89 04 24          	mov    QWORD PTR [rsp],rax
8e83:	4c 89 44 24 08       	mov    QWORD PTR [rsp+0x8],r8
8e88:	48 8b 1b             	mov    rbx,QWORD PTR [rbx]
8e8b:	e8 d0 8c ff ff       	call   1b60 <dcgettext@plt>
8e90:	48 83 ec 08          	sub    rsp,0x8
8e94:	4c 8b 4c 24 18       	mov    r9,QWORD PTR [rsp+0x18]
8e99:	48 89 c2             	mov    rdx,rax
8e9c:	48 89 d9             	mov    rcx,rbx
8e9f:	be 01 00 00 00       	mov    esi,0x1
8ea4:	48 89 ef             	mov    rdi,rbp
8ea7:	31 c0                	xor    eax,eax
8ea9:	41 51                	push   r9
8eab:	41 55                	push   r13
8ead:	41 54                	push   r12
8eaf:	41 57                	push   r15
8eb1:	41 56                	push   r14
8eb3:	4c 8b 4c 24 30       	mov    r9,QWORD PTR [rsp+0x30]
8eb8:	4c 8b 44 24 38       	mov    r8,QWORD PTR [rsp+0x38]
8ebd:	e8 6e 8f ff ff       	call   1e30 <__fprintf_chk@plt>
8ec2:	48 83 c4 30          	add    rsp,0x30
8ec6:	48 83 c4 28          	add    rsp,0x28
8eca:	5b                   	pop    rbx
8ecb:	5d                   	pop    rbp
8ecc:	41 5c                	pop    r12
8ece:	41 5d                	pop    r13
8ed0:	41 5e                	pop    r14
8ed2:	41 5f                	pop    r15
8ed4:	c3                   	ret
8ed5:	0f 1f 00             	nop    DWORD PTR [rax]
8ed8:	49 89 c8             	mov    r8,rcx
8edb:	48 89 d1             	mov    rcx,rdx
8ede:	48 8d 15 6f 58 00 00 	lea    rdx,[rip+0x586f]        # e754 <quoting_style_vals+0x54>
8ee5:	be 01 00 00 00       	mov    esi,0x1
8eea:	31 c0                	xor    eax,eax
8eec:	e8 3f 8f ff ff       	call   1e30 <__fprintf_chk@plt>
8ef1:	e9 e6 fe ff ff       	jmp    8ddc <version_etc_arn+0x3c>
8ef6:	66 2e 0f 1f 84 00 00 	nop    WORD PTR cs:[rax+rax*1+0x0]
8efd:	00 00 00
8f00:	4c 8b 53 40          	mov    r10,QWORD PTR [rbx+0x40]
8f04:	4c 8b 4b 38          	mov    r9,QWORD PTR [rbx+0x38]
8f08:	48 8d 35 79 5a 00 00 	lea    rsi,[rip+0x5a79]        # e988 <quoting_style_vals+0x288>
8f0f:	48 8b 43 10          	mov    rax,QWORD PTR [rbx+0x10]
8f13:	4c 8b 43 08          	mov    r8,QWORD PTR [rbx+0x8]
8f17:	ba 05 00 00 00       	mov    edx,0x5
8f1c:	4c 8b 6b 30          	mov    r13,QWORD PTR [rbx+0x30]
8f20:	4c 8b 63 28          	mov    r12,QWORD PTR [rbx+0x28]
8f24:	4c 8b 7b 20          	mov    r15,QWORD PTR [rbx+0x20]
8f28:	4c 8b 73 18          	mov    r14,QWORD PTR [rbx+0x18]
8f2c:	48 8b 1b             	mov    rbx,QWORD PTR [rbx]
8f2f:	4c 89 54 24 18       	mov    QWORD PTR [rsp+0x18],r10
8f34:	4c 89 4c 24 10       	mov    QWORD PTR [rsp+0x10],r9
8f39:	48 89 04 24          	mov    QWORD PTR [rsp],rax
8f3d:	4c 89 44 24 08       	mov    QWORD PTR [rsp+0x8],r8
8f42:	31 ff                	xor    edi,edi
8f44:	e8 17 8c ff ff       	call   1b60 <dcgettext@plt>
8f49:	4c 8b 54 24 18       	mov    r10,QWORD PTR [rsp+0x18]
8f4e:	41 52                	push   r10
8f50:	e9 3f ff ff ff       	jmp    8e94 <version_etc_arn+0xf4>
8f55:	0f 1f 00             	nop    DWORD PTR [rax]
8f58:	48 8b 1b             	mov    rbx,QWORD PTR [rbx]
8f5b:	48 8d 35 fd 57 00 00 	lea    rsi,[rip+0x57fd]        # e75f <quoting_style_vals+0x5f>
8f62:	ba 05 00 00 00       	mov    edx,0x5
8f67:	31 ff                	xor    edi,edi
8f69:	e8 f2 8b ff ff       	call   1b60 <dcgettext@plt>
8f6e:	48 83 c4 28          	add    rsp,0x28
8f72:	48 89 d9             	mov    rcx,rbx
8f75:	48 89 ef             	mov    rdi,rbp
8f78:	5b                   	pop    rbx
8f79:	5d                   	pop    rbp
8f7a:	41 5c                	pop    r12
8f7c:	41 5d                	pop    r13
8f7e:	41 5e                	pop    r14
8f80:	41 5f                	pop    r15
8f82:	48 89 c2             	mov    rdx,rax
8f85:	be 01 00 00 00       	mov    esi,0x1
8f8a:	31 c0                	xor    eax,eax
8f8c:	e9 9f 8e ff ff       	jmp    1e30 <__fprintf_chk@plt>
8f91:	0f 1f 80 00 00 00 00 	nop    DWORD PTR [rax+0x0]
8f98:	4c 8b 63 08          	mov    r12,QWORD PTR [rbx+0x8]
8f9c:	48 8d 35 cc 57 00 00 	lea    rsi,[rip+0x57cc]        # e76f <quoting_style_vals+0x6f>
8fa3:	48 8b 1b             	mov    rbx,QWORD PTR [rbx]
8fa6:	ba 05 00 00 00       	mov    edx,0x5
8fab:	31 ff                	xor    edi,edi
8fad:	e8 ae 8b ff ff       	call   1b60 <dcgettext@plt>
8fb2:	48 83 c4 28          	add    rsp,0x28
8fb6:	4d 89 e0             	mov    r8,r12
8fb9:	48 89 d9             	mov    rcx,rbx
8fbc:	48 89 ef             	mov    rdi,rbp
8fbf:	48 89 c2             	mov    rdx,rax
8fc2:	be 01 00 00 00       	mov    esi,0x1
8fc7:	5b                   	pop    rbx
8fc8:	5d                   	pop    rbp
8fc9:	41 5c                	pop    r12
8fcb:	41 5d                	pop    r13
8fcd:	41 5e                	pop    r14
8fcf:	41 5f                	pop    r15
8fd1:	31 c0                	xor    eax,eax
8fd3:	e9 58 8e ff ff       	jmp    1e30 <__fprintf_chk@plt>
8fd8:	0f 1f 84 00 00 00 00 	nop    DWORD PTR [rax+rax*1+0x0]
8fdf:	00
8fe0:	4c 8b 6b 10          	mov    r13,QWORD PTR [rbx+0x10]
8fe4:	4c 8b 63 08          	mov    r12,QWORD PTR [rbx+0x8]
8fe8:	48 8d 35 97 57 00 00 	lea    rsi,[rip+0x5797]        # e786 <quoting_style_vals+0x86>
8fef:	48 8b 1b             	mov    rbx,QWORD PTR [rbx]
8ff2:	ba 05 00 00 00       	mov    edx,0x5
8ff7:	31 ff                	xor    edi,edi
8ff9:	e8 62 8b ff ff       	call   1b60 <dcgettext@plt>
8ffe:	48 83 c4 28          	add    rsp,0x28
9002:	4d 89 e9             	mov    r9,r13
9005:	4d 89 e0             	mov    r8,r12
9008:	48 89 d9             	mov    rcx,rbx
900b:	48 89 ef             	mov    rdi,rbp
900e:	48 89 c2             	mov    rdx,rax
9011:	5b                   	pop    rbx
9012:	5d                   	pop    rbp
9013:	41 5c                	pop    r12
9015:	41 5d                	pop    r13
9017:	41 5e                	pop    r14
9019:	41 5f                	pop    r15
901b:	be 01 00 00 00       	mov    esi,0x1
9020:	31 c0                	xor    eax,eax
9022:	e9 09 8e ff ff       	jmp    1e30 <__fprintf_chk@plt>
9027:	66 0f 1f 84 00 00 00 	nop    WORD PTR [rax+rax*1+0x0]
902e:	00 00
9030:	48 8d 35 81 58 00 00 	lea    rsi,[rip+0x5881]        # e8b8 <quoting_style_vals+0x1b8>
9037:	ba 05 00 00 00       	mov    edx,0x5
903c:	31 ff                	xor    edi,edi
903e:	4c 8b 73 18          	mov    r14,QWORD PTR [rbx+0x18]
9042:	4c 8b 6b 10          	mov    r13,QWORD PTR [rbx+0x10]
9046:	4c 8b 63 08          	mov    r12,QWORD PTR [rbx+0x8]
904a:	48 8b 1b             	mov    rbx,QWORD PTR [rbx]
904d:	e8 0e 8b ff ff       	call   1b60 <dcgettext@plt>
9052:	48 83 ec 08          	sub    rsp,0x8
9056:	41 56                	push   r14
9058:	48 89 c2             	mov    rdx,rax
905b:	4d 89 e9             	mov    r9,r13
905e:	4d 89 e0             	mov    r8,r12
9061:	48 89 d9             	mov    rcx,rbx
9064:	48 89 ef             	mov    rdi,rbp
9067:	be 01 00 00 00       	mov    esi,0x1
906c:	31 c0                	xor    eax,eax
906e:	e8 bd 8d ff ff       	call   1e30 <__fprintf_chk@plt>
9073:	58                   	pop    rax
9074:	5a                   	pop    rdx
9075:	48 83 c4 28          	add    rsp,0x28
9079:	5b                   	pop    rbx
907a:	5d                   	pop    rbp
907b:	41 5c                	pop    r12
907d:	41 5d                	pop    r13
907f:	41 5e                	pop    r14
9081:	41 5f                	pop    r15
9083:	c3                   	ret
9084:	0f 1f 40 00          	nop    DWORD PTR [rax+0x0]
9088:	4c 8b 7b 20          	mov    r15,QWORD PTR [rbx+0x20]
908c:	48 8d 35 45 58 00 00 	lea    rsi,[rip+0x5845]        # e8d8 <quoting_style_vals+0x1d8>
9093:	ba 05 00 00 00       	mov    edx,0x5
9098:	31 ff                	xor    edi,edi
909a:	4c 8b 73 18          	mov    r14,QWORD PTR [rbx+0x18]
909e:	4c 8b 6b 10          	mov    r13,QWORD PTR [rbx+0x10]
90a2:	4c 8b 63 08          	mov    r12,QWORD PTR [rbx+0x8]
90a6:	48 8b 1b             	mov    rbx,QWORD PTR [rbx]
90a9:	e8 b2 8a ff ff       	call   1b60 <dcgettext@plt>
90ae:	41 57                	push   r15
90b0:	eb a4                	jmp    9056 <version_etc_arn+0x2b6>
90b2:	66 0f 1f 44 00 00    	nop    WORD PTR [rax+rax*1+0x0]
90b8:	4c 8b 43 08          	mov    r8,QWORD PTR [rbx+0x8]
90bc:	4c 8b 63 28          	mov    r12,QWORD PTR [rbx+0x28]
90c0:	48 8d 35 39 58 00 00 	lea    rsi,[rip+0x5839]        # e900 <quoting_style_vals+0x200>
90c7:	4c 8b 7b 20          	mov    r15,QWORD PTR [rbx+0x20]
90cb:	4c 8b 73 18          	mov    r14,QWORD PTR [rbx+0x18]
90cf:	ba 05 00 00 00       	mov    edx,0x5
90d4:	4c 8b 6b 10          	mov    r13,QWORD PTR [rbx+0x10]
90d8:	31 ff                	xor    edi,edi
90da:	48 8b 1b             	mov    rbx,QWORD PTR [rbx]
90dd:	4c 89 04 24          	mov    QWORD PTR [rsp],r8
90e1:	e8 7a 8a ff ff       	call   1b60 <dcgettext@plt>
90e6:	48 83 ec 08          	sub    rsp,0x8
90ea:	4d 89 e9             	mov    r9,r13
90ed:	41 54                	push   r12
90ef:	41 57                	push   r15
90f1:	41 56                	push   r14
90f3:	4c 8b 44 24 20       	mov    r8,QWORD PTR [rsp+0x20]
90f8:	48 89 d9             	mov    rcx,rbx
90fb:	48 89 c2             	mov    rdx,rax
90fe:	48 89 ef             	mov    rdi,rbp
9101:	be 01 00 00 00       	mov    esi,0x1
9106:	31 c0                	xor    eax,eax
9108:	e8 23 8d ff ff       	call   1e30 <__fprintf_chk@plt>
910d:	48 83 c4 20          	add    rsp,0x20
9111:	48 83 c4 28          	add    rsp,0x28
9115:	5b                   	pop    rbx
9116:	5d                   	pop    rbp
9117:	41 5c                	pop    r12
9119:	41 5d                	pop    r13
911b:	41 5e                	pop    r14
911d:	41 5f                	pop    r15
911f:	c3                   	ret
9120:	4c 8b 4b 10          	mov    r9,QWORD PTR [rbx+0x10]
9124:	4c 8b 6b 30          	mov    r13,QWORD PTR [rbx+0x30]
9128:	48 8d 35 f9 57 00 00 	lea    rsi,[rip+0x57f9]        # e928 <quoting_style_vals+0x228>
912f:	4c 8b 63 28          	mov    r12,QWORD PTR [rbx+0x28]
9133:	4c 8b 7b 20          	mov    r15,QWORD PTR [rbx+0x20]
9137:	ba 05 00 00 00       	mov    edx,0x5
913c:	4c 8b 73 18          	mov    r14,QWORD PTR [rbx+0x18]
9140:	4c 8b 43 08          	mov    r8,QWORD PTR [rbx+0x8]
9144:	31 ff                	xor    edi,edi
9146:	4c 89 4c 24 08       	mov    QWORD PTR [rsp+0x8],r9
914b:	48 8b 1b             	mov    rbx,QWORD PTR [rbx]
914e:	4c 89 04 24          	mov    QWORD PTR [rsp],r8
9152:	e8 09 8a ff ff       	call   1b60 <dcgettext@plt>
9157:	41 55                	push   r13
9159:	41 54                	push   r12
915b:	41 57                	push   r15
915d:	41 56                	push   r14
915f:	4c 8b 4c 24 28       	mov    r9,QWORD PTR [rsp+0x28]
9164:	eb 8d                	jmp    90f3 <version_etc_arn+0x353>
9166:	66 2e 0f 1f 84 00 00 	nop    WORD PTR cs:[rax+rax*1+0x0]
916d:	00 00 00
9170:	4c 8b 53 40          	mov    r10,QWORD PTR [rbx+0x40]
9174:	4c 8b 4b 38          	mov    r9,QWORD PTR [rbx+0x38]
9178:	ba 05 00 00 00       	mov    edx,0x5
917d:	48 8b 43 10          	mov    rax,QWORD PTR [rbx+0x10]
9181:	4c 8b 43 08          	mov    r8,QWORD PTR [rbx+0x8]
9185:	48 8d 35 34 58 00 00 	lea    rsi,[rip+0x5834]        # e9c0 <quoting_style_vals+0x2c0>
918c:	4c 8b 6b 30          	mov    r13,QWORD PTR [rbx+0x30]
9190:	4c 8b 63 28          	mov    r12,QWORD PTR [rbx+0x28]
9194:	4c 8b 7b 20          	mov    r15,QWORD PTR [rbx+0x20]
9198:	4c 8b 73 18          	mov    r14,QWORD PTR [rbx+0x18]
919c:	4c 89 54 24 18       	mov    QWORD PTR [rsp+0x18],r10
91a1:	4c 89 4c 24 10       	mov    QWORD PTR [rsp+0x10],r9
91a6:	48 89 04 24          	mov    QWORD PTR [rsp],rax
91aa:	4c 89 44 24 08       	mov    QWORD PTR [rsp+0x8],r8
91af:	48 8b 1b             	mov    rbx,QWORD PTR [rbx]
91b2:	e9 8b fd ff ff       	jmp    8f42 <version_etc_arn+0x1a2>
91b7:	66 0f 1f 84 00 00 00 	nop    WORD PTR [rax+rax*1+0x0]
91be:	00 00

00000000000091c0 <version_etc_ar>:
91c0:	45 31 c9             	xor    r9d,r9d
91c3:	49 83 38 00          	cmp    QWORD PTR [r8],0x0
91c7:	74 12                	je     91db <version_etc_ar+0x1b>
91c9:	0f 1f 80 00 00 00 00 	nop    DWORD PTR [rax+0x0]
91d0:	49 83 c1 01          	add    r9,0x1
91d4:	4b 83 3c c8 00       	cmp    QWORD PTR [r8+r9*8],0x0
91d9:	75 f5                	jne    91d0 <version_etc_ar+0x10>
91db:	e9 c0 fb ff ff       	jmp    8da0 <version_etc_arn>

00000000000091e0 <version_etc_va>:
91e0:	48 83 ec 68          	sub    rsp,0x68
91e4:	4d 89 c2             	mov    r10,r8
91e7:	45 31 c9             	xor    r9d,r9d
91ea:	64 48 8b 04 25 28 00 	mov    rax,QWORD PTR fs:0x28
91f1:	00 00
91f3:	48 89 44 24 58       	mov    QWORD PTR [rsp+0x58],rax
91f8:	31 c0                	xor    eax,eax
91fa:	49 89 e0             	mov    r8,rsp
91fd:	0f 1f 00             	nop    DWORD PTR [rax]
9200:	41 8b 02             	mov    eax,DWORD PTR [r10]
9203:	83 f8 2f             	cmp    eax,0x2f
9206:	77 42                	ja     924a <version_etc_va+0x6a>
9208:	41 89 c3             	mov    r11d,eax
920b:	4d 03 5a 10          	add    r11,QWORD PTR [r10+0x10]
920f:	83 c0 08             	add    eax,0x8
9212:	41 89 02             	mov    DWORD PTR [r10],eax
9215:	49 8b 03             	mov    rax,QWORD PTR [r11]
9218:	48 85 c0             	test   rax,rax
921b:	4b 89 04 c8          	mov    QWORD PTR [r8+r9*8],rax
921f:	74 0a                	je     922b <version_etc_va+0x4b>
9221:	49 83 c1 01          	add    r9,0x1
9225:	49 83 f9 0a          	cmp    r9,0xa
9229:	75 d5                	jne    9200 <version_etc_va+0x20>
922b:	e8 70 fb ff ff       	call   8da0 <version_etc_arn>
9230:	48 8b 44 24 58       	mov    rax,QWORD PTR [rsp+0x58]
9235:	64 48 33 04 25 28 00 	xor    rax,QWORD PTR fs:0x28
923c:	00 00
923e:	75 05                	jne    9245 <version_etc_va+0x65>
9240:	48 83 c4 68          	add    rsp,0x68
9244:	c3                   	ret
9245:	e8 46 89 ff ff       	call   1b90 <__stack_chk_fail@plt>
924a:	4d 8b 5a 08          	mov    r11,QWORD PTR [r10+0x8]
924e:	49 8d 43 08          	lea    rax,[r11+0x8]
9252:	49 89 42 08          	mov    QWORD PTR [r10+0x8],rax
9256:	eb bd                	jmp    9215 <version_etc_va+0x35>
9258:	0f 1f 84 00 00 00 00 	nop    DWORD PTR [rax+rax*1+0x0]
925f:	00

0000000000009260 <version_etc>:
9260:	55                   	push   rbp
9261:	53                   	push   rbx
9262:	41 ba 20 00 00 00    	mov    r10d,0x20
9268:	45 31 db             	xor    r11d,r11d
926b:	48 81 ec b8 00 00 00 	sub    rsp,0xb8
9272:	64 48 8b 04 25 28 00 	mov    rax,QWORD PTR fs:0x28
9279:	00 00
927b:	48 89 44 24 78       	mov    QWORD PTR [rsp+0x78],rax
9280:	31 c0                	xor    eax,eax
9282:	48 8d 84 24 d0 00 00 	lea    rax,[rsp+0xd0]
9289:	00
928a:	4c 89 84 24 a0 00 00 	mov    QWORD PTR [rsp+0xa0],r8
9291:	00
9292:	48 8d 9c 24 d0 00 00 	lea    rbx,[rsp+0xd0]
9299:	00
929a:	4c 8d 44 24 20       	lea    r8,[rsp+0x20]
929f:	4c 89 8c 24 a8 00 00 	mov    QWORD PTR [rsp+0xa8],r9
92a6:	00
92a7:	c7 44 24 08 20 00 00 	mov    DWORD PTR [rsp+0x8],0x20
92ae:	00
92af:	48 89 44 24 10       	mov    QWORD PTR [rsp+0x10],rax
92b4:	48 8d 84 24 80 00 00 	lea    rax,[rsp+0x80]
92bb:	00
92bc:	45 31 c9             	xor    r9d,r9d
92bf:	48 89 44 24 18       	mov    QWORD PTR [rsp+0x18],rax
92c4:	48 89 c5             	mov    rbp,rax
92c7:	66 0f 1f 84 00 00 00 	nop    WORD PTR [rax+rax*1+0x0]
92ce:	00 00
92d0:	41 83 fa 2f          	cmp    r10d,0x2f
92d4:	77 56                	ja     932c <version_etc+0xcc>
92d6:	44 89 d0             	mov    eax,r10d
92d9:	41 bb 01 00 00 00    	mov    r11d,0x1
92df:	41 83 c2 08          	add    r10d,0x8
92e3:	48 01 e8             	add    rax,rbp
92e6:	48 8b 00             	mov    rax,QWORD PTR [rax]
92e9:	48 85 c0             	test   rax,rax
92ec:	4b 89 04 c8          	mov    QWORD PTR [r8+r9*8],rax
92f0:	74 0a                	je     92fc <version_etc+0x9c>
92f2:	49 83 c1 01          	add    r9,0x1
92f6:	49 83 f9 0a          	cmp    r9,0xa
92fa:	75 d4                	jne    92d0 <version_etc+0x70>
92fc:	45 84 db             	test   r11b,r11b
92ff:	75 24                	jne    9325 <version_etc+0xc5>
9301:	e8 9a fa ff ff       	call   8da0 <version_etc_arn>
9306:	48 8b 44 24 78       	mov    rax,QWORD PTR [rsp+0x78]
930b:	64 48 33 04 25 28 00 	xor    rax,QWORD PTR fs:0x28
9312:	00 00
9314:	75 0a                	jne    9320 <version_etc+0xc0>
9316:	48 81 c4 b8 00 00 00 	add    rsp,0xb8
931d:	5b                   	pop    rbx
931e:	5d                   	pop    rbp
931f:	c3                   	ret
9320:	e8 6b 88 ff ff       	call   1b90 <__stack_chk_fail@plt>
9325:	44 89 54 24 08       	mov    DWORD PTR [rsp+0x8],r10d
932a:	eb d5                	jmp    9301 <version_etc+0xa1>
932c:	48 89 d8             	mov    rax,rbx
932f:	48 83 c3 08          	add    rbx,0x8
9333:	eb b1                	jmp    92e6 <version_etc+0x86>
9335:	90                   	nop
9336:	66 2e 0f 1f 84 00 00 	nop    WORD PTR cs:[rax+rax*1+0x0]
933d:	00 00 00

0000000000009340 <emit_bug_reporting_address>:
9340:	53                   	push   rbx
9341:	48 8d 35 5a 54 00 00 	lea    rsi,[rip+0x545a]        # e7a2 <quoting_style_vals+0xa2>
9348:	ba 05 00 00 00       	mov    edx,0x5
934d:	31 ff                	xor    edi,edi
934f:	e8 0c 88 ff ff       	call   1b60 <dcgettext@plt>
9354:	48 8d 15 5c 54 00 00 	lea    rdx,[rip+0x545c]        # e7b7 <quoting_style_vals+0xb7>
935b:	48 89 c6             	mov    rsi,rax
935e:	bf 01 00 00 00       	mov    edi,0x1
9363:	31 c0                	xor    eax,eax
9365:	e8 06 8a ff ff       	call   1d70 <__printf_chk@plt>
936a:	48 8d 35 5c 54 00 00 	lea    rsi,[rip+0x545c]        # e7cd <quoting_style_vals+0xcd>
9371:	ba 05 00 00 00       	mov    edx,0x5
9376:	31 ff                	xor    edi,edi
9378:	e8 e3 87 ff ff       	call   1b60 <dcgettext@plt>
937d:	48 8d 0d 5c 45 00 00 	lea    rcx,[rip+0x455c]        # d8e0 <_IO_stdin_used+0x12e0>
9384:	48 8d 15 e7 33 00 00 	lea    rdx,[rip+0x33e7]        # c772 <_IO_stdin_used+0x172>
938b:	48 89 c6             	mov    rsi,rax
938e:	bf 01 00 00 00       	mov    edi,0x1
9393:	31 c0                	xor    eax,eax
9395:	e8 d6 89 ff ff       	call   1d70 <__printf_chk@plt>
939a:	48 8b 1d 27 7d 20 00 	mov    rbx,QWORD PTR [rip+0x207d27]        # 2110c8 <stdout@@GLIBC_2.2.5>
93a1:	48 8d 35 58 56 00 00 	lea    rsi,[rip+0x5658]        # ea00 <quoting_style_vals+0x300>
93a8:	31 ff                	xor    edi,edi
93aa:	ba 05 00 00 00       	mov    edx,0x5
93af:	e8 ac 87 ff ff       	call   1b60 <dcgettext@plt>
93b4:	48 89 de             	mov    rsi,rbx
93b7:	48 89 c7             	mov    rdi,rax
93ba:	5b                   	pop    rbx
93bb:	e9 e0 88 ff ff       	jmp    1ca0 <fputs_unlocked@plt>

00000000000093c0 <xmalloc>:
93c0:	53                   	push   rbx
93c1:	48 89 fb             	mov    rbx,rdi
93c4:	e8 37 89 ff ff       	call   1d00 <malloc@plt>
93c9:	48 85 c0             	test   rax,rax
93cc:	75 05                	jne    93d3 <xmalloc+0x13>
93ce:	48 85 db             	test   rbx,rbx
93d1:	75 02                	jne    93d5 <xmalloc+0x15>
93d3:	5b                   	pop    rbx
93d4:	c3                   	ret
93d5:	e8 36 02 00 00       	call   9610 <xalloc_die>
93da:	66 0f 1f 44 00 00    	nop    WORD PTR [rax+rax*1+0x0]

00000000000093e0 <xnmalloc>:
93e0:	48 89 f8             	mov    rax,rdi
93e3:	48 f7 e6             	mul    rsi
93e6:	48 89 c7             	mov    rdi,rax
93e9:	0f 90 c0             	seto   al
93ec:	48 85 ff             	test   rdi,rdi
93ef:	78 0a                	js     93fb <xnmalloc+0x1b>
93f1:	0f b6 c0             	movzx  eax,al
93f4:	48 85 c0             	test   rax,rax
93f7:	75 02                	jne    93fb <xnmalloc+0x1b>
93f9:	eb c5                	jmp    93c0 <xmalloc>
93fb:	48 83 ec 08          	sub    rsp,0x8
93ff:	e8 0c 02 00 00       	call   9610 <xalloc_die>
9404:	66 90                	xchg   ax,ax
9406:	66 2e 0f 1f 84 00 00 	nop    WORD PTR cs:[rax+rax*1+0x0]
940d:	00 00 00

0000000000009410 <xcharalloc>:
9410:	eb ae                	jmp    93c0 <xmalloc>
9412:	0f 1f 40 00          	nop    DWORD PTR [rax+0x0]
9416:	66 2e 0f 1f 84 00 00 	nop    WORD PTR cs:[rax+rax*1+0x0]
941d:	00 00 00

0000000000009420 <xrealloc>:
9420:	48 85 f6             	test   rsi,rsi
9423:	53                   	push   rbx
9424:	48 89 f3             	mov    rbx,rsi
9427:	75 05                	jne    942e <xrealloc+0xe>
9429:	48 85 ff             	test   rdi,rdi
942c:	75 1a                	jne    9448 <xrealloc+0x28>
942e:	48 89 de             	mov    rsi,rbx
9431:	e8 1a 89 ff ff       	call   1d50 <realloc@plt>
9436:	48 85 c0             	test   rax,rax
9439:	75 05                	jne    9440 <xrealloc+0x20>
943b:	48 85 db             	test   rbx,rbx
943e:	75 11                	jne    9451 <xrealloc+0x31>
9440:	5b                   	pop    rbx
9441:	c3                   	ret
9442:	66 0f 1f 44 00 00    	nop    WORD PTR [rax+rax*1+0x0]
9448:	e8 13 86 ff ff       	call   1a60 <free@plt>
944d:	31 c0                	xor    eax,eax
944f:	5b                   	pop    rbx
9450:	c3                   	ret
9451:	e8 ba 01 00 00       	call   9610 <xalloc_die>
9456:	66 2e 0f 1f 84 00 00 	nop    WORD PTR cs:[rax+rax*1+0x0]
945d:	00 00 00

0000000000009460 <xnrealloc>:
9460:	48 89 f0             	mov    rax,rsi
9463:	48 f7 e2             	mul    rdx
9466:	48 89 c6             	mov    rsi,rax
9469:	0f 90 c0             	seto   al
946c:	48 85 f6             	test   rsi,rsi
946f:	78 0a                	js     947b <xnrealloc+0x1b>
9471:	0f b6 c0             	movzx  eax,al
9474:	48 85 c0             	test   rax,rax
9477:	75 02                	jne    947b <xnrealloc+0x1b>
9479:	eb a5                	jmp    9420 <xrealloc>
947b:	48 83 ec 08          	sub    rsp,0x8
947f:	e8 8c 01 00 00       	call   9610 <xalloc_die>
9484:	66 90                	xchg   ax,ax
9486:	66 2e 0f 1f 84 00 00 	nop    WORD PTR cs:[rax+rax*1+0x0]
948d:	00 00 00

0000000000009490 <x2nrealloc>:
9490:	48 85 ff             	test   rdi,rdi
9493:	49 89 d1             	mov    r9,rdx
9496:	48 8b 0e             	mov    rcx,QWORD PTR [rsi]
9499:	74 35                	je     94d0 <x2nrealloc+0x40>
949b:	31 d2                	xor    edx,edx
949d:	48 b8 54 55 55 55 55 	movabs rax,0x5555555555555554
94a4:	55 55 55
94a7:	49 f7 f1             	div    r9
94aa:	48 39 c8             	cmp    rax,rcx
94ad:	76 3c                	jbe    94eb <x2nrealloc+0x5b>
94af:	48 89 c8             	mov    rax,rcx
94b2:	48 d1 e8             	shr    rax,1
94b5:	48 8d 4c 08 01       	lea    rcx,[rax+rcx*1+0x1]
94ba:	48 89 0e             	mov    QWORD PTR [rsi],rcx
94bd:	49 0f af c9          	imul   rcx,r9
94c1:	48 89 ce             	mov    rsi,rcx
94c4:	e9 57 ff ff ff       	jmp    9420 <xrealloc>
94c9:	0f 1f 80 00 00 00 00 	nop    DWORD PTR [rax+0x0]
94d0:	48 85 c9             	test   rcx,rcx
94d3:	74 23                	je     94f8 <x2nrealloc+0x68>
94d5:	48 89 c8             	mov    rax,rcx
94d8:	49 f7 e1             	mul    r9
94db:	0f 90 c2             	seto   dl
94de:	48 85 c0             	test   rax,rax
94e1:	0f b6 d2             	movzx  edx,dl
94e4:	78 05                	js     94eb <x2nrealloc+0x5b>
94e6:	48 85 d2             	test   rdx,rdx
94e9:	74 cf                	je     94ba <x2nrealloc+0x2a>
94eb:	48 83 ec 08          	sub    rsp,0x8
94ef:	e8 1c 01 00 00       	call   9610 <xalloc_die>
94f4:	0f 1f 40 00          	nop    DWORD PTR [rax+0x0]
94f8:	31 d2                	xor    edx,edx
94fa:	b8 80 00 00 00       	mov    eax,0x80
94ff:	45 31 c0             	xor    r8d,r8d
9502:	49 f7 f1             	div    r9
9505:	48 85 c0             	test   rax,rax
9508:	41 0f 94 c0          	sete   r8b
950c:	49 8d 0c 00          	lea    rcx,[r8+rax*1]
9510:	eb c3                	jmp    94d5 <x2nrealloc+0x45>
9512:	0f 1f 40 00          	nop    DWORD PTR [rax+0x0]
9516:	66 2e 0f 1f 84 00 00 	nop    WORD PTR cs:[rax+rax*1+0x0]
951d:	00 00 00

0000000000009520 <x2realloc>:
9520:	48 85 ff             	test   rdi,rdi
9523:	48 8b 06             	mov    rax,QWORD PTR [rsi]
9526:	74 28                	je     9550 <x2realloc+0x30>
9528:	48 ba 53 55 55 55 55 	movabs rdx,0x5555555555555553
952f:	55 55 55
9532:	48 39 d0             	cmp    rax,rdx
9535:	77 2a                	ja     9561 <x2realloc+0x41>
9537:	48 89 c2             	mov    rdx,rax
953a:	48 d1 ea             	shr    rdx,1
953d:	48 8d 44 02 01       	lea    rax,[rdx+rax*1+0x1]
9542:	48 89 06             	mov    QWORD PTR [rsi],rax
9545:	48 89 c6             	mov    rsi,rax
9548:	e9 d3 fe ff ff       	jmp    9420 <xrealloc>
954d:	0f 1f 00             	nop    DWORD PTR [rax]
9550:	48 85 c0             	test   rax,rax
9553:	ba 80 00 00 00       	mov    edx,0x80
9558:	48 0f 44 c2          	cmove  rax,rdx
955c:	48 85 c0             	test   rax,rax
955f:	79 e1                	jns    9542 <x2realloc+0x22>
9561:	48 83 ec 08          	sub    rsp,0x8
9565:	e8 a6 00 00 00       	call   9610 <xalloc_die>
956a:	66 0f 1f 44 00 00    	nop    WORD PTR [rax+rax*1+0x0]

0000000000009570 <xzalloc>:
9570:	53                   	push   rbx
9571:	48 89 fb             	mov    rbx,rdi
9574:	e8 47 fe ff ff       	call   93c0 <xmalloc>
9579:	48 89 da             	mov    rdx,rbx
957c:	31 f6                	xor    esi,esi
957e:	48 89 c7             	mov    rdi,rax
9581:	5b                   	pop    rbx
9582:	e9 b9 86 ff ff       	jmp    1c40 <memset@plt>
9587:	66 0f 1f 84 00 00 00 	nop    WORD PTR [rax+rax*1+0x0]
958e:	00 00

0000000000009590 <xcalloc>:
9590:	48 89 f8             	mov    rax,rdi
9593:	48 83 ec 08          	sub    rsp,0x8
9597:	48 f7 e6             	mul    rsi
959a:	0f 90 c2             	seto   dl
959d:	48 85 c0             	test   rax,rax
95a0:	78 17                	js     95b9 <xcalloc+0x29>
95a2:	0f b6 d2             	movzx  edx,dl
95a5:	48 85 d2             	test   rdx,rdx
95a8:	75 0f                	jne    95b9 <xcalloc+0x29>
95aa:	e8 01 87 ff ff       	call   1cb0 <calloc@plt>
95af:	48 85 c0             	test   rax,rax
95b2:	74 05                	je     95b9 <xcalloc+0x29>
95b4:	48 83 c4 08          	add    rsp,0x8
95b8:	c3                   	ret
95b9:	e8 52 00 00 00       	call   9610 <xalloc_die>
95be:	66 90                	xchg   ax,ax

00000000000095c0 <xmemdup>:
95c0:	55                   	push   rbp
95c1:	53                   	push   rbx
95c2:	48 89 fd             	mov    rbp,rdi
95c5:	48 89 f7             	mov    rdi,rsi
95c8:	48 89 f3             	mov    rbx,rsi
95cb:	48 83 ec 08          	sub    rsp,0x8
95cf:	e8 ec fd ff ff       	call   93c0 <xmalloc>
95d4:	48 83 c4 08          	add    rsp,0x8
95d8:	48 89 da             	mov    rdx,rbx
95db:	48 89 ee             	mov    rsi,rbp
95de:	5b                   	pop    rbx
95df:	5d                   	pop    rbp
95e0:	48 89 c7             	mov    rdi,rax
95e3:	e9 f8 86 ff ff       	jmp    1ce0 <memcpy@plt>
95e8:	0f 1f 84 00 00 00 00 	nop    DWORD PTR [rax+rax*1+0x0]
95ef:	00

00000000000095f0 <xstrdup>:
95f0:	53                   	push   rbx
95f1:	48 89 fb             	mov    rbx,rdi
95f4:	e8 87 85 ff ff       	call   1b80 <strlen@plt>
95f9:	48 89 df             	mov    rdi,rbx
95fc:	48 8d 70 01          	lea    rsi,[rax+0x1]
9600:	5b                   	pop    rbx
9601:	eb bd                	jmp    95c0 <xmemdup>
9603:	66 2e 0f 1f 84 00 00 	nop    WORD PTR cs:[rax+rax*1+0x0]
960a:	00 00 00
960d:	0f 1f 00             	nop    DWORD PTR [rax]

0000000000009610 <xalloc_die>:
9610:	48 8d 35 98 54 00 00 	lea    rsi,[rip+0x5498]        # eaaf <version_etc_copyright+0x2f>
9617:	48 83 ec 08          	sub    rsp,0x8
961b:	ba 05 00 00 00       	mov    edx,0x5
9620:	31 ff                	xor    edi,edi
9622:	e8 39 85 ff ff       	call   1b60 <dcgettext@plt>
9627:	8b 3d 03 7a 20 00    	mov    edi,DWORD PTR [rip+0x207a03]        # 211030 <exit_failure>
962d:	48 8d 15 38 30 00 00 	lea    rdx,[rip+0x3038]        # c66c <_IO_stdin_used+0x6c>
9634:	48 89 c1             	mov    rcx,rax
9637:	31 f6                	xor    esi,esi
9639:	31 c0                	xor    eax,eax
963b:	e8 50 87 ff ff       	call   1d90 <error@plt>
9640:	e8 2b 84 ff ff       	call   1a70 <abort@plt>
9645:	66 2e 0f 1f 84 00 00 	nop    WORD PTR cs:[rax+rax*1+0x0]
964c:	00 00 00
964f:	90                   	nop

0000000000009650 <xstrtoumax>:
9650:	41 57                	push   r15
9652:	41 56                	push   r14
9654:	41 55                	push   r13
9656:	41 54                	push   r12
9658:	55                   	push   rbp
9659:	53                   	push   rbx
965a:	48 83 ec 28          	sub    rsp,0x28
965e:	64 48 8b 04 25 28 00 	mov    rax,QWORD PTR fs:0x28
9665:	00 00
9667:	48 89 44 24 18       	mov    QWORD PTR [rsp+0x18],rax
966c:	31 c0                	xor    eax,eax
966e:	83 fa 24             	cmp    edx,0x24
9671:	0f 87 5e 03 00 00    	ja     99d5 <xstrtoumax+0x385>
9677:	48 8d 44 24 10       	lea    rax,[rsp+0x10]
967c:	49 89 f7             	mov    r15,rsi
967f:	48 85 f6             	test   rsi,rsi
9682:	48 89 fd             	mov    rbp,rdi
9685:	89 54 24 08          	mov    DWORD PTR [rsp+0x8],edx
9689:	49 89 ce             	mov    r14,rcx
968c:	4d 89 c5             	mov    r13,r8
968f:	4c 0f 44 f8          	cmove  r15,rax
9693:	e8 e8 83 ff ff       	call   1a80 <__errno_location@plt>
9698:	c7 00 00 00 00 00    	mov    DWORD PTR [rax],0x0
969e:	49 89 c4             	mov    r12,rax
96a1:	0f b6 5d 00          	movzx  ebx,BYTE PTR [rbp+0x0]
96a5:	e8 d6 87 ff ff       	call   1e80 <__ctype_b_loc@plt>
96aa:	8b 54 24 08          	mov    edx,DWORD PTR [rsp+0x8]
96ae:	48 8b 30             	mov    rsi,QWORD PTR [rax]
96b1:	48 89 e8             	mov    rax,rbp
96b4:	eb 11                	jmp    96c7 <xstrtoumax+0x77>
96b6:	66 2e 0f 1f 84 00 00 	nop    WORD PTR cs:[rax+rax*1+0x0]
96bd:	00 00 00
96c0:	48 83 c0 01          	add    rax,0x1
96c4:	0f b6 18             	movzx  ebx,BYTE PTR [rax]
96c7:	0f b6 cb             	movzx  ecx,bl
96ca:	f6 44 4e 01 20       	test   BYTE PTR [rsi+rcx*2+0x1],0x20
96cf:	75 ef                	jne    96c0 <xstrtoumax+0x70>
96d1:	80 fb 2d             	cmp    bl,0x2d
96d4:	74 52                	je     9728 <xstrtoumax+0xd8>
96d6:	31 c9                	xor    ecx,ecx
96d8:	4c 89 fe             	mov    rsi,r15
96db:	48 89 ef             	mov    rdi,rbp
96de:	e8 4d 85 ff ff       	call   1c30 <__strtoul_internal@plt>
96e3:	49 8b 0f             	mov    rcx,QWORD PTR [r15]
96e6:	48 89 c3             	mov    rbx,rax
96e9:	48 39 e9             	cmp    rcx,rbp
96ec:	74 2a                	je     9718 <xstrtoumax+0xc8>
96ee:	41 8b 04 24          	mov    eax,DWORD PTR [r12]
96f2:	85 c0                	test   eax,eax
96f4:	74 62                	je     9758 <xstrtoumax+0x108>
96f6:	83 f8 22             	cmp    eax,0x22
96f9:	bd 01 00 00 00       	mov    ebp,0x1
96fe:	75 28                	jne    9728 <xstrtoumax+0xd8>
9700:	4d 85 ed             	test   r13,r13
9703:	74 09                	je     970e <xstrtoumax+0xbe>
9705:	44 0f b6 21          	movzx  r12d,BYTE PTR [rcx]
9709:	45 84 e4             	test   r12b,r12b
970c:	75 79                	jne    9787 <xstrtoumax+0x137>
970e:	49 89 1e             	mov    QWORD PTR [r14],rbx
9711:	eb 1a                	jmp    972d <xstrtoumax+0xdd>
9713:	0f 1f 44 00 00       	nop    DWORD PTR [rax+rax*1+0x0]
9718:	4d 85 ed             	test   r13,r13
971b:	48 89 4c 24 08       	mov    QWORD PTR [rsp+0x8],rcx
9720:	75 3e                	jne    9760 <xstrtoumax+0x110>
9722:	66 0f 1f 44 00 00    	nop    WORD PTR [rax+rax*1+0x0]
9728:	bd 04 00 00 00       	mov    ebp,0x4
972d:	48 8b 7c 24 18       	mov    rdi,QWORD PTR [rsp+0x18]
9732:	64 48 33 3c 25 28 00 	xor    rdi,QWORD PTR fs:0x28
9739:	00 00
973b:	89 e8                	mov    eax,ebp
973d:	0f 85 8d 02 00 00    	jne    99d0 <xstrtoumax+0x380>
9743:	48 83 c4 28          	add    rsp,0x28
9747:	5b                   	pop    rbx
9748:	5d                   	pop    rbp
9749:	41 5c                	pop    r12
974b:	41 5d                	pop    r13
974d:	41 5e                	pop    r14
974f:	41 5f                	pop    r15
9751:	c3                   	ret
9752:	66 0f 1f 44 00 00    	nop    WORD PTR [rax+rax*1+0x0]
9758:	31 ed                	xor    ebp,ebp
975a:	eb a4                	jmp    9700 <xstrtoumax+0xb0>
975c:	0f 1f 40 00          	nop    DWORD PTR [rax+0x0]
9760:	44 0f b6 65 00       	movzx  r12d,BYTE PTR [rbp+0x0]
9765:	45 84 e4             	test   r12b,r12b
9768:	74 be                	je     9728 <xstrtoumax+0xd8>
976a:	41 0f be f4          	movsx  esi,r12b
976e:	4c 89 ef             	mov    rdi,r13
9771:	31 ed                	xor    ebp,ebp
9773:	e8 58 84 ff ff       	call   1bd0 <strchr@plt>
9778:	48 85 c0             	test   rax,rax
977b:	bb 01 00 00 00       	mov    ebx,0x1
9780:	48 8b 4c 24 08       	mov    rcx,QWORD PTR [rsp+0x8]
9785:	74 a1                	je     9728 <xstrtoumax+0xd8>
9787:	41 0f be f4          	movsx  esi,r12b
978b:	4c 89 ef             	mov    rdi,r13
978e:	48 89 4c 24 08       	mov    QWORD PTR [rsp+0x8],rcx
9793:	e8 38 84 ff ff       	call   1bd0 <strchr@plt>
9798:	48 85 c0             	test   rax,rax
979b:	48 8b 4c 24 08       	mov    rcx,QWORD PTR [rsp+0x8]
97a0:	0f 84 c6 00 00 00    	je     986c <xstrtoumax+0x21c>
97a6:	41 8d 44 24 bb       	lea    eax,[r12-0x45]
97ab:	3c 2f                	cmp    al,0x2f
97ad:	77 51                	ja     9800 <xstrtoumax+0x1b0>
97af:	48 ba 45 89 30 00 44 	movabs rdx,0x814400308945
97b6:	81 00 00
97b9:	48 0f a3 c2          	bt     rdx,rax
97bd:	73 41                	jae    9800 <xstrtoumax+0x1b0>
97bf:	be 30 00 00 00       	mov    esi,0x30
97c4:	4c 89 ef             	mov    rdi,r13
97c7:	48 89 4c 24 08       	mov    QWORD PTR [rsp+0x8],rcx
97cc:	e8 ff 83 ff ff       	call   1bd0 <strchr@plt>
97d1:	48 85 c0             	test   rax,rax
97d4:	48 8b 4c 24 08       	mov    rcx,QWORD PTR [rsp+0x8]
97d9:	74 25                	je     9800 <xstrtoumax+0x1b0>
97db:	0f b6 41 01          	movzx  eax,BYTE PTR [rcx+0x1]
97df:	3c 44                	cmp    al,0x44
97e1:	74 0c                	je     97ef <xstrtoumax+0x19f>
97e3:	3c 69                	cmp    al,0x69
97e5:	0f 84 cd 01 00 00    	je     99b8 <xstrtoumax+0x368>
97eb:	3c 42                	cmp    al,0x42
97ed:	75 11                	jne    9800 <xstrtoumax+0x1b0>
97ef:	bf 02 00 00 00       	mov    edi,0x2
97f4:	be e8 03 00 00       	mov    esi,0x3e8
97f9:	eb 0f                	jmp    980a <xstrtoumax+0x1ba>
97fb:	0f 1f 44 00 00       	nop    DWORD PTR [rax+rax*1+0x0]
9800:	bf 01 00 00 00       	mov    edi,0x1
9805:	be 00 04 00 00       	mov    esi,0x400
980a:	41 83 ec 42          	sub    r12d,0x42
980e:	41 80 fc 35          	cmp    r12b,0x35
9812:	77 58                	ja     986c <xstrtoumax+0x21c>
9814:	48 8d 15 ed 52 00 00 	lea    rdx,[rip+0x52ed]        # eb08 <version_etc_copyright+0x88>
981b:	45 0f b6 e4          	movzx  r12d,r12b
981f:	4a 63 04 a2          	movsxd rax,DWORD PTR [rdx+r12*4]
9823:	48 01 d0             	add    rax,rdx
9826:	ff e0                	jmp    rax
9828:	48 89 d8             	mov    rax,rbx
982b:	48 f7 e6             	mul    rsi
982e:	0f 80 ed 01 00 00    	jo     9a21 <xstrtoumax+0x3d1>
9834:	45 31 c0             	xor    r8d,r8d
9837:	48 f7 e6             	mul    rsi
983a:	0f 80 d2 01 00 00    	jo     9a12 <xstrtoumax+0x3c2>
9840:	48 89 c3             	mov    rbx,rax
9843:	44 09 c5             	or     ebp,r8d
9846:	66 2e 0f 1f 84 00 00 	nop    WORD PTR cs:[rax+rax*1+0x0]
984d:	00 00 00
9850:	48 63 ff             	movsxd rdi,edi
9853:	89 e8                	mov    eax,ebp
9855:	48 01 f9             	add    rcx,rdi
9858:	83 c8 02             	or     eax,0x2
985b:	49 89 0f             	mov    QWORD PTR [r15],rcx
985e:	80 39 00             	cmp    BYTE PTR [rcx],0x0
9861:	49 89 1e             	mov    QWORD PTR [r14],rbx
9864:	0f 45 e8             	cmovne ebp,eax
9867:	e9 c1 fe ff ff       	jmp    972d <xstrtoumax+0xdd>
986c:	49 89 1e             	mov    QWORD PTR [r14],rbx
986f:	83 cd 02             	or     ebp,0x2
9872:	e9 b6 fe ff ff       	jmp    972d <xstrtoumax+0xdd>
9877:	ba 02 00 00 00       	mov    edx,0x2
987c:	48 89 d0             	mov    rax,rdx
987f:	48 f7 e3             	mul    rbx
9882:	0f 80 96 00 00 00    	jo     991e <xstrtoumax+0x2ce>
9888:	48 01 db             	add    rbx,rbx
988b:	eb c3                	jmp    9850 <xstrtoumax+0x200>
988d:	ba 00 02 00 00       	mov    edx,0x200
9892:	48 89 d0             	mov    rax,rdx
9895:	48 f7 e3             	mul    rbx
9898:	0f 80 80 00 00 00    	jo     991e <xstrtoumax+0x2ce>
989e:	48 c1 e3 09          	shl    rbx,0x9
98a2:	eb ac                	jmp    9850 <xstrtoumax+0x200>
98a4:	41 b8 07 00 00 00    	mov    r8d,0x7
98aa:	45 31 c9             	xor    r9d,r9d
98ad:	0f 1f 00             	nop    DWORD PTR [rax]
98b0:	48 89 d8             	mov    rax,rbx
98b3:	48 f7 e6             	mul    rsi
98b6:	48 89 c3             	mov    rbx,rax
98b9:	0f 80 8f 01 00 00    	jo     9a4e <xstrtoumax+0x3fe>
98bf:	41 83 e8 01          	sub    r8d,0x1
98c3:	75 eb                	jne    98b0 <xstrtoumax+0x260>
98c5:	44 09 cd             	or     ebp,r9d
98c8:	eb 86                	jmp    9850 <xstrtoumax+0x200>
98ca:	41 b8 08 00 00 00    	mov    r8d,0x8
98d0:	45 31 c9             	xor    r9d,r9d
98d3:	0f 1f 44 00 00       	nop    DWORD PTR [rax+rax*1+0x0]
98d8:	48 89 d8             	mov    rax,rbx
98db:	48 f7 e6             	mul    rsi
98de:	48 89 c3             	mov    rbx,rax
98e1:	0f 80 49 01 00 00    	jo     9a30 <xstrtoumax+0x3e0>
98e7:	41 83 e8 01          	sub    r8d,0x1
98eb:	75 eb                	jne    98d8 <xstrtoumax+0x288>
98ed:	eb d6                	jmp    98c5 <xstrtoumax+0x275>
98ef:	41 b8 04 00 00 00    	mov    r8d,0x4
98f5:	45 31 c9             	xor    r9d,r9d
98f8:	48 89 d8             	mov    rax,rbx
98fb:	48 f7 e6             	mul    rsi
98fe:	48 89 c3             	mov    rbx,rax
9901:	0f 80 fc 00 00 00    	jo     9a03 <xstrtoumax+0x3b3>
9907:	41 83 e8 01          	sub    r8d,0x1
990b:	75 eb                	jne    98f8 <xstrtoumax+0x2a8>
990d:	eb b6                	jmp    98c5 <xstrtoumax+0x275>
990f:	48 89 d8             	mov    rax,rbx
9912:	48 f7 e6             	mul    rsi
9915:	48 89 c3             	mov    rbx,rax
9918:	0f 81 32 ff ff ff    	jno    9850 <xstrtoumax+0x200>
991e:	bd 01 00 00 00       	mov    ebp,0x1
9923:	48 83 cb ff          	or     rbx,0xffffffffffffffff
9927:	e9 24 ff ff ff       	jmp    9850 <xstrtoumax+0x200>
992c:	0f 1f 40 00          	nop    DWORD PTR [rax+0x0]
9930:	41 b8 05 00 00 00    	mov    r8d,0x5
9936:	45 31 c9             	xor    r9d,r9d
9939:	48 89 d8             	mov    rax,rbx
993c:	48 f7 e6             	mul    rsi
993f:	48 89 c3             	mov    rbx,rax
9942:	0f 80 f7 00 00 00    	jo     9a3f <xstrtoumax+0x3ef>
9948:	41 83 e8 01          	sub    r8d,0x1
994c:	75 eb                	jne    9939 <xstrtoumax+0x2e9>
994e:	e9 72 ff ff ff       	jmp    98c5 <xstrtoumax+0x275>
9953:	41 b8 06 00 00 00    	mov    r8d,0x6
9959:	45 31 c9             	xor    r9d,r9d
995c:	48 89 d8             	mov    rax,rbx
995f:	48 f7 e6             	mul    rsi
9962:	48 89 c3             	mov    rbx,rax
9965:	0f 80 89 00 00 00    	jo     99f4 <xstrtoumax+0x3a4>
996b:	41 83 e8 01          	sub    r8d,0x1
996f:	75 eb                	jne    995c <xstrtoumax+0x30c>
9971:	e9 4f ff ff ff       	jmp    98c5 <xstrtoumax+0x275>
9976:	ba 00 04 00 00       	mov    edx,0x400
997b:	48 89 d0             	mov    rax,rdx
997e:	48 f7 e3             	mul    rbx
9981:	70 9b                	jo     991e <xstrtoumax+0x2ce>
9983:	48 c1 e3 0a          	shl    rbx,0xa
9987:	e9 c4 fe ff ff       	jmp    9850 <xstrtoumax+0x200>
998c:	48 89 d8             	mov    rax,rbx
998f:	48 f7 e6             	mul    rsi
9992:	0f 80 c5 00 00 00    	jo     9a5d <xstrtoumax+0x40d>
9998:	45 31 c0             	xor    r8d,r8d
999b:	48 f7 e6             	mul    rsi
999e:	0f 81 93 fe ff ff    	jno    9837 <xstrtoumax+0x1e7>
99a4:	41 b8 01 00 00 00    	mov    r8d,0x1
99aa:	48 83 c8 ff          	or     rax,0xffffffffffffffff
99ae:	e9 84 fe ff ff       	jmp    9837 <xstrtoumax+0x1e7>
99b3:	0f 1f 44 00 00       	nop    DWORD PTR [rax+rax*1+0x0]
99b8:	31 ff                	xor    edi,edi
99ba:	80 79 02 42          	cmp    BYTE PTR [rcx+0x2],0x42
99be:	be 00 04 00 00       	mov    esi,0x400
99c3:	40 0f 94 c7          	sete   dil
99c7:	8d 7c 3f 01          	lea    edi,[rdi+rdi*1+0x1]
99cb:	e9 3a fe ff ff       	jmp    980a <xstrtoumax+0x1ba>
99d0:	e8 bb 81 ff ff       	call   1b90 <__stack_chk_fail@plt>
99d5:	48 8d 0d 04 52 00 00 	lea    rcx,[rip+0x5204]        # ebe0 <__PRETTY_FUNCTION__.4162>
99dc:	48 8d 35 dd 50 00 00 	lea    rsi,[rip+0x50dd]        # eac0 <version_etc_copyright+0x40>
99e3:	48 8d 3d f6 50 00 00 	lea    rdi,[rip+0x50f6]        # eae0 <version_etc_copyright+0x60>
99ea:	ba 54 00 00 00       	mov    edx,0x54
99ef:	e8 2c 82 ff ff       	call   1c20 <__assert_fail@plt>
99f4:	41 b9 01 00 00 00    	mov    r9d,0x1
99fa:	48 83 cb ff          	or     rbx,0xffffffffffffffff
99fe:	e9 68 ff ff ff       	jmp    996b <xstrtoumax+0x31b>
9a03:	41 b9 01 00 00 00    	mov    r9d,0x1
9a09:	48 83 cb ff          	or     rbx,0xffffffffffffffff
9a0d:	e9 f5 fe ff ff       	jmp    9907 <xstrtoumax+0x2b7>
9a12:	41 b8 01 00 00 00    	mov    r8d,0x1
9a18:	48 83 cb ff          	or     rbx,0xffffffffffffffff
9a1c:	e9 22 fe ff ff       	jmp    9843 <xstrtoumax+0x1f3>
9a21:	48 83 c8 ff          	or     rax,0xffffffffffffffff
9a25:	41 b8 01 00 00 00    	mov    r8d,0x1
9a2b:	e9 07 fe ff ff       	jmp    9837 <xstrtoumax+0x1e7>
9a30:	41 b9 01 00 00 00    	mov    r9d,0x1
9a36:	48 83 cb ff          	or     rbx,0xffffffffffffffff
9a3a:	e9 a8 fe ff ff       	jmp    98e7 <xstrtoumax+0x297>
9a3f:	41 b9 01 00 00 00    	mov    r9d,0x1
9a45:	48 83 cb ff          	or     rbx,0xffffffffffffffff
9a49:	e9 fa fe ff ff       	jmp    9948 <xstrtoumax+0x2f8>
9a4e:	41 b9 01 00 00 00    	mov    r9d,0x1
9a54:	48 83 cb ff          	or     rbx,0xffffffffffffffff
9a58:	e9 62 fe ff ff       	jmp    98bf <xstrtoumax+0x26f>
9a5d:	41 b8 01 00 00 00    	mov    r8d,0x1
9a63:	48 83 c8 ff          	or     rax,0xffffffffffffffff
9a67:	e9 2f ff ff ff       	jmp    999b <xstrtoumax+0x34b>
9a6c:	0f 1f 40 00          	nop    DWORD PTR [rax+0x0]

0000000000009a70 <xstrcat>:
9a70:	41 57                	push   r15
9a72:	41 56                	push   r14
9a74:	41 55                	push   r13
9a76:	41 54                	push   r12
9a78:	55                   	push   rbp
9a79:	53                   	push   rbx
9a7a:	48 83 ec 28          	sub    rsp,0x28
9a7e:	64 48 8b 04 25 28 00 	mov    rax,QWORD PTR fs:0x28
9a85:	00 00
9a87:	48 89 44 24 18       	mov    QWORD PTR [rsp+0x18],rax
9a8c:	31 c0                	xor    eax,eax
9a8e:	48 85 ff             	test   rdi,rdi
9a91:	f3 0f 6f 06          	movdqu xmm0,XMMWORD PTR [rsi]
9a95:	0f 11 04 24          	movups XMMWORD PTR [rsp],xmm0
9a99:	4c 8b 76 10          	mov    r14,QWORD PTR [rsi+0x10]
9a9d:	4c 89 74 24 10       	mov    QWORD PTR [rsp+0x10],r14
9aa2:	0f 84 a8 00 00 00    	je     9b50 <xstrcat+0xe0>
9aa8:	49 89 fc             	mov    r12,rdi
9aab:	49 89 f7             	mov    r15,rsi
9aae:	48 89 fd             	mov    rbp,rdi
9ab1:	31 db                	xor    ebx,ebx
9ab3:	49 c7 c5 ff ff ff ff 	mov    r13,0xffffffffffffffff
9aba:	8b 14 24             	mov    edx,DWORD PTR [rsp]
9abd:	83 fa 2f             	cmp    edx,0x2f
9ac0:	0f 87 da 00 00 00    	ja     9ba0 <xstrcat+0x130>
9ac6:	89 d0                	mov    eax,edx
9ac8:	83 c2 08             	add    edx,0x8
9acb:	4c 01 f0             	add    rax,r14
9ace:	89 14 24             	mov    DWORD PTR [rsp],edx
9ad1:	48 8b 38             	mov    rdi,QWORD PTR [rax]
9ad4:	e8 a7 80 ff ff       	call   1b80 <strlen@plt>
9ad9:	48 01 c3             	add    rbx,rax
9adc:	49 0f 42 dd          	cmovb  rbx,r13
9ae0:	48 83 ed 01          	sub    rbp,0x1
9ae4:	75 d4                	jne    9aba <xstrcat+0x4a>
9ae6:	48 81 fb ff ff ff 7f 	cmp    rbx,0x7fffffff
9aed:	0f 87 9d 00 00 00    	ja     9b90 <xstrcat+0x120>
9af3:	48 8d 7b 01          	lea    rdi,[rbx+0x1]
9af7:	e8 c4 f8 ff ff       	call   93c0 <xmalloc>
9afc:	49 89 c6             	mov    r14,rax
9aff:	48 89 c3             	mov    rbx,rax
9b02:	eb 31                	jmp    9b35 <xstrcat+0xc5>
9b04:	89 d0                	mov    eax,edx
9b06:	49 03 47 10          	add    rax,QWORD PTR [r15+0x10]
9b0a:	83 c2 08             	add    edx,0x8
9b0d:	41 89 17             	mov    DWORD PTR [r15],edx
9b10:	4c 8b 28             	mov    r13,QWORD PTR [rax]
9b13:	4c 89 ef             	mov    rdi,r13
9b16:	e8 65 80 ff ff       	call   1b80 <strlen@plt>
9b1b:	48 89 df             	mov    rdi,rbx
9b1e:	48 89 c5             	mov    rbp,rax
9b21:	48 89 c2             	mov    rdx,rax
9b24:	4c 89 ee             	mov    rsi,r13
9b27:	48 01 eb             	add    rbx,rbp
9b2a:	e8 b1 81 ff ff       	call   1ce0 <memcpy@plt>
9b2f:	49 83 ec 01          	sub    r12,0x1
9b33:	74 2b                	je     9b60 <xstrcat+0xf0>
9b35:	41 8b 17             	mov    edx,DWORD PTR [r15]
9b38:	83 fa 2f             	cmp    edx,0x2f
9b3b:	76 c7                	jbe    9b04 <xstrcat+0x94>
9b3d:	49 8b 47 08          	mov    rax,QWORD PTR [r15+0x8]
9b41:	48 8d 50 08          	lea    rdx,[rax+0x8]
9b45:	49 89 57 08          	mov    QWORD PTR [r15+0x8],rdx
9b49:	eb c5                	jmp    9b10 <xstrcat+0xa0>
9b4b:	0f 1f 44 00 00       	nop    DWORD PTR [rax+rax*1+0x0]
9b50:	bf 01 00 00 00       	mov    edi,0x1
9b55:	e8 66 f8 ff ff       	call   93c0 <xmalloc>
9b5a:	48 89 c3             	mov    rbx,rax
9b5d:	49 89 c6             	mov    r14,rax
9b60:	c6 03 00             	mov    BYTE PTR [rbx],0x0
9b63:	48 8b 4c 24 18       	mov    rcx,QWORD PTR [rsp+0x18]
9b68:	64 48 33 0c 25 28 00 	xor    rcx,QWORD PTR fs:0x28
9b6f:	00 00
9b71:	4c 89 f0             	mov    rax,r14
9b74:	75 0f                	jne    9b85 <xstrcat+0x115>
9b76:	48 83 c4 28          	add    rsp,0x28
9b7a:	5b                   	pop    rbx
9b7b:	5d                   	pop    rbp
9b7c:	41 5c                	pop    r12
9b7e:	41 5d                	pop    r13
9b80:	41 5e                	pop    r14
9b82:	41 5f                	pop    r15
9b84:	c3                   	ret
9b85:	e8 06 80 ff ff       	call   1b90 <__stack_chk_fail@plt>
9b8a:	66 0f 1f 44 00 00    	nop    WORD PTR [rax+rax*1+0x0]
9b90:	e8 eb 7e ff ff       	call   1a80 <__errno_location@plt>
9b95:	45 31 f6             	xor    r14d,r14d
9b98:	c7 00 4b 00 00 00    	mov    DWORD PTR [rax],0x4b
9b9e:	eb c3                	jmp    9b63 <xstrcat+0xf3>
9ba0:	48 8b 44 24 08       	mov    rax,QWORD PTR [rsp+0x8]
9ba5:	48 8d 50 08          	lea    rdx,[rax+0x8]
9ba9:	48 89 54 24 08       	mov    QWORD PTR [rsp+0x8],rdx
9bae:	e9 1e ff ff ff       	jmp    9ad1 <xstrcat+0x61>
9bb3:	0f 1f 00             	nop    DWORD PTR [rax]
9bb6:	66 2e 0f 1f 84 00 00 	nop    WORD PTR cs:[rax+rax*1+0x0]
9bbd:	00 00 00

0000000000009bc0 <xvasprintf>:
9bc0:	48 83 ec 18          	sub    rsp,0x18
9bc4:	64 48 8b 04 25 28 00 	mov    rax,QWORD PTR fs:0x28
9bcb:	00 00
9bcd:	48 89 44 24 08       	mov    QWORD PTR [rsp+0x8],rax
9bd2:	31 c0                	xor    eax,eax
9bd4:	0f b6 07             	movzx  eax,BYTE PTR [rdi]
9bd7:	84 c0                	test   al,al
9bd9:	74 7b                	je     9c56 <xvasprintf+0x96>
9bdb:	3c 25                	cmp    al,0x25
9bdd:	49 89 f8             	mov    r8,rdi
9be0:	75 36                	jne    9c18 <xvasprintf+0x58>
9be2:	80 7f 01 73          	cmp    BYTE PTR [rdi+0x1],0x73
9be6:	75 30                	jne    9c18 <xvasprintf+0x58>
9be8:	31 ff                	xor    edi,edi
9bea:	eb 11                	jmp    9bfd <xvasprintf+0x3d>
9bec:	0f 1f 40 00          	nop    DWORD PTR [rax+0x0]
9bf0:	80 f9 25             	cmp    cl,0x25
9bf3:	75 23                	jne    9c18 <xvasprintf+0x58>
9bf5:	41 80 7c 78 01 73    	cmp    BYTE PTR [r8+rdi*2+0x1],0x73
9bfb:	75 1b                	jne    9c18 <xvasprintf+0x58>
9bfd:	48 83 c7 01          	add    rdi,0x1
9c01:	41 0f b6 0c 78       	movzx  ecx,BYTE PTR [r8+rdi*2]
9c06:	84 c9                	test   cl,cl
9c08:	75 e6                	jne    9bf0 <xvasprintf+0x30>
9c0a:	e8 61 fe ff ff       	call   9a70 <xstrcat>
9c0f:	eb 1d                	jmp    9c2e <xvasprintf+0x6e>
9c11:	0f 1f 80 00 00 00 00 	nop    DWORD PTR [rax+0x0]
9c18:	48 89 f2             	mov    rdx,rsi
9c1b:	48 89 e7             	mov    rdi,rsp
9c1e:	4c 89 c6             	mov    rsi,r8
9c21:	e8 7a 04 00 00       	call   a0a0 <rpl_vasprintf>
9c26:	85 c0                	test   eax,eax
9c28:	78 1e                	js     9c48 <xvasprintf+0x88>
9c2a:	48 8b 04 24          	mov    rax,QWORD PTR [rsp]
9c2e:	48 8b 54 24 08       	mov    rdx,QWORD PTR [rsp+0x8]
9c33:	64 48 33 14 25 28 00 	xor    rdx,QWORD PTR fs:0x28
9c3a:	00 00
9c3c:	75 1c                	jne    9c5a <xvasprintf+0x9a>
9c3e:	48 83 c4 18          	add    rsp,0x18
9c42:	c3                   	ret
9c43:	0f 1f 44 00 00       	nop    DWORD PTR [rax+rax*1+0x0]
9c48:	e8 33 7e ff ff       	call   1a80 <__errno_location@plt>
9c4d:	83 38 0c             	cmp    DWORD PTR [rax],0xc
9c50:	74 0d                	je     9c5f <xvasprintf+0x9f>
9c52:	31 c0                	xor    eax,eax
9c54:	eb d8                	jmp    9c2e <xvasprintf+0x6e>
9c56:	31 ff                	xor    edi,edi
9c58:	eb b0                	jmp    9c0a <xvasprintf+0x4a>
9c5a:	e8 31 7f ff ff       	call   1b90 <__stack_chk_fail@plt>
9c5f:	e8 ac f9 ff ff       	call   9610 <xalloc_die>
9c64:	66 2e 0f 1f 84 00 00 	nop    WORD PTR cs:[rax+rax*1+0x0]
9c6b:	00 00 00
9c6e:	66 90                	xchg   ax,ax

0000000000009c70 <rpl_fclose>:
9c70:	41 54                	push   r12
9c72:	55                   	push   rbp
9c73:	53                   	push   rbx
9c74:	48 89 fb             	mov    rbx,rdi
9c77:	e8 74 80 ff ff       	call   1cf0 <fileno@plt>
9c7c:	85 c0                	test   eax,eax
9c7e:	48 89 df             	mov    rdi,rbx
9c81:	78 54                	js     9cd7 <rpl_fclose+0x67>
9c83:	e8 b8 80 ff ff       	call   1d40 <__freading@plt>
9c88:	85 c0                	test   eax,eax
9c8a:	75 2c                	jne    9cb8 <rpl_fclose+0x48>
9c8c:	48 89 df             	mov    rdi,rbx
9c8f:	e8 dc 02 00 00       	call   9f70 <rpl_fflush>
9c94:	85 c0                	test   eax,eax
9c96:	74 3c                	je     9cd4 <rpl_fclose+0x64>
9c98:	e8 e3 7d ff ff       	call   1a80 <__errno_location@plt>
9c9d:	44 8b 20             	mov    r12d,DWORD PTR [rax]
9ca0:	48 89 df             	mov    rdi,rbx
9ca3:	48 89 c5             	mov    rbp,rax
9ca6:	e8 95 7e ff ff       	call   1b40 <fclose@plt>
9cab:	45 85 e4             	test   r12d,r12d
9cae:	75 30                	jne    9ce0 <rpl_fclose+0x70>
9cb0:	5b                   	pop    rbx
9cb1:	5d                   	pop    rbp
9cb2:	41 5c                	pop    r12
9cb4:	c3                   	ret
9cb5:	0f 1f 00             	nop    DWORD PTR [rax]
9cb8:	48 89 df             	mov    rdi,rbx
9cbb:	e8 30 80 ff ff       	call   1cf0 <fileno@plt>
9cc0:	31 f6                	xor    esi,esi
9cc2:	ba 01 00 00 00       	mov    edx,0x1
9cc7:	89 c7                	mov    edi,eax
9cc9:	e8 42 7f ff ff       	call   1c10 <lseek@plt>
9cce:	48 83 f8 ff          	cmp    rax,0xffffffffffffffff
9cd2:	75 b8                	jne    9c8c <rpl_fclose+0x1c>
9cd4:	48 89 df             	mov    rdi,rbx
9cd7:	5b                   	pop    rbx
9cd8:	5d                   	pop    rbp
9cd9:	41 5c                	pop    r12
9cdb:	e9 60 7e ff ff       	jmp    1b40 <fclose@plt>
9ce0:	44 89 65 00          	mov    DWORD PTR [rbp+0x0],r12d
9ce4:	b8 ff ff ff ff       	mov    eax,0xffffffff
9ce9:	eb c5                	jmp    9cb0 <rpl_fclose+0x40>
9ceb:	0f 1f 44 00 00       	nop    DWORD PTR [rax+rax*1+0x0]

0000000000009cf0 <rpl_fcntl>:
9cf0:	41 54                	push   r12
9cf2:	55                   	push   rbp
9cf3:	89 fd                	mov    ebp,edi
9cf5:	53                   	push   rbx
9cf6:	48 83 ec 50          	sub    rsp,0x50
9cfa:	64 48 8b 04 25 28 00 	mov    rax,QWORD PTR fs:0x28
9d01:	00 00
9d03:	48 89 44 24 18       	mov    QWORD PTR [rsp+0x18],rax
9d08:	31 c0                	xor    eax,eax
9d0a:	48 8d 44 24 70       	lea    rax,[rsp+0x70]
9d0f:	85 f6                	test   esi,esi
9d11:	48 89 54 24 30       	mov    QWORD PTR [rsp+0x30],rdx
9d16:	48 89 4c 24 38       	mov    QWORD PTR [rsp+0x38],rcx
9d1b:	4c 89 44 24 40       	mov    QWORD PTR [rsp+0x40],r8
9d20:	48 89 44 24 08       	mov    QWORD PTR [rsp+0x8],rax
9d25:	48 8d 44 24 20       	lea    rax,[rsp+0x20]
9d2a:	4c 89 4c 24 48       	mov    QWORD PTR [rsp+0x48],r9
9d2f:	c7 04 24 10 00 00 00 	mov    DWORD PTR [rsp],0x10
9d36:	48 89 44 24 10       	mov    QWORD PTR [rsp+0x10],rax
9d3b:	0f 84 01 02 00 00    	je     9f42 <rpl_fcntl+0x252>
9d41:	81 fe 06 04 00 00    	cmp    esi,0x406
9d47:	75 47                	jne    9d90 <rpl_fcntl+0xa0>
9d49:	48 8b 44 24 10       	mov    rax,QWORD PTR [rsp+0x10]
9d4e:	83 3d 03 78 20 00 00 	cmp    DWORD PTR [rip+0x207803],0x0        # 211558 <have_dupfd_cloexec.3326>
9d55:	c7 04 24 18 00 00 00 	mov    DWORD PTR [rsp],0x18
9d5c:	44 8b 60 10          	mov    r12d,DWORD PTR [rax+0x10]
9d60:	44 89 e2             	mov    edx,r12d
9d63:	0f 88 2a 01 00 00    	js     9e93 <rpl_fcntl+0x1a3>
9d69:	31 c0                	xor    eax,eax
9d6b:	be 06 04 00 00       	mov    esi,0x406
9d70:	e8 8b 7d ff ff       	call   1b00 <fcntl@plt>
9d75:	85 c0                	test   eax,eax
9d77:	89 c3                	mov    ebx,eax
9d79:	0f 88 89 01 00 00    	js     9f08 <rpl_fcntl+0x218>
9d7f:	c7 05 cf 77 20 00 01 	mov    DWORD PTR [rip+0x2077cf],0x1        # 211558 <have_dupfd_cloexec.3326>
9d86:	00 00 00
9d89:	eb 45                	jmp    9dd0 <rpl_fcntl+0xe0>
9d8b:	0f 1f 44 00 00       	nop    DWORD PTR [rax+rax*1+0x0]
9d90:	83 fe 0b             	cmp    esi,0xb
9d93:	74 2b                	je     9dc0 <rpl_fcntl+0xd0>
9d95:	7f 59                	jg     9df0 <rpl_fcntl+0x100>
9d97:	83 fe 04             	cmp    esi,0x4
9d9a:	0f 84 d0 00 00 00    	je     9e70 <rpl_fcntl+0x180>
9da0:	0f 8f ba 00 00 00    	jg     9e60 <rpl_fcntl+0x170>
9da6:	83 fe 02             	cmp    esi,0x2
9da9:	0f 84 c1 00 00 00    	je     9e70 <rpl_fcntl+0x180>
9daf:	7f 0f                	jg     9dc0 <rpl_fcntl+0xd0>
9db1:	83 fe 01             	cmp    esi,0x1
9db4:	75 62                	jne    9e18 <rpl_fcntl+0x128>
9db6:	66 2e 0f 1f 84 00 00 	nop    WORD PTR cs:[rax+rax*1+0x0]
9dbd:	00 00 00
9dc0:	89 ef                	mov    edi,ebp
9dc2:	31 c0                	xor    eax,eax
9dc4:	e8 37 7d ff ff       	call   1b00 <fcntl@plt>
9dc9:	89 c3                	mov    ebx,eax
9dcb:	0f 1f 44 00 00       	nop    DWORD PTR [rax+rax*1+0x0]
9dd0:	48 8b 4c 24 18       	mov    rcx,QWORD PTR [rsp+0x18]
9dd5:	64 48 33 0c 25 28 00 	xor    rcx,QWORD PTR fs:0x28
9ddc:	00 00
9dde:	89 d8                	mov    eax,ebx
9de0:	0f 85 57 01 00 00    	jne    9f3d <rpl_fcntl+0x24d>
9de6:	48 83 c4 50          	add    rsp,0x50
9dea:	5b                   	pop    rbx
9deb:	5d                   	pop    rbp
9dec:	41 5c                	pop    r12
9dee:	c3                   	ret
9def:	90                   	nop
9df0:	81 fe 07 04 00 00    	cmp    esi,0x407
9df6:	7f 48                	jg     9e40 <rpl_fcntl+0x150>
9df8:	81 fe 06 04 00 00    	cmp    esi,0x406
9dfe:	7d 70                	jge    9e70 <rpl_fcntl+0x180>
9e00:	81 fe 01 04 00 00    	cmp    esi,0x401
9e06:	74 b8                	je     9dc0 <rpl_fcntl+0xd0>
9e08:	81 fe 02 04 00 00    	cmp    esi,0x402
9e0e:	74 60                	je     9e70 <rpl_fcntl+0x180>
9e10:	81 fe 00 04 00 00    	cmp    esi,0x400
9e16:	74 58                	je     9e70 <rpl_fcntl+0x180>
9e18:	8b 04 24             	mov    eax,DWORD PTR [rsp]
9e1b:	83 f8 2f             	cmp    eax,0x2f
9e1e:	0f 87 36 01 00 00    	ja     9f5a <rpl_fcntl+0x26a>
9e24:	48 03 44 24 10       	add    rax,QWORD PTR [rsp+0x10]
9e29:	48 8b 10             	mov    rdx,QWORD PTR [rax]
9e2c:	89 ef                	mov    edi,ebp
9e2e:	31 c0                	xor    eax,eax
9e30:	e8 cb 7c ff ff       	call   1b00 <fcntl@plt>
9e35:	89 c3                	mov    ebx,eax
9e37:	eb 97                	jmp    9dd0 <rpl_fcntl+0xe0>
9e39:	0f 1f 80 00 00 00 00 	nop    DWORD PTR [rax+0x0]
9e40:	81 fe 09 04 00 00    	cmp    esi,0x409
9e46:	74 28                	je     9e70 <rpl_fcntl+0x180>
9e48:	0f 8c 72 ff ff ff    	jl     9dc0 <rpl_fcntl+0xd0>
9e4e:	81 fe 0a 04 00 00    	cmp    esi,0x40a
9e54:	75 c2                	jne    9e18 <rpl_fcntl+0x128>
9e56:	e9 65 ff ff ff       	jmp    9dc0 <rpl_fcntl+0xd0>
9e5b:	0f 1f 44 00 00       	nop    DWORD PTR [rax+rax*1+0x0]
9e60:	83 fe 09             	cmp    esi,0x9
9e63:	0f 84 57 ff ff ff    	je     9dc0 <rpl_fcntl+0xd0>
9e69:	7f 05                	jg     9e70 <rpl_fcntl+0x180>
9e6b:	83 fe 08             	cmp    esi,0x8
9e6e:	75 a8                	jne    9e18 <rpl_fcntl+0x128>
9e70:	8b 04 24             	mov    eax,DWORD PTR [rsp]
9e73:	83 f8 2f             	cmp    eax,0x2f
9e76:	0f 87 e8 00 00 00    	ja     9f64 <rpl_fcntl+0x274>
9e7c:	48 03 44 24 10       	add    rax,QWORD PTR [rsp+0x10]
9e81:	8b 10                	mov    edx,DWORD PTR [rax]
9e83:	89 ef                	mov    edi,ebp
9e85:	31 c0                	xor    eax,eax
9e87:	e8 74 7c ff ff       	call   1b00 <fcntl@plt>
9e8c:	89 c3                	mov    ebx,eax
9e8e:	e9 3d ff ff ff       	jmp    9dd0 <rpl_fcntl+0xe0>
9e93:	31 f6                	xor    esi,esi
9e95:	31 c0                	xor    eax,eax
9e97:	e8 64 7c ff ff       	call   1b00 <fcntl@plt>
9e9c:	85 c0                	test   eax,eax
9e9e:	89 c3                	mov    ebx,eax
9ea0:	0f 88 2a ff ff ff    	js     9dd0 <rpl_fcntl+0xe0>
9ea6:	83 3d ab 76 20 00 ff 	cmp    DWORD PTR [rip+0x2076ab],0xffffffff        # 211558 <have_dupfd_cloexec.3326>
9ead:	0f 85 1d ff ff ff    	jne    9dd0 <rpl_fcntl+0xe0>
9eb3:	31 c0                	xor    eax,eax
9eb5:	be 01 00 00 00       	mov    esi,0x1
9eba:	89 df                	mov    edi,ebx
9ebc:	e8 3f 7c ff ff       	call   1b00 <fcntl@plt>
9ec1:	85 c0                	test   eax,eax
9ec3:	78 1c                	js     9ee1 <rpl_fcntl+0x1f1>
9ec5:	83 c8 01             	or     eax,0x1
9ec8:	be 02 00 00 00       	mov    esi,0x2
9ecd:	89 df                	mov    edi,ebx
9ecf:	89 c2                	mov    edx,eax
9ed1:	31 c0                	xor    eax,eax
9ed3:	e8 28 7c ff ff       	call   1b00 <fcntl@plt>
9ed8:	83 f8 ff             	cmp    eax,0xffffffff
9edb:	0f 85 ef fe ff ff    	jne    9dd0 <rpl_fcntl+0xe0>
9ee1:	e8 9a 7b ff ff       	call   1a80 <__errno_location@plt>
9ee6:	44 8b 20             	mov    r12d,DWORD PTR [rax]
9ee9:	48 89 c5             	mov    rbp,rax
9eec:	89 df                	mov    edi,ebx
9eee:	e8 6d 7d ff ff       	call   1c60 <close@plt>
9ef3:	bb ff ff ff ff       	mov    ebx,0xffffffff
9ef8:	44 89 65 00          	mov    DWORD PTR [rbp+0x0],r12d
9efc:	e9 cf fe ff ff       	jmp    9dd0 <rpl_fcntl+0xe0>
9f01:	0f 1f 80 00 00 00 00 	nop    DWORD PTR [rax+0x0]
9f08:	e8 73 7b ff ff       	call   1a80 <__errno_location@plt>
9f0d:	83 38 16             	cmp    DWORD PTR [rax],0x16
9f10:	0f 85 69 fe ff ff    	jne    9d7f <rpl_fcntl+0x8f>
9f16:	31 f6                	xor    esi,esi
9f18:	31 c0                	xor    eax,eax
9f1a:	44 89 e2             	mov    edx,r12d
9f1d:	89 ef                	mov    edi,ebp
9f1f:	e8 dc 7b ff ff       	call   1b00 <fcntl@plt>
9f24:	85 c0                	test   eax,eax
9f26:	89 c3                	mov    ebx,eax
9f28:	0f 88 a2 fe ff ff    	js     9dd0 <rpl_fcntl+0xe0>
9f2e:	c7 05 20 76 20 00 ff 	mov    DWORD PTR [rip+0x207620],0xffffffff        # 211558 <have_dupfd_cloexec.3326>
9f35:	ff ff ff
9f38:	e9 76 ff ff ff       	jmp    9eb3 <rpl_fcntl+0x1c3>
9f3d:	e8 4e 7c ff ff       	call   1b90 <__stack_chk_fail@plt>
9f42:	48 8b 44 24 10       	mov    rax,QWORD PTR [rsp+0x10]
9f47:	31 f6                	xor    esi,esi
9f49:	8b 50 10             	mov    edx,DWORD PTR [rax+0x10]
9f4c:	31 c0                	xor    eax,eax
9f4e:	e8 ad 7b ff ff       	call   1b00 <fcntl@plt>
9f53:	89 c3                	mov    ebx,eax
9f55:	e9 76 fe ff ff       	jmp    9dd0 <rpl_fcntl+0xe0>
9f5a:	48 8b 44 24 08       	mov    rax,QWORD PTR [rsp+0x8]
9f5f:	e9 c5 fe ff ff       	jmp    9e29 <rpl_fcntl+0x139>
9f64:	48 8b 44 24 08       	mov    rax,QWORD PTR [rsp+0x8]
9f69:	e9 13 ff ff ff       	jmp    9e81 <rpl_fcntl+0x191>
9f6e:	66 90                	xchg   ax,ax

0000000000009f70 <rpl_fflush>:
9f70:	48 85 ff             	test   rdi,rdi
9f73:	53                   	push   rbx
9f74:	48 89 fb             	mov    rbx,rdi
9f77:	74 11                	je     9f8a <rpl_fflush+0x1a>
9f79:	e8 c2 7d ff ff       	call   1d40 <__freading@plt>
9f7e:	85 c0                	test   eax,eax
9f80:	74 08                	je     9f8a <rpl_fflush+0x1a>
9f82:	f7 03 00 01 00 00    	test   DWORD PTR [rbx],0x100
9f88:	75 0e                	jne    9f98 <rpl_fflush+0x28>
9f8a:	48 89 df             	mov    rdi,rbx
9f8d:	5b                   	pop    rbx
9f8e:	e9 7d 7d ff ff       	jmp    1d10 <fflush@plt>
9f93:	0f 1f 44 00 00       	nop    DWORD PTR [rax+rax*1+0x0]
9f98:	48 89 df             	mov    rdi,rbx
9f9b:	ba 01 00 00 00       	mov    edx,0x1
9fa0:	31 f6                	xor    esi,esi
9fa2:	e8 09 00 00 00       	call   9fb0 <rpl_fseeko>
9fa7:	48 89 df             	mov    rdi,rbx
9faa:	5b                   	pop    rbx
9fab:	e9 60 7d ff ff       	jmp    1d10 <fflush@plt>

0000000000009fb0 <rpl_fseeko>:
9fb0:	48 8b 47 08          	mov    rax,QWORD PTR [rdi+0x8]
9fb4:	48 39 47 10          	cmp    QWORD PTR [rdi+0x10],rax
9fb8:	74 06                	je     9fc0 <rpl_fseeko+0x10>
9fba:	e9 01 7e ff ff       	jmp    1dc0 <fseeko@plt>
9fbf:	90                   	nop
9fc0:	48 8b 47 20          	mov    rax,QWORD PTR [rdi+0x20]
9fc4:	48 39 47 28          	cmp    QWORD PTR [rdi+0x28],rax
9fc8:	75 f0                	jne    9fba <rpl_fseeko+0xa>
9fca:	48 83 7f 48 00       	cmp    QWORD PTR [rdi+0x48],0x0
9fcf:	75 e9                	jne    9fba <rpl_fseeko+0xa>
9fd1:	41 54                	push   r12
9fd3:	55                   	push   rbp
9fd4:	41 89 d4             	mov    r12d,edx
9fd7:	53                   	push   rbx
9fd8:	48 89 f5             	mov    rbp,rsi
9fdb:	48 89 fb             	mov    rbx,rdi
9fde:	e8 0d 7d ff ff       	call   1cf0 <fileno@plt>
9fe3:	44 89 e2             	mov    edx,r12d
9fe6:	48 89 ee             	mov    rsi,rbp
9fe9:	89 c7                	mov    edi,eax
9feb:	e8 20 7c ff ff       	call   1c10 <lseek@plt>
9ff0:	48 83 f8 ff          	cmp    rax,0xffffffffffffffff
9ff4:	74 0c                	je     a002 <rpl_fseeko+0x52>
9ff6:	83 23 ef             	and    DWORD PTR [rbx],0xffffffef
9ff9:	48 89 83 90 00 00 00 	mov    QWORD PTR [rbx+0x90],rax
a000:	31 c0                	xor    eax,eax
a002:	5b                   	pop    rbx
a003:	5d                   	pop    rbp
a004:	41 5c                	pop    r12
a006:	c3                   	ret
a007:	66 0f 1f 84 00 00 00 	nop    WORD PTR [rax+rax*1+0x0]
a00e:	00 00

000000000000a010 <rpl_mbrtowc>:
a010:	41 55                	push   r13
a012:	41 54                	push   r12
a014:	49 89 f5             	mov    r13,rsi
a017:	55                   	push   rbp
a018:	53                   	push   rbx
a019:	48 89 fb             	mov    rbx,rdi
a01c:	49 89 d4             	mov    r12,rdx
a01f:	48 83 ec 18          	sub    rsp,0x18
a023:	64 48 8b 04 25 28 00 	mov    rax,QWORD PTR fs:0x28
a02a:	00 00
a02c:	48 89 44 24 08       	mov    QWORD PTR [rsp+0x8],rax
a031:	31 c0                	xor    eax,eax
a033:	48 8d 44 24 04       	lea    rax,[rsp+0x4]
a038:	48 85 ff             	test   rdi,rdi
a03b:	48 0f 44 d8          	cmove  rbx,rax
a03f:	48 89 df             	mov    rdi,rbx
a042:	e8 69 7b ff ff       	call   1bb0 <mbrtowc@plt>
a047:	48 83 f8 fd          	cmp    rax,0xfffffffffffffffd
a04b:	48 89 c5             	mov    rbp,rax
a04e:	76 20                	jbe    a070 <rpl_mbrtowc+0x60>
a050:	4d 85 e4             	test   r12,r12
a053:	74 1b                	je     a070 <rpl_mbrtowc+0x60>
a055:	31 ff                	xor    edi,edi
a057:	e8 54 04 00 00       	call   a4b0 <hard_locale>
a05c:	84 c0                	test   al,al
a05e:	75 10                	jne    a070 <rpl_mbrtowc+0x60>
a060:	41 0f b6 45 00       	movzx  eax,BYTE PTR [r13+0x0]
a065:	bd 01 00 00 00       	mov    ebp,0x1
a06a:	89 03                	mov    DWORD PTR [rbx],eax
a06c:	0f 1f 40 00          	nop    DWORD PTR [rax+0x0]
a070:	48 8b 54 24 08       	mov    rdx,QWORD PTR [rsp+0x8]
a075:	64 48 33 14 25 28 00 	xor    rdx,QWORD PTR fs:0x28
a07c:	00 00
a07e:	48 89 e8             	mov    rax,rbp
a081:	75 0b                	jne    a08e <rpl_mbrtowc+0x7e>
a083:	48 83 c4 18          	add    rsp,0x18
a087:	5b                   	pop    rbx
a088:	5d                   	pop    rbp
a089:	41 5c                	pop    r12
a08b:	41 5d                	pop    r13
a08d:	c3                   	ret
a08e:	e8 fd 7a ff ff       	call   1b90 <__stack_chk_fail@plt>
a093:	66 2e 0f 1f 84 00 00 	nop    WORD PTR cs:[rax+rax*1+0x0]
a09a:	00 00 00
a09d:	0f 1f 00             	nop    DWORD PTR [rax]

000000000000a0a0 <rpl_vasprintf>:
a0a0:	53                   	push   rbx
a0a1:	48 89 f0             	mov    rax,rsi
a0a4:	48 89 fb             	mov    rbx,rdi
a0a7:	31 ff                	xor    edi,edi
a0a9:	48 83 ec 10          	sub    rsp,0x10
a0ad:	64 48 8b 0c 25 28 00 	mov    rcx,QWORD PTR fs:0x28
a0b4:	00 00
a0b6:	48 89 4c 24 08       	mov    QWORD PTR [rsp+0x8],rcx
a0bb:	31 c9                	xor    ecx,ecx
a0bd:	48 89 e6             	mov    rsi,rsp
a0c0:	48 89 d1             	mov    rcx,rdx
a0c3:	48 89 c2             	mov    rdx,rax
a0c6:	e8 85 04 00 00       	call   a550 <vasnprintf>
a0cb:	48 85 c0             	test   rax,rax
a0ce:	74 42                	je     a112 <rpl_vasprintf+0x72>
a0d0:	48 8b 14 24          	mov    rdx,QWORD PTR [rsp]
a0d4:	48 81 fa ff ff ff 7f 	cmp    rdx,0x7fffffff
a0db:	77 1b                	ja     a0f8 <rpl_vasprintf+0x58>
a0dd:	48 89 03             	mov    QWORD PTR [rbx],rax
a0e0:	89 d0                	mov    eax,edx
a0e2:	48 8b 5c 24 08       	mov    rbx,QWORD PTR [rsp+0x8]
a0e7:	64 48 33 1c 25 28 00 	xor    rbx,QWORD PTR fs:0x28
a0ee:	00 00
a0f0:	75 27                	jne    a119 <rpl_vasprintf+0x79>
a0f2:	48 83 c4 10          	add    rsp,0x10
a0f6:	5b                   	pop    rbx
a0f7:	c3                   	ret
a0f8:	48 89 c7             	mov    rdi,rax
a0fb:	e8 60 79 ff ff       	call   1a60 <free@plt>
a100:	e8 7b 79 ff ff       	call   1a80 <__errno_location@plt>
a105:	c7 00 4b 00 00 00    	mov    DWORD PTR [rax],0x4b
a10b:	b8 ff ff ff ff       	mov    eax,0xffffffff
a110:	eb d0                	jmp    a0e2 <rpl_vasprintf+0x42>
a112:	b8 ff ff ff ff       	mov    eax,0xffffffff
a117:	eb c9                	jmp    a0e2 <rpl_vasprintf+0x42>
a119:	e8 72 7a ff ff       	call   1b90 <__stack_chk_fail@plt>
a11e:	66 90                	xchg   ax,ax

000000000000a120 <__argmatch_die>:
a120:	bf 01 00 00 00       	mov    edi,0x1
a125:	e9 06 af ff ff       	jmp    5030 <usage>
a12a:	66 0f 1f 44 00 00    	nop    WORD PTR [rax+rax*1+0x0]

000000000000a130 <argmatch>:
a130:	41 57                	push   r15
a132:	41 56                	push   r14
a134:	49 89 f7             	mov    r15,rsi
a137:	41 55                	push   r13
a139:	41 54                	push   r12
a13b:	49 89 cd             	mov    r13,rcx
a13e:	55                   	push   rbp
a13f:	53                   	push   rbx
a140:	48 89 d5             	mov    rbp,rdx
a143:	48 83 ec 28          	sub    rsp,0x28
a147:	48 89 7c 24 08       	mov    QWORD PTR [rsp+0x8],rdi
a14c:	48 89 54 24 18       	mov    QWORD PTR [rsp+0x18],rdx
a151:	e8 2a 7a ff ff       	call   1b80 <strlen@plt>
a156:	4d 8b 37             	mov    r14,QWORD PTR [r15]
a159:	48 c7 04 24 ff ff ff 	mov    QWORD PTR [rsp],0xffffffffffffffff
a160:	ff
a161:	4d 85 f6             	test   r14,r14
a164:	0f 84 b3 00 00 00    	je     a21d <argmatch+0xed>
a16a:	49 89 c4             	mov    r12,rax
a16d:	c6 44 24 17 00       	mov    BYTE PTR [rsp+0x17],0x0
a172:	31 db                	xor    ebx,ebx
a174:	eb 51                	jmp    a1c7 <argmatch+0x97>
a176:	66 2e 0f 1f 84 00 00 	nop    WORD PTR cs:[rax+rax*1+0x0]
a17d:	00 00 00
a180:	48 8b 44 24 18       	mov    rax,QWORD PTR [rsp+0x18]
a185:	48 85 c0             	test   rax,rax
a188:	0f 84 a2 00 00 00    	je     a230 <argmatch+0x100>
a18e:	48 8b 3c 24          	mov    rdi,QWORD PTR [rsp]
a192:	4c 89 ea             	mov    rdx,r13
a195:	48 89 ee             	mov    rsi,rbp
a198:	49 0f af fd          	imul   rdi,r13
a19c:	48 01 c7             	add    rdi,rax
a19f:	e8 ec 7a ff ff       	call   1c90 <memcmp@plt>
a1a4:	85 c0                	test   eax,eax
a1a6:	0f b6 44 24 17       	movzx  eax,BYTE PTR [rsp+0x17]
a1ab:	b9 01 00 00 00       	mov    ecx,0x1
a1b0:	0f 45 c1             	cmovne eax,ecx
a1b3:	88 44 24 17          	mov    BYTE PTR [rsp+0x17],al
a1b7:	48 83 c3 01          	add    rbx,0x1
a1bb:	4c 01 ed             	add    rbp,r13
a1be:	4d 8b 34 df          	mov    r14,QWORD PTR [r15+rbx*8]
a1c2:	4d 85 f6             	test   r14,r14
a1c5:	74 41                	je     a208 <argmatch+0xd8>
a1c7:	48 8b 74 24 08       	mov    rsi,QWORD PTR [rsp+0x8]
a1cc:	4c 89 e2             	mov    rdx,r12
a1cf:	4c 89 f7             	mov    rdi,r14
a1d2:	e8 d9 78 ff ff       	call   1ab0 <strncmp@plt>
a1d7:	85 c0                	test   eax,eax
a1d9:	75 dc                	jne    a1b7 <argmatch+0x87>
a1db:	4c 89 f7             	mov    rdi,r14
a1de:	e8 9d 79 ff ff       	call   1b80 <strlen@plt>
a1e3:	4c 39 e0             	cmp    rax,r12
a1e6:	74 58                	je     a240 <argmatch+0x110>
a1e8:	48 83 3c 24 ff       	cmp    QWORD PTR [rsp],0xffffffffffffffff
a1ed:	75 91                	jne    a180 <argmatch+0x50>
a1ef:	48 89 1c 24          	mov    QWORD PTR [rsp],rbx
a1f3:	48 83 c3 01          	add    rbx,0x1
a1f7:	4c 01 ed             	add    rbp,r13
a1fa:	4d 8b 34 df          	mov    r14,QWORD PTR [r15+rbx*8]
a1fe:	4d 85 f6             	test   r14,r14
a201:	75 c4                	jne    a1c7 <argmatch+0x97>
a203:	0f 1f 44 00 00       	nop    DWORD PTR [rax+rax*1+0x0]
a208:	80 7c 24 17 00       	cmp    BYTE PTR [rsp+0x17],0x0
a20d:	48 c7 c0 fe ff ff ff 	mov    rax,0xfffffffffffffffe
a214:	48 0f 44 04 24       	cmove  rax,QWORD PTR [rsp]
a219:	48 89 04 24          	mov    QWORD PTR [rsp],rax
a21d:	48 8b 04 24          	mov    rax,QWORD PTR [rsp]
a221:	48 83 c4 28          	add    rsp,0x28
a225:	5b                   	pop    rbx
a226:	5d                   	pop    rbp
a227:	41 5c                	pop    r12
a229:	41 5d                	pop    r13
a22b:	41 5e                	pop    r14
a22d:	41 5f                	pop    r15
a22f:	c3                   	ret
a230:	c6 44 24 17 01       	mov    BYTE PTR [rsp+0x17],0x1
a235:	eb 80                	jmp    a1b7 <argmatch+0x87>
a237:	66 0f 1f 84 00 00 00 	nop    WORD PTR [rax+rax*1+0x0]
a23e:	00 00
a240:	48 89 1c 24          	mov    QWORD PTR [rsp],rbx
a244:	eb d7                	jmp    a21d <argmatch+0xed>
a246:	66 2e 0f 1f 84 00 00 	nop    WORD PTR cs:[rax+rax*1+0x0]
a24d:	00 00 00

000000000000a250 <argmatch_invalid>:
a250:	48 83 fa ff          	cmp    rdx,0xffffffffffffffff
a254:	41 54                	push   r12
a256:	ba 05 00 00 00       	mov    edx,0x5
a25b:	55                   	push   rbp
a25c:	49 89 f4             	mov    r12,rsi
a25f:	53                   	push   rbx
a260:	48 89 fd             	mov    rbp,rdi
a263:	74 4b                	je     a2b0 <argmatch_invalid+0x60>
a265:	48 8d 35 9a 49 00 00 	lea    rsi,[rip+0x499a]        # ec06 <__PRETTY_FUNCTION__.4162+0x26>
a26c:	31 ff                	xor    edi,edi
a26e:	e8 ed 78 ff ff       	call   1b60 <dcgettext@plt>
a273:	48 89 c3             	mov    rbx,rax
a276:	48 89 ee             	mov    rsi,rbp
a279:	bf 01 00 00 00       	mov    edi,0x1
a27e:	e8 0d ea ff ff       	call   8c90 <quote_n>
a283:	4c 89 e2             	mov    rdx,r12
a286:	48 89 c5             	mov    rbp,rax
a289:	be 08 00 00 00       	mov    esi,0x8
a28e:	31 ff                	xor    edi,edi
a290:	e8 2b e6 ff ff       	call   88c0 <quotearg_n_style>
a295:	49 89 e8             	mov    r8,rbp
a298:	48 89 da             	mov    rdx,rbx
a29b:	48 89 c1             	mov    rcx,rax
a29e:	5b                   	pop    rbx
a29f:	5d                   	pop    rbp
a2a0:	41 5c                	pop    r12
a2a2:	31 f6                	xor    esi,esi
a2a4:	31 ff                	xor    edi,edi
a2a6:	31 c0                	xor    eax,eax
a2a8:	e9 e3 7a ff ff       	jmp    1d90 <error@plt>
a2ad:	0f 1f 00             	nop    DWORD PTR [rax]
a2b0:	48 8d 35 34 49 00 00 	lea    rsi,[rip+0x4934]        # ebeb <__PRETTY_FUNCTION__.4162+0xb>
a2b7:	31 ff                	xor    edi,edi
a2b9:	e8 a2 78 ff ff       	call   1b60 <dcgettext@plt>
a2be:	48 89 c3             	mov    rbx,rax
a2c1:	eb b3                	jmp    a276 <argmatch_invalid+0x26>
a2c3:	0f 1f 00             	nop    DWORD PTR [rax]
a2c6:	66 2e 0f 1f 84 00 00 	nop    WORD PTR cs:[rax+rax*1+0x0]
a2cd:	00 00 00

000000000000a2d0 <argmatch_valid>:
a2d0:	41 57                	push   r15
a2d2:	41 56                	push   r14
a2d4:	49 89 fe             	mov    r14,rdi
a2d7:	41 55                	push   r13
a2d9:	41 54                	push   r12
a2db:	31 ff                	xor    edi,edi
a2dd:	55                   	push   rbp
a2de:	53                   	push   rbx
a2df:	48 89 f5             	mov    rbp,rsi
a2e2:	48 8d 35 3a 49 00 00 	lea    rsi,[rip+0x493a]        # ec23 <__PRETTY_FUNCTION__.4162+0x43>
a2e9:	49 89 d4             	mov    r12,rdx
a2ec:	ba 05 00 00 00       	mov    edx,0x5
a2f1:	48 83 ec 08          	sub    rsp,0x8
a2f5:	48 8b 1d 04 6e 20 00 	mov    rbx,QWORD PTR [rip+0x206e04]        # 211100 <stderr@@GLIBC_2.2.5>
a2fc:	e8 5f 78 ff ff       	call   1b60 <dcgettext@plt>
a301:	48 89 c7             	mov    rdi,rax
a304:	48 89 de             	mov    rsi,rbx
a307:	e8 94 79 ff ff       	call   1ca0 <fputs_unlocked@plt>
a30c:	4d 8b 3e             	mov    r15,QWORD PTR [r14]
a30f:	4d 85 ff             	test   r15,r15
a312:	0f 84 90 00 00 00    	je     a3a8 <argmatch_valid+0xd8>
a318:	45 31 ed             	xor    r13d,r13d
a31b:	31 db                	xor    ebx,ebx
a31d:	eb 39                	jmp    a358 <argmatch_valid+0x88>
a31f:	90                   	nop
a320:	4c 89 ff             	mov    rdi,r15
a323:	48 83 c3 01          	add    rbx,0x1
a327:	49 89 ed             	mov    r13,rbp
a32a:	e8 81 e9 ff ff       	call   8cb0 <quote>
a32f:	48 8b 3d ca 6d 20 00 	mov    rdi,QWORD PTR [rip+0x206dca]        # 211100 <stderr@@GLIBC_2.2.5>
a336:	48 8d 15 fb 48 00 00 	lea    rdx,[rip+0x48fb]        # ec38 <__PRETTY_FUNCTION__.4162+0x58>
a33d:	48 89 c1             	mov    rcx,rax
a340:	be 01 00 00 00       	mov    esi,0x1
a345:	31 c0                	xor    eax,eax
a347:	4c 01 e5             	add    rbp,r12
a34a:	e8 e1 7a ff ff       	call   1e30 <__fprintf_chk@plt>
a34f:	4d 8b 3c de          	mov    r15,QWORD PTR [r14+rbx*8]
a353:	4d 85 ff             	test   r15,r15
a356:	74 50                	je     a3a8 <argmatch_valid+0xd8>
a358:	48 85 db             	test   rbx,rbx
a35b:	74 c3                	je     a320 <argmatch_valid+0x50>
a35d:	4c 89 e2             	mov    rdx,r12
a360:	48 89 ee             	mov    rsi,rbp
a363:	4c 89 ef             	mov    rdi,r13
a366:	e8 25 79 ff ff       	call   1c90 <memcmp@plt>
a36b:	85 c0                	test   eax,eax
a36d:	75 b1                	jne    a320 <argmatch_valid+0x50>
a36f:	4c 89 ff             	mov    rdi,r15
a372:	48 83 c3 01          	add    rbx,0x1
a376:	4c 01 e5             	add    rbp,r12
a379:	e8 32 e9 ff ff       	call   8cb0 <quote>
a37e:	48 8b 3d 7b 6d 20 00 	mov    rdi,QWORD PTR [rip+0x206d7b]        # 211100 <stderr@@GLIBC_2.2.5>
a385:	48 8d 15 de 22 00 00 	lea    rdx,[rip+0x22de]        # c66a <_IO_stdin_used+0x6a>
a38c:	48 89 c1             	mov    rcx,rax
a38f:	be 01 00 00 00       	mov    esi,0x1
a394:	31 c0                	xor    eax,eax
a396:	e8 95 7a ff ff       	call   1e30 <__fprintf_chk@plt>
a39b:	4d 8b 3c de          	mov    r15,QWORD PTR [r14+rbx*8]
a39f:	4d 85 ff             	test   r15,r15
a3a2:	75 b4                	jne    a358 <argmatch_valid+0x88>
a3a4:	0f 1f 40 00          	nop    DWORD PTR [rax+0x0]
a3a8:	48 8b 3d 51 6d 20 00 	mov    rdi,QWORD PTR [rip+0x206d51]        # 211100 <stderr@@GLIBC_2.2.5>
a3af:	48 8b 47 28          	mov    rax,QWORD PTR [rdi+0x28]
a3b3:	48 3b 47 30          	cmp    rax,QWORD PTR [rdi+0x30]
a3b7:	73 1f                	jae    a3d8 <argmatch_valid+0x108>
a3b9:	48 8d 50 01          	lea    rdx,[rax+0x1]
a3bd:	48 89 57 28          	mov    QWORD PTR [rdi+0x28],rdx
a3c1:	c6 00 0a             	mov    BYTE PTR [rax],0xa
a3c4:	48 83 c4 08          	add    rsp,0x8
a3c8:	5b                   	pop    rbx
a3c9:	5d                   	pop    rbp
a3ca:	41 5c                	pop    r12
a3cc:	41 5d                	pop    r13
a3ce:	41 5e                	pop    r14
a3d0:	41 5f                	pop    r15
a3d2:	c3                   	ret
a3d3:	0f 1f 44 00 00       	nop    DWORD PTR [rax+rax*1+0x0]
a3d8:	48 83 c4 08          	add    rsp,0x8
a3dc:	be 0a 00 00 00       	mov    esi,0xa
a3e1:	5b                   	pop    rbx
a3e2:	5d                   	pop    rbp
a3e3:	41 5c                	pop    r12
a3e5:	41 5d                	pop    r13
a3e7:	41 5e                	pop    r14
a3e9:	41 5f                	pop    r15
a3eb:	e9 f0 77 ff ff       	jmp    1be0 <__overflow@plt>

000000000000a3f0 <__xargmatch_internal>:
a3f0:	41 57                	push   r15
a3f2:	41 56                	push   r14
a3f4:	49 89 fe             	mov    r14,rdi
a3f7:	41 55                	push   r13
a3f9:	41 54                	push   r12
a3fb:	49 89 f4             	mov    r12,rsi
a3fe:	55                   	push   rbp
a3ff:	53                   	push   rbx
a400:	48 89 cd             	mov    rbp,rcx
a403:	48 89 d3             	mov    rbx,rdx
a406:	4c 89 c1             	mov    rcx,r8
a409:	48 89 ea             	mov    rdx,rbp
a40c:	48 83 ec 08          	sub    rsp,0x8
a410:	48 89 de             	mov    rsi,rbx
a413:	4c 89 e7             	mov    rdi,r12
a416:	4d 89 c7             	mov    r15,r8
a419:	4d 89 cd             	mov    r13,r9
a41c:	e8 0f fd ff ff       	call   a130 <argmatch>
a421:	48 85 c0             	test   rax,rax
a424:	78 0f                	js     a435 <__xargmatch_internal+0x45>
a426:	48 83 c4 08          	add    rsp,0x8
a42a:	5b                   	pop    rbx
a42b:	5d                   	pop    rbp
a42c:	41 5c                	pop    r12
a42e:	41 5d                	pop    r13
a430:	41 5e                	pop    r14
a432:	41 5f                	pop    r15
a434:	c3                   	ret
a435:	48 89 c2             	mov    rdx,rax
a438:	4c 89 e6             	mov    rsi,r12
a43b:	4c 89 f7             	mov    rdi,r14
a43e:	e8 0d fe ff ff       	call   a250 <argmatch_invalid>
a443:	4c 89 fa             	mov    rdx,r15
a446:	48 89 ee             	mov    rsi,rbp
a449:	48 89 df             	mov    rdi,rbx
a44c:	e8 7f fe ff ff       	call   a2d0 <argmatch_valid>
a451:	41 ff d5             	call   r13
a454:	48 c7 c0 ff ff ff ff 	mov    rax,0xffffffffffffffff
a45b:	eb c9                	jmp    a426 <__xargmatch_internal+0x36>
a45d:	0f 1f 00             	nop    DWORD PTR [rax]

000000000000a460 <argmatch_to_argument>:
a460:	41 56                	push   r14
a462:	41 55                	push   r13
a464:	41 54                	push   r12
a466:	55                   	push   rbp
a467:	53                   	push   rbx
a468:	4c 8b 36             	mov    r14,QWORD PTR [rsi]
a46b:	4d 85 f6             	test   r14,r14
a46e:	74 31                	je     a4a1 <argmatch_to_argument+0x41>
a470:	49 89 cc             	mov    r12,rcx
a473:	49 89 fd             	mov    r13,rdi
a476:	48 89 d5             	mov    rbp,rdx
a479:	48 8d 5e 08          	lea    rbx,[rsi+0x8]
a47d:	eb 10                	jmp    a48f <argmatch_to_argument+0x2f>
a47f:	90                   	nop
a480:	4c 8b 33             	mov    r14,QWORD PTR [rbx]
a483:	4c 01 e5             	add    rbp,r12
a486:	48 83 c3 08          	add    rbx,0x8
a48a:	4d 85 f6             	test   r14,r14
a48d:	74 12                	je     a4a1 <argmatch_to_argument+0x41>
a48f:	4c 89 e2             	mov    rdx,r12
a492:	48 89 ee             	mov    rsi,rbp
a495:	4c 89 ef             	mov    rdi,r13
a498:	e8 f3 77 ff ff       	call   1c90 <memcmp@plt>
a49d:	85 c0                	test   eax,eax
a49f:	75 df                	jne    a480 <argmatch_to_argument+0x20>
a4a1:	5b                   	pop    rbx
a4a2:	4c 89 f0             	mov    rax,r14
a4a5:	5d                   	pop    rbp
a4a6:	41 5c                	pop    r12
a4a8:	41 5d                	pop    r13
a4aa:	41 5e                	pop    r14
a4ac:	c3                   	ret
a4ad:	0f 1f 00             	nop    DWORD PTR [rax]

000000000000a4b0 <hard_locale>:
a4b0:	48 83 ec 08          	sub    rsp,0x8
a4b4:	31 f6                	xor    esi,esi
a4b6:	e8 a5 78 ff ff       	call   1d60 <setlocale@plt>
a4bb:	48 89 c2             	mov    rdx,rax
a4be:	b8 01 00 00 00       	mov    eax,0x1
a4c3:	48 85 d2             	test   rdx,rdx
a4c6:	74 1d                	je     a4e5 <hard_locale+0x35>
a4c8:	48 8d 3d 71 47 00 00 	lea    rdi,[rip+0x4771]        # ec40 <__PRETTY_FUNCTION__.4162+0x60>
a4cf:	b9 02 00 00 00       	mov    ecx,0x2
a4d4:	48 89 d6             	mov    rsi,rdx
a4d7:	f3 a6                	repz cmps BYTE PTR ds:[rsi],BYTE PTR es:[rdi]
a4d9:	0f 97 c1             	seta   cl
a4dc:	80 d9 00             	sbb    cl,0x0
a4df:	31 c0                	xor    eax,eax
a4e1:	84 c9                	test   cl,cl
a4e3:	75 0b                	jne    a4f0 <hard_locale+0x40>
a4e5:	48 83 c4 08          	add    rsp,0x8
a4e9:	c3                   	ret
a4ea:	66 0f 1f 44 00 00    	nop    WORD PTR [rax+rax*1+0x0]
a4f0:	48 8d 3d 4b 47 00 00 	lea    rdi,[rip+0x474b]        # ec42 <__PRETTY_FUNCTION__.4162+0x62>
a4f7:	b9 06 00 00 00       	mov    ecx,0x6
a4fc:	48 89 d6             	mov    rsi,rdx
a4ff:	f3 a6                	repz cmps BYTE PTR ds:[rsi],BYTE PTR es:[rdi]
a501:	0f 97 c0             	seta   al
a504:	1c 00                	sbb    al,0x0
a506:	84 c0                	test   al,al
a508:	0f 95 c0             	setne  al
a50b:	48 83 c4 08          	add    rsp,0x8
a50f:	c3                   	ret

000000000000a510 <locale_charset>:
a510:	48 83 ec 08          	sub    rsp,0x8
a514:	bf 0e 00 00 00       	mov    edi,0xe
a519:	e8 02 78 ff ff       	call   1d20 <nl_langinfo@plt>
a51e:	48 85 c0             	test   rax,rax
a521:	74 1d                	je     a540 <locale_charset+0x30>
a523:	80 38 00             	cmp    BYTE PTR [rax],0x0
a526:	48 8d 15 1b 47 00 00 	lea    rdx,[rip+0x471b]        # ec48 <__PRETTY_FUNCTION__.4162+0x68>
a52d:	48 0f 44 c2          	cmove  rax,rdx
a531:	48 83 c4 08          	add    rsp,0x8
a535:	c3                   	ret
a536:	66 2e 0f 1f 84 00 00 	nop    WORD PTR cs:[rax+rax*1+0x0]
a53d:	00 00 00
a540:	48 8d 05 01 47 00 00 	lea    rax,[rip+0x4701]        # ec48 <__PRETTY_FUNCTION__.4162+0x68>
a547:	48 83 c4 08          	add    rsp,0x8
a54b:	c3                   	ret
a54c:	0f 1f 40 00          	nop    DWORD PTR [rax+0x0]

000000000000a550 <vasnprintf>:
a550:	55                   	push   rbp
a551:	48 89 e5             	mov    rbp,rsp
a554:	41 57                	push   r15
a556:	41 56                	push   r14
a558:	41 55                	push   r13
a55a:	41 54                	push   r12
a55c:	4c 8d b5 50 fc ff ff 	lea    r14,[rbp-0x3b0]
a563:	53                   	push   rbx
a564:	48 89 d3             	mov    rbx,rdx
a567:	49 89 cc             	mov    r12,rcx
a56a:	4c 89 f2             	mov    rdx,r14
a56d:	48 81 ec 08 04 00 00 	sub    rsp,0x408
a574:	48 89 b5 e8 fb ff ff 	mov    QWORD PTR [rbp-0x418],rsi
a57b:	48 8d b5 40 fd ff ff 	lea    rsi,[rbp-0x2c0]
a582:	48 89 bd 18 fc ff ff 	mov    QWORD PTR [rbp-0x3e8],rdi
a589:	48 89 df             	mov    rdi,rbx
a58c:	4c 89 b5 f0 fb ff ff 	mov    QWORD PTR [rbp-0x410],r14
a593:	64 48 8b 04 25 28 00 	mov    rax,QWORD PTR fs:0x28
a59a:	00 00
a59c:	48 89 45 c8          	mov    QWORD PTR [rbp-0x38],rax
a5a0:	31 c0                	xor    eax,eax
a5a2:	48 89 b5 f8 fb ff ff 	mov    QWORD PTR [rbp-0x408],rsi
a5a9:	e8 c2 12 00 00       	call   b870 <printf_parse>
a5ae:	85 c0                	test   eax,eax
a5b0:	0f 88 62 0e 00 00    	js     b418 <vasnprintf+0xec8>
a5b6:	4c 89 f6             	mov    rsi,r14
a5b9:	4c 89 e7             	mov    rdi,r12
a5bc:	e8 af 10 00 00       	call   b670 <printf_fetchargs>
a5c1:	85 c0                	test   eax,eax
a5c3:	0f 88 b7 0e 00 00    	js     b480 <vasnprintf+0xf30>
a5c9:	48 8b 85 50 fd ff ff 	mov    rax,QWORD PTR [rbp-0x2b0]
a5d0:	48 c7 c2 ff ff ff ff 	mov    rdx,0xffffffffffffffff
a5d7:	48 83 c0 07          	add    rax,0x7
a5db:	48 83 f8 06          	cmp    rax,0x6
a5df:	48 0f 46 c2          	cmovbe rax,rdx
a5e3:	48 03 85 58 fd ff ff 	add    rax,QWORD PTR [rbp-0x2a8]
a5ea:	0f 82 28 0a 00 00    	jb     b018 <vasnprintf+0xac8>
a5f0:	48 89 c7             	mov    rdi,rax
a5f3:	45 31 c0             	xor    r8d,r8d
a5f6:	48 83 c7 06          	add    rdi,0x6
a5fa:	41 0f 92 c0          	setb   r8b
a5fe:	0f 82 14 0a 00 00    	jb     b018 <vasnprintf+0xac8>
a604:	48 81 ff 9f 0f 00 00 	cmp    rdi,0xf9f
a60b:	0f 86 47 01 00 00    	jbe    a758 <vasnprintf+0x208>
a611:	48 83 ff ff          	cmp    rdi,0xffffffffffffffff
a615:	4c 89 85 38 fc ff ff 	mov    QWORD PTR [rbp-0x3c8],r8
a61c:	0f 84 f6 09 00 00    	je     b018 <vasnprintf+0xac8>
a622:	e8 d9 76 ff ff       	call   1d00 <malloc@plt>
a627:	48 85 c0             	test   rax,rax
a62a:	48 89 85 28 fc ff ff 	mov    QWORD PTR [rbp-0x3d8],rax
a631:	0f 84 e1 09 00 00    	je     b018 <vasnprintf+0xac8>
a637:	4c 8b 85 38 fc ff ff 	mov    r8,QWORD PTR [rbp-0x3c8]
a63e:	48 89 85 e0 fb ff ff 	mov    QWORD PTR [rbp-0x420],rax
a645:	45 31 e4             	xor    r12d,r12d
a648:	48 83 bd 18 fc ff ff 	cmp    QWORD PTR [rbp-0x3e8],0x0
a64f:	00
a650:	74 0a                	je     a65c <vasnprintf+0x10c>
a652:	48 8b 85 e8 fb ff ff 	mov    rax,QWORD PTR [rbp-0x418]
a659:	4c 8b 20             	mov    r12,QWORD PTR [rax]
a65c:	4c 8b ad 48 fd ff ff 	mov    r13,QWORD PTR [rbp-0x2b8]
a663:	48 8d 85 44 fc ff ff 	lea    rax,[rbp-0x3bc]
a66a:	4c 8b bd 18 fc ff ff 	mov    r15,QWORD PTR [rbp-0x3e8]
a671:	48 c7 85 00 fc ff ff 	mov    QWORD PTR [rbp-0x400],0x0
a678:	00 00 00 00
a67c:	48 89 85 10 fc ff ff 	mov    QWORD PTR [rbp-0x3f0],rax
a683:	48 89 d8             	mov    rax,rbx
a686:	4c 89 c3             	mov    rbx,r8
a689:	49 8b 4d 00          	mov    rcx,QWORD PTR [r13+0x0]
a68d:	49 89 c0             	mov    r8,rax
a690:	4c 39 c1             	cmp    rcx,r8
a693:	0f 84 68 09 00 00    	je     b001 <vasnprintf+0xab1>
a699:	4c 29 c1             	sub    rcx,r8
a69c:	48 89 d8             	mov    rax,rbx
a69f:	48 01 c8             	add    rax,rcx
a6a2:	49 89 c6             	mov    r14,rax
a6a5:	0f 83 dd 00 00 00    	jae    a788 <vasnprintf+0x238>
a6ab:	49 83 fc ff          	cmp    r12,0xffffffffffffffff
a6af:	0f 84 cb 0a 00 00    	je     b180 <vasnprintf+0xc30>
a6b5:	e8 c6 73 ff ff       	call   1a80 <__errno_location@plt>
a6ba:	48 89 85 38 fc ff ff 	mov    QWORD PTR [rbp-0x3c8],rax
a6c1:	4c 3b bd 18 fc ff ff 	cmp    r15,QWORD PTR [rbp-0x3e8]
a6c8:	74 09                	je     a6d3 <vasnprintf+0x183>
a6ca:	4d 85 ff             	test   r15,r15
a6cd:	0f 85 dd 0a 00 00    	jne    b1b0 <vasnprintf+0xc60>
a6d3:	48 8b 85 e0 fb ff ff 	mov    rax,QWORD PTR [rbp-0x420]
a6da:	48 85 c0             	test   rax,rax
a6dd:	74 08                	je     a6e7 <vasnprintf+0x197>
a6df:	48 89 c7             	mov    rdi,rax
a6e2:	e8 79 73 ff ff       	call   1a60 <free@plt>
a6e7:	48 8b 85 f8 fb ff ff 	mov    rax,QWORD PTR [rbp-0x408]
a6ee:	48 8b bd 48 fd ff ff 	mov    rdi,QWORD PTR [rbp-0x2b8]
a6f5:	48 83 c0 20          	add    rax,0x20
a6f9:	48 39 c7             	cmp    rdi,rax
a6fc:	74 05                	je     a703 <vasnprintf+0x1b3>
a6fe:	e8 5d 73 ff ff       	call   1a60 <free@plt>
a703:	48 8b 85 f0 fb ff ff 	mov    rax,QWORD PTR [rbp-0x410]
a70a:	48 8b bd 58 fc ff ff 	mov    rdi,QWORD PTR [rbp-0x3a8]
a711:	48 83 c0 10          	add    rax,0x10
a715:	48 39 c7             	cmp    rdi,rax
a718:	74 05                	je     a71f <vasnprintf+0x1cf>
a71a:	e8 41 73 ff ff       	call   1a60 <free@plt>
a71f:	48 8b 85 38 fc ff ff 	mov    rax,QWORD PTR [rbp-0x3c8]
a726:	45 31 ff             	xor    r15d,r15d
a729:	c7 00 0c 00 00 00    	mov    DWORD PTR [rax],0xc
a72f:	48 8b 7d c8          	mov    rdi,QWORD PTR [rbp-0x38]
a733:	64 48 33 3c 25 28 00 	xor    rdi,QWORD PTR fs:0x28
a73a:	00 00
a73c:	4c 89 f8             	mov    rax,r15
a73f:	0f 85 02 0f 00 00    	jne    b647 <vasnprintf+0x10f7>
a745:	48 8d 65 d8          	lea    rsp,[rbp-0x28]
a749:	5b                   	pop    rbx
a74a:	41 5c                	pop    r12
a74c:	41 5d                	pop    r13
a74e:	41 5e                	pop    r14
a750:	41 5f                	pop    r15
a752:	5d                   	pop    rbp
a753:	c3                   	ret
a754:	0f 1f 40 00          	nop    DWORD PTR [rax+0x0]
a758:	48 83 c0 24          	add    rax,0x24
a75c:	48 c7 85 e0 fb ff ff 	mov    QWORD PTR [rbp-0x420],0x0
a763:	00 00 00 00
a767:	48 83 e0 f0          	and    rax,0xfffffffffffffff0
a76b:	48 29 c4             	sub    rsp,rax
a76e:	48 8d 44 24 0f       	lea    rax,[rsp+0xf]
a773:	48 83 e0 f0          	and    rax,0xfffffffffffffff0
a777:	48 89 85 28 fc ff ff 	mov    QWORD PTR [rbp-0x3d8],rax
a77e:	e9 c2 fe ff ff       	jmp    a645 <vasnprintf+0xf5>
a783:	0f 1f 44 00 00       	nop    DWORD PTR [rax+rax*1+0x0]
a788:	49 39 c4             	cmp    r12,rax
a78b:	73 67                	jae    a7f4 <vasnprintf+0x2a4>
a78d:	4d 85 e4             	test   r12,r12
a790:	0f 85 2a 09 00 00    	jne    b0c0 <vasnprintf+0xb70>
a796:	48 83 f8 0c          	cmp    rax,0xc
a79a:	0f 87 32 09 00 00    	ja     b0d2 <vasnprintf+0xb82>
a7a0:	41 bc 0c 00 00 00    	mov    r12d,0xc
a7a6:	4c 3b bd 18 fc ff ff 	cmp    r15,QWORD PTR [rbp-0x3e8]
a7ad:	0f 94 c2             	sete   dl
a7b0:	4d 85 ff             	test   r15,r15
a7b3:	0f 84 3f 09 00 00    	je     b0f8 <vasnprintf+0xba8>
a7b9:	84 d2                	test   dl,dl
a7bb:	0f 85 37 09 00 00    	jne    b0f8 <vasnprintf+0xba8>
a7c1:	4c 89 e6             	mov    rsi,r12
a7c4:	4c 89 ff             	mov    rdi,r15
a7c7:	4c 89 85 30 fc ff ff 	mov    QWORD PTR [rbp-0x3d0],r8
a7ce:	48 89 8d 38 fc ff ff 	mov    QWORD PTR [rbp-0x3c8],rcx
a7d5:	e8 76 75 ff ff       	call   1d50 <realloc@plt>
a7da:	48 85 c0             	test   rax,rax
a7dd:	48 8b 8d 38 fc ff ff 	mov    rcx,QWORD PTR [rbp-0x3c8]
a7e4:	4c 8b 85 30 fc ff ff 	mov    r8,QWORD PTR [rbp-0x3d0]
a7eb:	0f 84 aa 09 00 00    	je     b19b <vasnprintf+0xc4b>
a7f1:	49 89 c7             	mov    r15,rax
a7f4:	49 8d 3c 1f          	lea    rdi,[r15+rbx*1]
a7f8:	48 89 ca             	mov    rdx,rcx
a7fb:	4c 89 c6             	mov    rsi,r8
a7fe:	e8 dd 74 ff ff       	call   1ce0 <memcpy@plt>
a803:	48 8b 85 00 fc ff ff 	mov    rax,QWORD PTR [rbp-0x400]
a80a:	48 39 85 40 fd ff ff 	cmp    QWORD PTR [rbp-0x2c0],rax
a811:	0f 84 b4 0c 00 00    	je     b4cb <vasnprintf+0xf7b>
a817:	41 0f b6 55 48       	movzx  edx,BYTE PTR [r13+0x48]
a81c:	49 8b 45 50          	mov    rax,QWORD PTR [r13+0x50]
a820:	80 fa 25             	cmp    dl,0x25
a823:	0f 84 8f 07 00 00    	je     afb8 <vasnprintf+0xa68>
a829:	48 83 f8 ff          	cmp    rax,0xffffffffffffffff
a82d:	0f 84 43 0c 00 00    	je     b476 <vasnprintf+0xf26>
a833:	4c 8b 85 58 fc ff ff 	mov    r8,QWORD PTR [rbp-0x3a8]
a83a:	48 c1 e0 05          	shl    rax,0x5
a83e:	4c 01 c0             	add    rax,r8
a841:	80 fa 6e             	cmp    dl,0x6e
a844:	8b 38                	mov    edi,DWORD PTR [rax]
a846:	89 bd 30 fc ff ff    	mov    DWORD PTR [rbp-0x3d0],edi
a84c:	0f 84 de 07 00 00    	je     b030 <vasnprintf+0xae0>
a852:	41 8b 45 10          	mov    eax,DWORD PTR [r13+0x10]
a856:	48 8b bd 28 fc ff ff 	mov    rdi,QWORD PTR [rbp-0x3d8]
a85d:	a8 01                	test   al,0x1
a85f:	c6 07 25             	mov    BYTE PTR [rdi],0x25
a862:	48 8d 5f 01          	lea    rbx,[rdi+0x1]
a866:	74 0f                	je     a877 <vasnprintf+0x327>
a868:	48 8b bd 28 fc ff ff 	mov    rdi,QWORD PTR [rbp-0x3d8]
a86f:	48 8d 5f 02          	lea    rbx,[rdi+0x2]
a873:	c6 47 01 27          	mov    BYTE PTR [rdi+0x1],0x27
a877:	a8 02                	test   al,0x2
a879:	74 07                	je     a882 <vasnprintf+0x332>
a87b:	c6 03 2d             	mov    BYTE PTR [rbx],0x2d
a87e:	48 83 c3 01          	add    rbx,0x1
a882:	a8 04                	test   al,0x4
a884:	74 07                	je     a88d <vasnprintf+0x33d>
a886:	c6 03 2b             	mov    BYTE PTR [rbx],0x2b
a889:	48 83 c3 01          	add    rbx,0x1
a88d:	a8 08                	test   al,0x8
a88f:	74 07                	je     a898 <vasnprintf+0x348>
a891:	c6 03 20             	mov    BYTE PTR [rbx],0x20
a894:	48 83 c3 01          	add    rbx,0x1
a898:	a8 10                	test   al,0x10
a89a:	74 07                	je     a8a3 <vasnprintf+0x353>
a89c:	c6 03 23             	mov    BYTE PTR [rbx],0x23
a89f:	48 83 c3 01          	add    rbx,0x1
a8a3:	a8 40                	test   al,0x40
a8a5:	74 07                	je     a8ae <vasnprintf+0x35e>
a8a7:	c6 03 49             	mov    BYTE PTR [rbx],0x49
a8aa:	48 83 c3 01          	add    rbx,0x1
a8ae:	a8 20                	test   al,0x20
a8b0:	74 07                	je     a8b9 <vasnprintf+0x369>
a8b2:	c6 03 30             	mov    BYTE PTR [rbx],0x30
a8b5:	48 83 c3 01          	add    rbx,0x1
a8b9:	49 8b 75 18          	mov    rsi,QWORD PTR [r13+0x18]
a8bd:	49 8b 55 20          	mov    rdx,QWORD PTR [r13+0x20]
a8c1:	48 39 d6             	cmp    rsi,rdx
a8c4:	74 30                	je     a8f6 <vasnprintf+0x3a6>
a8c6:	48 89 d1             	mov    rcx,rdx
a8c9:	48 89 df             	mov    rdi,rbx
a8cc:	4c 89 85 20 fc ff ff 	mov    QWORD PTR [rbp-0x3e0],r8
a8d3:	48 29 f1             	sub    rcx,rsi
a8d6:	48 89 ca             	mov    rdx,rcx
a8d9:	48 89 8d 38 fc ff ff 	mov    QWORD PTR [rbp-0x3c8],rcx
a8e0:	e8 fb 73 ff ff       	call   1ce0 <memcpy@plt>
a8e5:	48 8b 8d 38 fc ff ff 	mov    rcx,QWORD PTR [rbp-0x3c8]
a8ec:	4c 8b 85 20 fc ff ff 	mov    r8,QWORD PTR [rbp-0x3e0]
a8f3:	48 01 cb             	add    rbx,rcx
a8f6:	49 8b 75 30          	mov    rsi,QWORD PTR [r13+0x30]
a8fa:	49 8b 55 38          	mov    rdx,QWORD PTR [r13+0x38]
a8fe:	48 39 d6             	cmp    rsi,rdx
a901:	74 30                	je     a933 <vasnprintf+0x3e3>
a903:	48 89 d1             	mov    rcx,rdx
a906:	48 89 df             	mov    rdi,rbx
a909:	4c 89 85 20 fc ff ff 	mov    QWORD PTR [rbp-0x3e0],r8
a910:	48 29 f1             	sub    rcx,rsi
a913:	48 89 ca             	mov    rdx,rcx
a916:	48 89 8d 38 fc ff ff 	mov    QWORD PTR [rbp-0x3c8],rcx
a91d:	e8 be 73 ff ff       	call   1ce0 <memcpy@plt>
a922:	48 8b 8d 38 fc ff ff 	mov    rcx,QWORD PTR [rbp-0x3c8]
a929:	4c 8b 85 20 fc ff ff 	mov    r8,QWORD PTR [rbp-0x3e0]
a930:	48 01 cb             	add    rbx,rcx
a933:	8b bd 30 fc ff ff    	mov    edi,DWORD PTR [rbp-0x3d0]
a939:	83 ff 10             	cmp    edi,0x10
a93c:	77 2d                	ja     a96b <vasnprintf+0x41b>
a93e:	b8 01 00 00 00       	mov    eax,0x1
a943:	89 f9                	mov    ecx,edi
a945:	48 d3 e0             	shl    rax,cl
a948:	a9 80 41 01 00       	test   eax,0x14180
a94d:	75 15                	jne    a964 <vasnprintf+0x414>
a94f:	f6 c4 10             	test   ah,0x10
a952:	0f 85 58 09 00 00    	jne    b2b0 <vasnprintf+0xd60>
a958:	f6 c4 06             	test   ah,0x6
a95b:	74 0e                	je     a96b <vasnprintf+0x41b>
a95d:	c6 03 6c             	mov    BYTE PTR [rbx],0x6c
a960:	48 83 c3 01          	add    rbx,0x1
a964:	c6 03 6c             	mov    BYTE PTR [rbx],0x6c
a967:	48 83 c3 01          	add    rbx,0x1
a96b:	41 0f b6 45 48       	movzx  eax,BYTE PTR [r13+0x48]
a970:	c6 43 01 00          	mov    BYTE PTR [rbx+0x1],0x0
a974:	88 03                	mov    BYTE PTR [rbx],al
a976:	49 8b 45 28          	mov    rax,QWORD PTR [r13+0x28]
a97a:	48 83 f8 ff          	cmp    rax,0xffffffffffffffff
a97e:	0f 84 2c 07 00 00    	je     b0b0 <vasnprintf+0xb60>
a984:	48 c1 e0 05          	shl    rax,0x5
a988:	4c 01 c0             	add    rax,r8
a98b:	83 38 05             	cmp    DWORD PTR [rax],0x5
a98e:	0f 85 e2 0a 00 00    	jne    b476 <vasnprintf+0xf26>
a994:	8b 40 10             	mov    eax,DWORD PTR [rax+0x10]
a997:	c7 85 20 fc ff ff 01 	mov    DWORD PTR [rbp-0x3e0],0x1
a99e:	00 00 00
a9a1:	89 85 48 fc ff ff    	mov    DWORD PTR [rbp-0x3b8],eax
a9a7:	49 8b 45 40          	mov    rax,QWORD PTR [r13+0x40]
a9ab:	48 83 f8 ff          	cmp    rax,0xffffffffffffffff
a9af:	74 2b                	je     a9dc <vasnprintf+0x48c>
a9b1:	48 c1 e0 05          	shl    rax,0x5
a9b5:	49 01 c0             	add    r8,rax
a9b8:	41 83 38 05          	cmp    DWORD PTR [r8],0x5
a9bc:	0f 85 b4 0a 00 00    	jne    b476 <vasnprintf+0xf26>
a9c2:	8b 85 20 fc ff ff    	mov    eax,DWORD PTR [rbp-0x3e0]
a9c8:	41 8b 50 10          	mov    edx,DWORD PTR [r8+0x10]
a9cc:	89 94 85 48 fc ff ff 	mov    DWORD PTR [rbp+rax*4-0x3b8],edx
a9d3:	8d 40 01             	lea    eax,[rax+0x1]
a9d6:	89 85 20 fc ff ff    	mov    DWORD PTR [rbp-0x3e0],eax
a9dc:	4c 89 f0             	mov    rax,r14
a9df:	31 d2                	xor    edx,edx
a9e1:	48 83 c0 02          	add    rax,0x2
a9e5:	0f 82 61 0c 00 00    	jb     b64c <vasnprintf+0x10fc>
a9eb:	49 39 c4             	cmp    r12,rax
a9ee:	73 4b                	jae    aa3b <vasnprintf+0x4eb>
a9f0:	4d 85 e4             	test   r12,r12
a9f3:	0f 85 1f 08 00 00    	jne    b218 <vasnprintf+0xcc8>
a9f9:	48 83 f8 0c          	cmp    rax,0xc
a9fd:	0f 87 2d 08 00 00    	ja     b230 <vasnprintf+0xce0>
aa03:	41 bc 0c 00 00 00    	mov    r12d,0xc
aa09:	4c 3b bd 18 fc ff ff 	cmp    r15,QWORD PTR [rbp-0x3e8]
aa10:	0f 94 c2             	sete   dl
aa13:	4d 85 ff             	test   r15,r15
aa16:	0f 84 44 08 00 00    	je     b260 <vasnprintf+0xd10>
aa1c:	84 d2                	test   dl,dl
aa1e:	0f 85 3c 08 00 00    	jne    b260 <vasnprintf+0xd10>
aa24:	4c 89 e6             	mov    rsi,r12
aa27:	4c 89 ff             	mov    rdi,r15
aa2a:	e8 21 73 ff ff       	call   1d50 <realloc@plt>
aa2f:	48 85 c0             	test   rax,rax
aa32:	0f 84 7d fc ff ff    	je     a6b5 <vasnprintf+0x165>
aa38:	49 89 c7             	mov    r15,rax
aa3b:	43 c6 04 37 00       	mov    BYTE PTR [r15+r14*1],0x0
aa40:	e8 3b 70 ff ff       	call   1a80 <__errno_location@plt>
aa45:	48 89 85 38 fc ff ff 	mov    QWORD PTR [rbp-0x3c8],rax
aa4c:	8b 00                	mov    eax,DWORD PTR [rax]
aa4e:	48 89 9d 08 fc ff ff 	mov    QWORD PTR [rbp-0x3f8],rbx
aa55:	89 85 dc fb ff ff    	mov    DWORD PTR [rbp-0x424],eax
aa5b:	0f 1f 44 00 00       	nop    DWORD PTR [rax+rax*1+0x0]
aa60:	48 8b 85 38 fc ff ff 	mov    rax,QWORD PTR [rbp-0x3c8]
aa67:	4c 89 e3             	mov    rbx,r12
aa6a:	41 ba ff ff ff 7f    	mov    r10d,0x7fffffff
aa70:	4c 29 f3             	sub    rbx,r14
aa73:	c7 85 44 fc ff ff ff 	mov    DWORD PTR [rbp-0x3bc],0xffffffff
aa7a:	ff ff ff
aa7d:	48 81 fb ff ff ff 7f 	cmp    rbx,0x7fffffff
aa84:	c7 00 00 00 00 00    	mov    DWORD PTR [rax],0x0
aa8a:	8b 85 30 fc ff ff    	mov    eax,DWORD PTR [rbp-0x3d0]
aa90:	4c 0f 46 d3          	cmovbe r10,rbx
aa94:	83 f8 11             	cmp    eax,0x11
aa97:	0f 87 d9 09 00 00    	ja     b476 <vasnprintf+0xf26>
aa9d:	48 8d 35 ac 41 00 00 	lea    rsi,[rip+0x41ac]        # ec50 <__PRETTY_FUNCTION__.4162+0x70>
aaa4:	48 63 04 86          	movsxd rax,DWORD PTR [rsi+rax*4]
aaa8:	48 01 f0             	add    rax,rsi
aaab:	ff e0                	jmp    rax
aaad:	0f 1f 00             	nop    DWORD PTR [rax]
aab0:	49 8b 45 50          	mov    rax,QWORD PTR [r13+0x50]
aab4:	4b 8d 3c 37          	lea    rdi,[r15+r14*1]
aab8:	48 c1 e0 05          	shl    rax,0x5
aabc:	48 03 85 58 fc ff ff 	add    rax,QWORD PTR [rbp-0x3a8]
aac3:	4c 8b 48 10          	mov    r9,QWORD PTR [rax+0x10]
aac7:	8b 85 20 fc ff ff    	mov    eax,DWORD PTR [rbp-0x3e0]
aacd:	83 f8 01             	cmp    eax,0x1
aad0:	0f 84 c2 04 00 00    	je     af98 <vasnprintf+0xa48>
aad6:	83 f8 02             	cmp    eax,0x2
aad9:	0f 84 a1 04 00 00    	je     af80 <vasnprintf+0xa30>
aadf:	48 83 ec 08          	sub    rsp,0x8
aae3:	ff b5 10 fc ff ff    	push   QWORD PTR [rbp-0x3f0]
aae9:	4c 8b 85 28 fc ff ff 	mov    r8,QWORD PTR [rbp-0x3d8]
aaf0:	4c 89 d6             	mov    rsi,r10
aaf3:	48 c7 c1 ff ff ff ff 	mov    rcx,0xffffffffffffffff
aafa:	ba 01 00 00 00       	mov    edx,0x1
aaff:	31 c0                	xor    eax,eax
ab01:	4c 89 95 d0 fb ff ff 	mov    QWORD PTR [rbp-0x430],r10
ab08:	e8 33 6f ff ff       	call   1a40 <__snprintf_chk@plt>
ab0d:	5e                   	pop    rsi
ab0e:	5f                   	pop    rdi
ab0f:	4c 8b 95 d0 fb ff ff 	mov    r10,QWORD PTR [rbp-0x430]
ab16:	8b 8d 44 fc ff ff    	mov    ecx,DWORD PTR [rbp-0x3bc]
ab1c:	85 c9                	test   ecx,ecx
ab1e:	0f 88 38 01 00 00    	js     ac5c <vasnprintf+0x70c>
ab24:	48 63 d1             	movsxd rdx,ecx
ab27:	4c 39 d2             	cmp    rdx,r10
ab2a:	73 0e                	jae    ab3a <vasnprintf+0x5ea>
ab2c:	4c 01 fa             	add    rdx,r15
ab2f:	42 80 3c 32 00       	cmp    BYTE PTR [rdx+r14*1],0x0
ab34:	0f 85 3c 09 00 00    	jne    b476 <vasnprintf+0xf26>
ab3a:	39 c1                	cmp    ecx,eax
ab3c:	7d 08                	jge    ab46 <vasnprintf+0x5f6>
ab3e:	89 85 44 fc ff ff    	mov    DWORD PTR [rbp-0x3bc],eax
ab44:	89 c1                	mov    ecx,eax
ab46:	8d 41 01             	lea    eax,[rcx+0x1]
ab49:	4c 39 d0             	cmp    rax,r10
ab4c:	0f 82 2e 08 00 00    	jb     b380 <vasnprintf+0xe30>
ab52:	48 81 fb fe ff ff 7f 	cmp    rbx,0x7ffffffe
ab59:	0f 87 41 08 00 00    	ja     b3a0 <vasnprintf+0xe50>
ab5f:	4b 8d 34 24          	lea    rsi,[r12+r12*1]
ab63:	8d 51 02             	lea    edx,[rcx+0x2]
ab66:	4d 85 e4             	test   r12,r12
ab69:	48 c7 c0 ff ff ff ff 	mov    rax,0xffffffffffffffff
ab70:	48 0f 49 c6          	cmovns rax,rsi
ab74:	4c 01 f2             	add    rdx,r14
ab77:	0f 82 bb 0a 00 00    	jb     b638 <vasnprintf+0x10e8>
ab7d:	48 39 d0             	cmp    rax,rdx
ab80:	48 0f 42 c2          	cmovb  rax,rdx
ab84:	49 39 c4             	cmp    r12,rax
ab87:	0f 83 d3 fe ff ff    	jae    aa60 <vasnprintf+0x510>
ab8d:	4d 85 e4             	test   r12,r12
ab90:	0f 88 2b fb ff ff    	js     a6c1 <vasnprintf+0x171>
ab96:	48 39 c6             	cmp    rsi,rax
ab99:	49 89 f4             	mov    r12,rsi
ab9c:	73 0d                	jae    abab <vasnprintf+0x65b>
ab9e:	48 83 f8 ff          	cmp    rax,0xffffffffffffffff
aba2:	0f 84 19 fb ff ff    	je     a6c1 <vasnprintf+0x171>
aba8:	49 89 c4             	mov    r12,rax
abab:	4c 3b bd 18 fc ff ff 	cmp    r15,QWORD PTR [rbp-0x3e8]
abb2:	0f 94 c3             	sete   bl
abb5:	4d 85 ff             	test   r15,r15
abb8:	0f 84 82 03 00 00    	je     af40 <vasnprintf+0x9f0>
abbe:	84 db                	test   bl,bl
abc0:	0f 85 7a 03 00 00    	jne    af40 <vasnprintf+0x9f0>
abc6:	4c 89 e6             	mov    rsi,r12
abc9:	4c 89 ff             	mov    rdi,r15
abcc:	e8 7f 71 ff ff       	call   1d50 <realloc@plt>
abd1:	48 85 c0             	test   rax,rax
abd4:	0f 84 e7 fa ff ff    	je     a6c1 <vasnprintf+0x171>
abda:	49 89 c7             	mov    r15,rax
abdd:	e9 7e fe ff ff       	jmp    aa60 <vasnprintf+0x510>
abe2:	66 0f 1f 44 00 00    	nop    WORD PTR [rax+rax*1+0x0]
abe8:	49 8b 45 50          	mov    rax,QWORD PTR [r13+0x50]
abec:	4b 8d 3c 37          	lea    rdi,[r15+r14*1]
abf0:	48 c1 e0 05          	shl    rax,0x5
abf4:	48 03 85 58 fc ff ff 	add    rax,QWORD PTR [rbp-0x3a8]
abfb:	44 8b 48 10          	mov    r9d,DWORD PTR [rax+0x10]
abff:	8b 85 20 fc ff ff    	mov    eax,DWORD PTR [rbp-0x3e0]
ac05:	83 f8 01             	cmp    eax,0x1
ac08:	0f 84 32 02 00 00    	je     ae40 <vasnprintf+0x8f0>
ac0e:	83 f8 02             	cmp    eax,0x2
ac11:	0f 84 71 02 00 00    	je     ae88 <vasnprintf+0x938>
ac17:	48 83 ec 08          	sub    rsp,0x8
ac1b:	ff b5 10 fc ff ff    	push   QWORD PTR [rbp-0x3f0]
ac21:	4c 8b 85 28 fc ff ff 	mov    r8,QWORD PTR [rbp-0x3d8]
ac28:	48 c7 c1 ff ff ff ff 	mov    rcx,0xffffffffffffffff
ac2f:	ba 01 00 00 00       	mov    edx,0x1
ac34:	4c 89 d6             	mov    rsi,r10
ac37:	31 c0                	xor    eax,eax
ac39:	4c 89 95 d0 fb ff ff 	mov    QWORD PTR [rbp-0x430],r10
ac40:	e8 fb 6d ff ff       	call   1a40 <__snprintf_chk@plt>
ac45:	5a                   	pop    rdx
ac46:	59                   	pop    rcx
ac47:	8b 8d 44 fc ff ff    	mov    ecx,DWORD PTR [rbp-0x3bc]
ac4d:	4c 8b 95 d0 fb ff ff 	mov    r10,QWORD PTR [rbp-0x430]
ac54:	85 c9                	test   ecx,ecx
ac56:	0f 89 c8 fe ff ff    	jns    ab24 <vasnprintf+0x5d4>
ac5c:	48 8b bd 08 fc ff ff 	mov    rdi,QWORD PTR [rbp-0x3f8]
ac63:	80 7f 01 00          	cmp    BYTE PTR [rdi+0x1],0x0
ac67:	0f 85 3b 03 00 00    	jne    afa8 <vasnprintf+0xa58>
ac6d:	85 c0                	test   eax,eax
ac6f:	0f 89 c9 fe ff ff    	jns    ab3e <vasnprintf+0x5ee>
ac75:	48 8b 85 38 fc ff ff 	mov    rax,QWORD PTR [rbp-0x3c8]
ac7c:	8b 18                	mov    ebx,DWORD PTR [rax]
ac7e:	85 db                	test   ebx,ebx
ac80:	75 1e                	jne    aca0 <vasnprintf+0x750>
ac82:	41 0f b6 45 48       	movzx  eax,BYTE PTR [r13+0x48]
ac87:	bb 16 00 00 00       	mov    ebx,0x16
ac8c:	83 e0 ef             	and    eax,0xffffffef
ac8f:	3c 63                	cmp    al,0x63
ac91:	b8 54 00 00 00       	mov    eax,0x54
ac96:	0f 44 d8             	cmove  ebx,eax
ac99:	0f 1f 80 00 00 00 00 	nop    DWORD PTR [rax+0x0]
aca0:	4c 3b bd 18 fc ff ff 	cmp    r15,QWORD PTR [rbp-0x3e8]
aca7:	74 09                	je     acb2 <vasnprintf+0x762>
aca9:	4d 85 ff             	test   r15,r15
acac:	0f 85 aa 07 00 00    	jne    b45c <vasnprintf+0xf0c>
acb2:	48 8b 85 e0 fb ff ff 	mov    rax,QWORD PTR [rbp-0x420]
acb9:	48 85 c0             	test   rax,rax
acbc:	74 08                	je     acc6 <vasnprintf+0x776>
acbe:	48 89 c7             	mov    rdi,rax
acc1:	e8 9a 6d ff ff       	call   1a60 <free@plt>
acc6:	48 8b 85 f8 fb ff ff 	mov    rax,QWORD PTR [rbp-0x408]
accd:	48 8b bd 48 fd ff ff 	mov    rdi,QWORD PTR [rbp-0x2b8]
acd4:	48 83 c0 20          	add    rax,0x20
acd8:	48 39 c7             	cmp    rdi,rax
acdb:	74 05                	je     ace2 <vasnprintf+0x792>
acdd:	e8 7e 6d ff ff       	call   1a60 <free@plt>
ace2:	48 8b 85 f0 fb ff ff 	mov    rax,QWORD PTR [rbp-0x410]
ace9:	48 8b bd 58 fc ff ff 	mov    rdi,QWORD PTR [rbp-0x3a8]
acf0:	48 83 c0 10          	add    rax,0x10
acf4:	48 39 c7             	cmp    rdi,rax
acf7:	74 05                	je     acfe <vasnprintf+0x7ae>
acf9:	e8 62 6d ff ff       	call   1a60 <free@plt>
acfe:	48 8b 85 38 fc ff ff 	mov    rax,QWORD PTR [rbp-0x3c8]
ad05:	45 31 ff             	xor    r15d,r15d
ad08:	89 18                	mov    DWORD PTR [rax],ebx
ad0a:	e9 20 fa ff ff       	jmp    a72f <vasnprintf+0x1df>
ad0f:	90                   	nop
ad10:	49 8b 45 50          	mov    rax,QWORD PTR [r13+0x50]
ad14:	4b 8d 3c 37          	lea    rdi,[r15+r14*1]
ad18:	48 c1 e0 05          	shl    rax,0x5
ad1c:	48 03 85 58 fc ff ff 	add    rax,QWORD PTR [rbp-0x3a8]
ad23:	db 68 10             	fld    TBYTE PTR [rax+0x10]
ad26:	8b 85 20 fc ff ff    	mov    eax,DWORD PTR [rbp-0x3e0]
ad2c:	83 f8 01             	cmp    eax,0x1
ad2f:	0f 84 2b 06 00 00    	je     b360 <vasnprintf+0xe10>
ad35:	83 f8 02             	cmp    eax,0x2
ad38:	0f 85 c2 04 00 00    	jne    b200 <vasnprintf+0xcb0>
ad3e:	8b 85 4c fc ff ff    	mov    eax,DWORD PTR [rbp-0x3b4]
ad44:	48 83 ec 08          	sub    rsp,0x8
ad48:	ff b5 10 fc ff ff    	push   QWORD PTR [rbp-0x3f0]
ad4e:	44 8b 8d 48 fc ff ff 	mov    r9d,DWORD PTR [rbp-0x3b8]
ad55:	4c 8b 85 28 fc ff ff 	mov    r8,QWORD PTR [rbp-0x3d8]
ad5c:	4c 89 d6             	mov    rsi,r10
ad5f:	48 83 ec 18          	sub    rsp,0x18
ad63:	48 c7 c1 ff ff ff ff 	mov    rcx,0xffffffffffffffff
ad6a:	ba 01 00 00 00       	mov    edx,0x1
ad6f:	db 7c 24 08          	fstp   TBYTE PTR [rsp+0x8]
ad73:	50                   	push   rax
ad74:	31 c0                	xor    eax,eax
ad76:	4c 89 95 d0 fb ff ff 	mov    QWORD PTR [rbp-0x430],r10
ad7d:	e8 be 6c ff ff       	call   1a40 <__snprintf_chk@plt>
ad82:	48 83 c4 30          	add    rsp,0x30
ad86:	4c 8b 95 d0 fb ff ff 	mov    r10,QWORD PTR [rbp-0x430]
ad8d:	e9 84 fd ff ff       	jmp    ab16 <vasnprintf+0x5c6>
ad92:	66 0f 1f 44 00 00    	nop    WORD PTR [rax+rax*1+0x0]
ad98:	49 8b 45 50          	mov    rax,QWORD PTR [r13+0x50]
ad9c:	4b 8d 3c 37          	lea    rdi,[r15+r14*1]
ada0:	48 c1 e0 05          	shl    rax,0x5
ada4:	48 03 85 58 fc ff ff 	add    rax,QWORD PTR [rbp-0x3a8]
adab:	f2 0f 10 40 10       	movsd  xmm0,QWORD PTR [rax+0x10]
adb0:	8b 85 20 fc ff ff    	mov    eax,DWORD PTR [rbp-0x3e0]
adb6:	83 f8 01             	cmp    eax,0x1
adb9:	0f 84 91 05 00 00    	je     b350 <vasnprintf+0xe00>
adbf:	83 f8 02             	cmp    eax,0x2
adc2:	0f 85 f8 03 00 00    	jne    b1c0 <vasnprintf+0xc70>
adc8:	8b 85 4c fc ff ff    	mov    eax,DWORD PTR [rbp-0x3b4]
adce:	ff b5 10 fc ff ff    	push   QWORD PTR [rbp-0x3f0]
add4:	50                   	push   rax
add5:	44 8b 8d 48 fc ff ff 	mov    r9d,DWORD PTR [rbp-0x3b8]
addc:	4c 8b 85 28 fc ff ff 	mov    r8,QWORD PTR [rbp-0x3d8]
ade3:	4c 89 d6             	mov    rsi,r10
ade6:	48 c7 c1 ff ff ff ff 	mov    rcx,0xffffffffffffffff
aded:	ba 01 00 00 00       	mov    edx,0x1
adf2:	b8 01 00 00 00       	mov    eax,0x1
adf7:	4c 89 95 d0 fb ff ff 	mov    QWORD PTR [rbp-0x430],r10
adfe:	e8 3d 6c ff ff       	call   1a40 <__snprintf_chk@plt>
ae03:	41 58                	pop    r8
ae05:	4c 8b 95 d0 fb ff ff 	mov    r10,QWORD PTR [rbp-0x430]
ae0c:	41 59                	pop    r9
ae0e:	e9 03 fd ff ff       	jmp    ab16 <vasnprintf+0x5c6>
ae13:	0f 1f 44 00 00       	nop    DWORD PTR [rax+rax*1+0x0]
ae18:	49 8b 45 50          	mov    rax,QWORD PTR [r13+0x50]
ae1c:	4b 8d 3c 37          	lea    rdi,[r15+r14*1]
ae20:	48 c1 e0 05          	shl    rax,0x5
ae24:	48 03 85 58 fc ff ff 	add    rax,QWORD PTR [rbp-0x3a8]
ae2b:	44 0f b7 48 10       	movzx  r9d,WORD PTR [rax+0x10]
ae30:	8b 85 20 fc ff ff    	mov    eax,DWORD PTR [rbp-0x3e0]
ae36:	83 f8 01             	cmp    eax,0x1
ae39:	0f 85 cf fd ff ff    	jne    ac0e <vasnprintf+0x6be>
ae3f:	90                   	nop
ae40:	ff b5 10 fc ff ff    	push   QWORD PTR [rbp-0x3f0]
ae46:	41 51                	push   r9
ae48:	44 8b 8d 48 fc ff ff 	mov    r9d,DWORD PTR [rbp-0x3b8]
ae4f:	e9 cd fd ff ff       	jmp    ac21 <vasnprintf+0x6d1>
ae54:	0f 1f 40 00          	nop    DWORD PTR [rax+0x0]
ae58:	49 8b 45 50          	mov    rax,QWORD PTR [r13+0x50]
ae5c:	4b 8d 3c 37          	lea    rdi,[r15+r14*1]
ae60:	48 c1 e0 05          	shl    rax,0x5
ae64:	48 03 85 58 fc ff ff 	add    rax,QWORD PTR [rbp-0x3a8]
ae6b:	44 0f bf 48 10       	movsx  r9d,WORD PTR [rax+0x10]
ae70:	8b 85 20 fc ff ff    	mov    eax,DWORD PTR [rbp-0x3e0]
ae76:	83 f8 01             	cmp    eax,0x1
ae79:	74 c5                	je     ae40 <vasnprintf+0x8f0>
ae7b:	83 f8 02             	cmp    eax,0x2
ae7e:	0f 85 93 fd ff ff    	jne    ac17 <vasnprintf+0x6c7>
ae84:	0f 1f 40 00          	nop    DWORD PTR [rax+0x0]
ae88:	48 83 ec 08          	sub    rsp,0x8
ae8c:	ff b5 10 fc ff ff    	push   QWORD PTR [rbp-0x3f0]
ae92:	41 51                	push   r9
ae94:	8b 85 4c fc ff ff    	mov    eax,DWORD PTR [rbp-0x3b4]
ae9a:	50                   	push   rax
ae9b:	44 8b 8d 48 fc ff ff 	mov    r9d,DWORD PTR [rbp-0x3b8]
aea2:	4c 8b 85 28 fc ff ff 	mov    r8,QWORD PTR [rbp-0x3d8]
aea9:	4c 89 d6             	mov    rsi,r10
aeac:	48 c7 c1 ff ff ff ff 	mov    rcx,0xffffffffffffffff
aeb3:	ba 01 00 00 00       	mov    edx,0x1
aeb8:	31 c0                	xor    eax,eax
aeba:	4c 89 95 d0 fb ff ff 	mov    QWORD PTR [rbp-0x430],r10
aec1:	e8 7a 6b ff ff       	call   1a40 <__snprintf_chk@plt>
aec6:	48 83 c4 20          	add    rsp,0x20
aeca:	4c 8b 95 d0 fb ff ff 	mov    r10,QWORD PTR [rbp-0x430]
aed1:	e9 40 fc ff ff       	jmp    ab16 <vasnprintf+0x5c6>
aed6:	66 2e 0f 1f 84 00 00 	nop    WORD PTR cs:[rax+rax*1+0x0]
aedd:	00 00 00
aee0:	49 8b 45 50          	mov    rax,QWORD PTR [r13+0x50]
aee4:	4b 8d 3c 37          	lea    rdi,[r15+r14*1]
aee8:	48 c1 e0 05          	shl    rax,0x5
aeec:	48 03 85 58 fc ff ff 	add    rax,QWORD PTR [rbp-0x3a8]
aef3:	44 0f b6 48 10       	movzx  r9d,BYTE PTR [rax+0x10]
aef8:	8b 85 20 fc ff ff    	mov    eax,DWORD PTR [rbp-0x3e0]
aefe:	83 f8 01             	cmp    eax,0x1
af01:	0f 85 07 fd ff ff    	jne    ac0e <vasnprintf+0x6be>
af07:	e9 34 ff ff ff       	jmp    ae40 <vasnprintf+0x8f0>
af0c:	0f 1f 40 00          	nop    DWORD PTR [rax+0x0]
af10:	49 8b 45 50          	mov    rax,QWORD PTR [r13+0x50]
af14:	4b 8d 3c 37          	lea    rdi,[r15+r14*1]
af18:	48 c1 e0 05          	shl    rax,0x5
af1c:	48 03 85 58 fc ff ff 	add    rax,QWORD PTR [rbp-0x3a8]
af23:	44 0f be 48 10       	movsx  r9d,BYTE PTR [rax+0x10]
af28:	8b 85 20 fc ff ff    	mov    eax,DWORD PTR [rbp-0x3e0]
af2e:	83 f8 01             	cmp    eax,0x1
af31:	0f 85 d7 fc ff ff    	jne    ac0e <vasnprintf+0x6be>
af37:	e9 04 ff ff ff       	jmp    ae40 <vasnprintf+0x8f0>
af3c:	0f 1f 40 00          	nop    DWORD PTR [rax+0x0]
af40:	4c 89 e7             	mov    rdi,r12
af43:	e8 b8 6d ff ff       	call   1d00 <malloc@plt>
af48:	48 85 c0             	test   rax,rax
af4b:	48 89 c1             	mov    rcx,rax
af4e:	0f 84 6d f7 ff ff    	je     a6c1 <vasnprintf+0x171>
af54:	4d 85 f6             	test   r14,r14
af57:	0f 84 b3 00 00 00    	je     b010 <vasnprintf+0xac0>
af5d:	84 db                	test   bl,bl
af5f:	0f 84 ab 00 00 00    	je     b010 <vasnprintf+0xac0>
af65:	4c 89 fe             	mov    rsi,r15
af68:	4c 89 f2             	mov    rdx,r14
af6b:	48 89 c7             	mov    rdi,rax
af6e:	e8 6d 6d ff ff       	call   1ce0 <memcpy@plt>
af73:	49 89 c7             	mov    r15,rax
af76:	e9 e5 fa ff ff       	jmp    aa60 <vasnprintf+0x510>
af7b:	0f 1f 44 00 00       	nop    DWORD PTR [rax+rax*1+0x0]
af80:	48 83 ec 08          	sub    rsp,0x8
af84:	ff b5 10 fc ff ff    	push   QWORD PTR [rbp-0x3f0]
af8a:	41 51                	push   r9
af8c:	e9 03 ff ff ff       	jmp    ae94 <vasnprintf+0x944>
af91:	0f 1f 80 00 00 00 00 	nop    DWORD PTR [rax+0x0]
af98:	ff b5 10 fc ff ff    	push   QWORD PTR [rbp-0x3f0]
af9e:	41 51                	push   r9
afa0:	e9 a3 fe ff ff       	jmp    ae48 <vasnprintf+0x8f8>
afa5:	0f 1f 00             	nop    DWORD PTR [rax]
afa8:	c6 47 01 00          	mov    BYTE PTR [rdi+0x1],0x0
afac:	e9 af fa ff ff       	jmp    aa60 <vasnprintf+0x510>
afb1:	0f 1f 80 00 00 00 00 	nop    DWORD PTR [rax+0x0]
afb8:	48 83 f8 ff          	cmp    rax,0xffffffffffffffff
afbc:	0f 85 b4 04 00 00    	jne    b476 <vasnprintf+0xf26>
afc2:	4c 89 f0             	mov    rax,r14
afc5:	48 83 c0 01          	add    rax,0x1
afc9:	48 89 c3             	mov    rbx,rax
afcc:	0f 83 86 00 00 00    	jae    b058 <vasnprintf+0xb08>
afd2:	49 83 fc ff          	cmp    r12,0xffffffffffffffff
afd6:	0f 85 d9 f6 ff ff    	jne    a6b5 <vasnprintf+0x165>
afdc:	4c 89 e3             	mov    rbx,r12
afdf:	43 c6 04 37 25       	mov    BYTE PTR [r15+r14*1],0x25
afe4:	4d 8b 45 08          	mov    r8,QWORD PTR [r13+0x8]
afe8:	49 83 c5 58          	add    r13,0x58
afec:	49 8b 4d 00          	mov    rcx,QWORD PTR [r13+0x0]
aff0:	48 83 85 00 fc ff ff 	add    QWORD PTR [rbp-0x400],0x1
aff7:	01
aff8:	4c 39 c1             	cmp    rcx,r8
affb:	0f 85 98 f6 ff ff    	jne    a699 <vasnprintf+0x149>
b001:	49 89 de             	mov    r14,rbx
b004:	e9 fa f7 ff ff       	jmp    a803 <vasnprintf+0x2b3>
b009:	0f 1f 80 00 00 00 00 	nop    DWORD PTR [rax+0x0]
b010:	49 89 cf             	mov    r15,rcx
b013:	e9 48 fa ff ff       	jmp    aa60 <vasnprintf+0x510>
b018:	e8 63 6a ff ff       	call   1a80 <__errno_location@plt>
b01d:	48 89 85 38 fc ff ff 	mov    QWORD PTR [rbp-0x3c8],rax
b024:	e9 be f6 ff ff       	jmp    a6e7 <vasnprintf+0x197>
b029:	0f 1f 80 00 00 00 00 	nop    DWORD PTR [rax+0x0]
b030:	89 fa                	mov    edx,edi
b032:	83 ea 12             	sub    edx,0x12
b035:	83 fa 04             	cmp    edx,0x4
b038:	0f 87 38 04 00 00    	ja     b476 <vasnprintf+0xf26>
b03e:	48 8d 3d 53 3c 00 00 	lea    rdi,[rip+0x3c53]        # ec98 <__PRETTY_FUNCTION__.4162+0xb8>
b045:	48 8b 40 10          	mov    rax,QWORD PTR [rax+0x10]
b049:	48 63 14 97          	movsxd rdx,DWORD PTR [rdi+rdx*4]
b04d:	48 01 fa             	add    rdx,rdi
b050:	ff e2                	jmp    rdx
b052:	66 0f 1f 44 00 00    	nop    WORD PTR [rax+rax*1+0x0]
b058:	49 39 c4             	cmp    r12,rax
b05b:	73 82                	jae    afdf <vasnprintf+0xa8f>
b05d:	4d 85 e4             	test   r12,r12
b060:	0f 85 ca 03 00 00    	jne    b430 <vasnprintf+0xee0>
b066:	48 83 f8 0c          	cmp    rax,0xc
b06a:	0f 87 d2 03 00 00    	ja     b442 <vasnprintf+0xef2>
b070:	41 bc 0c 00 00 00    	mov    r12d,0xc
b076:	4c 3b bd 18 fc ff ff 	cmp    r15,QWORD PTR [rbp-0x3e8]
b07d:	0f 94 c2             	sete   dl
b080:	4d 85 ff             	test   r15,r15
b083:	0f 84 67 02 00 00    	je     b2f0 <vasnprintf+0xda0>
b089:	84 d2                	test   dl,dl
b08b:	0f 85 5f 02 00 00    	jne    b2f0 <vasnprintf+0xda0>
b091:	4c 89 e6             	mov    rsi,r12
b094:	4c 89 ff             	mov    rdi,r15
b097:	e8 b4 6c ff ff       	call   1d50 <realloc@plt>
b09c:	48 85 c0             	test   rax,rax
b09f:	0f 84 f6 00 00 00    	je     b19b <vasnprintf+0xc4b>
b0a5:	49 89 c7             	mov    r15,rax
b0a8:	e9 32 ff ff ff       	jmp    afdf <vasnprintf+0xa8f>
b0ad:	0f 1f 00             	nop    DWORD PTR [rax]
b0b0:	c7 85 20 fc ff ff 00 	mov    DWORD PTR [rbp-0x3e0],0x0
b0b7:	00 00 00
b0ba:	e9 e8 f8 ff ff       	jmp    a9a7 <vasnprintf+0x457>
b0bf:	90                   	nop
b0c0:	0f 88 ef f5 ff ff    	js     a6b5 <vasnprintf+0x165>
b0c6:	4d 01 e4             	add    r12,r12
b0c9:	49 39 c4             	cmp    r12,rax
b0cc:	0f 83 d4 f6 ff ff    	jae    a7a6 <vasnprintf+0x256>
b0d2:	48 83 f8 ff          	cmp    rax,0xffffffffffffffff
b0d6:	0f 84 d9 f5 ff ff    	je     a6b5 <vasnprintf+0x165>
b0dc:	4c 3b bd 18 fc ff ff 	cmp    r15,QWORD PTR [rbp-0x3e8]
b0e3:	49 89 c4             	mov    r12,rax
b0e6:	0f 94 c2             	sete   dl
b0e9:	4d 85 ff             	test   r15,r15
b0ec:	0f 85 c7 f6 ff ff    	jne    a7b9 <vasnprintf+0x269>
b0f2:	66 0f 1f 44 00 00    	nop    WORD PTR [rax+rax*1+0x0]
b0f8:	4c 89 e7             	mov    rdi,r12
b0fb:	4c 89 85 20 fc ff ff 	mov    QWORD PTR [rbp-0x3e0],r8
b102:	88 95 30 fc ff ff    	mov    BYTE PTR [rbp-0x3d0],dl
b108:	48 89 8d 38 fc ff ff 	mov    QWORD PTR [rbp-0x3c8],rcx
b10f:	e8 ec 6b ff ff       	call   1d00 <malloc@plt>
b114:	48 85 c0             	test   rax,rax
b117:	49 89 c1             	mov    r9,rax
b11a:	48 8b 8d 38 fc ff ff 	mov    rcx,QWORD PTR [rbp-0x3c8]
b121:	0f b6 95 30 fc ff ff 	movzx  edx,BYTE PTR [rbp-0x3d0]
b128:	4c 8b 85 20 fc ff ff 	mov    r8,QWORD PTR [rbp-0x3e0]
b12f:	0f 84 80 f5 ff ff    	je     a6b5 <vasnprintf+0x165>
b135:	48 85 db             	test   rbx,rbx
b138:	0f 84 02 02 00 00    	je     b340 <vasnprintf+0xdf0>
b13e:	84 d2                	test   dl,dl
b140:	0f 84 fa 01 00 00    	je     b340 <vasnprintf+0xdf0>
b146:	4c 89 fe             	mov    rsi,r15
b149:	48 89 da             	mov    rdx,rbx
b14c:	48 89 c7             	mov    rdi,rax
b14f:	4c 89 85 30 fc ff ff 	mov    QWORD PTR [rbp-0x3d0],r8
b156:	48 89 8d 38 fc ff ff 	mov    QWORD PTR [rbp-0x3c8],rcx
b15d:	e8 7e 6b ff ff       	call   1ce0 <memcpy@plt>
b162:	48 8b 8d 38 fc ff ff 	mov    rcx,QWORD PTR [rbp-0x3c8]
b169:	49 89 c7             	mov    r15,rax
b16c:	4c 8b 85 30 fc ff ff 	mov    r8,QWORD PTR [rbp-0x3d0]
b173:	e9 7c f6 ff ff       	jmp    a7f4 <vasnprintf+0x2a4>
b178:	0f 1f 84 00 00 00 00 	nop    DWORD PTR [rax+rax*1+0x0]
b17f:	00
b180:	4d 89 e6             	mov    r14,r12
b183:	e9 6c f6 ff ff       	jmp    a7f4 <vasnprintf+0x2a4>
b188:	0f 1f 84 00 00 00 00 	nop    DWORD PTR [rax+rax*1+0x0]
b18f:	00
b190:	4c 89 30             	mov    QWORD PTR [rax],r14
b193:	4c 89 f3             	mov    rbx,r14
b196:	e9 49 fe ff ff       	jmp    afe4 <vasnprintf+0xa94>
b19b:	e8 e0 68 ff ff       	call   1a80 <__errno_location@plt>
b1a0:	48 89 85 38 fc ff ff 	mov    QWORD PTR [rbp-0x3c8],rax
b1a7:	66 0f 1f 84 00 00 00 	nop    WORD PTR [rax+rax*1+0x0]
b1ae:	00 00
b1b0:	4c 89 ff             	mov    rdi,r15
b1b3:	e8 a8 68 ff ff       	call   1a60 <free@plt>
b1b8:	e9 16 f5 ff ff       	jmp    a6d3 <vasnprintf+0x183>
b1bd:	0f 1f 00             	nop    DWORD PTR [rax]
b1c0:	4c 8b 8d 10 fc ff ff 	mov    r9,QWORD PTR [rbp-0x3f0]
b1c7:	4c 8b 85 28 fc ff ff 	mov    r8,QWORD PTR [rbp-0x3d8]
b1ce:	4c 89 d6             	mov    rsi,r10
b1d1:	48 c7 c1 ff ff ff ff 	mov    rcx,0xffffffffffffffff
b1d8:	ba 01 00 00 00       	mov    edx,0x1
b1dd:	b8 01 00 00 00       	mov    eax,0x1
b1e2:	4c 89 95 d0 fb ff ff 	mov    QWORD PTR [rbp-0x430],r10
b1e9:	e8 52 68 ff ff       	call   1a40 <__snprintf_chk@plt>
b1ee:	4c 8b 95 d0 fb ff ff 	mov    r10,QWORD PTR [rbp-0x430]
b1f5:	e9 1c f9 ff ff       	jmp    ab16 <vasnprintf+0x5c6>
b1fa:	66 0f 1f 44 00 00    	nop    WORD PTR [rax+rax*1+0x0]
b200:	48 83 ec 10          	sub    rsp,0x10
b204:	4c 8b 8d 10 fc ff ff 	mov    r9,QWORD PTR [rbp-0x3f0]
b20b:	db 3c 24             	fstp   TBYTE PTR [rsp]
b20e:	e9 d6 f8 ff ff       	jmp    aae9 <vasnprintf+0x599>
b213:	0f 1f 44 00 00       	nop    DWORD PTR [rax+rax*1+0x0]
b218:	0f 88 97 f4 ff ff    	js     a6b5 <vasnprintf+0x165>
b21e:	4d 01 e4             	add    r12,r12
b221:	49 39 c4             	cmp    r12,rax
b224:	0f 83 df f7 ff ff    	jae    aa09 <vasnprintf+0x4b9>
b22a:	66 0f 1f 44 00 00    	nop    WORD PTR [rax+rax*1+0x0]
b230:	48 85 d2             	test   rdx,rdx
b233:	0f 85 7c f4 ff ff    	jne    a6b5 <vasnprintf+0x165>
b239:	48 83 f8 ff          	cmp    rax,0xffffffffffffffff
b23d:	0f 84 72 f4 ff ff    	je     a6b5 <vasnprintf+0x165>
b243:	4c 3b bd 18 fc ff ff 	cmp    r15,QWORD PTR [rbp-0x3e8]
b24a:	49 89 c4             	mov    r12,rax
b24d:	0f 94 c2             	sete   dl
b250:	4d 85 ff             	test   r15,r15
b253:	0f 85 c3 f7 ff ff    	jne    aa1c <vasnprintf+0x4cc>
b259:	0f 1f 80 00 00 00 00 	nop    DWORD PTR [rax+0x0]
b260:	4c 89 e7             	mov    rdi,r12
b263:	88 95 38 fc ff ff    	mov    BYTE PTR [rbp-0x3c8],dl
b269:	e8 92 6a ff ff       	call   1d00 <malloc@plt>
b26e:	48 85 c0             	test   rax,rax
b271:	48 89 c1             	mov    rcx,rax
b274:	0f b6 95 38 fc ff ff 	movzx  edx,BYTE PTR [rbp-0x3c8]
b27b:	0f 84 34 f4 ff ff    	je     a6b5 <vasnprintf+0x165>
b281:	4d 85 f6             	test   r14,r14
b284:	0f 84 96 01 00 00    	je     b420 <vasnprintf+0xed0>
b28a:	84 d2                	test   dl,dl
b28c:	0f 84 8e 01 00 00    	je     b420 <vasnprintf+0xed0>
b292:	4c 89 fe             	mov    rsi,r15
b295:	4c 89 f2             	mov    rdx,r14
b298:	48 89 c7             	mov    rdi,rax
b29b:	e8 40 6a ff ff       	call   1ce0 <memcpy@plt>
b2a0:	49 89 c7             	mov    r15,rax
b2a3:	e9 93 f7 ff ff       	jmp    aa3b <vasnprintf+0x4eb>
b2a8:	0f 1f 84 00 00 00 00 	nop    DWORD PTR [rax+rax*1+0x0]
b2af:	00
b2b0:	c6 03 4c             	mov    BYTE PTR [rbx],0x4c
b2b3:	48 83 c3 01          	add    rbx,0x1
b2b7:	e9 af f6 ff ff       	jmp    a96b <vasnprintf+0x41b>
b2bc:	0f 1f 40 00          	nop    DWORD PTR [rax+0x0]
b2c0:	44 88 30             	mov    BYTE PTR [rax],r14b
b2c3:	4c 89 f3             	mov    rbx,r14
b2c6:	e9 19 fd ff ff       	jmp    afe4 <vasnprintf+0xa94>
b2cb:	0f 1f 44 00 00       	nop    DWORD PTR [rax+rax*1+0x0]
b2d0:	44 89 30             	mov    DWORD PTR [rax],r14d
b2d3:	4c 89 f3             	mov    rbx,r14
b2d6:	e9 09 fd ff ff       	jmp    afe4 <vasnprintf+0xa94>
b2db:	0f 1f 44 00 00       	nop    DWORD PTR [rax+rax*1+0x0]
b2e0:	66 44 89 30          	mov    WORD PTR [rax],r14w
b2e4:	4c 89 f3             	mov    rbx,r14
b2e7:	e9 f8 fc ff ff       	jmp    afe4 <vasnprintf+0xa94>
b2ec:	0f 1f 40 00          	nop    DWORD PTR [rax+0x0]
b2f0:	4c 89 e7             	mov    rdi,r12
b2f3:	88 95 38 fc ff ff    	mov    BYTE PTR [rbp-0x3c8],dl
b2f9:	e8 02 6a ff ff       	call   1d00 <malloc@plt>
b2fe:	48 85 c0             	test   rax,rax
b301:	48 89 c1             	mov    rcx,rax
b304:	0f b6 95 38 fc ff ff 	movzx  edx,BYTE PTR [rbp-0x3c8]
b30b:	0f 84 a4 f3 ff ff    	je     a6b5 <vasnprintf+0x165>
b311:	4d 85 f6             	test   r14,r14
b314:	0f 84 3a 01 00 00    	je     b454 <vasnprintf+0xf04>
b31a:	84 d2                	test   dl,dl
b31c:	0f 84 32 01 00 00    	je     b454 <vasnprintf+0xf04>
b322:	4c 89 fe             	mov    rsi,r15
b325:	4c 89 f2             	mov    rdx,r14
b328:	48 89 c7             	mov    rdi,rax
b32b:	e8 b0 69 ff ff       	call   1ce0 <memcpy@plt>
b330:	49 89 c7             	mov    r15,rax
b333:	e9 a7 fc ff ff       	jmp    afdf <vasnprintf+0xa8f>
b338:	0f 1f 84 00 00 00 00 	nop    DWORD PTR [rax+rax*1+0x0]
b33f:	00
b340:	4d 89 cf             	mov    r15,r9
b343:	e9 ac f4 ff ff       	jmp    a7f4 <vasnprintf+0x2a4>
b348:	0f 1f 84 00 00 00 00 	nop    DWORD PTR [rax+rax*1+0x0]
b34f:	00
b350:	48 83 ec 08          	sub    rsp,0x8
b354:	ff b5 10 fc ff ff    	push   QWORD PTR [rbp-0x3f0]
b35a:	e9 76 fa ff ff       	jmp    add5 <vasnprintf+0x885>
b35f:	90                   	nop
b360:	48 83 ec 08          	sub    rsp,0x8
b364:	ff b5 10 fc ff ff    	push   QWORD PTR [rbp-0x3f0]
b36a:	48 83 ec 10          	sub    rsp,0x10
b36e:	db 3c 24             	fstp   TBYTE PTR [rsp]
b371:	e9 25 fb ff ff       	jmp    ae9b <vasnprintf+0x94b>
b376:	66 2e 0f 1f 84 00 00 	nop    WORD PTR cs:[rax+rax*1+0x0]
b37d:	00 00 00
b380:	48 8b 85 38 fc ff ff 	mov    rax,QWORD PTR [rbp-0x3c8]
b387:	8b bd dc fb ff ff    	mov    edi,DWORD PTR [rbp-0x424]
b38d:	48 63 d9             	movsxd rbx,ecx
b390:	4c 01 f3             	add    rbx,r14
b393:	89 38                	mov    DWORD PTR [rax],edi
b395:	e9 4a fc ff ff       	jmp    afe4 <vasnprintf+0xa94>
b39a:	66 0f 1f 44 00 00    	nop    WORD PTR [rax+rax*1+0x0]
b3a0:	4c 3b bd 18 fc ff ff 	cmp    r15,QWORD PTR [rbp-0x3e8]
b3a7:	74 09                	je     b3b2 <vasnprintf+0xe62>
b3a9:	4d 85 ff             	test   r15,r15
b3ac:	0f 85 b7 00 00 00    	jne    b469 <vasnprintf+0xf19>
b3b2:	48 8b 85 e0 fb ff ff 	mov    rax,QWORD PTR [rbp-0x420]
b3b9:	48 85 c0             	test   rax,rax
b3bc:	74 08                	je     b3c6 <vasnprintf+0xe76>
b3be:	48 89 c7             	mov    rdi,rax
b3c1:	e8 9a 66 ff ff       	call   1a60 <free@plt>
b3c6:	48 8b 85 f8 fb ff ff 	mov    rax,QWORD PTR [rbp-0x408]
b3cd:	48 8b bd 48 fd ff ff 	mov    rdi,QWORD PTR [rbp-0x2b8]
b3d4:	48 83 c0 20          	add    rax,0x20
b3d8:	48 39 c7             	cmp    rdi,rax
b3db:	74 05                	je     b3e2 <vasnprintf+0xe92>
b3dd:	e8 7e 66 ff ff       	call   1a60 <free@plt>
b3e2:	48 8b 85 f0 fb ff ff 	mov    rax,QWORD PTR [rbp-0x410]
b3e9:	48 8b bd 58 fc ff ff 	mov    rdi,QWORD PTR [rbp-0x3a8]
b3f0:	48 83 c0 10          	add    rax,0x10
b3f4:	48 39 c7             	cmp    rdi,rax
b3f7:	74 05                	je     b3fe <vasnprintf+0xeae>
b3f9:	e8 62 66 ff ff       	call   1a60 <free@plt>
b3fe:	48 8b 85 38 fc ff ff 	mov    rax,QWORD PTR [rbp-0x3c8]
b405:	45 31 ff             	xor    r15d,r15d
b408:	c7 00 4b 00 00 00    	mov    DWORD PTR [rax],0x4b
b40e:	e9 1c f3 ff ff       	jmp    a72f <vasnprintf+0x1df>
b413:	0f 1f 44 00 00       	nop    DWORD PTR [rax+rax*1+0x0]
b418:	45 31 ff             	xor    r15d,r15d
b41b:	e9 0f f3 ff ff       	jmp    a72f <vasnprintf+0x1df>
b420:	49 89 cf             	mov    r15,rcx
b423:	e9 13 f6 ff ff       	jmp    aa3b <vasnprintf+0x4eb>
b428:	0f 1f 84 00 00 00 00 	nop    DWORD PTR [rax+rax*1+0x0]
b42f:	00
b430:	0f 88 7f f2 ff ff    	js     a6b5 <vasnprintf+0x165>
b436:	4d 01 e4             	add    r12,r12
b439:	49 39 c4             	cmp    r12,rax
b43c:	0f 83 34 fc ff ff    	jae    b076 <vasnprintf+0xb26>
b442:	48 83 f8 ff          	cmp    rax,0xffffffffffffffff
b446:	0f 84 69 f2 ff ff    	je     a6b5 <vasnprintf+0x165>
b44c:	49 89 c4             	mov    r12,rax
b44f:	e9 22 fc ff ff       	jmp    b076 <vasnprintf+0xb26>
b454:	49 89 cf             	mov    r15,rcx
b457:	e9 83 fb ff ff       	jmp    afdf <vasnprintf+0xa8f>
b45c:	4c 89 ff             	mov    rdi,r15
b45f:	e8 fc 65 ff ff       	call   1a60 <free@plt>
b464:	e9 49 f8 ff ff       	jmp    acb2 <vasnprintf+0x762>
b469:	4c 89 ff             	mov    rdi,r15
b46c:	e8 ef 65 ff ff       	call   1a60 <free@plt>
b471:	e9 3c ff ff ff       	jmp    b3b2 <vasnprintf+0xe62>
b476:	e8 f5 65 ff ff       	call   1a70 <abort@plt>
b47b:	0f 1f 44 00 00       	nop    DWORD PTR [rax+rax*1+0x0]
b480:	48 8b 85 f8 fb ff ff 	mov    rax,QWORD PTR [rbp-0x408]
b487:	48 8b bd 48 fd ff ff 	mov    rdi,QWORD PTR [rbp-0x2b8]
b48e:	48 83 c0 20          	add    rax,0x20
b492:	48 39 c7             	cmp    rdi,rax
b495:	74 05                	je     b49c <vasnprintf+0xf4c>
b497:	e8 c4 65 ff ff       	call   1a60 <free@plt>
b49c:	48 8b 85 f0 fb ff ff 	mov    rax,QWORD PTR [rbp-0x410]
b4a3:	48 8b bd 58 fc ff ff 	mov    rdi,QWORD PTR [rbp-0x3a8]
b4aa:	48 83 c0 10          	add    rax,0x10
b4ae:	48 39 c7             	cmp    rdi,rax
b4b1:	74 05                	je     b4b8 <vasnprintf+0xf68>
b4b3:	e8 a8 65 ff ff       	call   1a60 <free@plt>
b4b8:	e8 c3 65 ff ff       	call   1a80 <__errno_location@plt>
b4bd:	45 31 ff             	xor    r15d,r15d
b4c0:	c7 00 16 00 00 00    	mov    DWORD PTR [rax],0x16
b4c6:	e9 64 f2 ff ff       	jmp    a72f <vasnprintf+0x1df>
b4cb:	4c 89 f3             	mov    rbx,r14
b4ce:	31 c0                	xor    eax,eax
b4d0:	48 83 c3 01          	add    rbx,0x1
b4d4:	0f 82 06 01 00 00    	jb     b5e0 <vasnprintf+0x1090>
b4da:	49 39 dc             	cmp    r12,rbx
b4dd:	73 4d                	jae    b52c <vasnprintf+0xfdc>
b4df:	4d 85 e4             	test   r12,r12
b4e2:	0f 85 31 01 00 00    	jne    b619 <vasnprintf+0x10c9>
b4e8:	48 83 fb 0c          	cmp    rbx,0xc
b4ec:	0f 87 0c 01 00 00    	ja     b5fe <vasnprintf+0x10ae>
b4f2:	41 bc 0c 00 00 00    	mov    r12d,0xc
b4f8:	4c 3b bd 18 fc ff ff 	cmp    r15,QWORD PTR [rbp-0x3e8]
b4ff:	41 0f 94 c5          	sete   r13b
b503:	4d 85 ff             	test   r15,r15
b506:	0f 84 a0 00 00 00    	je     b5ac <vasnprintf+0x105c>
b50c:	45 84 ed             	test   r13b,r13b
b50f:	0f 85 97 00 00 00    	jne    b5ac <vasnprintf+0x105c>
b515:	4c 89 e6             	mov    rsi,r12
b518:	4c 89 ff             	mov    rdi,r15
b51b:	e8 30 68 ff ff       	call   1d50 <realloc@plt>
b520:	48 85 c0             	test   rax,rax
b523:	0f 84 72 fc ff ff    	je     b19b <vasnprintf+0xc4b>
b529:	49 89 c7             	mov    r15,rax
b52c:	4c 3b bd 18 fc ff ff 	cmp    r15,QWORD PTR [rbp-0x3e8]
b533:	43 c6 04 37 00       	mov    BYTE PTR [r15+r14*1],0x0
b538:	74 17                	je     b551 <vasnprintf+0x1001>
b53a:	49 39 dc             	cmp    r12,rbx
b53d:	76 12                	jbe    b551 <vasnprintf+0x1001>
b53f:	4c 89 ff             	mov    rdi,r15
b542:	48 89 de             	mov    rsi,rbx
b545:	e8 06 68 ff ff       	call   1d50 <realloc@plt>
b54a:	48 85 c0             	test   rax,rax
b54d:	4c 0f 45 f8          	cmovne r15,rax
b551:	48 8b 85 e0 fb ff ff 	mov    rax,QWORD PTR [rbp-0x420]
b558:	48 85 c0             	test   rax,rax
b55b:	74 08                	je     b565 <vasnprintf+0x1015>
b55d:	48 89 c7             	mov    rdi,rax
b560:	e8 fb 64 ff ff       	call   1a60 <free@plt>
b565:	48 8b 85 f8 fb ff ff 	mov    rax,QWORD PTR [rbp-0x408]
b56c:	48 8b bd 48 fd ff ff 	mov    rdi,QWORD PTR [rbp-0x2b8]
b573:	48 83 c0 20          	add    rax,0x20
b577:	48 39 c7             	cmp    rdi,rax
b57a:	74 05                	je     b581 <vasnprintf+0x1031>
b57c:	e8 df 64 ff ff       	call   1a60 <free@plt>
b581:	48 8b 85 f0 fb ff ff 	mov    rax,QWORD PTR [rbp-0x410]
b588:	48 8b bd 58 fc ff ff 	mov    rdi,QWORD PTR [rbp-0x3a8]
b58f:	48 83 c0 10          	add    rax,0x10
b593:	48 39 c7             	cmp    rdi,rax
b596:	74 05                	je     b59d <vasnprintf+0x104d>
b598:	e8 c3 64 ff ff       	call   1a60 <free@plt>
b59d:	48 8b 85 e8 fb ff ff 	mov    rax,QWORD PTR [rbp-0x418]
b5a4:	4c 89 30             	mov    QWORD PTR [rax],r14
b5a7:	e9 83 f1 ff ff       	jmp    a72f <vasnprintf+0x1df>
b5ac:	4c 89 e7             	mov    rdi,r12
b5af:	e8 4c 67 ff ff       	call   1d00 <malloc@plt>
b5b4:	48 85 c0             	test   rax,rax
b5b7:	48 89 c1             	mov    rcx,rax
b5ba:	0f 84 f5 f0 ff ff    	je     a6b5 <vasnprintf+0x165>
b5c0:	4d 85 f6             	test   r14,r14
b5c3:	74 6b                	je     b630 <vasnprintf+0x10e0>
b5c5:	45 84 ed             	test   r13b,r13b
b5c8:	74 66                	je     b630 <vasnprintf+0x10e0>
b5ca:	4c 89 fe             	mov    rsi,r15
b5cd:	4c 89 f2             	mov    rdx,r14
b5d0:	48 89 c7             	mov    rdi,rax
b5d3:	e8 08 67 ff ff       	call   1ce0 <memcpy@plt>
b5d8:	49 89 c7             	mov    r15,rax
b5db:	e9 4c ff ff ff       	jmp    b52c <vasnprintf+0xfdc>
b5e0:	49 83 fc ff          	cmp    r12,0xffffffffffffffff
b5e4:	b8 01 00 00 00       	mov    eax,0x1
b5e9:	0f 84 3d ff ff ff    	je     b52c <vasnprintf+0xfdc>
b5ef:	4d 85 e4             	test   r12,r12
b5f2:	0f 84 bd f0 ff ff    	je     a6b5 <vasnprintf+0x165>
b5f8:	0f 88 b7 f0 ff ff    	js     a6b5 <vasnprintf+0x165>
b5fe:	48 85 c0             	test   rax,rax
b601:	0f 85 ae f0 ff ff    	jne    a6b5 <vasnprintf+0x165>
b607:	48 83 fb ff          	cmp    rbx,0xffffffffffffffff
b60b:	0f 84 a4 f0 ff ff    	je     a6b5 <vasnprintf+0x165>
b611:	49 89 dc             	mov    r12,rbx
b614:	e9 df fe ff ff       	jmp    b4f8 <vasnprintf+0xfa8>
b619:	0f 88 96 f0 ff ff    	js     a6b5 <vasnprintf+0x165>
b61f:	4d 01 e4             	add    r12,r12
b622:	49 39 dc             	cmp    r12,rbx
b625:	0f 83 cd fe ff ff    	jae    b4f8 <vasnprintf+0xfa8>
b62b:	eb d1                	jmp    b5fe <vasnprintf+0x10ae>
b62d:	0f 1f 00             	nop    DWORD PTR [rax]
b630:	49 89 cf             	mov    r15,rcx
b633:	e9 f4 fe ff ff       	jmp    b52c <vasnprintf+0xfdc>
b638:	49 83 fc ff          	cmp    r12,0xffffffffffffffff
b63c:	0f 84 1e f4 ff ff    	je     aa60 <vasnprintf+0x510>
b642:	e9 7a f0 ff ff       	jmp    a6c1 <vasnprintf+0x171>
b647:	e8 44 65 ff ff       	call   1b90 <__stack_chk_fail@plt>
b64c:	49 83 fc ff          	cmp    r12,0xffffffffffffffff
b650:	ba 01 00 00 00       	mov    edx,0x1
b655:	0f 84 e0 f3 ff ff    	je     aa3b <vasnprintf+0x4eb>
b65b:	4d 85 e4             	test   r12,r12
b65e:	0f 84 51 f0 ff ff    	je     a6b5 <vasnprintf+0x165>
b664:	0f 89 c6 fb ff ff    	jns    b230 <vasnprintf+0xce0>
b66a:	e9 46 f0 ff ff       	jmp    a6b5 <vasnprintf+0x165>
b66f:	90                   	nop

000000000000b670 <printf_fetchargs>:
b670:	48 83 3e 00          	cmp    QWORD PTR [rsi],0x0
b674:	48 8b 46 08          	mov    rax,QWORD PTR [rsi+0x8]
b678:	74 63                	je     b6dd <printf_fetchargs+0x6d>
b67a:	4c 8d 05 3f 36 00 00 	lea    r8,[rip+0x363f]        # ecc0 <__PRETTY_FUNCTION__.4162+0xe0>
b681:	4c 8d 15 98 36 00 00 	lea    r10,[rip+0x3698]        # ed20 <wide_null_string.2696>
b688:	4c 8d 0d 1d 36 00 00 	lea    r9,[rip+0x361d]        # ecac <__PRETTY_FUNCTION__.4162+0xcc>
b68f:	31 c9                	xor    ecx,ecx
b691:	0f 1f 80 00 00 00 00 	nop    DWORD PTR [rax+0x0]
b698:	83 38 16             	cmp    DWORD PTR [rax],0x16
b69b:	77 43                	ja     b6e0 <printf_fetchargs+0x70>
b69d:	8b 10                	mov    edx,DWORD PTR [rax]
b69f:	49 63 14 90          	movsxd rdx,DWORD PTR [r8+rdx*4]
b6a3:	4c 01 c2             	add    rdx,r8
b6a6:	ff e2                	jmp    rdx
b6a8:	0f 1f 84 00 00 00 00 	nop    DWORD PTR [rax+rax*1+0x0]
b6af:	00
b6b0:	48 8b 57 08          	mov    rdx,QWORD PTR [rdi+0x8]
b6b4:	48 83 c2 0f          	add    rdx,0xf
b6b8:	48 83 e2 f0          	and    rdx,0xfffffffffffffff0
b6bc:	4c 8d 5a 10          	lea    r11,[rdx+0x10]
b6c0:	4c 89 5f 08          	mov    QWORD PTR [rdi+0x8],r11
b6c4:	db 2a                	fld    TBYTE PTR [rdx]
b6c6:	db 78 10             	fstp   TBYTE PTR [rax+0x10]
b6c9:	0f 1f 80 00 00 00 00 	nop    DWORD PTR [rax+0x0]
b6d0:	48 83 c1 01          	add    rcx,0x1
b6d4:	48 83 c0 20          	add    rax,0x20
b6d8:	48 39 0e             	cmp    QWORD PTR [rsi],rcx
b6db:	77 bb                	ja     b698 <printf_fetchargs+0x28>
b6dd:	31 c0                	xor    eax,eax
b6df:	c3                   	ret
b6e0:	b8 ff ff ff ff       	mov    eax,0xffffffff
b6e5:	c3                   	ret
b6e6:	44 8b 1f             	mov    r11d,DWORD PTR [rdi]
b6e9:	41 83 fb 2f          	cmp    r11d,0x2f
b6ed:	0f 87 37 01 00 00    	ja     b82a <printf_fetchargs+0x1ba>
b6f3:	44 89 da             	mov    edx,r11d
b6f6:	48 03 57 10          	add    rdx,QWORD PTR [rdi+0x10]
b6fa:	41 83 c3 08          	add    r11d,0x8
b6fe:	44 89 1f             	mov    DWORD PTR [rdi],r11d
b701:	48 8b 12             	mov    rdx,QWORD PTR [rdx]
b704:	48 89 50 10          	mov    QWORD PTR [rax+0x10],rdx
b708:	eb c6                	jmp    b6d0 <printf_fetchargs+0x60>
b70a:	44 8b 1f             	mov    r11d,DWORD PTR [rdi]
b70d:	41 83 fb 2f          	cmp    r11d,0x2f
b711:	0f 87 35 01 00 00    	ja     b84c <printf_fetchargs+0x1dc>
b717:	44 89 da             	mov    edx,r11d
b71a:	48 03 57 10          	add    rdx,QWORD PTR [rdi+0x10]
b71e:	41 83 c3 08          	add    r11d,0x8
b722:	44 89 1f             	mov    DWORD PTR [rdi],r11d
b725:	8b 12                	mov    edx,DWORD PTR [rdx]
b727:	89 50 10             	mov    DWORD PTR [rax+0x10],edx
b72a:	eb a4                	jmp    b6d0 <printf_fetchargs+0x60>
b72c:	44 8b 1f             	mov    r11d,DWORD PTR [rdi]
b72f:	41 83 fb 2f          	cmp    r11d,0x2f
b733:	0f 87 02 01 00 00    	ja     b83b <printf_fetchargs+0x1cb>
b739:	44 89 da             	mov    edx,r11d
b73c:	48 03 57 10          	add    rdx,QWORD PTR [rdi+0x10]
b740:	41 83 c3 08          	add    r11d,0x8
b744:	44 89 1f             	mov    DWORD PTR [rdi],r11d
b747:	8b 12                	mov    edx,DWORD PTR [rdx]
b749:	88 50 10             	mov    BYTE PTR [rax+0x10],dl
b74c:	eb 82                	jmp    b6d0 <printf_fetchargs+0x60>
b74e:	44 8b 1f             	mov    r11d,DWORD PTR [rdi]
b751:	41 83 fb 2f          	cmp    r11d,0x2f
b755:	0f 87 9f 00 00 00    	ja     b7fa <printf_fetchargs+0x18a>
b75b:	44 89 da             	mov    edx,r11d
b75e:	48 03 57 10          	add    rdx,QWORD PTR [rdi+0x10]
b762:	41 83 c3 08          	add    r11d,0x8
b766:	44 89 1f             	mov    DWORD PTR [rdi],r11d
b769:	8b 12                	mov    edx,DWORD PTR [rdx]
b76b:	66 89 50 10          	mov    WORD PTR [rax+0x10],dx
b76f:	e9 5c ff ff ff       	jmp    b6d0 <printf_fetchargs+0x60>
b774:	44 8b 1f             	mov    r11d,DWORD PTR [rdi]
b777:	41 83 fb 2f          	cmp    r11d,0x2f
b77b:	0f 87 8a 00 00 00    	ja     b80b <printf_fetchargs+0x19b>
b781:	44 89 da             	mov    edx,r11d
b784:	48 03 57 10          	add    rdx,QWORD PTR [rdi+0x10]
b788:	41 83 c3 08          	add    r11d,0x8
b78c:	44 89 1f             	mov    DWORD PTR [rdi],r11d
b78f:	48 8b 12             	mov    rdx,QWORD PTR [rdx]
b792:	48 85 d2             	test   rdx,rdx
b795:	49 0f 44 d1          	cmove  rdx,r9
b799:	48 89 50 10          	mov    QWORD PTR [rax+0x10],rdx
b79d:	e9 2e ff ff ff       	jmp    b6d0 <printf_fetchargs+0x60>
b7a2:	44 8b 5f 04          	mov    r11d,DWORD PTR [rdi+0x4]
b7a6:	41 81 fb af 00 00 00 	cmp    r11d,0xaf
b7ad:	0f 87 aa 00 00 00    	ja     b85d <printf_fetchargs+0x1ed>
b7b3:	44 89 da             	mov    edx,r11d
b7b6:	48 03 57 10          	add    rdx,QWORD PTR [rdi+0x10]
b7ba:	41 83 c3 10          	add    r11d,0x10
b7be:	44 89 5f 04          	mov    DWORD PTR [rdi+0x4],r11d
b7c2:	f2 0f 10 02          	movsd  xmm0,QWORD PTR [rdx]
b7c6:	f2 0f 11 40 10       	movsd  QWORD PTR [rax+0x10],xmm0
b7cb:	e9 00 ff ff ff       	jmp    b6d0 <printf_fetchargs+0x60>
b7d0:	44 8b 1f             	mov    r11d,DWORD PTR [rdi]
b7d3:	41 83 fb 2f          	cmp    r11d,0x2f
b7d7:	77 43                	ja     b81c <printf_fetchargs+0x1ac>
b7d9:	44 89 da             	mov    edx,r11d
b7dc:	48 03 57 10          	add    rdx,QWORD PTR [rdi+0x10]
b7e0:	41 83 c3 08          	add    r11d,0x8
b7e4:	44 89 1f             	mov    DWORD PTR [rdi],r11d
b7e7:	48 8b 12             	mov    rdx,QWORD PTR [rdx]
b7ea:	48 85 d2             	test   rdx,rdx
b7ed:	49 0f 44 d2          	cmove  rdx,r10
b7f1:	48 89 50 10          	mov    QWORD PTR [rax+0x10],rdx
b7f5:	e9 d6 fe ff ff       	jmp    b6d0 <printf_fetchargs+0x60>
b7fa:	48 8b 57 08          	mov    rdx,QWORD PTR [rdi+0x8]
b7fe:	4c 8d 5a 08          	lea    r11,[rdx+0x8]
b802:	4c 89 5f 08          	mov    QWORD PTR [rdi+0x8],r11
b806:	e9 5e ff ff ff       	jmp    b769 <printf_fetchargs+0xf9>
b80b:	48 8b 57 08          	mov    rdx,QWORD PTR [rdi+0x8]
b80f:	4c 8d 5a 08          	lea    r11,[rdx+0x8]
b813:	4c 89 5f 08          	mov    QWORD PTR [rdi+0x8],r11
b817:	e9 73 ff ff ff       	jmp    b78f <printf_fetchargs+0x11f>
b81c:	48 8b 57 08          	mov    rdx,QWORD PTR [rdi+0x8]
b820:	4c 8d 5a 08          	lea    r11,[rdx+0x8]
b824:	4c 89 5f 08          	mov    QWORD PTR [rdi+0x8],r11
b828:	eb bd                	jmp    b7e7 <printf_fetchargs+0x177>
b82a:	48 8b 57 08          	mov    rdx,QWORD PTR [rdi+0x8]
b82e:	4c 8d 5a 08          	lea    r11,[rdx+0x8]
b832:	4c 89 5f 08          	mov    QWORD PTR [rdi+0x8],r11
b836:	e9 c6 fe ff ff       	jmp    b701 <printf_fetchargs+0x91>
b83b:	48 8b 57 08          	mov    rdx,QWORD PTR [rdi+0x8]
b83f:	4c 8d 5a 08          	lea    r11,[rdx+0x8]
b843:	4c 89 5f 08          	mov    QWORD PTR [rdi+0x8],r11
b847:	e9 fb fe ff ff       	jmp    b747 <printf_fetchargs+0xd7>
b84c:	48 8b 57 08          	mov    rdx,QWORD PTR [rdi+0x8]
b850:	4c 8d 5a 08          	lea    r11,[rdx+0x8]
b854:	4c 89 5f 08          	mov    QWORD PTR [rdi+0x8],r11
b858:	e9 c8 fe ff ff       	jmp    b725 <printf_fetchargs+0xb5>
b85d:	48 8b 57 08          	mov    rdx,QWORD PTR [rdi+0x8]
b861:	4c 8d 5a 08          	lea    r11,[rdx+0x8]
b865:	4c 89 5f 08          	mov    QWORD PTR [rdi+0x8],r11
b869:	e9 54 ff ff ff       	jmp    b7c2 <printf_fetchargs+0x152>
b86e:	66 90                	xchg   ax,ax

000000000000b870 <printf_parse>:
b870:	41 57                	push   r15
b872:	41 56                	push   r14
b874:	48 8d 4e 20          	lea    rcx,[rsi+0x20]
b878:	41 55                	push   r13
b87a:	41 54                	push   r12
b87c:	48 8d 42 10          	lea    rax,[rdx+0x10]
b880:	55                   	push   rbp
b881:	53                   	push   rbx
b882:	49 89 f6             	mov    r14,rsi
b885:	49 89 d7             	mov    r15,rdx
b888:	31 db                	xor    ebx,ebx
b88a:	41 b9 07 00 00 00    	mov    r9d,0x7
b890:	48 83 ec 58          	sub    rsp,0x58
b894:	41 ba 07 00 00 00    	mov    r10d,0x7
b89a:	48 c7 06 00 00 00 00 	mov    QWORD PTR [rsi],0x0
b8a1:	48 89 4e 08          	mov    QWORD PTR [rsi+0x8],rcx
b8a5:	48 89 4c 24 28       	mov    QWORD PTR [rsp+0x28],rcx
b8aa:	49 c7 c0 ff ff ff ff 	mov    r8,0xffffffffffffffff
b8b1:	48 c7 02 00 00 00 00 	mov    QWORD PTR [rdx],0x0
b8b8:	48 89 44 24 08       	mov    QWORD PTR [rsp+0x8],rax
b8bd:	48 89 42 08          	mov    QWORD PTR [rdx+0x8],rax
b8c1:	48 c7 44 24 18 00 00 	mov    QWORD PTR [rsp+0x18],0x0
b8c8:	00 00
b8ca:	48 c7 44 24 10 00 00 	mov    QWORD PTR [rsp+0x10],0x0
b8d1:	00 00
b8d3:	48 c7 44 24 20 00 00 	mov    QWORD PTR [rsp+0x20],0x0
b8da:	00 00
b8dc:	eb 0d                	jmp    b8eb <printf_parse+0x7b>
b8de:	66 90                	xchg   ax,ax
b8e0:	3c 25                	cmp    al,0x25
b8e2:	48 8d 6f 01          	lea    rbp,[rdi+0x1]
b8e6:	74 40                	je     b928 <printf_parse+0xb8>
b8e8:	48 89 ef             	mov    rdi,rbp
b8eb:	0f b6 07             	movzx  eax,BYTE PTR [rdi]
b8ee:	84 c0                	test   al,al
b8f0:	75 ee                	jne    b8e0 <printf_parse+0x70>
b8f2:	48 8d 04 9b          	lea    rax,[rbx+rbx*4]
b8f6:	48 8d 04 43          	lea    rax,[rbx+rax*2]
b8fa:	48 89 3c c1          	mov    QWORD PTR [rcx+rax*8],rdi
b8fe:	48 8b 44 24 10       	mov    rax,QWORD PTR [rsp+0x10]
b903:	49 89 46 10          	mov    QWORD PTR [r14+0x10],rax
b907:	48 8b 44 24 18       	mov    rax,QWORD PTR [rsp+0x18]
b90c:	49 89 46 18          	mov    QWORD PTR [r14+0x18],rax
b910:	31 c0                	xor    eax,eax
b912:	48 83 c4 58          	add    rsp,0x58
b916:	5b                   	pop    rbx
b917:	5d                   	pop    rbp
b918:	41 5c                	pop    r12
b91a:	41 5d                	pop    r13
b91c:	41 5e                	pop    r14
b91e:	41 5f                	pop    r15
b920:	c3                   	ret
b921:	0f 1f 80 00 00 00 00 	nop    DWORD PTR [rax+0x0]
b928:	48 8d 04 9b          	lea    rax,[rbx+rbx*4]
b92c:	4d 89 c5             	mov    r13,r8
b92f:	48 8d 04 43          	lea    rax,[rbx+rax*2]
b933:	4c 8d 24 c1          	lea    r12,[rcx+rax*8]
b937:	49 89 3c 24          	mov    QWORD PTR [r12],rdi
b93b:	41 c7 44 24 10 00 00 	mov    DWORD PTR [r12+0x10],0x0
b942:	00 00
b944:	49 c7 44 24 18 00 00 	mov    QWORD PTR [r12+0x18],0x0
b94b:	00 00
b94d:	49 c7 44 24 20 00 00 	mov    QWORD PTR [r12+0x20],0x0
b954:	00 00
b956:	4d 89 44 24 28       	mov    QWORD PTR [r12+0x28],r8
b95b:	49 c7 44 24 30 00 00 	mov    QWORD PTR [r12+0x30],0x0
b962:	00 00
b964:	49 c7 44 24 38 00 00 	mov    QWORD PTR [r12+0x38],0x0
b96b:	00 00
b96d:	4d 89 44 24 40       	mov    QWORD PTR [r12+0x40],r8
b972:	4d 89 44 24 50       	mov    QWORD PTR [r12+0x50],r8
b977:	0f b6 5f 01          	movzx  ebx,BYTE PTR [rdi+0x1]
b97b:	8d 43 d0             	lea    eax,[rbx-0x30]
b97e:	3c 09                	cmp    al,0x9
b980:	77 3c                	ja     b9be <printf_parse+0x14e>
b982:	e9 33 04 00 00       	jmp    bdba <printf_parse+0x54a>
b987:	66 0f 1f 84 00 00 00 	nop    WORD PTR [rax+rax*1+0x0]
b98e:	00 00
b990:	80 fb 2d             	cmp    bl,0x2d
b993:	74 43                	je     b9d8 <printf_parse+0x168>
b995:	80 fb 2b             	cmp    bl,0x2b
b998:	74 46                	je     b9e0 <printf_parse+0x170>
b99a:	80 fb 20             	cmp    bl,0x20
b99d:	74 51                	je     b9f0 <printf_parse+0x180>
b99f:	80 fb 23             	cmp    bl,0x23
b9a2:	74 5c                	je     ba00 <printf_parse+0x190>
b9a4:	80 fb 30             	cmp    bl,0x30
b9a7:	74 67                	je     ba10 <printf_parse+0x1a0>
b9a9:	80 fb 49             	cmp    bl,0x49
b9ac:	75 72                	jne    ba20 <printf_parse+0x1b0>
b9ae:	41 83 4c 24 10 40    	or     DWORD PTR [r12+0x10],0x40
b9b4:	0f 1f 40 00          	nop    DWORD PTR [rax+0x0]
b9b8:	0f b6 18             	movzx  ebx,BYTE PTR [rax]
b9bb:	48 89 c5             	mov    rbp,rax
b9be:	48 8d 45 01          	lea    rax,[rbp+0x1]
b9c2:	80 fb 27             	cmp    bl,0x27
b9c5:	48 89 c2             	mov    rdx,rax
b9c8:	75 c6                	jne    b990 <printf_parse+0x120>
b9ca:	41 83 4c 24 10 01    	or     DWORD PTR [r12+0x10],0x1
b9d0:	eb e6                	jmp    b9b8 <printf_parse+0x148>
b9d2:	66 0f 1f 44 00 00    	nop    WORD PTR [rax+rax*1+0x0]
b9d8:	41 83 4c 24 10 02    	or     DWORD PTR [r12+0x10],0x2
b9de:	eb d8                	jmp    b9b8 <printf_parse+0x148>
b9e0:	41 83 4c 24 10 04    	or     DWORD PTR [r12+0x10],0x4
b9e6:	eb d0                	jmp    b9b8 <printf_parse+0x148>
b9e8:	0f 1f 84 00 00 00 00 	nop    DWORD PTR [rax+rax*1+0x0]
b9ef:	00
b9f0:	41 83 4c 24 10 08    	or     DWORD PTR [r12+0x10],0x8
b9f6:	eb c0                	jmp    b9b8 <printf_parse+0x148>
b9f8:	0f 1f 84 00 00 00 00 	nop    DWORD PTR [rax+rax*1+0x0]
b9ff:	00
ba00:	41 83 4c 24 10 10    	or     DWORD PTR [r12+0x10],0x10
ba06:	eb b0                	jmp    b9b8 <printf_parse+0x148>
ba08:	0f 1f 84 00 00 00 00 	nop    DWORD PTR [rax+rax*1+0x0]
ba0f:	00
ba10:	41 83 4c 24 10 20    	or     DWORD PTR [r12+0x10],0x20
ba16:	eb a0                	jmp    b9b8 <printf_parse+0x148>
ba18:	0f 1f 84 00 00 00 00 	nop    DWORD PTR [rax+rax*1+0x0]
ba1f:	00
ba20:	80 fb 2a             	cmp    bl,0x2a
ba23:	0f 84 b0 01 00 00    	je     bbd9 <printf_parse+0x369>
ba29:	8d 4b d0             	lea    ecx,[rbx-0x30]
ba2c:	80 f9 09             	cmp    cl,0x9
ba2f:	0f 86 12 04 00 00    	jbe    be47 <printf_parse+0x5d7>
ba35:	80 fb 2e             	cmp    bl,0x2e
ba38:	0f 84 d1 02 00 00    	je     bd0f <printf_parse+0x49f>
ba3e:	31 c0                	xor    eax,eax
ba40:	be 01 00 00 00       	mov    esi,0x1
ba45:	eb 30                	jmp    ba77 <printf_parse+0x207>
ba47:	66 0f 1f 84 00 00 00 	nop    WORD PTR [rax+rax*1+0x0]
ba4e:	00 00
ba50:	80 fb 4c             	cmp    bl,0x4c
ba53:	74 3b                	je     ba90 <printf_parse+0x220>
ba55:	80 fb 6c             	cmp    bl,0x6c
ba58:	74 16                	je     ba70 <printf_parse+0x200>
ba5a:	80 fb 6a             	cmp    bl,0x6a
ba5d:	74 11                	je     ba70 <printf_parse+0x200>
ba5f:	89 da                	mov    edx,ebx
ba61:	83 e2 df             	and    edx,0xffffffdf
ba64:	80 fa 5a             	cmp    dl,0x5a
ba67:	74 07                	je     ba70 <printf_parse+0x200>
ba69:	80 fb 74             	cmp    bl,0x74
ba6c:	75 2a                	jne    ba98 <printf_parse+0x228>
ba6e:	66 90                	xchg   ax,ax
ba70:	83 c0 08             	add    eax,0x8
ba73:	0f b6 5d 00          	movzx  ebx,BYTE PTR [rbp+0x0]
ba77:	48 83 c5 01          	add    rbp,0x1
ba7b:	80 fb 68             	cmp    bl,0x68
ba7e:	75 d0                	jne    ba50 <printf_parse+0x1e0>
ba80:	89 c1                	mov    ecx,eax
ba82:	89 f2                	mov    edx,esi
ba84:	83 e1 01             	and    ecx,0x1
ba87:	d3 e2                	shl    edx,cl
ba89:	09 d0                	or     eax,edx
ba8b:	eb e6                	jmp    ba73 <printf_parse+0x203>
ba8d:	0f 1f 00             	nop    DWORD PTR [rax]
ba90:	83 c8 04             	or     eax,0x4
ba93:	eb de                	jmp    ba73 <printf_parse+0x203>
ba95:	0f 1f 00             	nop    DWORD PTR [rax]
ba98:	8d 53 db             	lea    edx,[rbx-0x25]
ba9b:	80 fa 53             	cmp    dl,0x53
ba9e:	0f 87 17 06 00 00    	ja     c0bb <printf_parse+0x84b>
baa4:	48 8d 0d 91 32 00 00 	lea    rcx,[rip+0x3291]        # ed3c <wide_null_string.2696+0x1c>
baab:	0f b6 d2             	movzx  edx,dl
baae:	48 63 14 91          	movsxd rdx,DWORD PTR [rcx+rdx*4]
bab2:	48 01 ca             	add    rdx,rcx
bab5:	ff e2                	jmp    rdx
bab7:	41 bb 10 00 00 00    	mov    r11d,0x10
babd:	bb 73 00 00 00       	mov    ebx,0x73
bac2:	66 0f 1f 44 00 00    	nop    WORD PTR [rax+rax*1+0x0]
bac8:	49 83 fd ff          	cmp    r13,0xffffffffffffffff
bacc:	0f 84 b5 06 00 00    	je     c187 <printf_parse+0x917>
bad2:	4d 89 6c 24 50       	mov    QWORD PTR [r12+0x50],r13
bad7:	4d 39 e9             	cmp    r9,r13
bada:	49 8b 4f 08          	mov    rcx,QWORD PTR [r15+0x8]
bade:	0f 86 1c 06 00 00    	jbe    c100 <printf_parse+0x890>
bae4:	49 8b 07             	mov    rax,QWORD PTR [r15]
bae7:	48 89 c2             	mov    rdx,rax
baea:	48 c1 e2 05          	shl    rdx,0x5
baee:	48 01 ca             	add    rdx,rcx
baf1:	4c 39 e8             	cmp    rax,r13
baf4:	77 20                	ja     bb16 <printf_parse+0x2a6>
baf6:	66 2e 0f 1f 84 00 00 	nop    WORD PTR cs:[rax+rax*1+0x0]
bafd:	00 00 00
bb00:	48 83 c0 01          	add    rax,0x1
bb04:	c7 02 00 00 00 00    	mov    DWORD PTR [rdx],0x0
bb0a:	48 83 c2 20          	add    rdx,0x20
bb0e:	4c 39 e8             	cmp    rax,r13
bb11:	76 ed                	jbe    bb00 <printf_parse+0x290>
bb13:	49 89 07             	mov    QWORD PTR [r15],rax
bb16:	49 c1 e5 05          	shl    r13,0x5
bb1a:	4a 8d 04 29          	lea    rax,[rcx+r13*1]
bb1e:	8b 10                	mov    edx,DWORD PTR [rax]
bb20:	85 d2                	test   edx,edx
bb22:	0f 85 cb 05 00 00    	jne    c0f3 <printf_parse+0x883>
bb28:	44 89 18             	mov    DWORD PTR [rax],r11d
bb2b:	41 88 5c 24 48       	mov    BYTE PTR [r12+0x48],bl
bb30:	49 8b 06             	mov    rax,QWORD PTR [r14]
bb33:	49 89 6c 24 08       	mov    QWORD PTR [r12+0x8],rbp
bb38:	48 8d 58 01          	lea    rbx,[rax+0x1]
bb3c:	49 39 da             	cmp    r10,rbx
bb3f:	49 89 1e             	mov    QWORD PTR [r14],rbx
bb42:	0f 87 88 00 00 00    	ja     bbd0 <printf_parse+0x360>
bb48:	4d 85 d2             	test   r10,r10
bb4b:	0f 88 a6 09 00 00    	js     c4f7 <printf_parse+0xc87>
bb51:	4d 01 d2             	add    r10,r10
bb54:	48 b8 ba e8 a2 8b 2e 	movabs rax,0x2e8ba2e8ba2e8ba
bb5b:	ba e8 02
bb5e:	49 39 c2             	cmp    r10,rax
bb61:	0f 87 90 09 00 00    	ja     c4f7 <printf_parse+0xc87>
bb67:	4b 8d 04 92          	lea    rax,[r10+r10*4]
bb6b:	49 8b 7e 08          	mov    rdi,QWORD PTR [r14+0x8]
bb6f:	48 39 7c 24 28       	cmp    QWORD PTR [rsp+0x28],rdi
bb74:	4c 89 4c 24 40       	mov    QWORD PTR [rsp+0x40],r9
bb79:	4c 89 54 24 38       	mov    QWORD PTR [rsp+0x38],r10
bb7e:	49 8d 04 42          	lea    rax,[r10+rax*2]
bb82:	4c 89 44 24 30       	mov    QWORD PTR [rsp+0x30],r8
bb87:	48 8d 34 c5 00 00 00 	lea    rsi,[rax*8+0x0]
bb8e:	00
bb8f:	0f 84 b8 06 00 00    	je     c24d <printf_parse+0x9dd>
bb95:	e8 b6 61 ff ff       	call   1d50 <realloc@plt>
bb9a:	48 85 c0             	test   rax,rax
bb9d:	48 89 c1             	mov    rcx,rax
bba0:	4c 8b 44 24 30       	mov    r8,QWORD PTR [rsp+0x30]
bba5:	4c 8b 54 24 38       	mov    r10,QWORD PTR [rsp+0x38]
bbaa:	4c 8b 4c 24 40       	mov    r9,QWORD PTR [rsp+0x40]
bbaf:	0f 84 42 09 00 00    	je     c4f7 <printf_parse+0xc87>
bbb5:	48 8b 44 24 28       	mov    rax,QWORD PTR [rsp+0x28]
bbba:	49 3b 46 08          	cmp    rax,QWORD PTR [r14+0x8]
bbbe:	49 8b 1e             	mov    rbx,QWORD PTR [r14]
bbc1:	0f 84 a9 06 00 00    	je     c270 <printf_parse+0xa00>
bbc7:	49 89 4e 08          	mov    QWORD PTR [r14+0x8],rcx
bbcb:	e9 18 fd ff ff       	jmp    b8e8 <printf_parse+0x78>
bbd0:	49 8b 4e 08          	mov    rcx,QWORD PTR [r14+0x8]
bbd4:	e9 0f fd ff ff       	jmp    b8e8 <printf_parse+0x78>
bbd9:	48 8b 74 24 10       	mov    rsi,QWORD PTR [rsp+0x10]
bbde:	b9 01 00 00 00       	mov    ecx,0x1
bbe3:	49 89 6c 24 18       	mov    QWORD PTR [r12+0x18],rbp
bbe8:	49 89 44 24 20       	mov    QWORD PTR [r12+0x20],rax
bbed:	48 85 f6             	test   rsi,rsi
bbf0:	48 0f 45 ce          	cmovne rcx,rsi
bbf4:	48 89 4c 24 10       	mov    QWORD PTR [rsp+0x10],rcx
bbf9:	0f b6 4d 01          	movzx  ecx,BYTE PTR [rbp+0x1]
bbfd:	8d 71 d0             	lea    esi,[rcx-0x30]
bc00:	40 80 fe 09          	cmp    sil,0x9
bc04:	0f 86 db 02 00 00    	jbe    bee5 <printf_parse+0x675>
bc0a:	48 8b 74 24 20       	mov    rsi,QWORD PTR [rsp+0x20]
bc0f:	48 83 fe ff          	cmp    rsi,0xffffffffffffffff
bc13:	48 8d 56 01          	lea    rdx,[rsi+0x1]
bc17:	49 89 74 24 28       	mov    QWORD PTR [r12+0x28],rsi
bc1c:	0f 84 99 04 00 00    	je     c0bb <printf_parse+0x84b>
bc22:	48 8b 5c 24 20       	mov    rbx,QWORD PTR [rsp+0x20]
bc27:	48 89 c5             	mov    rbp,rax
bc2a:	48 89 54 24 20       	mov    QWORD PTR [rsp+0x20],rdx
bc2f:	49 39 d9             	cmp    r9,rbx
bc32:	49 8b 4f 08          	mov    rcx,QWORD PTR [r15+0x8]
bc36:	0f 87 76 06 00 00    	ja     c2b2 <printf_parse+0xa42>
bc3c:	4d 01 c9             	add    r9,r9
bc3f:	48 8d 43 01          	lea    rax,[rbx+0x1]
bc43:	49 39 d9             	cmp    r9,rbx
bc46:	4c 0f 46 c8          	cmovbe r9,rax
bc4a:	48 b8 ff ff ff ff ff 	movabs rax,0x7ffffffffffffff
bc51:	ff ff 07
bc54:	49 39 c1             	cmp    r9,rax
bc57:	0f 87 9e 08 00 00    	ja     c4fb <printf_parse+0xc8b>
bc5d:	4c 89 ce             	mov    rsi,r9
bc60:	4c 89 4c 24 40       	mov    QWORD PTR [rsp+0x40],r9
bc65:	4c 89 54 24 38       	mov    QWORD PTR [rsp+0x38],r10
bc6a:	48 c1 e6 05          	shl    rsi,0x5
bc6e:	48 39 4c 24 08       	cmp    QWORD PTR [rsp+0x8],rcx
bc73:	4c 89 44 24 30       	mov    QWORD PTR [rsp+0x30],r8
bc78:	0f 84 13 07 00 00    	je     c391 <printf_parse+0xb21>
bc7e:	48 89 cf             	mov    rdi,rcx
bc81:	e8 ca 60 ff ff       	call   1d50 <realloc@plt>
bc86:	49 8b 57 08          	mov    rdx,QWORD PTR [r15+0x8]
bc8a:	4c 8b 44 24 30       	mov    r8,QWORD PTR [rsp+0x30]
bc8f:	48 89 c1             	mov    rcx,rax
bc92:	4c 8b 54 24 38       	mov    r10,QWORD PTR [rsp+0x38]
bc97:	4c 8b 4c 24 40       	mov    r9,QWORD PTR [rsp+0x40]
bc9c:	48 85 c9             	test   rcx,rcx
bc9f:	0f 84 b2 08 00 00    	je     c557 <printf_parse+0xce7>
bca5:	48 39 54 24 08       	cmp    QWORD PTR [rsp+0x8],rdx
bcaa:	49 8b 07             	mov    rax,QWORD PTR [r15]
bcad:	0f 84 b8 07 00 00    	je     c46b <printf_parse+0xbfb>
bcb3:	49 89 4f 08          	mov    QWORD PTR [r15+0x8],rcx
bcb7:	48 89 c2             	mov    rdx,rax
bcba:	48 c1 e2 05          	shl    rdx,0x5
bcbe:	48 01 ca             	add    rdx,rcx
bcc1:	48 39 d8             	cmp    rax,rbx
bcc4:	77 20                	ja     bce6 <printf_parse+0x476>
bcc6:	66 2e 0f 1f 84 00 00 	nop    WORD PTR cs:[rax+rax*1+0x0]
bccd:	00 00 00
bcd0:	48 83 c0 01          	add    rax,0x1
bcd4:	c7 02 00 00 00 00    	mov    DWORD PTR [rdx],0x0
bcda:	48 83 c2 20          	add    rdx,0x20
bcde:	48 39 d8             	cmp    rax,rbx
bce1:	76 ed                	jbe    bcd0 <printf_parse+0x460>
bce3:	49 89 07             	mov    QWORD PTR [r15],rax
bce6:	48 c1 e3 05          	shl    rbx,0x5
bcea:	48 8d 04 19          	lea    rax,[rcx+rbx*1]
bcee:	8b 10                	mov    edx,DWORD PTR [rax]
bcf0:	85 d2                	test   edx,edx
bcf2:	0f 85 d3 04 00 00    	jne    c1cb <printf_parse+0x95b>
bcf8:	c7 00 05 00 00 00    	mov    DWORD PTR [rax],0x5
bcfe:	0f b6 5d 00          	movzx  ebx,BYTE PTR [rbp+0x0]
bd02:	48 8d 55 01          	lea    rdx,[rbp+0x1]
bd06:	80 fb 2e             	cmp    bl,0x2e
bd09:	0f 85 2f fd ff ff    	jne    ba3e <printf_parse+0x1ce>
bd0f:	80 7d 01 2a          	cmp    BYTE PTR [rbp+0x1],0x2a
bd13:	49 89 6c 24 30       	mov    QWORD PTR [r12+0x30],rbp
bd18:	0f 85 80 01 00 00    	jne    be9e <printf_parse+0x62e>
bd1e:	48 8b 74 24 18       	mov    rsi,QWORD PTR [rsp+0x18]
bd23:	4c 8d 5d 02          	lea    r11,[rbp+0x2]
bd27:	b8 02 00 00 00       	mov    eax,0x2
bd2c:	4d 89 5c 24 38       	mov    QWORD PTR [r12+0x38],r11
bd31:	48 83 fe 02          	cmp    rsi,0x2
bd35:	48 0f 43 c6          	cmovae rax,rsi
bd39:	48 89 44 24 18       	mov    QWORD PTR [rsp+0x18],rax
bd3e:	0f be 45 02          	movsx  eax,BYTE PTR [rbp+0x2]
bd42:	8d 50 d0             	lea    edx,[rax-0x30]
bd45:	80 fa 09             	cmp    dl,0x9
bd48:	0f 86 8e 06 00 00    	jbe    c3dc <printf_parse+0xb6c>
bd4e:	49 8b 5c 24 40       	mov    rbx,QWORD PTR [r12+0x40]
bd53:	48 83 fb ff          	cmp    rbx,0xffffffffffffffff
bd57:	0f 84 58 06 00 00    	je     c3b5 <printf_parse+0xb45>
bd5d:	49 39 d9             	cmp    r9,rbx
bd60:	49 8b 4f 08          	mov    rcx,QWORD PTR [r15+0x8]
bd64:	0f 86 65 05 00 00    	jbe    c2cf <printf_parse+0xa5f>
bd6a:	49 8b 07             	mov    rax,QWORD PTR [r15]
bd6d:	48 89 c2             	mov    rdx,rax
bd70:	48 c1 e2 05          	shl    rdx,0x5
bd74:	48 01 ca             	add    rdx,rcx
bd77:	48 39 d8             	cmp    rax,rbx
bd7a:	77 1a                	ja     bd96 <printf_parse+0x526>
bd7c:	0f 1f 40 00          	nop    DWORD PTR [rax+0x0]
bd80:	48 83 c0 01          	add    rax,0x1
bd84:	c7 02 00 00 00 00    	mov    DWORD PTR [rdx],0x0
bd8a:	48 83 c2 20          	add    rdx,0x20
bd8e:	48 39 d8             	cmp    rax,rbx
bd91:	76 ed                	jbe    bd80 <printf_parse+0x510>
bd93:	49 89 07             	mov    QWORD PTR [r15],rax
bd96:	48 c1 e3 05          	shl    rbx,0x5
bd9a:	48 8d 04 19          	lea    rax,[rcx+rbx*1]
bd9e:	8b 10                	mov    edx,DWORD PTR [rax]
bda0:	85 d2                	test   edx,edx
bda2:	0f 85 12 05 00 00    	jne    c2ba <printf_parse+0xa4a>
bda8:	c7 00 05 00 00 00    	mov    DWORD PTR [rax],0x5
bdae:	4c 89 dd             	mov    rbp,r11
bdb1:	41 0f b6 1b          	movzx  ebx,BYTE PTR [r11]
bdb5:	e9 84 fc ff ff       	jmp    ba3e <printf_parse+0x1ce>
bdba:	48 89 e8             	mov    rax,rbp
bdbd:	0f 1f 00             	nop    DWORD PTR [rax]
bdc0:	48 83 c0 01          	add    rax,0x1
bdc4:	0f b6 10             	movzx  edx,BYTE PTR [rax]
bdc7:	8d 4a d0             	lea    ecx,[rdx-0x30]
bdca:	80 f9 09             	cmp    cl,0x9
bdcd:	76 f1                	jbe    bdc0 <printf_parse+0x550>
bdcf:	80 fa 24             	cmp    dl,0x24
bdd2:	4d 89 c5             	mov    r13,r8
bdd5:	0f 85 e3 fb ff ff    	jne    b9be <printf_parse+0x14e>
bddb:	31 d2                	xor    edx,edx
bddd:	0f be c3             	movsx  eax,bl
bde0:	48 bf 99 99 99 99 99 	movabs rdi,0x1999999999999999
bde7:	99 99 19
bdea:	4c 89 c6             	mov    rsi,r8
bded:	83 e8 30             	sub    eax,0x30
bdf0:	48 39 fa             	cmp    rdx,rdi
bdf3:	48 98                	cdqe
bdf5:	77 07                	ja     bdfe <printf_parse+0x58e>
bdf7:	48 8d 34 92          	lea    rsi,[rdx+rdx*4]
bdfb:	48 01 f6             	add    rsi,rsi
bdfe:	48 89 e9             	mov    rcx,rbp
be01:	48 01 f0             	add    rax,rsi
be04:	0f b6 5d 01          	movzx  ebx,BYTE PTR [rbp+0x1]
be08:	40 0f 92 c6          	setb   sil
be0c:	48 83 c5 01          	add    rbp,0x1
be10:	48 89 c2             	mov    rdx,rax
be13:	40 0f b6 f6          	movzx  esi,sil
be17:	48 85 f6             	test   rsi,rsi
be1a:	8d 7b d0             	lea    edi,[rbx-0x30]
be1d:	0f 85 8b 03 00 00    	jne    c1ae <printf_parse+0x93e>
be23:	40 80 ff 09          	cmp    dil,0x9
be27:	76 b4                	jbe    bddd <printf_parse+0x56d>
be29:	49 89 c5             	mov    r13,rax
be2c:	49 83 ed 01          	sub    r13,0x1
be30:	49 83 fd fd          	cmp    r13,0xfffffffffffffffd
be34:	0f 87 81 02 00 00    	ja     c0bb <printf_parse+0x84b>
be3a:	48 8d 69 02          	lea    rbp,[rcx+0x2]
be3e:	0f b6 59 02          	movzx  ebx,BYTE PTR [rcx+0x2]
be42:	e9 77 fb ff ff       	jmp    b9be <printf_parse+0x14e>
be47:	49 89 6c 24 18       	mov    QWORD PTR [r12+0x18],rbp
be4c:	0f b6 7d 00          	movzx  edi,BYTE PTR [rbp+0x0]
be50:	48 89 ee             	mov    rsi,rbp
be53:	8d 4f d0             	lea    ecx,[rdi-0x30]
be56:	80 f9 09             	cmp    cl,0x9
be59:	76 0c                	jbe    be67 <printf_parse+0x5f7>
be5b:	eb 33                	jmp    be90 <printf_parse+0x620>
be5d:	0f 1f 00             	nop    DWORD PTR [rax]
be60:	48 89 c5             	mov    rbp,rax
be63:	48 83 c0 01          	add    rax,0x1
be67:	0f b6 38             	movzx  edi,BYTE PTR [rax]
be6a:	8d 57 d0             	lea    edx,[rdi-0x30]
be6d:	80 fa 09             	cmp    dl,0x9
be70:	76 ee                	jbe    be60 <printf_parse+0x5f0>
be72:	48 89 c1             	mov    rcx,rax
be75:	48 8d 55 02          	lea    rdx,[rbp+0x2]
be79:	48 89 c5             	mov    rbp,rax
be7c:	48 29 f1             	sub    rcx,rsi
be7f:	48 8b 74 24 10       	mov    rsi,QWORD PTR [rsp+0x10]
be84:	48 39 ce             	cmp    rsi,rcx
be87:	48 0f 43 ce          	cmovae rcx,rsi
be8b:	48 89 4c 24 10       	mov    QWORD PTR [rsp+0x10],rcx
be90:	49 89 6c 24 20       	mov    QWORD PTR [r12+0x20],rbp
be95:	0f b6 5d 00          	movzx  ebx,BYTE PTR [rbp+0x0]
be99:	e9 97 fb ff ff       	jmp    ba35 <printf_parse+0x1c5>
be9e:	0f b6 45 01          	movzx  eax,BYTE PTR [rbp+0x1]
bea2:	83 e8 30             	sub    eax,0x30
bea5:	3c 09                	cmp    al,0x9
bea7:	77 15                	ja     bebe <printf_parse+0x64e>
bea9:	0f 1f 80 00 00 00 00 	nop    DWORD PTR [rax+0x0]
beb0:	48 83 c2 01          	add    rdx,0x1
beb4:	0f b6 02             	movzx  eax,BYTE PTR [rdx]
beb7:	83 e8 30             	sub    eax,0x30
beba:	3c 09                	cmp    al,0x9
bebc:	76 f2                	jbe    beb0 <printf_parse+0x640>
bebe:	48 8b 74 24 18       	mov    rsi,QWORD PTR [rsp+0x18]
bec3:	48 89 d0             	mov    rax,rdx
bec6:	49 89 54 24 38       	mov    QWORD PTR [r12+0x38],rdx
becb:	48 29 e8             	sub    rax,rbp
bece:	0f b6 1a             	movzx  ebx,BYTE PTR [rdx]
bed1:	48 89 d5             	mov    rbp,rdx
bed4:	48 39 c6             	cmp    rsi,rax
bed7:	48 0f 43 c6          	cmovae rax,rsi
bedb:	48 89 44 24 18       	mov    QWORD PTR [rsp+0x18],rax
bee0:	e9 59 fb ff ff       	jmp    ba3e <printf_parse+0x1ce>
bee5:	48 89 c6             	mov    rsi,rax
bee8:	48 83 c6 01          	add    rsi,0x1
beec:	0f b6 3e             	movzx  edi,BYTE PTR [rsi]
beef:	44 8d 5f d0          	lea    r11d,[rdi-0x30]
bef3:	41 80 fb 09          	cmp    r11b,0x9
bef7:	76 ef                	jbe    bee8 <printf_parse+0x678>
bef9:	40 80 ff 24          	cmp    dil,0x24
befd:	0f 85 07 fd ff ff    	jne    bc0a <printf_parse+0x39a>
bf03:	31 f6                	xor    esi,esi
bf05:	0f be c1             	movsx  eax,cl
bf08:	48 bf 99 99 99 99 99 	movabs rdi,0x1999999999999999
bf0f:	99 99 19
bf12:	4c 89 c1             	mov    rcx,r8
bf15:	83 e8 30             	sub    eax,0x30
bf18:	48 39 fe             	cmp    rsi,rdi
bf1b:	48 98                	cdqe
bf1d:	77 07                	ja     bf26 <printf_parse+0x6b6>
bf1f:	48 8d 0c b6          	lea    rcx,[rsi+rsi*4]
bf23:	48 01 c9             	add    rcx,rcx
bf26:	48 89 d5             	mov    rbp,rdx
bf29:	45 31 db             	xor    r11d,r11d
bf2c:	48 01 c8             	add    rax,rcx
bf2f:	0f b6 4a 01          	movzx  ecx,BYTE PTR [rdx+0x1]
bf33:	41 0f 92 c3          	setb   r11b
bf37:	48 83 c2 01          	add    rdx,0x1
bf3b:	48 89 c6             	mov    rsi,rax
bf3e:	4d 85 db             	test   r11,r11
bf41:	8d 79 d0             	lea    edi,[rcx-0x30]
bf44:	0f 85 04 05 00 00    	jne    c44e <printf_parse+0xbde>
bf4a:	40 80 ff 09          	cmp    dil,0x9
bf4e:	76 b5                	jbe    bf05 <printf_parse+0x695>
bf50:	48 8d 58 ff          	lea    rbx,[rax-0x1]
bf54:	48 83 fb fd          	cmp    rbx,0xfffffffffffffffd
bf58:	0f 87 5d 01 00 00    	ja     c0bb <printf_parse+0x84b>
bf5e:	49 89 5c 24 28       	mov    QWORD PTR [r12+0x28],rbx
bf63:	48 83 c5 02          	add    rbp,0x2
bf67:	e9 c3 fc ff ff       	jmp    bc2f <printf_parse+0x3bf>
bf6c:	83 f8 0f             	cmp    eax,0xf
bf6f:	41 bb 16 00 00 00    	mov    r11d,0x16
bf75:	0f 8f 4d fb ff ff    	jg     bac8 <printf_parse+0x258>
bf7b:	a8 04                	test   al,0x4
bf7d:	0f 85 45 fb ff ff    	jne    bac8 <printf_parse+0x258>
bf83:	83 f8 07             	cmp    eax,0x7
bf86:	41 bb 15 00 00 00    	mov    r11d,0x15
bf8c:	0f 8f 36 fb ff ff    	jg     bac8 <printf_parse+0x258>
bf92:	a8 02                	test   al,0x2
bf94:	41 bb 12 00 00 00    	mov    r11d,0x12
bf9a:	0f 85 28 fb ff ff    	jne    bac8 <printf_parse+0x258>
bfa0:	45 31 db             	xor    r11d,r11d
bfa3:	a8 01                	test   al,0x1
bfa5:	41 0f 94 c3          	sete   r11b
bfa9:	41 83 c3 13          	add    r11d,0x13
bfad:	e9 16 fb ff ff       	jmp    bac8 <printf_parse+0x258>
bfb2:	66 0f 1f 44 00 00    	nop    WORD PTR [rax+rax*1+0x0]
bfb8:	45 31 db             	xor    r11d,r11d
bfbb:	83 f8 07             	cmp    eax,0x7
bfbe:	41 0f 9f c3          	setg   r11b
bfc2:	41 83 c3 0d          	add    r11d,0xd
bfc6:	e9 fd fa ff ff       	jmp    bac8 <printf_parse+0x258>
bfcb:	83 f8 0f             	cmp    eax,0xf
bfce:	41 bb 09 00 00 00    	mov    r11d,0x9
bfd4:	0f 8f ee fa ff ff    	jg     bac8 <printf_parse+0x258>
bfda:	a8 04                	test   al,0x4
bfdc:	0f 85 e6 fa ff ff    	jne    bac8 <printf_parse+0x258>
bfe2:	83 f8 07             	cmp    eax,0x7
bfe5:	41 bb 07 00 00 00    	mov    r11d,0x7
bfeb:	0f 8f d7 fa ff ff    	jg     bac8 <printf_parse+0x258>
bff1:	a8 02                	test   al,0x2
bff3:	41 bb 01 00 00 00    	mov    r11d,0x1
bff9:	0f 85 c9 fa ff ff    	jne    bac8 <printf_parse+0x258>
bfff:	83 e0 01             	and    eax,0x1
c002:	83 f8 01             	cmp    eax,0x1
c005:	45 19 db             	sbb    r11d,r11d
c008:	41 83 e3 02          	and    r11d,0x2
c00c:	41 83 c3 03          	add    r11d,0x3
c010:	e9 b3 fa ff ff       	jmp    bac8 <printf_parse+0x258>
c015:	0f 1f 00             	nop    DWORD PTR [rax]
c018:	45 31 db             	xor    r11d,r11d
c01b:	83 f8 07             	cmp    eax,0x7
c01e:	41 0f 9f c3          	setg   r11b
c022:	41 83 c3 0f          	add    r11d,0xf
c026:	e9 9d fa ff ff       	jmp    bac8 <printf_parse+0x258>
c02b:	83 f8 0f             	cmp    eax,0xf
c02e:	41 bb 0c 00 00 00    	mov    r11d,0xc
c034:	0f 8f 8e fa ff ff    	jg     bac8 <printf_parse+0x258>
c03a:	45 31 db             	xor    r11d,r11d
c03d:	a8 04                	test   al,0x4
c03f:	41 0f 95 c3          	setne  r11b
c043:	41 83 c3 0b          	add    r11d,0xb
c047:	e9 7c fa ff ff       	jmp    bac8 <printf_parse+0x258>
c04c:	41 bb 0e 00 00 00    	mov    r11d,0xe
c052:	bb 63 00 00 00       	mov    ebx,0x63
c057:	e9 6c fa ff ff       	jmp    bac8 <printf_parse+0x258>
c05c:	83 f8 0f             	cmp    eax,0xf
c05f:	41 bb 0a 00 00 00    	mov    r11d,0xa
c065:	0f 8f 5d fa ff ff    	jg     bac8 <printf_parse+0x258>
c06b:	a8 04                	test   al,0x4
c06d:	0f 85 55 fa ff ff    	jne    bac8 <printf_parse+0x258>
c073:	83 f8 07             	cmp    eax,0x7
c076:	41 bb 08 00 00 00    	mov    r11d,0x8
c07c:	0f 8f 46 fa ff ff    	jg     bac8 <printf_parse+0x258>
c082:	a8 02                	test   al,0x2
c084:	41 bb 02 00 00 00    	mov    r11d,0x2
c08a:	0f 85 38 fa ff ff    	jne    bac8 <printf_parse+0x258>
c090:	83 e0 01             	and    eax,0x1
c093:	83 f8 01             	cmp    eax,0x1
c096:	45 19 db             	sbb    r11d,r11d
c099:	41 83 e3 02          	and    r11d,0x2
c09d:	41 83 c3 04          	add    r11d,0x4
c0a1:	e9 22 fa ff ff       	jmp    bac8 <printf_parse+0x258>
c0a6:	66 2e 0f 1f 84 00 00 	nop    WORD PTR cs:[rax+rax*1+0x0]
c0ad:	00 00 00
c0b0:	41 bb 11 00 00 00    	mov    r11d,0x11
c0b6:	e9 0d fa ff ff       	jmp    bac8 <printf_parse+0x258>
c0bb:	49 8b 4f 08          	mov    rcx,QWORD PTR [r15+0x8]
c0bf:	48 39 4c 24 08       	cmp    QWORD PTR [rsp+0x8],rcx
c0c4:	74 08                	je     c0ce <printf_parse+0x85e>
c0c6:	48 89 cf             	mov    rdi,rcx
c0c9:	e8 92 59 ff ff       	call   1a60 <free@plt>
c0ce:	49 8b 7e 08          	mov    rdi,QWORD PTR [r14+0x8]
c0d2:	48 39 7c 24 28       	cmp    QWORD PTR [rsp+0x28],rdi
c0d7:	74 05                	je     c0de <printf_parse+0x86e>
c0d9:	e8 82 59 ff ff       	call   1a60 <free@plt>
c0de:	e8 9d 59 ff ff       	call   1a80 <__errno_location@plt>
c0e3:	c7 00 16 00 00 00    	mov    DWORD PTR [rax],0x16
c0e9:	b8 ff ff ff ff       	mov    eax,0xffffffff
c0ee:	e9 1f f8 ff ff       	jmp    b912 <printf_parse+0xa2>
c0f3:	44 39 da             	cmp    edx,r11d
c0f6:	0f 84 2f fa ff ff    	je     bb2b <printf_parse+0x2bb>
c0fc:	eb c1                	jmp    c0bf <printf_parse+0x84f>
c0fe:	66 90                	xchg   ax,ax
c100:	4d 01 c9             	add    r9,r9
c103:	49 8d 45 01          	lea    rax,[r13+0x1]
c107:	4d 39 e9             	cmp    r9,r13
c10a:	4c 0f 46 c8          	cmovbe r9,rax
c10e:	48 b8 ff ff ff ff ff 	movabs rax,0x7ffffffffffffff
c115:	ff ff 07
c118:	49 39 c1             	cmp    r9,rax
c11b:	0f 87 da 03 00 00    	ja     c4fb <printf_parse+0xc8b>
c121:	4c 89 ce             	mov    rsi,r9
c124:	4c 89 4c 24 48       	mov    QWORD PTR [rsp+0x48],r9
c129:	4c 89 54 24 40       	mov    QWORD PTR [rsp+0x40],r10
c12e:	48 c1 e6 05          	shl    rsi,0x5
c132:	48 39 4c 24 08       	cmp    QWORD PTR [rsp+0x8],rcx
c137:	4c 89 44 24 38       	mov    QWORD PTR [rsp+0x38],r8
c13c:	44 89 5c 24 30       	mov    DWORD PTR [rsp+0x30],r11d
c141:	0f 84 9a 00 00 00    	je     c1e1 <printf_parse+0x971>
c147:	48 89 cf             	mov    rdi,rcx
c14a:	e8 01 5c ff ff       	call   1d50 <realloc@plt>
c14f:	48 85 c0             	test   rax,rax
c152:	48 89 c1             	mov    rcx,rax
c155:	44 8b 5c 24 30       	mov    r11d,DWORD PTR [rsp+0x30]
c15a:	4c 8b 44 24 38       	mov    r8,QWORD PTR [rsp+0x38]
c15f:	4c 8b 54 24 40       	mov    r10,QWORD PTR [rsp+0x40]
c164:	4c 8b 4c 24 48       	mov    r9,QWORD PTR [rsp+0x48]
c169:	0f 84 88 03 00 00    	je     c4f7 <printf_parse+0xc87>
c16f:	48 8b 44 24 08       	mov    rax,QWORD PTR [rsp+0x8]
c174:	49 3b 47 08          	cmp    rax,QWORD PTR [r15+0x8]
c178:	0f 84 8b 00 00 00    	je     c209 <printf_parse+0x999>
c17e:	49 89 4f 08          	mov    QWORD PTR [r15+0x8],rcx
c182:	e9 5d f9 ff ff       	jmp    bae4 <printf_parse+0x274>
c187:	48 8b 74 24 20       	mov    rsi,QWORD PTR [rsp+0x20]
c18c:	48 83 fe ff          	cmp    rsi,0xffffffffffffffff
c190:	48 8d 46 01          	lea    rax,[rsi+0x1]
c194:	49 89 74 24 50       	mov    QWORD PTR [r12+0x50],rsi
c199:	0f 84 1c ff ff ff    	je     c0bb <printf_parse+0x84b>
c19f:	4c 8b 6c 24 20       	mov    r13,QWORD PTR [rsp+0x20]
c1a4:	48 89 44 24 20       	mov    QWORD PTR [rsp+0x20],rax
c1a9:	e9 29 f9 ff ff       	jmp    bad7 <printf_parse+0x267>
c1ae:	40 80 ff 09          	cmp    dil,0x9
c1b2:	0f 87 03 ff ff ff    	ja     c0bb <printf_parse+0x84b>
c1b8:	0f be c3             	movsx  eax,bl
c1bb:	4c 89 c6             	mov    rsi,r8
c1be:	48 89 e9             	mov    rcx,rbp
c1c1:	83 e8 30             	sub    eax,0x30
c1c4:	48 98                	cdqe
c1c6:	e9 36 fc ff ff       	jmp    be01 <printf_parse+0x591>
c1cb:	83 fa 05             	cmp    edx,0x5
c1ce:	0f 85 eb fe ff ff    	jne    c0bf <printf_parse+0x84f>
c1d4:	0f b6 5d 00          	movzx  ebx,BYTE PTR [rbp+0x0]
c1d8:	48 8d 55 01          	lea    rdx,[rbp+0x1]
c1dc:	e9 54 f8 ff ff       	jmp    ba35 <printf_parse+0x1c5>
c1e1:	48 89 f7             	mov    rdi,rsi
c1e4:	e8 17 5b ff ff       	call   1d00 <malloc@plt>
c1e9:	48 85 c0             	test   rax,rax
c1ec:	48 89 c1             	mov    rcx,rax
c1ef:	44 8b 5c 24 30       	mov    r11d,DWORD PTR [rsp+0x30]
c1f4:	4c 8b 44 24 38       	mov    r8,QWORD PTR [rsp+0x38]
c1f9:	4c 8b 54 24 40       	mov    r10,QWORD PTR [rsp+0x40]
c1fe:	4c 8b 4c 24 48       	mov    r9,QWORD PTR [rsp+0x48]
c203:	0f 84 63 01 00 00    	je     c36c <printf_parse+0xafc>
c209:	49 8b 17             	mov    rdx,QWORD PTR [r15]
c20c:	48 8b 74 24 08       	mov    rsi,QWORD PTR [rsp+0x8]
c211:	48 89 cf             	mov    rdi,rcx
c214:	4c 89 4c 24 48       	mov    QWORD PTR [rsp+0x48],r9
c219:	4c 89 54 24 40       	mov    QWORD PTR [rsp+0x40],r10
c21e:	4c 89 44 24 38       	mov    QWORD PTR [rsp+0x38],r8
c223:	44 89 5c 24 30       	mov    DWORD PTR [rsp+0x30],r11d
c228:	48 c1 e2 05          	shl    rdx,0x5
c22c:	e8 af 5a ff ff       	call   1ce0 <memcpy@plt>
c231:	4c 8b 4c 24 48       	mov    r9,QWORD PTR [rsp+0x48]
c236:	4c 8b 54 24 40       	mov    r10,QWORD PTR [rsp+0x40]
c23b:	48 89 c1             	mov    rcx,rax
c23e:	4c 8b 44 24 38       	mov    r8,QWORD PTR [rsp+0x38]
c243:	44 8b 5c 24 30       	mov    r11d,DWORD PTR [rsp+0x30]
c248:	e9 31 ff ff ff       	jmp    c17e <printf_parse+0x90e>
c24d:	48 89 f7             	mov    rdi,rsi
c250:	e8 ab 5a ff ff       	call   1d00 <malloc@plt>
c255:	48 85 c0             	test   rax,rax
c258:	48 89 c1             	mov    rcx,rax
c25b:	4c 8b 44 24 30       	mov    r8,QWORD PTR [rsp+0x30]
c260:	4c 8b 54 24 38       	mov    r10,QWORD PTR [rsp+0x38]
c265:	4c 8b 4c 24 40       	mov    r9,QWORD PTR [rsp+0x40]
c26a:	0f 84 e9 00 00 00    	je     c359 <printf_parse+0xae9>
c270:	48 8d 04 9b          	lea    rax,[rbx+rbx*4]
c274:	48 8b 74 24 28       	mov    rsi,QWORD PTR [rsp+0x28]
c279:	48 89 cf             	mov    rdi,rcx
c27c:	4c 89 4c 24 40       	mov    QWORD PTR [rsp+0x40],r9
c281:	4c 89 54 24 38       	mov    QWORD PTR [rsp+0x38],r10
c286:	48 8d 14 43          	lea    rdx,[rbx+rax*2]
c28a:	4c 89 44 24 30       	mov    QWORD PTR [rsp+0x30],r8
c28f:	48 c1 e2 03          	shl    rdx,0x3
c293:	e8 48 5a ff ff       	call   1ce0 <memcpy@plt>
c298:	49 8b 1e             	mov    rbx,QWORD PTR [r14]
c29b:	48 89 c1             	mov    rcx,rax
c29e:	4c 8b 4c 24 40       	mov    r9,QWORD PTR [rsp+0x40]
c2a3:	4c 8b 54 24 38       	mov    r10,QWORD PTR [rsp+0x38]
c2a8:	4c 8b 44 24 30       	mov    r8,QWORD PTR [rsp+0x30]
c2ad:	e9 15 f9 ff ff       	jmp    bbc7 <printf_parse+0x357>
c2b2:	49 8b 07             	mov    rax,QWORD PTR [r15]
c2b5:	e9 fd f9 ff ff       	jmp    bcb7 <printf_parse+0x447>
c2ba:	83 fa 05             	cmp    edx,0x5
c2bd:	0f 85 fc fd ff ff    	jne    c0bf <printf_parse+0x84f>
c2c3:	41 0f b6 1b          	movzx  ebx,BYTE PTR [r11]
c2c7:	4c 89 dd             	mov    rbp,r11
c2ca:	e9 6f f7 ff ff       	jmp    ba3e <printf_parse+0x1ce>
c2cf:	4d 01 c9             	add    r9,r9
c2d2:	48 8d 43 01          	lea    rax,[rbx+0x1]
c2d6:	49 39 d9             	cmp    r9,rbx
c2d9:	4c 0f 46 c8          	cmovbe r9,rax
c2dd:	48 b8 ff ff ff ff ff 	movabs rax,0x7ffffffffffffff
c2e4:	ff ff 07
c2e7:	49 39 c1             	cmp    r9,rax
c2ea:	0f 87 0b 02 00 00    	ja     c4fb <printf_parse+0xc8b>
c2f0:	4c 89 ce             	mov    rsi,r9
c2f3:	4c 89 4c 24 48       	mov    QWORD PTR [rsp+0x48],r9
c2f8:	4c 89 54 24 40       	mov    QWORD PTR [rsp+0x40],r10
c2fd:	48 c1 e6 05          	shl    rsi,0x5
c301:	48 39 4c 24 08       	cmp    QWORD PTR [rsp+0x8],rcx
c306:	4c 89 44 24 38       	mov    QWORD PTR [rsp+0x38],r8
c30b:	4c 89 5c 24 30       	mov    QWORD PTR [rsp+0x30],r11
c310:	0f 84 b8 01 00 00    	je     c4ce <printf_parse+0xc5e>
c316:	48 89 cf             	mov    rdi,rcx
c319:	e8 32 5a ff ff       	call   1d50 <realloc@plt>
c31e:	49 8b 57 08          	mov    rdx,QWORD PTR [r15+0x8]
c322:	4c 8b 5c 24 30       	mov    r11,QWORD PTR [rsp+0x30]
c327:	48 89 c1             	mov    rcx,rax
c32a:	4c 8b 44 24 38       	mov    r8,QWORD PTR [rsp+0x38]
c32f:	4c 8b 54 24 40       	mov    r10,QWORD PTR [rsp+0x40]
c334:	4c 8b 4c 24 48       	mov    r9,QWORD PTR [rsp+0x48]
c339:	48 85 c9             	test   rcx,rcx
c33c:	0f 84 15 02 00 00    	je     c557 <printf_parse+0xce7>
c342:	48 39 54 24 08       	cmp    QWORD PTR [rsp+0x8],rdx
c347:	49 8b 07             	mov    rax,QWORD PTR [r15]
c34a:	0f 84 c0 01 00 00    	je     c510 <printf_parse+0xca0>
c350:	49 89 4f 08          	mov    QWORD PTR [r15+0x8],rcx
c354:	e9 14 fa ff ff       	jmp    bd6d <printf_parse+0x4fd>
c359:	49 8b 4f 08          	mov    rcx,QWORD PTR [r15+0x8]
c35d:	48 39 4c 24 08       	cmp    QWORD PTR [rsp+0x8],rcx
c362:	74 18                	je     c37c <printf_parse+0xb0c>
c364:	48 89 cf             	mov    rdi,rcx
c367:	e8 f4 56 ff ff       	call   1a60 <free@plt>
c36c:	49 8b 7e 08          	mov    rdi,QWORD PTR [r14+0x8]
c370:	48 39 7c 24 28       	cmp    QWORD PTR [rsp+0x28],rdi
c375:	74 05                	je     c37c <printf_parse+0xb0c>
c377:	e8 e4 56 ff ff       	call   1a60 <free@plt>
c37c:	e8 ff 56 ff ff       	call   1a80 <__errno_location@plt>
c381:	c7 00 0c 00 00 00    	mov    DWORD PTR [rax],0xc
c387:	b8 ff ff ff ff       	mov    eax,0xffffffff
c38c:	e9 81 f5 ff ff       	jmp    b912 <printf_parse+0xa2>
c391:	48 89 f7             	mov    rdi,rsi
c394:	e8 67 59 ff ff       	call   1d00 <malloc@plt>
c399:	48 8b 54 24 08       	mov    rdx,QWORD PTR [rsp+0x8]
c39e:	48 89 c1             	mov    rcx,rax
c3a1:	4c 8b 4c 24 40       	mov    r9,QWORD PTR [rsp+0x40]
c3a6:	4c 8b 54 24 38       	mov    r10,QWORD PTR [rsp+0x38]
c3ab:	4c 8b 44 24 30       	mov    r8,QWORD PTR [rsp+0x30]
c3b0:	e9 e7 f8 ff ff       	jmp    bc9c <printf_parse+0x42c>
c3b5:	48 8b 74 24 20       	mov    rsi,QWORD PTR [rsp+0x20]
c3ba:	48 83 fe ff          	cmp    rsi,0xffffffffffffffff
c3be:	48 8d 46 01          	lea    rax,[rsi+0x1]
c3c2:	49 89 74 24 40       	mov    QWORD PTR [r12+0x40],rsi
c3c7:	0f 84 ee fc ff ff    	je     c0bb <printf_parse+0x84b>
c3cd:	48 8b 5c 24 20       	mov    rbx,QWORD PTR [rsp+0x20]
c3d2:	48 89 44 24 20       	mov    QWORD PTR [rsp+0x20],rax
c3d7:	e9 81 f9 ff ff       	jmp    bd5d <printf_parse+0x4ed>
c3dc:	4c 89 da             	mov    rdx,r11
c3df:	48 83 c2 01          	add    rdx,0x1
c3e3:	0f b6 0a             	movzx  ecx,BYTE PTR [rdx]
c3e6:	8d 71 d0             	lea    esi,[rcx-0x30]
c3e9:	40 80 fe 09          	cmp    sil,0x9
c3ed:	76 f0                	jbe    c3df <printf_parse+0xb6f>
c3ef:	80 f9 24             	cmp    cl,0x24
c3f2:	0f 85 56 f9 ff ff    	jne    bd4e <printf_parse+0x4de>
c3f8:	31 c9                	xor    ecx,ecx
c3fa:	48 be 99 99 99 99 99 	movabs rsi,0x1999999999999999
c401:	99 99 19
c404:	83 e8 30             	sub    eax,0x30
c407:	4c 89 c2             	mov    rdx,r8
c40a:	48 39 f1             	cmp    rcx,rsi
c40d:	48 98                	cdqe
c40f:	77 07                	ja     c418 <printf_parse+0xba8>
c411:	48 8d 14 89          	lea    rdx,[rcx+rcx*4]
c415:	48 01 d2             	add    rdx,rdx
c418:	4c 89 de             	mov    rsi,r11
c41b:	31 db                	xor    ebx,ebx
c41d:	48 01 c2             	add    rdx,rax
c420:	41 0f be 43 01       	movsx  eax,BYTE PTR [r11+0x1]
c425:	0f 92 c3             	setb   bl
c428:	49 83 c3 01          	add    r11,0x1
c42c:	48 89 d1             	mov    rcx,rdx
c42f:	48 85 db             	test   rbx,rbx
c432:	8d 78 d0             	lea    edi,[rax-0x30]
c435:	74 71                	je     c4a8 <printf_parse+0xc38>
c437:	40 80 ff 09          	cmp    dil,0x9
c43b:	0f 87 7a fc ff ff    	ja     c0bb <printf_parse+0x84b>
c441:	83 e8 30             	sub    eax,0x30
c444:	4c 89 c2             	mov    rdx,r8
c447:	4c 89 de             	mov    rsi,r11
c44a:	48 98                	cdqe
c44c:	eb cd                	jmp    c41b <printf_parse+0xbab>
c44e:	40 80 ff 09          	cmp    dil,0x9
c452:	0f 87 63 fc ff ff    	ja     c0bb <printf_parse+0x84b>
c458:	0f be c1             	movsx  eax,cl
c45b:	48 89 d5             	mov    rbp,rdx
c45e:	4c 89 c1             	mov    rcx,r8
c461:	83 e8 30             	sub    eax,0x30
c464:	48 98                	cdqe
c466:	e9 be fa ff ff       	jmp    bf29 <printf_parse+0x6b9>
c46b:	48 8b 74 24 08       	mov    rsi,QWORD PTR [rsp+0x8]
c470:	48 c1 e0 05          	shl    rax,0x5
c474:	48 89 cf             	mov    rdi,rcx
c477:	48 89 c2             	mov    rdx,rax
c47a:	4c 89 4c 24 40       	mov    QWORD PTR [rsp+0x40],r9
c47f:	4c 89 54 24 38       	mov    QWORD PTR [rsp+0x38],r10
c484:	4c 89 44 24 30       	mov    QWORD PTR [rsp+0x30],r8
c489:	e8 52 58 ff ff       	call   1ce0 <memcpy@plt>
c48e:	4c 8b 4c 24 40       	mov    r9,QWORD PTR [rsp+0x40]
c493:	48 89 c1             	mov    rcx,rax
c496:	4c 8b 54 24 38       	mov    r10,QWORD PTR [rsp+0x38]
c49b:	49 8b 07             	mov    rax,QWORD PTR [r15]
c49e:	4c 8b 44 24 30       	mov    r8,QWORD PTR [rsp+0x30]
c4a3:	e9 0b f8 ff ff       	jmp    bcb3 <printf_parse+0x443>
c4a8:	40 80 ff 09          	cmp    dil,0x9
c4ac:	0f 86 48 ff ff ff    	jbe    c3fa <printf_parse+0xb8a>
c4b2:	48 8d 5a ff          	lea    rbx,[rdx-0x1]
c4b6:	48 83 fb fd          	cmp    rbx,0xfffffffffffffffd
c4ba:	0f 87 fb fb ff ff    	ja     c0bb <printf_parse+0x84b>
c4c0:	49 89 5c 24 40       	mov    QWORD PTR [r12+0x40],rbx
c4c5:	4c 8d 5e 02          	lea    r11,[rsi+0x2]
c4c9:	e9 8f f8 ff ff       	jmp    bd5d <printf_parse+0x4ed>
c4ce:	48 89 f7             	mov    rdi,rsi
c4d1:	e8 2a 58 ff ff       	call   1d00 <malloc@plt>
c4d6:	48 8b 54 24 08       	mov    rdx,QWORD PTR [rsp+0x8]
c4db:	48 89 c1             	mov    rcx,rax
c4de:	4c 8b 4c 24 48       	mov    r9,QWORD PTR [rsp+0x48]
c4e3:	4c 8b 54 24 40       	mov    r10,QWORD PTR [rsp+0x40]
c4e8:	4c 8b 44 24 38       	mov    r8,QWORD PTR [rsp+0x38]
c4ed:	4c 8b 5c 24 30       	mov    r11,QWORD PTR [rsp+0x30]
c4f2:	e9 42 fe ff ff       	jmp    c339 <printf_parse+0xac9>
c4f7:	49 8b 4f 08          	mov    rcx,QWORD PTR [r15+0x8]
c4fb:	48 39 4c 24 08       	cmp    QWORD PTR [rsp+0x8],rcx
c500:	0f 85 5e fe ff ff    	jne    c364 <printf_parse+0xaf4>
c506:	e9 61 fe ff ff       	jmp    c36c <printf_parse+0xafc>
c50b:	0f 1f 44 00 00       	nop    DWORD PTR [rax+rax*1+0x0]
c510:	48 8b 74 24 08       	mov    rsi,QWORD PTR [rsp+0x8]
c515:	48 c1 e0 05          	shl    rax,0x5
c519:	48 89 cf             	mov    rdi,rcx
c51c:	48 89 c2             	mov    rdx,rax
c51f:	4c 89 4c 24 48       	mov    QWORD PTR [rsp+0x48],r9
c524:	4c 89 54 24 40       	mov    QWORD PTR [rsp+0x40],r10
c529:	4c 89 44 24 38       	mov    QWORD PTR [rsp+0x38],r8
c52e:	4c 89 5c 24 30       	mov    QWORD PTR [rsp+0x30],r11
c533:	e8 a8 57 ff ff       	call   1ce0 <memcpy@plt>
c538:	4c 8b 4c 24 48       	mov    r9,QWORD PTR [rsp+0x48]
c53d:	48 89 c1             	mov    rcx,rax
c540:	4c 8b 54 24 40       	mov    r10,QWORD PTR [rsp+0x40]
c545:	49 8b 07             	mov    rax,QWORD PTR [r15]
c548:	4c 8b 44 24 38       	mov    r8,QWORD PTR [rsp+0x38]
c54d:	4c 8b 5c 24 30       	mov    r11,QWORD PTR [rsp+0x30]
c552:	e9 f9 fd ff ff       	jmp    c350 <printf_parse+0xae0>
c557:	48 89 d1             	mov    rcx,rdx
c55a:	eb 9f                	jmp    c4fb <printf_parse+0xc8b>
c55c:	0f 1f 40 00          	nop    DWORD PTR [rax+0x0]

000000000000c560 <__libc_csu_init>:
c560:	41 57                	push   r15
c562:	41 56                	push   r14
c564:	49 89 d7             	mov    r15,rdx
c567:	41 55                	push   r13
c569:	41 54                	push   r12
c56b:	4c 8d 25 1e 45 20 00 	lea    r12,[rip+0x20451e]        # 210a90 <__frame_dummy_init_array_entry>
c572:	55                   	push   rbp
c573:	48 8d 2d 1e 45 20 00 	lea    rbp,[rip+0x20451e]        # 210a98 <__init_array_end>
c57a:	53                   	push   rbx
c57b:	41 89 fd             	mov    r13d,edi
c57e:	49 89 f6             	mov    r14,rsi
c581:	4c 29 e5             	sub    rbp,r12
c584:	48 83 ec 08          	sub    rsp,0x8
c588:	48 c1 fd 03          	sar    rbp,0x3
c58c:	e8 57 54 ff ff       	call   19e8 <_init>
c591:	48 85 ed             	test   rbp,rbp
c594:	74 20                	je     c5b6 <__libc_csu_init+0x56>
c596:	31 db                	xor    ebx,ebx
c598:	0f 1f 84 00 00 00 00 	nop    DWORD PTR [rax+rax*1+0x0]
c59f:	00
c5a0:	4c 89 fa             	mov    rdx,r15
c5a3:	4c 89 f6             	mov    rsi,r14
c5a6:	44 89 ef             	mov    edi,r13d
c5a9:	41 ff 14 dc          	call   QWORD PTR [r12+rbx*8]
c5ad:	48 83 c3 01          	add    rbx,0x1
c5b1:	48 39 dd             	cmp    rbp,rbx
c5b4:	75 ea                	jne    c5a0 <__libc_csu_init+0x40>
c5b6:	48 83 c4 08          	add    rsp,0x8
c5ba:	5b                   	pop    rbx
c5bb:	5d                   	pop    rbp
c5bc:	41 5c                	pop    r12
c5be:	41 5d                	pop    r13
c5c0:	41 5e                	pop    r14
c5c2:	41 5f                	pop    r15
c5c4:	c3                   	ret
c5c5:	90                   	nop
c5c6:	66 2e 0f 1f 84 00 00 	nop    WORD PTR cs:[rax+rax*1+0x0]
c5cd:	00 00 00

000000000000c5d0 <__libc_csu_fini>:
c5d0:	f3 c3                	repz ret
c5d2:	66 2e 0f 1f 84 00 00 	nop    WORD PTR cs:[rax+rax*1+0x0]
c5d9:	00 00 00
c5dc:	0f 1f 40 00          	nop    DWORD PTR [rax+0x0]

000000000000c5e0 <atexit>:
c5e0:	48 8b 15 21 4a 20 00 	mov    rdx,QWORD PTR [rip+0x204a21]        # 211008 <__dso_handle>
c5e7:	31 f6                	xor    esi,esi
c5e9:	e9 f2 57 ff ff       	jmp    1de0 <__cxa_atexit@plt>

Disassembly of section .fini:

000000000000c5f0 <_fini>:
c5f0:	48 83 ec 08          	sub    rsp,0x8
c5f4:	48 83 c4 08          	add    rsp,0x8
c5f8:	c3                   	ret
