


Disassembly of section .init:

00000000000014d8 <_init>:
14d8:	48 83 ec 08          	sub    rsp,0x8
14dc:	48 8b 05 fd 8a 20 00 	mov    rax,QWORD PTR [rip+0x208afd]        # 209fe0 <__gmon_start__>
14e3:	48 85 c0             	test   rax,rax
14e6:	74 02                	je     14ea <_init+0x12>
14e8:	ff d0                	call   rax
14ea:	48 83 c4 08          	add    rsp,0x8
14ee:	c3                   	ret

Disassembly of section .plt:

00000000000014f0 <.plt>:
14f0:	ff 35 3a 89 20 00    	push   QWORD PTR [rip+0x20893a]        # 209e30 <_GLOBAL_OFFSET_TABLE_+0x8>
14f6:	ff 25 3c 89 20 00    	jmp    QWORD PTR [rip+0x20893c]        # 209e38 <_GLOBAL_OFFSET_TABLE_+0x10>
14fc:	0f 1f 40 00          	nop    DWORD PTR [rax+0x0]

0000000000001500 <free@plt>:
1500:	ff 25 3a 89 20 00    	jmp    QWORD PTR [rip+0x20893a]        # 209e40 <free@GLIBC_2.2.5>
1506:	68 00 00 00 00       	push   0x0
150b:	e9 e0 ff ff ff       	jmp    14f0 <.plt>

0000000000001510 <abort@plt>:
1510:	ff 25 32 89 20 00    	jmp    QWORD PTR [rip+0x208932]        # 209e48 <abort@GLIBC_2.2.5>
1516:	68 01 00 00 00       	push   0x1
151b:	e9 d0 ff ff ff       	jmp    14f0 <.plt>

0000000000001520 <__errno_location@plt>:
1520:	ff 25 2a 89 20 00    	jmp    QWORD PTR [rip+0x20892a]        # 209e50 <__errno_location@GLIBC_2.2.5>
1526:	68 02 00 00 00       	push   0x2
152b:	e9 c0 ff ff ff       	jmp    14f0 <.plt>

0000000000001530 <strncmp@plt>:
1530:	ff 25 22 89 20 00    	jmp    QWORD PTR [rip+0x208922]        # 209e58 <strncmp@GLIBC_2.2.5>
1536:	68 03 00 00 00       	push   0x3
153b:	e9 b0 ff ff ff       	jmp    14f0 <.plt>

0000000000001540 <_exit@plt>:
1540:	ff 25 1a 89 20 00    	jmp    QWORD PTR [rip+0x20891a]        # 209e60 <_exit@GLIBC_2.2.5>
1546:	68 04 00 00 00       	push   0x4
154b:	e9 a0 ff ff ff       	jmp    14f0 <.plt>

0000000000001550 <__fpending@plt>:
1550:	ff 25 12 89 20 00    	jmp    QWORD PTR [rip+0x208912]        # 209e68 <__fpending@GLIBC_2.2.5>
1556:	68 05 00 00 00       	push   0x5
155b:	e9 90 ff ff ff       	jmp    14f0 <.plt>

0000000000001560 <clearerr_unlocked@plt>:
1560:	ff 25 0a 89 20 00    	jmp    QWORD PTR [rip+0x20890a]        # 209e70 <clearerr_unlocked@GLIBC_2.2.5>
1566:	68 06 00 00 00       	push   0x6
156b:	e9 80 ff ff ff       	jmp    14f0 <.plt>

0000000000001570 <textdomain@plt>:
1570:	ff 25 02 89 20 00    	jmp    QWORD PTR [rip+0x208902]        # 209e78 <textdomain@GLIBC_2.2.5>
1576:	68 07 00 00 00       	push   0x7
157b:	e9 70 ff ff ff       	jmp    14f0 <.plt>

0000000000001580 <fclose@plt>:
1580:	ff 25 fa 88 20 00    	jmp    QWORD PTR [rip+0x2088fa]        # 209e80 <fclose@GLIBC_2.2.5>
1586:	68 08 00 00 00       	push   0x8
158b:	e9 60 ff ff ff       	jmp    14f0 <.plt>

0000000000001590 <bindtextdomain@plt>:
1590:	ff 25 f2 88 20 00    	jmp    QWORD PTR [rip+0x2088f2]        # 209e88 <bindtextdomain@GLIBC_2.2.5>
1596:	68 09 00 00 00       	push   0x9
159b:	e9 50 ff ff ff       	jmp    14f0 <.plt>

00000000000015a0 <dcgettext@plt>:
15a0:	ff 25 ea 88 20 00    	jmp    QWORD PTR [rip+0x2088ea]        # 209e90 <dcgettext@GLIBC_2.2.5>
15a6:	68 0a 00 00 00       	push   0xa
15ab:	e9 40 ff ff ff       	jmp    14f0 <.plt>

00000000000015b0 <__ctype_get_mb_cur_max@plt>:
15b0:	ff 25 e2 88 20 00    	jmp    QWORD PTR [rip+0x2088e2]        # 209e98 <__ctype_get_mb_cur_max@GLIBC_2.2.5>
15b6:	68 0b 00 00 00       	push   0xb
15bb:	e9 30 ff ff ff       	jmp    14f0 <.plt>

00000000000015c0 <strlen@plt>:
15c0:	ff 25 da 88 20 00    	jmp    QWORD PTR [rip+0x2088da]        # 209ea0 <strlen@GLIBC_2.2.5>
15c6:	68 0c 00 00 00       	push   0xc
15cb:	e9 20 ff ff ff       	jmp    14f0 <.plt>

00000000000015d0 <__stack_chk_fail@plt>:
15d0:	ff 25 d2 88 20 00    	jmp    QWORD PTR [rip+0x2088d2]        # 209ea8 <__stack_chk_fail@GLIBC_2.4>
15d6:	68 0d 00 00 00       	push   0xd
15db:	e9 10 ff ff ff       	jmp    14f0 <.plt>

00000000000015e0 <getopt_long@plt>:
15e0:	ff 25 ca 88 20 00    	jmp    QWORD PTR [rip+0x2088ca]        # 209eb0 <getopt_long@GLIBC_2.2.5>
15e6:	68 0e 00 00 00       	push   0xe
15eb:	e9 00 ff ff ff       	jmp    14f0 <.plt>

00000000000015f0 <mbrtowc@plt>:
15f0:	ff 25 c2 88 20 00    	jmp    QWORD PTR [rip+0x2088c2]        # 209eb8 <mbrtowc@GLIBC_2.2.5>
15f6:	68 0f 00 00 00       	push   0xf
15fb:	e9 f0 fe ff ff       	jmp    14f0 <.plt>

0000000000001600 <strchr@plt>:
1600:	ff 25 ba 88 20 00    	jmp    QWORD PTR [rip+0x2088ba]        # 209ec0 <strchr@GLIBC_2.2.5>
1606:	68 10 00 00 00       	push   0x10
160b:	e9 e0 fe ff ff       	jmp    14f0 <.plt>

0000000000001610 <strrchr@plt>:
1610:	ff 25 b2 88 20 00    	jmp    QWORD PTR [rip+0x2088b2]        # 209ec8 <strrchr@GLIBC_2.2.5>
1616:	68 11 00 00 00       	push   0x11
161b:	e9 d0 fe ff ff       	jmp    14f0 <.plt>

0000000000001620 <lseek@plt>:
1620:	ff 25 aa 88 20 00    	jmp    QWORD PTR [rip+0x2088aa]        # 209ed0 <lseek@GLIBC_2.2.5>
1626:	68 12 00 00 00       	push   0x12
162b:	e9 c0 fe ff ff       	jmp    14f0 <.plt>

0000000000001630 <__assert_fail@plt>:
1630:	ff 25 a2 88 20 00    	jmp    QWORD PTR [rip+0x2088a2]        # 209ed8 <__assert_fail@GLIBC_2.2.5>
1636:	68 13 00 00 00       	push   0x13
163b:	e9 b0 fe ff ff       	jmp    14f0 <.plt>

0000000000001640 <__strtoul_internal@plt>:
1640:	ff 25 9a 88 20 00    	jmp    QWORD PTR [rip+0x20889a]        # 209ee0 <__strtoul_internal@GLIBC_2.2.5>
1646:	68 14 00 00 00       	push   0x14
164b:	e9 a0 fe ff ff       	jmp    14f0 <.plt>

0000000000001650 <memset@plt>:
1650:	ff 25 92 88 20 00    	jmp    QWORD PTR [rip+0x208892]        # 209ee8 <memset@GLIBC_2.2.5>
1656:	68 15 00 00 00       	push   0x15
165b:	e9 90 fe ff ff       	jmp    14f0 <.plt>

0000000000001660 <close@plt>:
1660:	ff 25 8a 88 20 00    	jmp    QWORD PTR [rip+0x20888a]        # 209ef0 <close@GLIBC_2.2.5>
1666:	68 16 00 00 00       	push   0x16
166b:	e9 80 fe ff ff       	jmp    14f0 <.plt>

0000000000001670 <memchr@plt>:
1670:	ff 25 82 88 20 00    	jmp    QWORD PTR [rip+0x208882]        # 209ef8 <memchr@GLIBC_2.2.5>
1676:	68 17 00 00 00       	push   0x17
167b:	e9 70 fe ff ff       	jmp    14f0 <.plt>

0000000000001680 <read@plt>:
1680:	ff 25 7a 88 20 00    	jmp    QWORD PTR [rip+0x20887a]        # 209f00 <read@GLIBC_2.2.5>
1686:	68 18 00 00 00       	push   0x18
168b:	e9 60 fe ff ff       	jmp    14f0 <.plt>

0000000000001690 <memcmp@plt>:
1690:	ff 25 72 88 20 00    	jmp    QWORD PTR [rip+0x208872]        # 209f08 <memcmp@GLIBC_2.2.5>
1696:	68 19 00 00 00       	push   0x19
169b:	e9 50 fe ff ff       	jmp    14f0 <.plt>

00000000000016a0 <fputs_unlocked@plt>:
16a0:	ff 25 6a 88 20 00    	jmp    QWORD PTR [rip+0x20886a]        # 209f10 <fputs_unlocked@GLIBC_2.2.5>
16a6:	68 1a 00 00 00       	push   0x1a
16ab:	e9 40 fe ff ff       	jmp    14f0 <.plt>

00000000000016b0 <calloc@plt>:
16b0:	ff 25 62 88 20 00    	jmp    QWORD PTR [rip+0x208862]        # 209f18 <calloc@GLIBC_2.2.5>
16b6:	68 1b 00 00 00       	push   0x1b
16bb:	e9 30 fe ff ff       	jmp    14f0 <.plt>

00000000000016c0 <memcpy@plt>:
16c0:	ff 25 5a 88 20 00    	jmp    QWORD PTR [rip+0x20885a]        # 209f20 <memcpy@GLIBC_2.14>
16c6:	68 1c 00 00 00       	push   0x1c
16cb:	e9 20 fe ff ff       	jmp    14f0 <.plt>

00000000000016d0 <fileno@plt>:
16d0:	ff 25 52 88 20 00    	jmp    QWORD PTR [rip+0x208852]        # 209f28 <fileno@GLIBC_2.2.5>
16d6:	68 1d 00 00 00       	push   0x1d
16db:	e9 10 fe ff ff       	jmp    14f0 <.plt>

00000000000016e0 <malloc@plt>:
16e0:	ff 25 4a 88 20 00    	jmp    QWORD PTR [rip+0x20884a]        # 209f30 <malloc@GLIBC_2.2.5>
16e6:	68 1e 00 00 00       	push   0x1e
16eb:	e9 00 fe ff ff       	jmp    14f0 <.plt>

00000000000016f0 <fflush@plt>:
16f0:	ff 25 42 88 20 00    	jmp    QWORD PTR [rip+0x208842]        # 209f38 <fflush@GLIBC_2.2.5>
16f6:	68 1f 00 00 00       	push   0x1f
16fb:	e9 f0 fd ff ff       	jmp    14f0 <.plt>

0000000000001700 <nl_langinfo@plt>:
1700:	ff 25 3a 88 20 00    	jmp    QWORD PTR [rip+0x20883a]        # 209f40 <nl_langinfo@GLIBC_2.2.5>
1706:	68 20 00 00 00       	push   0x20
170b:	e9 e0 fd ff ff       	jmp    14f0 <.plt>

0000000000001710 <__fxstat@plt>:
1710:	ff 25 32 88 20 00    	jmp    QWORD PTR [rip+0x208832]        # 209f48 <__fxstat@GLIBC_2.2.5>
1716:	68 21 00 00 00       	push   0x21
171b:	e9 d0 fd ff ff       	jmp    14f0 <.plt>

0000000000001720 <__freading@plt>:
1720:	ff 25 2a 88 20 00    	jmp    QWORD PTR [rip+0x20882a]        # 209f50 <__freading@GLIBC_2.2.5>
1726:	68 22 00 00 00       	push   0x22
172b:	e9 c0 fd ff ff       	jmp    14f0 <.plt>

0000000000001730 <fwrite_unlocked@plt>:
1730:	ff 25 22 88 20 00    	jmp    QWORD PTR [rip+0x208822]        # 209f58 <fwrite_unlocked@GLIBC_2.2.5>
1736:	68 23 00 00 00       	push   0x23
173b:	e9 b0 fd ff ff       	jmp    14f0 <.plt>

0000000000001740 <realloc@plt>:
1740:	ff 25 1a 88 20 00    	jmp    QWORD PTR [rip+0x20881a]        # 209f60 <realloc@GLIBC_2.2.5>
1746:	68 24 00 00 00       	push   0x24
174b:	e9 a0 fd ff ff       	jmp    14f0 <.plt>

0000000000001750 <setlocale@plt>:
1750:	ff 25 12 88 20 00    	jmp    QWORD PTR [rip+0x208812]        # 209f68 <setlocale@GLIBC_2.2.5>
1756:	68 25 00 00 00       	push   0x25
175b:	e9 90 fd ff ff       	jmp    14f0 <.plt>

0000000000001760 <__printf_chk@plt>:
1760:	ff 25 0a 88 20 00    	jmp    QWORD PTR [rip+0x20880a]        # 209f70 <__printf_chk@GLIBC_2.3.4>
1766:	68 26 00 00 00       	push   0x26
176b:	e9 80 fd ff ff       	jmp    14f0 <.plt>

0000000000001770 <error@plt>:
1770:	ff 25 02 88 20 00    	jmp    QWORD PTR [rip+0x208802]        # 209f78 <error@GLIBC_2.2.5>
1776:	68 27 00 00 00       	push   0x27
177b:	e9 70 fd ff ff       	jmp    14f0 <.plt>

0000000000001780 <memrchr@plt>:
1780:	ff 25 fa 87 20 00    	jmp    QWORD PTR [rip+0x2087fa]        # 209f80 <memrchr@GLIBC_2.2.5>
1786:	68 28 00 00 00       	push   0x28
178b:	e9 60 fd ff ff       	jmp    14f0 <.plt>

0000000000001790 <open@plt>:
1790:	ff 25 f2 87 20 00    	jmp    QWORD PTR [rip+0x2087f2]        # 209f88 <open@GLIBC_2.2.5>
1796:	68 29 00 00 00       	push   0x29
179b:	e9 50 fd ff ff       	jmp    14f0 <.plt>

00000000000017a0 <fseeko@plt>:
17a0:	ff 25 ea 87 20 00    	jmp    QWORD PTR [rip+0x2087ea]        # 209f90 <fseeko@GLIBC_2.2.5>
17a6:	68 2a 00 00 00       	push   0x2a
17ab:	e9 40 fd ff ff       	jmp    14f0 <.plt>

00000000000017b0 <__cxa_atexit@plt>:
17b0:	ff 25 e2 87 20 00    	jmp    QWORD PTR [rip+0x2087e2]        # 209f98 <__cxa_atexit@GLIBC_2.2.5>
17b6:	68 2b 00 00 00       	push   0x2b
17bb:	e9 30 fd ff ff       	jmp    14f0 <.plt>

00000000000017c0 <exit@plt>:
17c0:	ff 25 da 87 20 00    	jmp    QWORD PTR [rip+0x2087da]        # 209fa0 <exit@GLIBC_2.2.5>
17c6:	68 2c 00 00 00       	push   0x2c
17cb:	e9 20 fd ff ff       	jmp    14f0 <.plt>

00000000000017d0 <fwrite@plt>:
17d0:	ff 25 d2 87 20 00    	jmp    QWORD PTR [rip+0x2087d2]        # 209fa8 <fwrite@GLIBC_2.2.5>
17d6:	68 2d 00 00 00       	push   0x2d
17db:	e9 10 fd ff ff       	jmp    14f0 <.plt>

00000000000017e0 <__fprintf_chk@plt>:
17e0:	ff 25 ca 87 20 00    	jmp    QWORD PTR [rip+0x2087ca]        # 209fb0 <__fprintf_chk@GLIBC_2.3.4>
17e6:	68 2e 00 00 00       	push   0x2e
17eb:	e9 00 fd ff ff       	jmp    14f0 <.plt>

00000000000017f0 <mbsinit@plt>:
17f0:	ff 25 c2 87 20 00    	jmp    QWORD PTR [rip+0x2087c2]        # 209fb8 <mbsinit@GLIBC_2.2.5>
17f6:	68 2f 00 00 00       	push   0x2f
17fb:	e9 f0 fc ff ff       	jmp    14f0 <.plt>

0000000000001800 <iswprint@plt>:
1800:	ff 25 ba 87 20 00    	jmp    QWORD PTR [rip+0x2087ba]        # 209fc0 <iswprint@GLIBC_2.2.5>
1806:	68 30 00 00 00       	push   0x30
180b:	e9 e0 fc ff ff       	jmp    14f0 <.plt>

0000000000001810 <__ctype_b_loc@plt>:
1810:	ff 25 b2 87 20 00    	jmp    QWORD PTR [rip+0x2087b2]        # 209fc8 <__ctype_b_loc@GLIBC_2.3>
1816:	68 31 00 00 00       	push   0x31
181b:	e9 d0 fc ff ff       	jmp    14f0 <.plt>

Disassembly of section .plt.got:

0000000000001820 <__cxa_finalize@plt>:
1820:	ff 25 ca 87 20 00    	jmp    QWORD PTR [rip+0x2087ca]        # 209ff0 <__cxa_finalize@GLIBC_2.2.5>
1826:	66 90                	xchg   ax,ax

Disassembly of section .text:

0000000000001830 <main>:
1830:	41 57                	push   r15
1832:	41 56                	push   r14
1834:	41 55                	push   r13
1836:	41 54                	push   r12
1838:	55                   	push   rbp
1839:	53                   	push   rbx
183a:	89 fd                	mov    ebp,edi
183c:	48 89 f3             	mov    rbx,rsi
183f:	48 81 ec 58 01 00 00 	sub    rsp,0x158
1846:	48 8b 3e             	mov    rdi,QWORD PTR [rsi]
1849:	64 48 8b 04 25 28 00 	mov    rax,QWORD PTR fs:0x28
1850:	00 00
1852:	48 89 84 24 48 01 00 	mov    QWORD PTR [rsp+0x148],rax
1859:	00
185a:	31 c0                	xor    eax,eax
185c:	e8 8f 20 00 00       	call   38f0 <set_program_name>
1861:	48 8d 35 b9 5d 00 00 	lea    rsi,[rip+0x5db9]        # 7621 <quoting_style_vals+0x81>
1868:	bf 06 00 00 00       	mov    edi,0x6
186d:	e8 de fe ff ff       	call   1750 <setlocale@plt>
1872:	48 8d 35 dc 50 00 00 	lea    rsi,[rip+0x50dc]        # 6955 <_IO_stdin_used+0x155>
1879:	48 8d 3d ac 50 00 00 	lea    rdi,[rip+0x50ac]        # 692c <_IO_stdin_used+0x12c>
1880:	e8 0b fd ff ff       	call   1590 <bindtextdomain@plt>
1885:	48 8d 3d a0 50 00 00 	lea    rdi,[rip+0x50a0]        # 692c <_IO_stdin_used+0x12c>
188c:	e8 df fc ff ff       	call   1570 <textdomain@plt>
1891:	48 8d 3d 38 1e 00 00 	lea    rdi,[rip+0x1e38]        # 36d0 <close_stdout>
1898:	e8 33 4f 00 00       	call   67d0 <atexit>
189d:	83 fd 01             	cmp    ebp,0x1
18a0:	c6 05 42 88 20 00 00 	mov    BYTE PTR [rip+0x208842],0x0        # 20a0e9 <have_read_stdin>
18a7:	c6 05 3d 88 20 00 00 	mov    BYTE PTR [rip+0x20883d],0x0        # 20a0eb <print_headers>
18ae:	c6 05 35 88 20 00 0a 	mov    BYTE PTR [rip+0x208835],0xa        # 20a0ea <line_end>
18b5:	7e 0d                	jle    18c4 <main+0x94>
18b7:	48 8b 73 08          	mov    rsi,QWORD PTR [rbx+0x8]
18bb:	80 3e 2d             	cmp    BYTE PTR [rsi],0x2d
18be:	0f 84 af 01 00 00    	je     1a73 <main+0x243>
18c4:	c6 84 24 8a 00 00 00 	mov    BYTE PTR [rsp+0x8a],0x1
18cb:	01
18cc:	41 bf 0a 00 00 00    	mov    r15d,0xa
18d2:	45 31 e4             	xor    r12d,r12d
18d5:	c6 84 24 89 00 00 00 	mov    BYTE PTR [rsp+0x89],0x0
18dc:	00
18dd:	41 bd 01 00 00 00    	mov    r13d,0x1
18e3:	0f 1f 44 00 00       	nop    DWORD PTR [rax+rax*1+0x0]
18e8:	48 8d 0d b1 81 20 00 	lea    rcx,[rip+0x2081b1]        # 209aa0 <long_options>
18ef:	48 8d 15 b2 50 00 00 	lea    rdx,[rip+0x50b2]        # 69a8 <_IO_stdin_used+0x1a8>
18f6:	45 31 c0             	xor    r8d,r8d
18f9:	48 89 de             	mov    rsi,rbx
18fc:	89 ef                	mov    edi,ebp
18fe:	e8 dd fc ff ff       	call   15e0 <getopt_long@plt>
1903:	83 f8 ff             	cmp    eax,0xffffffff
1906:	0f 84 dc 01 00 00    	je     1ae8 <main+0x2b8>
190c:	83 f8 6e             	cmp    eax,0x6e
190f:	0f 84 eb 00 00 00    	je     1a00 <main+0x1d0>
1915:	7e 31                	jle    1948 <main+0x118>
1917:	83 f8 76             	cmp    eax,0x76
191a:	0f 84 48 01 00 00    	je     1a68 <main+0x238>
1920:	0f 8e 2a 01 00 00    	jle    1a50 <main+0x220>
1926:	83 f8 7a             	cmp    eax,0x7a
1929:	0f 84 11 01 00 00    	je     1a40 <main+0x210>
192f:	3d 80 00 00 00       	cmp    eax,0x80
1934:	0f 85 e4 0e 00 00    	jne    281e <main+0xfee>
193a:	44 88 2d ab 87 20 00 	mov    BYTE PTR [rip+0x2087ab],r13b        # 20a0ec <presume_input_pipe>
1941:	eb a5                	jmp    18e8 <main+0xb8>
1943:	0f 1f 44 00 00       	nop    DWORD PTR [rax+rax*1+0x0]
1948:	3d 7e ff ff ff       	cmp    eax,0xffffff7e
194d:	0f 84 c4 0e 00 00    	je     2817 <main+0xfe7>
1953:	83 f8 63             	cmp    eax,0x63
1956:	74 68                	je     19c0 <main+0x190>
1958:	3d 7d ff ff ff       	cmp    eax,0xffffff7d
195d:	41 89 c6             	mov    r14d,eax
1960:	74 1e                	je     1980 <main+0x150>
1962:	41 8d 46 d0          	lea    eax,[r14-0x30]
1966:	83 f8 09             	cmp    eax,0x9
1969:	0f 86 bc 0e 00 00    	jbe    282b <main+0xffb>
196f:	bf 01 00 00 00       	mov    edi,0x1
1974:	e8 07 19 00 00       	call   3280 <usage>
1979:	0f 1f 80 00 00 00 00 	nop    DWORD PTR [rax+0x0]
1980:	48 83 ec 08          	sub    rsp,0x8
1984:	48 8b 3d 1d 87 20 00 	mov    rdi,QWORD PTR [rip+0x20871d]        # 20a0a8 <stdout@@GLIBC_2.2.5>
198b:	48 8b 0d 86 86 20 00 	mov    rcx,QWORD PTR [rip+0x208686]        # 20a018 <Version>
1992:	6a 00                	push   0x0
1994:	4c 8d 0d f0 4f 00 00 	lea    r9,[rip+0x4ff0]        # 698b <_IO_stdin_used+0x18b>
199b:	4c 8d 05 f6 4f 00 00 	lea    r8,[rip+0x4ff6]        # 6998 <_IO_stdin_used+0x198>
19a2:	48 8d 15 7f 4f 00 00 	lea    rdx,[rip+0x4f7f]        # 6928 <_IO_stdin_used+0x128>
19a9:	48 8d 35 fd 4e 00 00 	lea    rsi,[rip+0x4efd]        # 68ad <_IO_stdin_used+0xad>
19b0:	31 c0                	xor    eax,eax
19b2:	e8 89 41 00 00       	call   5b40 <version_etc>
19b7:	31 ff                	xor    edi,edi
19b9:	e8 02 fe ff ff       	call   17c0 <exit@plt>
19be:	66 90                	xchg   ax,ax
19c0:	48 8b 35 f1 86 20 00 	mov    rsi,QWORD PTR [rip+0x2086f1]        # 20a0b8 <optarg@@GLIBC_2.2.5>
19c7:	0f b6 06             	movzx  eax,BYTE PTR [rsi]
19ca:	3c 2d                	cmp    al,0x2d
19cc:	0f 94 84 24 89 00 00 	sete   BYTE PTR [rsp+0x89]
19d3:	00
19d4:	75 0b                	jne    19e1 <main+0x1b1>
19d6:	48 83 c6 01          	add    rsi,0x1
19da:	48 89 35 d7 86 20 00 	mov    QWORD PTR [rip+0x2086d7],rsi        # 20a0b8 <optarg@@GLIBC_2.2.5>
19e1:	31 ff                	xor    edi,edi
19e3:	e8 88 10 00 00       	call   2a70 <string_to_integer>
19e8:	c6 84 24 8a 00 00 00 	mov    BYTE PTR [rsp+0x8a],0x0
19ef:	00
19f0:	49 89 c7             	mov    r15,rax
19f3:	e9 f0 fe ff ff       	jmp    18e8 <main+0xb8>
19f8:	0f 1f 84 00 00 00 00 	nop    DWORD PTR [rax+rax*1+0x0]
19ff:	00
1a00:	48 8b 35 b1 86 20 00 	mov    rsi,QWORD PTR [rip+0x2086b1]        # 20a0b8 <optarg@@GLIBC_2.2.5>
1a07:	0f b6 06             	movzx  eax,BYTE PTR [rsi]
1a0a:	3c 2d                	cmp    al,0x2d
1a0c:	0f 94 84 24 89 00 00 	sete   BYTE PTR [rsp+0x89]
1a13:	00
1a14:	75 0b                	jne    1a21 <main+0x1f1>
1a16:	48 83 c6 01          	add    rsi,0x1
1a1a:	48 89 35 97 86 20 00 	mov    QWORD PTR [rip+0x208697],rsi        # 20a0b8 <optarg@@GLIBC_2.2.5>
1a21:	bf 01 00 00 00       	mov    edi,0x1
1a26:	e8 45 10 00 00       	call   2a70 <string_to_integer>
1a2b:	c6 84 24 8a 00 00 00 	mov    BYTE PTR [rsp+0x8a],0x1
1a32:	01
1a33:	49 89 c7             	mov    r15,rax
1a36:	e9 ad fe ff ff       	jmp    18e8 <main+0xb8>
1a3b:	0f 1f 44 00 00       	nop    DWORD PTR [rax+rax*1+0x0]
1a40:	c6 05 a3 86 20 00 00 	mov    BYTE PTR [rip+0x2086a3],0x0        # 20a0ea <line_end>
1a47:	e9 9c fe ff ff       	jmp    18e8 <main+0xb8>
1a4c:	0f 1f 40 00          	nop    DWORD PTR [rax+0x0]
1a50:	83 f8 71             	cmp    eax,0x71
1a53:	0f 85 c5 0d 00 00    	jne    281e <main+0xfee>
1a59:	41 bc 02 00 00 00    	mov    r12d,0x2
1a5f:	e9 84 fe ff ff       	jmp    18e8 <main+0xb8>
1a64:	0f 1f 40 00          	nop    DWORD PTR [rax+0x0]
1a68:	41 bc 01 00 00 00    	mov    r12d,0x1
1a6e:	e9 75 fe ff ff       	jmp    18e8 <main+0xb8>
1a73:	0f be 46 01          	movsx  eax,BYTE PTR [rsi+0x1]
1a77:	83 e8 30             	sub    eax,0x30
1a7a:	83 f8 09             	cmp    eax,0x9
1a7d:	0f 87 41 fe ff ff    	ja     18c4 <main+0x94>
1a83:	48 83 c6 01          	add    rsi,0x1
1a87:	48 89 f7             	mov    rdi,rsi
1a8a:	66 0f 1f 44 00 00    	nop    WORD PTR [rax+rax*1+0x0]
1a90:	48 83 c7 01          	add    rdi,0x1
1a94:	0f be 07             	movsx  eax,BYTE PTR [rdi]
1a97:	41 89 c5             	mov    r13d,eax
1a9a:	83 e8 30             	sub    eax,0x30
1a9d:	83 f8 09             	cmp    eax,0x9
1aa0:	76 ee                	jbe    1a90 <main+0x260>
1aa2:	45 84 ed             	test   r13b,r13b
1aa5:	0f 84 49 0d 00 00    	je     27f4 <main+0xfc4>
1aab:	48 8d 0d 7a 55 00 00 	lea    rcx,[rip+0x557a]        # 702c <_IO_stdin_used+0x82c>
1ab2:	48 89 fa             	mov    rdx,rdi
1ab5:	45 31 c9             	xor    r9d,r9d
1ab8:	41 ba 0a 00 00 00    	mov    r10d,0xa
1abe:	45 31 c0             	xor    r8d,r8d
1ac1:	41 bb 01 00 00 00    	mov    r11d,0x1
1ac7:	45 31 e4             	xor    r12d,r12d
1aca:	66 0f 1f 44 00 00    	nop    WORD PTR [rax+rax*1+0x0]
1ad0:	41 8d 45 9e          	lea    eax,[r13-0x62]
1ad4:	3c 18                	cmp    al,0x18
1ad6:	0f 87 78 0d 00 00    	ja     2854 <main+0x1024>
1adc:	0f b6 c0             	movzx  eax,al
1adf:	48 63 04 81          	movsxd rax,DWORD PTR [rcx+rax*4]
1ae3:	48 01 c8             	add    rax,rcx
1ae6:	ff e0                	jmp    rax
1ae8:	41 83 fc 01          	cmp    r12d,0x1
1aec:	74 10                	je     1afe <main+0x2ce>
1aee:	45 85 e4             	test   r12d,r12d
1af1:	75 12                	jne    1b05 <main+0x2d5>
1af3:	8d 45 ff             	lea    eax,[rbp-0x1]
1af6:	3b 05 b4 85 20 00    	cmp    eax,DWORD PTR [rip+0x2085b4]        # 20a0b0 <optind@@GLIBC_2.2.5>
1afc:	7e 07                	jle    1b05 <main+0x2d5>
1afe:	c6 05 e6 85 20 00 01 	mov    BYTE PTR [rip+0x2085e6],0x1        # 20a0eb <print_headers>
1b05:	80 bc 24 8a 00 00 00 	cmp    BYTE PTR [rsp+0x8a],0x0
1b0c:	00
1b0d:	75 13                	jne    1b22 <main+0x2f2>
1b0f:	80 bc 24 89 00 00 00 	cmp    BYTE PTR [rsp+0x89],0x0
1b16:	00
1b17:	74 09                	je     1b22 <main+0x2f2>
1b19:	4d 85 ff             	test   r15,r15
1b1c:	0f 88 54 0d 00 00    	js     2876 <main+0x1046>
1b22:	48 63 05 87 85 20 00 	movsxd rax,DWORD PTR [rip+0x208587]        # 20a0b0 <optind@@GLIBC_2.2.5>
1b29:	39 e8                	cmp    eax,ebp
1b2b:	0f 8d eb 04 00 00    	jge    201c <main+0x7ec>
1b31:	48 8d 14 c3          	lea    rdx,[rbx+rax*8]
1b35:	48 8b 2a             	mov    rbp,QWORD PTR [rdx]
1b38:	48 85 ed             	test   rbp,rbp
1b3b:	0f 84 02 04 00 00    	je     1f43 <main+0x713>
1b41:	48 8d 05 a2 55 00 00 	lea    rax,[rip+0x55a2]        # 70ea <_IO_stdin_used+0x8ea>
1b48:	48 89 44 24 20       	mov    QWORD PTR [rsp+0x20],rax
1b4d:	4c 89 f9             	mov    rcx,r15
1b50:	b8 00 20 00 00       	mov    eax,0x2000
1b55:	4c 89 7c 24 18       	mov    QWORD PTR [rsp+0x18],r15
1b5a:	81 e1 ff 1f 00 00    	and    ecx,0x1fff
1b60:	c6 84 24 8b 00 00 00 	mov    BYTE PTR [rsp+0x8b],0x1
1b67:	01
1b68:	48 29 c8             	sub    rax,rcx
1b6b:	48 89 4c 24 78       	mov    QWORD PTR [rsp+0x78],rcx
1b70:	48 89 44 24 60       	mov    QWORD PTR [rsp+0x60],rax
1b75:	4c 01 f8             	add    rax,r15
1b78:	48 c1 e8 0d          	shr    rax,0xd
1b7c:	48 83 c0 01          	add    rax,0x1
1b80:	48 89 44 24 28       	mov    QWORD PTR [rsp+0x28],rax
1b85:	48 d1 e8             	shr    rax,1
1b88:	48 89 44 24 58       	mov    QWORD PTR [rsp+0x58],rax
1b8d:	49 8d 87 00 20 00 00 	lea    rax,[r15+0x2000]
1b94:	49 89 ef             	mov    r15,rbp
1b97:	48 89 44 24 68       	mov    QWORD PTR [rsp+0x68],rax
1b9c:	48 01 c0             	add    rax,rax
1b9f:	48 89 44 24 70       	mov    QWORD PTR [rsp+0x70],rax
1ba4:	48 8d 42 08          	lea    rax,[rdx+0x8]
1ba8:	48 89 44 24 10       	mov    QWORD PTR [rsp+0x10],rax
1bad:	48 8d 84 24 a0 00 00 	lea    rax,[rsp+0xa0]
1bb4:	00
1bb5:	48 89 44 24 50       	mov    QWORD PTR [rsp+0x50],rax
1bba:	e9 bd 00 00 00       	jmp    1c7c <main+0x44c>
1bbf:	48 8d 35 fb 4d 00 00 	lea    rsi,[rip+0x4dfb]        # 69c1 <_IO_stdin_used+0x1c1>
1bc6:	ba 05 00 00 00       	mov    edx,0x5
1bcb:	31 ff                	xor    edi,edi
1bcd:	c6 05 15 85 20 00 01 	mov    BYTE PTR [rip+0x208515],0x1        # 20a0e9 <have_read_stdin>
1bd4:	e8 c7 f9 ff ff       	call   15a0 <dcgettext@plt>
1bd9:	c7 44 24 0c 00 00 00 	mov    DWORD PTR [rsp+0xc],0x0
1be0:	00
1be1:	49 89 c7             	mov    r15,rax
1be4:	80 3d 00 85 20 00 00 	cmp    BYTE PTR [rip+0x208500],0x0        # 20a0eb <print_headers>
1beb:	74 36                	je     1c23 <main+0x3f3>
1bed:	80 3d 1c 84 20 00 00 	cmp    BYTE PTR [rip+0x20841c],0x0        # 20a010 <first_file.6927>
1bf4:	48 8d 05 25 5a 00 00 	lea    rax,[rip+0x5a25]        # 7620 <quoting_style_vals+0x80>
1bfb:	48 8d 15 1f 5a 00 00 	lea    rdx,[rip+0x5a1f]        # 7621 <quoting_style_vals+0x81>
1c02:	48 8d 35 e2 4d 00 00 	lea    rsi,[rip+0x4de2]        # 69eb <_IO_stdin_used+0x1eb>
1c09:	4c 89 f9             	mov    rcx,r15
1c0c:	bf 01 00 00 00       	mov    edi,0x1
1c11:	48 0f 44 d0          	cmove  rdx,rax
1c15:	31 c0                	xor    eax,eax
1c17:	e8 44 fb ff ff       	call   1760 <__printf_chk@plt>
1c1c:	c6 05 ed 83 20 00 00 	mov    BYTE PTR [rip+0x2083ed],0x0        # 20a010 <first_file.6927>
1c23:	80 bc 24 89 00 00 00 	cmp    BYTE PTR [rsp+0x89],0x0
1c2a:	00
1c2b:	0f 85 82 01 00 00    	jne    1db3 <main+0x583>
1c31:	80 bc 24 8a 00 00 00 	cmp    BYTE PTR [rsp+0x8a],0x0
1c38:	00
1c39:	48 8b 54 24 18       	mov    rdx,QWORD PTR [rsp+0x18]
1c3e:	4c 89 ff             	mov    rdi,r15
1c41:	8b 74 24 0c          	mov    esi,DWORD PTR [rsp+0xc]
1c45:	0f 85 b4 02 00 00    	jne    1eff <main+0x6cf>
1c4b:	e8 20 12 00 00       	call   2e70 <head_bytes>
1c50:	41 89 c4             	mov    r12d,eax
1c53:	45 85 ed             	test   r13d,r13d
1c56:	0f 85 25 01 00 00    	jne    1d81 <main+0x551>
1c5c:	48 83 44 24 10 08    	add    QWORD PTR [rsp+0x10],0x8
1c62:	44 20 a4 24 8b 00 00 	and    BYTE PTR [rsp+0x8b],r12b
1c69:	00
1c6a:	48 8b 44 24 10       	mov    rax,QWORD PTR [rsp+0x10]
1c6f:	4c 8b 78 f8          	mov    r15,QWORD PTR [rax-0x8]
1c73:	4d 85 ff             	test   r15,r15
1c76:	0f 84 cf 02 00 00    	je     1f4b <main+0x71b>
1c7c:	48 8b 7c 24 20       	mov    rdi,QWORD PTR [rsp+0x20]
1c81:	b9 02 00 00 00       	mov    ecx,0x2
1c86:	4c 89 fe             	mov    rsi,r15
1c89:	f3 a6                	repz cmps BYTE PTR ds:[rsi],BYTE PTR es:[rdi]
1c8b:	0f 97 c0             	seta   al
1c8e:	1c 00                	sbb    al,0x0
1c90:	44 0f be e8          	movsx  r13d,al
1c94:	45 85 ed             	test   r13d,r13d
1c97:	0f 84 22 ff ff ff    	je     1bbf <main+0x38f>
1c9d:	31 f6                	xor    esi,esi
1c9f:	31 c0                	xor    eax,eax
1ca1:	4c 89 ff             	mov    rdi,r15
1ca4:	e8 e7 fa ff ff       	call   1790 <open@plt>
1ca9:	85 c0                	test   eax,eax
1cab:	89 44 24 0c          	mov    DWORD PTR [rsp+0xc],eax
1caf:	0f 89 2f ff ff ff    	jns    1be4 <main+0x3b4>
1cb5:	4c 89 fe             	mov    rsi,r15
1cb8:	bf 04 00 00 00       	mov    edi,0x4
1cbd:	e8 6e 36 00 00       	call   5330 <quotearg_style>
1cc2:	48 8d 35 07 4d 00 00 	lea    rsi,[rip+0x4d07]        # 69d0 <_IO_stdin_used+0x1d0>
1cc9:	48 89 c3             	mov    rbx,rax
1ccc:	ba 05 00 00 00       	mov    edx,0x5
1cd1:	31 ff                	xor    edi,edi
1cd3:	45 31 e4             	xor    r12d,r12d
1cd6:	e8 c5 f8 ff ff       	call   15a0 <dcgettext@plt>
1cdb:	48 89 c5             	mov    rbp,rax
1cde:	e8 3d f8 ff ff       	call   1520 <__errno_location@plt>
1ce3:	8b 30                	mov    esi,DWORD PTR [rax]
1ce5:	48 89 d9             	mov    rcx,rbx
1ce8:	48 89 ea             	mov    rdx,rbp
1ceb:	31 ff                	xor    edi,edi
1ced:	31 c0                	xor    eax,eax
1cef:	e8 7c fa ff ff       	call   1770 <error@plt>
1cf4:	e9 63 ff ff ff       	jmp    1c5c <main+0x42c>
1cf9:	41 b9 01 00 00 00    	mov    r9d,0x1
1cff:	45 31 d2             	xor    r10d,r10d
1d02:	66 0f 1f 44 00 00    	nop    WORD PTR [rax+rax*1+0x0]
1d08:	48 83 c2 01          	add    rdx,0x1
1d0c:	44 0f b6 2a          	movzx  r13d,BYTE PTR [rdx]
1d10:	45 84 ed             	test   r13b,r13b
1d13:	0f 85 b7 fd ff ff    	jne    1ad0 <main+0x2a0>
1d19:	45 84 c9             	test   r9b,r9b
1d1c:	44 88 9c 24 8a 00 00 	mov    BYTE PTR [rsp+0x8a],r11b
1d23:	00
1d24:	0f 85 98 0b 00 00    	jne    28c2 <main+0x1092>
1d2a:	45 84 c0             	test   r8b,r8b
1d2d:	44 88 07             	mov    BYTE PTR [rdi],r8b
1d30:	74 04                	je     1d36 <main+0x506>
1d32:	c6 47 01 00          	mov    BYTE PTR [rdi+0x1],0x0
1d36:	0f b6 bc 24 8a 00 00 	movzx  edi,BYTE PTR [rsp+0x8a]
1d3d:	00
1d3e:	48 83 c3 08          	add    rbx,0x8
1d42:	83 ed 01             	sub    ebp,0x1
1d45:	e8 26 0d 00 00       	call   2a70 <string_to_integer>
1d4a:	49 89 c7             	mov    r15,rax
1d4d:	48 8b 43 f8          	mov    rax,QWORD PTR [rbx-0x8]
1d51:	48 89 03             	mov    QWORD PTR [rbx],rax
1d54:	e9 7c fb ff ff       	jmp    18d5 <main+0xa5>
1d59:	41 bc 01 00 00 00    	mov    r12d,0x1
1d5f:	eb a7                	jmp    1d08 <main+0x4d8>
1d61:	41 bc 02 00 00 00    	mov    r12d,0x2
1d67:	eb 9f                	jmp    1d08 <main+0x4d8>
1d69:	41 bb 01 00 00 00    	mov    r11d,0x1
1d6f:	eb 97                	jmp    1d08 <main+0x4d8>
1d71:	45 31 c0             	xor    r8d,r8d
1d74:	45 31 db             	xor    r11d,r11d
1d77:	eb 8f                	jmp    1d08 <main+0x4d8>
1d79:	45 89 e8             	mov    r8d,r13d
1d7c:	45 31 db             	xor    r11d,r11d
1d7f:	eb 87                	jmp    1d08 <main+0x4d8>
1d81:	8b 7c 24 0c          	mov    edi,DWORD PTR [rsp+0xc]
1d85:	e8 d6 f8 ff ff       	call   1660 <close@plt>
1d8a:	85 c0                	test   eax,eax
1d8c:	0f 84 ca fe ff ff    	je     1c5c <main+0x42c>
1d92:	4c 89 fe             	mov    rsi,r15
1d95:	bf 04 00 00 00       	mov    edi,0x4
1d9a:	e8 91 35 00 00       	call   5330 <quotearg_style>
1d9f:	ba 05 00 00 00       	mov    edx,0x5
1da4:	48 89 c3             	mov    rbx,rax
1da7:	48 8d 35 5b 4c 00 00 	lea    rsi,[rip+0x4c5b]        # 6a09 <_IO_stdin_used+0x209>
1dae:	e9 1e ff ff ff       	jmp    1cd1 <main+0x4a1>
1db3:	48 8b 54 24 50       	mov    rdx,QWORD PTR [rsp+0x50]
1db8:	8b 74 24 0c          	mov    esi,DWORD PTR [rsp+0xc]
1dbc:	bf 01 00 00 00       	mov    edi,0x1
1dc1:	e8 4a f9 ff ff       	call   1710 <__fxstat@plt>
1dc6:	85 c0                	test   eax,eax
1dc8:	0f 85 0a 02 00 00    	jne    1fd8 <main+0x7a8>
1dce:	80 3d 17 83 20 00 00 	cmp    BYTE PTR [rip+0x208317],0x0        # 20a0ec <presume_input_pipe>
1dd5:	75 17                	jne    1dee <main+0x5be>
1dd7:	8b 84 24 b8 00 00 00 	mov    eax,DWORD PTR [rsp+0xb8]
1dde:	25 00 d0 00 00       	and    eax,0xd000
1de3:	3d 00 80 00 00       	cmp    eax,0x8000
1de8:	0f 84 f5 05 00 00    	je     23e3 <main+0xbb3>
1dee:	80 bc 24 8a 00 00 00 	cmp    BYTE PTR [rsp+0x8a],0x0
1df5:	00
1df6:	48 c7 44 24 40 ff ff 	mov    QWORD PTR [rsp+0x40],0xffffffffffffffff
1dfd:	ff ff
1dff:	0f 85 40 02 00 00    	jne    2045 <main+0x815>
1e05:	48 81 7c 24 18 00 00 	cmp    QWORD PTR [rsp+0x18],0x100000
1e0c:	10 00
1e0e:	48 8b 44 24 40       	mov    rax,QWORD PTR [rsp+0x40]
1e13:	48 89 44 24 30       	mov    QWORD PTR [rsp+0x30],rax
1e18:	0f 86 28 07 00 00    	jbe    2546 <main+0xd16>
1e1e:	41 ba 01 00 00 00    	mov    r10d,0x1
1e24:	44 89 ac 24 8c 00 00 	mov    DWORD PTR [rsp+0x8c],r13d
1e2b:	00
1e2c:	48 c7 44 24 48 00 00 	mov    QWORD PTR [rsp+0x48],0x0
1e33:	00 00
1e35:	31 ed                	xor    ebp,ebp
1e37:	45 31 f6             	xor    r14d,r14d
1e3a:	45 31 e4             	xor    r12d,r12d
1e3d:	31 db                	xor    ebx,ebx
1e3f:	4c 89 bc 24 80 00 00 	mov    QWORD PTR [rsp+0x80],r15
1e46:	00
1e47:	4d 89 d5             	mov    r13,r10
1e4a:	4d 85 e4             	test   r12,r12
1e4d:	0f 85 23 04 00 00    	jne    2276 <main+0xa46>
1e53:	48 8b 44 24 28       	mov    rax,QWORD PTR [rsp+0x28]
1e58:	41 bc 10 00 00 00    	mov    r12d,0x10
1e5e:	48 83 f8 10          	cmp    rax,0x10
1e62:	4c 0f 46 e0          	cmovbe r12,rax
1e66:	4a 8d 34 e5 00 00 00 	lea    rsi,[r12*8+0x0]
1e6d:	00
1e6e:	4c 89 f7             	mov    rdi,r14
1e71:	49 89 df             	mov    r15,rbx
1e74:	4c 89 e3             	mov    rbx,r12
1e77:	4d 89 ec             	mov    r12,r13
1e7a:	e8 81 3e 00 00       	call   5d00 <xrealloc>
1e7f:	49 89 c6             	mov    r14,rax
1e82:	40 84 ed             	test   bpl,bpl
1e85:	4f 8d 2c fe          	lea    r13,[r14+r15*8]
1e89:	0f 84 00 01 00 00    	je     1f8f <main+0x75f>
1e8f:	49 8b 75 00          	mov    rsi,QWORD PTR [r13+0x0]
1e93:	8b 7c 24 0c          	mov    edi,DWORD PTR [rsp+0xc]
1e97:	ba 00 20 00 00       	mov    edx,0x2000
1e9c:	e8 df 18 00 00       	call   3780 <full_read>
1ea1:	48 3d ff 1f 00 00    	cmp    rax,0x1fff
1ea7:	49 89 c5             	mov    r13,rax
1eaa:	76 60                	jbe    1f0c <main+0x6dc>
1eac:	48 01 44 24 30       	add    QWORD PTR [rsp+0x30],rax
1eb1:	45 31 c9             	xor    r9d,r9d
1eb4:	4b 8b 3c e6          	mov    rdi,QWORD PTR [r14+r12*8]
1eb8:	4c 89 ee             	mov    rsi,r13
1ebb:	44 88 4c 24 38       	mov    BYTE PTR [rsp+0x38],r9b
1ec0:	e8 cb 0c 00 00       	call   2b90 <xwrite_stdout.part.6>
1ec5:	0f b6 ac 24 89 00 00 	movzx  ebp,BYTE PTR [rsp+0x89]
1ecc:	00
1ecd:	44 0f b6 4c 24 38    	movzx  r9d,BYTE PTR [rsp+0x38]
1ed3:	49 8d 74 24 01       	lea    rsi,[r12+0x1]
1ed8:	31 d2                	xor    edx,edx
1eda:	48 89 f0             	mov    rax,rsi
1edd:	48 f7 74 24 28       	div    QWORD PTR [rsp+0x28]
1ee2:	45 84 c9             	test   r9b,r9b
1ee5:	49 89 d2             	mov    r10,rdx
1ee8:	0f 85 81 05 00 00    	jne    246f <main+0xc3f>
1eee:	4c 39 e3             	cmp    rbx,r12
1ef1:	4d 89 e7             	mov    r15,r12
1ef4:	0f 84 3d 01 00 00    	je     2037 <main+0x807>
1efa:	49 89 d4             	mov    r12,rdx
1efd:	eb 83                	jmp    1e82 <main+0x652>
1eff:	e8 dc 0d 00 00       	call   2ce0 <head_lines>
1f04:	41 89 c4             	mov    r12d,eax
1f07:	e9 47 fd ff ff       	jmp    1c53 <main+0x423>
1f0c:	e8 0f f6 ff ff       	call   1520 <__errno_location@plt>
1f11:	83 38 00             	cmp    DWORD PTR [rax],0x0
1f14:	0f 85 ba 07 00 00    	jne    26d4 <main+0xea4>
1f1a:	44 0f b6 8c 24 89 00 	movzx  r9d,BYTE PTR [rsp+0x89]
1f21:	00 00
1f23:	4d 8d 57 01          	lea    r10,[r15+0x1]
1f27:	4c 3b 54 24 28       	cmp    r10,QWORD PTR [rsp+0x28]
1f2c:	0f 94 c0             	sete   al
1f2f:	40 08 c5             	or     bpl,al
1f32:	74 9f                	je     1ed3 <main+0x6a3>
1f34:	4c 01 6c 24 30       	add    QWORD PTR [rsp+0x30],r13
1f39:	4d 85 ed             	test   r13,r13
1f3c:	74 95                	je     1ed3 <main+0x6a3>
1f3e:	e9 71 ff ff ff       	jmp    1eb4 <main+0x684>
1f43:	c6 84 24 8b 00 00 00 	mov    BYTE PTR [rsp+0x8b],0x1
1f4a:	01
1f4b:	80 3d 97 81 20 00 00 	cmp    BYTE PTR [rip+0x208197],0x0        # 20a0e9 <have_read_stdin>
1f52:	0f 85 35 03 00 00    	jne    228d <main+0xa5d>
1f58:	0f b6 84 24 8b 00 00 	movzx  eax,BYTE PTR [rsp+0x8b]
1f5f:	00
1f60:	83 f0 01             	xor    eax,0x1
1f63:	48 8b 8c 24 48 01 00 	mov    rcx,QWORD PTR [rsp+0x148]
1f6a:	00
1f6b:	64 48 33 0c 25 28 00 	xor    rcx,QWORD PTR fs:0x28
1f72:	00 00
1f74:	0f b6 c0             	movzx  eax,al
1f77:	0f 85 a9 08 00 00    	jne    2826 <main+0xff6>
1f7d:	48 81 c4 58 01 00 00 	add    rsp,0x158
1f84:	5b                   	pop    rbx
1f85:	5d                   	pop    rbp
1f86:	41 5c                	pop    r12
1f88:	41 5d                	pop    r13
1f8a:	41 5e                	pop    r14
1f8c:	41 5f                	pop    r15
1f8e:	c3                   	ret
1f8f:	bf 00 20 00 00       	mov    edi,0x2000
1f94:	e8 07 3d 00 00       	call   5ca0 <xmalloc>
1f99:	8b 7c 24 0c          	mov    edi,DWORD PTR [rsp+0xc]
1f9d:	4d 8d 57 01          	lea    r10,[r15+0x1]
1fa1:	49 89 45 00          	mov    QWORD PTR [r13+0x0],rax
1fa5:	ba 00 20 00 00       	mov    edx,0x2000
1faa:	48 89 c6             	mov    rsi,rax
1fad:	4c 89 54 24 48       	mov    QWORD PTR [rsp+0x48],r10
1fb2:	4c 89 54 24 38       	mov    QWORD PTR [rsp+0x38],r10
1fb7:	e8 c4 17 00 00       	call   3780 <full_read>
1fbc:	48 3d ff 1f 00 00    	cmp    rax,0x1fff
1fc2:	49 89 c5             	mov    r13,rax
1fc5:	4c 8b 54 24 38       	mov    r10,QWORD PTR [rsp+0x38]
1fca:	0f 86 3c ff ff ff    	jbe    1f0c <main+0x6dc>
1fd0:	45 31 c9             	xor    r9d,r9d
1fd3:	e9 4f ff ff ff       	jmp    1f27 <main+0x6f7>
1fd8:	4c 89 fe             	mov    rsi,r15
1fdb:	bf 04 00 00 00       	mov    edi,0x4
1fe0:	45 31 e4             	xor    r12d,r12d
1fe3:	e8 48 33 00 00       	call   5330 <quotearg_style>
1fe8:	48 8d 35 0a 4a 00 00 	lea    rsi,[rip+0x4a0a]        # 69f9 <_IO_stdin_used+0x1f9>
1fef:	ba 05 00 00 00       	mov    edx,0x5
1ff4:	31 ff                	xor    edi,edi
1ff6:	48 89 c3             	mov    rbx,rax
1ff9:	e8 a2 f5 ff ff       	call   15a0 <dcgettext@plt>
1ffe:	48 89 c5             	mov    rbp,rax
2001:	e8 1a f5 ff ff       	call   1520 <__errno_location@plt>
2006:	8b 30                	mov    esi,DWORD PTR [rax]
2008:	48 89 d9             	mov    rcx,rbx
200b:	48 89 ea             	mov    rdx,rbp
200e:	31 ff                	xor    edi,edi
2010:	31 c0                	xor    eax,eax
2012:	e8 59 f7 ff ff       	call   1770 <error@plt>
2017:	e9 37 fc ff ff       	jmp    1c53 <main+0x423>
201c:	48 8d 05 c7 50 00 00 	lea    rax,[rip+0x50c7]        # 70ea <_IO_stdin_used+0x8ea>
2023:	48 8d 15 56 7a 20 00 	lea    rdx,[rip+0x207a56]        # 209a80 <default_file_list.7140>
202a:	48 89 44 24 20       	mov    QWORD PTR [rsp+0x20],rax
202f:	48 89 c5             	mov    rbp,rax
2032:	e9 16 fb ff ff       	jmp    1b4d <main+0x31d>
2037:	49 89 dc             	mov    r12,rbx
203a:	4d 89 d5             	mov    r13,r10
203d:	4c 89 fb             	mov    rbx,r15
2040:	e9 05 fe ff ff       	jmp    1e4a <main+0x61a>
2045:	48 8b 44 24 40       	mov    rax,QWORD PTR [rsp+0x40]
204a:	bf 18 20 00 00       	mov    edi,0x2018
204f:	48 89 44 24 48       	mov    QWORD PTR [rsp+0x48],rax
2054:	e8 47 3c 00 00       	call   5ca0 <xmalloc>
2059:	bf 18 20 00 00       	mov    edi,0x2018
205e:	48 c7 80 08 20 00 00 	mov    QWORD PTR [rax+0x2008],0x0
2065:	00 00 00 00
2069:	48 c7 80 00 20 00 00 	mov    QWORD PTR [rax+0x2000],0x0
2070:	00 00 00 00
2074:	48 c7 80 10 20 00 00 	mov    QWORD PTR [rax+0x2010],0x0
207b:	00 00 00 00
207f:	48 89 c5             	mov    rbp,rax
2082:	48 89 44 24 30       	mov    QWORD PTR [rsp+0x30],rax
2087:	e8 14 3c 00 00       	call   5ca0 <xmalloc>
208c:	48 c7 44 24 38 00 00 	mov    QWORD PTR [rsp+0x38],0x0
2093:	00 00
2095:	48 89 c3             	mov    rbx,rax
2098:	4c 89 bc 24 80 00 00 	mov    QWORD PTR [rsp+0x80],r15
209f:	00
20a0:	44 89 ac 24 8c 00 00 	mov    DWORD PTR [rsp+0x8c],r13d
20a7:	00
20a8:	8b 7c 24 0c          	mov    edi,DWORD PTR [rsp+0xc]
20ac:	ba 00 20 00 00       	mov    edx,0x2000
20b1:	48 89 de             	mov    rsi,rbx
20b4:	e8 67 35 00 00       	call   5620 <safe_read>
20b9:	49 89 c4             	mov    r12,rax
20bc:	48 8d 40 ff          	lea    rax,[rax-0x1]
20c0:	48 83 f8 fd          	cmp    rax,0xfffffffffffffffd
20c4:	0f 87 ed 00 00 00    	ja     21b7 <main+0x987>
20ca:	48 83 7c 24 18 00    	cmp    QWORD PTR [rsp+0x18],0x0
20d0:	75 12                	jne    20e4 <main+0x8b4>
20d2:	4c 89 e6             	mov    rsi,r12
20d5:	48 89 df             	mov    rdi,rbx
20d8:	4c 01 64 24 48       	add    QWORD PTR [rsp+0x48],r12
20dd:	e8 ae 0a 00 00       	call   2b90 <xwrite_stdout.part.6>
20e2:	eb c4                	jmp    20a8 <main+0x878>
20e4:	4c 89 a3 00 20 00 00 	mov    QWORD PTR [rbx+0x2000],r12
20eb:	48 c7 83 08 20 00 00 	mov    QWORD PTR [rbx+0x2008],0x0
20f2:	00 00 00 00
20f6:	4e 8d 34 23          	lea    r14,[rbx+r12*1]
20fa:	48 c7 83 10 20 00 00 	mov    QWORD PTR [rbx+0x2010],0x0
2101:	00 00 00 00
2105:	44 0f be 3d dd 7f 20 	movsx  r15d,BYTE PTR [rip+0x207fdd]        # 20a0ea <line_end>
210c:	00
210d:	48 89 df             	mov    rdi,rbx
2110:	45 31 ed             	xor    r13d,r13d
2113:	eb 11                	jmp    2126 <main+0x8f6>
2115:	0f 1f 00             	nop    DWORD PTR [rax]
2118:	48 8d 78 01          	lea    rdi,[rax+0x1]
211c:	48 89 93 08 20 00 00 	mov    QWORD PTR [rbx+0x2008],rdx
2123:	49 89 d5             	mov    r13,rdx
2126:	4c 89 f2             	mov    rdx,r14
2129:	44 89 fe             	mov    esi,r15d
212c:	48 29 fa             	sub    rdx,rdi
212f:	e8 3c f5 ff ff       	call   1670 <memchr@plt>
2134:	48 85 c0             	test   rax,rax
2137:	49 8d 55 01          	lea    rdx,[r13+0x1]
213b:	75 db                	jne    2118 <main+0x8e8>
213d:	48 8b 44 24 30       	mov    rax,QWORD PTR [rsp+0x30]
2142:	4c 01 6c 24 38       	add    QWORD PTR [rsp+0x38],r13
2147:	48 8b 80 00 20 00 00 	mov    rax,QWORD PTR [rax+0x2000]
214e:	49 8d 14 04          	lea    rdx,[r12+rax*1]
2152:	48 81 fa ff 1f 00 00 	cmp    rdx,0x1fff
2159:	0f 86 e2 00 00 00    	jbe    2241 <main+0xa11>
215f:	48 8b 44 24 30       	mov    rax,QWORD PTR [rsp+0x30]
2164:	48 89 98 10 20 00 00 	mov    QWORD PTR [rax+0x2010],rbx
216b:	48 8b 44 24 38       	mov    rax,QWORD PTR [rsp+0x38]
2170:	48 2b 85 08 20 00 00 	sub    rax,QWORD PTR [rbp+0x2008]
2177:	48 39 44 24 18       	cmp    QWORD PTR [rsp+0x18],rax
217c:	0f 83 26 02 00 00    	jae    23a8 <main+0xb78>
2182:	48 8b b5 00 20 00 00 	mov    rsi,QWORD PTR [rbp+0x2000]
2189:	48 01 74 24 48       	add    QWORD PTR [rsp+0x48],rsi
218e:	48 85 f6             	test   rsi,rsi
2191:	0f 85 a2 03 00 00    	jne    2539 <main+0xd09>
2197:	48 8b 8d 08 20 00 00 	mov    rcx,QWORD PTR [rbp+0x2008]
219e:	48 89 5c 24 30       	mov    QWORD PTR [rsp+0x30],rbx
21a3:	48 89 eb             	mov    rbx,rbp
21a6:	48 29 4c 24 38       	sub    QWORD PTR [rsp+0x38],rcx
21ab:	48 8b ad 10 20 00 00 	mov    rbp,QWORD PTR [rbp+0x2010]
21b2:	e9 f1 fe ff ff       	jmp    20a8 <main+0x878>
21b7:	48 89 df             	mov    rdi,rbx
21ba:	4c 8b bc 24 80 00 00 	mov    r15,QWORD PTR [rsp+0x80]
21c1:	00
21c2:	44 8b ac 24 8c 00 00 	mov    r13d,DWORD PTR [rsp+0x8c]
21c9:	00
21ca:	e8 31 f3 ff ff       	call   1500 <free@plt>
21cf:	49 83 c4 01          	add    r12,0x1
21d3:	0f 84 4c 05 00 00    	je     2725 <main+0xef5>
21d9:	48 8b 4c 24 30       	mov    rcx,QWORD PTR [rsp+0x30]
21de:	48 8b 81 00 20 00 00 	mov    rax,QWORD PTR [rcx+0x2000]
21e5:	48 85 c0             	test   rax,rax
21e8:	0f 85 d1 01 00 00    	jne    23bf <main+0xb8f>
21ee:	49 89 ee             	mov    r14,rbp
21f1:	48 89 6c 24 30       	mov    QWORD PTR [rsp+0x30],rbp
21f6:	48 8b 5c 24 18       	mov    rbx,QWORD PTR [rsp+0x18]
21fb:	4c 8b 64 24 38       	mov    r12,QWORD PTR [rsp+0x38]
2200:	48 8b 6c 24 48       	mov    rbp,QWORD PTR [rsp+0x48]
2205:	eb 0e                	jmp    2215 <main+0x9e5>
2207:	4d 2b a6 08 20 00 00 	sub    r12,QWORD PTR [r14+0x2008]
220e:	4d 8b b6 10 20 00 00 	mov    r14,QWORD PTR [r14+0x2010]
2215:	4c 89 e0             	mov    rax,r12
2218:	49 2b 86 08 20 00 00 	sub    rax,QWORD PTR [r14+0x2008]
221f:	48 39 c3             	cmp    rbx,rax
2222:	0f 83 8e 00 00 00    	jae    22b6 <main+0xa86>
2228:	49 8b b6 00 20 00 00 	mov    rsi,QWORD PTR [r14+0x2000]
222f:	48 01 f5             	add    rbp,rsi
2232:	48 85 f6             	test   rsi,rsi
2235:	74 d0                	je     2207 <main+0x9d7>
2237:	4c 89 f7             	mov    rdi,r14
223a:	e8 51 09 00 00       	call   2b90 <xwrite_stdout.part.6>
223f:	eb c6                	jmp    2207 <main+0x9d7>
2241:	4c 8b 74 24 30       	mov    r14,QWORD PTR [rsp+0x30]
2246:	4c 89 e2             	mov    rdx,r12
2249:	48 89 de             	mov    rsi,rbx
224c:	49 8d 3c 06          	lea    rdi,[r14+rax*1]
2250:	e8 6b f4 ff ff       	call   16c0 <memcpy@plt>
2255:	48 8b 83 00 20 00 00 	mov    rax,QWORD PTR [rbx+0x2000]
225c:	49 01 86 00 20 00 00 	add    QWORD PTR [r14+0x2000],rax
2263:	48 8b 83 08 20 00 00 	mov    rax,QWORD PTR [rbx+0x2008]
226a:	49 01 86 08 20 00 00 	add    QWORD PTR [r14+0x2008],rax
2271:	e9 32 fe ff ff       	jmp    20a8 <main+0x878>
2276:	4c 39 64 24 58       	cmp    QWORD PTR [rsp+0x58],r12
227b:	4b 8d 04 24          	lea    rax,[r12+r12*1]
227f:	48 0f 42 44 24 28    	cmovb  rax,QWORD PTR [rsp+0x28]
2285:	49 89 c4             	mov    r12,rax
2288:	e9 d9 fb ff ff       	jmp    1e66 <main+0x636>
228d:	31 ff                	xor    edi,edi
228f:	e8 cc f3 ff ff       	call   1660 <close@plt>
2294:	85 c0                	test   eax,eax
2296:	0f 89 bc fc ff ff    	jns    1f58 <main+0x728>
229c:	e8 7f f2 ff ff       	call   1520 <__errno_location@plt>
22a1:	8b 30                	mov    esi,DWORD PTR [rax]
22a3:	48 8d 15 40 4e 00 00 	lea    rdx,[rip+0x4e40]        # 70ea <_IO_stdin_used+0x8ea>
22aa:	bf 01 00 00 00       	mov    edi,0x1
22af:	31 c0                	xor    eax,eax
22b1:	e8 ba f4 ff ff       	call   1770 <error@plt>
22b6:	48 8b 4c 24 18       	mov    rcx,QWORD PTR [rsp+0x18]
22bb:	4c 89 e0             	mov    rax,r12
22be:	48 89 6c 24 48       	mov    QWORD PTR [rsp+0x48],rbp
22c3:	44 0f b6 a4 24 89 00 	movzx  r12d,BYTE PTR [rsp+0x89]
22ca:	00 00
22cc:	48 8b 6c 24 30       	mov    rbp,QWORD PTR [rsp+0x30]
22d1:	48 39 c1             	cmp    rcx,rax
22d4:	0f 83 85 00 00 00    	jae    235f <main+0xb2f>
22da:	48 89 c3             	mov    rbx,rax
22dd:	4d 8b a6 00 20 00 00 	mov    r12,QWORD PTR [r14+0x2000]
22e4:	4c 89 f0             	mov    rax,r14
22e7:	48 29 cb             	sub    rbx,rcx
22ea:	0f be 0d f9 7d 20 00 	movsx  ecx,BYTE PTR [rip+0x207df9]        # 20a0ea <line_end>
22f1:	4c 89 f5             	mov    rbp,r14
22f4:	4d 01 f4             	add    r12,r14
22f7:	49 89 de             	mov    r14,rbx
22fa:	89 cb                	mov    ebx,ecx
22fc:	eb 25                	jmp    2323 <main+0xaf3>
22fe:	4c 89 e2             	mov    rdx,r12
2301:	89 de                	mov    esi,ebx
2303:	48 89 c7             	mov    rdi,rax
2306:	48 29 c2             	sub    rdx,rax
2309:	e8 62 f3 ff ff       	call   1670 <memchr@plt>
230e:	48 85 c0             	test   rax,rax
2311:	74 15                	je     2328 <main+0xaf8>
2313:	48 83 85 08 20 00 00 	add    QWORD PTR [rbp+0x2008],0x1
231a:	01
231b:	48 83 c0 01          	add    rax,0x1
231f:	49 83 ee 01          	sub    r14,0x1
2323:	4d 85 f6             	test   r14,r14
2326:	75 d6                	jne    22fe <main+0xace>
2328:	49 89 ee             	mov    r14,rbp
232b:	44 0f b6 a4 24 89 00 	movzx  r12d,BYTE PTR [rsp+0x89]
2332:	00 00
2334:	48 8b 6c 24 30       	mov    rbp,QWORD PTR [rsp+0x30]
2339:	4c 29 f0             	sub    rax,r14
233c:	48 01 44 24 48       	add    QWORD PTR [rsp+0x48],rax
2341:	48 85 c0             	test   rax,rax
2344:	74 19                	je     235f <main+0xb2f>
2346:	4c 89 f7             	mov    rdi,r14
2349:	48 89 c6             	mov    rsi,rax
234c:	e8 3f 08 00 00       	call   2b90 <xwrite_stdout.part.6>
2351:	44 0f b6 a4 24 89 00 	movzx  r12d,BYTE PTR [rsp+0x89]
2358:	00 00
235a:	48 89 ef             	mov    rdi,rbp
235d:	eb 14                	jmp    2373 <main+0xb43>
235f:	48 89 ef             	mov    rdi,rbp
2362:	eb 0f                	jmp    2373 <main+0xb43>
2364:	48 8b 9f 10 20 00 00 	mov    rbx,QWORD PTR [rdi+0x2010]
236b:	e8 90 f1 ff ff       	call   1500 <free@plt>
2370:	48 89 df             	mov    rdi,rbx
2373:	48 85 ff             	test   rdi,rdi
2376:	75 ec                	jne    2364 <main+0xb34>
2378:	48 83 7c 24 40 ff    	cmp    QWORD PTR [rsp+0x40],0xffffffffffffffff
237e:	0f 84 cf f8 ff ff    	je     1c53 <main+0x423>
2384:	48 8b 74 24 48       	mov    rsi,QWORD PTR [rsp+0x48]
2389:	8b 7c 24 0c          	mov    edi,DWORD PTR [rsp+0xc]
238d:	31 d2                	xor    edx,edx
238f:	4c 89 f9             	mov    rcx,r15
2392:	e8 39 07 00 00       	call   2ad0 <elseek>
2397:	48 85 c0             	test   rax,rax
239a:	0f 89 b3 f8 ff ff    	jns    1c53 <main+0x423>
23a0:	45 31 e4             	xor    r12d,r12d
23a3:	e9 ab f8 ff ff       	jmp    1c53 <main+0x423>
23a8:	bf 18 20 00 00       	mov    edi,0x2018
23ad:	e8 ee 38 00 00       	call   5ca0 <xmalloc>
23b2:	48 89 5c 24 30       	mov    QWORD PTR [rsp+0x30],rbx
23b7:	48 89 c3             	mov    rbx,rax
23ba:	e9 e9 fc ff ff       	jmp    20a8 <main+0x878>
23bf:	0f b6 1d 24 7d 20 00 	movzx  ebx,BYTE PTR [rip+0x207d24]        # 20a0ea <line_end>
23c6:	38 5c 01 ff          	cmp    BYTE PTR [rcx+rax*1-0x1],bl
23ca:	0f 84 1e fe ff ff    	je     21ee <main+0x9be>
23d0:	48 83 81 08 20 00 00 	add    QWORD PTR [rcx+0x2008],0x1
23d7:	01
23d8:	48 83 44 24 38 01    	add    QWORD PTR [rsp+0x38],0x1
23de:	e9 0b fe ff ff       	jmp    21ee <main+0x9be>
23e3:	8b 7c 24 0c          	mov    edi,DWORD PTR [rsp+0xc]
23e7:	31 f6                	xor    esi,esi
23e9:	4c 89 f9             	mov    rcx,r15
23ec:	ba 01 00 00 00       	mov    edx,0x1
23f1:	e8 da 06 00 00       	call   2ad0 <elseek>
23f6:	48 85 c0             	test   rax,rax
23f9:	48 89 44 24 40       	mov    QWORD PTR [rsp+0x40],rax
23fe:	78 a0                	js     23a0 <main+0xb70>
2400:	80 bc 24 8a 00 00 00 	cmp    BYTE PTR [rsp+0x8a],0x0
2407:	00
2408:	4c 8b 84 24 d0 00 00 	mov    r8,QWORD PTR [rsp+0xd0]
240f:	00
2410:	44 0f b6 0d d4 7c 20 	movzx  r9d,BYTE PTR [rip+0x207cd4]        # 20a0ec <presume_input_pipe>
2417:	00
2418:	0f 84 b0 04 00 00    	je     28ce <main+0x109e>
241e:	45 84 c9             	test   r9b,r9b
2421:	0f 85 1e fc ff ff    	jne    2045 <main+0x815>
2427:	48 8b 84 24 d8 00 00 	mov    rax,QWORD PTR [rsp+0xd8]
242e:	00
242f:	48 b9 ff ff ff ff ff 	movabs rcx,0x1fffffffffffffff
2436:	ff ff 1f
2439:	48 8d 50 ff          	lea    rdx,[rax-0x1]
243d:	48 39 ca             	cmp    rdx,rcx
2440:	ba 00 02 00 00       	mov    edx,0x200
2445:	48 0f 47 c2          	cmova  rax,rdx
2449:	4c 39 c0             	cmp    rax,r8
244c:	0f 8d f3 fb ff ff    	jge    2045 <main+0x815>
2452:	4c 39 44 24 40       	cmp    QWORD PTR [rsp+0x40],r8
2457:	41 b9 01 00 00 00    	mov    r9d,0x1
245d:	0f 8c 09 03 00 00    	jl     276c <main+0xf3c>
2463:	45 89 cc             	mov    r12d,r9d
2466:	41 83 e4 01          	and    r12d,0x1
246a:	e9 e4 f7 ff ff       	jmp    1c53 <main+0x423>
246f:	40 84 ed             	test   bpl,bpl
2472:	4d 89 e8             	mov    r8,r13
2475:	4c 89 e3             	mov    rbx,r12
2478:	4c 8b bc 24 80 00 00 	mov    r15,QWORD PTR [rsp+0x80]
247f:	00
2480:	40 88 6c 24 38       	mov    BYTE PTR [rsp+0x38],bpl
2485:	45 89 cc             	mov    r12d,r9d
2488:	44 8b ac 24 8c 00 00 	mov    r13d,DWORD PTR [rsp+0x8c]
248f:	00
2490:	0f 84 0f 02 00 00    	je     26a5 <main+0xe75>
2496:	48 8b 4c 24 60       	mov    rcx,QWORD PTR [rsp+0x60]
249b:	49 8b 3c de          	mov    rdi,QWORD PTR [r14+rbx*8]
249f:	bd 00 20 00 00       	mov    ebp,0x2000
24a4:	4c 29 c5             	sub    rbp,r8
24a7:	48 01 4c 24 30       	add    QWORD PTR [rsp+0x30],rcx
24ac:	4c 01 c7             	add    rdi,r8
24af:	48 39 e9             	cmp    rcx,rbp
24b2:	0f 82 4c 03 00 00    	jb     2804 <main+0xfd4>
24b8:	48 85 ed             	test   rbp,rbp
24bb:	74 18                	je     24d5 <main+0xca5>
24bd:	48 89 ee             	mov    rsi,rbp
24c0:	48 89 94 24 80 00 00 	mov    QWORD PTR [rsp+0x80],rdx
24c7:	00
24c8:	e8 c3 06 00 00       	call   2b90 <xwrite_stdout.part.6>
24cd:	48 8b 94 24 80 00 00 	mov    rdx,QWORD PTR [rsp+0x80]
24d4:	00
24d5:	48 8b 74 24 60       	mov    rsi,QWORD PTR [rsp+0x60]
24da:	44 0f b6 64 24 38    	movzx  r12d,BYTE PTR [rsp+0x38]
24e0:	48 29 ee             	sub    rsi,rbp
24e3:	0f 85 dd 01 00 00    	jne    26c6 <main+0xe96>
24e9:	31 db                	xor    ebx,ebx
24eb:	48 8b 6c 24 48       	mov    rbp,QWORD PTR [rsp+0x48]
24f0:	eb 0d                	jmp    24ff <main+0xccf>
24f2:	49 8b 3c de          	mov    rdi,QWORD PTR [r14+rbx*8]
24f6:	48 83 c3 01          	add    rbx,0x1
24fa:	e8 01 f0 ff ff       	call   1500 <free@plt>
24ff:	48 39 eb             	cmp    rbx,rbp
2502:	75 ee                	jne    24f2 <main+0xcc2>
2504:	4c 89 f7             	mov    rdi,r14
2507:	e8 f4 ef ff ff       	call   1500 <free@plt>
250c:	48 83 7c 24 40 ff    	cmp    QWORD PTR [rsp+0x40],0xffffffffffffffff
2512:	0f 84 3b f7 ff ff    	je     1c53 <main+0x423>
2518:	48 8b 74 24 30       	mov    rsi,QWORD PTR [rsp+0x30]
251d:	8b 7c 24 0c          	mov    edi,DWORD PTR [rsp+0xc]
2521:	31 d2                	xor    edx,edx
2523:	4c 89 f9             	mov    rcx,r15
2526:	e8 a5 05 00 00       	call   2ad0 <elseek>
252b:	48 85 c0             	test   rax,rax
252e:	0f 89 1f f7 ff ff    	jns    1c53 <main+0x423>
2534:	e9 67 fe ff ff       	jmp    23a0 <main+0xb70>
2539:	48 89 ef             	mov    rdi,rbp
253c:	e8 4f 06 00 00       	call   2b90 <xwrite_stdout.part.6>
2541:	e9 51 fc ff ff       	jmp    2197 <main+0x967>
2546:	48 8b 7c 24 70       	mov    rdi,QWORD PTR [rsp+0x70]
254b:	31 db                	xor    ebx,ebx
254d:	e8 4e 37 00 00       	call   5ca0 <xmalloc>
2552:	48 8b 4c 24 68       	mov    rcx,QWORD PTR [rsp+0x68]
2557:	44 0f b6 a4 24 89 00 	movzx  r12d,BYTE PTR [rsp+0x89]
255e:	00 00
2560:	48 8b 6c 24 18       	mov    rbp,QWORD PTR [rsp+0x18]
2565:	48 89 84 24 80 00 00 	mov    QWORD PTR [rsp+0x80],rax
256c:	00
256d:	48 89 84 24 90 00 00 	mov    QWORD PTR [rsp+0x90],rax
2574:	00
2575:	44 89 6c 24 48       	mov    DWORD PTR [rsp+0x48],r13d
257a:	48 01 c8             	add    rax,rcx
257d:	4c 89 7c 24 38       	mov    QWORD PTR [rsp+0x38],r15
2582:	49 89 cd             	mov    r13,rcx
2585:	48 89 84 24 98 00 00 	mov    QWORD PTR [rsp+0x98],rax
258c:	00
258d:	0f b6 c3             	movzx  eax,bl
2590:	8b 7c 24 0c          	mov    edi,DWORD PTR [rsp+0xc]
2594:	4c 89 ea             	mov    rdx,r13
2597:	4c 8b b4 c4 90 00 00 	mov    r14,QWORD PTR [rsp+rax*8+0x90]
259e:	00
259f:	4c 89 f6             	mov    rsi,r14
25a2:	e8 d9 11 00 00       	call   3780 <full_read>
25a7:	49 39 c5             	cmp    r13,rax
25aa:	49 89 c7             	mov    r15,rax
25ad:	76 5b                	jbe    260a <main+0xdda>
25af:	e8 6c ef ff ff       	call   1520 <__errno_location@plt>
25b4:	83 38 00             	cmp    DWORD PTR [rax],0x0
25b7:	0f 85 e6 01 00 00    	jne    27a3 <main+0xf73>
25bd:	4c 39 fd             	cmp    rbp,r15
25c0:	72 7f                	jb     2641 <main+0xe11>
25c2:	45 84 e4             	test   r12b,r12b
25c5:	75 1e                	jne    25e5 <main+0xdb5>
25c7:	89 d8                	mov    eax,ebx
25c9:	4c 01 7c 24 30       	add    QWORD PTR [rsp+0x30],r15
25ce:	83 f0 01             	xor    eax,0x1
25d1:	4d 85 ff             	test   r15,r15
25d4:	0f b6 c0             	movzx  eax,al
25d7:	48 8b 84 c4 90 00 00 	mov    rax,QWORD PTR [rsp+rax*8+0x90]
25de:	00
25df:	0f 85 a6 01 00 00    	jne    278b <main+0xf5b>
25e5:	44 0f b6 a4 24 89 00 	movzx  r12d,BYTE PTR [rsp+0x89]
25ec:	00 00
25ee:	4c 8b 7c 24 38       	mov    r15,QWORD PTR [rsp+0x38]
25f3:	44 8b 6c 24 48       	mov    r13d,DWORD PTR [rsp+0x48]
25f8:	48 8b bc 24 80 00 00 	mov    rdi,QWORD PTR [rsp+0x80]
25ff:	00
2600:	e8 fb ee ff ff       	call   1500 <free@plt>
2605:	e9 02 ff ff ff       	jmp    250c <main+0xcdc>
260a:	45 84 e4             	test   r12b,r12b
260d:	74 40                	je     264f <main+0xe1f>
260f:	45 31 e4             	xor    r12d,r12d
2612:	48 39 c5             	cmp    rbp,rax
2615:	0f 83 85 00 00 00    	jae    26a0 <main+0xe70>
261b:	4c 89 fa             	mov    rdx,r15
261e:	48 29 ea             	sub    rdx,rbp
2621:	48 01 54 24 30       	add    QWORD PTR [rsp+0x30],rdx
2626:	48 89 d6             	mov    rsi,rdx
2629:	4c 89 f7             	mov    rdi,r14
262c:	e8 5f 05 00 00       	call   2b90 <xwrite_stdout.part.6>
2631:	83 f3 01             	xor    ebx,0x1
2634:	45 84 e4             	test   r12b,r12b
2637:	75 58                	jne    2691 <main+0xe61>
2639:	45 31 e4             	xor    r12d,r12d
263c:	e9 4c ff ff ff       	jmp    258d <main+0xd5d>
2641:	45 84 e4             	test   r12b,r12b
2644:	75 3b                	jne    2681 <main+0xe51>
2646:	44 0f b6 a4 24 89 00 	movzx  r12d,BYTE PTR [rsp+0x89]
264d:	00 00
264f:	89 d8                	mov    eax,ebx
2651:	48 01 6c 24 30       	add    QWORD PTR [rsp+0x30],rbp
2656:	83 f0 01             	xor    eax,0x1
2659:	48 85 ed             	test   rbp,rbp
265c:	0f b6 c0             	movzx  eax,al
265f:	48 8b 84 c4 90 00 00 	mov    rax,QWORD PTR [rsp+rax*8+0x90]
2666:	00
2667:	75 07                	jne    2670 <main+0xe40>
2669:	4c 39 fd             	cmp    rbp,r15
266c:	72 ad                	jb     261b <main+0xdeb>
266e:	eb c1                	jmp    2631 <main+0xe01>
2670:	48 8d b8 00 20 00 00 	lea    rdi,[rax+0x2000]
2677:	48 89 ee             	mov    rsi,rbp
267a:	e8 11 05 00 00       	call   2b90 <xwrite_stdout.part.6>
267f:	eb e8                	jmp    2669 <main+0xe39>
2681:	4c 89 fa             	mov    rdx,r15
2684:	48 29 ea             	sub    rdx,rbp
2687:	48 01 54 24 30       	add    QWORD PTR [rsp+0x30],rdx
268c:	48 85 d2             	test   rdx,rdx
268f:	75 95                	jne    2626 <main+0xdf6>
2691:	4c 8b 7c 24 38       	mov    r15,QWORD PTR [rsp+0x38]
2696:	44 8b 6c 24 48       	mov    r13d,DWORD PTR [rsp+0x48]
269b:	e9 58 ff ff ff       	jmp    25f8 <main+0xdc8>
26a0:	83 f3 01             	xor    ebx,0x1
26a3:	eb 94                	jmp    2639 <main+0xe09>
26a5:	48 39 74 24 28       	cmp    QWORD PTR [rsp+0x28],rsi
26aa:	0f 85 39 fe ff ff    	jne    24e9 <main+0xcb9>
26b0:	4c 89 c6             	mov    rsi,r8
26b3:	48 2b 74 24 78       	sub    rsi,QWORD PTR [rsp+0x78]
26b8:	48 01 74 24 30       	add    QWORD PTR [rsp+0x30],rsi
26bd:	48 85 f6             	test   rsi,rsi
26c0:	0f 84 23 fe ff ff    	je     24e9 <main+0xcb9>
26c6:	49 8b 3c d6          	mov    rdi,QWORD PTR [r14+rdx*8]
26ca:	e8 c1 04 00 00       	call   2b90 <xwrite_stdout.part.6>
26cf:	e9 15 fe ff ff       	jmp    24e9 <main+0xcb9>
26d4:	4c 8b bc 24 80 00 00 	mov    r15,QWORD PTR [rsp+0x80]
26db:	00
26dc:	bf 04 00 00 00       	mov    edi,0x4
26e1:	49 89 c4             	mov    r12,rax
26e4:	44 8b ac 24 8c 00 00 	mov    r13d,DWORD PTR [rsp+0x8c]
26eb:	00
26ec:	4c 89 fe             	mov    rsi,r15
26ef:	e8 3c 2c 00 00       	call   5330 <quotearg_style>
26f4:	48 8d 35 84 41 00 00 	lea    rsi,[rip+0x4184]        # 687f <_IO_stdin_used+0x7f>
26fb:	ba 05 00 00 00       	mov    edx,0x5
2700:	31 ff                	xor    edi,edi
2702:	48 89 c3             	mov    rbx,rax
2705:	e8 96 ee ff ff       	call   15a0 <dcgettext@plt>
270a:	41 8b 34 24          	mov    esi,DWORD PTR [r12]
270e:	48 89 c2             	mov    rdx,rax
2711:	48 89 d9             	mov    rcx,rbx
2714:	31 ff                	xor    edi,edi
2716:	31 c0                	xor    eax,eax
2718:	45 31 e4             	xor    r12d,r12d
271b:	e8 50 f0 ff ff       	call   1770 <error@plt>
2720:	e9 c4 fd ff ff       	jmp    24e9 <main+0xcb9>
2725:	4c 89 fe             	mov    rsi,r15
2728:	bf 04 00 00 00       	mov    edi,0x4
272d:	e8 fe 2b 00 00       	call   5330 <quotearg_style>
2732:	48 8d 35 46 41 00 00 	lea    rsi,[rip+0x4146]        # 687f <_IO_stdin_used+0x7f>
2739:	ba 05 00 00 00       	mov    edx,0x5
273e:	31 ff                	xor    edi,edi
2740:	48 89 c3             	mov    rbx,rax
2743:	e8 58 ee ff ff       	call   15a0 <dcgettext@plt>
2748:	49 89 c4             	mov    r12,rax
274b:	e8 d0 ed ff ff       	call   1520 <__errno_location@plt>
2750:	8b 30                	mov    esi,DWORD PTR [rax]
2752:	4c 89 e2             	mov    rdx,r12
2755:	31 ff                	xor    edi,edi
2757:	48 89 d9             	mov    rcx,rbx
275a:	31 c0                	xor    eax,eax
275c:	45 31 e4             	xor    r12d,r12d
275f:	e8 0c f0 ff ff       	call   1770 <error@plt>
2764:	48 89 ef             	mov    rdi,rbp
2767:	e9 07 fc ff ff       	jmp    2373 <main+0xb43>
276c:	48 8b 4c 24 40       	mov    rcx,QWORD PTR [rsp+0x40]
2771:	48 8b 54 24 18       	mov    rdx,QWORD PTR [rsp+0x18]
2776:	4c 89 ff             	mov    rdi,r15
2779:	8b 74 24 0c          	mov    esi,DWORD PTR [rsp+0xc]
277d:	e8 5e 08 00 00       	call   2fe0 <elide_tail_lines_seekable>
2782:	44 0f b6 c8          	movzx  r9d,al
2786:	e9 d8 fc ff ff       	jmp    2463 <main+0xc33>
278b:	48 8d b8 00 20 00 00 	lea    rdi,[rax+0x2000]
2792:	44 0f b6 a4 24 89 00 	movzx  r12d,BYTE PTR [rsp+0x89]
2799:	00 00
279b:	4c 89 fe             	mov    rsi,r15
279e:	e9 d7 fe ff ff       	jmp    267a <main+0xe4a>
27a3:	4c 8b 7c 24 38       	mov    r15,QWORD PTR [rsp+0x38]
27a8:	bf 04 00 00 00       	mov    edi,0x4
27ad:	44 8b 6c 24 48       	mov    r13d,DWORD PTR [rsp+0x48]
27b2:	48 89 44 24 38       	mov    QWORD PTR [rsp+0x38],rax
27b7:	45 31 e4             	xor    r12d,r12d
27ba:	4c 89 fe             	mov    rsi,r15
27bd:	e8 6e 2b 00 00       	call   5330 <quotearg_style>
27c2:	48 8d 35 b6 40 00 00 	lea    rsi,[rip+0x40b6]        # 687f <_IO_stdin_used+0x7f>
27c9:	ba 05 00 00 00       	mov    edx,0x5
27ce:	31 ff                	xor    edi,edi
27d0:	48 89 c3             	mov    rbx,rax
27d3:	e8 c8 ed ff ff       	call   15a0 <dcgettext@plt>
27d8:	4c 8b 44 24 38       	mov    r8,QWORD PTR [rsp+0x38]
27dd:	48 89 c2             	mov    rdx,rax
27e0:	48 89 d9             	mov    rcx,rbx
27e3:	31 ff                	xor    edi,edi
27e5:	31 c0                	xor    eax,eax
27e7:	41 8b 30             	mov    esi,DWORD PTR [r8]
27ea:	e8 81 ef ff ff       	call   1770 <error@plt>
27ef:	e9 04 fe ff ff       	jmp    25f8 <main+0xdc8>
27f4:	45 31 e4             	xor    r12d,r12d
27f7:	c6 84 24 8a 00 00 00 	mov    BYTE PTR [rsp+0x8a],0x1
27fe:	01
27ff:	e9 32 f5 ff ff       	jmp    1d36 <main+0x506>
2804:	48 89 ce             	mov    rsi,rcx
2807:	e8 84 03 00 00       	call   2b90 <xwrite_stdout.part.6>
280c:	44 0f b6 64 24 38    	movzx  r12d,BYTE PTR [rsp+0x38]
2812:	e9 d2 fc ff ff       	jmp    24e9 <main+0xcb9>
2817:	31 ff                	xor    edi,edi
2819:	e8 62 0a 00 00       	call   3280 <usage>
281e:	41 89 c6             	mov    r14d,eax
2821:	e9 3c f1 ff ff       	jmp    1962 <main+0x132>
2826:	e8 a5 ed ff ff       	call   15d0 <__stack_chk_fail@plt>
282b:	48 8d 35 3b 41 00 00 	lea    rsi,[rip+0x413b]        # 696d <_IO_stdin_used+0x16d>
2832:	ba 05 00 00 00       	mov    edx,0x5
2837:	31 ff                	xor    edi,edi
2839:	e8 62 ed ff ff       	call   15a0 <dcgettext@plt>
283e:	44 89 f1             	mov    ecx,r14d
2841:	48 89 c2             	mov    rdx,rax
2844:	31 f6                	xor    esi,esi
2846:	31 ff                	xor    edi,edi
2848:	31 c0                	xor    eax,eax
284a:	e8 21 ef ff ff       	call   1770 <error@plt>
284f:	e9 1b f1 ff ff       	jmp    196f <main+0x13f>
2854:	45 84 c9             	test   r9b,r9b
2857:	0f 85 ef 00 00 00    	jne    294c <main+0x111c>
285d:	48 8d 35 09 41 00 00 	lea    rsi,[rip+0x4109]        # 696d <_IO_stdin_used+0x16d>
2864:	ba 05 00 00 00       	mov    edx,0x5
2869:	31 ff                	xor    edi,edi
286b:	e8 30 ed ff ff       	call   15a0 <dcgettext@plt>
2870:	41 0f be cd          	movsx  ecx,r13b
2874:	eb cb                	jmp    2841 <main+0x1011>
2876:	48 8d b4 24 30 01 00 	lea    rsi,[rsp+0x130]
287d:	00
287e:	4c 89 ff             	mov    rdi,r15
2881:	e8 1a 10 00 00       	call   38a0 <umaxtostr>
2886:	48 89 c7             	mov    rdi,rax
2889:	e8 72 2d 00 00       	call   5600 <quote>
288e:	48 8d 35 87 3f 00 00 	lea    rsi,[rip+0x3f87]        # 681c <_IO_stdin_used+0x1c>
2895:	ba 05 00 00 00       	mov    edx,0x5
289a:	31 ff                	xor    edi,edi
289c:	48 89 c3             	mov    rbx,rax
289f:	e8 fc ec ff ff       	call   15a0 <dcgettext@plt>
28a4:	48 8d 15 0f 41 00 00 	lea    rdx,[rip+0x410f]        # 69ba <_IO_stdin_used+0x1ba>
28ab:	48 89 c1             	mov    rcx,rax
28ae:	49 89 d8             	mov    r8,rbx
28b1:	be 4b 00 00 00       	mov    esi,0x4b
28b6:	bf 01 00 00 00       	mov    edi,0x1
28bb:	31 c0                	xor    eax,eax
28bd:	e8 ae ee ff ff       	call   1770 <error@plt>
28c2:	44 88 15 21 78 20 00 	mov    BYTE PTR [rip+0x207821],r10b        # 20a0ea <line_end>
28c9:	e9 5c f4 ff ff       	jmp    1d2a <main+0x4fa>
28ce:	45 84 c9             	test   r9b,r9b
28d1:	45 89 cc             	mov    r12d,r9d
28d4:	0f 85 2b f5 ff ff    	jne    1e05 <main+0x5d5>
28da:	48 8b 84 24 d8 00 00 	mov    rax,QWORD PTR [rsp+0xd8]
28e1:	00
28e2:	48 b9 ff ff ff ff ff 	movabs rcx,0x1fffffffffffffff
28e9:	ff ff 1f
28ec:	48 8d 50 ff          	lea    rdx,[rax-0x1]
28f0:	48 39 ca             	cmp    rdx,rcx
28f3:	ba 00 02 00 00       	mov    edx,0x200
28f8:	48 0f 47 c2          	cmova  rax,rdx
28fc:	49 39 c0             	cmp    r8,rax
28ff:	0f 8e 00 f5 ff ff    	jle    1e05 <main+0x5d5>
2905:	4c 2b 44 24 40       	sub    r8,QWORD PTR [rsp+0x40]
290a:	b8 00 00 00 00       	mov    eax,0x0
290f:	4c 0f 48 c0          	cmovs  r8,rax
2913:	4c 39 44 24 18       	cmp    QWORD PTR [rsp+0x18],r8
2918:	72 0e                	jb     2928 <main+0x10f8>
291a:	44 0f b6 a4 24 89 00 	movzx  r12d,BYTE PTR [rsp+0x89]
2921:	00 00
2923:	e9 2b f3 ff ff       	jmp    1c53 <main+0x423>
2928:	4c 89 c6             	mov    rsi,r8
292b:	48 2b 74 24 18       	sub    rsi,QWORD PTR [rsp+0x18]
2930:	8b 7c 24 0c          	mov    edi,DWORD PTR [rsp+0xc]
2934:	e8 d7 02 00 00       	call   2c10 <copy_fd>
2939:	85 c0                	test   eax,eax
293b:	74 dd                	je     291a <main+0x10ea>
293d:	4c 89 fe             	mov    rsi,r15
2940:	89 c7                	mov    edi,eax
2942:	e8 19 06 00 00       	call   2f60 <diagnose_copy_fd_failure>
2947:	e9 07 f3 ff ff       	jmp    1c53 <main+0x423>
294c:	44 88 15 97 77 20 00 	mov    BYTE PTR [rip+0x207797],r10b        # 20a0ea <line_end>
2953:	e9 05 ff ff ff       	jmp    285d <main+0x102d>
2958:	0f 1f 84 00 00 00 00 	nop    DWORD PTR [rax+rax*1+0x0]
295f:	00

0000000000002960 <_start>:
2960:	31 ed                	xor    ebp,ebp
2962:	49 89 d1             	mov    r9,rdx
2965:	5e                   	pop    rsi
2966:	48 89 e2             	mov    rdx,rsp
2969:	48 83 e4 f0          	and    rsp,0xfffffffffffffff0
296d:	50                   	push   rax
296e:	54                   	push   rsp
296f:	4c 8d 05 4a 3e 00 00 	lea    r8,[rip+0x3e4a]        # 67c0 <__libc_csu_fini>
2976:	48 8d 0d d3 3d 00 00 	lea    rcx,[rip+0x3dd3]        # 6750 <__libc_csu_init>
297d:	48 8d 3d ac ee ff ff 	lea    rdi,[rip+0xffffffffffffeeac]        # 1830 <main>
2984:	ff 15 4e 76 20 00    	call   QWORD PTR [rip+0x20764e]        # 209fd8 <__libc_start_main@GLIBC_2.2.5>
298a:	f4                   	hlt
298b:	0f 1f 44 00 00       	nop    DWORD PTR [rax+rax*1+0x0]

0000000000002990 <deregister_tm_clones>:
2990:	48 8d 3d 09 77 20 00 	lea    rdi,[rip+0x207709]        # 20a0a0 <__progname@@GLIBC_2.2.5>
2997:	55                   	push   rbp
2998:	48 8d 05 01 77 20 00 	lea    rax,[rip+0x207701]        # 20a0a0 <__progname@@GLIBC_2.2.5>
299f:	48 39 f8             	cmp    rax,rdi
29a2:	48 89 e5             	mov    rbp,rsp
29a5:	74 19                	je     29c0 <deregister_tm_clones+0x30>
29a7:	48 8b 05 22 76 20 00 	mov    rax,QWORD PTR [rip+0x207622]        # 209fd0 <_ITM_deregisterTMCloneTable>
29ae:	48 85 c0             	test   rax,rax
29b1:	74 0d                	je     29c0 <deregister_tm_clones+0x30>
29b3:	5d                   	pop    rbp
29b4:	ff e0                	jmp    rax
29b6:	66 2e 0f 1f 84 00 00 	nop    WORD PTR cs:[rax+rax*1+0x0]
29bd:	00 00 00
29c0:	5d                   	pop    rbp
29c1:	c3                   	ret
29c2:	0f 1f 40 00          	nop    DWORD PTR [rax+0x0]
29c6:	66 2e 0f 1f 84 00 00 	nop    WORD PTR cs:[rax+rax*1+0x0]
29cd:	00 00 00

00000000000029d0 <register_tm_clones>:
29d0:	48 8d 3d c9 76 20 00 	lea    rdi,[rip+0x2076c9]        # 20a0a0 <__progname@@GLIBC_2.2.5>
29d7:	48 8d 35 c2 76 20 00 	lea    rsi,[rip+0x2076c2]        # 20a0a0 <__progname@@GLIBC_2.2.5>
29de:	55                   	push   rbp
29df:	48 29 fe             	sub    rsi,rdi
29e2:	48 89 e5             	mov    rbp,rsp
29e5:	48 c1 fe 03          	sar    rsi,0x3
29e9:	48 89 f0             	mov    rax,rsi
29ec:	48 c1 e8 3f          	shr    rax,0x3f
29f0:	48 01 c6             	add    rsi,rax
29f3:	48 d1 fe             	sar    rsi,1
29f6:	74 18                	je     2a10 <register_tm_clones+0x40>
29f8:	48 8b 05 e9 75 20 00 	mov    rax,QWORD PTR [rip+0x2075e9]        # 209fe8 <_ITM_registerTMCloneTable>
29ff:	48 85 c0             	test   rax,rax
2a02:	74 0c                	je     2a10 <register_tm_clones+0x40>
2a04:	5d                   	pop    rbp
2a05:	ff e0                	jmp    rax
2a07:	66 0f 1f 84 00 00 00 	nop    WORD PTR [rax+rax*1+0x0]
2a0e:	00 00
2a10:	5d                   	pop    rbp
2a11:	c3                   	ret
2a12:	0f 1f 40 00          	nop    DWORD PTR [rax+0x0]
2a16:	66 2e 0f 1f 84 00 00 	nop    WORD PTR cs:[rax+rax*1+0x0]
2a1d:	00 00 00

0000000000002a20 <__do_global_dtors_aux>:
2a20:	80 3d c1 76 20 00 00 	cmp    BYTE PTR [rip+0x2076c1],0x0        # 20a0e8 <completed.7697>
2a27:	75 2f                	jne    2a58 <__do_global_dtors_aux+0x38>
2a29:	48 83 3d bf 75 20 00 	cmp    QWORD PTR [rip+0x2075bf],0x0        # 209ff0 <__cxa_finalize@GLIBC_2.2.5>
2a30:	00
2a31:	55                   	push   rbp
2a32:	48 89 e5             	mov    rbp,rsp
2a35:	74 0c                	je     2a43 <__do_global_dtors_aux+0x23>
2a37:	48 8b 3d ca 75 20 00 	mov    rdi,QWORD PTR [rip+0x2075ca]        # 20a008 <__dso_handle>
2a3e:	e8 dd ed ff ff       	call   1820 <__cxa_finalize@plt>
2a43:	e8 48 ff ff ff       	call   2990 <deregister_tm_clones>
2a48:	c6 05 99 76 20 00 01 	mov    BYTE PTR [rip+0x207699],0x1        # 20a0e8 <completed.7697>
2a4f:	5d                   	pop    rbp
2a50:	c3                   	ret
2a51:	0f 1f 80 00 00 00 00 	nop    DWORD PTR [rax+0x0]
2a58:	f3 c3                	repz ret
2a5a:	66 0f 1f 44 00 00    	nop    WORD PTR [rax+rax*1+0x0]

0000000000002a60 <frame_dummy>:
2a60:	55                   	push   rbp
2a61:	48 89 e5             	mov    rbp,rsp
2a64:	5d                   	pop    rbp
2a65:	e9 66 ff ff ff       	jmp    29d0 <register_tm_clones>
2a6a:	66 0f 1f 44 00 00    	nop    WORD PTR [rax+rax*1+0x0]

0000000000002a70 <string_to_integer>:
2a70:	40 84 ff             	test   dil,dil
2a73:	53                   	push   rbx
2a74:	ba 05 00 00 00       	mov    edx,0x5
2a79:	48 89 f3             	mov    rbx,rsi
2a7c:	75 32                	jne    2ab0 <string_to_integer+0x40>
2a7e:	48 8d 35 97 3d 00 00 	lea    rsi,[rip+0x3d97]        # 681c <_IO_stdin_used+0x1c>
2a85:	31 ff                	xor    edi,edi
2a87:	e8 14 eb ff ff       	call   15a0 <dcgettext@plt>
2a8c:	49 89 c0             	mov    r8,rax
2a8f:	48 89 df             	mov    rdi,rbx
2a92:	48 8d 0d 9b 3d 00 00 	lea    rcx,[rip+0x3d9b]        # 6834 <_IO_stdin_used+0x34>
2a99:	45 31 c9             	xor    r9d,r9d
2a9c:	5b                   	pop    rbx
2a9d:	48 c7 c2 ff ff ff ff 	mov    rdx,0xffffffffffffffff
2aa4:	31 f6                	xor    esi,esi
2aa6:	e9 85 35 00 00       	jmp    6030 <xdectoumax>
2aab:	0f 1f 44 00 00       	nop    DWORD PTR [rax+rax*1+0x0]
2ab0:	48 8d 35 4d 3d 00 00 	lea    rsi,[rip+0x3d4d]        # 6804 <_IO_stdin_used+0x4>
2ab7:	31 ff                	xor    edi,edi
2ab9:	e8 e2 ea ff ff       	call   15a0 <dcgettext@plt>
2abe:	49 89 c0             	mov    r8,rax
2ac1:	eb cc                	jmp    2a8f <string_to_integer+0x1f>
2ac3:	0f 1f 00             	nop    DWORD PTR [rax]
2ac6:	66 2e 0f 1f 84 00 00 	nop    WORD PTR cs:[rax+rax*1+0x0]
2acd:	00 00 00

0000000000002ad0 <elseek>:
2ad0:	41 55                	push   r13
2ad2:	41 54                	push   r12
2ad4:	49 89 cd             	mov    r13,rcx
2ad7:	55                   	push   rbp
2ad8:	53                   	push   rbx
2ad9:	49 89 f4             	mov    r12,rsi
2adc:	89 d5                	mov    ebp,edx
2ade:	48 83 ec 28          	sub    rsp,0x28
2ae2:	64 48 8b 04 25 28 00 	mov    rax,QWORD PTR fs:0x28
2ae9:	00 00
2aeb:	48 89 44 24 18       	mov    QWORD PTR [rsp+0x18],rax
2af0:	31 c0                	xor    eax,eax
2af2:	e8 29 eb ff ff       	call   1620 <lseek@plt>
2af7:	48 85 c0             	test   rax,rax
2afa:	48 89 c3             	mov    rbx,rax
2afd:	78 21                	js     2b20 <elseek+0x50>
2aff:	48 8b 4c 24 18       	mov    rcx,QWORD PTR [rsp+0x18]
2b04:	64 48 33 0c 25 28 00 	xor    rcx,QWORD PTR fs:0x28
2b0b:	00 00
2b0d:	48 89 d8             	mov    rax,rbx
2b10:	75 6c                	jne    2b7e <elseek+0xae>
2b12:	48 83 c4 28          	add    rsp,0x28
2b16:	5b                   	pop    rbx
2b17:	5d                   	pop    rbp
2b18:	41 5c                	pop    r12
2b1a:	41 5d                	pop    r13
2b1c:	c3                   	ret
2b1d:	0f 1f 00             	nop    DWORD PTR [rax]
2b20:	48 89 e6             	mov    rsi,rsp
2b23:	4c 89 e7             	mov    rdi,r12
2b26:	e8 d5 0c 00 00       	call   3800 <offtostr>
2b2b:	4c 89 ea             	mov    rdx,r13
2b2e:	31 ff                	xor    edi,edi
2b30:	be 03 00 00 00       	mov    esi,0x3
2b35:	49 89 c4             	mov    r12,rax
2b38:	e8 f3 28 00 00       	call   5430 <quotearg_n_style_colon>
2b3d:	48 8d 35 fd 3c 00 00 	lea    rsi,[rip+0x3cfd]        # 6841 <_IO_stdin_used+0x41>
2b44:	49 89 c5             	mov    r13,rax
2b47:	48 8d 05 1a 3f 00 00 	lea    rax,[rip+0x3f1a]        # 6a68 <_IO_stdin_used+0x268>
2b4e:	85 ed                	test   ebp,ebp
2b50:	ba 05 00 00 00       	mov    edx,0x5
2b55:	48 0f 45 f0          	cmovne rsi,rax
2b59:	31 ff                	xor    edi,edi
2b5b:	e8 40 ea ff ff       	call   15a0 <dcgettext@plt>
2b60:	48 89 c5             	mov    rbp,rax
2b63:	e8 b8 e9 ff ff       	call   1520 <__errno_location@plt>
2b68:	8b 30                	mov    esi,DWORD PTR [rax]
2b6a:	4d 89 e0             	mov    r8,r12
2b6d:	4c 89 e9             	mov    rcx,r13
2b70:	48 89 ea             	mov    rdx,rbp
2b73:	31 ff                	xor    edi,edi
2b75:	31 c0                	xor    eax,eax
2b77:	e8 f4 eb ff ff       	call   1770 <error@plt>
2b7c:	eb 81                	jmp    2aff <elseek+0x2f>
2b7e:	e8 4d ea ff ff       	call   15d0 <__stack_chk_fail@plt>
2b83:	0f 1f 00             	nop    DWORD PTR [rax]
2b86:	66 2e 0f 1f 84 00 00 	nop    WORD PTR cs:[rax+rax*1+0x0]
2b8d:	00 00 00

0000000000002b90 <xwrite_stdout.part.6>:
2b90:	55                   	push   rbp
2b91:	53                   	push   rbx
2b92:	48 89 f2             	mov    rdx,rsi
2b95:	48 89 f3             	mov    rbx,rsi
2b98:	be 01 00 00 00       	mov    esi,0x1
2b9d:	48 83 ec 08          	sub    rsp,0x8
2ba1:	48 8b 0d 00 75 20 00 	mov    rcx,QWORD PTR [rip+0x207500]        # 20a0a8 <stdout@@GLIBC_2.2.5>
2ba8:	e8 83 eb ff ff       	call   1730 <fwrite_unlocked@plt>
2bad:	48 39 c3             	cmp    rbx,rax
2bb0:	77 07                	ja     2bb9 <xwrite_stdout.part.6+0x29>
2bb2:	48 83 c4 08          	add    rsp,0x8
2bb6:	5b                   	pop    rbx
2bb7:	5d                   	pop    rbp
2bb8:	c3                   	ret
2bb9:	48 8b 3d e8 74 20 00 	mov    rdi,QWORD PTR [rip+0x2074e8]        # 20a0a8 <stdout@@GLIBC_2.2.5>
2bc0:	e8 9b e9 ff ff       	call   1560 <clearerr_unlocked@plt>
2bc5:	48 8d 35 92 3c 00 00 	lea    rsi,[rip+0x3c92]        # 685e <_IO_stdin_used+0x5e>
2bcc:	bf 04 00 00 00       	mov    edi,0x4
2bd1:	e8 5a 27 00 00       	call   5330 <quotearg_style>
2bd6:	48 8d 35 91 3c 00 00 	lea    rsi,[rip+0x3c91]        # 686e <_IO_stdin_used+0x6e>
2bdd:	ba 05 00 00 00       	mov    edx,0x5
2be2:	31 ff                	xor    edi,edi
2be4:	48 89 c5             	mov    rbp,rax
2be7:	e8 b4 e9 ff ff       	call   15a0 <dcgettext@plt>
2bec:	48 89 c3             	mov    rbx,rax
2bef:	e8 2c e9 ff ff       	call   1520 <__errno_location@plt>
2bf4:	8b 30                	mov    esi,DWORD PTR [rax]
2bf6:	48 89 e9             	mov    rcx,rbp
2bf9:	48 89 da             	mov    rdx,rbx
2bfc:	bf 01 00 00 00       	mov    edi,0x1
2c01:	31 c0                	xor    eax,eax
2c03:	e8 68 eb ff ff       	call   1770 <error@plt>
2c08:	0f 1f 84 00 00 00 00 	nop    DWORD PTR [rax+rax*1+0x0]
2c0f:	00

0000000000002c10 <copy_fd>:
2c10:	41 55                	push   r13
2c12:	41 54                	push   r12
2c14:	55                   	push   rbp
2c15:	53                   	push   rbx
2c16:	48 81 ec 18 20 00 00 	sub    rsp,0x2018
2c1d:	64 48 8b 04 25 28 00 	mov    rax,QWORD PTR fs:0x28
2c24:	00 00
2c26:	48 89 84 24 08 20 00 	mov    QWORD PTR [rsp+0x2008],rax
2c2d:	00
2c2e:	31 c0                	xor    eax,eax
2c30:	48 85 f6             	test   rsi,rsi
2c33:	74 61                	je     2c96 <copy_fd+0x86>
2c35:	41 89 fc             	mov    r12d,edi
2c38:	48 89 f3             	mov    rbx,rsi
2c3b:	48 89 e5             	mov    rbp,rsp
2c3e:	41 bd 00 20 00 00    	mov    r13d,0x2000
2c44:	eb 0f                	jmp    2c55 <copy_fd+0x45>
2c46:	66 2e 0f 1f 84 00 00 	nop    WORD PTR cs:[rax+rax*1+0x0]
2c4d:	00 00 00
2c50:	48 85 db             	test   rbx,rbx
2c53:	74 41                	je     2c96 <copy_fd+0x86>
2c55:	48 81 fb 00 20 00 00 	cmp    rbx,0x2000
2c5c:	4c 89 ea             	mov    rdx,r13
2c5f:	48 89 ee             	mov    rsi,rbp
2c62:	48 0f 46 d3          	cmovbe rdx,rbx
2c66:	44 89 e7             	mov    edi,r12d
2c69:	e8 b2 29 00 00       	call   5620 <safe_read>
2c6e:	48 83 f8 ff          	cmp    rax,0xffffffffffffffff
2c72:	74 4c                	je     2cc0 <copy_fd+0xb0>
2c74:	48 29 c3             	sub    rbx,rax
2c77:	48 85 c0             	test   rax,rax
2c7a:	75 05                	jne    2c81 <copy_fd+0x71>
2c7c:	48 85 db             	test   rbx,rbx
2c7f:	75 4f                	jne    2cd0 <copy_fd+0xc0>
2c81:	48 85 c0             	test   rax,rax
2c84:	74 ca                	je     2c50 <copy_fd+0x40>
2c86:	48 89 c6             	mov    rsi,rax
2c89:	48 89 ef             	mov    rdi,rbp
2c8c:	e8 ff fe ff ff       	call   2b90 <xwrite_stdout.part.6>
2c91:	48 85 db             	test   rbx,rbx
2c94:	75 bf                	jne    2c55 <copy_fd+0x45>
2c96:	31 c0                	xor    eax,eax
2c98:	48 8b 8c 24 08 20 00 	mov    rcx,QWORD PTR [rsp+0x2008]
2c9f:	00
2ca0:	64 48 33 0c 25 28 00 	xor    rcx,QWORD PTR fs:0x28
2ca7:	00 00
2ca9:	75 2c                	jne    2cd7 <copy_fd+0xc7>
2cab:	48 81 c4 18 20 00 00 	add    rsp,0x2018
2cb2:	5b                   	pop    rbx
2cb3:	5d                   	pop    rbp
2cb4:	41 5c                	pop    r12
2cb6:	41 5d                	pop    r13
2cb8:	c3                   	ret
2cb9:	0f 1f 80 00 00 00 00 	nop    DWORD PTR [rax+0x0]
2cc0:	b8 01 00 00 00       	mov    eax,0x1
2cc5:	eb d1                	jmp    2c98 <copy_fd+0x88>
2cc7:	66 0f 1f 84 00 00 00 	nop    WORD PTR [rax+rax*1+0x0]
2cce:	00 00
2cd0:	b8 02 00 00 00       	mov    eax,0x2
2cd5:	eb c1                	jmp    2c98 <copy_fd+0x88>
2cd7:	e8 f4 e8 ff ff       	call   15d0 <__stack_chk_fail@plt>
2cdc:	0f 1f 40 00          	nop    DWORD PTR [rax+0x0]

0000000000002ce0 <head_lines>:
2ce0:	41 57                	push   r15
2ce2:	41 56                	push   r14
2ce4:	41 55                	push   r13
2ce6:	41 54                	push   r12
2ce8:	55                   	push   rbp
2ce9:	53                   	push   rbx
2cea:	48 81 ec a8 20 00 00 	sub    rsp,0x20a8
2cf1:	64 48 8b 04 25 28 00 	mov    rax,QWORD PTR fs:0x28
2cf8:	00 00
2cfa:	48 89 84 24 98 20 00 	mov    QWORD PTR [rsp+0x2098],rax
2d01:	00
2d02:	31 c0                	xor    eax,eax
2d04:	48 85 d2             	test   rdx,rdx
2d07:	0f 84 0b 01 00 00    	je     2e18 <head_lines+0x138>
2d0d:	48 8d ac 24 90 00 00 	lea    rbp,[rsp+0x90]
2d14:	00
2d15:	4c 8d bc 24 8f 00 00 	lea    r15,[rsp+0x8f]
2d1c:	00
2d1d:	49 89 fd             	mov    r13,rdi
2d20:	41 89 f4             	mov    r12d,esi
2d23:	49 89 d6             	mov    r14,rdx
2d26:	ba 00 20 00 00       	mov    edx,0x2000
2d2b:	48 89 ee             	mov    rsi,rbp
2d2e:	44 89 e7             	mov    edi,r12d
2d31:	e8 ea 28 00 00       	call   5620 <safe_read>
2d36:	48 83 f8 ff          	cmp    rax,0xffffffffffffffff
2d3a:	0f 84 98 00 00 00    	je     2dd8 <head_lines+0xf8>
2d40:	48 85 c0             	test   rax,rax
2d43:	0f 84 cf 00 00 00    	je     2e18 <head_lines+0x138>
2d49:	0f b6 15 9a 73 20 00 	movzx  edx,BYTE PTR [rip+0x20739a]        # 20a0ea <line_end>
2d50:	31 db                	xor    ebx,ebx
2d52:	eb 09                	jmp    2d5d <head_lines+0x7d>
2d54:	0f 1f 40 00          	nop    DWORD PTR [rax+0x0]
2d58:	48 39 d8             	cmp    rax,rbx
2d5b:	74 6b                	je     2dc8 <head_lines+0xe8>
2d5d:	48 83 c3 01          	add    rbx,0x1
2d61:	41 38 14 1f          	cmp    BYTE PTR [r15+rbx*1],dl
2d65:	75 f1                	jne    2d58 <head_lines+0x78>
2d67:	49 83 ee 01          	sub    r14,0x1
2d6b:	75 eb                	jne    2d58 <head_lines+0x78>
2d6d:	49 89 de             	mov    r14,rbx
2d70:	ba 01 00 00 00       	mov    edx,0x1
2d75:	44 89 e7             	mov    edi,r12d
2d78:	49 29 c6             	sub    r14,rax
2d7b:	4c 89 f6             	mov    rsi,r14
2d7e:	e8 9d e8 ff ff       	call   1620 <lseek@plt>
2d83:	48 85 c0             	test   rax,rax
2d86:	0f 88 96 00 00 00    	js     2e22 <head_lines+0x142>
2d8c:	48 89 de             	mov    rsi,rbx
2d8f:	48 89 ef             	mov    rdi,rbp
2d92:	e8 f9 fd ff ff       	call   2b90 <xwrite_stdout.part.6>
2d97:	b8 01 00 00 00       	mov    eax,0x1
2d9c:	48 8b 8c 24 98 20 00 	mov    rcx,QWORD PTR [rsp+0x2098]
2da3:	00
2da4:	64 48 33 0c 25 28 00 	xor    rcx,QWORD PTR fs:0x28
2dab:	00 00
2dad:	0f 85 af 00 00 00    	jne    2e62 <head_lines+0x182>
2db3:	48 81 c4 a8 20 00 00 	add    rsp,0x20a8
2dba:	5b                   	pop    rbx
2dbb:	5d                   	pop    rbp
2dbc:	41 5c                	pop    r12
2dbe:	41 5d                	pop    r13
2dc0:	41 5e                	pop    r14
2dc2:	41 5f                	pop    r15
2dc4:	c3                   	ret
2dc5:	0f 1f 00             	nop    DWORD PTR [rax]
2dc8:	48 89 c6             	mov    rsi,rax
2dcb:	48 89 ef             	mov    rdi,rbp
2dce:	e8 bd fd ff ff       	call   2b90 <xwrite_stdout.part.6>
2dd3:	e9 4e ff ff ff       	jmp    2d26 <head_lines+0x46>
2dd8:	4c 89 ee             	mov    rsi,r13
2ddb:	bf 04 00 00 00       	mov    edi,0x4
2de0:	e8 4b 25 00 00       	call   5330 <quotearg_style>
2de5:	48 8d 35 93 3a 00 00 	lea    rsi,[rip+0x3a93]        # 687f <_IO_stdin_used+0x7f>
2dec:	ba 05 00 00 00       	mov    edx,0x5
2df1:	31 ff                	xor    edi,edi
2df3:	48 89 c5             	mov    rbp,rax
2df6:	e8 a5 e7 ff ff       	call   15a0 <dcgettext@plt>
2dfb:	48 89 c3             	mov    rbx,rax
2dfe:	e8 1d e7 ff ff       	call   1520 <__errno_location@plt>
2e03:	8b 30                	mov    esi,DWORD PTR [rax]
2e05:	48 89 e9             	mov    rcx,rbp
2e08:	31 c0                	xor    eax,eax
2e0a:	48 89 da             	mov    rdx,rbx
2e0d:	31 ff                	xor    edi,edi
2e0f:	e8 5c e9 ff ff       	call   1770 <error@plt>
2e14:	31 c0                	xor    eax,eax
2e16:	eb 84                	jmp    2d9c <head_lines+0xbc>
2e18:	b8 01 00 00 00       	mov    eax,0x1
2e1d:	e9 7a ff ff ff       	jmp    2d9c <head_lines+0xbc>
2e22:	48 89 e2             	mov    rdx,rsp
2e25:	44 89 e6             	mov    esi,r12d
2e28:	bf 01 00 00 00       	mov    edi,0x1
2e2d:	e8 de e8 ff ff       	call   1710 <__fxstat@plt>
2e32:	85 c0                	test   eax,eax
2e34:	75 14                	jne    2e4a <head_lines+0x16a>
2e36:	8b 44 24 18          	mov    eax,DWORD PTR [rsp+0x18]
2e3a:	25 00 f0 00 00       	and    eax,0xf000
2e3f:	3d 00 80 00 00       	cmp    eax,0x8000
2e44:	0f 85 42 ff ff ff    	jne    2d8c <head_lines+0xac>
2e4a:	4c 89 e9             	mov    rcx,r13
2e4d:	ba 01 00 00 00       	mov    edx,0x1
2e52:	4c 89 f6             	mov    rsi,r14
2e55:	44 89 e7             	mov    edi,r12d
2e58:	e8 73 fc ff ff       	call   2ad0 <elseek>
2e5d:	e9 2a ff ff ff       	jmp    2d8c <head_lines+0xac>
2e62:	e8 69 e7 ff ff       	call   15d0 <__stack_chk_fail@plt>
2e67:	66 0f 1f 84 00 00 00 	nop    WORD PTR [rax+rax*1+0x0]
2e6e:	00 00

0000000000002e70 <head_bytes>:
2e70:	41 57                	push   r15
2e72:	41 56                	push   r14
2e74:	41 55                	push   r13
2e76:	41 54                	push   r12
2e78:	55                   	push   rbp
2e79:	53                   	push   rbx
2e7a:	48 81 ec 18 20 00 00 	sub    rsp,0x2018
2e81:	64 48 8b 04 25 28 00 	mov    rax,QWORD PTR fs:0x28
2e88:	00 00
2e8a:	48 89 84 24 08 20 00 	mov    QWORD PTR [rsp+0x2008],rax
2e91:	00
2e92:	31 c0                	xor    eax,eax
2e94:	48 85 d2             	test   rdx,rdx
2e97:	0f 84 93 00 00 00    	je     2f30 <head_bytes+0xc0>
2e9d:	49 89 ff             	mov    r15,rdi
2ea0:	41 89 f6             	mov    r14d,esi
2ea3:	48 89 d5             	mov    rbp,rdx
2ea6:	41 bc 00 20 00 00    	mov    r12d,0x2000
2eac:	49 89 e5             	mov    r13,rsp
2eaf:	eb 1c                	jmp    2ecd <head_bytes+0x5d>
2eb1:	0f 1f 80 00 00 00 00 	nop    DWORD PTR [rax+0x0]
2eb8:	48 85 c0             	test   rax,rax
2ebb:	74 73                	je     2f30 <head_bytes+0xc0>
2ebd:	48 89 c6             	mov    rsi,rax
2ec0:	4c 89 ef             	mov    rdi,r13
2ec3:	e8 c8 fc ff ff       	call   2b90 <xwrite_stdout.part.6>
2ec8:	48 29 dd             	sub    rbp,rbx
2ecb:	74 63                	je     2f30 <head_bytes+0xc0>
2ecd:	49 39 ec             	cmp    r12,rbp
2ed0:	4c 89 ee             	mov    rsi,r13
2ed3:	44 89 f7             	mov    edi,r14d
2ed6:	4c 0f 47 e5          	cmova  r12,rbp
2eda:	4c 89 e2             	mov    rdx,r12
2edd:	e8 3e 27 00 00       	call   5620 <safe_read>
2ee2:	48 83 f8 ff          	cmp    rax,0xffffffffffffffff
2ee6:	48 89 c3             	mov    rbx,rax
2ee9:	75 cd                	jne    2eb8 <head_bytes+0x48>
2eeb:	4c 89 fe             	mov    rsi,r15
2eee:	bf 04 00 00 00       	mov    edi,0x4
2ef3:	e8 38 24 00 00       	call   5330 <quotearg_style>
2ef8:	48 8d 35 80 39 00 00 	lea    rsi,[rip+0x3980]        # 687f <_IO_stdin_used+0x7f>
2eff:	ba 05 00 00 00       	mov    edx,0x5
2f04:	31 ff                	xor    edi,edi
2f06:	48 89 c5             	mov    rbp,rax
2f09:	e8 92 e6 ff ff       	call   15a0 <dcgettext@plt>
2f0e:	48 89 c3             	mov    rbx,rax
2f11:	e8 0a e6 ff ff       	call   1520 <__errno_location@plt>
2f16:	8b 30                	mov    esi,DWORD PTR [rax]
2f18:	48 89 e9             	mov    rcx,rbp
2f1b:	31 c0                	xor    eax,eax
2f1d:	48 89 da             	mov    rdx,rbx
2f20:	31 ff                	xor    edi,edi
2f22:	e8 49 e8 ff ff       	call   1770 <error@plt>
2f27:	31 c0                	xor    eax,eax
2f29:	eb 0a                	jmp    2f35 <head_bytes+0xc5>
2f2b:	0f 1f 44 00 00       	nop    DWORD PTR [rax+rax*1+0x0]
2f30:	b8 01 00 00 00       	mov    eax,0x1
2f35:	48 8b 8c 24 08 20 00 	mov    rcx,QWORD PTR [rsp+0x2008]
2f3c:	00
2f3d:	64 48 33 0c 25 28 00 	xor    rcx,QWORD PTR fs:0x28
2f44:	00 00
2f46:	75 12                	jne    2f5a <head_bytes+0xea>
2f48:	48 81 c4 18 20 00 00 	add    rsp,0x2018
2f4f:	5b                   	pop    rbx
2f50:	5d                   	pop    rbp
2f51:	41 5c                	pop    r12
2f53:	41 5d                	pop    r13
2f55:	41 5e                	pop    r14
2f57:	41 5f                	pop    r15
2f59:	c3                   	ret
2f5a:	e8 71 e6 ff ff       	call   15d0 <__stack_chk_fail@plt>
2f5f:	90                   	nop

0000000000002f60 <diagnose_copy_fd_failure>:
2f60:	55                   	push   rbp
2f61:	53                   	push   rbx
2f62:	48 83 ec 08          	sub    rsp,0x8
2f66:	83 ff 01             	cmp    edi,0x1
2f69:	74 4d                	je     2fb8 <diagnose_copy_fd_failure+0x58>
2f6b:	83 ff 02             	cmp    edi,0x2
2f6e:	75 63                	jne    2fd3 <diagnose_copy_fd_failure+0x73>
2f70:	48 89 f2             	mov    rdx,rsi
2f73:	31 ff                	xor    edi,edi
2f75:	be 03 00 00 00       	mov    esi,0x3
2f7a:	e8 b1 24 00 00       	call   5430 <quotearg_n_style_colon>
2f7f:	48 8d 35 0a 39 00 00 	lea    rsi,[rip+0x390a]        # 6890 <_IO_stdin_used+0x90>
2f86:	48 89 c5             	mov    rbp,rax
2f89:	ba 05 00 00 00       	mov    edx,0x5
2f8e:	31 ff                	xor    edi,edi
2f90:	e8 0b e6 ff ff       	call   15a0 <dcgettext@plt>
2f95:	48 89 c3             	mov    rbx,rax
2f98:	e8 83 e5 ff ff       	call   1520 <__errno_location@plt>
2f9d:	8b 30                	mov    esi,DWORD PTR [rax]
2f9f:	48 83 c4 08          	add    rsp,0x8
2fa3:	48 89 e9             	mov    rcx,rbp
2fa6:	48 89 da             	mov    rdx,rbx
2fa9:	31 ff                	xor    edi,edi
2fab:	31 c0                	xor    eax,eax
2fad:	5b                   	pop    rbx
2fae:	5d                   	pop    rbp
2faf:	e9 bc e7 ff ff       	jmp    1770 <error@plt>
2fb4:	0f 1f 40 00          	nop    DWORD PTR [rax+0x0]
2fb8:	bf 04 00 00 00       	mov    edi,0x4
2fbd:	e8 6e 23 00 00       	call   5330 <quotearg_style>
2fc2:	ba 05 00 00 00       	mov    edx,0x5
2fc7:	48 89 c5             	mov    rbp,rax
2fca:	48 8d 35 ae 38 00 00 	lea    rsi,[rip+0x38ae]        # 687f <_IO_stdin_used+0x7f>
2fd1:	eb bb                	jmp    2f8e <diagnose_copy_fd_failure+0x2e>
2fd3:	e8 38 e5 ff ff       	call   1510 <abort@plt>
2fd8:	0f 1f 84 00 00 00 00 	nop    DWORD PTR [rax+rax*1+0x0]
2fdf:	00

0000000000002fe0 <elide_tail_lines_seekable>:
2fe0:	41 57                	push   r15
2fe2:	48 89 c8             	mov    rax,rcx
2fe5:	41 56                	push   r14
2fe7:	41 55                	push   r13
2fe9:	41 54                	push   r12
2feb:	41 bd 00 20 00 00    	mov    r13d,0x2000
2ff1:	55                   	push   rbp
2ff2:	53                   	push   rbx
2ff3:	48 89 d3             	mov    rbx,rdx
2ff6:	4c 89 c2             	mov    rdx,r8
2ff9:	41 89 f6             	mov    r14d,esi
2ffc:	48 29 c2             	sub    rdx,rax
2fff:	48 81 ec 38 20 00 00 	sub    rsp,0x2038
3006:	48 89 d0             	mov    rax,rdx
3009:	48 89 4c 24 10       	mov    QWORD PTR [rsp+0x10],rcx
300e:	48 89 7c 24 08       	mov    QWORD PTR [rsp+0x8],rdi
3013:	48 c1 f8 3f          	sar    rax,0x3f
3017:	48 c1 e8 33          	shr    rax,0x33
301b:	48 01 c2             	add    rdx,rax
301e:	81 e2 ff 1f 00 00    	and    edx,0x1fff
3024:	64 48 8b 0c 25 28 00 	mov    rcx,QWORD PTR fs:0x28
302b:	00 00
302d:	48 89 8c 24 28 20 00 	mov    QWORD PTR [rsp+0x2028],rcx
3034:	00
3035:	31 c9                	xor    ecx,ecx
3037:	48 29 c2             	sub    rdx,rax
303a:	48 89 f9             	mov    rcx,rdi
303d:	44 89 f7             	mov    edi,r14d
3040:	4c 0f 45 ea          	cmovne r13,rdx
3044:	31 d2                	xor    edx,edx
3046:	4d 29 e8             	sub    r8,r13
3049:	4c 89 c6             	mov    rsi,r8
304c:	4d 89 c4             	mov    r12,r8
304f:	e8 7c fa ff ff       	call   2ad0 <elseek>
3054:	48 85 c0             	test   rax,rax
3057:	0f 88 db 00 00 00    	js     3138 <elide_tail_lines_seekable+0x158>
305d:	48 8d 6c 24 20       	lea    rbp,[rsp+0x20]
3062:	4c 89 ea             	mov    rdx,r13
3065:	44 89 f7             	mov    edi,r14d
3068:	48 89 ee             	mov    rsi,rbp
306b:	e8 b0 25 00 00       	call   5620 <safe_read>
3070:	48 83 f8 ff          	cmp    rax,0xffffffffffffffff
3074:	49 89 c0             	mov    r8,rax
3077:	0f 84 63 01 00 00    	je     31e0 <elide_tail_lines_seekable+0x200>
307d:	48 85 db             	test   rbx,rbx
3080:	0f 84 3a 01 00 00    	je     31c0 <elide_tail_lines_seekable+0x1e0>
3086:	48 85 c0             	test   rax,rax
3089:	0f 84 31 01 00 00    	je     31c0 <elide_tail_lines_seekable+0x1e0>
308f:	0f b6 05 54 70 20 00 	movzx  eax,BYTE PTR [rip+0x207054]        # 20a0ea <line_end>
3096:	49 89 df             	mov    r15,rbx
3099:	42 38 44 04 1f       	cmp    BYTE PTR [rsp+r8*1+0x1f],al
309e:	0f 95 c0             	setne  al
30a1:	0f b6 c0             	movzx  eax,al
30a4:	49 29 c7             	sub    r15,rax
30a7:	4d 85 c0             	test   r8,r8
30aa:	0f 84 b8 00 00 00    	je     3168 <elide_tail_lines_seekable+0x188>
30b0:	44 0f be 2d 32 70 20 	movsx  r13d,BYTE PTR [rip+0x207032]        # 20a0ea <line_end>
30b7:	00
30b8:	eb 1f                	jmp    30d9 <elide_tail_lines_seekable+0xf9>
30ba:	66 0f 1f 44 00 00    	nop    WORD PTR [rax+rax*1+0x0]
30c0:	49 83 e8 01          	sub    r8,0x1
30c4:	4d 85 ff             	test   r15,r15
30c7:	49 8d 47 ff          	lea    rax,[r15-0x1]
30cb:	74 33                	je     3100 <elide_tail_lines_seekable+0x120>
30cd:	4d 85 c0             	test   r8,r8
30d0:	49 89 c7             	mov    r15,rax
30d3:	0f 84 8f 00 00 00    	je     3168 <elide_tail_lines_seekable+0x188>
30d9:	48 85 db             	test   rbx,rbx
30dc:	74 e2                	je     30c0 <elide_tail_lines_seekable+0xe0>
30de:	4c 89 c2             	mov    rdx,r8
30e1:	44 89 ee             	mov    esi,r13d
30e4:	48 89 ef             	mov    rdi,rbp
30e7:	e8 94 e6 ff ff       	call   1780 <memrchr@plt>
30ec:	48 85 c0             	test   rax,rax
30ef:	74 77                	je     3168 <elide_tail_lines_seekable+0x188>
30f1:	48 29 e8             	sub    rax,rbp
30f4:	4d 85 ff             	test   r15,r15
30f7:	49 89 c0             	mov    r8,rax
30fa:	49 8d 47 ff          	lea    rax,[r15-0x1]
30fe:	75 cd                	jne    30cd <elide_tail_lines_seekable+0xed>
3100:	4c 3b 64 24 10       	cmp    r12,QWORD PTR [rsp+0x10]
3105:	0f 8f 1d 01 00 00    	jg     3228 <elide_tail_lines_seekable+0x248>
310b:	4c 89 c3             	mov    rbx,r8
310e:	48 83 c3 01          	add    rbx,0x1
3112:	0f 85 b8 00 00 00    	jne    31d0 <elide_tail_lines_seekable+0x1f0>
3118:	48 8b 4c 24 08       	mov    rcx,QWORD PTR [rsp+0x8]
311d:	49 8d 34 1c          	lea    rsi,[r12+rbx*1]
3121:	31 d2                	xor    edx,edx
3123:	44 89 f7             	mov    edi,r14d
3126:	e8 a5 f9 ff ff       	call   2ad0 <elseek>
312b:	48 f7 d0             	not    rax
312e:	48 c1 e8 3f          	shr    rax,0x3f
3132:	eb 06                	jmp    313a <elide_tail_lines_seekable+0x15a>
3134:	0f 1f 40 00          	nop    DWORD PTR [rax+0x0]
3138:	31 c0                	xor    eax,eax
313a:	48 8b 8c 24 28 20 00 	mov    rcx,QWORD PTR [rsp+0x2028]
3141:	00
3142:	64 48 33 0c 25 28 00 	xor    rcx,QWORD PTR fs:0x28
3149:	00 00
314b:	0f 85 2a 01 00 00    	jne    327b <elide_tail_lines_seekable+0x29b>
3151:	48 81 c4 38 20 00 00 	add    rsp,0x2038
3158:	5b                   	pop    rbx
3159:	5d                   	pop    rbp
315a:	41 5c                	pop    r12
315c:	41 5d                	pop    r13
315e:	41 5e                	pop    r14
3160:	41 5f                	pop    r15
3162:	c3                   	ret
3163:	0f 1f 44 00 00       	nop    DWORD PTR [rax+rax*1+0x0]
3168:	4c 3b 64 24 10       	cmp    r12,QWORD PTR [rsp+0x10]
316d:	74 40                	je     31af <elide_tail_lines_seekable+0x1cf>
316f:	48 8b 4c 24 08       	mov    rcx,QWORD PTR [rsp+0x8]
3174:	49 81 ec 00 20 00 00 	sub    r12,0x2000
317b:	31 d2                	xor    edx,edx
317d:	4c 89 e6             	mov    rsi,r12
3180:	44 89 f7             	mov    edi,r14d
3183:	e8 48 f9 ff ff       	call   2ad0 <elseek>
3188:	48 85 c0             	test   rax,rax
318b:	78 ab                	js     3138 <elide_tail_lines_seekable+0x158>
318d:	ba 00 20 00 00       	mov    edx,0x2000
3192:	48 89 ee             	mov    rsi,rbp
3195:	44 89 f7             	mov    edi,r14d
3198:	e8 83 24 00 00       	call   5620 <safe_read>
319d:	48 83 f8 ff          	cmp    rax,0xffffffffffffffff
31a1:	49 89 c0             	mov    r8,rax
31a4:	74 3a                	je     31e0 <elide_tail_lines_seekable+0x200>
31a6:	48 85 c0             	test   rax,rax
31a9:	0f 85 f8 fe ff ff    	jne    30a7 <elide_tail_lines_seekable+0xc7>
31af:	b8 01 00 00 00       	mov    eax,0x1
31b4:	eb 84                	jmp    313a <elide_tail_lines_seekable+0x15a>
31b6:	66 2e 0f 1f 84 00 00 	nop    WORD PTR cs:[rax+rax*1+0x0]
31bd:	00 00 00
31c0:	49 89 df             	mov    r15,rbx
31c3:	e9 df fe ff ff       	jmp    30a7 <elide_tail_lines_seekable+0xc7>
31c8:	0f 1f 84 00 00 00 00 	nop    DWORD PTR [rax+rax*1+0x0]
31cf:	00
31d0:	48 89 de             	mov    rsi,rbx
31d3:	48 89 ef             	mov    rdi,rbp
31d6:	e8 b5 f9 ff ff       	call   2b90 <xwrite_stdout.part.6>
31db:	e9 38 ff ff ff       	jmp    3118 <elide_tail_lines_seekable+0x138>
31e0:	48 8b 74 24 08       	mov    rsi,QWORD PTR [rsp+0x8]
31e5:	bf 04 00 00 00       	mov    edi,0x4
31ea:	e8 41 21 00 00       	call   5330 <quotearg_style>
31ef:	48 8d 35 89 36 00 00 	lea    rsi,[rip+0x3689]        # 687f <_IO_stdin_used+0x7f>
31f6:	ba 05 00 00 00       	mov    edx,0x5
31fb:	31 ff                	xor    edi,edi
31fd:	48 89 c5             	mov    rbp,rax
3200:	e8 9b e3 ff ff       	call   15a0 <dcgettext@plt>
3205:	48 89 c3             	mov    rbx,rax
3208:	e8 13 e3 ff ff       	call   1520 <__errno_location@plt>
320d:	8b 30                	mov    esi,DWORD PTR [rax]
320f:	48 89 e9             	mov    rcx,rbp
3212:	31 c0                	xor    eax,eax
3214:	48 89 da             	mov    rdx,rbx
3217:	31 ff                	xor    edi,edi
3219:	e8 52 e5 ff ff       	call   1770 <error@plt>
321e:	31 c0                	xor    eax,eax
3220:	e9 15 ff ff ff       	jmp    313a <elide_tail_lines_seekable+0x15a>
3225:	0f 1f 00             	nop    DWORD PTR [rax]
3228:	48 8b 5c 24 10       	mov    rbx,QWORD PTR [rsp+0x10]
322d:	48 8b 4c 24 08       	mov    rcx,QWORD PTR [rsp+0x8]
3232:	31 d2                	xor    edx,edx
3234:	44 89 f7             	mov    edi,r14d
3237:	4c 89 44 24 18       	mov    QWORD PTR [rsp+0x18],r8
323c:	48 89 de             	mov    rsi,rbx
323f:	e8 8c f8 ff ff       	call   2ad0 <elseek>
3244:	48 85 c0             	test   rax,rax
3247:	0f 88 eb fe ff ff    	js     3138 <elide_tail_lines_seekable+0x158>
324d:	4c 89 e6             	mov    rsi,r12
3250:	44 89 f7             	mov    edi,r14d
3253:	48 29 de             	sub    rsi,rbx
3256:	e8 b5 f9 ff ff       	call   2c10 <copy_fd>
325b:	85 c0                	test   eax,eax
325d:	4c 8b 44 24 18       	mov    r8,QWORD PTR [rsp+0x18]
3262:	0f 84 a3 fe ff ff    	je     310b <elide_tail_lines_seekable+0x12b>
3268:	48 8b 74 24 08       	mov    rsi,QWORD PTR [rsp+0x8]
326d:	89 c7                	mov    edi,eax
326f:	e8 ec fc ff ff       	call   2f60 <diagnose_copy_fd_failure>
3274:	31 c0                	xor    eax,eax
3276:	e9 bf fe ff ff       	jmp    313a <elide_tail_lines_seekable+0x15a>
327b:	e8 50 e3 ff ff       	call   15d0 <__stack_chk_fail@plt>

0000000000003280 <usage>:
3280:	41 55                	push   r13
3282:	41 54                	push   r12
3284:	ba 05 00 00 00       	mov    edx,0x5
3289:	55                   	push   rbp
328a:	53                   	push   rbx
328b:	89 fd                	mov    ebp,edi
328d:	48 81 ec 88 00 00 00 	sub    rsp,0x88
3294:	48 8b 1d 65 6e 20 00 	mov    rbx,QWORD PTR [rip+0x206e65]        # 20a100 <program_name>
329b:	64 48 8b 04 25 28 00 	mov    rax,QWORD PTR fs:0x28
32a2:	00 00
32a4:	48 89 44 24 78       	mov    QWORD PTR [rsp+0x78],rax
32a9:	31 c0                	xor    eax,eax
32ab:	85 ff                	test   edi,edi
32ad:	74 2e                	je     32dd <usage+0x5d>
32af:	48 8d 35 da 37 00 00 	lea    rsi,[rip+0x37da]        # 6a90 <_IO_stdin_used+0x290>
32b6:	31 ff                	xor    edi,edi
32b8:	e8 e3 e2 ff ff       	call   15a0 <dcgettext@plt>
32bd:	48 8b 3d 1c 6e 20 00 	mov    rdi,QWORD PTR [rip+0x206e1c]        # 20a0e0 <stderr@@GLIBC_2.2.5>
32c4:	48 89 c2             	mov    rdx,rax
32c7:	48 89 d9             	mov    rcx,rbx
32ca:	be 01 00 00 00       	mov    esi,0x1
32cf:	31 c0                	xor    eax,eax
32d1:	e8 0a e5 ff ff       	call   17e0 <__fprintf_chk@plt>
32d6:	89 ef                	mov    edi,ebp
32d8:	e8 e3 e4 ff ff       	call   17c0 <exit@plt>
32dd:	48 8d 35 d4 37 00 00 	lea    rsi,[rip+0x37d4]        # 6ab8 <_IO_stdin_used+0x2b8>
32e4:	31 ff                	xor    edi,edi
32e6:	e8 b5 e2 ff ff       	call   15a0 <dcgettext@plt>
32eb:	48 89 da             	mov    rdx,rbx
32ee:	48 89 c6             	mov    rsi,rax
32f1:	bf 01 00 00 00       	mov    edi,0x1
32f6:	31 c0                	xor    eax,eax
32f8:	e8 63 e4 ff ff       	call   1760 <__printf_chk@plt>
32fd:	48 8d 35 dc 37 00 00 	lea    rsi,[rip+0x37dc]        # 6ae0 <_IO_stdin_used+0x2e0>
3304:	31 ff                	xor    edi,edi
3306:	ba 05 00 00 00       	mov    edx,0x5
330b:	e8 90 e2 ff ff       	call   15a0 <dcgettext@plt>
3310:	ba 0a 00 00 00       	mov    edx,0xa
3315:	48 89 c6             	mov    rsi,rax
3318:	bf 01 00 00 00       	mov    edi,0x1
331d:	31 c0                	xor    eax,eax
331f:	e8 3c e4 ff ff       	call   1760 <__printf_chk@plt>
3324:	48 8b 1d 7d 6d 20 00 	mov    rbx,QWORD PTR [rip+0x206d7d]        # 20a0a8 <stdout@@GLIBC_2.2.5>
332b:	48 8d 35 36 38 00 00 	lea    rsi,[rip+0x3836]        # 6b68 <_IO_stdin_used+0x368>
3332:	ba 05 00 00 00       	mov    edx,0x5
3337:	31 ff                	xor    edi,edi
3339:	e8 62 e2 ff ff       	call   15a0 <dcgettext@plt>
333e:	48 89 de             	mov    rsi,rbx
3341:	48 89 c7             	mov    rdi,rax
3344:	e8 57 e3 ff ff       	call   16a0 <fputs_unlocked@plt>
3349:	48 8b 1d 58 6d 20 00 	mov    rbx,QWORD PTR [rip+0x206d58]        # 20a0a8 <stdout@@GLIBC_2.2.5>
3350:	48 8d 35 49 38 00 00 	lea    rsi,[rip+0x3849]        # 6ba0 <_IO_stdin_used+0x3a0>
3357:	ba 05 00 00 00       	mov    edx,0x5
335c:	31 ff                	xor    edi,edi
335e:	e8 3d e2 ff ff       	call   15a0 <dcgettext@plt>
3363:	48 89 de             	mov    rsi,rbx
3366:	48 89 c7             	mov    rdi,rax
3369:	e8 32 e3 ff ff       	call   16a0 <fputs_unlocked@plt>
336e:	48 8d 35 7b 38 00 00 	lea    rsi,[rip+0x387b]        # 6bf0 <_IO_stdin_used+0x3f0>
3375:	31 ff                	xor    edi,edi
3377:	ba 05 00 00 00       	mov    edx,0x5
337c:	e8 1f e2 ff ff       	call   15a0 <dcgettext@plt>
3381:	ba 0a 00 00 00       	mov    edx,0xa
3386:	48 89 c6             	mov    rsi,rax
3389:	bf 01 00 00 00       	mov    edi,0x1
338e:	31 c0                	xor    eax,eax
3390:	e8 cb e3 ff ff       	call   1760 <__printf_chk@plt>
3395:	48 8b 1d 0c 6d 20 00 	mov    rbx,QWORD PTR [rip+0x206d0c]        # 20a0a8 <stdout@@GLIBC_2.2.5>
339c:	48 8d 35 dd 39 00 00 	lea    rsi,[rip+0x39dd]        # 6d80 <_IO_stdin_used+0x580>
33a3:	ba 05 00 00 00       	mov    edx,0x5
33a8:	31 ff                	xor    edi,edi
33aa:	e8 f1 e1 ff ff       	call   15a0 <dcgettext@plt>
33af:	48 89 de             	mov    rsi,rbx
33b2:	48 89 c7             	mov    rdi,rax
33b5:	e8 e6 e2 ff ff       	call   16a0 <fputs_unlocked@plt>
33ba:	48 8b 1d e7 6c 20 00 	mov    rbx,QWORD PTR [rip+0x206ce7]        # 20a0a8 <stdout@@GLIBC_2.2.5>
33c1:	48 8d 35 40 3a 00 00 	lea    rsi,[rip+0x3a40]        # 6e08 <_IO_stdin_used+0x608>
33c8:	ba 05 00 00 00       	mov    edx,0x5
33cd:	31 ff                	xor    edi,edi
33cf:	e8 cc e1 ff ff       	call   15a0 <dcgettext@plt>
33d4:	48 89 de             	mov    rsi,rbx
33d7:	48 89 c7             	mov    rdi,rax
33da:	e8 c1 e2 ff ff       	call   16a0 <fputs_unlocked@plt>
33df:	48 8b 1d c2 6c 20 00 	mov    rbx,QWORD PTR [rip+0x206cc2]        # 20a0a8 <stdout@@GLIBC_2.2.5>
33e6:	48 8d 35 5b 3a 00 00 	lea    rsi,[rip+0x3a5b]        # 6e48 <_IO_stdin_used+0x648>
33ed:	ba 05 00 00 00       	mov    edx,0x5
33f2:	31 ff                	xor    edi,edi
33f4:	e8 a7 e1 ff ff       	call   15a0 <dcgettext@plt>
33f9:	48 89 de             	mov    rsi,rbx
33fc:	48 89 c7             	mov    rdi,rax
33ff:	e8 9c e2 ff ff       	call   16a0 <fputs_unlocked@plt>
3404:	48 8b 1d 9d 6c 20 00 	mov    rbx,QWORD PTR [rip+0x206c9d]        # 20a0a8 <stdout@@GLIBC_2.2.5>
340b:	48 8d 35 66 3a 00 00 	lea    rsi,[rip+0x3a66]        # 6e78 <_IO_stdin_used+0x678>
3412:	ba 05 00 00 00       	mov    edx,0x5
3417:	31 ff                	xor    edi,edi
3419:	e8 82 e1 ff ff       	call   15a0 <dcgettext@plt>
341e:	48 89 de             	mov    rsi,rbx
3421:	48 89 c7             	mov    rdi,rax
3424:	e8 77 e2 ff ff       	call   16a0 <fputs_unlocked@plt>
3429:	48 8b 1d 78 6c 20 00 	mov    rbx,QWORD PTR [rip+0x206c78]        # 20a0a8 <stdout@@GLIBC_2.2.5>
3430:	48 8d 35 79 3a 00 00 	lea    rsi,[rip+0x3a79]        # 6eb0 <_IO_stdin_used+0x6b0>
3437:	ba 05 00 00 00       	mov    edx,0x5
343c:	31 ff                	xor    edi,edi
343e:	e8 5d e1 ff ff       	call   15a0 <dcgettext@plt>
3443:	48 89 de             	mov    rsi,rbx
3446:	48 89 c7             	mov    rdi,rax
3449:	48 8d 1d 5d 34 00 00 	lea    rbx,[rip+0x345d]        # 68ad <_IO_stdin_used+0xad>
3450:	e8 4b e2 ff ff       	call   16a0 <fputs_unlocked@plt>
3455:	48 8d 05 56 34 00 00 	lea    rax,[rip+0x3456]        # 68b2 <_IO_stdin_used+0xb2>
345c:	48 8d 0d 90 34 00 00 	lea    rcx,[rip+0x3490]        # 68f3 <_IO_stdin_used+0xf3>
3463:	48 c7 44 24 60 00 00 	mov    QWORD PTR [rsp+0x60],0x0
346a:	00 00
346c:	48 c7 44 24 68 00 00 	mov    QWORD PTR [rsp+0x68],0x0
3473:	00 00
3475:	48 89 e2             	mov    rdx,rsp
3478:	48 89 04 24          	mov    QWORD PTR [rsp],rax
347c:	48 8d 05 31 34 00 00 	lea    rax,[rip+0x3431]        # 68b4 <_IO_stdin_used+0xb4>
3483:	48 89 4c 24 30       	mov    QWORD PTR [rsp+0x30],rcx
3488:	48 8d 0d 6e 34 00 00 	lea    rcx,[rip+0x346e]        # 68fd <_IO_stdin_used+0xfd>
348f:	48 89 44 24 08       	mov    QWORD PTR [rsp+0x8],rax
3494:	48 8d 05 91 34 00 00 	lea    rax,[rip+0x3491]        # 692c <_IO_stdin_used+0x12c>
349b:	48 89 4c 24 40       	mov    QWORD PTR [rsp+0x40],rcx
34a0:	48 8d 0d 60 34 00 00 	lea    rcx,[rip+0x3460]        # 6907 <_IO_stdin_used+0x107>
34a7:	48 89 44 24 10       	mov    QWORD PTR [rsp+0x10],rax
34ac:	48 8d 05 11 34 00 00 	lea    rax,[rip+0x3411]        # 68c4 <_IO_stdin_used+0xc4>
34b3:	48 89 4c 24 50       	mov    QWORD PTR [rsp+0x50],rcx
34b8:	48 89 44 24 18       	mov    QWORD PTR [rsp+0x18],rax
34bd:	48 8d 05 16 34 00 00 	lea    rax,[rip+0x3416]        # 68da <_IO_stdin_used+0xda>
34c4:	48 89 44 24 20       	mov    QWORD PTR [rsp+0x20],rax
34c9:	48 8d 05 14 34 00 00 	lea    rax,[rip+0x3414]        # 68e4 <_IO_stdin_used+0xe4>
34d0:	48 89 44 24 28       	mov    QWORD PTR [rsp+0x28],rax
34d5:	48 89 44 24 38       	mov    QWORD PTR [rsp+0x38],rax
34da:	48 89 44 24 48       	mov    QWORD PTR [rsp+0x48],rax
34df:	48 89 44 24 58       	mov    QWORD PTR [rsp+0x58],rax
34e4:	0f 1f 40 00          	nop    DWORD PTR [rax+0x0]
34e8:	48 83 c2 10          	add    rdx,0x10
34ec:	48 8b 3a             	mov    rdi,QWORD PTR [rdx]
34ef:	48 85 ff             	test   rdi,rdi
34f2:	74 13                	je     3507 <usage+0x287>
34f4:	b9 05 00 00 00       	mov    ecx,0x5
34f9:	48 89 de             	mov    rsi,rbx
34fc:	f3 a6                	repz cmps BYTE PTR ds:[rsi],BYTE PTR es:[rdi]
34fe:	0f 97 c0             	seta   al
3501:	1c 00                	sbb    al,0x0
3503:	84 c0                	test   al,al
3505:	75 e1                	jne    34e8 <usage+0x268>
3507:	4c 8b 62 08          	mov    r12,QWORD PTR [rdx+0x8]
350b:	31 ff                	xor    edi,edi
350d:	ba 05 00 00 00       	mov    edx,0x5
3512:	48 8d 35 f8 33 00 00 	lea    rsi,[rip+0x33f8]        # 6911 <_IO_stdin_used+0x111>
3519:	4d 85 e4             	test   r12,r12
351c:	0f 84 c1 00 00 00    	je     35e3 <usage+0x363>
3522:	e8 79 e0 ff ff       	call   15a0 <dcgettext@plt>
3527:	48 8d 0d 5a 3a 00 00 	lea    rcx,[rip+0x3a5a]        # 6f88 <_IO_stdin_used+0x788>
352e:	48 8d 15 f3 33 00 00 	lea    rdx,[rip+0x33f3]        # 6928 <_IO_stdin_used+0x128>
3535:	48 89 c6             	mov    rsi,rax
3538:	bf 01 00 00 00       	mov    edi,0x1
353d:	31 c0                	xor    eax,eax
353f:	e8 1c e2 ff ff       	call   1760 <__printf_chk@plt>
3544:	31 f6                	xor    esi,esi
3546:	bf 05 00 00 00       	mov    edi,0x5
354b:	e8 00 e2 ff ff       	call   1750 <setlocale@plt>
3550:	48 85 c0             	test   rax,rax
3553:	74 1c                	je     3571 <usage+0x2f1>
3555:	48 8d 35 da 33 00 00 	lea    rsi,[rip+0x33da]        # 6936 <_IO_stdin_used+0x136>
355c:	ba 03 00 00 00       	mov    edx,0x3
3561:	48 89 c7             	mov    rdi,rax
3564:	e8 c7 df ff ff       	call   1530 <strncmp@plt>
3569:	85 c0                	test   eax,eax
356b:	0f 85 07 01 00 00    	jne    3678 <usage+0x3f8>
3571:	48 8d 35 c2 33 00 00 	lea    rsi,[rip+0x33c2]        # 693a <_IO_stdin_used+0x13a>
3578:	31 ff                	xor    edi,edi
357a:	ba 05 00 00 00       	mov    edx,0x5
357f:	e8 1c e0 ff ff       	call   15a0 <dcgettext@plt>
3584:	48 8d 0d 22 33 00 00 	lea    rcx,[rip+0x3322]        # 68ad <_IO_stdin_used+0xad>
358b:	48 8d 15 f6 39 00 00 	lea    rdx,[rip+0x39f6]        # 6f88 <_IO_stdin_used+0x788>
3592:	48 89 c6             	mov    rsi,rax
3595:	bf 01 00 00 00       	mov    edi,0x1
359a:	31 c0                	xor    eax,eax
359c:	e8 bf e1 ff ff       	call   1760 <__printf_chk@plt>
35a1:	49 39 dc             	cmp    r12,rbx
35a4:	48 8d 0d 23 33 00 00 	lea    rcx,[rip+0x3323]        # 68ce <_IO_stdin_used+0xce>
35ab:	48 8d 1d 6f 40 00 00 	lea    rbx,[rip+0x406f]        # 7621 <quoting_style_vals+0x81>
35b2:	48 0f 44 d9          	cmove  rbx,rcx
35b6:	48 8d 35 3b 3a 00 00 	lea    rsi,[rip+0x3a3b]        # 6ff8 <_IO_stdin_used+0x7f8>
35bd:	31 ff                	xor    edi,edi
35bf:	ba 05 00 00 00       	mov    edx,0x5
35c4:	e8 d7 df ff ff       	call   15a0 <dcgettext@plt>
35c9:	48 89 d9             	mov    rcx,rbx
35cc:	48 89 c6             	mov    rsi,rax
35cf:	4c 89 e2             	mov    rdx,r12
35d2:	bf 01 00 00 00       	mov    edi,0x1
35d7:	31 c0                	xor    eax,eax
35d9:	e8 82 e1 ff ff       	call   1760 <__printf_chk@plt>
35de:	e9 f3 fc ff ff       	jmp    32d6 <usage+0x56>
35e3:	e8 b8 df ff ff       	call   15a0 <dcgettext@plt>
35e8:	48 8d 0d 99 39 00 00 	lea    rcx,[rip+0x3999]        # 6f88 <_IO_stdin_used+0x788>
35ef:	48 8d 15 32 33 00 00 	lea    rdx,[rip+0x3332]        # 6928 <_IO_stdin_used+0x128>
35f6:	48 89 c6             	mov    rsi,rax
35f9:	bf 01 00 00 00       	mov    edi,0x1
35fe:	31 c0                	xor    eax,eax
3600:	e8 5b e1 ff ff       	call   1760 <__printf_chk@plt>
3605:	31 f6                	xor    esi,esi
3607:	bf 05 00 00 00       	mov    edi,0x5
360c:	e8 3f e1 ff ff       	call   1750 <setlocale@plt>
3611:	48 85 c0             	test   rax,rax
3614:	74 18                	je     362e <usage+0x3ae>
3616:	48 8d 35 19 33 00 00 	lea    rsi,[rip+0x3319]        # 6936 <_IO_stdin_used+0x136>
361d:	ba 03 00 00 00       	mov    edx,0x3
3622:	48 89 c7             	mov    rdi,rax
3625:	e8 06 df ff ff       	call   1530 <strncmp@plt>
362a:	85 c0                	test   eax,eax
362c:	75 43                	jne    3671 <usage+0x3f1>
362e:	48 8d 35 05 33 00 00 	lea    rsi,[rip+0x3305]        # 693a <_IO_stdin_used+0x13a>
3635:	ba 05 00 00 00       	mov    edx,0x5
363a:	31 ff                	xor    edi,edi
363c:	4c 8d 25 6a 32 00 00 	lea    r12,[rip+0x326a]        # 68ad <_IO_stdin_used+0xad>
3643:	48 8d 1d 84 32 00 00 	lea    rbx,[rip+0x3284]        # 68ce <_IO_stdin_used+0xce>
364a:	e8 51 df ff ff       	call   15a0 <dcgettext@plt>
364f:	48 8d 0d 57 32 00 00 	lea    rcx,[rip+0x3257]        # 68ad <_IO_stdin_used+0xad>
3656:	48 8d 15 2b 39 00 00 	lea    rdx,[rip+0x392b]        # 6f88 <_IO_stdin_used+0x788>
365d:	48 89 c6             	mov    rsi,rax
3660:	bf 01 00 00 00       	mov    edi,0x1
3665:	31 c0                	xor    eax,eax
3667:	e8 f4 e0 ff ff       	call   1760 <__printf_chk@plt>
366c:	e9 45 ff ff ff       	jmp    35b6 <usage+0x336>
3671:	4c 8d 25 35 32 00 00 	lea    r12,[rip+0x3235]        # 68ad <_IO_stdin_used+0xad>
3678:	4c 8b 2d 29 6a 20 00 	mov    r13,QWORD PTR [rip+0x206a29]        # 20a0a8 <stdout@@GLIBC_2.2.5>
367f:	48 8d 35 2a 39 00 00 	lea    rsi,[rip+0x392a]        # 6fb0 <_IO_stdin_used+0x7b0>
3686:	31 ff                	xor    edi,edi
3688:	ba 05 00 00 00       	mov    edx,0x5
368d:	e8 0e df ff ff       	call   15a0 <dcgettext@plt>
3692:	4c 89 ee             	mov    rsi,r13
3695:	48 89 c7             	mov    rdi,rax
3698:	e8 03 e0 ff ff       	call   16a0 <fputs_unlocked@plt>
369d:	e9 cf fe ff ff       	jmp    3571 <usage+0x2f1>
36a2:	66 2e 0f 1f 84 00 00 	nop    WORD PTR cs:[rax+rax*1+0x0]
36a9:	00 00 00
36ac:	0f 1f 40 00          	nop    DWORD PTR [rax+0x0]

00000000000036b0 <close_stdout_set_file_name>:
36b0:	48 89 3d 41 6a 20 00 	mov    QWORD PTR [rip+0x206a41],rdi        # 20a0f8 <file_name>
36b7:	c3                   	ret
36b8:	0f 1f 84 00 00 00 00 	nop    DWORD PTR [rax+rax*1+0x0]
36bf:	00

00000000000036c0 <close_stdout_set_ignore_EPIPE>:
36c0:	40 88 3d 29 6a 20 00 	mov    BYTE PTR [rip+0x206a29],dil        # 20a0f0 <ignore_EPIPE>
36c7:	c3                   	ret
36c8:	0f 1f 84 00 00 00 00 	nop    DWORD PTR [rax+rax*1+0x0]
36cf:	00

00000000000036d0 <close_stdout>:
36d0:	55                   	push   rbp
36d1:	53                   	push   rbx
36d2:	48 83 ec 08          	sub    rsp,0x8
36d6:	48 8b 3d cb 69 20 00 	mov    rdi,QWORD PTR [rip+0x2069cb]        # 20a0a8 <stdout@@GLIBC_2.2.5>
36dd:	e8 2e 2e 00 00       	call   6510 <close_stream>
36e2:	85 c0                	test   eax,eax
36e4:	74 16                	je     36fc <close_stdout+0x2c>
36e6:	e8 35 de ff ff       	call   1520 <__errno_location@plt>
36eb:	80 3d fe 69 20 00 00 	cmp    BYTE PTR [rip+0x2069fe],0x0        # 20a0f0 <ignore_EPIPE>
36f2:	48 89 c3             	mov    rbx,rax
36f5:	74 1c                	je     3713 <close_stdout+0x43>
36f7:	83 38 20             	cmp    DWORD PTR [rax],0x20
36fa:	75 17                	jne    3713 <close_stdout+0x43>
36fc:	48 8b 3d dd 69 20 00 	mov    rdi,QWORD PTR [rip+0x2069dd]        # 20a0e0 <stderr@@GLIBC_2.2.5>
3703:	e8 08 2e 00 00       	call   6510 <close_stream>
3708:	85 c0                	test   eax,eax
370a:	75 46                	jne    3752 <close_stdout+0x82>
370c:	48 83 c4 08          	add    rsp,0x8
3710:	5b                   	pop    rbx
3711:	5d                   	pop    rbp
3712:	c3                   	ret
3713:	48 8d 35 7b 39 00 00 	lea    rsi,[rip+0x397b]        # 7095 <_IO_stdin_used+0x895>
371a:	31 ff                	xor    edi,edi
371c:	ba 05 00 00 00       	mov    edx,0x5
3721:	e8 7a de ff ff       	call   15a0 <dcgettext@plt>
3726:	48 8b 3d cb 69 20 00 	mov    rdi,QWORD PTR [rip+0x2069cb]        # 20a0f8 <file_name>
372d:	48 89 c5             	mov    rbp,rax
3730:	48 85 ff             	test   rdi,rdi
3733:	74 28                	je     375d <close_stdout+0x8d>
3735:	e8 c6 1c 00 00       	call   5400 <quotearg_colon>
373a:	8b 33                	mov    esi,DWORD PTR [rbx]
373c:	48 8d 15 77 32 00 00 	lea    rdx,[rip+0x3277]        # 69ba <_IO_stdin_used+0x1ba>
3743:	48 89 c1             	mov    rcx,rax
3746:	49 89 e8             	mov    r8,rbp
3749:	31 ff                	xor    edi,edi
374b:	31 c0                	xor    eax,eax
374d:	e8 1e e0 ff ff       	call   1770 <error@plt>
3752:	8b 3d c8 68 20 00    	mov    edi,DWORD PTR [rip+0x2068c8]        # 20a020 <exit_failure>
3758:	e8 e3 dd ff ff       	call   1540 <_exit@plt>
375d:	8b 33                	mov    esi,DWORD PTR [rbx]
375f:	48 8d 15 58 32 00 00 	lea    rdx,[rip+0x3258]        # 69be <_IO_stdin_used+0x1be>
3766:	48 89 c1             	mov    rcx,rax
3769:	31 ff                	xor    edi,edi
376b:	31 c0                	xor    eax,eax
376d:	e8 fe df ff ff       	call   1770 <error@plt>
3772:	eb de                	jmp    3752 <close_stdout+0x82>
3774:	66 2e 0f 1f 84 00 00 	nop    WORD PTR cs:[rax+rax*1+0x0]
377b:	00 00 00
377e:	66 90                	xchg   ax,ax

0000000000003780 <full_read>:
3780:	41 55                	push   r13
3782:	41 54                	push   r12
3784:	55                   	push   rbp
3785:	53                   	push   rbx
3786:	48 83 ec 08          	sub    rsp,0x8
378a:	48 85 d2             	test   rdx,rdx
378d:	74 62                	je     37f1 <full_read+0x71>
378f:	41 89 fd             	mov    r13d,edi
3792:	48 89 f5             	mov    rbp,rsi
3795:	48 89 d3             	mov    rbx,rdx
3798:	45 31 e4             	xor    r12d,r12d
379b:	eb 13                	jmp    37b0 <full_read+0x30>
379d:	0f 1f 00             	nop    DWORD PTR [rax]
37a0:	48 85 c0             	test   rax,rax
37a3:	74 33                	je     37d8 <full_read+0x58>
37a5:	49 01 c4             	add    r12,rax
37a8:	48 01 c5             	add    rbp,rax
37ab:	48 29 c3             	sub    rbx,rax
37ae:	74 14                	je     37c4 <full_read+0x44>
37b0:	48 89 da             	mov    rdx,rbx
37b3:	48 89 ee             	mov    rsi,rbp
37b6:	44 89 ef             	mov    edi,r13d
37b9:	e8 62 1e 00 00       	call   5620 <safe_read>
37be:	48 83 f8 ff          	cmp    rax,0xffffffffffffffff
37c2:	75 dc                	jne    37a0 <full_read+0x20>
37c4:	48 83 c4 08          	add    rsp,0x8
37c8:	4c 89 e0             	mov    rax,r12
37cb:	5b                   	pop    rbx
37cc:	5d                   	pop    rbp
37cd:	41 5c                	pop    r12
37cf:	41 5d                	pop    r13
37d1:	c3                   	ret
37d2:	66 0f 1f 44 00 00    	nop    WORD PTR [rax+rax*1+0x0]
37d8:	e8 43 dd ff ff       	call   1520 <__errno_location@plt>
37dd:	c7 00 00 00 00 00    	mov    DWORD PTR [rax],0x0
37e3:	48 83 c4 08          	add    rsp,0x8
37e7:	4c 89 e0             	mov    rax,r12
37ea:	5b                   	pop    rbx
37eb:	5d                   	pop    rbp
37ec:	41 5c                	pop    r12
37ee:	41 5d                	pop    r13
37f0:	c3                   	ret
37f1:	45 31 e4             	xor    r12d,r12d
37f4:	eb ce                	jmp    37c4 <full_read+0x44>
37f6:	66 2e 0f 1f 84 00 00 	nop    WORD PTR cs:[rax+rax*1+0x0]
37fd:	00 00 00

0000000000003800 <offtostr>:
3800:	48 85 ff             	test   rdi,rdi
3803:	48 8d 4e 14          	lea    rcx,[rsi+0x14]
3807:	c6 46 14 00          	mov    BYTE PTR [rsi+0x14],0x0
380b:	49 b9 67 66 66 66 66 	movabs r9,0x6666666666666667
3812:	66 66 66
3815:	48 be cd cc cc cc cc 	movabs rsi,0xcccccccccccccccd
381c:	cc cc cc
381f:	41 b8 30 00 00 00    	mov    r8d,0x30
3825:	78 3c                	js     3863 <offtostr+0x63>
3827:	66 0f 1f 84 00 00 00 	nop    WORD PTR [rax+rax*1+0x0]
382e:	00 00
3830:	48 89 f8             	mov    rax,rdi
3833:	48 83 e9 01          	sub    rcx,0x1
3837:	48 f7 e6             	mul    rsi
383a:	48 c1 ea 03          	shr    rdx,0x3
383e:	48 8d 04 92          	lea    rax,[rdx+rdx*4]
3842:	48 01 c0             	add    rax,rax
3845:	48 29 c7             	sub    rdi,rax
3848:	83 c7 30             	add    edi,0x30
384b:	48 85 d2             	test   rdx,rdx
384e:	40 88 39             	mov    BYTE PTR [rcx],dil
3851:	48 89 d7             	mov    rdi,rdx
3854:	75 da                	jne    3830 <offtostr+0x30>
3856:	48 89 c8             	mov    rax,rcx
3859:	c3                   	ret
385a:	66 0f 1f 44 00 00    	nop    WORD PTR [rax+rax*1+0x0]
3860:	48 89 f1             	mov    rcx,rsi
3863:	48 89 f8             	mov    rax,rdi
3866:	48 8d 71 ff          	lea    rsi,[rcx-0x1]
386a:	49 f7 e9             	imul   r9
386d:	48 89 f8             	mov    rax,rdi
3870:	48 c1 f8 3f          	sar    rax,0x3f
3874:	48 c1 fa 02          	sar    rdx,0x2
3878:	48 29 c2             	sub    rdx,rax
387b:	48 8d 04 92          	lea    rax,[rdx+rdx*4]
387f:	41 8d 04 40          	lea    eax,[r8+rax*2]
3883:	29 f8                	sub    eax,edi
3885:	48 85 d2             	test   rdx,rdx
3888:	48 89 d7             	mov    rdi,rdx
388b:	88 41 ff             	mov    BYTE PTR [rcx-0x1],al
388e:	75 d0                	jne    3860 <offtostr+0x60>
3890:	48 83 e9 02          	sub    rcx,0x2
3894:	c6 46 ff 2d          	mov    BYTE PTR [rsi-0x1],0x2d
3898:	48 89 c8             	mov    rax,rcx
389b:	c3                   	ret
389c:	0f 1f 40 00          	nop    DWORD PTR [rax+0x0]

00000000000038a0 <umaxtostr>:
38a0:	48 8d 4e 14          	lea    rcx,[rsi+0x14]
38a4:	c6 46 14 00          	mov    BYTE PTR [rsi+0x14],0x0
38a8:	48 be cd cc cc cc cc 	movabs rsi,0xcccccccccccccccd
38af:	cc cc cc
38b2:	66 0f 1f 44 00 00    	nop    WORD PTR [rax+rax*1+0x0]
38b8:	48 89 f8             	mov    rax,rdi
38bb:	48 83 e9 01          	sub    rcx,0x1
38bf:	48 f7 e6             	mul    rsi
38c2:	48 c1 ea 03          	shr    rdx,0x3
38c6:	48 8d 04 92          	lea    rax,[rdx+rdx*4]
38ca:	48 01 c0             	add    rax,rax
38cd:	48 29 c7             	sub    rdi,rax
38d0:	83 c7 30             	add    edi,0x30
38d3:	48 85 d2             	test   rdx,rdx
38d6:	40 88 39             	mov    BYTE PTR [rcx],dil
38d9:	48 89 d7             	mov    rdi,rdx
38dc:	75 da                	jne    38b8 <umaxtostr+0x18>
38de:	48 89 c8             	mov    rax,rcx
38e1:	c3                   	ret
38e2:	66 2e 0f 1f 84 00 00 	nop    WORD PTR cs:[rax+rax*1+0x0]
38e9:	00 00 00
38ec:	0f 1f 40 00          	nop    DWORD PTR [rax+0x0]

00000000000038f0 <set_program_name>:
38f0:	48 85 ff             	test   rdi,rdi
38f3:	53                   	push   rbx
38f4:	74 77                	je     396d <set_program_name+0x7d>
38f6:	be 2f 00 00 00       	mov    esi,0x2f
38fb:	48 89 fb             	mov    rbx,rdi
38fe:	e8 0d dd ff ff       	call   1610 <strrchr@plt>
3903:	48 85 c0             	test   rax,rax
3906:	74 55                	je     395d <set_program_name+0x6d>
3908:	4c 8d 40 01          	lea    r8,[rax+0x1]
390c:	4c 89 c2             	mov    rdx,r8
390f:	48 29 da             	sub    rdx,rbx
3912:	48 83 fa 06          	cmp    rdx,0x6
3916:	7e 45                	jle    395d <set_program_name+0x6d>
3918:	48 8d 70 fa          	lea    rsi,[rax-0x6]
391c:	48 8d 3d bd 37 00 00 	lea    rdi,[rip+0x37bd]        # 70e0 <_IO_stdin_used+0x8e0>
3923:	b9 07 00 00 00       	mov    ecx,0x7
3928:	f3 a6                	repz cmps BYTE PTR ds:[rsi],BYTE PTR es:[rdi]
392a:	0f 97 c2             	seta   dl
392d:	80 da 00             	sbb    dl,0x0
3930:	84 d2                	test   dl,dl
3932:	75 29                	jne    395d <set_program_name+0x6d>
3934:	48 8d 3d ad 37 00 00 	lea    rdi,[rip+0x37ad]        # 70e8 <_IO_stdin_used+0x8e8>
393b:	b9 03 00 00 00       	mov    ecx,0x3
3940:	4c 89 c6             	mov    rsi,r8
3943:	4c 89 c3             	mov    rbx,r8
3946:	f3 a6                	repz cmps BYTE PTR ds:[rsi],BYTE PTR es:[rdi]
3948:	0f 97 c2             	seta   dl
394b:	80 da 00             	sbb    dl,0x0
394e:	84 d2                	test   dl,dl
3950:	75 0b                	jne    395d <set_program_name+0x6d>
3952:	48 8d 58 04          	lea    rbx,[rax+0x4]
3956:	48 89 1d 43 67 20 00 	mov    QWORD PTR [rip+0x206743],rbx        # 20a0a0 <__progname@@GLIBC_2.2.5>
395d:	48 89 1d 9c 67 20 00 	mov    QWORD PTR [rip+0x20679c],rbx        # 20a100 <program_name>
3964:	48 89 1d 55 67 20 00 	mov    QWORD PTR [rip+0x206755],rbx        # 20a0c0 <__progname_full@@GLIBC_2.2.5>
396b:	5b                   	pop    rbx
396c:	c3                   	ret
396d:	48 8b 0d 6c 67 20 00 	mov    rcx,QWORD PTR [rip+0x20676c]        # 20a0e0 <stderr@@GLIBC_2.2.5>
3974:	48 8d 3d 2d 37 00 00 	lea    rdi,[rip+0x372d]        # 70a8 <_IO_stdin_used+0x8a8>
397b:	ba 37 00 00 00       	mov    edx,0x37
3980:	be 01 00 00 00       	mov    esi,0x1
3985:	e8 46 de ff ff       	call   17d0 <fwrite@plt>
398a:	e8 81 db ff ff       	call   1510 <abort@plt>
398f:	90                   	nop

0000000000003990 <gettext_quote.part.1>:
3990:	55                   	push   rbp
3991:	53                   	push   rbx
3992:	48 89 fd             	mov    rbp,rdi
3995:	89 f3                	mov    ebx,esi
3997:	48 83 ec 08          	sub    rsp,0x8
399b:	e8 50 2c 00 00       	call   65f0 <locale_charset>
39a0:	0f b6 10             	movzx  edx,BYTE PTR [rax]
39a3:	83 e2 df             	and    edx,0xffffffdf
39a6:	80 fa 55             	cmp    dl,0x55
39a9:	74 75                	je     3a20 <gettext_quote.part.1+0x90>
39ab:	80 fa 47             	cmp    dl,0x47
39ae:	74 20                	je     39d0 <gettext_quote.part.1+0x40>
39b0:	48 8d 05 44 37 00 00 	lea    rax,[rip+0x3744]        # 70fb <_IO_stdin_used+0x8fb>
39b7:	48 8d 15 3f 37 00 00 	lea    rdx,[rip+0x373f]        # 70fd <_IO_stdin_used+0x8fd>
39be:	83 fb 09             	cmp    ebx,0x9
39c1:	48 0f 45 c2          	cmovne rax,rdx
39c5:	48 83 c4 08          	add    rsp,0x8
39c9:	5b                   	pop    rbx
39ca:	5d                   	pop    rbp
39cb:	c3                   	ret
39cc:	0f 1f 40 00          	nop    DWORD PTR [rax+0x0]
39d0:	0f b6 50 01          	movzx  edx,BYTE PTR [rax+0x1]
39d4:	83 e2 df             	and    edx,0xffffffdf
39d7:	80 fa 42             	cmp    dl,0x42
39da:	75 d4                	jne    39b0 <gettext_quote.part.1+0x20>
39dc:	80 78 02 31          	cmp    BYTE PTR [rax+0x2],0x31
39e0:	75 ce                	jne    39b0 <gettext_quote.part.1+0x20>
39e2:	80 78 03 38          	cmp    BYTE PTR [rax+0x3],0x38
39e6:	75 c8                	jne    39b0 <gettext_quote.part.1+0x20>
39e8:	80 78 04 30          	cmp    BYTE PTR [rax+0x4],0x30
39ec:	75 c2                	jne    39b0 <gettext_quote.part.1+0x20>
39ee:	80 78 05 33          	cmp    BYTE PTR [rax+0x5],0x33
39f2:	75 bc                	jne    39b0 <gettext_quote.part.1+0x20>
39f4:	80 78 06 30          	cmp    BYTE PTR [rax+0x6],0x30
39f8:	75 b6                	jne    39b0 <gettext_quote.part.1+0x20>
39fa:	80 78 07 00          	cmp    BYTE PTR [rax+0x7],0x0
39fe:	75 b0                	jne    39b0 <gettext_quote.part.1+0x20>
3a00:	80 7d 00 60          	cmp    BYTE PTR [rbp+0x0],0x60
3a04:	48 8d 05 e9 36 00 00 	lea    rax,[rip+0x36e9]        # 70f4 <_IO_stdin_used+0x8f4>
3a0b:	48 8d 15 e6 36 00 00 	lea    rdx,[rip+0x36e6]        # 70f8 <_IO_stdin_used+0x8f8>
3a12:	48 0f 45 c2          	cmovne rax,rdx
3a16:	48 83 c4 08          	add    rsp,0x8
3a1a:	5b                   	pop    rbx
3a1b:	5d                   	pop    rbp
3a1c:	c3                   	ret
3a1d:	0f 1f 00             	nop    DWORD PTR [rax]
3a20:	0f b6 50 01          	movzx  edx,BYTE PTR [rax+0x1]
3a24:	83 e2 df             	and    edx,0xffffffdf
3a27:	80 fa 54             	cmp    dl,0x54
3a2a:	75 84                	jne    39b0 <gettext_quote.part.1+0x20>
3a2c:	0f b6 50 02          	movzx  edx,BYTE PTR [rax+0x2]
3a30:	83 e2 df             	and    edx,0xffffffdf
3a33:	80 fa 46             	cmp    dl,0x46
3a36:	0f 85 74 ff ff ff    	jne    39b0 <gettext_quote.part.1+0x20>
3a3c:	80 78 03 2d          	cmp    BYTE PTR [rax+0x3],0x2d
3a40:	0f 85 6a ff ff ff    	jne    39b0 <gettext_quote.part.1+0x20>
3a46:	80 78 04 38          	cmp    BYTE PTR [rax+0x4],0x38
3a4a:	0f 85 60 ff ff ff    	jne    39b0 <gettext_quote.part.1+0x20>
3a50:	80 78 05 00          	cmp    BYTE PTR [rax+0x5],0x0
3a54:	0f 85 56 ff ff ff    	jne    39b0 <gettext_quote.part.1+0x20>
3a5a:	80 7d 00 60          	cmp    BYTE PTR [rbp+0x0],0x60
3a5e:	48 8d 05 87 36 00 00 	lea    rax,[rip+0x3687]        # 70ec <_IO_stdin_used+0x8ec>
3a65:	48 8d 15 84 36 00 00 	lea    rdx,[rip+0x3684]        # 70f0 <_IO_stdin_used+0x8f0>
3a6c:	48 0f 45 c2          	cmovne rax,rdx
3a70:	48 83 c4 08          	add    rsp,0x8
3a74:	5b                   	pop    rbx
3a75:	5d                   	pop    rbp
3a76:	c3                   	ret
3a77:	66 0f 1f 84 00 00 00 	nop    WORD PTR [rax+rax*1+0x0]
3a7e:	00 00

0000000000003a80 <quotearg_buffer_restyled>:
3a80:	41 57                	push   r15
3a82:	41 56                	push   r14
3a84:	45 89 c7             	mov    r15d,r8d
3a87:	41 55                	push   r13
3a89:	41 54                	push   r12
3a8b:	49 89 fe             	mov    r14,rdi
3a8e:	55                   	push   rbp
3a8f:	53                   	push   rbx
3a90:	44 89 cb             	mov    ebx,r9d
3a93:	49 89 f5             	mov    r13,rsi
3a96:	48 89 cd             	mov    rbp,rcx
3a99:	83 e3 02             	and    ebx,0x2
3a9c:	48 81 ec b8 00 00 00 	sub    rsp,0xb8
3aa3:	48 8b 84 24 f0 00 00 	mov    rax,QWORD PTR [rsp+0xf0]
3aaa:	00
3aab:	48 89 54 24 10       	mov    QWORD PTR [rsp+0x10],rdx
3ab0:	44 89 44 24 08       	mov    DWORD PTR [rsp+0x8],r8d
3ab5:	44 89 4c 24 78       	mov    DWORD PTR [rsp+0x78],r9d
3aba:	48 89 44 24 20       	mov    QWORD PTR [rsp+0x20],rax
3abf:	48 8b 84 24 f8 00 00 	mov    rax,QWORD PTR [rsp+0xf8]
3ac6:	00
3ac7:	48 89 44 24 68       	mov    QWORD PTR [rsp+0x68],rax
3acc:	48 8b 84 24 00 01 00 	mov    rax,QWORD PTR [rsp+0x100]
3ad3:	00
3ad4:	48 89 44 24 60       	mov    QWORD PTR [rsp+0x60],rax
3ad9:	64 48 8b 04 25 28 00 	mov    rax,QWORD PTR fs:0x28
3ae0:	00 00
3ae2:	48 89 84 24 a8 00 00 	mov    QWORD PTR [rsp+0xa8],rax
3ae9:	00
3aea:	31 c0                	xor    eax,eax
3aec:	e8 bf da ff ff       	call   15b0 <__ctype_get_mb_cur_max@plt>
3af1:	41 83 ff 0a          	cmp    r15d,0xa
3af5:	48 89 44 24 58       	mov    QWORD PTR [rsp+0x58],rax
3afa:	0f 87 af 11 00 00    	ja     4caf <quotearg_buffer_restyled+0x122f>
3b00:	48 8d 0d 59 36 00 00 	lea    rcx,[rip+0x3659]        # 7160 <_IO_stdin_used+0x960>
3b07:	44 89 fa             	mov    edx,r15d
3b0a:	48 63 04 91          	movsxd rax,DWORD PTR [rcx+rdx*4]
3b0e:	48 01 c8             	add    rax,rcx
3b11:	ff e0                	jmp    rax
3b13:	c6 44 24 0e 01       	mov    BYTE PTR [rsp+0xe],0x1
3b18:	c6 44 24 7c 00       	mov    BYTE PTR [rsp+0x7c],0x0
3b1d:	45 31 e4             	xor    r12d,r12d
3b20:	48 c7 44 24 50 00 00 	mov    QWORD PTR [rsp+0x50],0x0
3b27:	00 00
3b29:	c6 44 24 0f 01       	mov    BYTE PTR [rsp+0xf],0x1
3b2e:	c6 44 24 0d 00       	mov    BYTE PTR [rsp+0xd],0x0
3b33:	48 8d 05 c3 35 00 00 	lea    rax,[rip+0x35c3]        # 70fd <_IO_stdin_used+0x8fd>
3b3a:	48 c7 44 24 18 01 00 	mov    QWORD PTR [rsp+0x18],0x1
3b41:	00 00
3b43:	45 31 ff             	xor    r15d,r15d
3b46:	c7 44 24 08 02 00 00 	mov    DWORD PTR [rsp+0x8],0x2
3b4d:	00
3b4e:	48 89 44 24 48       	mov    QWORD PTR [rsp+0x48],rax
3b53:	45 31 db             	xor    r11d,r11d
3b56:	48 89 e8             	mov    rax,rbp
3b59:	45 89 e0             	mov    r8d,r12d
3b5c:	4c 89 dd             	mov    rbp,r11
3b5f:	49 89 c3             	mov    r11,rax
3b62:	66 0f 1f 44 00 00    	nop    WORD PTR [rax+rax*1+0x0]
3b68:	49 39 eb             	cmp    r11,rbp
3b6b:	41 0f 95 c4          	setne  r12b
3b6f:	49 83 fb ff          	cmp    r11,0xffffffffffffffff
3b73:	75 0d                	jne    3b82 <quotearg_buffer_restyled+0x102>
3b75:	48 8b 44 24 10       	mov    rax,QWORD PTR [rsp+0x10]
3b7a:	80 3c 28 00          	cmp    BYTE PTR [rax+rbp*1],0x0
3b7e:	41 0f 95 c4          	setne  r12b
3b82:	45 84 e4             	test   r12b,r12b
3b85:	0f 84 55 06 00 00    	je     41e0 <quotearg_buffer_restyled+0x760>
3b8b:	83 7c 24 08 02       	cmp    DWORD PTR [rsp+0x8],0x2
3b90:	48 8b 7c 24 10       	mov    rdi,QWORD PTR [rsp+0x10]
3b95:	4c 8d 0c 2f          	lea    r9,[rdi+rbp*1]
3b99:	0f 95 c0             	setne  al
3b9c:	22 44 24 0d          	and    al,BYTE PTR [rsp+0xd]
3ba0:	41 89 c2             	mov    r10d,eax
3ba3:	0f 84 a7 00 00 00    	je     3c50 <quotearg_buffer_restyled+0x1d0>
3ba9:	48 8b 44 24 18       	mov    rax,QWORD PTR [rsp+0x18]
3bae:	48 85 c0             	test   rax,rax
3bb1:	0f 84 29 04 00 00    	je     3fe0 <quotearg_buffer_restyled+0x560>
3bb7:	49 83 fb ff          	cmp    r11,0xffffffffffffffff
3bbb:	48 8d 5c 05 00       	lea    rbx,[rbp+rax*1+0x0]
3bc0:	75 2e                	jne    3bf0 <quotearg_buffer_restyled+0x170>
3bc2:	48 83 f8 01          	cmp    rax,0x1
3bc6:	76 28                	jbe    3bf0 <quotearg_buffer_restyled+0x170>
3bc8:	44 88 44 24 38       	mov    BYTE PTR [rsp+0x38],r8b
3bcd:	44 88 54 24 30       	mov    BYTE PTR [rsp+0x30],r10b
3bd2:	4c 89 4c 24 28       	mov    QWORD PTR [rsp+0x28],r9
3bd7:	e8 e4 d9 ff ff       	call   15c0 <strlen@plt>
3bdc:	44 0f b6 44 24 38    	movzx  r8d,BYTE PTR [rsp+0x38]
3be2:	44 0f b6 54 24 30    	movzx  r10d,BYTE PTR [rsp+0x30]
3be8:	49 89 c3             	mov    r11,rax
3beb:	4c 8b 4c 24 28       	mov    r9,QWORD PTR [rsp+0x28]
3bf0:	4c 39 db             	cmp    rbx,r11
3bf3:	44 88 54 24 28       	mov    BYTE PTR [rsp+0x28],r10b
3bf8:	0f 87 b2 05 00 00    	ja     41b0 <quotearg_buffer_restyled+0x730>
3bfe:	48 8b 54 24 18       	mov    rdx,QWORD PTR [rsp+0x18]
3c03:	48 8b 74 24 48       	mov    rsi,QWORD PTR [rsp+0x48]
3c08:	4c 89 cf             	mov    rdi,r9
3c0b:	4c 89 5c 24 40       	mov    QWORD PTR [rsp+0x40],r11
3c10:	44 88 44 24 38       	mov    BYTE PTR [rsp+0x38],r8b
3c15:	4c 89 4c 24 30       	mov    QWORD PTR [rsp+0x30],r9
3c1a:	e8 71 da ff ff       	call   1690 <memcmp@plt>
3c1f:	85 c0                	test   eax,eax
3c21:	4c 8b 4c 24 30       	mov    r9,QWORD PTR [rsp+0x30]
3c26:	44 0f b6 44 24 38    	movzx  r8d,BYTE PTR [rsp+0x38]
3c2c:	4c 8b 5c 24 40       	mov    r11,QWORD PTR [rsp+0x40]
3c31:	0f 85 79 05 00 00    	jne    41b0 <quotearg_buffer_restyled+0x730>
3c37:	80 7c 24 0f 00       	cmp    BYTE PTR [rsp+0xf],0x0
3c3c:	44 0f b6 54 24 28    	movzx  r10d,BYTE PTR [rsp+0x28]
3c42:	0f 85 7d 0f 00 00    	jne    4bc5 <quotearg_buffer_restyled+0x1145>
3c48:	0f 1f 84 00 00 00 00 	nop    DWORD PTR [rax+rax*1+0x0]
3c4f:	00
3c50:	41 0f b6 19          	movzx  ebx,BYTE PTR [r9]
3c54:	80 fb 7e             	cmp    bl,0x7e
3c57:	0f 87 1b 03 00 00    	ja     3f78 <quotearg_buffer_restyled+0x4f8>
3c5d:	48 8d 0d 28 35 00 00 	lea    rcx,[rip+0x3528]        # 718c <_IO_stdin_used+0x98c>
3c64:	0f b6 d3             	movzx  edx,bl
3c67:	48 63 04 91          	movsxd rax,DWORD PTR [rcx+rdx*4]
3c6b:	48 01 c8             	add    rax,rcx
3c6e:	ff e0                	jmp    rax
3c70:	45 31 d2             	xor    r10d,r10d
3c73:	49 83 fb 01          	cmp    r11,0x1
3c77:	0f 95 c0             	setne  al
3c7a:	49 83 fb ff          	cmp    r11,0xffffffffffffffff
3c7e:	75 0c                	jne    3c8c <quotearg_buffer_restyled+0x20c>
3c80:	48 8b 44 24 10       	mov    rax,QWORD PTR [rsp+0x10]
3c85:	80 78 01 00          	cmp    BYTE PTR [rax+0x1],0x0
3c89:	0f 95 c0             	setne  al
3c8c:	83 7c 24 08 02       	cmp    DWORD PTR [rsp+0x8],0x2
3c91:	0f 94 c2             	sete   dl
3c94:	84 c0                	test   al,al
3c96:	0f 84 4c 02 00 00    	je     3ee8 <quotearg_buffer_restyled+0x468>
3c9c:	45 31 e4             	xor    r12d,r12d
3c9f:	31 c0                	xor    eax,eax
3ca1:	0f 1f 80 00 00 00 00 	nop    DWORD PTR [rax+0x0]
3ca8:	80 7c 24 0d 01       	cmp    BYTE PTR [rsp+0xd],0x1
3cad:	0f 85 0f 01 00 00    	jne    3dc2 <quotearg_buffer_restyled+0x342>
3cb3:	84 d2                	test   dl,dl
3cb5:	0f 85 07 01 00 00    	jne    3dc2 <quotearg_buffer_restyled+0x342>
3cbb:	48 8b 74 24 20       	mov    rsi,QWORD PTR [rsp+0x20]
3cc0:	48 85 f6             	test   rsi,rsi
3cc3:	74 14                	je     3cd9 <quotearg_buffer_restyled+0x259>
3cc5:	89 da                	mov    edx,ebx
3cc7:	c0 ea 05             	shr    dl,0x5
3cca:	0f b6 d2             	movzx  edx,dl
3ccd:	8b 14 96             	mov    edx,DWORD PTR [rsi+rdx*4]
3cd0:	0f a3 da             	bt     edx,ebx
3cd3:	0f 82 4a 01 00 00    	jb     3e23 <quotearg_buffer_restyled+0x3a3>
3cd9:	45 84 d2             	test   r10b,r10b
3cdc:	0f 85 41 01 00 00    	jne    3e23 <quotearg_buffer_restyled+0x3a3>
3ce2:	83 f0 01             	xor    eax,0x1
3ce5:	48 83 c5 01          	add    rbp,0x1
3ce9:	44 21 c0             	and    eax,r8d
3cec:	84 c0                	test   al,al
3cee:	74 20                	je     3d10 <quotearg_buffer_restyled+0x290>
3cf0:	4d 39 fd             	cmp    r13,r15
3cf3:	76 05                	jbe    3cfa <quotearg_buffer_restyled+0x27a>
3cf5:	43 c6 04 3e 27       	mov    BYTE PTR [r14+r15*1],0x27
3cfa:	49 8d 47 01          	lea    rax,[r15+0x1]
3cfe:	49 39 c5             	cmp    r13,rax
3d01:	76 06                	jbe    3d09 <quotearg_buffer_restyled+0x289>
3d03:	43 c6 44 3e 01 27    	mov    BYTE PTR [r14+r15*1+0x1],0x27
3d09:	49 83 c7 02          	add    r15,0x2
3d0d:	45 31 c0             	xor    r8d,r8d
3d10:	4d 39 ef             	cmp    r15,r13
3d13:	73 04                	jae    3d19 <quotearg_buffer_restyled+0x299>
3d15:	43 88 1c 3e          	mov    BYTE PTR [r14+r15*1],bl
3d19:	0f b6 7c 24 0e       	movzx  edi,BYTE PTR [rsp+0xe]
3d1e:	49 83 c7 01          	add    r15,0x1
3d22:	b8 00 00 00 00       	mov    eax,0x0
3d27:	45 84 e4             	test   r12b,r12b
3d2a:	0f 44 f8             	cmove  edi,eax
3d2d:	40 88 7c 24 0e       	mov    BYTE PTR [rsp+0xe],dil
3d32:	e9 31 fe ff ff       	jmp    3b68 <quotearg_buffer_restyled+0xe8>
3d37:	66 0f 1f 84 00 00 00 	nop    WORD PTR [rax+rax*1+0x0]
3d3e:	00 00
3d40:	45 31 d2             	xor    r10d,r10d
3d43:	8b 44 24 08          	mov    eax,DWORD PTR [rsp+0x8]
3d47:	83 f8 02             	cmp    eax,0x2
3d4a:	0f 84 b8 05 00 00    	je     4308 <quotearg_buffer_restyled+0x888>
3d50:	83 f8 05             	cmp    eax,0x5
3d53:	0f 84 6f 05 00 00    	je     42c8 <quotearg_buffer_restyled+0x848>
3d59:	83 f8 02             	cmp    eax,0x2
3d5c:	bb 3f 00 00 00       	mov    ebx,0x3f
3d61:	0f 94 c2             	sete   dl
3d64:	45 31 e4             	xor    r12d,r12d
3d67:	31 c0                	xor    eax,eax
3d69:	e9 3a ff ff ff       	jmp    3ca8 <quotearg_buffer_restyled+0x228>
3d6e:	66 90                	xchg   ax,ax
3d70:	45 31 d2             	xor    r10d,r10d
3d73:	83 7c 24 08 02       	cmp    DWORD PTR [rsp+0x8],0x2
3d78:	0f 84 02 05 00 00    	je     4280 <quotearg_buffer_restyled+0x800>
3d7e:	44 88 64 24 7c       	mov    BYTE PTR [rsp+0x7c],r12b
3d83:	31 d2                	xor    edx,edx
3d85:	31 c0                	xor    eax,eax
3d87:	bb 27 00 00 00       	mov    ebx,0x27
3d8c:	e9 17 ff ff ff       	jmp    3ca8 <quotearg_buffer_restyled+0x228>
3d91:	0f 1f 80 00 00 00 00 	nop    DWORD PTR [rax+0x0]
3d98:	ba 09 00 00 00       	mov    edx,0x9
3d9d:	bb 74 00 00 00       	mov    ebx,0x74
3da2:	83 7c 24 08 02       	cmp    DWORD PTR [rsp+0x8],0x2
3da7:	0f 94 c0             	sete   al
3daa:	22 44 24 0f          	and    al,BYTE PTR [rsp+0xf]
3dae:	0f 85 4a 01 00 00    	jne    3efe <quotearg_buffer_restyled+0x47e>
3db4:	80 7c 24 0d 00       	cmp    BYTE PTR [rsp+0xd],0x0
3db9:	75 65                	jne    3e20 <quotearg_buffer_restyled+0x3a0>
3dbb:	89 d3                	mov    ebx,edx
3dbd:	45 31 e4             	xor    r12d,r12d
3dc0:	31 c0                	xor    eax,eax
3dc2:	80 7c 24 0f 00       	cmp    BYTE PTR [rsp+0xf],0x0
3dc7:	0f 85 ee fe ff ff    	jne    3cbb <quotearg_buffer_restyled+0x23b>
3dcd:	e9 07 ff ff ff       	jmp    3cd9 <quotearg_buffer_restyled+0x259>
3dd2:	66 0f 1f 44 00 00    	nop    WORD PTR [rax+rax*1+0x0]
3dd8:	ba 08 00 00 00       	mov    edx,0x8
3ddd:	bb 62 00 00 00       	mov    ebx,0x62
3de2:	eb d0                	jmp    3db4 <quotearg_buffer_restyled+0x334>
3de4:	0f 1f 40 00          	nop    DWORD PTR [rax+0x0]
3de8:	83 7c 24 08 02       	cmp    DWORD PTR [rsp+0x8],0x2
3ded:	0f 84 cd 03 00 00    	je     41c0 <quotearg_buffer_restyled+0x740>
3df3:	80 7c 24 0d 00       	cmp    BYTE PTR [rsp+0xd],0x0
3df8:	0f 84 12 02 00 00    	je     4010 <quotearg_buffer_restyled+0x590>
3dfe:	80 7c 24 0f 00       	cmp    BYTE PTR [rsp+0xf],0x0
3e03:	0f 84 07 02 00 00    	je     4010 <quotearg_buffer_restyled+0x590>
3e09:	48 83 7c 24 18 00    	cmp    QWORD PTR [rsp+0x18],0x0
3e0f:	0f 85 b6 03 00 00    	jne    41cb <quotearg_buffer_restyled+0x74b>
3e15:	bb 5c 00 00 00       	mov    ebx,0x5c
3e1a:	66 0f 1f 44 00 00    	nop    WORD PTR [rax+rax*1+0x0]
3e20:	45 31 e4             	xor    r12d,r12d
3e23:	83 7c 24 08 02       	cmp    DWORD PTR [rsp+0x8],0x2
3e28:	0f 94 c2             	sete   dl
3e2b:	80 7c 24 0f 00       	cmp    BYTE PTR [rsp+0xf],0x0
3e30:	89 d0                	mov    eax,edx
3e32:	0f 85 50 08 00 00    	jne    4688 <quotearg_buffer_restyled+0xc08>
3e38:	44 89 c0             	mov    eax,r8d
3e3b:	83 f0 01             	xor    eax,0x1
3e3e:	20 d0                	and    al,dl
3e40:	74 2f                	je     3e71 <quotearg_buffer_restyled+0x3f1>
3e42:	4d 39 fd             	cmp    r13,r15
3e45:	76 05                	jbe    3e4c <quotearg_buffer_restyled+0x3cc>
3e47:	43 c6 04 3e 27       	mov    BYTE PTR [r14+r15*1],0x27
3e4c:	49 8d 57 01          	lea    rdx,[r15+0x1]
3e50:	49 39 d5             	cmp    r13,rdx
3e53:	76 06                	jbe    3e5b <quotearg_buffer_restyled+0x3db>
3e55:	43 c6 44 3e 01 24    	mov    BYTE PTR [r14+r15*1+0x1],0x24
3e5b:	49 8d 57 02          	lea    rdx,[r15+0x2]
3e5f:	49 39 d5             	cmp    r13,rdx
3e62:	76 06                	jbe    3e6a <quotearg_buffer_restyled+0x3ea>
3e64:	43 c6 44 3e 02 27    	mov    BYTE PTR [r14+r15*1+0x2],0x27
3e6a:	49 83 c7 03          	add    r15,0x3
3e6e:	41 89 c0             	mov    r8d,eax
3e71:	4d 39 fd             	cmp    r13,r15
3e74:	76 05                	jbe    3e7b <quotearg_buffer_restyled+0x3fb>
3e76:	43 c6 04 3e 5c       	mov    BYTE PTR [r14+r15*1],0x5c
3e7b:	49 83 c7 01          	add    r15,0x1
3e7f:	48 83 c5 01          	add    rbp,0x1
3e83:	e9 88 fe ff ff       	jmp    3d10 <quotearg_buffer_restyled+0x290>
3e88:	0f 1f 84 00 00 00 00 	nop    DWORD PTR [rax+rax*1+0x0]
3e8f:	00
3e90:	80 7c 24 0d 00       	cmp    BYTE PTR [rsp+0xd],0x0
3e95:	0f 85 c8 01 00 00    	jne    4063 <quotearg_buffer_restyled+0x5e3>
3e9b:	31 d2                	xor    edx,edx
3e9d:	f6 44 24 78 01       	test   BYTE PTR [rsp+0x78],0x1
3ea2:	0f 84 13 ff ff ff    	je     3dbb <quotearg_buffer_restyled+0x33b>
3ea8:	48 83 c5 01          	add    rbp,0x1
3eac:	e9 b7 fc ff ff       	jmp    3b68 <quotearg_buffer_restyled+0xe8>
3eb1:	0f 1f 80 00 00 00 00 	nop    DWORD PTR [rax+0x0]
3eb8:	83 7c 24 08 02       	cmp    DWORD PTR [rsp+0x8],0x2
3ebd:	0f 94 c2             	sete   dl
3ec0:	31 c0                	xor    eax,eax
3ec2:	e9 e1 fd ff ff       	jmp    3ca8 <quotearg_buffer_restyled+0x228>
3ec7:	66 0f 1f 84 00 00 00 	nop    WORD PTR [rax+rax*1+0x0]
3ece:	00 00
3ed0:	ba 07 00 00 00       	mov    edx,0x7
3ed5:	bb 61 00 00 00       	mov    ebx,0x61
3eda:	e9 d5 fe ff ff       	jmp    3db4 <quotearg_buffer_restyled+0x334>
3edf:	90                   	nop
3ee0:	83 7c 24 08 02       	cmp    DWORD PTR [rsp+0x8],0x2
3ee5:	0f 94 c2             	sete   dl
3ee8:	48 85 ed             	test   rbp,rbp
3eeb:	0f 85 ab fd ff ff    	jne    3c9c <quotearg_buffer_restyled+0x21c>
3ef1:	0f b6 44 24 0f       	movzx  eax,BYTE PTR [rsp+0xf]
3ef6:	20 d0                	and    al,dl
3ef8:	0f 84 aa fd ff ff    	je     3ca8 <quotearg_buffer_restyled+0x228>
3efe:	4c 89 dd             	mov    rbp,r11
3f01:	c7 44 24 08 02 00 00 	mov    DWORD PTR [rsp+0x8],0x2
3f08:	00
3f09:	e9 fb 06 00 00       	jmp    4609 <quotearg_buffer_restyled+0xb89>
3f0e:	66 90                	xchg   ax,ax
3f10:	83 7c 24 08 02       	cmp    DWORD PTR [rsp+0x8],0x2
3f15:	0f 94 c2             	sete   dl
3f18:	45 31 e4             	xor    r12d,r12d
3f1b:	eb d4                	jmp    3ef1 <quotearg_buffer_restyled+0x471>
3f1d:	0f 1f 00             	nop    DWORD PTR [rax]
3f20:	83 7c 24 08 02       	cmp    DWORD PTR [rsp+0x8],0x2
3f25:	bb 20 00 00 00       	mov    ebx,0x20
3f2a:	0f 94 c2             	sete   dl
3f2d:	eb c2                	jmp    3ef1 <quotearg_buffer_restyled+0x471>
3f2f:	90                   	nop
3f30:	ba 0d 00 00 00       	mov    edx,0xd
3f35:	bb 72 00 00 00       	mov    ebx,0x72
3f3a:	e9 63 fe ff ff       	jmp    3da2 <quotearg_buffer_restyled+0x322>
3f3f:	90                   	nop
3f40:	ba 0c 00 00 00       	mov    edx,0xc
3f45:	bb 66 00 00 00       	mov    ebx,0x66
3f4a:	e9 65 fe ff ff       	jmp    3db4 <quotearg_buffer_restyled+0x334>
3f4f:	90                   	nop
3f50:	ba 0b 00 00 00       	mov    edx,0xb
3f55:	bb 76 00 00 00       	mov    ebx,0x76
3f5a:	e9 55 fe ff ff       	jmp    3db4 <quotearg_buffer_restyled+0x334>
3f5f:	90                   	nop
3f60:	ba 0a 00 00 00       	mov    edx,0xa
3f65:	bb 6e 00 00 00       	mov    ebx,0x6e
3f6a:	e9 33 fe ff ff       	jmp    3da2 <quotearg_buffer_restyled+0x322>
3f6f:	90                   	nop
3f70:	45 31 d2             	xor    r10d,r10d
3f73:	0f 1f 44 00 00       	nop    DWORD PTR [rax+rax*1+0x0]
3f78:	48 83 7c 24 58 01    	cmp    QWORD PTR [rsp+0x58],0x1
3f7e:	0f 85 a4 03 00 00    	jne    4328 <quotearg_buffer_restyled+0x8a8>
3f84:	4c 89 5c 24 38       	mov    QWORD PTR [rsp+0x38],r11
3f89:	44 88 44 24 30       	mov    BYTE PTR [rsp+0x30],r8b
3f8e:	44 88 54 24 28       	mov    BYTE PTR [rsp+0x28],r10b
3f93:	e8 78 d8 ff ff       	call   1810 <__ctype_b_loc@plt>
3f98:	48 8b 08             	mov    rcx,QWORD PTR [rax]
3f9b:	0f b6 d3             	movzx  edx,bl
3f9e:	44 0f b6 54 24 28    	movzx  r10d,BYTE PTR [rsp+0x28]
3fa4:	44 0f b6 44 24 30    	movzx  r8d,BYTE PTR [rsp+0x30]
3faa:	4c 8b 5c 24 38       	mov    r11,QWORD PTR [rsp+0x38]
3faf:	bf 01 00 00 00       	mov    edi,0x1
3fb4:	0f b7 04 51          	movzx  eax,WORD PTR [rcx+rdx*2]
3fb8:	66 25 00 40          	and    ax,0x4000
3fbc:	41 0f 95 c4          	setne  r12b
3fc0:	0f 94 c0             	sete   al
3fc3:	22 44 24 0d          	and    al,BYTE PTR [rsp+0xd]
3fc7:	84 c0                	test   al,al
3fc9:	0f 85 92 09 00 00    	jne    4961 <quotearg_buffer_restyled+0xee1>
3fcf:	83 7c 24 08 02       	cmp    DWORD PTR [rsp+0x8],0x2
3fd4:	0f 94 c2             	sete   dl
3fd7:	e9 cc fc ff ff       	jmp    3ca8 <quotearg_buffer_restyled+0x228>
3fdc:	0f 1f 40 00          	nop    DWORD PTR [rax+0x0]
3fe0:	41 0f b6 19          	movzx  ebx,BYTE PTR [r9]
3fe4:	80 fb 7e             	cmp    bl,0x7e
3fe7:	77 87                	ja     3f70 <quotearg_buffer_restyled+0x4f0>
3fe9:	48 8d 0d 98 33 00 00 	lea    rcx,[rip+0x3398]        # 7388 <_IO_stdin_used+0xb88>
3ff0:	0f b6 d3             	movzx  edx,bl
3ff3:	48 63 04 91          	movsxd rax,DWORD PTR [rcx+rdx*4]
3ff7:	48 01 c8             	add    rax,rcx
3ffa:	ff e0                	jmp    rax
3ffc:	0f 1f 40 00          	nop    DWORD PTR [rax+0x0]
4000:	45 31 d2             	xor    r10d,r10d
4003:	80 7c 24 0d 00       	cmp    BYTE PTR [rsp+0xd],0x0
4008:	0f 85 f0 fd ff ff    	jne    3dfe <quotearg_buffer_restyled+0x37e>
400e:	66 90                	xchg   ax,ax
4010:	ba 5c 00 00 00       	mov    edx,0x5c
4015:	bb 5c 00 00 00       	mov    ebx,0x5c
401a:	e9 95 fd ff ff       	jmp    3db4 <quotearg_buffer_restyled+0x334>
401f:	90                   	nop
4020:	ba 0c 00 00 00       	mov    edx,0xc
4025:	45 31 d2             	xor    r10d,r10d
4028:	bb 66 00 00 00       	mov    ebx,0x66
402d:	e9 82 fd ff ff       	jmp    3db4 <quotearg_buffer_restyled+0x334>
4032:	66 0f 1f 44 00 00    	nop    WORD PTR [rax+rax*1+0x0]
4038:	ba 0a 00 00 00       	mov    edx,0xa
403d:	45 31 d2             	xor    r10d,r10d
4040:	bb 6e 00 00 00       	mov    ebx,0x6e
4045:	e9 58 fd ff ff       	jmp    3da2 <quotearg_buffer_restyled+0x322>
404a:	66 0f 1f 44 00 00    	nop    WORD PTR [rax+rax*1+0x0]
4050:	bb 61 00 00 00       	mov    ebx,0x61
4055:	e9 c6 fd ff ff       	jmp    3e20 <quotearg_buffer_restyled+0x3a0>
405a:	66 0f 1f 44 00 00    	nop    WORD PTR [rax+rax*1+0x0]
4060:	45 31 d2             	xor    r10d,r10d
4063:	83 7c 24 08 02       	cmp    DWORD PTR [rsp+0x8],0x2
4068:	0f 94 c2             	sete   dl
406b:	80 7c 24 0f 00       	cmp    BYTE PTR [rsp+0xf],0x0
4070:	0f 85 94 0b 00 00    	jne    4c0a <quotearg_buffer_restyled+0x118a>
4076:	44 89 c0             	mov    eax,r8d
4079:	4c 89 f9             	mov    rcx,r15
407c:	83 f0 01             	xor    eax,0x1
407f:	20 d0                	and    al,dl
4081:	74 2d                	je     40b0 <quotearg_buffer_restyled+0x630>
4083:	4d 39 fd             	cmp    r13,r15
4086:	76 05                	jbe    408d <quotearg_buffer_restyled+0x60d>
4088:	43 c6 04 3e 27       	mov    BYTE PTR [r14+r15*1],0x27
408d:	49 8d 4f 01          	lea    rcx,[r15+0x1]
4091:	49 39 cd             	cmp    r13,rcx
4094:	76 06                	jbe    409c <quotearg_buffer_restyled+0x61c>
4096:	43 c6 44 3e 01 24    	mov    BYTE PTR [r14+r15*1+0x1],0x24
409c:	49 8d 4f 02          	lea    rcx,[r15+0x2]
40a0:	49 39 cd             	cmp    r13,rcx
40a3:	0f 87 30 06 00 00    	ja     46d9 <quotearg_buffer_restyled+0xc59>
40a9:	49 8d 4f 03          	lea    rcx,[r15+0x3]
40ad:	41 89 c0             	mov    r8d,eax
40b0:	49 39 cd             	cmp    r13,rcx
40b3:	76 05                	jbe    40ba <quotearg_buffer_restyled+0x63a>
40b5:	41 c6 04 0e 5c       	mov    BYTE PTR [r14+rcx*1],0x5c
40ba:	83 7c 24 08 02       	cmp    DWORD PTR [rsp+0x8],0x2
40bf:	4c 8d 79 01          	lea    r15,[rcx+0x1]
40c3:	0f 84 00 06 00 00    	je     46c9 <quotearg_buffer_restyled+0xc49>
40c9:	48 8d 45 01          	lea    rax,[rbp+0x1]
40cd:	4c 39 d8             	cmp    rax,r11
40d0:	73 19                	jae    40eb <quotearg_buffer_restyled+0x66b>
40d2:	48 8b 44 24 10       	mov    rax,QWORD PTR [rsp+0x10]
40d7:	0f b6 44 28 01       	movzx  eax,BYTE PTR [rax+rbp*1+0x1]
40dc:	88 44 24 28          	mov    BYTE PTR [rsp+0x28],al
40e0:	83 e8 30             	sub    eax,0x30
40e3:	3c 09                	cmp    al,0x9
40e5:	0f 86 2e 08 00 00    	jbe    4919 <quotearg_buffer_restyled+0xe99>
40eb:	44 89 e0             	mov    eax,r12d
40ee:	bb 30 00 00 00       	mov    ebx,0x30
40f3:	45 31 e4             	xor    r12d,r12d
40f6:	e9 ad fb ff ff       	jmp    3ca8 <quotearg_buffer_restyled+0x228>
40fb:	0f 1f 44 00 00       	nop    DWORD PTR [rax+rax*1+0x0]
4100:	83 7c 24 08 02       	cmp    DWORD PTR [rsp+0x8],0x2
4105:	45 89 d4             	mov    r12d,r10d
4108:	0f 94 c2             	sete   dl
410b:	45 31 d2             	xor    r10d,r10d
410e:	31 c0                	xor    eax,eax
4110:	e9 93 fb ff ff       	jmp    3ca8 <quotearg_buffer_restyled+0x228>
4115:	0f 1f 00             	nop    DWORD PTR [rax]
4118:	83 7c 24 08 02       	cmp    DWORD PTR [rsp+0x8],0x2
411d:	0f 94 c2             	sete   dl
4120:	45 31 d2             	xor    r10d,r10d
4123:	e9 c0 fd ff ff       	jmp    3ee8 <quotearg_buffer_restyled+0x468>
4128:	0f 1f 84 00 00 00 00 	nop    DWORD PTR [rax+rax*1+0x0]
412f:	00
4130:	83 7c 24 08 02       	cmp    DWORD PTR [rsp+0x8],0x2
4135:	0f 94 c2             	sete   dl
4138:	45 31 d2             	xor    r10d,r10d
413b:	45 31 e4             	xor    r12d,r12d
413e:	e9 ae fd ff ff       	jmp    3ef1 <quotearg_buffer_restyled+0x471>
4143:	0f 1f 44 00 00       	nop    DWORD PTR [rax+rax*1+0x0]
4148:	83 7c 24 08 02       	cmp    DWORD PTR [rsp+0x8],0x2
414d:	45 89 d4             	mov    r12d,r10d
4150:	bb 20 00 00 00       	mov    ebx,0x20
4155:	0f 94 c2             	sete   dl
4158:	45 31 d2             	xor    r10d,r10d
415b:	e9 91 fd ff ff       	jmp    3ef1 <quotearg_buffer_restyled+0x471>
4160:	ba 0d 00 00 00       	mov    edx,0xd
4165:	45 31 d2             	xor    r10d,r10d
4168:	bb 72 00 00 00       	mov    ebx,0x72
416d:	e9 30 fc ff ff       	jmp    3da2 <quotearg_buffer_restyled+0x322>
4172:	66 0f 1f 44 00 00    	nop    WORD PTR [rax+rax*1+0x0]
4178:	bb 76 00 00 00       	mov    ebx,0x76
417d:	e9 9e fc ff ff       	jmp    3e20 <quotearg_buffer_restyled+0x3a0>
4182:	66 0f 1f 44 00 00    	nop    WORD PTR [rax+rax*1+0x0]
4188:	ba 09 00 00 00       	mov    edx,0x9
418d:	45 31 d2             	xor    r10d,r10d
4190:	bb 74 00 00 00       	mov    ebx,0x74
4195:	e9 08 fc ff ff       	jmp    3da2 <quotearg_buffer_restyled+0x322>
419a:	66 0f 1f 44 00 00    	nop    WORD PTR [rax+rax*1+0x0]
41a0:	bb 62 00 00 00       	mov    ebx,0x62
41a5:	e9 76 fc ff ff       	jmp    3e20 <quotearg_buffer_restyled+0x3a0>
41aa:	66 0f 1f 44 00 00    	nop    WORD PTR [rax+rax*1+0x0]
41b0:	45 31 d2             	xor    r10d,r10d
41b3:	e9 98 fa ff ff       	jmp    3c50 <quotearg_buffer_restyled+0x1d0>
41b8:	0f 1f 84 00 00 00 00 	nop    DWORD PTR [rax+rax*1+0x0]
41bf:	00
41c0:	80 7c 24 0f 00       	cmp    BYTE PTR [rsp+0xf],0x0
41c5:	0f 85 65 09 00 00    	jne    4b30 <quotearg_buffer_restyled+0x10b0>
41cb:	48 83 c5 01          	add    rbp,0x1
41cf:	44 89 c0             	mov    eax,r8d
41d2:	45 31 e4             	xor    r12d,r12d
41d5:	bb 5c 00 00 00       	mov    ebx,0x5c
41da:	e9 0d fb ff ff       	jmp    3cec <quotearg_buffer_restyled+0x26c>
41df:	90                   	nop
41e0:	83 7c 24 08 02       	cmp    DWORD PTR [rsp+0x8],0x2
41e5:	0f b6 5c 24 0f       	movzx  ebx,BYTE PTR [rsp+0xf]
41ea:	45 89 c4             	mov    r12d,r8d
41ed:	4c 89 dd             	mov    rbp,r11
41f0:	0f 94 c2             	sete   dl
41f3:	89 d8                	mov    eax,ebx
41f5:	4d 85 ff             	test   r15,r15
41f8:	0f 94 c1             	sete   cl
41fb:	21 d0                	and    eax,edx
41fd:	20 c8                	and    al,cl
41ff:	0f 85 61 0a 00 00    	jne    4c66 <quotearg_buffer_restyled+0x11e6>
4205:	89 d8                	mov    eax,ebx
4207:	83 f0 01             	xor    eax,0x1
420a:	20 c2                	and    dl,al
420c:	0f 84 6a 09 00 00    	je     4b7c <quotearg_buffer_restyled+0x10fc>
4212:	80 7c 24 7c 00       	cmp    BYTE PTR [rsp+0x7c],0x0
4217:	0f 84 5d 09 00 00    	je     4b7a <quotearg_buffer_restyled+0x10fa>
421d:	80 7c 24 0e 00       	cmp    BYTE PTR [rsp+0xe],0x0
4222:	0f 85 f5 09 00 00    	jne    4c1d <quotearg_buffer_restyled+0x119d>
4228:	4d 85 ed             	test   r13,r13
422b:	0f 94 c0             	sete   al
422e:	48 83 7c 24 50 00    	cmp    QWORD PTR [rsp+0x50],0x0
4234:	0f 95 c2             	setne  dl
4237:	20 d0                	and    al,dl
4239:	0f 84 1d 0a 00 00    	je     4c5c <quotearg_buffer_restyled+0x11dc>
423f:	4c 8b 6c 24 50       	mov    r13,QWORD PTR [rsp+0x50]
4244:	48 8d 1d b2 2e 00 00 	lea    rbx,[rip+0x2eb2]        # 70fd <_IO_stdin_used+0x8fd>
424b:	41 c6 06 27          	mov    BYTE PTR [r14],0x27
424f:	c7 44 24 08 02 00 00 	mov    DWORD PTR [rsp+0x8],0x2
4256:	00
4257:	41 bf 01 00 00 00    	mov    r15d,0x1
425d:	48 c7 44 24 18 01 00 	mov    QWORD PTR [rsp+0x18],0x1
4264:	00 00
4266:	c6 44 24 0f 00       	mov    BYTE PTR [rsp+0xf],0x0
426b:	48 89 5c 24 48       	mov    QWORD PTR [rsp+0x48],rbx
4270:	88 44 24 7c          	mov    BYTE PTR [rsp+0x7c],al
4274:	e9 da f8 ff ff       	jmp    3b53 <quotearg_buffer_restyled+0xd3>
4279:	0f 1f 80 00 00 00 00 	nop    DWORD PTR [rax+0x0]
4280:	80 7c 24 0f 00       	cmp    BYTE PTR [rsp+0xf],0x0
4285:	0f 85 a5 08 00 00    	jne    4b30 <quotearg_buffer_restyled+0x10b0>
428b:	4d 85 ed             	test   r13,r13
428e:	0f 84 fc 03 00 00    	je     4690 <quotearg_buffer_restyled+0xc10>
4294:	31 d2                	xor    edx,edx
4296:	48 83 7c 24 50 00    	cmp    QWORD PTR [rsp+0x50],0x0
429c:	0f 85 ee 03 00 00    	jne    4690 <quotearg_buffer_restyled+0xc10>
42a2:	4c 89 6c 24 50       	mov    QWORD PTR [rsp+0x50],r13
42a7:	49 83 c7 03          	add    r15,0x3
42ab:	31 c0                	xor    eax,eax
42ad:	44 88 64 24 7c       	mov    BYTE PTR [rsp+0x7c],r12b
42b2:	45 31 c0             	xor    r8d,r8d
42b5:	49 89 d5             	mov    r13,rdx
42b8:	bb 27 00 00 00       	mov    ebx,0x27
42bd:	e9 17 fa ff ff       	jmp    3cd9 <quotearg_buffer_restyled+0x259>
42c2:	66 0f 1f 44 00 00    	nop    WORD PTR [rax+rax*1+0x0]
42c8:	f6 44 24 78 04       	test   BYTE PTR [rsp+0x78],0x4
42cd:	74 21                	je     42f0 <quotearg_buffer_restyled+0x870>
42cf:	48 8d 4d 02          	lea    rcx,[rbp+0x2]
42d3:	4c 39 d9             	cmp    rcx,r11
42d6:	73 18                	jae    42f0 <quotearg_buffer_restyled+0x870>
42d8:	48 8b 44 24 10       	mov    rax,QWORD PTR [rsp+0x10]
42dd:	80 7c 28 01 3f       	cmp    BYTE PTR [rax+rbp*1+0x1],0x3f
42e2:	0f 84 8a 07 00 00    	je     4a72 <quotearg_buffer_restyled+0xff2>
42e8:	0f 1f 84 00 00 00 00 	nop    DWORD PTR [rax+rax*1+0x0]
42ef:	00
42f0:	31 d2                	xor    edx,edx
42f2:	45 31 e4             	xor    r12d,r12d
42f5:	31 c0                	xor    eax,eax
42f7:	bb 3f 00 00 00       	mov    ebx,0x3f
42fc:	e9 a7 f9 ff ff       	jmp    3ca8 <quotearg_buffer_restyled+0x228>
4301:	0f 1f 80 00 00 00 00 	nop    DWORD PTR [rax+0x0]
4308:	80 7c 24 0f 00       	cmp    BYTE PTR [rsp+0xf],0x0
430d:	0f 85 1d 08 00 00    	jne    4b30 <quotearg_buffer_restyled+0x10b0>
4313:	45 31 e4             	xor    r12d,r12d
4316:	31 c0                	xor    eax,eax
4318:	bb 3f 00 00 00       	mov    ebx,0x3f
431d:	e9 b7 f9 ff ff       	jmp    3cd9 <quotearg_buffer_restyled+0x259>
4322:	66 0f 1f 44 00 00    	nop    WORD PTR [rax+rax*1+0x0]
4328:	48 8d 84 24 a0 00 00 	lea    rax,[rsp+0xa0]
432f:	00
4330:	49 83 fb ff          	cmp    r11,0xffffffffffffffff
4334:	48 c7 84 24 a0 00 00 	mov    QWORD PTR [rsp+0xa0],0x0
433b:	00 00 00 00 00
4340:	48 89 44 24 28       	mov    QWORD PTR [rsp+0x28],rax
4345:	75 2d                	jne    4374 <quotearg_buffer_restyled+0x8f4>
4347:	48 8b 7c 24 10       	mov    rdi,QWORD PTR [rsp+0x10]
434c:	44 88 44 24 40       	mov    BYTE PTR [rsp+0x40],r8b
4351:	44 88 54 24 38       	mov    BYTE PTR [rsp+0x38],r10b
4356:	4c 89 4c 24 30       	mov    QWORD PTR [rsp+0x30],r9
435b:	e8 60 d2 ff ff       	call   15c0 <strlen@plt>
4360:	44 0f b6 44 24 40    	movzx  r8d,BYTE PTR [rsp+0x40]
4366:	44 0f b6 54 24 38    	movzx  r10d,BYTE PTR [rsp+0x38]
436c:	49 89 c3             	mov    r11,rax
436f:	4c 8b 4c 24 30       	mov    r9,QWORD PTR [rsp+0x30]
4374:	48 8d 84 24 9c 00 00 	lea    rax,[rsp+0x9c]
437b:	00
437c:	31 c9                	xor    ecx,ecx
437e:	88 5c 24 7e          	mov    BYTE PTR [rsp+0x7e],bl
4382:	44 88 44 24 7d       	mov    BYTE PTR [rsp+0x7d],r8b
4387:	48 89 cb             	mov    rbx,rcx
438a:	4c 89 8c 24 88 00 00 	mov    QWORD PTR [rsp+0x88],r9
4391:	00
4392:	48 89 44 24 38       	mov    QWORD PTR [rsp+0x38],rax
4397:	44 88 54 24 7f       	mov    BYTE PTR [rsp+0x7f],r10b
439c:	4c 89 bc 24 80 00 00 	mov    QWORD PTR [rsp+0x80],r15
43a3:	00
43a4:	4c 89 74 24 40       	mov    QWORD PTR [rsp+0x40],r14
43a9:	4c 89 6c 24 70       	mov    QWORD PTR [rsp+0x70],r13
43ae:	4c 89 5c 24 30       	mov    QWORD PTR [rsp+0x30],r11
43b3:	48 8b 44 24 10       	mov    rax,QWORD PTR [rsp+0x10]
43b8:	4c 8d 74 1d 00       	lea    r14,[rbp+rbx*1+0x0]
43bd:	48 8b 54 24 30       	mov    rdx,QWORD PTR [rsp+0x30]
43c2:	48 8b 4c 24 28       	mov    rcx,QWORD PTR [rsp+0x28]
43c7:	48 8b 7c 24 38       	mov    rdi,QWORD PTR [rsp+0x38]
43cc:	4e 8d 2c 30          	lea    r13,[rax+r14*1]
43d0:	4c 29 f2             	sub    rdx,r14
43d3:	4c 89 ee             	mov    rsi,r13
43d6:	e8 a5 20 00 00       	call   6480 <rpl_mbrtowc>
43db:	48 85 c0             	test   rax,rax
43de:	49 89 c7             	mov    r15,rax
43e1:	74 4e                	je     4431 <quotearg_buffer_restyled+0x9b1>
43e3:	48 83 f8 ff          	cmp    rax,0xffffffffffffffff
43e7:	0f 84 18 06 00 00    	je     4a05 <quotearg_buffer_restyled+0xf85>
43ed:	48 83 f8 fe          	cmp    rax,0xfffffffffffffffe
43f1:	0f 84 9a 05 00 00    	je     4991 <quotearg_buffer_restyled+0xf11>
43f7:	83 7c 24 08 02       	cmp    DWORD PTR [rsp+0x8],0x2
43fc:	0f 94 c0             	sete   al
43ff:	22 44 24 0f          	and    al,BYTE PTR [rsp+0xf]
4403:	0f 85 97 01 00 00    	jne    45a0 <quotearg_buffer_restyled+0xb20>
4409:	8b bc 24 9c 00 00 00 	mov    edi,DWORD PTR [rsp+0x9c]
4410:	e8 eb d3 ff ff       	call   1800 <iswprint@plt>
4415:	48 8b 7c 24 28       	mov    rdi,QWORD PTR [rsp+0x28]
441a:	85 c0                	test   eax,eax
441c:	b8 00 00 00 00       	mov    eax,0x0
4421:	44 0f 44 e0          	cmove  r12d,eax
4425:	4c 01 fb             	add    rbx,r15
4428:	e8 c3 d3 ff ff       	call   17f0 <mbsinit@plt>
442d:	85 c0                	test   eax,eax
442f:	74 82                	je     43b3 <quotearg_buffer_restyled+0x933>
4431:	44 89 e2             	mov    edx,r12d
4434:	48 89 df             	mov    rdi,rbx
4437:	44 0f b6 44 24 7d    	movzx  r8d,BYTE PTR [rsp+0x7d]
443d:	83 f2 01             	xor    edx,0x1
4440:	0f b6 5c 24 7e       	movzx  ebx,BYTE PTR [rsp+0x7e]
4445:	44 0f b6 54 24 7f    	movzx  r10d,BYTE PTR [rsp+0x7f]
444b:	22 54 24 0d          	and    dl,BYTE PTR [rsp+0xd]
444f:	4c 8b bc 24 80 00 00 	mov    r15,QWORD PTR [rsp+0x80]
4456:	00
4457:	4c 8b 74 24 40       	mov    r14,QWORD PTR [rsp+0x40]
445c:	4c 8b 6c 24 70       	mov    r13,QWORD PTR [rsp+0x70]
4461:	4c 8b 5c 24 30       	mov    r11,QWORD PTR [rsp+0x30]
4466:	48 83 ff 01          	cmp    rdi,0x1
446a:	0f 86 fb 05 00 00    	jbe    4a6b <quotearg_buffer_restyled+0xfeb>
4470:	48 89 f9             	mov    rcx,rdi
4473:	31 f6                	xor    esi,esi
4475:	44 0f b6 4c 24 0f    	movzx  r9d,BYTE PTR [rsp+0xf]
447b:	48 01 e9             	add    rcx,rbp
447e:	48 8b 7c 24 10       	mov    rdi,QWORD PTR [rsp+0x10]
4483:	e9 b6 00 00 00       	jmp    453e <quotearg_buffer_restyled+0xabe>
4488:	0f 1f 84 00 00 00 00 	nop    DWORD PTR [rax+rax*1+0x0]
448f:	00
4490:	83 7c 24 08 02       	cmp    DWORD PTR [rsp+0x8],0x2
4495:	0f 94 c0             	sete   al
4498:	45 84 c9             	test   r9b,r9b
449b:	0f 85 af 04 00 00    	jne    4950 <quotearg_buffer_restyled+0xed0>
44a1:	44 89 c6             	mov    esi,r8d
44a4:	83 f6 01             	xor    esi,0x1
44a7:	40 20 f0             	and    al,sil
44aa:	74 2f                	je     44db <quotearg_buffer_restyled+0xa5b>
44ac:	4d 39 fd             	cmp    r13,r15
44af:	76 05                	jbe    44b6 <quotearg_buffer_restyled+0xa36>
44b1:	43 c6 04 3e 27       	mov    BYTE PTR [r14+r15*1],0x27
44b6:	49 8d 77 01          	lea    rsi,[r15+0x1]
44ba:	49 39 f5             	cmp    r13,rsi
44bd:	76 06                	jbe    44c5 <quotearg_buffer_restyled+0xa45>
44bf:	43 c6 44 3e 01 24    	mov    BYTE PTR [r14+r15*1+0x1],0x24
44c5:	49 8d 77 02          	lea    rsi,[r15+0x2]
44c9:	49 39 f5             	cmp    r13,rsi
44cc:	76 06                	jbe    44d4 <quotearg_buffer_restyled+0xa54>
44ce:	43 c6 44 3e 02 27    	mov    BYTE PTR [r14+r15*1+0x2],0x27
44d4:	49 83 c7 03          	add    r15,0x3
44d8:	41 89 c0             	mov    r8d,eax
44db:	4d 39 fd             	cmp    r13,r15
44de:	76 05                	jbe    44e5 <quotearg_buffer_restyled+0xa65>
44e0:	43 c6 04 3e 5c       	mov    BYTE PTR [r14+r15*1],0x5c
44e5:	49 8d 47 01          	lea    rax,[r15+0x1]
44e9:	49 39 c5             	cmp    r13,rax
44ec:	76 0d                	jbe    44fb <quotearg_buffer_restyled+0xa7b>
44ee:	89 d8                	mov    eax,ebx
44f0:	c0 e8 06             	shr    al,0x6
44f3:	83 c0 30             	add    eax,0x30
44f6:	43 88 44 3e 01       	mov    BYTE PTR [r14+r15*1+0x1],al
44fb:	49 8d 47 02          	lea    rax,[r15+0x2]
44ff:	49 39 c5             	cmp    r13,rax
4502:	76 10                	jbe    4514 <quotearg_buffer_restyled+0xa94>
4504:	89 d8                	mov    eax,ebx
4506:	c0 e8 03             	shr    al,0x3
4509:	83 e0 07             	and    eax,0x7
450c:	83 c0 30             	add    eax,0x30
450f:	43 88 44 3e 02       	mov    BYTE PTR [r14+r15*1+0x2],al
4514:	83 e3 07             	and    ebx,0x7
4517:	48 83 c5 01          	add    rbp,0x1
451b:	49 83 c7 03          	add    r15,0x3
451f:	83 c3 30             	add    ebx,0x30
4522:	48 39 cd             	cmp    rbp,rcx
4525:	0f 83 e5 f7 ff ff    	jae    3d10 <quotearg_buffer_restyled+0x290>
452b:	89 d6                	mov    esi,edx
452d:	4d 39 fd             	cmp    r13,r15
4530:	76 04                	jbe    4536 <quotearg_buffer_restyled+0xab6>
4532:	43 88 1c 3e          	mov    BYTE PTR [r14+r15*1],bl
4536:	0f b6 1c 2f          	movzx  ebx,BYTE PTR [rdi+rbp*1]
453a:	49 83 c7 01          	add    r15,0x1
453e:	84 d2                	test   dl,dl
4540:	0f 85 4a ff ff ff    	jne    4490 <quotearg_buffer_restyled+0xa10>
4546:	89 f0                	mov    eax,esi
4548:	83 f0 01             	xor    eax,0x1
454b:	44 21 c0             	and    eax,r8d
454e:	45 84 d2             	test   r10b,r10b
4551:	74 0e                	je     4561 <quotearg_buffer_restyled+0xae1>
4553:	4d 39 fd             	cmp    r13,r15
4556:	76 05                	jbe    455d <quotearg_buffer_restyled+0xadd>
4558:	43 c6 04 3e 5c       	mov    BYTE PTR [r14+r15*1],0x5c
455d:	49 83 c7 01          	add    r15,0x1
4561:	48 83 c5 01          	add    rbp,0x1
4565:	48 39 cd             	cmp    rbp,rcx
4568:	0f 83 7e f7 ff ff    	jae    3cec <quotearg_buffer_restyled+0x26c>
456e:	84 c0                	test   al,al
4570:	0f 84 f8 03 00 00    	je     496e <quotearg_buffer_restyled+0xeee>
4576:	4d 39 fd             	cmp    r13,r15
4579:	76 05                	jbe    4580 <quotearg_buffer_restyled+0xb00>
457b:	43 c6 04 3e 27       	mov    BYTE PTR [r14+r15*1],0x27
4580:	49 8d 47 01          	lea    rax,[r15+0x1]
4584:	49 39 c5             	cmp    r13,rax
4587:	76 06                	jbe    458f <quotearg_buffer_restyled+0xb0f>
4589:	43 c6 44 3e 01 27    	mov    BYTE PTR [r14+r15*1+0x1],0x27
458f:	49 83 c7 02          	add    r15,0x2
4593:	45 31 d2             	xor    r10d,r10d
4596:	45 31 c0             	xor    r8d,r8d
4599:	eb 92                	jmp    452d <quotearg_buffer_restyled+0xaad>
459b:	0f 1f 44 00 00       	nop    DWORD PTR [rax+rax*1+0x0]
45a0:	49 83 ff 01          	cmp    r15,0x1
45a4:	0f 84 5f fe ff ff    	je     4409 <quotearg_buffer_restyled+0x989>
45aa:	48 8b 7c 24 10       	mov    rdi,QWORD PTR [rsp+0x10]
45af:	4a 8d 0c 3f          	lea    rcx,[rdi+r15*1]
45b3:	4a 8d 54 37 01       	lea    rdx,[rdi+r14*1+0x1]
45b8:	4e 8d 04 31          	lea    r8,[rcx+r14*1]
45bc:	eb 0f                	jmp    45cd <quotearg_buffer_restyled+0xb4d>
45be:	66 90                	xchg   ax,ax
45c0:	48 83 c2 01          	add    rdx,0x1
45c4:	49 39 d0             	cmp    r8,rdx
45c7:	0f 84 3c fe ff ff    	je     4409 <quotearg_buffer_restyled+0x989>
45cd:	0f b6 0a             	movzx  ecx,BYTE PTR [rdx]
45d0:	83 e9 5b             	sub    ecx,0x5b
45d3:	80 f9 21             	cmp    cl,0x21
45d6:	77 e8                	ja     45c0 <quotearg_buffer_restyled+0xb40>
45d8:	be 01 00 00 00       	mov    esi,0x1
45dd:	48 d3 e6             	shl    rsi,cl
45e0:	48 89 f1             	mov    rcx,rsi
45e3:	48 be 2b 00 00 00 02 	movabs rsi,0x20000002b
45ea:	00 00 00
45ed:	48 85 f1             	test   rcx,rsi
45f0:	74 ce                	je     45c0 <quotearg_buffer_restyled+0xb40>
45f2:	4c 8b 74 24 40       	mov    r14,QWORD PTR [rsp+0x40]
45f7:	4c 8b 6c 24 70       	mov    r13,QWORD PTR [rsp+0x70]
45fc:	48 8b 6c 24 30       	mov    rbp,QWORD PTR [rsp+0x30]
4601:	c7 44 24 08 02 00 00 	mov    DWORD PTR [rsp+0x8],0x2
4608:	00
4609:	80 7c 24 0d 00       	cmp    BYTE PTR [rsp+0xd],0x0
460e:	74 10                	je     4620 <quotearg_buffer_restyled+0xba0>
4610:	84 c0                	test   al,al
4612:	b8 04 00 00 00       	mov    eax,0x4
4617:	0f 44 44 24 08       	cmove  eax,DWORD PTR [rsp+0x8]
461c:	89 44 24 08          	mov    DWORD PTR [rsp+0x8],eax
4620:	48 83 ec 08          	sub    rsp,0x8
4624:	48 89 e9             	mov    rcx,rbp
4627:	4c 89 ee             	mov    rsi,r13
462a:	ff 74 24 68          	push   QWORD PTR [rsp+0x68]
462e:	ff 74 24 78          	push   QWORD PTR [rsp+0x78]
4632:	4c 89 f7             	mov    rdi,r14
4635:	6a 00                	push   0x0
4637:	44 8b 8c 24 98 00 00 	mov    r9d,DWORD PTR [rsp+0x98]
463e:	00
463f:	44 8b 44 24 28       	mov    r8d,DWORD PTR [rsp+0x28]
4644:	48 8b 54 24 30       	mov    rdx,QWORD PTR [rsp+0x30]
4649:	41 83 e1 fd          	and    r9d,0xfffffffd
464d:	e8 2e f4 ff ff       	call   3a80 <quotearg_buffer_restyled>
4652:	48 83 c4 20          	add    rsp,0x20
4656:	49 89 c7             	mov    r15,rax
4659:	48 8b 9c 24 a8 00 00 	mov    rbx,QWORD PTR [rsp+0xa8]
4660:	00
4661:	64 48 33 1c 25 28 00 	xor    rbx,QWORD PTR fs:0x28
4668:	00 00
466a:	4c 89 f8             	mov    rax,r15
466d:	0f 85 00 06 00 00    	jne    4c73 <quotearg_buffer_restyled+0x11f3>
4673:	48 81 c4 b8 00 00 00 	add    rsp,0xb8
467a:	5b                   	pop    rbx
467b:	5d                   	pop    rbp
467c:	41 5c                	pop    r12
467e:	41 5d                	pop    r13
4680:	41 5e                	pop    r14
4682:	41 5f                	pop    r15
4684:	c3                   	ret
4685:	0f 1f 00             	nop    DWORD PTR [rax]
4688:	4c 89 dd             	mov    rbp,r11
468b:	e9 79 ff ff ff       	jmp    4609 <quotearg_buffer_restyled+0xb89>
4690:	4d 39 fd             	cmp    r13,r15
4693:	76 05                	jbe    469a <quotearg_buffer_restyled+0xc1a>
4695:	43 c6 04 3e 27       	mov    BYTE PTR [r14+r15*1],0x27
469a:	49 8d 47 01          	lea    rax,[r15+0x1]
469e:	49 39 c5             	cmp    r13,rax
46a1:	76 06                	jbe    46a9 <quotearg_buffer_restyled+0xc29>
46a3:	43 c6 44 3e 01 5c    	mov    BYTE PTR [r14+r15*1+0x1],0x5c
46a9:	49 8d 47 02          	lea    rax,[r15+0x2]
46ad:	49 39 c5             	cmp    r13,rax
46b0:	0f 86 ec 05 00 00    	jbe    4ca2 <quotearg_buffer_restyled+0x1222>
46b6:	4c 89 ea             	mov    rdx,r13
46b9:	43 c6 44 3e 02 27    	mov    BYTE PTR [r14+r15*1+0x2],0x27
46bf:	4c 8b 6c 24 50       	mov    r13,QWORD PTR [rsp+0x50]
46c4:	e9 d9 fb ff ff       	jmp    42a2 <quotearg_buffer_restyled+0x822>
46c9:	44 89 e0             	mov    eax,r12d
46cc:	bb 30 00 00 00       	mov    ebx,0x30
46d1:	45 31 e4             	xor    r12d,r12d
46d4:	e9 00 f6 ff ff       	jmp    3cd9 <quotearg_buffer_restyled+0x259>
46d9:	43 c6 44 3e 02 27    	mov    BYTE PTR [r14+r15*1+0x2],0x27
46df:	e9 c5 f9 ff ff       	jmp    40a9 <quotearg_buffer_restyled+0x629>
46e4:	85 db                	test   ebx,ebx
46e6:	0f 85 27 f4 ff ff    	jne    3b13 <quotearg_buffer_restyled+0x93>
46ec:	c6 44 24 0d 01       	mov    BYTE PTR [rsp+0xd],0x1
46f1:	4d 85 ed             	test   r13,r13
46f4:	0f 85 90 05 00 00    	jne    4c8a <quotearg_buffer_restyled+0x120a>
46fa:	48 8d 05 fc 29 00 00 	lea    rax,[rip+0x29fc]        # 70fd <_IO_stdin_used+0x8fd>
4701:	48 c7 44 24 50 00 00 	mov    QWORD PTR [rsp+0x50],0x0
4708:	00 00
470a:	c6 44 24 0e 01       	mov    BYTE PTR [rsp+0xe],0x1
470f:	c6 44 24 7c 00       	mov    BYTE PTR [rsp+0x7c],0x0
4714:	45 31 e4             	xor    r12d,r12d
4717:	c6 44 24 0f 00       	mov    BYTE PTR [rsp+0xf],0x0
471c:	48 c7 44 24 18 01 00 	mov    QWORD PTR [rsp+0x18],0x1
4723:	00 00
4725:	48 89 44 24 48       	mov    QWORD PTR [rsp+0x48],rax
472a:	41 bf 01 00 00 00    	mov    r15d,0x1
4730:	c7 44 24 08 02 00 00 	mov    DWORD PTR [rsp+0x8],0x2
4737:	00
4738:	e9 16 f4 ff ff       	jmp    3b53 <quotearg_buffer_restyled+0xd3>
473d:	0f 1f 00             	nop    DWORD PTR [rax]
4740:	85 db                	test   ebx,ebx
4742:	0f 85 f5 03 00 00    	jne    4b3d <quotearg_buffer_restyled+0x10bd>
4748:	4d 85 ed             	test   r13,r13
474b:	0f 84 25 02 00 00    	je     4976 <quotearg_buffer_restyled+0xef6>
4751:	41 c6 06 22          	mov    BYTE PTR [r14],0x22
4755:	c6 44 24 0e 01       	mov    BYTE PTR [rsp+0xe],0x1
475a:	45 31 e4             	xor    r12d,r12d
475d:	c6 44 24 7c 00       	mov    BYTE PTR [rsp+0x7c],0x0
4762:	48 c7 44 24 50 00 00 	mov    QWORD PTR [rsp+0x50],0x0
4769:	00 00
476b:	48 8d 05 89 29 00 00 	lea    rax,[rip+0x2989]        # 70fb <_IO_stdin_used+0x8fb>
4772:	c6 44 24 0f 00       	mov    BYTE PTR [rsp+0xf],0x0
4777:	c6 44 24 0d 01       	mov    BYTE PTR [rsp+0xd],0x1
477c:	48 c7 44 24 18 01 00 	mov    QWORD PTR [rsp+0x18],0x1
4783:	00 00
4785:	41 bf 01 00 00 00    	mov    r15d,0x1
478b:	48 89 44 24 48       	mov    QWORD PTR [rsp+0x48],rax
4790:	e9 be f3 ff ff       	jmp    3b53 <quotearg_buffer_restyled+0xd3>
4795:	48 8d 05 5f 29 00 00 	lea    rax,[rip+0x295f]        # 70fb <_IO_stdin_used+0x8fb>
479c:	c6 44 24 0e 01       	mov    BYTE PTR [rsp+0xe],0x1
47a1:	c6 44 24 7c 00       	mov    BYTE PTR [rsp+0x7c],0x0
47a6:	45 31 e4             	xor    r12d,r12d
47a9:	48 c7 44 24 50 00 00 	mov    QWORD PTR [rsp+0x50],0x0
47b0:	00 00
47b2:	c6 44 24 0f 01       	mov    BYTE PTR [rsp+0xf],0x1
47b7:	c6 44 24 0d 01       	mov    BYTE PTR [rsp+0xd],0x1
47bc:	48 c7 44 24 18 01 00 	mov    QWORD PTR [rsp+0x18],0x1
47c3:	00 00
47c5:	45 31 ff             	xor    r15d,r15d
47c8:	48 89 44 24 48       	mov    QWORD PTR [rsp+0x48],rax
47cd:	c7 44 24 08 05 00 00 	mov    DWORD PTR [rsp+0x8],0x5
47d4:	00
47d5:	e9 79 f3 ff ff       	jmp    3b53 <quotearg_buffer_restyled+0xd3>
47da:	c6 44 24 0e 01       	mov    BYTE PTR [rsp+0xe],0x1
47df:	c6 44 24 7c 00       	mov    BYTE PTR [rsp+0x7c],0x0
47e4:	45 31 e4             	xor    r12d,r12d
47e7:	48 c7 44 24 50 00 00 	mov    QWORD PTR [rsp+0x50],0x0
47ee:	00 00
47f0:	c6 44 24 0f 00       	mov    BYTE PTR [rsp+0xf],0x0
47f5:	45 31 ff             	xor    r15d,r15d
47f8:	c6 44 24 0d 01       	mov    BYTE PTR [rsp+0xd],0x1
47fd:	48 c7 44 24 18 00 00 	mov    QWORD PTR [rsp+0x18],0x0
4804:	00 00
4806:	48 c7 44 24 48 00 00 	mov    QWORD PTR [rsp+0x48],0x0
480d:	00 00
480f:	e9 3f f3 ff ff       	jmp    3b53 <quotearg_buffer_restyled+0xd3>
4814:	83 7c 24 08 0a       	cmp    DWORD PTR [rsp+0x8],0xa
4819:	74 56                	je     4871 <quotearg_buffer_restyled+0xdf1>
481b:	48 8d 35 dd 28 00 00 	lea    rsi,[rip+0x28dd]        # 70ff <_IO_stdin_used+0x8ff>
4822:	31 ff                	xor    edi,edi
4824:	ba 05 00 00 00       	mov    edx,0x5
4829:	e8 72 cd ff ff       	call   15a0 <dcgettext@plt>
482e:	48 89 c1             	mov    rcx,rax
4831:	48 89 44 24 68       	mov    QWORD PTR [rsp+0x68],rax
4836:	48 8d 05 c2 28 00 00 	lea    rax,[rip+0x28c2]        # 70ff <_IO_stdin_used+0x8ff>
483d:	48 39 c1             	cmp    rcx,rax
4840:	0f 84 98 03 00 00    	je     4bde <quotearg_buffer_restyled+0x115e>
4846:	48 8d 35 b0 28 00 00 	lea    rsi,[rip+0x28b0]        # 70fd <_IO_stdin_used+0x8fd>
484d:	31 ff                	xor    edi,edi
484f:	ba 05 00 00 00       	mov    edx,0x5
4854:	e8 47 cd ff ff       	call   15a0 <dcgettext@plt>
4859:	48 89 c1             	mov    rcx,rax
485c:	48 89 44 24 60       	mov    QWORD PTR [rsp+0x60],rax
4861:	48 8d 05 95 28 00 00 	lea    rax,[rip+0x2895]        # 70fd <_IO_stdin_used+0x8fd>
4868:	48 39 c1             	cmp    rcx,rax
486b:	0f 84 83 03 00 00    	je     4bf4 <quotearg_buffer_restyled+0x1174>
4871:	45 31 ff             	xor    r15d,r15d
4874:	85 db                	test   ebx,ebx
4876:	0f 84 c1 01 00 00    	je     4a3d <quotearg_buffer_restyled+0xfbd>
487c:	85 db                	test   ebx,ebx
487e:	48 8b 5c 24 60       	mov    rbx,QWORD PTR [rsp+0x60]
4883:	0f 95 44 24 0f       	setne  BYTE PTR [rsp+0xf]
4888:	45 31 e4             	xor    r12d,r12d
488b:	48 89 df             	mov    rdi,rbx
488e:	e8 2d cd ff ff       	call   15c0 <strlen@plt>
4893:	48 89 5c 24 48       	mov    QWORD PTR [rsp+0x48],rbx
4898:	48 89 44 24 18       	mov    QWORD PTR [rsp+0x18],rax
489d:	c6 44 24 0e 01       	mov    BYTE PTR [rsp+0xe],0x1
48a2:	c6 44 24 7c 00       	mov    BYTE PTR [rsp+0x7c],0x0
48a7:	48 c7 44 24 50 00 00 	mov    QWORD PTR [rsp+0x50],0x0
48ae:	00 00
48b0:	c6 44 24 0d 01       	mov    BYTE PTR [rsp+0xd],0x1
48b5:	e9 99 f2 ff ff       	jmp    3b53 <quotearg_buffer_restyled+0xd3>
48ba:	c6 44 24 0e 01       	mov    BYTE PTR [rsp+0xe],0x1
48bf:	c6 44 24 7c 00       	mov    BYTE PTR [rsp+0x7c],0x0
48c4:	45 31 e4             	xor    r12d,r12d
48c7:	48 c7 44 24 50 00 00 	mov    QWORD PTR [rsp+0x50],0x0
48ce:	00 00
48d0:	c6 44 24 0f 00       	mov    BYTE PTR [rsp+0xf],0x0
48d5:	45 31 ff             	xor    r15d,r15d
48d8:	c6 44 24 0d 00       	mov    BYTE PTR [rsp+0xd],0x0
48dd:	48 c7 44 24 18 00 00 	mov    QWORD PTR [rsp+0x18],0x0
48e4:	00 00
48e6:	48 c7 44 24 48 00 00 	mov    QWORD PTR [rsp+0x48],0x0
48ed:	00 00
48ef:	e9 5f f2 ff ff       	jmp    3b53 <quotearg_buffer_restyled+0xd3>
48f4:	c6 44 24 0e 01       	mov    BYTE PTR [rsp+0xe],0x1
48f9:	c6 44 24 7c 00       	mov    BYTE PTR [rsp+0x7c],0x0
48fe:	45 31 e4             	xor    r12d,r12d
4901:	48 c7 44 24 50 00 00 	mov    QWORD PTR [rsp+0x50],0x0
4908:	00 00
490a:	c6 44 24 0f 01       	mov    BYTE PTR [rsp+0xf],0x1
490f:	c6 44 24 0d 01       	mov    BYTE PTR [rsp+0xd],0x1
4914:	e9 1a f2 ff ff       	jmp    3b33 <quotearg_buffer_restyled+0xb3>
4919:	4d 39 fd             	cmp    r13,r15
491c:	76 05                	jbe    4923 <quotearg_buffer_restyled+0xea3>
491e:	43 c6 04 3e 30       	mov    BYTE PTR [r14+r15*1],0x30
4923:	48 8d 41 02          	lea    rax,[rcx+0x2]
4927:	49 39 c5             	cmp    r13,rax
492a:	76 06                	jbe    4932 <quotearg_buffer_restyled+0xeb2>
492c:	41 c6 44 0e 02 30    	mov    BYTE PTR [r14+rcx*1+0x2],0x30
4932:	44 89 e0             	mov    eax,r12d
4935:	4c 8d 79 03          	lea    r15,[rcx+0x3]
4939:	45 31 e4             	xor    r12d,r12d
493c:	bb 30 00 00 00       	mov    ebx,0x30
4941:	e9 62 f3 ff ff       	jmp    3ca8 <quotearg_buffer_restyled+0x228>
4946:	66 2e 0f 1f 84 00 00 	nop    WORD PTR cs:[rax+rax*1+0x0]
494d:	00 00 00
4950:	0f b6 5c 24 0f       	movzx  ebx,BYTE PTR [rsp+0xf]
4955:	4c 89 dd             	mov    rbp,r11
4958:	88 5c 24 0d          	mov    BYTE PTR [rsp+0xd],bl
495c:	e9 a8 fc ff ff       	jmp    4609 <quotearg_buffer_restyled+0xb89>
4961:	0f b6 54 24 0d       	movzx  edx,BYTE PTR [rsp+0xd]
4966:	45 31 e4             	xor    r12d,r12d
4969:	e9 02 fb ff ff       	jmp    4470 <quotearg_buffer_restyled+0x9f0>
496e:	45 31 d2             	xor    r10d,r10d
4971:	e9 b7 fb ff ff       	jmp    452d <quotearg_buffer_restyled+0xaad>
4976:	48 c7 44 24 50 00 00 	mov    QWORD PTR [rsp+0x50],0x0
497d:	00 00
497f:	c6 44 24 0e 01       	mov    BYTE PTR [rsp+0xe],0x1
4984:	45 31 e4             	xor    r12d,r12d
4987:	c6 44 24 7c 00       	mov    BYTE PTR [rsp+0x7c],0x0
498c:	e9 da fd ff ff       	jmp    476b <quotearg_buffer_restyled+0xceb>
4991:	4c 8b 5c 24 30       	mov    r11,QWORD PTR [rsp+0x30]
4996:	4c 89 f6             	mov    rsi,r14
4999:	4c 89 e9             	mov    rcx,r13
499c:	48 89 d8             	mov    rax,rbx
499f:	48 89 df             	mov    rdi,rbx
49a2:	44 0f b6 44 24 7d    	movzx  r8d,BYTE PTR [rsp+0x7d]
49a8:	0f b6 5c 24 7e       	movzx  ebx,BYTE PTR [rsp+0x7e]
49ad:	4c 8b 8c 24 88 00 00 	mov    r9,QWORD PTR [rsp+0x88]
49b4:	00
49b5:	4c 39 de             	cmp    rsi,r11
49b8:	44 0f b6 54 24 7f    	movzx  r10d,BYTE PTR [rsp+0x7f]
49be:	4c 8b bc 24 80 00 00 	mov    r15,QWORD PTR [rsp+0x80]
49c5:	00
49c6:	4c 8b 74 24 40       	mov    r14,QWORD PTR [rsp+0x40]
49cb:	4c 8b 6c 24 70       	mov    r13,QWORD PTR [rsp+0x70]
49d0:	73 26                	jae    49f8 <quotearg_buffer_restyled+0xf78>
49d2:	80 39 00             	cmp    BYTE PTR [rcx],0x0
49d5:	75 10                	jne    49e7 <quotearg_buffer_restyled+0xf67>
49d7:	eb 1f                	jmp    49f8 <quotearg_buffer_restyled+0xf78>
49d9:	0f 1f 80 00 00 00 00 	nop    DWORD PTR [rax+0x0]
49e0:	41 80 3c 01 00       	cmp    BYTE PTR [r9+rax*1],0x0
49e5:	74 0e                	je     49f5 <quotearg_buffer_restyled+0xf75>
49e7:	48 83 c0 01          	add    rax,0x1
49eb:	48 8d 54 05 00       	lea    rdx,[rbp+rax*1+0x0]
49f0:	49 39 d3             	cmp    r11,rdx
49f3:	77 eb                	ja     49e0 <quotearg_buffer_restyled+0xf60>
49f5:	48 89 c7             	mov    rdi,rax
49f8:	0f b6 54 24 0d       	movzx  edx,BYTE PTR [rsp+0xd]
49fd:	45 31 e4             	xor    r12d,r12d
4a00:	e9 61 fa ff ff       	jmp    4466 <quotearg_buffer_restyled+0x9e6>
4a05:	48 89 df             	mov    rdi,rbx
4a08:	44 0f b6 44 24 7d    	movzx  r8d,BYTE PTR [rsp+0x7d]
4a0e:	0f b6 5c 24 7e       	movzx  ebx,BYTE PTR [rsp+0x7e]
4a13:	44 0f b6 54 24 7f    	movzx  r10d,BYTE PTR [rsp+0x7f]
4a19:	4c 8b bc 24 80 00 00 	mov    r15,QWORD PTR [rsp+0x80]
4a20:	00
4a21:	45 31 e4             	xor    r12d,r12d
4a24:	4c 8b 74 24 40       	mov    r14,QWORD PTR [rsp+0x40]
4a29:	4c 8b 6c 24 70       	mov    r13,QWORD PTR [rsp+0x70]
4a2e:	4c 8b 5c 24 30       	mov    r11,QWORD PTR [rsp+0x30]
4a33:	0f b6 54 24 0d       	movzx  edx,BYTE PTR [rsp+0xd]
4a38:	e9 29 fa ff ff       	jmp    4466 <quotearg_buffer_restyled+0x9e6>
4a3d:	48 8b 54 24 68       	mov    rdx,QWORD PTR [rsp+0x68]
4a42:	0f b6 02             	movzx  eax,BYTE PTR [rdx]
4a45:	84 c0                	test   al,al
4a47:	0f 84 2f fe ff ff    	je     487c <quotearg_buffer_restyled+0xdfc>
4a4d:	0f 1f 00             	nop    DWORD PTR [rax]
4a50:	4d 39 fd             	cmp    r13,r15
4a53:	76 04                	jbe    4a59 <quotearg_buffer_restyled+0xfd9>
4a55:	43 88 04 3e          	mov    BYTE PTR [r14+r15*1],al
4a59:	49 83 c7 01          	add    r15,0x1
4a5d:	42 0f b6 04 3a       	movzx  eax,BYTE PTR [rdx+r15*1]
4a62:	84 c0                	test   al,al
4a64:	75 ea                	jne    4a50 <quotearg_buffer_restyled+0xfd0>
4a66:	e9 11 fe ff ff       	jmp    487c <quotearg_buffer_restyled+0xdfc>
4a6b:	89 d0                	mov    eax,edx
4a6d:	e9 55 f5 ff ff       	jmp    3fc7 <quotearg_buffer_restyled+0x547>
4a72:	0f b6 1c 08          	movzx  ebx,BYTE PTR [rax+rcx*1]
4a76:	80 fb 3e             	cmp    bl,0x3e
4a79:	0f 87 71 f8 ff ff    	ja     42f0 <quotearg_buffer_restyled+0x870>
4a7f:	48 b8 00 00 00 00 82 	movabs rax,0x7000a38200000000
4a86:	a3 00 70
4a89:	48 0f a3 d8          	bt     rax,rbx
4a8d:	0f 83 5d f8 ff ff    	jae    42f0 <quotearg_buffer_restyled+0x870>
4a93:	80 7c 24 0f 00       	cmp    BYTE PTR [rsp+0xf],0x0
4a98:	0f 85 e4 01 00 00    	jne    4c82 <quotearg_buffer_restyled+0x1202>
4a9e:	4d 39 fd             	cmp    r13,r15
4aa1:	76 05                	jbe    4aa8 <quotearg_buffer_restyled+0x1028>
4aa3:	43 c6 04 3e 3f       	mov    BYTE PTR [r14+r15*1],0x3f
4aa8:	49 8d 47 01          	lea    rax,[r15+0x1]
4aac:	49 39 c5             	cmp    r13,rax
4aaf:	76 06                	jbe    4ab7 <quotearg_buffer_restyled+0x1037>
4ab1:	43 c6 44 3e 01 22    	mov    BYTE PTR [r14+r15*1+0x1],0x22
4ab7:	49 8d 47 02          	lea    rax,[r15+0x2]
4abb:	49 39 c5             	cmp    r13,rax
4abe:	76 06                	jbe    4ac6 <quotearg_buffer_restyled+0x1046>
4ac0:	43 c6 44 3e 02 22    	mov    BYTE PTR [r14+r15*1+0x2],0x22
4ac6:	49 8d 47 03          	lea    rax,[r15+0x3]
4aca:	49 39 c5             	cmp    r13,rax
4acd:	76 06                	jbe    4ad5 <quotearg_buffer_restyled+0x1055>
4acf:	43 c6 44 3e 03 3f    	mov    BYTE PTR [r14+r15*1+0x3],0x3f
4ad5:	49 83 c7 04          	add    r15,0x4
4ad9:	31 d2                	xor    edx,edx
4adb:	45 31 e4             	xor    r12d,r12d
4ade:	31 c0                	xor    eax,eax
4ae0:	48 89 cd             	mov    rbp,rcx
4ae3:	e9 c0 f1 ff ff       	jmp    3ca8 <quotearg_buffer_restyled+0x228>
4ae8:	85 db                	test   ebx,ebx
4aea:	0f 84 88 01 00 00    	je     4c78 <quotearg_buffer_restyled+0x11f8>
4af0:	48 8d 05 06 26 00 00 	lea    rax,[rip+0x2606]        # 70fd <_IO_stdin_used+0x8fd>
4af7:	c6 44 24 0e 01       	mov    BYTE PTR [rsp+0xe],0x1
4afc:	c6 44 24 7c 00       	mov    BYTE PTR [rsp+0x7c],0x0
4b01:	45 31 e4             	xor    r12d,r12d
4b04:	48 c7 44 24 50 00 00 	mov    QWORD PTR [rsp+0x50],0x0
4b0b:	00 00
4b0d:	c6 44 24 0f 01       	mov    BYTE PTR [rsp+0xf],0x1
4b12:	c6 44 24 0d 00       	mov    BYTE PTR [rsp+0xd],0x0
4b17:	48 c7 44 24 18 01 00 	mov    QWORD PTR [rsp+0x18],0x1
4b1e:	00 00
4b20:	45 31 ff             	xor    r15d,r15d
4b23:	48 89 44 24 48       	mov    QWORD PTR [rsp+0x48],rax
4b28:	e9 26 f0 ff ff       	jmp    3b53 <quotearg_buffer_restyled+0xd3>
4b2d:	0f 1f 00             	nop    DWORD PTR [rax]
4b30:	4c 89 dd             	mov    rbp,r11
4b33:	0f b6 44 24 0f       	movzx  eax,BYTE PTR [rsp+0xf]
4b38:	e9 cc fa ff ff       	jmp    4609 <quotearg_buffer_restyled+0xb89>
4b3d:	48 8d 05 b7 25 00 00 	lea    rax,[rip+0x25b7]        # 70fb <_IO_stdin_used+0x8fb>
4b44:	c6 44 24 0e 01       	mov    BYTE PTR [rsp+0xe],0x1
4b49:	c6 44 24 7c 00       	mov    BYTE PTR [rsp+0x7c],0x0
4b4e:	45 31 e4             	xor    r12d,r12d
4b51:	48 c7 44 24 50 00 00 	mov    QWORD PTR [rsp+0x50],0x0
4b58:	00 00
4b5a:	c6 44 24 0f 01       	mov    BYTE PTR [rsp+0xf],0x1
4b5f:	c6 44 24 0d 01       	mov    BYTE PTR [rsp+0xd],0x1
4b64:	48 c7 44 24 18 01 00 	mov    QWORD PTR [rsp+0x18],0x1
4b6b:	00 00
4b6d:	45 31 ff             	xor    r15d,r15d
4b70:	48 89 44 24 48       	mov    QWORD PTR [rsp+0x48],rax
4b75:	e9 d9 ef ff ff       	jmp    3b53 <quotearg_buffer_restyled+0xd3>
4b7a:	89 d0                	mov    eax,edx
4b7c:	48 8b 5c 24 48       	mov    rbx,QWORD PTR [rsp+0x48]
4b81:	48 85 db             	test   rbx,rbx
4b84:	74 2c                	je     4bb2 <quotearg_buffer_restyled+0x1132>
4b86:	84 c0                	test   al,al
4b88:	74 28                	je     4bb2 <quotearg_buffer_restyled+0x1132>
4b8a:	0f b6 0b             	movzx  ecx,BYTE PTR [rbx]
4b8d:	48 89 d8             	mov    rax,rbx
4b90:	84 c9                	test   cl,cl
4b92:	74 1e                	je     4bb2 <quotearg_buffer_restyled+0x1132>
4b94:	4c 89 fa             	mov    rdx,r15
4b97:	4c 29 f8             	sub    rax,r15
4b9a:	49 39 d5             	cmp    r13,rdx
4b9d:	76 04                	jbe    4ba3 <quotearg_buffer_restyled+0x1123>
4b9f:	41 88 0c 16          	mov    BYTE PTR [r14+rdx*1],cl
4ba3:	48 83 c2 01          	add    rdx,0x1
4ba7:	0f b6 0c 10          	movzx  ecx,BYTE PTR [rax+rdx*1]
4bab:	84 c9                	test   cl,cl
4bad:	75 eb                	jne    4b9a <quotearg_buffer_restyled+0x111a>
4baf:	49 89 d7             	mov    r15,rdx
4bb2:	4d 39 fd             	cmp    r13,r15
4bb5:	0f 86 9e fa ff ff    	jbe    4659 <quotearg_buffer_restyled+0xbd9>
4bbb:	43 c6 04 3e 00       	mov    BYTE PTR [r14+r15*1],0x0
4bc0:	e9 94 fa ff ff       	jmp    4659 <quotearg_buffer_restyled+0xbd9>
4bc5:	83 7c 24 08 02       	cmp    DWORD PTR [rsp+0x8],0x2
4bca:	0f b6 5c 24 0f       	movzx  ebx,BYTE PTR [rsp+0xf]
4bcf:	4c 89 dd             	mov    rbp,r11
4bd2:	0f 94 c0             	sete   al
4bd5:	88 5c 24 0d          	mov    BYTE PTR [rsp+0xd],bl
4bd9:	e9 2b fa ff ff       	jmp    4609 <quotearg_buffer_restyled+0xb89>
4bde:	8b 74 24 08          	mov    esi,DWORD PTR [rsp+0x8]
4be2:	48 89 cf             	mov    rdi,rcx
4be5:	e8 a6 ed ff ff       	call   3990 <gettext_quote.part.1>
4bea:	48 89 44 24 68       	mov    QWORD PTR [rsp+0x68],rax
4bef:	e9 52 fc ff ff       	jmp    4846 <quotearg_buffer_restyled+0xdc6>
4bf4:	8b 74 24 08          	mov    esi,DWORD PTR [rsp+0x8]
4bf8:	48 89 cf             	mov    rdi,rcx
4bfb:	e8 90 ed ff ff       	call   3990 <gettext_quote.part.1>
4c00:	48 89 44 24 60       	mov    QWORD PTR [rsp+0x60],rax
4c05:	e9 67 fc ff ff       	jmp    4871 <quotearg_buffer_restyled+0xdf1>
4c0a:	0f b6 5c 24 0f       	movzx  ebx,BYTE PTR [rsp+0xf]
4c0f:	4c 89 dd             	mov    rbp,r11
4c12:	89 d0                	mov    eax,edx
4c14:	88 5c 24 0d          	mov    BYTE PTR [rsp+0xd],bl
4c18:	e9 ec f9 ff ff       	jmp    4609 <quotearg_buffer_restyled+0xb89>
4c1d:	48 83 ec 08          	sub    rsp,0x8
4c21:	41 b8 05 00 00 00    	mov    r8d,0x5
4c27:	4c 89 d9             	mov    rcx,r11
4c2a:	ff 74 24 68          	push   QWORD PTR [rsp+0x68]
4c2e:	ff 74 24 78          	push   QWORD PTR [rsp+0x78]
4c32:	4c 89 f7             	mov    rdi,r14
4c35:	ff 74 24 38          	push   QWORD PTR [rsp+0x38]
4c39:	44 8b 8c 24 98 00 00 	mov    r9d,DWORD PTR [rsp+0x98]
4c40:	00
4c41:	48 8b 54 24 30       	mov    rdx,QWORD PTR [rsp+0x30]
4c46:	48 8b 74 24 70       	mov    rsi,QWORD PTR [rsp+0x70]
4c4b:	e8 30 ee ff ff       	call   3a80 <quotearg_buffer_restyled>
4c50:	48 83 c4 20          	add    rsp,0x20
4c54:	49 89 c7             	mov    r15,rax
4c57:	e9 fd f9 ff ff       	jmp    4659 <quotearg_buffer_restyled+0xbd9>
4c5c:	0f b6 44 24 7c       	movzx  eax,BYTE PTR [rsp+0x7c]
4c61:	e9 16 ff ff ff       	jmp    4b7c <quotearg_buffer_restyled+0x10fc>
4c66:	c7 44 24 08 02 00 00 	mov    DWORD PTR [rsp+0x8],0x2
4c6d:	00
4c6e:	e9 96 f9 ff ff       	jmp    4609 <quotearg_buffer_restyled+0xb89>
4c73:	e8 58 c9 ff ff       	call   15d0 <__stack_chk_fail@plt>
4c78:	c6 44 24 0d 00       	mov    BYTE PTR [rsp+0xd],0x0
4c7d:	e9 6f fa ff ff       	jmp    46f1 <quotearg_buffer_restyled+0xc71>
4c82:	4c 89 dd             	mov    rbp,r11
4c85:	e9 96 f9 ff ff       	jmp    4620 <quotearg_buffer_restyled+0xba0>
4c8a:	c6 44 24 0e 01       	mov    BYTE PTR [rsp+0xe],0x1
4c8f:	31 c0                	xor    eax,eax
4c91:	45 31 e4             	xor    r12d,r12d
4c94:	48 c7 44 24 50 00 00 	mov    QWORD PTR [rsp+0x50],0x0
4c9b:	00 00
4c9d:	e9 a2 f5 ff ff       	jmp    4244 <quotearg_buffer_restyled+0x7c4>
4ca2:	4c 89 ea             	mov    rdx,r13
4ca5:	4c 8b 6c 24 50       	mov    r13,QWORD PTR [rsp+0x50]
4caa:	e9 f3 f5 ff ff       	jmp    42a2 <quotearg_buffer_restyled+0x822>
4caf:	e8 5c c8 ff ff       	call   1510 <abort@plt>
4cb4:	66 90                	xchg   ax,ax
4cb6:	66 2e 0f 1f 84 00 00 	nop    WORD PTR cs:[rax+rax*1+0x0]
4cbd:	00 00 00

0000000000004cc0 <quotearg_n_options>:
4cc0:	41 57                	push   r15
4cc2:	41 56                	push   r14
4cc4:	4c 63 ff             	movsxd r15,edi
4cc7:	41 55                	push   r13
4cc9:	41 54                	push   r12
4ccb:	49 89 d6             	mov    r14,rdx
4cce:	55                   	push   rbp
4ccf:	53                   	push   rbx
4cd0:	48 89 cd             	mov    rbp,rcx
4cd3:	48 83 ec 28          	sub    rsp,0x28
4cd7:	48 89 74 24 08       	mov    QWORD PTR [rsp+0x8],rsi
4cdc:	e8 3f c8 ff ff       	call   1520 <__errno_location@plt>
4ce1:	49 89 c5             	mov    r13,rax
4ce4:	8b 00                	mov    eax,DWORD PTR [rax]
4ce6:	45 85 ff             	test   r15d,r15d
4ce9:	48 8b 1d 90 53 20 00 	mov    rbx,QWORD PTR [rip+0x205390]        # 20a080 <slotvec>
4cf0:	89 44 24 18          	mov    DWORD PTR [rsp+0x18],eax
4cf4:	0f 88 67 01 00 00    	js     4e61 <quotearg_n_options+0x1a1>
4cfa:	44 39 3d 77 53 20 00 	cmp    DWORD PTR [rip+0x205377],r15d        # 20a078 <nslots>
4d01:	7f 62                	jg     4d65 <quotearg_n_options+0xa5>
4d03:	41 81 ff ff ff ff 7f 	cmp    r15d,0x7fffffff
4d0a:	0f 84 56 01 00 00    	je     4e66 <quotearg_n_options+0x1a6>
4d10:	45 8d 67 01          	lea    r12d,[r15+0x1]
4d14:	48 8d 05 75 53 20 00 	lea    rax,[rip+0x205375]        # 20a090 <slotvec0>
4d1b:	49 63 f4             	movsxd rsi,r12d
4d1e:	48 c1 e6 04          	shl    rsi,0x4
4d22:	48 39 c3             	cmp    rbx,rax
4d25:	0f 84 15 01 00 00    	je     4e40 <quotearg_n_options+0x180>
4d2b:	48 89 df             	mov    rdi,rbx
4d2e:	e8 cd 0f 00 00       	call   5d00 <xrealloc>
4d33:	48 89 c3             	mov    rbx,rax
4d36:	48 89 05 43 53 20 00 	mov    QWORD PTR [rip+0x205343],rax        # 20a080 <slotvec>
4d3d:	48 63 3d 34 53 20 00 	movsxd rdi,DWORD PTR [rip+0x205334]        # 20a078 <nslots>
4d44:	44 89 e2             	mov    edx,r12d
4d47:	31 f6                	xor    esi,esi
4d49:	29 fa                	sub    edx,edi
4d4b:	48 c1 e7 04          	shl    rdi,0x4
4d4f:	48 63 d2             	movsxd rdx,edx
4d52:	48 01 df             	add    rdi,rbx
4d55:	48 c1 e2 04          	shl    rdx,0x4
4d59:	e8 f2 c8 ff ff       	call   1650 <memset@plt>
4d5e:	44 89 25 13 53 20 00 	mov    DWORD PTR [rip+0x205313],r12d        # 20a078 <nslots>
4d65:	8b 45 04             	mov    eax,DWORD PTR [rbp+0x4]
4d68:	49 c1 e7 04          	shl    r15,0x4
4d6c:	48 83 ec 08          	sub    rsp,0x8
4d70:	4c 01 fb             	add    rbx,r15
4d73:	4c 8d 7d 08          	lea    r15,[rbp+0x8]
4d77:	44 8b 45 00          	mov    r8d,DWORD PTR [rbp+0x0]
4d7b:	4c 8b 1b             	mov    r11,QWORD PTR [rbx]
4d7e:	4c 8b 63 08          	mov    r12,QWORD PTR [rbx+0x8]
4d82:	4c 89 f1             	mov    rcx,r14
4d85:	83 c8 01             	or     eax,0x1
4d88:	89 44 24 24          	mov    DWORD PTR [rsp+0x24],eax
4d8c:	ff 75 30             	push   QWORD PTR [rbp+0x30]
4d8f:	41 89 c1             	mov    r9d,eax
4d92:	ff 75 28             	push   QWORD PTR [rbp+0x28]
4d95:	41 57                	push   r15
4d97:	4c 89 de             	mov    rsi,r11
4d9a:	48 8b 54 24 28       	mov    rdx,QWORD PTR [rsp+0x28]
4d9f:	4c 89 e7             	mov    rdi,r12
4da2:	4c 89 5c 24 30       	mov    QWORD PTR [rsp+0x30],r11
4da7:	e8 d4 ec ff ff       	call   3a80 <quotearg_buffer_restyled>
4dac:	48 83 c4 20          	add    rsp,0x20
4db0:	4c 8b 5c 24 10       	mov    r11,QWORD PTR [rsp+0x10]
4db5:	49 39 c3             	cmp    r11,rax
4db8:	77 67                	ja     4e21 <quotearg_n_options+0x161>
4dba:	48 8d 70 01          	lea    rsi,[rax+0x1]
4dbe:	48 8d 05 5b 53 20 00 	lea    rax,[rip+0x20535b]        # 20a120 <slot0>
4dc5:	49 39 c4             	cmp    r12,rax
4dc8:	48 89 33             	mov    QWORD PTR [rbx],rsi
4dcb:	74 12                	je     4ddf <quotearg_n_options+0x11f>
4dcd:	4c 89 e7             	mov    rdi,r12
4dd0:	48 89 74 24 10       	mov    QWORD PTR [rsp+0x10],rsi
4dd5:	e8 26 c7 ff ff       	call   1500 <free@plt>
4dda:	48 8b 74 24 10       	mov    rsi,QWORD PTR [rsp+0x10]
4ddf:	48 89 f7             	mov    rdi,rsi
4de2:	48 89 74 24 10       	mov    QWORD PTR [rsp+0x10],rsi
4de7:	e8 b4 0e 00 00       	call   5ca0 <xmalloc>
4dec:	48 83 ec 08          	sub    rsp,0x8
4df0:	48 89 43 08          	mov    QWORD PTR [rbx+0x8],rax
4df4:	44 8b 45 00          	mov    r8d,DWORD PTR [rbp+0x0]
4df8:	ff 75 30             	push   QWORD PTR [rbp+0x30]
4dfb:	ff 75 28             	push   QWORD PTR [rbp+0x28]
4dfe:	4c 89 f1             	mov    rcx,r14
4e01:	41 57                	push   r15
4e03:	44 8b 4c 24 3c       	mov    r9d,DWORD PTR [rsp+0x3c]
4e08:	48 89 c7             	mov    rdi,rax
4e0b:	48 8b 54 24 28       	mov    rdx,QWORD PTR [rsp+0x28]
4e10:	48 8b 74 24 30       	mov    rsi,QWORD PTR [rsp+0x30]
4e15:	49 89 c4             	mov    r12,rax
4e18:	e8 63 ec ff ff       	call   3a80 <quotearg_buffer_restyled>
4e1d:	48 83 c4 20          	add    rsp,0x20
4e21:	8b 44 24 18          	mov    eax,DWORD PTR [rsp+0x18]
4e25:	41 89 45 00          	mov    DWORD PTR [r13+0x0],eax
4e29:	48 83 c4 28          	add    rsp,0x28
4e2d:	4c 89 e0             	mov    rax,r12
4e30:	5b                   	pop    rbx
4e31:	5d                   	pop    rbp
4e32:	41 5c                	pop    r12
4e34:	41 5d                	pop    r13
4e36:	41 5e                	pop    r14
4e38:	41 5f                	pop    r15
4e3a:	c3                   	ret
4e3b:	0f 1f 44 00 00       	nop    DWORD PTR [rax+rax*1+0x0]
4e40:	31 ff                	xor    edi,edi
4e42:	e8 b9 0e 00 00       	call   5d00 <xrealloc>
4e47:	66 0f 6f 05 41 52 20 	movdqa xmm0,XMMWORD PTR [rip+0x205241]        # 20a090 <slotvec0>
4e4e:	00
4e4f:	48 89 c3             	mov    rbx,rax
4e52:	48 89 05 27 52 20 00 	mov    QWORD PTR [rip+0x205227],rax        # 20a080 <slotvec>
4e59:	0f 11 00             	movups XMMWORD PTR [rax],xmm0
4e5c:	e9 dc fe ff ff       	jmp    4d3d <quotearg_n_options+0x7d>
4e61:	e8 aa c6 ff ff       	call   1510 <abort@plt>
4e66:	e8 85 10 00 00       	call   5ef0 <xalloc_die>
4e6b:	0f 1f 44 00 00       	nop    DWORD PTR [rax+rax*1+0x0]

0000000000004e70 <clone_quoting_options>:
4e70:	41 54                	push   r12
4e72:	55                   	push   rbp
4e73:	53                   	push   rbx
4e74:	48 89 fb             	mov    rbx,rdi
4e77:	e8 a4 c6 ff ff       	call   1520 <__errno_location@plt>
4e7c:	44 8b 20             	mov    r12d,DWORD PTR [rax]
4e7f:	48 89 c5             	mov    rbp,rax
4e82:	48 8d 05 97 53 20 00 	lea    rax,[rip+0x205397]        # 20a220 <default_quoting_options>
4e89:	48 85 db             	test   rbx,rbx
4e8c:	be 38 00 00 00       	mov    esi,0x38
4e91:	48 0f 44 d8          	cmove  rbx,rax
4e95:	48 89 df             	mov    rdi,rbx
4e98:	e8 03 10 00 00       	call   5ea0 <xmemdup>
4e9d:	44 89 65 00          	mov    DWORD PTR [rbp+0x0],r12d
4ea1:	5b                   	pop    rbx
4ea2:	5d                   	pop    rbp
4ea3:	41 5c                	pop    r12
4ea5:	c3                   	ret
4ea6:	66 2e 0f 1f 84 00 00 	nop    WORD PTR cs:[rax+rax*1+0x0]
4ead:	00 00 00

0000000000004eb0 <get_quoting_style>:
4eb0:	48 8d 05 69 53 20 00 	lea    rax,[rip+0x205369]        # 20a220 <default_quoting_options>
4eb7:	48 85 ff             	test   rdi,rdi
4eba:	48 0f 44 f8          	cmove  rdi,rax
4ebe:	8b 07                	mov    eax,DWORD PTR [rdi]
4ec0:	c3                   	ret
4ec1:	0f 1f 44 00 00       	nop    DWORD PTR [rax+rax*1+0x0]
4ec6:	66 2e 0f 1f 84 00 00 	nop    WORD PTR cs:[rax+rax*1+0x0]
4ecd:	00 00 00

0000000000004ed0 <set_quoting_style>:
4ed0:	48 8d 05 49 53 20 00 	lea    rax,[rip+0x205349]        # 20a220 <default_quoting_options>
4ed7:	48 85 ff             	test   rdi,rdi
4eda:	48 0f 44 f8          	cmove  rdi,rax
4ede:	89 37                	mov    DWORD PTR [rdi],esi
4ee0:	c3                   	ret
4ee1:	0f 1f 44 00 00       	nop    DWORD PTR [rax+rax*1+0x0]
4ee6:	66 2e 0f 1f 84 00 00 	nop    WORD PTR cs:[rax+rax*1+0x0]
4eed:	00 00 00

0000000000004ef0 <set_char_quoting>:
4ef0:	48 8d 05 29 53 20 00 	lea    rax,[rip+0x205329]        # 20a220 <default_quoting_options>
4ef7:	48 85 ff             	test   rdi,rdi
4efa:	89 f1                	mov    ecx,esi
4efc:	48 0f 44 f8          	cmove  rdi,rax
4f00:	89 f0                	mov    eax,esi
4f02:	83 e1 1f             	and    ecx,0x1f
4f05:	c0 e8 05             	shr    al,0x5
4f08:	0f b6 c0             	movzx  eax,al
4f0b:	48 8d 7c 87 08       	lea    rdi,[rdi+rax*4+0x8]
4f10:	8b 37                	mov    esi,DWORD PTR [rdi]
4f12:	89 f0                	mov    eax,esi
4f14:	d3 e8                	shr    eax,cl
4f16:	31 c2                	xor    edx,eax
4f18:	83 e0 01             	and    eax,0x1
4f1b:	83 e2 01             	and    edx,0x1
4f1e:	d3 e2                	shl    edx,cl
4f20:	31 f2                	xor    edx,esi
4f22:	89 17                	mov    DWORD PTR [rdi],edx
4f24:	c3                   	ret
4f25:	90                   	nop
4f26:	66 2e 0f 1f 84 00 00 	nop    WORD PTR cs:[rax+rax*1+0x0]
4f2d:	00 00 00

0000000000004f30 <set_quoting_flags>:
4f30:	48 8d 05 e9 52 20 00 	lea    rax,[rip+0x2052e9]        # 20a220 <default_quoting_options>
4f37:	48 85 ff             	test   rdi,rdi
4f3a:	48 0f 44 f8          	cmove  rdi,rax
4f3e:	8b 47 04             	mov    eax,DWORD PTR [rdi+0x4]
4f41:	89 77 04             	mov    DWORD PTR [rdi+0x4],esi
4f44:	c3                   	ret
4f45:	90                   	nop
4f46:	66 2e 0f 1f 84 00 00 	nop    WORD PTR cs:[rax+rax*1+0x0]
4f4d:	00 00 00

0000000000004f50 <set_custom_quoting>:
4f50:	48 8d 05 c9 52 20 00 	lea    rax,[rip+0x2052c9]        # 20a220 <default_quoting_options>
4f57:	48 85 ff             	test   rdi,rdi
4f5a:	48 0f 44 f8          	cmove  rdi,rax
4f5e:	48 85 f6             	test   rsi,rsi
4f61:	c7 07 0a 00 00 00    	mov    DWORD PTR [rdi],0xa
4f67:	74 0e                	je     4f77 <set_custom_quoting+0x27>
4f69:	48 85 d2             	test   rdx,rdx
4f6c:	74 09                	je     4f77 <set_custom_quoting+0x27>
4f6e:	48 89 77 28          	mov    QWORD PTR [rdi+0x28],rsi
4f72:	48 89 57 30          	mov    QWORD PTR [rdi+0x30],rdx
4f76:	c3                   	ret
4f77:	48 83 ec 08          	sub    rsp,0x8
4f7b:	e8 90 c5 ff ff       	call   1510 <abort@plt>

0000000000004f80 <quotearg_buffer>:
4f80:	41 57                	push   r15
4f82:	41 56                	push   r14
4f84:	48 8d 05 95 52 20 00 	lea    rax,[rip+0x205295]        # 20a220 <default_quoting_options>
4f8b:	41 55                	push   r13
4f8d:	41 54                	push   r12
4f8f:	49 89 fd             	mov    r13,rdi
4f92:	55                   	push   rbp
4f93:	53                   	push   rbx
4f94:	4c 89 c3             	mov    rbx,r8
4f97:	49 89 f6             	mov    r14,rsi
4f9a:	49 89 d7             	mov    r15,rdx
4f9d:	48 83 ec 18          	sub    rsp,0x18
4fa1:	4d 85 c0             	test   r8,r8
4fa4:	48 0f 44 d8          	cmove  rbx,rax
4fa8:	48 89 4c 24 08       	mov    QWORD PTR [rsp+0x8],rcx
4fad:	e8 6e c5 ff ff       	call   1520 <__errno_location@plt>
4fb2:	44 8b 20             	mov    r12d,DWORD PTR [rax]
4fb5:	48 89 c5             	mov    rbp,rax
4fb8:	48 8d 43 08          	lea    rax,[rbx+0x8]
4fbc:	48 83 ec 08          	sub    rsp,0x8
4fc0:	44 8b 4b 04          	mov    r9d,DWORD PTR [rbx+0x4]
4fc4:	ff 73 30             	push   QWORD PTR [rbx+0x30]
4fc7:	44 8b 03             	mov    r8d,DWORD PTR [rbx]
4fca:	ff 73 28             	push   QWORD PTR [rbx+0x28]
4fcd:	4c 89 fa             	mov    rdx,r15
4fd0:	50                   	push   rax
4fd1:	48 8b 4c 24 28       	mov    rcx,QWORD PTR [rsp+0x28]
4fd6:	4c 89 f6             	mov    rsi,r14
4fd9:	4c 89 ef             	mov    rdi,r13
4fdc:	e8 9f ea ff ff       	call   3a80 <quotearg_buffer_restyled>
4fe1:	44 89 65 00          	mov    DWORD PTR [rbp+0x0],r12d
4fe5:	48 83 c4 38          	add    rsp,0x38
4fe9:	5b                   	pop    rbx
4fea:	5d                   	pop    rbp
4feb:	41 5c                	pop    r12
4fed:	41 5d                	pop    r13
4fef:	41 5e                	pop    r14
4ff1:	41 5f                	pop    r15
4ff3:	c3                   	ret
4ff4:	66 90                	xchg   ax,ax
4ff6:	66 2e 0f 1f 84 00 00 	nop    WORD PTR cs:[rax+rax*1+0x0]
4ffd:	00 00 00

0000000000005000 <quotearg_alloc_mem>:
5000:	41 57                	push   r15
5002:	41 56                	push   r14
5004:	48 8d 05 15 52 20 00 	lea    rax,[rip+0x205215]        # 20a220 <default_quoting_options>
500b:	41 55                	push   r13
500d:	41 54                	push   r12
500f:	49 89 d4             	mov    r12,rdx
5012:	55                   	push   rbp
5013:	53                   	push   rbx
5014:	48 89 cb             	mov    rbx,rcx
5017:	49 89 fe             	mov    r14,rdi
501a:	49 89 f7             	mov    r15,rsi
501d:	48 83 ec 38          	sub    rsp,0x38
5021:	48 85 c9             	test   rcx,rcx
5024:	48 0f 44 d8          	cmove  rbx,rax
5028:	31 ed                	xor    ebp,ebp
502a:	e8 f1 c4 ff ff       	call   1520 <__errno_location@plt>
502f:	4d 85 e4             	test   r12,r12
5032:	49 89 c5             	mov    r13,rax
5035:	8b 00                	mov    eax,DWORD PTR [rax]
5037:	40 0f 94 c5          	sete   bpl
503b:	0b 6b 04             	or     ebp,DWORD PTR [rbx+0x4]
503e:	4c 8d 53 08          	lea    r10,[rbx+0x8]
5042:	48 83 ec 08          	sub    rsp,0x8
5046:	44 8b 03             	mov    r8d,DWORD PTR [rbx]
5049:	4c 89 f9             	mov    rcx,r15
504c:	89 44 24 14          	mov    DWORD PTR [rsp+0x14],eax
5050:	ff 73 30             	push   QWORD PTR [rbx+0x30]
5053:	4c 89 f2             	mov    rdx,r14
5056:	ff 73 28             	push   QWORD PTR [rbx+0x28]
5059:	41 52                	push   r10
505b:	31 f6                	xor    esi,esi
505d:	41 89 e9             	mov    r9d,ebp
5060:	31 ff                	xor    edi,edi
5062:	4c 89 54 24 40       	mov    QWORD PTR [rsp+0x40],r10
5067:	e8 14 ea ff ff       	call   3a80 <quotearg_buffer_restyled>
506c:	48 8d 70 01          	lea    rsi,[rax+0x1]
5070:	48 89 44 24 48       	mov    QWORD PTR [rsp+0x48],rax
5075:	48 83 c4 20          	add    rsp,0x20
5079:	48 89 f7             	mov    rdi,rsi
507c:	48 89 74 24 18       	mov    QWORD PTR [rsp+0x18],rsi
5081:	e8 1a 0c 00 00       	call   5ca0 <xmalloc>
5086:	48 89 44 24 10       	mov    QWORD PTR [rsp+0x10],rax
508b:	48 83 ec 08          	sub    rsp,0x8
508f:	ff 73 30             	push   QWORD PTR [rbx+0x30]
5092:	ff 73 28             	push   QWORD PTR [rbx+0x28]
5095:	4c 8b 54 24 38       	mov    r10,QWORD PTR [rsp+0x38]
509a:	41 89 e9             	mov    r9d,ebp
509d:	44 8b 03             	mov    r8d,DWORD PTR [rbx]
50a0:	4c 89 f9             	mov    rcx,r15
50a3:	4c 89 f2             	mov    rdx,r14
50a6:	48 89 c7             	mov    rdi,rax
50a9:	41 52                	push   r10
50ab:	48 8b 74 24 38       	mov    rsi,QWORD PTR [rsp+0x38]
50b0:	e8 cb e9 ff ff       	call   3a80 <quotearg_buffer_restyled>
50b5:	8b 44 24 2c          	mov    eax,DWORD PTR [rsp+0x2c]
50b9:	48 83 c4 20          	add    rsp,0x20
50bd:	4d 85 e4             	test   r12,r12
50c0:	41 89 45 00          	mov    DWORD PTR [r13+0x0],eax
50c4:	74 09                	je     50cf <quotearg_alloc_mem+0xcf>
50c6:	4c 8b 5c 24 28       	mov    r11,QWORD PTR [rsp+0x28]
50cb:	4d 89 1c 24          	mov    QWORD PTR [r12],r11
50cf:	48 8b 44 24 10       	mov    rax,QWORD PTR [rsp+0x10]
50d4:	48 83 c4 38          	add    rsp,0x38
50d8:	5b                   	pop    rbx
50d9:	5d                   	pop    rbp
50da:	41 5c                	pop    r12
50dc:	41 5d                	pop    r13
50de:	41 5e                	pop    r14
50e0:	41 5f                	pop    r15
50e2:	c3                   	ret
50e3:	0f 1f 00             	nop    DWORD PTR [rax]
50e6:	66 2e 0f 1f 84 00 00 	nop    WORD PTR cs:[rax+rax*1+0x0]
50ed:	00 00 00

00000000000050f0 <quotearg_alloc>:
50f0:	48 89 d1             	mov    rcx,rdx
50f3:	31 d2                	xor    edx,edx
50f5:	e9 06 ff ff ff       	jmp    5000 <quotearg_alloc_mem>
50fa:	66 0f 1f 44 00 00    	nop    WORD PTR [rax+rax*1+0x0]

0000000000005100 <quotearg_free>:
5100:	8b 05 72 4f 20 00    	mov    eax,DWORD PTR [rip+0x204f72]        # 20a078 <nslots>
5106:	41 54                	push   r12
5108:	4c 8b 25 71 4f 20 00 	mov    r12,QWORD PTR [rip+0x204f71]        # 20a080 <slotvec>
510f:	55                   	push   rbp
5110:	53                   	push   rbx
5111:	83 f8 01             	cmp    eax,0x1
5114:	7e 2b                	jle    5141 <quotearg_free+0x41>
5116:	83 e8 02             	sub    eax,0x2
5119:	49 8d 5c 24 18       	lea    rbx,[r12+0x18]
511e:	48 c1 e0 04          	shl    rax,0x4
5122:	49 8d 6c 04 28       	lea    rbp,[r12+rax*1+0x28]
5127:	66 0f 1f 84 00 00 00 	nop    WORD PTR [rax+rax*1+0x0]
512e:	00 00
5130:	48 8b 3b             	mov    rdi,QWORD PTR [rbx]
5133:	48 83 c3 10          	add    rbx,0x10
5137:	e8 c4 c3 ff ff       	call   1500 <free@plt>
513c:	48 39 eb             	cmp    rbx,rbp
513f:	75 ef                	jne    5130 <quotearg_free+0x30>
5141:	49 8b 7c 24 08       	mov    rdi,QWORD PTR [r12+0x8]
5146:	48 8d 1d d3 4f 20 00 	lea    rbx,[rip+0x204fd3]        # 20a120 <slot0>
514d:	48 39 df             	cmp    rdi,rbx
5150:	74 17                	je     5169 <quotearg_free+0x69>
5152:	e8 a9 c3 ff ff       	call   1500 <free@plt>
5157:	48 c7 05 2e 4f 20 00 	mov    QWORD PTR [rip+0x204f2e],0x100        # 20a090 <slotvec0>
515e:	00 01 00 00
5162:	48 89 1d 2f 4f 20 00 	mov    QWORD PTR [rip+0x204f2f],rbx        # 20a098 <slotvec0+0x8>
5169:	48 8d 1d 20 4f 20 00 	lea    rbx,[rip+0x204f20]        # 20a090 <slotvec0>
5170:	49 39 dc             	cmp    r12,rbx
5173:	74 0f                	je     5184 <quotearg_free+0x84>
5175:	4c 89 e7             	mov    rdi,r12
5178:	e8 83 c3 ff ff       	call   1500 <free@plt>
517d:	48 89 1d fc 4e 20 00 	mov    QWORD PTR [rip+0x204efc],rbx        # 20a080 <slotvec>
5184:	5b                   	pop    rbx
5185:	c7 05 e9 4e 20 00 01 	mov    DWORD PTR [rip+0x204ee9],0x1        # 20a078 <nslots>
518c:	00 00 00
518f:	5d                   	pop    rbp
5190:	41 5c                	pop    r12
5192:	c3                   	ret
5193:	0f 1f 00             	nop    DWORD PTR [rax]
5196:	66 2e 0f 1f 84 00 00 	nop    WORD PTR cs:[rax+rax*1+0x0]
519d:	00 00 00

00000000000051a0 <quotearg_n>:
51a0:	48 8d 0d 79 50 20 00 	lea    rcx,[rip+0x205079]        # 20a220 <default_quoting_options>
51a7:	48 c7 c2 ff ff ff ff 	mov    rdx,0xffffffffffffffff
51ae:	e9 0d fb ff ff       	jmp    4cc0 <quotearg_n_options>
51b3:	0f 1f 00             	nop    DWORD PTR [rax]
51b6:	66 2e 0f 1f 84 00 00 	nop    WORD PTR cs:[rax+rax*1+0x0]
51bd:	00 00 00

00000000000051c0 <quotearg_n_mem>:
51c0:	48 8d 0d 59 50 20 00 	lea    rcx,[rip+0x205059]        # 20a220 <default_quoting_options>
51c7:	e9 f4 fa ff ff       	jmp    4cc0 <quotearg_n_options>
51cc:	0f 1f 40 00          	nop    DWORD PTR [rax+0x0]

00000000000051d0 <quotearg>:
51d0:	48 8d 0d 49 50 20 00 	lea    rcx,[rip+0x205049]        # 20a220 <default_quoting_options>
51d7:	48 89 fe             	mov    rsi,rdi
51da:	48 c7 c2 ff ff ff ff 	mov    rdx,0xffffffffffffffff
51e1:	31 ff                	xor    edi,edi
51e3:	e9 d8 fa ff ff       	jmp    4cc0 <quotearg_n_options>
51e8:	0f 1f 84 00 00 00 00 	nop    DWORD PTR [rax+rax*1+0x0]
51ef:	00

00000000000051f0 <quotearg_mem>:
51f0:	48 8d 0d 29 50 20 00 	lea    rcx,[rip+0x205029]        # 20a220 <default_quoting_options>
51f7:	48 89 f2             	mov    rdx,rsi
51fa:	48 89 fe             	mov    rsi,rdi
51fd:	31 ff                	xor    edi,edi
51ff:	e9 bc fa ff ff       	jmp    4cc0 <quotearg_n_options>
5204:	66 90                	xchg   ax,ax
5206:	66 2e 0f 1f 84 00 00 	nop    WORD PTR cs:[rax+rax*1+0x0]
520d:	00 00 00

0000000000005210 <quotearg_n_style>:
5210:	48 83 ec 48          	sub    rsp,0x48
5214:	48 89 d0             	mov    rax,rdx
5217:	64 48 8b 14 25 28 00 	mov    rdx,QWORD PTR fs:0x28
521e:	00 00
5220:	48 89 54 24 38       	mov    QWORD PTR [rsp+0x38],rdx
5225:	31 d2                	xor    edx,edx
5227:	83 fe 0a             	cmp    esi,0xa
522a:	74 68                	je     5294 <quotearg_n_style+0x84>
522c:	89 34 24             	mov    DWORD PTR [rsp],esi
522f:	48 89 e1             	mov    rcx,rsp
5232:	48 c7 c2 ff ff ff ff 	mov    rdx,0xffffffffffffffff
5239:	48 89 c6             	mov    rsi,rax
523c:	48 c7 44 24 04 00 00 	mov    QWORD PTR [rsp+0x4],0x0
5243:	00 00
5245:	48 c7 44 24 0c 00 00 	mov    QWORD PTR [rsp+0xc],0x0
524c:	00 00
524e:	48 c7 44 24 14 00 00 	mov    QWORD PTR [rsp+0x14],0x0
5255:	00 00
5257:	48 c7 44 24 1c 00 00 	mov    QWORD PTR [rsp+0x1c],0x0
525e:	00 00
5260:	48 c7 44 24 24 00 00 	mov    QWORD PTR [rsp+0x24],0x0
5267:	00 00
5269:	48 c7 44 24 2c 00 00 	mov    QWORD PTR [rsp+0x2c],0x0
5270:	00 00
5272:	c7 44 24 34 00 00 00 	mov    DWORD PTR [rsp+0x34],0x0
5279:	00
527a:	e8 41 fa ff ff       	call   4cc0 <quotearg_n_options>
527f:	48 8b 4c 24 38       	mov    rcx,QWORD PTR [rsp+0x38]
5284:	64 48 33 0c 25 28 00 	xor    rcx,QWORD PTR fs:0x28
528b:	00 00
528d:	75 0a                	jne    5299 <quotearg_n_style+0x89>
528f:	48 83 c4 48          	add    rsp,0x48
5293:	c3                   	ret
5294:	e8 77 c2 ff ff       	call   1510 <abort@plt>
5299:	e8 32 c3 ff ff       	call   15d0 <__stack_chk_fail@plt>
529e:	66 90                	xchg   ax,ax

00000000000052a0 <quotearg_n_style_mem>:
52a0:	48 83 ec 48          	sub    rsp,0x48
52a4:	48 89 d0             	mov    rax,rdx
52a7:	48 89 ca             	mov    rdx,rcx
52aa:	64 48 8b 0c 25 28 00 	mov    rcx,QWORD PTR fs:0x28
52b1:	00 00
52b3:	48 89 4c 24 38       	mov    QWORD PTR [rsp+0x38],rcx
52b8:	31 c9                	xor    ecx,ecx
52ba:	83 fe 0a             	cmp    esi,0xa
52bd:	74 61                	je     5320 <quotearg_n_style_mem+0x80>
52bf:	89 34 24             	mov    DWORD PTR [rsp],esi
52c2:	48 89 e1             	mov    rcx,rsp
52c5:	48 89 c6             	mov    rsi,rax
52c8:	48 c7 44 24 04 00 00 	mov    QWORD PTR [rsp+0x4],0x0
52cf:	00 00
52d1:	48 c7 44 24 0c 00 00 	mov    QWORD PTR [rsp+0xc],0x0
52d8:	00 00
52da:	48 c7 44 24 14 00 00 	mov    QWORD PTR [rsp+0x14],0x0
52e1:	00 00
52e3:	48 c7 44 24 1c 00 00 	mov    QWORD PTR [rsp+0x1c],0x0
52ea:	00 00
52ec:	48 c7 44 24 24 00 00 	mov    QWORD PTR [rsp+0x24],0x0
52f3:	00 00
52f5:	48 c7 44 24 2c 00 00 	mov    QWORD PTR [rsp+0x2c],0x0
52fc:	00 00
52fe:	c7 44 24 34 00 00 00 	mov    DWORD PTR [rsp+0x34],0x0
5305:	00
5306:	e8 b5 f9 ff ff       	call   4cc0 <quotearg_n_options>
530b:	48 8b 54 24 38       	mov    rdx,QWORD PTR [rsp+0x38]
5310:	64 48 33 14 25 28 00 	xor    rdx,QWORD PTR fs:0x28
5317:	00 00
5319:	75 0a                	jne    5325 <quotearg_n_style_mem+0x85>
531b:	48 83 c4 48          	add    rsp,0x48
531f:	c3                   	ret
5320:	e8 eb c1 ff ff       	call   1510 <abort@plt>
5325:	e8 a6 c2 ff ff       	call   15d0 <__stack_chk_fail@plt>
532a:	66 0f 1f 44 00 00    	nop    WORD PTR [rax+rax*1+0x0]

0000000000005330 <quotearg_style>:
5330:	48 89 f2             	mov    rdx,rsi
5333:	89 fe                	mov    esi,edi
5335:	31 ff                	xor    edi,edi
5337:	e9 d4 fe ff ff       	jmp    5210 <quotearg_n_style>
533c:	0f 1f 40 00          	nop    DWORD PTR [rax+0x0]

0000000000005340 <quotearg_style_mem>:
5340:	48 89 d1             	mov    rcx,rdx
5343:	48 89 f2             	mov    rdx,rsi
5346:	89 fe                	mov    esi,edi
5348:	31 ff                	xor    edi,edi
534a:	e9 51 ff ff ff       	jmp    52a0 <quotearg_n_style_mem>
534f:	90                   	nop

0000000000005350 <quotearg_char_mem>:
5350:	48 83 ec 48          	sub    rsp,0x48
5354:	89 d1                	mov    ecx,edx
5356:	64 48 8b 04 25 28 00 	mov    rax,QWORD PTR fs:0x28
535d:	00 00
535f:	48 89 44 24 38       	mov    QWORD PTR [rsp+0x38],rax
5364:	31 c0                	xor    eax,eax
5366:	48 8b 05 e3 4e 20 00 	mov    rax,QWORD PTR [rip+0x204ee3]        # 20a250 <default_quoting_options+0x30>
536d:	49 89 e0             	mov    r8,rsp
5370:	83 e1 1f             	and    ecx,0x1f
5373:	66 0f 6f 05 a5 4e 20 	movdqa xmm0,XMMWORD PTR [rip+0x204ea5]        # 20a220 <default_quoting_options>
537a:	00
537b:	48 89 44 24 30       	mov    QWORD PTR [rsp+0x30],rax
5380:	89 d0                	mov    eax,edx
5382:	0f 29 04 24          	movaps XMMWORD PTR [rsp],xmm0
5386:	c0 e8 05             	shr    al,0x5
5389:	0f b6 c0             	movzx  eax,al
538c:	4d 8d 4c 80 08       	lea    r9,[r8+rax*4+0x8]
5391:	66 0f 6f 05 97 4e 20 	movdqa xmm0,XMMWORD PTR [rip+0x204e97]        # 20a230 <default_quoting_options+0x10>
5398:	00
5399:	0f 29 44 24 10       	movaps XMMWORD PTR [rsp+0x10],xmm0
539e:	66 0f 6f 05 9a 4e 20 	movdqa xmm0,XMMWORD PTR [rip+0x204e9a]        # 20a240 <default_quoting_options+0x20>
53a5:	00
53a6:	0f 29 44 24 20       	movaps XMMWORD PTR [rsp+0x20],xmm0
53ab:	41 8b 11             	mov    edx,DWORD PTR [r9]
53ae:	89 d0                	mov    eax,edx
53b0:	d3 e8                	shr    eax,cl
53b2:	f7 d0                	not    eax
53b4:	83 e0 01             	and    eax,0x1
53b7:	d3 e0                	shl    eax,cl
53b9:	4c 89 c1             	mov    rcx,r8
53bc:	31 d0                	xor    eax,edx
53be:	48 89 f2             	mov    rdx,rsi
53c1:	48 89 fe             	mov    rsi,rdi
53c4:	41 89 01             	mov    DWORD PTR [r9],eax
53c7:	31 ff                	xor    edi,edi
53c9:	e8 f2 f8 ff ff       	call   4cc0 <quotearg_n_options>
53ce:	48 8b 74 24 38       	mov    rsi,QWORD PTR [rsp+0x38]
53d3:	64 48 33 34 25 28 00 	xor    rsi,QWORD PTR fs:0x28
53da:	00 00
53dc:	75 05                	jne    53e3 <quotearg_char_mem+0x93>
53de:	48 83 c4 48          	add    rsp,0x48
53e2:	c3                   	ret
53e3:	e8 e8 c1 ff ff       	call   15d0 <__stack_chk_fail@plt>
53e8:	0f 1f 84 00 00 00 00 	nop    DWORD PTR [rax+rax*1+0x0]
53ef:	00

00000000000053f0 <quotearg_char>:
53f0:	40 0f be d6          	movsx  edx,sil
53f4:	48 c7 c6 ff ff ff ff 	mov    rsi,0xffffffffffffffff
53fb:	e9 50 ff ff ff       	jmp    5350 <quotearg_char_mem>

0000000000005400 <quotearg_colon>:
5400:	ba 3a 00 00 00       	mov    edx,0x3a
5405:	48 c7 c6 ff ff ff ff 	mov    rsi,0xffffffffffffffff
540c:	e9 3f ff ff ff       	jmp    5350 <quotearg_char_mem>
5411:	0f 1f 44 00 00       	nop    DWORD PTR [rax+rax*1+0x0]
5416:	66 2e 0f 1f 84 00 00 	nop    WORD PTR cs:[rax+rax*1+0x0]
541d:	00 00 00

0000000000005420 <quotearg_colon_mem>:
5420:	ba 3a 00 00 00       	mov    edx,0x3a
5425:	e9 26 ff ff ff       	jmp    5350 <quotearg_char_mem>
542a:	66 0f 1f 44 00 00    	nop    WORD PTR [rax+rax*1+0x0]

0000000000005430 <quotearg_n_style_colon>:
5430:	48 83 ec 48          	sub    rsp,0x48
5434:	48 89 d0             	mov    rax,rdx
5437:	64 48 8b 14 25 28 00 	mov    rdx,QWORD PTR fs:0x28
543e:	00 00
5440:	48 89 54 24 38       	mov    QWORD PTR [rsp+0x38],rdx
5445:	31 d2                	xor    edx,edx
5447:	83 fe 0a             	cmp    esi,0xa
544a:	74 68                	je     54b4 <quotearg_n_style_colon+0x84>
544c:	89 34 24             	mov    DWORD PTR [rsp],esi
544f:	48 89 e1             	mov    rcx,rsp
5452:	48 c7 c2 ff ff ff ff 	mov    rdx,0xffffffffffffffff
5459:	48 89 c6             	mov    rsi,rax
545c:	48 c7 44 24 04 00 00 	mov    QWORD PTR [rsp+0x4],0x0
5463:	00 00
5465:	48 c7 44 24 0c 00 00 	mov    QWORD PTR [rsp+0xc],0x4000000
546c:	00 04
546e:	48 c7 44 24 14 00 00 	mov    QWORD PTR [rsp+0x14],0x0
5475:	00 00
5477:	48 c7 44 24 1c 00 00 	mov    QWORD PTR [rsp+0x1c],0x0
547e:	00 00
5480:	48 c7 44 24 24 00 00 	mov    QWORD PTR [rsp+0x24],0x0
5487:	00 00
5489:	48 c7 44 24 2c 00 00 	mov    QWORD PTR [rsp+0x2c],0x0
5490:	00 00
5492:	c7 44 24 34 00 00 00 	mov    DWORD PTR [rsp+0x34],0x0
5499:	00
549a:	e8 21 f8 ff ff       	call   4cc0 <quotearg_n_options>
549f:	48 8b 4c 24 38       	mov    rcx,QWORD PTR [rsp+0x38]
54a4:	64 48 33 0c 25 28 00 	xor    rcx,QWORD PTR fs:0x28
54ab:	00 00
54ad:	75 0a                	jne    54b9 <quotearg_n_style_colon+0x89>
54af:	48 83 c4 48          	add    rsp,0x48
54b3:	c3                   	ret
54b4:	e8 57 c0 ff ff       	call   1510 <abort@plt>
54b9:	e8 12 c1 ff ff       	call   15d0 <__stack_chk_fail@plt>
54be:	66 90                	xchg   ax,ax

00000000000054c0 <quotearg_n_custom_mem>:
54c0:	48 83 ec 48          	sub    rsp,0x48
54c4:	49 89 c9             	mov    r9,rcx
54c7:	48 8b 0d 82 4d 20 00 	mov    rcx,QWORD PTR [rip+0x204d82]        # 20a250 <default_quoting_options+0x30>
54ce:	66 0f 6f 05 4a 4d 20 	movdqa xmm0,XMMWORD PTR [rip+0x204d4a]        # 20a220 <default_quoting_options>
54d5:	00
54d6:	64 48 8b 04 25 28 00 	mov    rax,QWORD PTR fs:0x28
54dd:	00 00
54df:	48 89 44 24 38       	mov    QWORD PTR [rsp+0x38],rax
54e4:	31 c0                	xor    eax,eax
54e6:	0f 29 04 24          	movaps XMMWORD PTR [rsp],xmm0
54ea:	48 85 f6             	test   rsi,rsi
54ed:	48 89 4c 24 30       	mov    QWORD PTR [rsp+0x30],rcx
54f2:	c7 04 24 0a 00 00 00 	mov    DWORD PTR [rsp],0xa
54f9:	66 0f 6f 05 2f 4d 20 	movdqa xmm0,XMMWORD PTR [rip+0x204d2f]        # 20a230 <default_quoting_options+0x10>
5500:	00
5501:	0f 29 44 24 10       	movaps XMMWORD PTR [rsp+0x10],xmm0
5506:	66 0f 6f 05 32 4d 20 	movdqa xmm0,XMMWORD PTR [rip+0x204d32]        # 20a240 <default_quoting_options+0x20>
550d:	00
550e:	0f 29 44 24 20       	movaps XMMWORD PTR [rsp+0x20],xmm0
5513:	74 32                	je     5547 <quotearg_n_custom_mem+0x87>
5515:	48 85 d2             	test   rdx,rdx
5518:	74 2d                	je     5547 <quotearg_n_custom_mem+0x87>
551a:	48 89 74 24 28       	mov    QWORD PTR [rsp+0x28],rsi
551f:	48 89 54 24 30       	mov    QWORD PTR [rsp+0x30],rdx
5524:	48 89 e1             	mov    rcx,rsp
5527:	4c 89 c2             	mov    rdx,r8
552a:	4c 89 ce             	mov    rsi,r9
552d:	e8 8e f7 ff ff       	call   4cc0 <quotearg_n_options>
5532:	48 8b 7c 24 38       	mov    rdi,QWORD PTR [rsp+0x38]
5537:	64 48 33 3c 25 28 00 	xor    rdi,QWORD PTR fs:0x28
553e:	00 00
5540:	75 0a                	jne    554c <quotearg_n_custom_mem+0x8c>
5542:	48 83 c4 48          	add    rsp,0x48
5546:	c3                   	ret
5547:	e8 c4 bf ff ff       	call   1510 <abort@plt>
554c:	e8 7f c0 ff ff       	call   15d0 <__stack_chk_fail@plt>
5551:	0f 1f 44 00 00       	nop    DWORD PTR [rax+rax*1+0x0]
5556:	66 2e 0f 1f 84 00 00 	nop    WORD PTR cs:[rax+rax*1+0x0]
555d:	00 00 00

0000000000005560 <quotearg_n_custom>:
5560:	49 c7 c0 ff ff ff ff 	mov    r8,0xffffffffffffffff
5567:	e9 54 ff ff ff       	jmp    54c0 <quotearg_n_custom_mem>
556c:	0f 1f 40 00          	nop    DWORD PTR [rax+0x0]

0000000000005570 <quotearg_custom>:
5570:	48 89 d1             	mov    rcx,rdx
5573:	49 c7 c0 ff ff ff ff 	mov    r8,0xffffffffffffffff
557a:	48 89 f2             	mov    rdx,rsi
557d:	48 89 fe             	mov    rsi,rdi
5580:	31 ff                	xor    edi,edi
5582:	e9 39 ff ff ff       	jmp    54c0 <quotearg_n_custom_mem>
5587:	66 0f 1f 84 00 00 00 	nop    WORD PTR [rax+rax*1+0x0]
558e:	00 00

0000000000005590 <quotearg_custom_mem>:
5590:	49 89 c8             	mov    r8,rcx
5593:	48 89 d1             	mov    rcx,rdx
5596:	48 89 f2             	mov    rdx,rsi
5599:	48 89 fe             	mov    rsi,rdi
559c:	31 ff                	xor    edi,edi
559e:	e9 1d ff ff ff       	jmp    54c0 <quotearg_n_custom_mem>
55a3:	0f 1f 00             	nop    DWORD PTR [rax]
55a6:	66 2e 0f 1f 84 00 00 	nop    WORD PTR cs:[rax+rax*1+0x0]
55ad:	00 00 00

00000000000055b0 <quote_n_mem>:
55b0:	48 8d 0d 89 4a 20 00 	lea    rcx,[rip+0x204a89]        # 20a040 <quote_quoting_options>
55b7:	e9 04 f7 ff ff       	jmp    4cc0 <quotearg_n_options>
55bc:	0f 1f 40 00          	nop    DWORD PTR [rax+0x0]

00000000000055c0 <quote_mem>:
55c0:	48 8d 0d 79 4a 20 00 	lea    rcx,[rip+0x204a79]        # 20a040 <quote_quoting_options>
55c7:	48 89 f2             	mov    rdx,rsi
55ca:	48 89 fe             	mov    rsi,rdi
55cd:	31 ff                	xor    edi,edi
55cf:	e9 ec f6 ff ff       	jmp    4cc0 <quotearg_n_options>
55d4:	66 90                	xchg   ax,ax
55d6:	66 2e 0f 1f 84 00 00 	nop    WORD PTR cs:[rax+rax*1+0x0]
55dd:	00 00 00

00000000000055e0 <quote_n>:
55e0:	48 8d 0d 59 4a 20 00 	lea    rcx,[rip+0x204a59]        # 20a040 <quote_quoting_options>
55e7:	48 c7 c2 ff ff ff ff 	mov    rdx,0xffffffffffffffff
55ee:	e9 cd f6 ff ff       	jmp    4cc0 <quotearg_n_options>
55f3:	0f 1f 00             	nop    DWORD PTR [rax]
55f6:	66 2e 0f 1f 84 00 00 	nop    WORD PTR cs:[rax+rax*1+0x0]
55fd:	00 00 00

0000000000005600 <quote>:
5600:	48 8d 0d 39 4a 20 00 	lea    rcx,[rip+0x204a39]        # 20a040 <quote_quoting_options>
5607:	48 89 fe             	mov    rsi,rdi
560a:	48 c7 c2 ff ff ff ff 	mov    rdx,0xffffffffffffffff
5611:	31 ff                	xor    edi,edi
5613:	e9 a8 f6 ff ff       	jmp    4cc0 <quotearg_n_options>
5618:	0f 1f 84 00 00 00 00 	nop    DWORD PTR [rax+rax*1+0x0]
561f:	00

0000000000005620 <safe_read>:
5620:	41 55                	push   r13
5622:	41 54                	push   r12
5624:	41 89 fd             	mov    r13d,edi
5627:	55                   	push   rbp
5628:	53                   	push   rbx
5629:	49 89 f4             	mov    r12,rsi
562c:	48 89 d3             	mov    rbx,rdx
562f:	48 83 ec 08          	sub    rsp,0x8
5633:	0f 1f 44 00 00       	nop    DWORD PTR [rax+rax*1+0x0]
5638:	48 89 da             	mov    rdx,rbx
563b:	4c 89 e6             	mov    rsi,r12
563e:	44 89 ef             	mov    edi,r13d
5641:	e8 3a c0 ff ff       	call   1680 <read@plt>
5646:	48 85 c0             	test   rax,rax
5649:	48 89 c5             	mov    rbp,rax
564c:	79 22                	jns    5670 <safe_read+0x50>
564e:	e8 cd be ff ff       	call   1520 <__errno_location@plt>
5653:	8b 00                	mov    eax,DWORD PTR [rax]
5655:	83 f8 04             	cmp    eax,0x4
5658:	74 de                	je     5638 <safe_read+0x18>
565a:	48 81 fb 00 00 f0 7f 	cmp    rbx,0x7ff00000
5661:	76 0d                	jbe    5670 <safe_read+0x50>
5663:	83 f8 16             	cmp    eax,0x16
5666:	75 08                	jne    5670 <safe_read+0x50>
5668:	bb 00 00 f0 7f       	mov    ebx,0x7ff00000
566d:	eb c9                	jmp    5638 <safe_read+0x18>
566f:	90                   	nop
5670:	48 83 c4 08          	add    rsp,0x8
5674:	48 89 e8             	mov    rax,rbp
5677:	5b                   	pop    rbx
5678:	5d                   	pop    rbp
5679:	41 5c                	pop    r12
567b:	41 5d                	pop    r13
567d:	c3                   	ret
567e:	66 90                	xchg   ax,ax

0000000000005680 <version_etc_arn>:
5680:	41 57                	push   r15
5682:	41 56                	push   r14
5684:	41 55                	push   r13
5686:	41 54                	push   r12
5688:	4d 89 cc             	mov    r12,r9
568b:	55                   	push   rbp
568c:	53                   	push   rbx
568d:	48 89 fd             	mov    rbp,rdi
5690:	4c 89 c3             	mov    rbx,r8
5693:	48 83 ec 28          	sub    rsp,0x28
5697:	48 85 f6             	test   rsi,rsi
569a:	0f 84 18 01 00 00    	je     57b8 <version_etc_arn+0x138>
56a0:	49 89 d0             	mov    r8,rdx
56a3:	48 8d 15 1e 1f 00 00 	lea    rdx,[rip+0x1f1e]        # 75c8 <quoting_style_vals+0x28>
56aa:	49 89 c9             	mov    r9,rcx
56ad:	31 c0                	xor    eax,eax
56af:	48 89 f1             	mov    rcx,rsi
56b2:	be 01 00 00 00       	mov    esi,0x1
56b7:	e8 24 c1 ff ff       	call   17e0 <__fprintf_chk@plt>
56bc:	48 8d 35 18 1f 00 00 	lea    rsi,[rip+0x1f18]        # 75db <quoting_style_vals+0x3b>
56c3:	31 ff                	xor    edi,edi
56c5:	ba 05 00 00 00       	mov    edx,0x5
56ca:	e8 d1 be ff ff       	call   15a0 <dcgettext@plt>
56cf:	48 8d 15 2a 22 00 00 	lea    rdx,[rip+0x222a]        # 7900 <version_etc_copyright>
56d6:	48 89 c1             	mov    rcx,rax
56d9:	41 b8 e3 07 00 00    	mov    r8d,0x7e3
56df:	be 01 00 00 00       	mov    esi,0x1
56e4:	48 89 ef             	mov    rdi,rbp
56e7:	31 c0                	xor    eax,eax
56e9:	e8 f2 c0 ff ff       	call   17e0 <__fprintf_chk@plt>
56ee:	48 8d 35 73 1f 00 00 	lea    rsi,[rip+0x1f73]        # 7668 <quoting_style_vals+0xc8>
56f5:	31 ff                	xor    edi,edi
56f7:	ba 05 00 00 00       	mov    edx,0x5
56fc:	e8 9f be ff ff       	call   15a0 <dcgettext@plt>
5701:	48 89 ee             	mov    rsi,rbp
5704:	48 89 c7             	mov    rdi,rax
5707:	e8 94 bf ff ff       	call   16a0 <fputs_unlocked@plt>
570c:	49 83 fc 09          	cmp    r12,0x9
5710:	0f 87 3a 03 00 00    	ja     5a50 <version_etc_arn+0x3d0>
5716:	48 8d 15 a7 21 00 00 	lea    rdx,[rip+0x21a7]        # 78c4 <quoting_style_vals+0x324>
571d:	4a 63 04 a2          	movsxd rax,DWORD PTR [rdx+r12*4]
5721:	48 01 d0             	add    rax,rdx
5724:	ff e0                	jmp    rax
5726:	66 2e 0f 1f 84 00 00 	nop    WORD PTR cs:[rax+rax*1+0x0]
572d:	00 00 00
5730:	4c 8b 4b 38          	mov    r9,QWORD PTR [rbx+0x38]
5734:	48 8b 43 10          	mov    rax,QWORD PTR [rbx+0x10]
5738:	48 8d 35 99 20 00 00 	lea    rsi,[rip+0x2099]        # 77d8 <quoting_style_vals+0x238>
573f:	4c 8b 43 08          	mov    r8,QWORD PTR [rbx+0x8]
5743:	ba 05 00 00 00       	mov    edx,0x5
5748:	31 ff                	xor    edi,edi
574a:	4c 8b 6b 30          	mov    r13,QWORD PTR [rbx+0x30]
574e:	4c 8b 63 28          	mov    r12,QWORD PTR [rbx+0x28]
5752:	4c 89 4c 24 10       	mov    QWORD PTR [rsp+0x10],r9
5757:	4c 8b 7b 20          	mov    r15,QWORD PTR [rbx+0x20]
575b:	4c 8b 73 18          	mov    r14,QWORD PTR [rbx+0x18]
575f:	48 89 04 24          	mov    QWORD PTR [rsp],rax
5763:	4c 89 44 24 08       	mov    QWORD PTR [rsp+0x8],r8
5768:	48 8b 1b             	mov    rbx,QWORD PTR [rbx]
576b:	e8 30 be ff ff       	call   15a0 <dcgettext@plt>
5770:	48 83 ec 08          	sub    rsp,0x8
5774:	4c 8b 4c 24 18       	mov    r9,QWORD PTR [rsp+0x18]
5779:	48 89 c2             	mov    rdx,rax
577c:	48 89 d9             	mov    rcx,rbx
577f:	be 01 00 00 00       	mov    esi,0x1
5784:	48 89 ef             	mov    rdi,rbp
5787:	31 c0                	xor    eax,eax
5789:	41 51                	push   r9
578b:	41 55                	push   r13
578d:	41 54                	push   r12
578f:	41 57                	push   r15
5791:	41 56                	push   r14
5793:	4c 8b 4c 24 30       	mov    r9,QWORD PTR [rsp+0x30]
5798:	4c 8b 44 24 38       	mov    r8,QWORD PTR [rsp+0x38]
579d:	e8 3e c0 ff ff       	call   17e0 <__fprintf_chk@plt>
57a2:	48 83 c4 30          	add    rsp,0x30
57a6:	48 83 c4 28          	add    rsp,0x28
57aa:	5b                   	pop    rbx
57ab:	5d                   	pop    rbp
57ac:	41 5c                	pop    r12
57ae:	41 5d                	pop    r13
57b0:	41 5e                	pop    r14
57b2:	41 5f                	pop    r15
57b4:	c3                   	ret
57b5:	0f 1f 00             	nop    DWORD PTR [rax]
57b8:	49 89 c8             	mov    r8,rcx
57bb:	48 89 d1             	mov    rcx,rdx
57be:	48 8d 15 0f 1e 00 00 	lea    rdx,[rip+0x1e0f]        # 75d4 <quoting_style_vals+0x34>
57c5:	be 01 00 00 00       	mov    esi,0x1
57ca:	31 c0                	xor    eax,eax
57cc:	e8 0f c0 ff ff       	call   17e0 <__fprintf_chk@plt>
57d1:	e9 e6 fe ff ff       	jmp    56bc <version_etc_arn+0x3c>
57d6:	66 2e 0f 1f 84 00 00 	nop    WORD PTR cs:[rax+rax*1+0x0]
57dd:	00 00 00
57e0:	4c 8b 53 40          	mov    r10,QWORD PTR [rbx+0x40]
57e4:	4c 8b 4b 38          	mov    r9,QWORD PTR [rbx+0x38]
57e8:	48 8d 35 19 20 00 00 	lea    rsi,[rip+0x2019]        # 7808 <quoting_style_vals+0x268>
57ef:	48 8b 43 10          	mov    rax,QWORD PTR [rbx+0x10]
57f3:	4c 8b 43 08          	mov    r8,QWORD PTR [rbx+0x8]
57f7:	ba 05 00 00 00       	mov    edx,0x5
57fc:	4c 8b 6b 30          	mov    r13,QWORD PTR [rbx+0x30]
5800:	4c 8b 63 28          	mov    r12,QWORD PTR [rbx+0x28]
5804:	4c 8b 7b 20          	mov    r15,QWORD PTR [rbx+0x20]
5808:	4c 8b 73 18          	mov    r14,QWORD PTR [rbx+0x18]
580c:	48 8b 1b             	mov    rbx,QWORD PTR [rbx]
580f:	4c 89 54 24 18       	mov    QWORD PTR [rsp+0x18],r10
5814:	4c 89 4c 24 10       	mov    QWORD PTR [rsp+0x10],r9
5819:	48 89 04 24          	mov    QWORD PTR [rsp],rax
581d:	4c 89 44 24 08       	mov    QWORD PTR [rsp+0x8],r8
5822:	31 ff                	xor    edi,edi
5824:	e8 77 bd ff ff       	call   15a0 <dcgettext@plt>
5829:	4c 8b 54 24 18       	mov    r10,QWORD PTR [rsp+0x18]
582e:	41 52                	push   r10
5830:	e9 3f ff ff ff       	jmp    5774 <version_etc_arn+0xf4>
5835:	0f 1f 00             	nop    DWORD PTR [rax]
5838:	48 8b 1b             	mov    rbx,QWORD PTR [rbx]
583b:	48 8d 35 9d 1d 00 00 	lea    rsi,[rip+0x1d9d]        # 75df <quoting_style_vals+0x3f>
5842:	ba 05 00 00 00       	mov    edx,0x5
5847:	31 ff                	xor    edi,edi
5849:	e8 52 bd ff ff       	call   15a0 <dcgettext@plt>
584e:	48 83 c4 28          	add    rsp,0x28
5852:	48 89 d9             	mov    rcx,rbx
5855:	48 89 ef             	mov    rdi,rbp
5858:	5b                   	pop    rbx
5859:	5d                   	pop    rbp
585a:	41 5c                	pop    r12
585c:	41 5d                	pop    r13
585e:	41 5e                	pop    r14
5860:	41 5f                	pop    r15
5862:	48 89 c2             	mov    rdx,rax
5865:	be 01 00 00 00       	mov    esi,0x1
586a:	31 c0                	xor    eax,eax
586c:	e9 6f bf ff ff       	jmp    17e0 <__fprintf_chk@plt>
5871:	0f 1f 80 00 00 00 00 	nop    DWORD PTR [rax+0x0]
5878:	4c 8b 63 08          	mov    r12,QWORD PTR [rbx+0x8]
587c:	48 8d 35 6c 1d 00 00 	lea    rsi,[rip+0x1d6c]        # 75ef <quoting_style_vals+0x4f>
5883:	48 8b 1b             	mov    rbx,QWORD PTR [rbx]
5886:	ba 05 00 00 00       	mov    edx,0x5
588b:	31 ff                	xor    edi,edi
588d:	e8 0e bd ff ff       	call   15a0 <dcgettext@plt>
5892:	48 83 c4 28          	add    rsp,0x28
5896:	4d 89 e0             	mov    r8,r12
5899:	48 89 d9             	mov    rcx,rbx
589c:	48 89 ef             	mov    rdi,rbp
589f:	48 89 c2             	mov    rdx,rax
58a2:	be 01 00 00 00       	mov    esi,0x1
58a7:	5b                   	pop    rbx
58a8:	5d                   	pop    rbp
58a9:	41 5c                	pop    r12
58ab:	41 5d                	pop    r13
58ad:	41 5e                	pop    r14
58af:	41 5f                	pop    r15
58b1:	31 c0                	xor    eax,eax
58b3:	e9 28 bf ff ff       	jmp    17e0 <__fprintf_chk@plt>
58b8:	0f 1f 84 00 00 00 00 	nop    DWORD PTR [rax+rax*1+0x0]
58bf:	00
58c0:	4c 8b 6b 10          	mov    r13,QWORD PTR [rbx+0x10]
58c4:	4c 8b 63 08          	mov    r12,QWORD PTR [rbx+0x8]
58c8:	48 8d 35 37 1d 00 00 	lea    rsi,[rip+0x1d37]        # 7606 <quoting_style_vals+0x66>
58cf:	48 8b 1b             	mov    rbx,QWORD PTR [rbx]
58d2:	ba 05 00 00 00       	mov    edx,0x5
58d7:	31 ff                	xor    edi,edi
58d9:	e8 c2 bc ff ff       	call   15a0 <dcgettext@plt>
58de:	48 83 c4 28          	add    rsp,0x28
58e2:	4d 89 e9             	mov    r9,r13
58e5:	4d 89 e0             	mov    r8,r12
58e8:	48 89 d9             	mov    rcx,rbx
58eb:	48 89 ef             	mov    rdi,rbp
58ee:	48 89 c2             	mov    rdx,rax
58f1:	5b                   	pop    rbx
58f2:	5d                   	pop    rbp
58f3:	41 5c                	pop    r12
58f5:	41 5d                	pop    r13
58f7:	41 5e                	pop    r14
58f9:	41 5f                	pop    r15
58fb:	be 01 00 00 00       	mov    esi,0x1
5900:	31 c0                	xor    eax,eax
5902:	e9 d9 be ff ff       	jmp    17e0 <__fprintf_chk@plt>
5907:	66 0f 1f 84 00 00 00 	nop    WORD PTR [rax+rax*1+0x0]
590e:	00 00
5910:	48 8d 35 21 1e 00 00 	lea    rsi,[rip+0x1e21]        # 7738 <quoting_style_vals+0x198>
5917:	ba 05 00 00 00       	mov    edx,0x5
591c:	31 ff                	xor    edi,edi
591e:	4c 8b 73 18          	mov    r14,QWORD PTR [rbx+0x18]
5922:	4c 8b 6b 10          	mov    r13,QWORD PTR [rbx+0x10]
5926:	4c 8b 63 08          	mov    r12,QWORD PTR [rbx+0x8]
592a:	48 8b 1b             	mov    rbx,QWORD PTR [rbx]
592d:	e8 6e bc ff ff       	call   15a0 <dcgettext@plt>
5932:	48 83 ec 08          	sub    rsp,0x8
5936:	41 56                	push   r14
5938:	48 89 c2             	mov    rdx,rax
593b:	4d 89 e9             	mov    r9,r13
593e:	4d 89 e0             	mov    r8,r12
5941:	48 89 d9             	mov    rcx,rbx
5944:	48 89 ef             	mov    rdi,rbp
5947:	be 01 00 00 00       	mov    esi,0x1
594c:	31 c0                	xor    eax,eax
594e:	e8 8d be ff ff       	call   17e0 <__fprintf_chk@plt>
5953:	58                   	pop    rax
5954:	5a                   	pop    rdx
5955:	48 83 c4 28          	add    rsp,0x28
5959:	5b                   	pop    rbx
595a:	5d                   	pop    rbp
595b:	41 5c                	pop    r12
595d:	41 5d                	pop    r13
595f:	41 5e                	pop    r14
5961:	41 5f                	pop    r15
5963:	c3                   	ret
5964:	0f 1f 40 00          	nop    DWORD PTR [rax+0x0]
5968:	4c 8b 7b 20          	mov    r15,QWORD PTR [rbx+0x20]
596c:	48 8d 35 e5 1d 00 00 	lea    rsi,[rip+0x1de5]        # 7758 <quoting_style_vals+0x1b8>
5973:	ba 05 00 00 00       	mov    edx,0x5
5978:	31 ff                	xor    edi,edi
597a:	4c 8b 73 18          	mov    r14,QWORD PTR [rbx+0x18]
597e:	4c 8b 6b 10          	mov    r13,QWORD PTR [rbx+0x10]
5982:	4c 8b 63 08          	mov    r12,QWORD PTR [rbx+0x8]
5986:	48 8b 1b             	mov    rbx,QWORD PTR [rbx]
5989:	e8 12 bc ff ff       	call   15a0 <dcgettext@plt>
598e:	41 57                	push   r15
5990:	eb a4                	jmp    5936 <version_etc_arn+0x2b6>
5992:	66 0f 1f 44 00 00    	nop    WORD PTR [rax+rax*1+0x0]
5998:	4c 8b 43 08          	mov    r8,QWORD PTR [rbx+0x8]
599c:	4c 8b 63 28          	mov    r12,QWORD PTR [rbx+0x28]
59a0:	48 8d 35 d9 1d 00 00 	lea    rsi,[rip+0x1dd9]        # 7780 <quoting_style_vals+0x1e0>
59a7:	4c 8b 7b 20          	mov    r15,QWORD PTR [rbx+0x20]
59ab:	4c 8b 73 18          	mov    r14,QWORD PTR [rbx+0x18]
59af:	ba 05 00 00 00       	mov    edx,0x5
59b4:	4c 8b 6b 10          	mov    r13,QWORD PTR [rbx+0x10]
59b8:	31 ff                	xor    edi,edi
59ba:	48 8b 1b             	mov    rbx,QWORD PTR [rbx]
59bd:	4c 89 04 24          	mov    QWORD PTR [rsp],r8
59c1:	e8 da bb ff ff       	call   15a0 <dcgettext@plt>
59c6:	48 83 ec 08          	sub    rsp,0x8
59ca:	4d 89 e9             	mov    r9,r13
59cd:	41 54                	push   r12
59cf:	41 57                	push   r15
59d1:	41 56                	push   r14
59d3:	4c 8b 44 24 20       	mov    r8,QWORD PTR [rsp+0x20]
59d8:	48 89 d9             	mov    rcx,rbx
59db:	48 89 c2             	mov    rdx,rax
59de:	48 89 ef             	mov    rdi,rbp
59e1:	be 01 00 00 00       	mov    esi,0x1
59e6:	31 c0                	xor    eax,eax
59e8:	e8 f3 bd ff ff       	call   17e0 <__fprintf_chk@plt>
59ed:	48 83 c4 20          	add    rsp,0x20
59f1:	48 83 c4 28          	add    rsp,0x28
59f5:	5b                   	pop    rbx
59f6:	5d                   	pop    rbp
59f7:	41 5c                	pop    r12
59f9:	41 5d                	pop    r13
59fb:	41 5e                	pop    r14
59fd:	41 5f                	pop    r15
59ff:	c3                   	ret
5a00:	4c 8b 4b 10          	mov    r9,QWORD PTR [rbx+0x10]
5a04:	4c 8b 6b 30          	mov    r13,QWORD PTR [rbx+0x30]
5a08:	48 8d 35 99 1d 00 00 	lea    rsi,[rip+0x1d99]        # 77a8 <quoting_style_vals+0x208>
5a0f:	4c 8b 63 28          	mov    r12,QWORD PTR [rbx+0x28]
5a13:	4c 8b 7b 20          	mov    r15,QWORD PTR [rbx+0x20]
5a17:	ba 05 00 00 00       	mov    edx,0x5
5a1c:	4c 8b 73 18          	mov    r14,QWORD PTR [rbx+0x18]
5a20:	4c 8b 43 08          	mov    r8,QWORD PTR [rbx+0x8]
5a24:	31 ff                	xor    edi,edi
5a26:	4c 89 4c 24 08       	mov    QWORD PTR [rsp+0x8],r9
5a2b:	48 8b 1b             	mov    rbx,QWORD PTR [rbx]
5a2e:	4c 89 04 24          	mov    QWORD PTR [rsp],r8
5a32:	e8 69 bb ff ff       	call   15a0 <dcgettext@plt>
5a37:	41 55                	push   r13
5a39:	41 54                	push   r12
5a3b:	41 57                	push   r15
5a3d:	41 56                	push   r14
5a3f:	4c 8b 4c 24 28       	mov    r9,QWORD PTR [rsp+0x28]
5a44:	eb 8d                	jmp    59d3 <version_etc_arn+0x353>
5a46:	66 2e 0f 1f 84 00 00 	nop    WORD PTR cs:[rax+rax*1+0x0]
5a4d:	00 00 00
5a50:	4c 8b 53 40          	mov    r10,QWORD PTR [rbx+0x40]
5a54:	4c 8b 4b 38          	mov    r9,QWORD PTR [rbx+0x38]
5a58:	ba 05 00 00 00       	mov    edx,0x5
5a5d:	48 8b 43 10          	mov    rax,QWORD PTR [rbx+0x10]
5a61:	4c 8b 43 08          	mov    r8,QWORD PTR [rbx+0x8]
5a65:	48 8d 35 d4 1d 00 00 	lea    rsi,[rip+0x1dd4]        # 7840 <quoting_style_vals+0x2a0>
5a6c:	4c 8b 6b 30          	mov    r13,QWORD PTR [rbx+0x30]
5a70:	4c 8b 63 28          	mov    r12,QWORD PTR [rbx+0x28]
5a74:	4c 8b 7b 20          	mov    r15,QWORD PTR [rbx+0x20]
5a78:	4c 8b 73 18          	mov    r14,QWORD PTR [rbx+0x18]
5a7c:	4c 89 54 24 18       	mov    QWORD PTR [rsp+0x18],r10
5a81:	4c 89 4c 24 10       	mov    QWORD PTR [rsp+0x10],r9
5a86:	48 89 04 24          	mov    QWORD PTR [rsp],rax
5a8a:	4c 89 44 24 08       	mov    QWORD PTR [rsp+0x8],r8
5a8f:	48 8b 1b             	mov    rbx,QWORD PTR [rbx]
5a92:	e9 8b fd ff ff       	jmp    5822 <version_etc_arn+0x1a2>
5a97:	66 0f 1f 84 00 00 00 	nop    WORD PTR [rax+rax*1+0x0]
5a9e:	00 00

0000000000005aa0 <version_etc_ar>:
5aa0:	45 31 c9             	xor    r9d,r9d
5aa3:	49 83 38 00          	cmp    QWORD PTR [r8],0x0
5aa7:	74 12                	je     5abb <version_etc_ar+0x1b>
5aa9:	0f 1f 80 00 00 00 00 	nop    DWORD PTR [rax+0x0]
5ab0:	49 83 c1 01          	add    r9,0x1
5ab4:	4b 83 3c c8 00       	cmp    QWORD PTR [r8+r9*8],0x0
5ab9:	75 f5                	jne    5ab0 <version_etc_ar+0x10>
5abb:	e9 c0 fb ff ff       	jmp    5680 <version_etc_arn>

0000000000005ac0 <version_etc_va>:
5ac0:	48 83 ec 68          	sub    rsp,0x68
5ac4:	4d 89 c2             	mov    r10,r8
5ac7:	45 31 c9             	xor    r9d,r9d
5aca:	64 48 8b 04 25 28 00 	mov    rax,QWORD PTR fs:0x28
5ad1:	00 00
5ad3:	48 89 44 24 58       	mov    QWORD PTR [rsp+0x58],rax
5ad8:	31 c0                	xor    eax,eax
5ada:	49 89 e0             	mov    r8,rsp
5add:	0f 1f 00             	nop    DWORD PTR [rax]
5ae0:	41 8b 02             	mov    eax,DWORD PTR [r10]
5ae3:	83 f8 2f             	cmp    eax,0x2f
5ae6:	77 42                	ja     5b2a <version_etc_va+0x6a>
5ae8:	41 89 c3             	mov    r11d,eax
5aeb:	4d 03 5a 10          	add    r11,QWORD PTR [r10+0x10]
5aef:	83 c0 08             	add    eax,0x8
5af2:	41 89 02             	mov    DWORD PTR [r10],eax
5af5:	49 8b 03             	mov    rax,QWORD PTR [r11]
5af8:	48 85 c0             	test   rax,rax
5afb:	4b 89 04 c8          	mov    QWORD PTR [r8+r9*8],rax
5aff:	74 0a                	je     5b0b <version_etc_va+0x4b>
5b01:	49 83 c1 01          	add    r9,0x1
5b05:	49 83 f9 0a          	cmp    r9,0xa
5b09:	75 d5                	jne    5ae0 <version_etc_va+0x20>
5b0b:	e8 70 fb ff ff       	call   5680 <version_etc_arn>
5b10:	48 8b 44 24 58       	mov    rax,QWORD PTR [rsp+0x58]
5b15:	64 48 33 04 25 28 00 	xor    rax,QWORD PTR fs:0x28
5b1c:	00 00
5b1e:	75 05                	jne    5b25 <version_etc_va+0x65>
5b20:	48 83 c4 68          	add    rsp,0x68
5b24:	c3                   	ret
5b25:	e8 a6 ba ff ff       	call   15d0 <__stack_chk_fail@plt>
5b2a:	4d 8b 5a 08          	mov    r11,QWORD PTR [r10+0x8]
5b2e:	49 8d 43 08          	lea    rax,[r11+0x8]
5b32:	49 89 42 08          	mov    QWORD PTR [r10+0x8],rax
5b36:	eb bd                	jmp    5af5 <version_etc_va+0x35>
5b38:	0f 1f 84 00 00 00 00 	nop    DWORD PTR [rax+rax*1+0x0]
5b3f:	00

0000000000005b40 <version_etc>:
5b40:	55                   	push   rbp
5b41:	53                   	push   rbx
5b42:	41 ba 20 00 00 00    	mov    r10d,0x20
5b48:	45 31 db             	xor    r11d,r11d
5b4b:	48 81 ec b8 00 00 00 	sub    rsp,0xb8
5b52:	64 48 8b 04 25 28 00 	mov    rax,QWORD PTR fs:0x28
5b59:	00 00
5b5b:	48 89 44 24 78       	mov    QWORD PTR [rsp+0x78],rax
5b60:	31 c0                	xor    eax,eax
5b62:	48 8d 84 24 d0 00 00 	lea    rax,[rsp+0xd0]
5b69:	00
5b6a:	4c 89 84 24 a0 00 00 	mov    QWORD PTR [rsp+0xa0],r8
5b71:	00
5b72:	48 8d 9c 24 d0 00 00 	lea    rbx,[rsp+0xd0]
5b79:	00
5b7a:	4c 8d 44 24 20       	lea    r8,[rsp+0x20]
5b7f:	4c 89 8c 24 a8 00 00 	mov    QWORD PTR [rsp+0xa8],r9
5b86:	00
5b87:	c7 44 24 08 20 00 00 	mov    DWORD PTR [rsp+0x8],0x20
5b8e:	00
5b8f:	48 89 44 24 10       	mov    QWORD PTR [rsp+0x10],rax
5b94:	48 8d 84 24 80 00 00 	lea    rax,[rsp+0x80]
5b9b:	00
5b9c:	45 31 c9             	xor    r9d,r9d
5b9f:	48 89 44 24 18       	mov    QWORD PTR [rsp+0x18],rax
5ba4:	48 89 c5             	mov    rbp,rax
5ba7:	66 0f 1f 84 00 00 00 	nop    WORD PTR [rax+rax*1+0x0]
5bae:	00 00
5bb0:	41 83 fa 2f          	cmp    r10d,0x2f
5bb4:	77 56                	ja     5c0c <version_etc+0xcc>
5bb6:	44 89 d0             	mov    eax,r10d
5bb9:	41 bb 01 00 00 00    	mov    r11d,0x1
5bbf:	41 83 c2 08          	add    r10d,0x8
5bc3:	48 01 e8             	add    rax,rbp
5bc6:	48 8b 00             	mov    rax,QWORD PTR [rax]
5bc9:	48 85 c0             	test   rax,rax
5bcc:	4b 89 04 c8          	mov    QWORD PTR [r8+r9*8],rax
5bd0:	74 0a                	je     5bdc <version_etc+0x9c>
5bd2:	49 83 c1 01          	add    r9,0x1
5bd6:	49 83 f9 0a          	cmp    r9,0xa
5bda:	75 d4                	jne    5bb0 <version_etc+0x70>
5bdc:	45 84 db             	test   r11b,r11b
5bdf:	75 24                	jne    5c05 <version_etc+0xc5>
5be1:	e8 9a fa ff ff       	call   5680 <version_etc_arn>
5be6:	48 8b 44 24 78       	mov    rax,QWORD PTR [rsp+0x78]
5beb:	64 48 33 04 25 28 00 	xor    rax,QWORD PTR fs:0x28
5bf2:	00 00
5bf4:	75 0a                	jne    5c00 <version_etc+0xc0>
5bf6:	48 81 c4 b8 00 00 00 	add    rsp,0xb8
5bfd:	5b                   	pop    rbx
5bfe:	5d                   	pop    rbp
5bff:	c3                   	ret
5c00:	e8 cb b9 ff ff       	call   15d0 <__stack_chk_fail@plt>
5c05:	44 89 54 24 08       	mov    DWORD PTR [rsp+0x8],r10d
5c0a:	eb d5                	jmp    5be1 <version_etc+0xa1>
5c0c:	48 89 d8             	mov    rax,rbx
5c0f:	48 83 c3 08          	add    rbx,0x8
5c13:	eb b1                	jmp    5bc6 <version_etc+0x86>
5c15:	90                   	nop
5c16:	66 2e 0f 1f 84 00 00 	nop    WORD PTR cs:[rax+rax*1+0x0]
5c1d:	00 00 00

0000000000005c20 <emit_bug_reporting_address>:
5c20:	53                   	push   rbx
5c21:	48 8d 35 fa 19 00 00 	lea    rsi,[rip+0x19fa]        # 7622 <quoting_style_vals+0x82>
5c28:	ba 05 00 00 00       	mov    edx,0x5
5c2d:	31 ff                	xor    edi,edi
5c2f:	e8 6c b9 ff ff       	call   15a0 <dcgettext@plt>
5c34:	48 8d 15 fc 19 00 00 	lea    rdx,[rip+0x19fc]        # 7637 <quoting_style_vals+0x97>
5c3b:	48 89 c6             	mov    rsi,rax
5c3e:	bf 01 00 00 00       	mov    edi,0x1
5c43:	31 c0                	xor    eax,eax
5c45:	e8 16 bb ff ff       	call   1760 <__printf_chk@plt>
5c4a:	48 8d 35 fc 19 00 00 	lea    rsi,[rip+0x19fc]        # 764d <quoting_style_vals+0xad>
5c51:	ba 05 00 00 00       	mov    edx,0x5
5c56:	31 ff                	xor    edi,edi
5c58:	e8 43 b9 ff ff       	call   15a0 <dcgettext@plt>
5c5d:	48 8d 0d 24 13 00 00 	lea    rcx,[rip+0x1324]        # 6f88 <_IO_stdin_used+0x788>
5c64:	48 8d 15 bd 0c 00 00 	lea    rdx,[rip+0xcbd]        # 6928 <_IO_stdin_used+0x128>
5c6b:	48 89 c6             	mov    rsi,rax
5c6e:	bf 01 00 00 00       	mov    edi,0x1
5c73:	31 c0                	xor    eax,eax
5c75:	e8 e6 ba ff ff       	call   1760 <__printf_chk@plt>
5c7a:	48 8b 1d 27 44 20 00 	mov    rbx,QWORD PTR [rip+0x204427]        # 20a0a8 <stdout@@GLIBC_2.2.5>
5c81:	48 8d 35 f8 1b 00 00 	lea    rsi,[rip+0x1bf8]        # 7880 <quoting_style_vals+0x2e0>
5c88:	31 ff                	xor    edi,edi
5c8a:	ba 05 00 00 00       	mov    edx,0x5
5c8f:	e8 0c b9 ff ff       	call   15a0 <dcgettext@plt>
5c94:	48 89 de             	mov    rsi,rbx
5c97:	48 89 c7             	mov    rdi,rax
5c9a:	5b                   	pop    rbx
5c9b:	e9 00 ba ff ff       	jmp    16a0 <fputs_unlocked@plt>

0000000000005ca0 <xmalloc>:
5ca0:	53                   	push   rbx
5ca1:	48 89 fb             	mov    rbx,rdi
5ca4:	e8 37 ba ff ff       	call   16e0 <malloc@plt>
5ca9:	48 85 c0             	test   rax,rax
5cac:	75 05                	jne    5cb3 <xmalloc+0x13>
5cae:	48 85 db             	test   rbx,rbx
5cb1:	75 02                	jne    5cb5 <xmalloc+0x15>
5cb3:	5b                   	pop    rbx
5cb4:	c3                   	ret
5cb5:	e8 36 02 00 00       	call   5ef0 <xalloc_die>
5cba:	66 0f 1f 44 00 00    	nop    WORD PTR [rax+rax*1+0x0]

0000000000005cc0 <xnmalloc>:
5cc0:	48 89 f8             	mov    rax,rdi
5cc3:	48 f7 e6             	mul    rsi
5cc6:	48 89 c7             	mov    rdi,rax
5cc9:	0f 90 c0             	seto   al
5ccc:	48 85 ff             	test   rdi,rdi
5ccf:	78 0a                	js     5cdb <xnmalloc+0x1b>
5cd1:	0f b6 c0             	movzx  eax,al
5cd4:	48 85 c0             	test   rax,rax
5cd7:	75 02                	jne    5cdb <xnmalloc+0x1b>
5cd9:	eb c5                	jmp    5ca0 <xmalloc>
5cdb:	48 83 ec 08          	sub    rsp,0x8
5cdf:	e8 0c 02 00 00       	call   5ef0 <xalloc_die>
5ce4:	66 90                	xchg   ax,ax
5ce6:	66 2e 0f 1f 84 00 00 	nop    WORD PTR cs:[rax+rax*1+0x0]
5ced:	00 00 00

0000000000005cf0 <xcharalloc>:
5cf0:	eb ae                	jmp    5ca0 <xmalloc>
5cf2:	0f 1f 40 00          	nop    DWORD PTR [rax+0x0]
5cf6:	66 2e 0f 1f 84 00 00 	nop    WORD PTR cs:[rax+rax*1+0x0]
5cfd:	00 00 00

0000000000005d00 <xrealloc>:
5d00:	48 85 f6             	test   rsi,rsi
5d03:	53                   	push   rbx
5d04:	48 89 f3             	mov    rbx,rsi
5d07:	75 05                	jne    5d0e <xrealloc+0xe>
5d09:	48 85 ff             	test   rdi,rdi
5d0c:	75 1a                	jne    5d28 <xrealloc+0x28>
5d0e:	48 89 de             	mov    rsi,rbx
5d11:	e8 2a ba ff ff       	call   1740 <realloc@plt>
5d16:	48 85 c0             	test   rax,rax
5d19:	75 05                	jne    5d20 <xrealloc+0x20>
5d1b:	48 85 db             	test   rbx,rbx
5d1e:	75 11                	jne    5d31 <xrealloc+0x31>
5d20:	5b                   	pop    rbx
5d21:	c3                   	ret
5d22:	66 0f 1f 44 00 00    	nop    WORD PTR [rax+rax*1+0x0]
5d28:	e8 d3 b7 ff ff       	call   1500 <free@plt>
5d2d:	31 c0                	xor    eax,eax
5d2f:	5b                   	pop    rbx
5d30:	c3                   	ret
5d31:	e8 ba 01 00 00       	call   5ef0 <xalloc_die>
5d36:	66 2e 0f 1f 84 00 00 	nop    WORD PTR cs:[rax+rax*1+0x0]
5d3d:	00 00 00

0000000000005d40 <xnrealloc>:
5d40:	48 89 f0             	mov    rax,rsi
5d43:	48 f7 e2             	mul    rdx
5d46:	48 89 c6             	mov    rsi,rax
5d49:	0f 90 c0             	seto   al
5d4c:	48 85 f6             	test   rsi,rsi
5d4f:	78 0a                	js     5d5b <xnrealloc+0x1b>
5d51:	0f b6 c0             	movzx  eax,al
5d54:	48 85 c0             	test   rax,rax
5d57:	75 02                	jne    5d5b <xnrealloc+0x1b>
5d59:	eb a5                	jmp    5d00 <xrealloc>
5d5b:	48 83 ec 08          	sub    rsp,0x8
5d5f:	e8 8c 01 00 00       	call   5ef0 <xalloc_die>
5d64:	66 90                	xchg   ax,ax
5d66:	66 2e 0f 1f 84 00 00 	nop    WORD PTR cs:[rax+rax*1+0x0]
5d6d:	00 00 00

0000000000005d70 <x2nrealloc>:
5d70:	48 85 ff             	test   rdi,rdi
5d73:	49 89 d1             	mov    r9,rdx
5d76:	48 8b 0e             	mov    rcx,QWORD PTR [rsi]
5d79:	74 35                	je     5db0 <x2nrealloc+0x40>
5d7b:	31 d2                	xor    edx,edx
5d7d:	48 b8 54 55 55 55 55 	movabs rax,0x5555555555555554
5d84:	55 55 55
5d87:	49 f7 f1             	div    r9
5d8a:	48 39 c8             	cmp    rax,rcx
5d8d:	76 3c                	jbe    5dcb <x2nrealloc+0x5b>
5d8f:	48 89 c8             	mov    rax,rcx
5d92:	48 d1 e8             	shr    rax,1
5d95:	48 8d 4c 08 01       	lea    rcx,[rax+rcx*1+0x1]
5d9a:	48 89 0e             	mov    QWORD PTR [rsi],rcx
5d9d:	49 0f af c9          	imul   rcx,r9
5da1:	48 89 ce             	mov    rsi,rcx
5da4:	e9 57 ff ff ff       	jmp    5d00 <xrealloc>
5da9:	0f 1f 80 00 00 00 00 	nop    DWORD PTR [rax+0x0]
5db0:	48 85 c9             	test   rcx,rcx
5db3:	74 23                	je     5dd8 <x2nrealloc+0x68>
5db5:	48 89 c8             	mov    rax,rcx
5db8:	49 f7 e1             	mul    r9
5dbb:	0f 90 c2             	seto   dl
5dbe:	48 85 c0             	test   rax,rax
5dc1:	0f b6 d2             	movzx  edx,dl
5dc4:	78 05                	js     5dcb <x2nrealloc+0x5b>
5dc6:	48 85 d2             	test   rdx,rdx
5dc9:	74 cf                	je     5d9a <x2nrealloc+0x2a>
5dcb:	48 83 ec 08          	sub    rsp,0x8
5dcf:	e8 1c 01 00 00       	call   5ef0 <xalloc_die>
5dd4:	0f 1f 40 00          	nop    DWORD PTR [rax+0x0]
5dd8:	31 d2                	xor    edx,edx
5dda:	b8 80 00 00 00       	mov    eax,0x80
5ddf:	45 31 c0             	xor    r8d,r8d
5de2:	49 f7 f1             	div    r9
5de5:	48 85 c0             	test   rax,rax
5de8:	41 0f 94 c0          	sete   r8b
5dec:	49 8d 0c 00          	lea    rcx,[r8+rax*1]
5df0:	eb c3                	jmp    5db5 <x2nrealloc+0x45>
5df2:	0f 1f 40 00          	nop    DWORD PTR [rax+0x0]
5df6:	66 2e 0f 1f 84 00 00 	nop    WORD PTR cs:[rax+rax*1+0x0]
5dfd:	00 00 00

0000000000005e00 <x2realloc>:
5e00:	48 85 ff             	test   rdi,rdi
5e03:	48 8b 06             	mov    rax,QWORD PTR [rsi]
5e06:	74 28                	je     5e30 <x2realloc+0x30>
5e08:	48 ba 53 55 55 55 55 	movabs rdx,0x5555555555555553
5e0f:	55 55 55
5e12:	48 39 d0             	cmp    rax,rdx
5e15:	77 2a                	ja     5e41 <x2realloc+0x41>
5e17:	48 89 c2             	mov    rdx,rax
5e1a:	48 d1 ea             	shr    rdx,1
5e1d:	48 8d 44 02 01       	lea    rax,[rdx+rax*1+0x1]
5e22:	48 89 06             	mov    QWORD PTR [rsi],rax
5e25:	48 89 c6             	mov    rsi,rax
5e28:	e9 d3 fe ff ff       	jmp    5d00 <xrealloc>
5e2d:	0f 1f 00             	nop    DWORD PTR [rax]
5e30:	48 85 c0             	test   rax,rax
5e33:	ba 80 00 00 00       	mov    edx,0x80
5e38:	48 0f 44 c2          	cmove  rax,rdx
5e3c:	48 85 c0             	test   rax,rax
5e3f:	79 e1                	jns    5e22 <x2realloc+0x22>
5e41:	48 83 ec 08          	sub    rsp,0x8
5e45:	e8 a6 00 00 00       	call   5ef0 <xalloc_die>
5e4a:	66 0f 1f 44 00 00    	nop    WORD PTR [rax+rax*1+0x0]

0000000000005e50 <xzalloc>:
5e50:	53                   	push   rbx
5e51:	48 89 fb             	mov    rbx,rdi
5e54:	e8 47 fe ff ff       	call   5ca0 <xmalloc>
5e59:	48 89 da             	mov    rdx,rbx
5e5c:	31 f6                	xor    esi,esi
5e5e:	48 89 c7             	mov    rdi,rax
5e61:	5b                   	pop    rbx
5e62:	e9 e9 b7 ff ff       	jmp    1650 <memset@plt>
5e67:	66 0f 1f 84 00 00 00 	nop    WORD PTR [rax+rax*1+0x0]
5e6e:	00 00

0000000000005e70 <xcalloc>:
5e70:	48 89 f8             	mov    rax,rdi
5e73:	48 83 ec 08          	sub    rsp,0x8
5e77:	48 f7 e6             	mul    rsi
5e7a:	0f 90 c2             	seto   dl
5e7d:	48 85 c0             	test   rax,rax
5e80:	78 17                	js     5e99 <xcalloc+0x29>
5e82:	0f b6 d2             	movzx  edx,dl
5e85:	48 85 d2             	test   rdx,rdx
5e88:	75 0f                	jne    5e99 <xcalloc+0x29>
5e8a:	e8 21 b8 ff ff       	call   16b0 <calloc@plt>
5e8f:	48 85 c0             	test   rax,rax
5e92:	74 05                	je     5e99 <xcalloc+0x29>
5e94:	48 83 c4 08          	add    rsp,0x8
5e98:	c3                   	ret
5e99:	e8 52 00 00 00       	call   5ef0 <xalloc_die>
5e9e:	66 90                	xchg   ax,ax

0000000000005ea0 <xmemdup>:
5ea0:	55                   	push   rbp
5ea1:	53                   	push   rbx
5ea2:	48 89 fd             	mov    rbp,rdi
5ea5:	48 89 f7             	mov    rdi,rsi
5ea8:	48 89 f3             	mov    rbx,rsi
5eab:	48 83 ec 08          	sub    rsp,0x8
5eaf:	e8 ec fd ff ff       	call   5ca0 <xmalloc>
5eb4:	48 83 c4 08          	add    rsp,0x8
5eb8:	48 89 da             	mov    rdx,rbx
5ebb:	48 89 ee             	mov    rsi,rbp
5ebe:	5b                   	pop    rbx
5ebf:	5d                   	pop    rbp
5ec0:	48 89 c7             	mov    rdi,rax
5ec3:	e9 f8 b7 ff ff       	jmp    16c0 <memcpy@plt>
5ec8:	0f 1f 84 00 00 00 00 	nop    DWORD PTR [rax+rax*1+0x0]
5ecf:	00

0000000000005ed0 <xstrdup>:
5ed0:	53                   	push   rbx
5ed1:	48 89 fb             	mov    rbx,rdi
5ed4:	e8 e7 b6 ff ff       	call   15c0 <strlen@plt>
5ed9:	48 89 df             	mov    rdi,rbx
5edc:	48 8d 70 01          	lea    rsi,[rax+0x1]
5ee0:	5b                   	pop    rbx
5ee1:	eb bd                	jmp    5ea0 <xmemdup>
5ee3:	66 2e 0f 1f 84 00 00 	nop    WORD PTR cs:[rax+rax*1+0x0]
5eea:	00 00 00
5eed:	0f 1f 00             	nop    DWORD PTR [rax]

0000000000005ef0 <xalloc_die>:
5ef0:	48 8d 35 38 1a 00 00 	lea    rsi,[rip+0x1a38]        # 792f <version_etc_copyright+0x2f>
5ef7:	48 83 ec 08          	sub    rsp,0x8
5efb:	ba 05 00 00 00       	mov    edx,0x5
5f00:	31 ff                	xor    edi,edi
5f02:	e8 99 b6 ff ff       	call   15a0 <dcgettext@plt>
5f07:	8b 3d 13 41 20 00    	mov    edi,DWORD PTR [rip+0x204113]        # 20a020 <exit_failure>
5f0d:	48 8d 15 aa 0a 00 00 	lea    rdx,[rip+0xaaa]        # 69be <_IO_stdin_used+0x1be>
5f14:	48 89 c1             	mov    rcx,rax
5f17:	31 f6                	xor    esi,esi
5f19:	31 c0                	xor    eax,eax
5f1b:	e8 50 b8 ff ff       	call   1770 <error@plt>
5f20:	e8 eb b5 ff ff       	call   1510 <abort@plt>
5f25:	66 2e 0f 1f 84 00 00 	nop    WORD PTR cs:[rax+rax*1+0x0]
5f2c:	00 00 00
5f2f:	90                   	nop

0000000000005f30 <xnumtoumax>:
5f30:	41 57                	push   r15
5f32:	41 56                	push   r14
5f34:	49 89 cf             	mov    r15,rcx
5f37:	41 55                	push   r13
5f39:	41 54                	push   r12
5f3b:	49 89 d6             	mov    r14,rdx
5f3e:	55                   	push   rbp
5f3f:	53                   	push   rbx
5f40:	89 f2                	mov    edx,esi
5f42:	31 f6                	xor    esi,esi
5f44:	49 89 fc             	mov    r12,rdi
5f47:	4d 89 cd             	mov    r13,r9
5f4a:	48 83 ec 18          	sub    rsp,0x18
5f4e:	48 89 e1             	mov    rcx,rsp
5f51:	8b 5c 24 50          	mov    ebx,DWORD PTR [rsp+0x50]
5f55:	64 48 8b 04 25 28 00 	mov    rax,QWORD PTR fs:0x28
5f5c:	00 00
5f5e:	48 89 44 24 08       	mov    QWORD PTR [rsp+0x8],rax
5f63:	31 c0                	xor    eax,eax
5f65:	e8 f6 00 00 00       	call   6060 <xstrtoumax>
5f6a:	85 c0                	test   eax,eax
5f6c:	0f 85 8e 00 00 00    	jne    6000 <xnumtoumax+0xd0>
5f72:	48 8b 2c 24          	mov    rbp,QWORD PTR [rsp]
5f76:	4c 39 f5             	cmp    rbp,r14
5f79:	72 05                	jb     5f80 <xnumtoumax+0x50>
5f7b:	4c 39 fd             	cmp    rbp,r15
5f7e:	76 54                	jbe    5fd4 <xnumtoumax+0xa4>
5f80:	e8 9b b5 ff ff       	call   1520 <__errno_location@plt>
5f85:	48 81 fd 00 00 00 40 	cmp    rbp,0x40000000
5f8c:	49 89 c6             	mov    r14,rax
5f8f:	19 c0                	sbb    eax,eax
5f91:	83 e0 d7             	and    eax,0xffffffd7
5f94:	83 c0 4b             	add    eax,0x4b
5f97:	41 89 06             	mov    DWORD PTR [r14],eax
5f9a:	4c 89 e7             	mov    rdi,r12
5f9d:	e8 5e f6 ff ff       	call   5600 <quote>
5fa2:	41 8b 36             	mov    esi,DWORD PTR [r14]
5fa5:	49 89 c0             	mov    r8,rax
5fa8:	b8 00 00 00 00       	mov    eax,0x0
5fad:	48 8d 15 06 0a 00 00 	lea    rdx,[rip+0xa06]        # 69ba <_IO_stdin_used+0x1ba>
5fb4:	4c 89 e9             	mov    rcx,r13
5fb7:	83 fe 16             	cmp    esi,0x16
5fba:	0f 44 f0             	cmove  esi,eax
5fbd:	85 db                	test   ebx,ebx
5fbf:	b8 01 00 00 00       	mov    eax,0x1
5fc4:	0f 44 d8             	cmove  ebx,eax
5fc7:	31 c0                	xor    eax,eax
5fc9:	89 df                	mov    edi,ebx
5fcb:	e8 a0 b7 ff ff       	call   1770 <error@plt>
5fd0:	48 8b 2c 24          	mov    rbp,QWORD PTR [rsp]
5fd4:	48 8b 54 24 08       	mov    rdx,QWORD PTR [rsp+0x8]
5fd9:	64 48 33 14 25 28 00 	xor    rdx,QWORD PTR fs:0x28
5fe0:	00 00
5fe2:	48 89 e8             	mov    rax,rbp
5fe5:	75 44                	jne    602b <xnumtoumax+0xfb>
5fe7:	48 83 c4 18          	add    rsp,0x18
5feb:	5b                   	pop    rbx
5fec:	5d                   	pop    rbp
5fed:	41 5c                	pop    r12
5fef:	41 5d                	pop    r13
5ff1:	41 5e                	pop    r14
5ff3:	41 5f                	pop    r15
5ff5:	c3                   	ret
5ff6:	66 2e 0f 1f 84 00 00 	nop    WORD PTR cs:[rax+rax*1+0x0]
5ffd:	00 00 00
6000:	89 c5                	mov    ebp,eax
6002:	e8 19 b5 ff ff       	call   1520 <__errno_location@plt>
6007:	83 fd 01             	cmp    ebp,0x1
600a:	49 89 c6             	mov    r14,rax
600d:	74 11                	je     6020 <xnumtoumax+0xf0>
600f:	83 fd 03             	cmp    ebp,0x3
6012:	75 86                	jne    5f9a <xnumtoumax+0x6a>
6014:	c7 00 00 00 00 00    	mov    DWORD PTR [rax],0x0
601a:	e9 7b ff ff ff       	jmp    5f9a <xnumtoumax+0x6a>
601f:	90                   	nop
6020:	c7 00 4b 00 00 00    	mov    DWORD PTR [rax],0x4b
6026:	e9 6f ff ff ff       	jmp    5f9a <xnumtoumax+0x6a>
602b:	e8 a0 b5 ff ff       	call   15d0 <__stack_chk_fail@plt>

0000000000006030 <xdectoumax>:
6030:	48 83 ec 10          	sub    rsp,0x10
6034:	41 51                	push   r9
6036:	4d 89 c1             	mov    r9,r8
6039:	49 89 c8             	mov    r8,rcx
603c:	48 89 d1             	mov    rcx,rdx
603f:	48 89 f2             	mov    rdx,rsi
6042:	be 0a 00 00 00       	mov    esi,0xa
6047:	e8 e4 fe ff ff       	call   5f30 <xnumtoumax>
604c:	48 83 c4 18          	add    rsp,0x18
6050:	c3                   	ret
6051:	66 2e 0f 1f 84 00 00 	nop    WORD PTR cs:[rax+rax*1+0x0]
6058:	00 00 00
605b:	0f 1f 44 00 00       	nop    DWORD PTR [rax+rax*1+0x0]

0000000000006060 <xstrtoumax>:
6060:	41 57                	push   r15
6062:	41 56                	push   r14
6064:	41 55                	push   r13
6066:	41 54                	push   r12
6068:	55                   	push   rbp
6069:	53                   	push   rbx
606a:	48 83 ec 28          	sub    rsp,0x28
606e:	64 48 8b 04 25 28 00 	mov    rax,QWORD PTR fs:0x28
6075:	00 00
6077:	48 89 44 24 18       	mov    QWORD PTR [rsp+0x18],rax
607c:	31 c0                	xor    eax,eax
607e:	83 fa 24             	cmp    edx,0x24
6081:	0f 87 5e 03 00 00    	ja     63e5 <xstrtoumax+0x385>
6087:	48 8d 44 24 10       	lea    rax,[rsp+0x10]
608c:	49 89 f7             	mov    r15,rsi
608f:	48 85 f6             	test   rsi,rsi
6092:	48 89 fd             	mov    rbp,rdi
6095:	89 54 24 08          	mov    DWORD PTR [rsp+0x8],edx
6099:	49 89 ce             	mov    r14,rcx
609c:	4d 89 c5             	mov    r13,r8
609f:	4c 0f 44 f8          	cmove  r15,rax
60a3:	e8 78 b4 ff ff       	call   1520 <__errno_location@plt>
60a8:	c7 00 00 00 00 00    	mov    DWORD PTR [rax],0x0
60ae:	49 89 c4             	mov    r12,rax
60b1:	0f b6 5d 00          	movzx  ebx,BYTE PTR [rbp+0x0]
60b5:	e8 56 b7 ff ff       	call   1810 <__ctype_b_loc@plt>
60ba:	8b 54 24 08          	mov    edx,DWORD PTR [rsp+0x8]
60be:	48 8b 30             	mov    rsi,QWORD PTR [rax]
60c1:	48 89 e8             	mov    rax,rbp
60c4:	eb 11                	jmp    60d7 <xstrtoumax+0x77>
60c6:	66 2e 0f 1f 84 00 00 	nop    WORD PTR cs:[rax+rax*1+0x0]
60cd:	00 00 00
60d0:	48 83 c0 01          	add    rax,0x1
60d4:	0f b6 18             	movzx  ebx,BYTE PTR [rax]
60d7:	0f b6 cb             	movzx  ecx,bl
60da:	f6 44 4e 01 20       	test   BYTE PTR [rsi+rcx*2+0x1],0x20
60df:	75 ef                	jne    60d0 <xstrtoumax+0x70>
60e1:	80 fb 2d             	cmp    bl,0x2d
60e4:	74 52                	je     6138 <xstrtoumax+0xd8>
60e6:	31 c9                	xor    ecx,ecx
60e8:	4c 89 fe             	mov    rsi,r15
60eb:	48 89 ef             	mov    rdi,rbp
60ee:	e8 4d b5 ff ff       	call   1640 <__strtoul_internal@plt>
60f3:	49 8b 0f             	mov    rcx,QWORD PTR [r15]
60f6:	48 89 c3             	mov    rbx,rax
60f9:	48 39 e9             	cmp    rcx,rbp
60fc:	74 2a                	je     6128 <xstrtoumax+0xc8>
60fe:	41 8b 04 24          	mov    eax,DWORD PTR [r12]
6102:	85 c0                	test   eax,eax
6104:	74 62                	je     6168 <xstrtoumax+0x108>
6106:	83 f8 22             	cmp    eax,0x22
6109:	bd 01 00 00 00       	mov    ebp,0x1
610e:	75 28                	jne    6138 <xstrtoumax+0xd8>
6110:	4d 85 ed             	test   r13,r13
6113:	74 09                	je     611e <xstrtoumax+0xbe>
6115:	44 0f b6 21          	movzx  r12d,BYTE PTR [rcx]
6119:	45 84 e4             	test   r12b,r12b
611c:	75 79                	jne    6197 <xstrtoumax+0x137>
611e:	49 89 1e             	mov    QWORD PTR [r14],rbx
6121:	eb 1a                	jmp    613d <xstrtoumax+0xdd>
6123:	0f 1f 44 00 00       	nop    DWORD PTR [rax+rax*1+0x0]
6128:	4d 85 ed             	test   r13,r13
612b:	48 89 4c 24 08       	mov    QWORD PTR [rsp+0x8],rcx
6130:	75 3e                	jne    6170 <xstrtoumax+0x110>
6132:	66 0f 1f 44 00 00    	nop    WORD PTR [rax+rax*1+0x0]
6138:	bd 04 00 00 00       	mov    ebp,0x4
613d:	48 8b 7c 24 18       	mov    rdi,QWORD PTR [rsp+0x18]
6142:	64 48 33 3c 25 28 00 	xor    rdi,QWORD PTR fs:0x28
6149:	00 00
614b:	89 e8                	mov    eax,ebp
614d:	0f 85 8d 02 00 00    	jne    63e0 <xstrtoumax+0x380>
6153:	48 83 c4 28          	add    rsp,0x28
6157:	5b                   	pop    rbx
6158:	5d                   	pop    rbp
6159:	41 5c                	pop    r12
615b:	41 5d                	pop    r13
615d:	41 5e                	pop    r14
615f:	41 5f                	pop    r15
6161:	c3                   	ret
6162:	66 0f 1f 44 00 00    	nop    WORD PTR [rax+rax*1+0x0]
6168:	31 ed                	xor    ebp,ebp
616a:	eb a4                	jmp    6110 <xstrtoumax+0xb0>
616c:	0f 1f 40 00          	nop    DWORD PTR [rax+0x0]
6170:	44 0f b6 65 00       	movzx  r12d,BYTE PTR [rbp+0x0]
6175:	45 84 e4             	test   r12b,r12b
6178:	74 be                	je     6138 <xstrtoumax+0xd8>
617a:	41 0f be f4          	movsx  esi,r12b
617e:	4c 89 ef             	mov    rdi,r13
6181:	31 ed                	xor    ebp,ebp
6183:	e8 78 b4 ff ff       	call   1600 <strchr@plt>
6188:	48 85 c0             	test   rax,rax
618b:	bb 01 00 00 00       	mov    ebx,0x1
6190:	48 8b 4c 24 08       	mov    rcx,QWORD PTR [rsp+0x8]
6195:	74 a1                	je     6138 <xstrtoumax+0xd8>
6197:	41 0f be f4          	movsx  esi,r12b
619b:	4c 89 ef             	mov    rdi,r13
619e:	48 89 4c 24 08       	mov    QWORD PTR [rsp+0x8],rcx
61a3:	e8 58 b4 ff ff       	call   1600 <strchr@plt>
61a8:	48 85 c0             	test   rax,rax
61ab:	48 8b 4c 24 08       	mov    rcx,QWORD PTR [rsp+0x8]
61b0:	0f 84 c6 00 00 00    	je     627c <xstrtoumax+0x21c>
61b6:	41 8d 44 24 bb       	lea    eax,[r12-0x45]
61bb:	3c 2f                	cmp    al,0x2f
61bd:	77 51                	ja     6210 <xstrtoumax+0x1b0>
61bf:	48 ba 45 89 30 00 44 	movabs rdx,0x814400308945
61c6:	81 00 00
61c9:	48 0f a3 c2          	bt     rdx,rax
61cd:	73 41                	jae    6210 <xstrtoumax+0x1b0>
61cf:	be 30 00 00 00       	mov    esi,0x30
61d4:	4c 89 ef             	mov    rdi,r13
61d7:	48 89 4c 24 08       	mov    QWORD PTR [rsp+0x8],rcx
61dc:	e8 1f b4 ff ff       	call   1600 <strchr@plt>
61e1:	48 85 c0             	test   rax,rax
61e4:	48 8b 4c 24 08       	mov    rcx,QWORD PTR [rsp+0x8]
61e9:	74 25                	je     6210 <xstrtoumax+0x1b0>
61eb:	0f b6 41 01          	movzx  eax,BYTE PTR [rcx+0x1]
61ef:	3c 44                	cmp    al,0x44
61f1:	74 0c                	je     61ff <xstrtoumax+0x19f>
61f3:	3c 69                	cmp    al,0x69
61f5:	0f 84 cd 01 00 00    	je     63c8 <xstrtoumax+0x368>
61fb:	3c 42                	cmp    al,0x42
61fd:	75 11                	jne    6210 <xstrtoumax+0x1b0>
61ff:	bf 02 00 00 00       	mov    edi,0x2
6204:	be e8 03 00 00       	mov    esi,0x3e8
6209:	eb 0f                	jmp    621a <xstrtoumax+0x1ba>
620b:	0f 1f 44 00 00       	nop    DWORD PTR [rax+rax*1+0x0]
6210:	bf 01 00 00 00       	mov    edi,0x1
6215:	be 00 04 00 00       	mov    esi,0x400
621a:	41 83 ec 42          	sub    r12d,0x42
621e:	41 80 fc 35          	cmp    r12b,0x35
6222:	77 58                	ja     627c <xstrtoumax+0x21c>
6224:	48 8d 15 5d 17 00 00 	lea    rdx,[rip+0x175d]        # 7988 <version_etc_copyright+0x88>
622b:	45 0f b6 e4          	movzx  r12d,r12b
622f:	4a 63 04 a2          	movsxd rax,DWORD PTR [rdx+r12*4]
6233:	48 01 d0             	add    rax,rdx
6236:	ff e0                	jmp    rax
6238:	48 89 d8             	mov    rax,rbx
623b:	48 f7 e6             	mul    rsi
623e:	0f 80 ed 01 00 00    	jo     6431 <xstrtoumax+0x3d1>
6244:	45 31 c0             	xor    r8d,r8d
6247:	48 f7 e6             	mul    rsi
624a:	0f 80 d2 01 00 00    	jo     6422 <xstrtoumax+0x3c2>
6250:	48 89 c3             	mov    rbx,rax
6253:	44 09 c5             	or     ebp,r8d
6256:	66 2e 0f 1f 84 00 00 	nop    WORD PTR cs:[rax+rax*1+0x0]
625d:	00 00 00
6260:	48 63 ff             	movsxd rdi,edi
6263:	89 e8                	mov    eax,ebp
6265:	48 01 f9             	add    rcx,rdi
6268:	83 c8 02             	or     eax,0x2
626b:	49 89 0f             	mov    QWORD PTR [r15],rcx
626e:	80 39 00             	cmp    BYTE PTR [rcx],0x0
6271:	49 89 1e             	mov    QWORD PTR [r14],rbx
6274:	0f 45 e8             	cmovne ebp,eax
6277:	e9 c1 fe ff ff       	jmp    613d <xstrtoumax+0xdd>
627c:	49 89 1e             	mov    QWORD PTR [r14],rbx
627f:	83 cd 02             	or     ebp,0x2
6282:	e9 b6 fe ff ff       	jmp    613d <xstrtoumax+0xdd>
6287:	ba 02 00 00 00       	mov    edx,0x2
628c:	48 89 d0             	mov    rax,rdx
628f:	48 f7 e3             	mul    rbx
6292:	0f 80 96 00 00 00    	jo     632e <xstrtoumax+0x2ce>
6298:	48 01 db             	add    rbx,rbx
629b:	eb c3                	jmp    6260 <xstrtoumax+0x200>
629d:	ba 00 02 00 00       	mov    edx,0x200
62a2:	48 89 d0             	mov    rax,rdx
62a5:	48 f7 e3             	mul    rbx
62a8:	0f 80 80 00 00 00    	jo     632e <xstrtoumax+0x2ce>
62ae:	48 c1 e3 09          	shl    rbx,0x9
62b2:	eb ac                	jmp    6260 <xstrtoumax+0x200>
62b4:	41 b8 07 00 00 00    	mov    r8d,0x7
62ba:	45 31 c9             	xor    r9d,r9d
62bd:	0f 1f 00             	nop    DWORD PTR [rax]
62c0:	48 89 d8             	mov    rax,rbx
62c3:	48 f7 e6             	mul    rsi
62c6:	48 89 c3             	mov    rbx,rax
62c9:	0f 80 8f 01 00 00    	jo     645e <xstrtoumax+0x3fe>
62cf:	41 83 e8 01          	sub    r8d,0x1
62d3:	75 eb                	jne    62c0 <xstrtoumax+0x260>
62d5:	44 09 cd             	or     ebp,r9d
62d8:	eb 86                	jmp    6260 <xstrtoumax+0x200>
62da:	41 b8 08 00 00 00    	mov    r8d,0x8
62e0:	45 31 c9             	xor    r9d,r9d
62e3:	0f 1f 44 00 00       	nop    DWORD PTR [rax+rax*1+0x0]
62e8:	48 89 d8             	mov    rax,rbx
62eb:	48 f7 e6             	mul    rsi
62ee:	48 89 c3             	mov    rbx,rax
62f1:	0f 80 49 01 00 00    	jo     6440 <xstrtoumax+0x3e0>
62f7:	41 83 e8 01          	sub    r8d,0x1
62fb:	75 eb                	jne    62e8 <xstrtoumax+0x288>
62fd:	eb d6                	jmp    62d5 <xstrtoumax+0x275>
62ff:	41 b8 04 00 00 00    	mov    r8d,0x4
6305:	45 31 c9             	xor    r9d,r9d
6308:	48 89 d8             	mov    rax,rbx
630b:	48 f7 e6             	mul    rsi
630e:	48 89 c3             	mov    rbx,rax
6311:	0f 80 fc 00 00 00    	jo     6413 <xstrtoumax+0x3b3>
6317:	41 83 e8 01          	sub    r8d,0x1
631b:	75 eb                	jne    6308 <xstrtoumax+0x2a8>
631d:	eb b6                	jmp    62d5 <xstrtoumax+0x275>
631f:	48 89 d8             	mov    rax,rbx
6322:	48 f7 e6             	mul    rsi
6325:	48 89 c3             	mov    rbx,rax
6328:	0f 81 32 ff ff ff    	jno    6260 <xstrtoumax+0x200>
632e:	bd 01 00 00 00       	mov    ebp,0x1
6333:	48 83 cb ff          	or     rbx,0xffffffffffffffff
6337:	e9 24 ff ff ff       	jmp    6260 <xstrtoumax+0x200>
633c:	0f 1f 40 00          	nop    DWORD PTR [rax+0x0]
6340:	41 b8 05 00 00 00    	mov    r8d,0x5
6346:	45 31 c9             	xor    r9d,r9d
6349:	48 89 d8             	mov    rax,rbx
634c:	48 f7 e6             	mul    rsi
634f:	48 89 c3             	mov    rbx,rax
6352:	0f 80 f7 00 00 00    	jo     644f <xstrtoumax+0x3ef>
6358:	41 83 e8 01          	sub    r8d,0x1
635c:	75 eb                	jne    6349 <xstrtoumax+0x2e9>
635e:	e9 72 ff ff ff       	jmp    62d5 <xstrtoumax+0x275>
6363:	41 b8 06 00 00 00    	mov    r8d,0x6
6369:	45 31 c9             	xor    r9d,r9d
636c:	48 89 d8             	mov    rax,rbx
636f:	48 f7 e6             	mul    rsi
6372:	48 89 c3             	mov    rbx,rax
6375:	0f 80 89 00 00 00    	jo     6404 <xstrtoumax+0x3a4>
637b:	41 83 e8 01          	sub    r8d,0x1
637f:	75 eb                	jne    636c <xstrtoumax+0x30c>
6381:	e9 4f ff ff ff       	jmp    62d5 <xstrtoumax+0x275>
6386:	ba 00 04 00 00       	mov    edx,0x400
638b:	48 89 d0             	mov    rax,rdx
638e:	48 f7 e3             	mul    rbx
6391:	70 9b                	jo     632e <xstrtoumax+0x2ce>
6393:	48 c1 e3 0a          	shl    rbx,0xa
6397:	e9 c4 fe ff ff       	jmp    6260 <xstrtoumax+0x200>
639c:	48 89 d8             	mov    rax,rbx
639f:	48 f7 e6             	mul    rsi
63a2:	0f 80 c5 00 00 00    	jo     646d <xstrtoumax+0x40d>
63a8:	45 31 c0             	xor    r8d,r8d
63ab:	48 f7 e6             	mul    rsi
63ae:	0f 81 93 fe ff ff    	jno    6247 <xstrtoumax+0x1e7>
63b4:	41 b8 01 00 00 00    	mov    r8d,0x1
63ba:	48 83 c8 ff          	or     rax,0xffffffffffffffff
63be:	e9 84 fe ff ff       	jmp    6247 <xstrtoumax+0x1e7>
63c3:	0f 1f 44 00 00       	nop    DWORD PTR [rax+rax*1+0x0]
63c8:	31 ff                	xor    edi,edi
63ca:	80 79 02 42          	cmp    BYTE PTR [rcx+0x2],0x42
63ce:	be 00 04 00 00       	mov    esi,0x400
63d3:	40 0f 94 c7          	sete   dil
63d7:	8d 7c 3f 01          	lea    edi,[rdi+rdi*1+0x1]
63db:	e9 3a fe ff ff       	jmp    621a <xstrtoumax+0x1ba>
63e0:	e8 eb b1 ff ff       	call   15d0 <__stack_chk_fail@plt>
63e5:	48 8d 0d 74 16 00 00 	lea    rcx,[rip+0x1674]        # 7a60 <__PRETTY_FUNCTION__.4162>
63ec:	48 8d 35 4d 15 00 00 	lea    rsi,[rip+0x154d]        # 7940 <version_etc_copyright+0x40>
63f3:	48 8d 3d 66 15 00 00 	lea    rdi,[rip+0x1566]        # 7960 <version_etc_copyright+0x60>
63fa:	ba 54 00 00 00       	mov    edx,0x54
63ff:	e8 2c b2 ff ff       	call   1630 <__assert_fail@plt>
6404:	41 b9 01 00 00 00    	mov    r9d,0x1
640a:	48 83 cb ff          	or     rbx,0xffffffffffffffff
640e:	e9 68 ff ff ff       	jmp    637b <xstrtoumax+0x31b>
6413:	41 b9 01 00 00 00    	mov    r9d,0x1
6419:	48 83 cb ff          	or     rbx,0xffffffffffffffff
641d:	e9 f5 fe ff ff       	jmp    6317 <xstrtoumax+0x2b7>
6422:	41 b8 01 00 00 00    	mov    r8d,0x1
6428:	48 83 cb ff          	or     rbx,0xffffffffffffffff
642c:	e9 22 fe ff ff       	jmp    6253 <xstrtoumax+0x1f3>
6431:	48 83 c8 ff          	or     rax,0xffffffffffffffff
6435:	41 b8 01 00 00 00    	mov    r8d,0x1
643b:	e9 07 fe ff ff       	jmp    6247 <xstrtoumax+0x1e7>
6440:	41 b9 01 00 00 00    	mov    r9d,0x1
6446:	48 83 cb ff          	or     rbx,0xffffffffffffffff
644a:	e9 a8 fe ff ff       	jmp    62f7 <xstrtoumax+0x297>
644f:	41 b9 01 00 00 00    	mov    r9d,0x1
6455:	48 83 cb ff          	or     rbx,0xffffffffffffffff
6459:	e9 fa fe ff ff       	jmp    6358 <xstrtoumax+0x2f8>
645e:	41 b9 01 00 00 00    	mov    r9d,0x1
6464:	48 83 cb ff          	or     rbx,0xffffffffffffffff
6468:	e9 62 fe ff ff       	jmp    62cf <xstrtoumax+0x26f>
646d:	41 b8 01 00 00 00    	mov    r8d,0x1
6473:	48 83 c8 ff          	or     rax,0xffffffffffffffff
6477:	e9 2f ff ff ff       	jmp    63ab <xstrtoumax+0x34b>
647c:	0f 1f 40 00          	nop    DWORD PTR [rax+0x0]

0000000000006480 <rpl_mbrtowc>:
6480:	41 55                	push   r13
6482:	41 54                	push   r12
6484:	49 89 f5             	mov    r13,rsi
6487:	55                   	push   rbp
6488:	53                   	push   rbx
6489:	48 89 fb             	mov    rbx,rdi
648c:	49 89 d4             	mov    r12,rdx
648f:	48 83 ec 18          	sub    rsp,0x18
6493:	64 48 8b 04 25 28 00 	mov    rax,QWORD PTR fs:0x28
649a:	00 00
649c:	48 89 44 24 08       	mov    QWORD PTR [rsp+0x8],rax
64a1:	31 c0                	xor    eax,eax
64a3:	48 8d 44 24 04       	lea    rax,[rsp+0x4]
64a8:	48 85 ff             	test   rdi,rdi
64ab:	48 0f 44 d8          	cmove  rbx,rax
64af:	48 89 df             	mov    rdi,rbx
64b2:	e8 39 b1 ff ff       	call   15f0 <mbrtowc@plt>
64b7:	48 83 f8 fd          	cmp    rax,0xfffffffffffffffd
64bb:	48 89 c5             	mov    rbp,rax
64be:	76 20                	jbe    64e0 <rpl_mbrtowc+0x60>
64c0:	4d 85 e4             	test   r12,r12
64c3:	74 1b                	je     64e0 <rpl_mbrtowc+0x60>
64c5:	31 ff                	xor    edi,edi
64c7:	e8 c4 00 00 00       	call   6590 <hard_locale>
64cc:	84 c0                	test   al,al
64ce:	75 10                	jne    64e0 <rpl_mbrtowc+0x60>
64d0:	41 0f b6 45 00       	movzx  eax,BYTE PTR [r13+0x0]
64d5:	bd 01 00 00 00       	mov    ebp,0x1
64da:	89 03                	mov    DWORD PTR [rbx],eax
64dc:	0f 1f 40 00          	nop    DWORD PTR [rax+0x0]
64e0:	48 8b 54 24 08       	mov    rdx,QWORD PTR [rsp+0x8]
64e5:	64 48 33 14 25 28 00 	xor    rdx,QWORD PTR fs:0x28
64ec:	00 00
64ee:	48 89 e8             	mov    rax,rbp
64f1:	75 0b                	jne    64fe <rpl_mbrtowc+0x7e>
64f3:	48 83 c4 18          	add    rsp,0x18
64f7:	5b                   	pop    rbx
64f8:	5d                   	pop    rbp
64f9:	41 5c                	pop    r12
64fb:	41 5d                	pop    r13
64fd:	c3                   	ret
64fe:	e8 cd b0 ff ff       	call   15d0 <__stack_chk_fail@plt>
6503:	66 2e 0f 1f 84 00 00 	nop    WORD PTR cs:[rax+rax*1+0x0]
650a:	00 00 00
650d:	0f 1f 00             	nop    DWORD PTR [rax]

0000000000006510 <close_stream>:
6510:	41 54                	push   r12
6512:	55                   	push   rbp
6513:	48 89 fd             	mov    rbp,rdi
6516:	53                   	push   rbx
6517:	e8 34 b0 ff ff       	call   1550 <__fpending@plt>
651c:	8b 5d 00             	mov    ebx,DWORD PTR [rbp+0x0]
651f:	48 89 ef             	mov    rdi,rbp
6522:	49 89 c4             	mov    r12,rax
6525:	e8 06 01 00 00       	call   6630 <rpl_fclose>
652a:	83 e3 20             	and    ebx,0x20
652d:	85 db                	test   ebx,ebx
652f:	75 17                	jne    6548 <close_stream+0x38>
6531:	85 c0                	test   eax,eax
6533:	74 0a                	je     653f <close_stream+0x2f>
6535:	4d 85 e4             	test   r12,r12
6538:	b8 ff ff ff ff       	mov    eax,0xffffffff
653d:	74 39                	je     6578 <close_stream+0x68>
653f:	5b                   	pop    rbx
6540:	5d                   	pop    rbp
6541:	41 5c                	pop    r12
6543:	c3                   	ret
6544:	0f 1f 40 00          	nop    DWORD PTR [rax+0x0]
6548:	85 c0                	test   eax,eax
654a:	75 1c                	jne    6568 <close_stream+0x58>
654c:	e8 cf af ff ff       	call   1520 <__errno_location@plt>
6551:	c7 00 00 00 00 00    	mov    DWORD PTR [rax],0x0
6557:	b8 ff ff ff ff       	mov    eax,0xffffffff
655c:	5b                   	pop    rbx
655d:	5d                   	pop    rbp
655e:	41 5c                	pop    r12
6560:	c3                   	ret
6561:	0f 1f 80 00 00 00 00 	nop    DWORD PTR [rax+0x0]
6568:	5b                   	pop    rbx
6569:	b8 ff ff ff ff       	mov    eax,0xffffffff
656e:	5d                   	pop    rbp
656f:	41 5c                	pop    r12
6571:	c3                   	ret
6572:	66 0f 1f 44 00 00    	nop    WORD PTR [rax+rax*1+0x0]
6578:	e8 a3 af ff ff       	call   1520 <__errno_location@plt>
657d:	83 38 09             	cmp    DWORD PTR [rax],0x9
6580:	5b                   	pop    rbx
6581:	5d                   	pop    rbp
6582:	41 5c                	pop    r12
6584:	0f 95 c0             	setne  al
6587:	0f b6 c0             	movzx  eax,al
658a:	f7 d8                	neg    eax
658c:	c3                   	ret
658d:	0f 1f 00             	nop    DWORD PTR [rax]

0000000000006590 <hard_locale>:
6590:	48 83 ec 08          	sub    rsp,0x8
6594:	31 f6                	xor    esi,esi
6596:	e8 b5 b1 ff ff       	call   1750 <setlocale@plt>
659b:	48 89 c2             	mov    rdx,rax
659e:	b8 01 00 00 00       	mov    eax,0x1
65a3:	48 85 d2             	test   rdx,rdx
65a6:	74 1d                	je     65c5 <hard_locale+0x35>
65a8:	48 8d 3d bc 14 00 00 	lea    rdi,[rip+0x14bc]        # 7a6b <__PRETTY_FUNCTION__.4162+0xb>
65af:	b9 02 00 00 00       	mov    ecx,0x2
65b4:	48 89 d6             	mov    rsi,rdx
65b7:	f3 a6                	repz cmps BYTE PTR ds:[rsi],BYTE PTR es:[rdi]
65b9:	0f 97 c1             	seta   cl
65bc:	80 d9 00             	sbb    cl,0x0
65bf:	31 c0                	xor    eax,eax
65c1:	84 c9                	test   cl,cl
65c3:	75 0b                	jne    65d0 <hard_locale+0x40>
65c5:	48 83 c4 08          	add    rsp,0x8
65c9:	c3                   	ret
65ca:	66 0f 1f 44 00 00    	nop    WORD PTR [rax+rax*1+0x0]
65d0:	48 8d 3d 96 14 00 00 	lea    rdi,[rip+0x1496]        # 7a6d <__PRETTY_FUNCTION__.4162+0xd>
65d7:	b9 06 00 00 00       	mov    ecx,0x6
65dc:	48 89 d6             	mov    rsi,rdx
65df:	f3 a6                	repz cmps BYTE PTR ds:[rsi],BYTE PTR es:[rdi]
65e1:	0f 97 c0             	seta   al
65e4:	1c 00                	sbb    al,0x0
65e6:	84 c0                	test   al,al
65e8:	0f 95 c0             	setne  al
65eb:	48 83 c4 08          	add    rsp,0x8
65ef:	c3                   	ret

00000000000065f0 <locale_charset>:
65f0:	48 83 ec 08          	sub    rsp,0x8
65f4:	bf 0e 00 00 00       	mov    edi,0xe
65f9:	e8 02 b1 ff ff       	call   1700 <nl_langinfo@plt>
65fe:	48 85 c0             	test   rax,rax
6601:	74 1d                	je     6620 <locale_charset+0x30>
6603:	80 38 00             	cmp    BYTE PTR [rax],0x0
6606:	48 8d 15 66 14 00 00 	lea    rdx,[rip+0x1466]        # 7a73 <__PRETTY_FUNCTION__.4162+0x13>
660d:	48 0f 44 c2          	cmove  rax,rdx
6611:	48 83 c4 08          	add    rsp,0x8
6615:	c3                   	ret
6616:	66 2e 0f 1f 84 00 00 	nop    WORD PTR cs:[rax+rax*1+0x0]
661d:	00 00 00
6620:	48 8d 05 4c 14 00 00 	lea    rax,[rip+0x144c]        # 7a73 <__PRETTY_FUNCTION__.4162+0x13>
6627:	48 83 c4 08          	add    rsp,0x8
662b:	c3                   	ret
662c:	0f 1f 40 00          	nop    DWORD PTR [rax+0x0]

0000000000006630 <rpl_fclose>:
6630:	41 54                	push   r12
6632:	55                   	push   rbp
6633:	53                   	push   rbx
6634:	48 89 fb             	mov    rbx,rdi
6637:	e8 94 b0 ff ff       	call   16d0 <fileno@plt>
663c:	85 c0                	test   eax,eax
663e:	48 89 df             	mov    rdi,rbx
6641:	78 54                	js     6697 <rpl_fclose+0x67>
6643:	e8 d8 b0 ff ff       	call   1720 <__freading@plt>
6648:	85 c0                	test   eax,eax
664a:	75 2c                	jne    6678 <rpl_fclose+0x48>
664c:	48 89 df             	mov    rdi,rbx
664f:	e8 5c 00 00 00       	call   66b0 <rpl_fflush>
6654:	85 c0                	test   eax,eax
6656:	74 3c                	je     6694 <rpl_fclose+0x64>
6658:	e8 c3 ae ff ff       	call   1520 <__errno_location@plt>
665d:	44 8b 20             	mov    r12d,DWORD PTR [rax]
6660:	48 89 df             	mov    rdi,rbx
6663:	48 89 c5             	mov    rbp,rax
6666:	e8 15 af ff ff       	call   1580 <fclose@plt>
666b:	45 85 e4             	test   r12d,r12d
666e:	75 30                	jne    66a0 <rpl_fclose+0x70>
6670:	5b                   	pop    rbx
6671:	5d                   	pop    rbp
6672:	41 5c                	pop    r12
6674:	c3                   	ret
6675:	0f 1f 00             	nop    DWORD PTR [rax]
6678:	48 89 df             	mov    rdi,rbx
667b:	e8 50 b0 ff ff       	call   16d0 <fileno@plt>
6680:	31 f6                	xor    esi,esi
6682:	ba 01 00 00 00       	mov    edx,0x1
6687:	89 c7                	mov    edi,eax
6689:	e8 92 af ff ff       	call   1620 <lseek@plt>
668e:	48 83 f8 ff          	cmp    rax,0xffffffffffffffff
6692:	75 b8                	jne    664c <rpl_fclose+0x1c>
6694:	48 89 df             	mov    rdi,rbx
6697:	5b                   	pop    rbx
6698:	5d                   	pop    rbp
6699:	41 5c                	pop    r12
669b:	e9 e0 ae ff ff       	jmp    1580 <fclose@plt>
66a0:	44 89 65 00          	mov    DWORD PTR [rbp+0x0],r12d
66a4:	b8 ff ff ff ff       	mov    eax,0xffffffff
66a9:	eb c5                	jmp    6670 <rpl_fclose+0x40>
66ab:	0f 1f 44 00 00       	nop    DWORD PTR [rax+rax*1+0x0]

00000000000066b0 <rpl_fflush>:
66b0:	48 85 ff             	test   rdi,rdi
66b3:	53                   	push   rbx
66b4:	48 89 fb             	mov    rbx,rdi
66b7:	74 11                	je     66ca <rpl_fflush+0x1a>
66b9:	e8 62 b0 ff ff       	call   1720 <__freading@plt>
66be:	85 c0                	test   eax,eax
66c0:	74 08                	je     66ca <rpl_fflush+0x1a>
66c2:	f7 03 00 01 00 00    	test   DWORD PTR [rbx],0x100
66c8:	75 0e                	jne    66d8 <rpl_fflush+0x28>
66ca:	48 89 df             	mov    rdi,rbx
66cd:	5b                   	pop    rbx
66ce:	e9 1d b0 ff ff       	jmp    16f0 <fflush@plt>
66d3:	0f 1f 44 00 00       	nop    DWORD PTR [rax+rax*1+0x0]
66d8:	48 89 df             	mov    rdi,rbx
66db:	ba 01 00 00 00       	mov    edx,0x1
66e0:	31 f6                	xor    esi,esi
66e2:	e8 09 00 00 00       	call   66f0 <rpl_fseeko>
66e7:	48 89 df             	mov    rdi,rbx
66ea:	5b                   	pop    rbx
66eb:	e9 00 b0 ff ff       	jmp    16f0 <fflush@plt>

00000000000066f0 <rpl_fseeko>:
66f0:	48 8b 47 08          	mov    rax,QWORD PTR [rdi+0x8]
66f4:	48 39 47 10          	cmp    QWORD PTR [rdi+0x10],rax
66f8:	74 06                	je     6700 <rpl_fseeko+0x10>
66fa:	e9 a1 b0 ff ff       	jmp    17a0 <fseeko@plt>
66ff:	90                   	nop
6700:	48 8b 47 20          	mov    rax,QWORD PTR [rdi+0x20]
6704:	48 39 47 28          	cmp    QWORD PTR [rdi+0x28],rax
6708:	75 f0                	jne    66fa <rpl_fseeko+0xa>
670a:	48 83 7f 48 00       	cmp    QWORD PTR [rdi+0x48],0x0
670f:	75 e9                	jne    66fa <rpl_fseeko+0xa>
6711:	41 54                	push   r12
6713:	55                   	push   rbp
6714:	41 89 d4             	mov    r12d,edx
6717:	53                   	push   rbx
6718:	48 89 f5             	mov    rbp,rsi
671b:	48 89 fb             	mov    rbx,rdi
671e:	e8 ad af ff ff       	call   16d0 <fileno@plt>
6723:	44 89 e2             	mov    edx,r12d
6726:	48 89 ee             	mov    rsi,rbp
6729:	89 c7                	mov    edi,eax
672b:	e8 f0 ae ff ff       	call   1620 <lseek@plt>
6730:	48 83 f8 ff          	cmp    rax,0xffffffffffffffff
6734:	74 0c                	je     6742 <rpl_fseeko+0x52>
6736:	83 23 ef             	and    DWORD PTR [rbx],0xffffffef
6739:	48 89 83 90 00 00 00 	mov    QWORD PTR [rbx+0x90],rax
6740:	31 c0                	xor    eax,eax
6742:	5b                   	pop    rbx
6743:	5d                   	pop    rbp
6744:	41 5c                	pop    r12
6746:	c3                   	ret
6747:	66 0f 1f 84 00 00 00 	nop    WORD PTR [rax+rax*1+0x0]
674e:	00 00

0000000000006750 <__libc_csu_init>:
6750:	41 57                	push   r15
6752:	41 56                	push   r14
6754:	49 89 d7             	mov    r15,rdx
6757:	41 55                	push   r13
6759:	41 54                	push   r12
675b:	4c 8d 25 0e 33 20 00 	lea    r12,[rip+0x20330e]        # 209a70 <__frame_dummy_init_array_entry>
6762:	55                   	push   rbp
6763:	48 8d 2d 0e 33 20 00 	lea    rbp,[rip+0x20330e]        # 209a78 <__init_array_end>
676a:	53                   	push   rbx
676b:	41 89 fd             	mov    r13d,edi
676e:	49 89 f6             	mov    r14,rsi
6771:	4c 29 e5             	sub    rbp,r12
6774:	48 83 ec 08          	sub    rsp,0x8
6778:	48 c1 fd 03          	sar    rbp,0x3
677c:	e8 57 ad ff ff       	call   14d8 <_init>
6781:	48 85 ed             	test   rbp,rbp
6784:	74 20                	je     67a6 <__libc_csu_init+0x56>
6786:	31 db                	xor    ebx,ebx
6788:	0f 1f 84 00 00 00 00 	nop    DWORD PTR [rax+rax*1+0x0]
678f:	00
6790:	4c 89 fa             	mov    rdx,r15
6793:	4c 89 f6             	mov    rsi,r14
6796:	44 89 ef             	mov    edi,r13d
6799:	41 ff 14 dc          	call   QWORD PTR [r12+rbx*8]
679d:	48 83 c3 01          	add    rbx,0x1
67a1:	48 39 dd             	cmp    rbp,rbx
67a4:	75 ea                	jne    6790 <__libc_csu_init+0x40>
67a6:	48 83 c4 08          	add    rsp,0x8
67aa:	5b                   	pop    rbx
67ab:	5d                   	pop    rbp
67ac:	41 5c                	pop    r12
67ae:	41 5d                	pop    r13
67b0:	41 5e                	pop    r14
67b2:	41 5f                	pop    r15
67b4:	c3                   	ret
67b5:	90                   	nop
67b6:	66 2e 0f 1f 84 00 00 	nop    WORD PTR cs:[rax+rax*1+0x0]
67bd:	00 00 00

00000000000067c0 <__libc_csu_fini>:
67c0:	f3 c3                	repz ret
67c2:	66 2e 0f 1f 84 00 00 	nop    WORD PTR cs:[rax+rax*1+0x0]
67c9:	00 00 00
67cc:	0f 1f 40 00          	nop    DWORD PTR [rax+0x0]

00000000000067d0 <atexit>:
67d0:	48 8b 15 31 38 20 00 	mov    rdx,QWORD PTR [rip+0x203831]        # 20a008 <__dso_handle>
67d7:	31 f6                	xor    esi,esi
67d9:	e9 d2 af ff ff       	jmp    17b0 <__cxa_atexit@plt>

Disassembly of section .fini:

00000000000067e0 <_fini>:
67e0:	48 83 ec 08          	sub    rsp,0x8
67e4:	48 83 c4 08          	add    rsp,0x8
67e8:	c3                   	ret
