


Disassembly of section .init:

00000000000015d8 <_init>:
15d8:	48 83 ec 08          	sub    rsp,0x8
15dc:	48 8b 05 ed 79 20 00 	mov    rax,QWORD PTR [rip+0x2079ed]        # 208fd0 <__gmon_start__>
15e3:	48 85 c0             	test   rax,rax
15e6:	74 02                	je     15ea <_init+0x12>
15e8:	ff d0                	call   rax
15ea:	48 83 c4 08          	add    rsp,0x8
15ee:	c3                   	ret

Disassembly of section .plt:

00000000000015f0 <.plt>:
15f0:	ff 35 fa 77 20 00    	push   QWORD PTR [rip+0x2077fa]        # 208df0 <_GLOBAL_OFFSET_TABLE_+0x8>
15f6:	ff 25 fc 77 20 00    	jmp    QWORD PTR [rip+0x2077fc]        # 208df8 <_GLOBAL_OFFSET_TABLE_+0x10>
15fc:	0f 1f 40 00          	nop    DWORD PTR [rax+0x0]

0000000000001600 <endgrent@plt>:
1600:	ff 25 fa 77 20 00    	jmp    QWORD PTR [rip+0x2077fa]        # 208e00 <endgrent@GLIBC_2.2.5>
1606:	68 00 00 00 00       	push   0x0
160b:	e9 e0 ff ff ff       	jmp    15f0 <.plt>

0000000000001610 <getenv@plt>:
1610:	ff 25 f2 77 20 00    	jmp    QWORD PTR [rip+0x2077f2]        # 208e08 <getenv@GLIBC_2.2.5>
1616:	68 01 00 00 00       	push   0x1
161b:	e9 d0 ff ff ff       	jmp    15f0 <.plt>

0000000000001620 <free@plt>:
1620:	ff 25 ea 77 20 00    	jmp    QWORD PTR [rip+0x2077ea]        # 208e10 <free@GLIBC_2.2.5>
1626:	68 02 00 00 00       	push   0x2
162b:	e9 c0 ff ff ff       	jmp    15f0 <.plt>

0000000000001630 <abort@plt>:
1630:	ff 25 e2 77 20 00    	jmp    QWORD PTR [rip+0x2077e2]        # 208e18 <abort@GLIBC_2.2.5>
1636:	68 03 00 00 00       	push   0x3
163b:	e9 b0 ff ff ff       	jmp    15f0 <.plt>

0000000000001640 <__errno_location@plt>:
1640:	ff 25 da 77 20 00    	jmp    QWORD PTR [rip+0x2077da]        # 208e20 <__errno_location@GLIBC_2.2.5>
1646:	68 04 00 00 00       	push   0x4
164b:	e9 a0 ff ff ff       	jmp    15f0 <.plt>

0000000000001650 <strncmp@plt>:
1650:	ff 25 d2 77 20 00    	jmp    QWORD PTR [rip+0x2077d2]        # 208e28 <strncmp@GLIBC_2.2.5>
1656:	68 05 00 00 00       	push   0x5
165b:	e9 90 ff ff ff       	jmp    15f0 <.plt>

0000000000001660 <_exit@plt>:
1660:	ff 25 ca 77 20 00    	jmp    QWORD PTR [rip+0x2077ca]        # 208e30 <_exit@GLIBC_2.2.5>
1666:	68 06 00 00 00       	push   0x6
166b:	e9 80 ff ff ff       	jmp    15f0 <.plt>

0000000000001670 <__fpending@plt>:
1670:	ff 25 c2 77 20 00    	jmp    QWORD PTR [rip+0x2077c2]        # 208e38 <__fpending@GLIBC_2.2.5>
1676:	68 07 00 00 00       	push   0x7
167b:	e9 70 ff ff ff       	jmp    15f0 <.plt>

0000000000001680 <textdomain@plt>:
1680:	ff 25 ba 77 20 00    	jmp    QWORD PTR [rip+0x2077ba]        # 208e40 <textdomain@GLIBC_2.2.5>
1686:	68 08 00 00 00       	push   0x8
168b:	e9 60 ff ff ff       	jmp    15f0 <.plt>

0000000000001690 <fclose@plt>:
1690:	ff 25 b2 77 20 00    	jmp    QWORD PTR [rip+0x2077b2]        # 208e48 <fclose@GLIBC_2.2.5>
1696:	68 09 00 00 00       	push   0x9
169b:	e9 50 ff ff ff       	jmp    15f0 <.plt>

00000000000016a0 <getpwuid@plt>:
16a0:	ff 25 aa 77 20 00    	jmp    QWORD PTR [rip+0x2077aa]        # 208e50 <getpwuid@GLIBC_2.2.5>
16a6:	68 0a 00 00 00       	push   0xa
16ab:	e9 40 ff ff ff       	jmp    15f0 <.plt>

00000000000016b0 <bindtextdomain@plt>:
16b0:	ff 25 a2 77 20 00    	jmp    QWORD PTR [rip+0x2077a2]        # 208e58 <bindtextdomain@GLIBC_2.2.5>
16b6:	68 0b 00 00 00       	push   0xb
16bb:	e9 30 ff ff ff       	jmp    15f0 <.plt>

00000000000016c0 <dcgettext@plt>:
16c0:	ff 25 9a 77 20 00    	jmp    QWORD PTR [rip+0x20779a]        # 208e60 <dcgettext@GLIBC_2.2.5>
16c6:	68 0c 00 00 00       	push   0xc
16cb:	e9 20 ff ff ff       	jmp    15f0 <.plt>

00000000000016d0 <__ctype_get_mb_cur_max@plt>:
16d0:	ff 25 92 77 20 00    	jmp    QWORD PTR [rip+0x207792]        # 208e68 <__ctype_get_mb_cur_max@GLIBC_2.2.5>
16d6:	68 0d 00 00 00       	push   0xd
16db:	e9 10 ff ff ff       	jmp    15f0 <.plt>

00000000000016e0 <strlen@plt>:
16e0:	ff 25 8a 77 20 00    	jmp    QWORD PTR [rip+0x20778a]        # 208e70 <strlen@GLIBC_2.2.5>
16e6:	68 0e 00 00 00       	push   0xe
16eb:	e9 00 ff ff ff       	jmp    15f0 <.plt>

00000000000016f0 <__stack_chk_fail@plt>:
16f0:	ff 25 82 77 20 00    	jmp    QWORD PTR [rip+0x207782]        # 208e78 <__stack_chk_fail@GLIBC_2.4>
16f6:	68 0f 00 00 00       	push   0xf
16fb:	e9 f0 fe ff ff       	jmp    15f0 <.plt>

0000000000001700 <getuid@plt>:
1700:	ff 25 7a 77 20 00    	jmp    QWORD PTR [rip+0x20777a]        # 208e80 <getuid@GLIBC_2.2.5>
1706:	68 10 00 00 00       	push   0x10
170b:	e9 e0 fe ff ff       	jmp    15f0 <.plt>

0000000000001710 <getopt_long@plt>:
1710:	ff 25 72 77 20 00    	jmp    QWORD PTR [rip+0x207772]        # 208e88 <getopt_long@GLIBC_2.2.5>
1716:	68 11 00 00 00       	push   0x11
171b:	e9 d0 fe ff ff       	jmp    15f0 <.plt>

0000000000001720 <mbrtowc@plt>:
1720:	ff 25 6a 77 20 00    	jmp    QWORD PTR [rip+0x20776a]        # 208e90 <mbrtowc@GLIBC_2.2.5>
1726:	68 12 00 00 00       	push   0x12
172b:	e9 c0 fe ff ff       	jmp    15f0 <.plt>

0000000000001730 <strchr@plt>:
1730:	ff 25 62 77 20 00    	jmp    QWORD PTR [rip+0x207762]        # 208e98 <strchr@GLIBC_2.2.5>
1736:	68 13 00 00 00       	push   0x13
173b:	e9 b0 fe ff ff       	jmp    15f0 <.plt>

0000000000001740 <getgrgid@plt>:
1740:	ff 25 5a 77 20 00    	jmp    QWORD PTR [rip+0x20775a]        # 208ea0 <getgrgid@GLIBC_2.2.5>
1746:	68 14 00 00 00       	push   0x14
174b:	e9 a0 fe ff ff       	jmp    15f0 <.plt>

0000000000001750 <__overflow@plt>:
1750:	ff 25 52 77 20 00    	jmp    QWORD PTR [rip+0x207752]        # 208ea8 <__overflow@GLIBC_2.2.5>
1756:	68 15 00 00 00       	push   0x15
175b:	e9 90 fe ff ff       	jmp    15f0 <.plt>

0000000000001760 <strrchr@plt>:
1760:	ff 25 4a 77 20 00    	jmp    QWORD PTR [rip+0x20774a]        # 208eb0 <strrchr@GLIBC_2.2.5>
1766:	68 16 00 00 00       	push   0x16
176b:	e9 80 fe ff ff       	jmp    15f0 <.plt>

0000000000001770 <lseek@plt>:
1770:	ff 25 42 77 20 00    	jmp    QWORD PTR [rip+0x207742]        # 208eb8 <lseek@GLIBC_2.2.5>
1776:	68 17 00 00 00       	push   0x17
177b:	e9 70 fe ff ff       	jmp    15f0 <.plt>

0000000000001780 <__assert_fail@plt>:
1780:	ff 25 3a 77 20 00    	jmp    QWORD PTR [rip+0x20773a]        # 208ec0 <__assert_fail@GLIBC_2.2.5>
1786:	68 18 00 00 00       	push   0x18
178b:	e9 60 fe ff ff       	jmp    15f0 <.plt>

0000000000001790 <memset@plt>:
1790:	ff 25 32 77 20 00    	jmp    QWORD PTR [rip+0x207732]        # 208ec8 <memset@GLIBC_2.2.5>
1796:	68 19 00 00 00       	push   0x19
179b:	e9 50 fe ff ff       	jmp    15f0 <.plt>

00000000000017a0 <geteuid@plt>:
17a0:	ff 25 2a 77 20 00    	jmp    QWORD PTR [rip+0x20772a]        # 208ed0 <geteuid@GLIBC_2.2.5>
17a6:	68 1a 00 00 00       	push   0x1a
17ab:	e9 40 fe ff ff       	jmp    15f0 <.plt>

00000000000017b0 <memcmp@plt>:
17b0:	ff 25 22 77 20 00    	jmp    QWORD PTR [rip+0x207722]        # 208ed8 <memcmp@GLIBC_2.2.5>
17b6:	68 1b 00 00 00       	push   0x1b
17bb:	e9 30 fe ff ff       	jmp    15f0 <.plt>

00000000000017c0 <fputs_unlocked@plt>:
17c0:	ff 25 1a 77 20 00    	jmp    QWORD PTR [rip+0x20771a]        # 208ee0 <fputs_unlocked@GLIBC_2.2.5>
17c6:	68 1c 00 00 00       	push   0x1c
17cb:	e9 20 fe ff ff       	jmp    15f0 <.plt>

00000000000017d0 <calloc@plt>:
17d0:	ff 25 12 77 20 00    	jmp    QWORD PTR [rip+0x207712]        # 208ee8 <calloc@GLIBC_2.2.5>
17d6:	68 1d 00 00 00       	push   0x1d
17db:	e9 10 fe ff ff       	jmp    15f0 <.plt>

00000000000017e0 <getpwnam@plt>:
17e0:	ff 25 0a 77 20 00    	jmp    QWORD PTR [rip+0x20770a]        # 208ef0 <getpwnam@GLIBC_2.2.5>
17e6:	68 1e 00 00 00       	push   0x1e
17eb:	e9 00 fe ff ff       	jmp    15f0 <.plt>

00000000000017f0 <memcpy@plt>:
17f0:	ff 25 02 77 20 00    	jmp    QWORD PTR [rip+0x207702]        # 208ef8 <memcpy@GLIBC_2.14>
17f6:	68 1f 00 00 00       	push   0x1f
17fb:	e9 f0 fd ff ff       	jmp    15f0 <.plt>

0000000000001800 <getgrnam@plt>:
1800:	ff 25 fa 76 20 00    	jmp    QWORD PTR [rip+0x2076fa]        # 208f00 <getgrnam@GLIBC_2.2.5>
1806:	68 20 00 00 00       	push   0x20
180b:	e9 e0 fd ff ff       	jmp    15f0 <.plt>

0000000000001810 <fileno@plt>:
1810:	ff 25 f2 76 20 00    	jmp    QWORD PTR [rip+0x2076f2]        # 208f08 <fileno@GLIBC_2.2.5>
1816:	68 21 00 00 00       	push   0x21
181b:	e9 d0 fd ff ff       	jmp    15f0 <.plt>

0000000000001820 <getgid@plt>:
1820:	ff 25 ea 76 20 00    	jmp    QWORD PTR [rip+0x2076ea]        # 208f10 <getgid@GLIBC_2.2.5>
1826:	68 22 00 00 00       	push   0x22
182b:	e9 c0 fd ff ff       	jmp    15f0 <.plt>

0000000000001830 <getgroups@plt>:
1830:	ff 25 e2 76 20 00    	jmp    QWORD PTR [rip+0x2076e2]        # 208f18 <getgroups@GLIBC_2.2.5>
1836:	68 23 00 00 00       	push   0x23
183b:	e9 b0 fd ff ff       	jmp    15f0 <.plt>

0000000000001840 <malloc@plt>:
1840:	ff 25 da 76 20 00    	jmp    QWORD PTR [rip+0x2076da]        # 208f20 <malloc@GLIBC_2.2.5>
1846:	68 24 00 00 00       	push   0x24
184b:	e9 a0 fd ff ff       	jmp    15f0 <.plt>

0000000000001850 <fflush@plt>:
1850:	ff 25 d2 76 20 00    	jmp    QWORD PTR [rip+0x2076d2]        # 208f28 <fflush@GLIBC_2.2.5>
1856:	68 25 00 00 00       	push   0x25
185b:	e9 90 fd ff ff       	jmp    15f0 <.plt>

0000000000001860 <nl_langinfo@plt>:
1860:	ff 25 ca 76 20 00    	jmp    QWORD PTR [rip+0x2076ca]        # 208f30 <nl_langinfo@GLIBC_2.2.5>
1866:	68 26 00 00 00       	push   0x26
186b:	e9 80 fd ff ff       	jmp    15f0 <.plt>

0000000000001870 <endpwent@plt>:
1870:	ff 25 c2 76 20 00    	jmp    QWORD PTR [rip+0x2076c2]        # 208f38 <endpwent@GLIBC_2.2.5>
1876:	68 27 00 00 00       	push   0x27
187b:	e9 70 fd ff ff       	jmp    15f0 <.plt>

0000000000001880 <getegid@plt>:
1880:	ff 25 ba 76 20 00    	jmp    QWORD PTR [rip+0x2076ba]        # 208f40 <getegid@GLIBC_2.2.5>
1886:	68 28 00 00 00       	push   0x28
188b:	e9 60 fd ff ff       	jmp    15f0 <.plt>

0000000000001890 <__freading@plt>:
1890:	ff 25 b2 76 20 00    	jmp    QWORD PTR [rip+0x2076b2]        # 208f48 <__freading@GLIBC_2.2.5>
1896:	68 29 00 00 00       	push   0x29
189b:	e9 50 fd ff ff       	jmp    15f0 <.plt>

00000000000018a0 <realloc@plt>:
18a0:	ff 25 aa 76 20 00    	jmp    QWORD PTR [rip+0x2076aa]        # 208f50 <realloc@GLIBC_2.2.5>
18a6:	68 2a 00 00 00       	push   0x2a
18ab:	e9 40 fd ff ff       	jmp    15f0 <.plt>

00000000000018b0 <setlocale@plt>:
18b0:	ff 25 a2 76 20 00    	jmp    QWORD PTR [rip+0x2076a2]        # 208f58 <setlocale@GLIBC_2.2.5>
18b6:	68 2b 00 00 00       	push   0x2b
18bb:	e9 30 fd ff ff       	jmp    15f0 <.plt>

00000000000018c0 <__printf_chk@plt>:
18c0:	ff 25 9a 76 20 00    	jmp    QWORD PTR [rip+0x20769a]        # 208f60 <__printf_chk@GLIBC_2.3.4>
18c6:	68 2c 00 00 00       	push   0x2c
18cb:	e9 20 fd ff ff       	jmp    15f0 <.plt>

00000000000018d0 <error@plt>:
18d0:	ff 25 92 76 20 00    	jmp    QWORD PTR [rip+0x207692]        # 208f68 <error@GLIBC_2.2.5>
18d6:	68 2d 00 00 00       	push   0x2d
18db:	e9 10 fd ff ff       	jmp    15f0 <.plt>

00000000000018e0 <getgrouplist@plt>:
18e0:	ff 25 8a 76 20 00    	jmp    QWORD PTR [rip+0x20768a]        # 208f70 <getgrouplist@GLIBC_2.2.5>
18e6:	68 2e 00 00 00       	push   0x2e
18eb:	e9 00 fd ff ff       	jmp    15f0 <.plt>

00000000000018f0 <fseeko@plt>:
18f0:	ff 25 82 76 20 00    	jmp    QWORD PTR [rip+0x207682]        # 208f78 <fseeko@GLIBC_2.2.5>
18f6:	68 2f 00 00 00       	push   0x2f
18fb:	e9 f0 fc ff ff       	jmp    15f0 <.plt>

0000000000001900 <strtoul@plt>:
1900:	ff 25 7a 76 20 00    	jmp    QWORD PTR [rip+0x20767a]        # 208f80 <strtoul@GLIBC_2.2.5>
1906:	68 30 00 00 00       	push   0x30
190b:	e9 e0 fc ff ff       	jmp    15f0 <.plt>

0000000000001910 <__cxa_atexit@plt>:
1910:	ff 25 72 76 20 00    	jmp    QWORD PTR [rip+0x207672]        # 208f88 <__cxa_atexit@GLIBC_2.2.5>
1916:	68 31 00 00 00       	push   0x31
191b:	e9 d0 fc ff ff       	jmp    15f0 <.plt>

0000000000001920 <exit@plt>:
1920:	ff 25 6a 76 20 00    	jmp    QWORD PTR [rip+0x20766a]        # 208f90 <exit@GLIBC_2.2.5>
1926:	68 32 00 00 00       	push   0x32
192b:	e9 c0 fc ff ff       	jmp    15f0 <.plt>

0000000000001930 <fwrite@plt>:
1930:	ff 25 62 76 20 00    	jmp    QWORD PTR [rip+0x207662]        # 208f98 <fwrite@GLIBC_2.2.5>
1936:	68 33 00 00 00       	push   0x33
193b:	e9 b0 fc ff ff       	jmp    15f0 <.plt>

0000000000001940 <__fprintf_chk@plt>:
1940:	ff 25 5a 76 20 00    	jmp    QWORD PTR [rip+0x20765a]        # 208fa0 <__fprintf_chk@GLIBC_2.3.4>
1946:	68 34 00 00 00       	push   0x34
194b:	e9 a0 fc ff ff       	jmp    15f0 <.plt>

0000000000001950 <mbsinit@plt>:
1950:	ff 25 52 76 20 00    	jmp    QWORD PTR [rip+0x207652]        # 208fa8 <mbsinit@GLIBC_2.2.5>
1956:	68 35 00 00 00       	push   0x35
195b:	e9 90 fc ff ff       	jmp    15f0 <.plt>

0000000000001960 <iswprint@plt>:
1960:	ff 25 4a 76 20 00    	jmp    QWORD PTR [rip+0x20764a]        # 208fb0 <iswprint@GLIBC_2.2.5>
1966:	68 36 00 00 00       	push   0x36
196b:	e9 80 fc ff ff       	jmp    15f0 <.plt>

0000000000001970 <__ctype_b_loc@plt>:
1970:	ff 25 42 76 20 00    	jmp    QWORD PTR [rip+0x207642]        # 208fb8 <__ctype_b_loc@GLIBC_2.3>
1976:	68 37 00 00 00       	push   0x37
197b:	e9 70 fc ff ff       	jmp    15f0 <.plt>

Disassembly of section .plt.got:

0000000000001980 <__cxa_finalize@plt>:
1980:	ff 25 5a 76 20 00    	jmp    QWORD PTR [rip+0x20765a]        # 208fe0 <__cxa_finalize@GLIBC_2.2.5>
1986:	66 90                	xchg   ax,ax

Disassembly of section .text:

0000000000001990 <main>:
1990:	41 56                	push   r14
1992:	41 55                	push   r13
1994:	41 54                	push   r12
1996:	55                   	push   rbp
1997:	89 fd                	mov    ebp,edi
1999:	53                   	push   rbx
199a:	48 8b 3e             	mov    rdi,QWORD PTR [rsi]
199d:	48 89 f3             	mov    rbx,rsi
19a0:	4c 8d 25 b9 70 20 00 	lea    r12,[rip+0x2070b9]        # 208a60 <longopts>
19a7:	e8 a4 13 00 00       	call   2d50 <set_program_name>
19ac:	48 8d 35 76 55 00 00 	lea    rsi,[rip+0x5576]        # 6f29 <quoting_style_vals+0xa9>
19b3:	bf 06 00 00 00       	mov    edi,0x6
19b8:	e8 f3 fe ff ff       	call   18b0 <setlocale@plt>
19bd:	48 8d 35 a0 4e 00 00 	lea    rsi,[rip+0x4ea0]        # 6864 <_IO_stdin_used+0x644>
19c4:	48 8d 3d 70 4e 00 00 	lea    rdi,[rip+0x4e70]        # 683b <_IO_stdin_used+0x61b>
19cb:	e8 e0 fc ff ff       	call   16b0 <bindtextdomain@plt>
19d0:	48 8d 3d 64 4e 00 00 	lea    rdi,[rip+0x4e64]        # 683b <_IO_stdin_used+0x61b>
19d7:	e8 a4 fc ff ff       	call   1680 <textdomain@plt>
19dc:	48 8d 3d 6d 12 00 00 	lea    rdi,[rip+0x126d]        # 2c50 <close_stdout>
19e3:	e8 18 48 00 00       	call   6200 <atexit>
19e8:	0f 1f 84 00 00 00 00 	nop    DWORD PTR [rax+rax*1+0x0]
19ef:	00
19f0:	48 8d 15 a4 4e 00 00 	lea    rdx,[rip+0x4ea4]        # 689b <_IO_stdin_used+0x67b>
19f7:	45 31 c0             	xor    r8d,r8d
19fa:	4c 89 e1             	mov    rcx,r12
19fd:	48 89 de             	mov    rsi,rbx
1a00:	89 ef                	mov    edi,ebp
1a02:	e8 09 fd ff ff       	call   1710 <getopt_long@plt>
1a07:	83 f8 ff             	cmp    eax,0xffffffff
1a0a:	0f 84 f4 00 00 00    	je     1b04 <main+0x174>
1a10:	83 f8 61             	cmp    eax,0x61
1a13:	74 db                	je     19f0 <main+0x60>
1a15:	7e 29                	jle    1a40 <main+0xb0>
1a17:	83 f8 72             	cmp    eax,0x72
1a1a:	0f 84 c8 00 00 00    	je     1ae8 <main+0x158>
1a20:	7f 7e                	jg     1aa0 <main+0x110>
1a22:	83 f8 67             	cmp    eax,0x67
1a25:	0f 84 ad 00 00 00    	je     1ad8 <main+0x148>
1a2b:	83 f8 6e             	cmp    eax,0x6e
1a2e:	0f 85 0c 04 00 00    	jne    1e40 <main+0x4b0>
1a34:	c6 05 dd 76 20 00 01 	mov    BYTE PTR [rip+0x2076dd],0x1        # 209118 <use_name>
1a3b:	eb b3                	jmp    19f0 <main+0x60>
1a3d:	0f 1f 00             	nop    DWORD PTR [rax]
1a40:	3d 7e ff ff ff       	cmp    eax,0xffffff7e
1a45:	0f 84 ff 03 00 00    	je     1e4a <main+0x4ba>
1a4b:	7f 73                	jg     1ac0 <main+0x130>
1a4d:	3d 7d ff ff ff       	cmp    eax,0xffffff7d
1a52:	0f 85 e8 03 00 00    	jne    1e40 <main+0x4b0>
1a58:	48 83 ec 08          	sub    rsp,0x8
1a5c:	48 8b 3d 45 76 20 00 	mov    rdi,QWORD PTR [rip+0x207645]        # 2090a8 <stdout@@GLIBC_2.2.5>
1a63:	48 8b 0d ae 75 20 00 	mov    rcx,QWORD PTR [rip+0x2075ae]        # 209018 <Version>
1a6a:	6a 00                	push   0x0
1a6c:	4c 8d 0d 09 4e 00 00 	lea    r9,[rip+0x4e09]        # 687c <_IO_stdin_used+0x65c>
1a73:	4c 8d 05 12 4e 00 00 	lea    r8,[rip+0x4e12]        # 688c <_IO_stdin_used+0x66c>
1a7a:	48 8d 15 b6 4d 00 00 	lea    rdx,[rip+0x4db6]        # 6837 <_IO_stdin_used+0x617>
1a81:	48 8d 35 36 4d 00 00 	lea    rsi,[rip+0x4d36]        # 67be <_IO_stdin_used+0x59e>
1a88:	31 c0                	xor    eax,eax
1a8a:	e8 51 39 00 00       	call   53e0 <version_etc>
1a8f:	31 ff                	xor    edi,edi
1a91:	e8 8a fe ff ff       	call   1920 <exit@plt>
1a96:	66 2e 0f 1f 84 00 00 	nop    WORD PTR cs:[rax+rax*1+0x0]
1a9d:	00 00 00
1aa0:	83 f8 75             	cmp    eax,0x75
1aa3:	74 53                	je     1af8 <main+0x168>
1aa5:	83 f8 7a             	cmp    eax,0x7a
1aa8:	0f 85 92 03 00 00    	jne    1e40 <main+0x4b0>
1aae:	c6 05 69 76 20 00 01 	mov    BYTE PTR [rip+0x207669],0x1        # 20911e <opt_zero>
1ab5:	e9 36 ff ff ff       	jmp    19f0 <main+0x60>
1aba:	66 0f 1f 44 00 00    	nop    WORD PTR [rax+rax*1+0x0]
1ac0:	83 f8 47             	cmp    eax,0x47
1ac3:	0f 85 4e 03 00 00    	jne    1e17 <main+0x487>
1ac9:	c6 05 4d 76 20 00 01 	mov    BYTE PTR [rip+0x20764d],0x1        # 20911d <just_group_list>
1ad0:	e9 1b ff ff ff       	jmp    19f0 <main+0x60>
1ad5:	0f 1f 00             	nop    DWORD PTR [rax]
1ad8:	c6 05 3d 76 20 00 01 	mov    BYTE PTR [rip+0x20763d],0x1        # 20911c <just_group>
1adf:	e9 0c ff ff ff       	jmp    19f0 <main+0x60>
1ae4:	0f 1f 40 00          	nop    DWORD PTR [rax+0x0]
1ae8:	c6 05 2c 76 20 00 01 	mov    BYTE PTR [rip+0x20762c],0x1        # 20911b <use_real>
1aef:	e9 fc fe ff ff       	jmp    19f0 <main+0x60>
1af4:	0f 1f 40 00          	nop    DWORD PTR [rax+0x0]
1af8:	c6 05 1b 76 20 00 01 	mov    BYTE PTR [rip+0x20761b],0x1        # 20911a <just_user>
1aff:	e9 ec fe ff ff       	jmp    19f0 <main+0x60>
1b04:	0f b6 0d 11 76 20 00 	movzx  ecx,BYTE PTR [rip+0x207611]        # 20911c <just_group>
1b0b:	0f b6 15 08 76 20 00 	movzx  edx,BYTE PTR [rip+0x207608]        # 20911a <just_user>
1b12:	44 0f b6 35 03 76 20 	movzx  r14d,BYTE PTR [rip+0x207603]        # 20911d <just_group_list>
1b19:	00
1b1a:	48 63 05 8f 75 20 00 	movsxd rax,DWORD PTR [rip+0x20758f]        # 2090b0 <optind@@GLIBC_2.2.5>
1b21:	41 89 d4             	mov    r12d,edx
1b24:	41 89 cd             	mov    r13d,ecx
1b27:	01 ca                	add    edx,ecx
1b29:	41 0f b6 ce          	movzx  ecx,r14b
1b2d:	29 c5                	sub    ebp,eax
1b2f:	01 ca                	add    edx,ecx
1b31:	48 63 ed             	movsxd rbp,ebp
1b34:	83 ea 01             	sub    edx,0x1
1b37:	0f 8f 48 03 00 00    	jg     1e85 <main+0x4f5>
1b3d:	44 89 e1             	mov    ecx,r12d
1b40:	44 08 e9             	or     cl,r13b
1b43:	75 09                	jne    1b4e <main+0x1be>
1b45:	45 84 f6             	test   r14b,r14b
1b48:	0f 84 83 01 00 00    	je     1cd1 <main+0x341>
1b4e:	48 85 ed             	test   rbp,rbp
1b51:	0f 84 ee 00 00 00    	je     1c45 <main+0x2b5>
1b57:	48 83 fd 01          	cmp    rbp,0x1
1b5b:	48 63 d0             	movsxd rdx,eax
1b5e:	4c 8d 25 ab 75 20 00 	lea    r12,[rip+0x2075ab]        # 209110 <euid>
1b65:	0f 97 05 ad 75 20 00 	seta   BYTE PTR [rip+0x2075ad]        # 209119 <multiple_users>
1b6c:	48 01 d5             	add    rbp,rdx
1b6f:	eb 54                	jmp    1bc5 <main+0x235>
1b71:	48 63 05 38 75 20 00 	movsxd rax,DWORD PTR [rip+0x207538]        # 2090b0 <optind@@GLIBC_2.2.5>
1b78:	48 8b 3c c3          	mov    rdi,QWORD PTR [rbx+rax*8]
1b7c:	e8 df 2e 00 00       	call   4a60 <quote>
1b81:	48 8d 35 2c 4d 00 00 	lea    rsi,[rip+0x4d2c]        # 68b4 <_IO_stdin_used+0x694>
1b88:	ba 05 00 00 00       	mov    edx,0x5
1b8d:	31 ff                	xor    edi,edi
1b8f:	49 89 c6             	mov    r14,rax
1b92:	e8 29 fb ff ff       	call   16c0 <dcgettext@plt>
1b97:	49 89 c5             	mov    r13,rax
1b9a:	e8 a1 fa ff ff       	call   1640 <__errno_location@plt>
1b9f:	8b 30                	mov    esi,DWORD PTR [rax]
1ba1:	4c 89 f1             	mov    rcx,r14
1ba4:	4c 89 ea             	mov    rdx,r13
1ba7:	31 ff                	xor    edi,edi
1ba9:	31 c0                	xor    eax,eax
1bab:	e8 20 fd ff ff       	call   18d0 <error@plt>
1bb0:	c6 05 59 74 20 00 00 	mov    BYTE PTR [rip+0x207459],0x0        # 209010 <ok>
1bb7:	83 05 f2 74 20 00 01 	add    DWORD PTR [rip+0x2074f2],0x1        # 2090b0 <optind@@GLIBC_2.2.5>
1bbe:	48 63 05 eb 74 20 00 	movsxd rax,DWORD PTR [rip+0x2074eb]        # 2090b0 <optind@@GLIBC_2.2.5>
1bc5:	48 63 d0             	movsxd rdx,eax
1bc8:	48 39 ea             	cmp    rdx,rbp
1bcb:	0f 83 ea 00 00 00    	jae    1cbb <main+0x32b>
1bd1:	48 8b 3c d3          	mov    rdi,QWORD PTR [rbx+rdx*8]
1bd5:	80 3f 00             	cmp    BYTE PTR [rdi],0x0
1bd8:	74 9e                	je     1b78 <main+0x1e8>
1bda:	45 31 c0             	xor    r8d,r8d
1bdd:	31 c9                	xor    ecx,ecx
1bdf:	31 d2                	xor    edx,edx
1be1:	4c 89 e6             	mov    rsi,r12
1be4:	e8 67 32 00 00       	call   4e50 <parse_user_spec>
1be9:	48 85 c0             	test   rax,rax
1bec:	75 83                	jne    1b71 <main+0x1e1>
1bee:	8b 3d 1c 75 20 00    	mov    edi,DWORD PTR [rip+0x20751c]        # 209110 <euid>
1bf4:	e8 a7 fa ff ff       	call   16a0 <getpwuid@plt>
1bf9:	48 85 c0             	test   rax,rax
1bfc:	49 89 c5             	mov    r13,rax
1bff:	0f 84 6c ff ff ff    	je     1b71 <main+0x1e1>
1c05:	48 8b 38             	mov    rdi,QWORD PTR [rax]
1c08:	e8 63 3b 00 00       	call   5770 <xstrdup>
1c0d:	49 89 c6             	mov    r14,rax
1c10:	41 8b 45 10          	mov    eax,DWORD PTR [r13+0x10]
1c14:	4c 89 f7             	mov    rdi,r14
1c17:	89 05 f3 74 20 00    	mov    DWORD PTR [rip+0x2074f3],eax        # 209110 <euid>
1c1d:	89 05 f1 74 20 00    	mov    DWORD PTR [rip+0x2074f1],eax        # 209114 <ruid>
1c23:	41 8b 45 14          	mov    eax,DWORD PTR [r13+0x14]
1c27:	89 05 db 74 20 00    	mov    DWORD PTR [rip+0x2074db],eax        # 209108 <egid>
1c2d:	89 05 d9 74 20 00    	mov    DWORD PTR [rip+0x2074d9],eax        # 20910c <rgid>
1c33:	e8 18 04 00 00       	call   2050 <print_stuff>
1c38:	4c 89 f7             	mov    rdi,r14
1c3b:	e8 e0 f9 ff ff       	call   1620 <free@plt>
1c40:	e9 72 ff ff ff       	jmp    1bb7 <main+0x227>
1c45:	45 84 e4             	test   r12b,r12b
1c48:	0f 85 13 01 00 00    	jne    1d61 <main+0x3d1>
1c4e:	45 09 ee             	or     r14d,r13d
1c51:	e8 ea f9 ff ff       	call   1640 <__errno_location@plt>
1c56:	45 84 f6             	test   r14b,r14b
1c59:	48 89 c3             	mov    rbx,rax
1c5c:	0f 84 6e 01 00 00    	je     1dd0 <main+0x440>
1c62:	e8 d9 f9 ff ff       	call   1640 <__errno_location@plt>
1c67:	45 84 ed             	test   r13b,r13b
1c6a:	48 89 c3             	mov    rbx,rax
1c6d:	0f 84 85 01 00 00    	je     1df8 <main+0x468>
1c73:	e8 c8 f9 ff ff       	call   1640 <__errno_location@plt>
1c78:	c7 00 00 00 00 00    	mov    DWORD PTR [rax],0x0
1c7e:	48 89 c3             	mov    rbx,rax
1c81:	e8 fa fb ff ff       	call   1880 <getegid@plt>
1c86:	89 05 7c 74 20 00    	mov    DWORD PTR [rip+0x20747c],eax        # 209108 <egid>
1c8c:	83 c0 01             	add    eax,0x1
1c8f:	75 09                	jne    1c9a <main+0x30a>
1c91:	83 3b 00             	cmp    DWORD PTR [rbx],0x0
1c94:	0f 85 7b 02 00 00    	jne    1f15 <main+0x585>
1c9a:	c7 03 00 00 00 00    	mov    DWORD PTR [rbx],0x0
1ca0:	e8 7b fb ff ff       	call   1820 <getgid@plt>
1ca5:	89 05 61 74 20 00    	mov    DWORD PTR [rip+0x207461],eax        # 20910c <rgid>
1cab:	83 c0 01             	add    eax,0x1
1cae:	0f 84 ef 00 00 00    	je     1da3 <main+0x413>
1cb4:	31 ff                	xor    edi,edi
1cb6:	e8 95 03 00 00       	call   2050 <print_stuff>
1cbb:	0f b6 05 4e 73 20 00 	movzx  eax,BYTE PTR [rip+0x20734e]        # 209010 <ok>
1cc2:	5b                   	pop    rbx
1cc3:	5d                   	pop    rbp
1cc4:	41 5c                	pop    r12
1cc6:	83 f0 01             	xor    eax,0x1
1cc9:	0f b6 c0             	movzx  eax,al
1ccc:	41 5d                	pop    r13
1cce:	41 5e                	pop    r14
1cd0:	c3                   	ret
1cd1:	80 3d 43 74 20 00 00 	cmp    BYTE PTR [rip+0x207443],0x0        # 20911b <use_real>
1cd8:	0f 85 ef 01 00 00    	jne    1ecd <main+0x53d>
1cde:	80 3d 33 74 20 00 00 	cmp    BYTE PTR [rip+0x207433],0x0        # 209118 <use_name>
1ce5:	0f 85 e2 01 00 00    	jne    1ecd <main+0x53d>
1ceb:	80 3d 2c 74 20 00 00 	cmp    BYTE PTR [rip+0x20742c],0x0        # 20911e <opt_zero>
1cf2:	0f 85 b1 01 00 00    	jne    1ea9 <main+0x519>
1cf8:	48 85 ed             	test   rbp,rbp
1cfb:	0f 85 56 fe ff ff    	jne    1b57 <main+0x1c7>
1d01:	48 8d 3d 9c 4b 00 00 	lea    rdi,[rip+0x4b9c]        # 68a4 <_IO_stdin_used+0x684>
1d08:	e8 03 f9 ff ff       	call   1610 <getenv@plt>
1d0d:	45 84 e4             	test   r12b,r12b
1d10:	0f 84 38 ff ff ff    	je     1c4e <main+0x2be>
1d16:	e8 25 f9 ff ff       	call   1640 <__errno_location@plt>
1d1b:	c7 00 00 00 00 00    	mov    DWORD PTR [rax],0x0
1d21:	48 89 c3             	mov    rbx,rax
1d24:	e8 77 fa ff ff       	call   17a0 <geteuid@plt>
1d29:	89 05 e1 73 20 00    	mov    DWORD PTR [rip+0x2073e1],eax        # 209110 <euid>
1d2f:	83 c0 01             	add    eax,0x1
1d32:	75 80                	jne    1cb4 <main+0x324>
1d34:	83 3b 00             	cmp    DWORD PTR [rbx],0x0
1d37:	0f 84 14 01 00 00    	je     1e51 <main+0x4c1>
1d3d:	48 8d 35 81 4b 00 00 	lea    rsi,[rip+0x4b81]        # 68c5 <_IO_stdin_used+0x6a5>
1d44:	ba 05 00 00 00       	mov    edx,0x5
1d49:	31 ff                	xor    edi,edi
1d4b:	e8 70 f9 ff ff       	call   16c0 <dcgettext@plt>
1d50:	8b 33                	mov    esi,DWORD PTR [rbx]
1d52:	48 89 c2             	mov    rdx,rax
1d55:	bf 01 00 00 00       	mov    edi,0x1
1d5a:	31 c0                	xor    eax,eax
1d5c:	e8 6f fb ff ff       	call   18d0 <error@plt>
1d61:	80 3d b3 73 20 00 00 	cmp    BYTE PTR [rip+0x2073b3],0x0        # 20911b <use_real>
1d68:	74 ac                	je     1d16 <main+0x386>
1d6a:	e8 d1 f8 ff ff       	call   1640 <__errno_location@plt>
1d6f:	c7 00 00 00 00 00    	mov    DWORD PTR [rax],0x0
1d75:	48 89 c3             	mov    rbx,rax
1d78:	e8 83 f9 ff ff       	call   1700 <getuid@plt>
1d7d:	89 05 91 73 20 00    	mov    DWORD PTR [rip+0x207391],eax        # 209114 <ruid>
1d83:	83 c0 01             	add    eax,0x1
1d86:	0f 85 28 ff ff ff    	jne    1cb4 <main+0x324>
1d8c:	83 3b 00             	cmp    DWORD PTR [rbx],0x0
1d8f:	0f 85 5c 01 00 00    	jne    1ef1 <main+0x561>
1d95:	45 84 e4             	test   r12b,r12b
1d98:	0f 84 d5 fe ff ff    	je     1c73 <main+0x2e3>
1d9e:	e9 11 ff ff ff       	jmp    1cb4 <main+0x324>
1da3:	83 3b 00             	cmp    DWORD PTR [rbx],0x0
1da6:	0f 84 08 ff ff ff    	je     1cb4 <main+0x324>
1dac:	48 8d 35 58 4b 00 00 	lea    rsi,[rip+0x4b58]        # 690b <_IO_stdin_used+0x6eb>
1db3:	ba 05 00 00 00       	mov    edx,0x5
1db8:	31 ff                	xor    edi,edi
1dba:	e8 01 f9 ff ff       	call   16c0 <dcgettext@plt>
1dbf:	8b 33                	mov    esi,DWORD PTR [rbx]
1dc1:	48 89 c2             	mov    rdx,rax
1dc4:	bf 01 00 00 00       	mov    edi,0x1
1dc9:	31 c0                	xor    eax,eax
1dcb:	e8 00 fb ff ff       	call   18d0 <error@plt>
1dd0:	c7 00 00 00 00 00    	mov    DWORD PTR [rax],0x0
1dd6:	e8 c5 f9 ff ff       	call   17a0 <geteuid@plt>
1ddb:	89 05 2f 73 20 00    	mov    DWORD PTR [rip+0x20732f],eax        # 209110 <euid>
1de1:	83 c0 01             	add    eax,0x1
1de4:	0f 85 78 fe ff ff    	jne    1c62 <main+0x2d2>
1dea:	83 3b 00             	cmp    DWORD PTR [rbx],0x0
1ded:	0f 84 6f fe ff ff    	je     1c62 <main+0x2d2>
1df3:	e9 45 ff ff ff       	jmp    1d3d <main+0x3ad>
1df8:	c7 00 00 00 00 00    	mov    DWORD PTR [rax],0x0
1dfe:	e8 fd f8 ff ff       	call   1700 <getuid@plt>
1e03:	89 05 0b 73 20 00    	mov    DWORD PTR [rip+0x20730b],eax        # 209114 <ruid>
1e09:	83 c0 01             	add    eax,0x1
1e0c:	0f 85 61 fe ff ff    	jne    1c73 <main+0x2e3>
1e12:	e9 75 ff ff ff       	jmp    1d8c <main+0x3fc>
1e17:	83 f8 5a             	cmp    eax,0x5a
1e1a:	75 24                	jne    1e40 <main+0x4b0>
1e1c:	48 8d 35 a5 48 00 00 	lea    rsi,[rip+0x48a5]        # 66c8 <_IO_stdin_used+0x4a8>
1e23:	ba 05 00 00 00       	mov    edx,0x5
1e28:	31 ff                	xor    edi,edi
1e2a:	e8 91 f8 ff ff       	call   16c0 <dcgettext@plt>
1e2f:	31 f6                	xor    esi,esi
1e31:	48 89 c2             	mov    rdx,rax
1e34:	bf 01 00 00 00       	mov    edi,0x1
1e39:	31 c0                	xor    eax,eax
1e3b:	e8 90 fa ff ff       	call   18d0 <error@plt>
1e40:	bf 01 00 00 00       	mov    edi,0x1
1e45:	e8 a6 07 00 00       	call   25f0 <usage>
1e4a:	31 ff                	xor    edi,edi
1e4c:	e8 9f 07 00 00       	call   25f0 <usage>
1e51:	80 3d c3 72 20 00 00 	cmp    BYTE PTR [rip+0x2072c3],0x0        # 20911b <use_real>
1e58:	0f 84 56 fe ff ff    	je     1cb4 <main+0x324>
1e5e:	e8 dd f7 ff ff       	call   1640 <__errno_location@plt>
1e63:	c7 00 00 00 00 00    	mov    DWORD PTR [rax],0x0
1e69:	48 89 c3             	mov    rbx,rax
1e6c:	e8 8f f8 ff ff       	call   1700 <getuid@plt>
1e71:	89 05 9d 72 20 00    	mov    DWORD PTR [rip+0x20729d],eax        # 209114 <ruid>
1e77:	83 c0 01             	add    eax,0x1
1e7a:	0f 85 15 ff ff ff    	jne    1d95 <main+0x405>
1e80:	e9 07 ff ff ff       	jmp    1d8c <main+0x3fc>
1e85:	48 8d 35 74 48 00 00 	lea    rsi,[rip+0x4874]        # 6700 <_IO_stdin_used+0x4e0>
1e8c:	ba 05 00 00 00       	mov    edx,0x5
1e91:	31 ff                	xor    edi,edi
1e93:	e8 28 f8 ff ff       	call   16c0 <dcgettext@plt>
1e98:	31 f6                	xor    esi,esi
1e9a:	48 89 c2             	mov    rdx,rax
1e9d:	bf 01 00 00 00       	mov    edi,0x1
1ea2:	31 c0                	xor    eax,eax
1ea4:	e8 27 fa ff ff       	call   18d0 <error@plt>
1ea9:	48 8d 35 b8 48 00 00 	lea    rsi,[rip+0x48b8]        # 6768 <_IO_stdin_used+0x548>
1eb0:	ba 05 00 00 00       	mov    edx,0x5
1eb5:	31 ff                	xor    edi,edi
1eb7:	e8 04 f8 ff ff       	call   16c0 <dcgettext@plt>
1ebc:	31 f6                	xor    esi,esi
1ebe:	48 89 c2             	mov    rdx,rax
1ec1:	bf 01 00 00 00       	mov    edi,0x1
1ec6:	31 c0                	xor    eax,eax
1ec8:	e8 03 fa ff ff       	call   18d0 <error@plt>
1ecd:	48 8d 35 5c 48 00 00 	lea    rsi,[rip+0x485c]        # 6730 <_IO_stdin_used+0x510>
1ed4:	ba 05 00 00 00       	mov    edx,0x5
1ed9:	31 ff                	xor    edi,edi
1edb:	e8 e0 f7 ff ff       	call   16c0 <dcgettext@plt>
1ee0:	31 f6                	xor    esi,esi
1ee2:	48 89 c2             	mov    rdx,rax
1ee5:	bf 01 00 00 00       	mov    edi,0x1
1eea:	31 c0                	xor    eax,eax
1eec:	e8 df f9 ff ff       	call   18d0 <error@plt>
1ef1:	48 8d 35 e6 49 00 00 	lea    rsi,[rip+0x49e6]        # 68de <_IO_stdin_used+0x6be>
1ef8:	ba 05 00 00 00       	mov    edx,0x5
1efd:	31 ff                	xor    edi,edi
1eff:	e8 bc f7 ff ff       	call   16c0 <dcgettext@plt>
1f04:	8b 33                	mov    esi,DWORD PTR [rbx]
1f06:	48 89 c2             	mov    rdx,rax
1f09:	bf 01 00 00 00       	mov    edi,0x1
1f0e:	31 c0                	xor    eax,eax
1f10:	e8 bb f9 ff ff       	call   18d0 <error@plt>
1f15:	48 8d 35 d6 49 00 00 	lea    rsi,[rip+0x49d6]        # 68f2 <_IO_stdin_used+0x6d2>
1f1c:	ba 05 00 00 00       	mov    edx,0x5
1f21:	31 ff                	xor    edi,edi
1f23:	e8 98 f7 ff ff       	call   16c0 <dcgettext@plt>
1f28:	8b 33                	mov    esi,DWORD PTR [rbx]
1f2a:	48 89 c2             	mov    rdx,rax
1f2d:	bf 01 00 00 00       	mov    edi,0x1
1f32:	31 c0                	xor    eax,eax
1f34:	e8 97 f9 ff ff       	call   18d0 <error@plt>
1f39:	0f 1f 80 00 00 00 00 	nop    DWORD PTR [rax+0x0]

0000000000001f40 <_start>:
1f40:	31 ed                	xor    ebp,ebp
1f42:	49 89 d1             	mov    r9,rdx
1f45:	5e                   	pop    rsi
1f46:	48 89 e2             	mov    rdx,rsp
1f49:	48 83 e4 f0          	and    rsp,0xfffffffffffffff0
1f4d:	50                   	push   rax
1f4e:	54                   	push   rsp
1f4f:	4c 8d 05 9a 42 00 00 	lea    r8,[rip+0x429a]        # 61f0 <__libc_csu_fini>
1f56:	48 8d 0d 23 42 00 00 	lea    rcx,[rip+0x4223]        # 6180 <__libc_csu_init>
1f5d:	48 8d 3d 2c fa ff ff 	lea    rdi,[rip+0xfffffffffffffa2c]        # 1990 <main>
1f64:	ff 15 5e 70 20 00    	call   QWORD PTR [rip+0x20705e]        # 208fc8 <__libc_start_main@GLIBC_2.2.5>
1f6a:	f4                   	hlt
1f6b:	0f 1f 44 00 00       	nop    DWORD PTR [rax+rax*1+0x0]

0000000000001f70 <deregister_tm_clones>:
1f70:	48 8d 3d 29 71 20 00 	lea    rdi,[rip+0x207129]        # 2090a0 <__progname@@GLIBC_2.2.5>
1f77:	55                   	push   rbp
1f78:	48 8d 05 21 71 20 00 	lea    rax,[rip+0x207121]        # 2090a0 <__progname@@GLIBC_2.2.5>
1f7f:	48 39 f8             	cmp    rax,rdi
1f82:	48 89 e5             	mov    rbp,rsp
1f85:	74 19                	je     1fa0 <deregister_tm_clones+0x30>
1f87:	48 8b 05 32 70 20 00 	mov    rax,QWORD PTR [rip+0x207032]        # 208fc0 <_ITM_deregisterTMCloneTable>
1f8e:	48 85 c0             	test   rax,rax
1f91:	74 0d                	je     1fa0 <deregister_tm_clones+0x30>
1f93:	5d                   	pop    rbp
1f94:	ff e0                	jmp    rax
1f96:	66 2e 0f 1f 84 00 00 	nop    WORD PTR cs:[rax+rax*1+0x0]
1f9d:	00 00 00
1fa0:	5d                   	pop    rbp
1fa1:	c3                   	ret
1fa2:	0f 1f 40 00          	nop    DWORD PTR [rax+0x0]
1fa6:	66 2e 0f 1f 84 00 00 	nop    WORD PTR cs:[rax+rax*1+0x0]
1fad:	00 00 00

0000000000001fb0 <register_tm_clones>:
1fb0:	48 8d 3d e9 70 20 00 	lea    rdi,[rip+0x2070e9]        # 2090a0 <__progname@@GLIBC_2.2.5>
1fb7:	48 8d 35 e2 70 20 00 	lea    rsi,[rip+0x2070e2]        # 2090a0 <__progname@@GLIBC_2.2.5>
1fbe:	55                   	push   rbp
1fbf:	48 29 fe             	sub    rsi,rdi
1fc2:	48 89 e5             	mov    rbp,rsp
1fc5:	48 c1 fe 03          	sar    rsi,0x3
1fc9:	48 89 f0             	mov    rax,rsi
1fcc:	48 c1 e8 3f          	shr    rax,0x3f
1fd0:	48 01 c6             	add    rsi,rax
1fd3:	48 d1 fe             	sar    rsi,1
1fd6:	74 18                	je     1ff0 <register_tm_clones+0x40>
1fd8:	48 8b 05 f9 6f 20 00 	mov    rax,QWORD PTR [rip+0x206ff9]        # 208fd8 <_ITM_registerTMCloneTable>
1fdf:	48 85 c0             	test   rax,rax
1fe2:	74 0c                	je     1ff0 <register_tm_clones+0x40>
1fe4:	5d                   	pop    rbp
1fe5:	ff e0                	jmp    rax
1fe7:	66 0f 1f 84 00 00 00 	nop    WORD PTR [rax+rax*1+0x0]
1fee:	00 00
1ff0:	5d                   	pop    rbp
1ff1:	c3                   	ret
1ff2:	0f 1f 40 00          	nop    DWORD PTR [rax+0x0]
1ff6:	66 2e 0f 1f 84 00 00 	nop    WORD PTR cs:[rax+rax*1+0x0]
1ffd:	00 00 00

0000000000002000 <__do_global_dtors_aux>:
2000:	80 3d c1 70 20 00 00 	cmp    BYTE PTR [rip+0x2070c1],0x0        # 2090c8 <completed.7697>
2007:	75 2f                	jne    2038 <__do_global_dtors_aux+0x38>
2009:	48 83 3d cf 6f 20 00 	cmp    QWORD PTR [rip+0x206fcf],0x0        # 208fe0 <__cxa_finalize@GLIBC_2.2.5>
2010:	00
2011:	55                   	push   rbp
2012:	48 89 e5             	mov    rbp,rsp
2015:	74 0c                	je     2023 <__do_global_dtors_aux+0x23>
2017:	48 8b 3d ea 6f 20 00 	mov    rdi,QWORD PTR [rip+0x206fea]        # 209008 <__dso_handle>
201e:	e8 5d f9 ff ff       	call   1980 <__cxa_finalize@plt>
2023:	e8 48 ff ff ff       	call   1f70 <deregister_tm_clones>
2028:	c6 05 99 70 20 00 01 	mov    BYTE PTR [rip+0x207099],0x1        # 2090c8 <completed.7697>
202f:	5d                   	pop    rbp
2030:	c3                   	ret
2031:	0f 1f 80 00 00 00 00 	nop    DWORD PTR [rax+0x0]
2038:	f3 c3                	repz ret
203a:	66 0f 1f 44 00 00    	nop    WORD PTR [rax+rax*1+0x0]

0000000000002040 <frame_dummy>:
2040:	55                   	push   rbp
2041:	48 89 e5             	mov    rbp,rsp
2044:	5d                   	pop    rbp
2045:	e9 66 ff ff ff       	jmp    1fb0 <register_tm_clones>
204a:	66 0f 1f 44 00 00    	nop    WORD PTR [rax+rax*1+0x0]

0000000000002050 <print_stuff>:
2050:	41 56                	push   r14
2052:	41 55                	push   r13
2054:	41 54                	push   r12
2056:	55                   	push   rbp
2057:	53                   	push   rbx
2058:	48 83 ec 10          	sub    rsp,0x10
205c:	64 48 8b 04 25 28 00 	mov    rax,QWORD PTR fs:0x28
2063:	00 00
2065:	48 89 44 24 08       	mov    QWORD PTR [rsp+0x8],rax
206a:	31 c0                	xor    eax,eax
206c:	80 3d a7 70 20 00 00 	cmp    BYTE PTR [rip+0x2070a7],0x0        # 20911a <just_user>
2073:	0f 84 af 00 00 00    	je     2128 <print_stuff+0xd8>
2079:	80 3d 9b 70 20 00 00 	cmp    BYTE PTR [rip+0x20709b],0x0        # 20911b <use_real>
2080:	8b 1d 8a 70 20 00    	mov    ebx,DWORD PTR [rip+0x20708a]        # 209110 <euid>
2086:	74 06                	je     208e <print_stuff+0x3e>
2088:	8b 1d 86 70 20 00    	mov    ebx,DWORD PTR [rip+0x207086]        # 209114 <ruid>
208e:	80 3d 83 70 20 00 00 	cmp    BYTE PTR [rip+0x207083],0x0        # 209118 <use_name>
2095:	0f 85 c5 00 00 00    	jne    2160 <print_stuff+0x110>
209b:	48 8d 35 4e 70 20 00 	lea    rsi,[rip+0x20704e]        # 2090f0 <buf.7126>
20a2:	48 89 df             	mov    rdi,rbx
20a5:	e8 56 0c 00 00       	call   2d00 <umaxtostr>
20aa:	48 89 c7             	mov    rdi,rax
20ad:	48 8b 35 f4 6f 20 00 	mov    rsi,QWORD PTR [rip+0x206ff4]        # 2090a8 <stdout@@GLIBC_2.2.5>
20b4:	e8 07 f7 ff ff       	call   17c0 <fputs_unlocked@plt>
20b9:	80 3d 5e 70 20 00 00 	cmp    BYTE PTR [rip+0x20705e],0x0        # 20911e <opt_zero>
20c0:	48 8b 3d e1 6f 20 00 	mov    rdi,QWORD PTR [rip+0x206fe1]        # 2090a8 <stdout@@GLIBC_2.2.5>
20c7:	48 8b 47 28          	mov    rax,QWORD PTR [rdi+0x28]
20cb:	48 8b 57 30          	mov    rdx,QWORD PTR [rdi+0x30]
20cf:	0f 84 fb 00 00 00    	je     21d0 <print_stuff+0x180>
20d5:	80 3d 41 70 20 00 00 	cmp    BYTE PTR [rip+0x207041],0x0        # 20911d <just_group_list>
20dc:	74 0d                	je     20eb <print_stuff+0x9b>
20de:	80 3d 34 70 20 00 00 	cmp    BYTE PTR [rip+0x207034],0x0        # 209119 <multiple_users>
20e5:	0f 85 f5 00 00 00    	jne    21e0 <print_stuff+0x190>
20eb:	31 f6                	xor    esi,esi
20ed:	48 39 d0             	cmp    rax,rdx
20f0:	0f 83 52 02 00 00    	jae    2348 <print_stuff+0x2f8>
20f6:	48 8d 50 01          	lea    rdx,[rax+0x1]
20fa:	48 89 57 28          	mov    QWORD PTR [rdi+0x28],rdx
20fe:	40 88 30             	mov    BYTE PTR [rax],sil
2101:	48 8b 44 24 08       	mov    rax,QWORD PTR [rsp+0x8]
2106:	64 48 33 04 25 28 00 	xor    rax,QWORD PTR fs:0x28
210d:	00 00
210f:	0f 85 c7 04 00 00    	jne    25dc <print_stuff+0x58c>
2115:	48 83 c4 10          	add    rsp,0x10
2119:	5b                   	pop    rbx
211a:	5d                   	pop    rbp
211b:	41 5c                	pop    r12
211d:	41 5d                	pop    r13
211f:	41 5e                	pop    r14
2121:	c3                   	ret
2122:	66 0f 1f 44 00 00    	nop    WORD PTR [rax+rax*1+0x0]
2128:	80 3d ed 6f 20 00 00 	cmp    BYTE PTR [rip+0x206fed],0x0        # 20911c <just_group>
212f:	74 4f                	je     2180 <print_stuff+0x130>
2131:	80 3d e3 6f 20 00 00 	cmp    BYTE PTR [rip+0x206fe3],0x0        # 20911b <use_real>
2138:	0f b6 35 d9 6f 20 00 	movzx  esi,BYTE PTR [rip+0x206fd9]        # 209118 <use_name>
213f:	8b 3d c3 6f 20 00    	mov    edi,DWORD PTR [rip+0x206fc3]        # 209108 <egid>
2145:	74 06                	je     214d <print_stuff+0xfd>
2147:	8b 3d bf 6f 20 00    	mov    edi,DWORD PTR [rip+0x206fbf]        # 20910c <rgid>
214d:	e8 2e 08 00 00       	call   2980 <print_group>
2152:	20 05 b8 6e 20 00    	and    BYTE PTR [rip+0x206eb8],al        # 209010 <ok>
2158:	e9 5c ff ff ff       	jmp    20b9 <print_stuff+0x69>
215d:	0f 1f 00             	nop    DWORD PTR [rax]
2160:	89 df                	mov    edi,ebx
2162:	e8 39 f5 ff ff       	call   16a0 <getpwuid@plt>
2167:	48 85 c0             	test   rax,rax
216a:	0f 84 10 03 00 00    	je     2480 <print_stuff+0x430>
2170:	48 8b 38             	mov    rdi,QWORD PTR [rax]
2173:	e9 35 ff ff ff       	jmp    20ad <print_stuff+0x5d>
2178:	0f 1f 84 00 00 00 00 	nop    DWORD PTR [rax+rax*1+0x0]
217f:	00
2180:	80 3d 96 6f 20 00 00 	cmp    BYTE PTR [rip+0x206f96],0x0        # 20911d <just_group_list>
2187:	48 89 fb             	mov    rbx,rdi
218a:	8b 35 84 6f 20 00    	mov    esi,DWORD PTR [rip+0x206f84]        # 209114 <ruid>
2190:	0f 84 8a 00 00 00    	je     2220 <print_stuff+0x1d0>
2196:	45 31 c9             	xor    r9d,r9d
2199:	80 3d 7e 6f 20 00 00 	cmp    BYTE PTR [rip+0x206f7e],0x0        # 20911e <opt_zero>
21a0:	44 0f b6 05 70 6f 20 	movzx  r8d,BYTE PTR [rip+0x206f70]        # 209118 <use_name>
21a7:	00
21a8:	8b 0d 5a 6f 20 00    	mov    ecx,DWORD PTR [rip+0x206f5a]        # 209108 <egid>
21ae:	8b 15 58 6f 20 00    	mov    edx,DWORD PTR [rip+0x206f58]        # 20910c <rgid>
21b4:	41 0f 94 c1          	sete   r9b
21b8:	41 c1 e1 05          	shl    r9d,0x5
21bc:	e8 3f 08 00 00       	call   2a00 <print_group_list>
21c1:	20 05 49 6e 20 00    	and    BYTE PTR [rip+0x206e49],al        # 209010 <ok>
21c7:	e9 ed fe ff ff       	jmp    20b9 <print_stuff+0x69>
21cc:	0f 1f 40 00          	nop    DWORD PTR [rax+0x0]
21d0:	be 0a 00 00 00       	mov    esi,0xa
21d5:	e9 13 ff ff ff       	jmp    20ed <print_stuff+0x9d>
21da:	66 0f 1f 44 00 00    	nop    WORD PTR [rax+rax*1+0x0]
21e0:	48 39 d0             	cmp    rax,rdx
21e3:	0f 83 e7 03 00 00    	jae    25d0 <print_stuff+0x580>
21e9:	48 8d 50 01          	lea    rdx,[rax+0x1]
21ed:	48 89 57 28          	mov    QWORD PTR [rdi+0x28],rdx
21f1:	c6 00 00             	mov    BYTE PTR [rax],0x0
21f4:	48 8b 3d ad 6e 20 00 	mov    rdi,QWORD PTR [rip+0x206ead]        # 2090a8 <stdout@@GLIBC_2.2.5>
21fb:	48 8b 47 28          	mov    rax,QWORD PTR [rdi+0x28]
21ff:	48 3b 47 30          	cmp    rax,QWORD PTR [rdi+0x30]
2203:	0f 83 b7 03 00 00    	jae    25c0 <print_stuff+0x570>
2209:	48 8d 50 01          	lea    rdx,[rax+0x1]
220d:	48 89 57 28          	mov    QWORD PTR [rdi+0x28],rdx
2211:	c6 00 00             	mov    BYTE PTR [rax],0x0
2214:	e9 e8 fe ff ff       	jmp    2101 <print_stuff+0xb1>
2219:	0f 1f 80 00 00 00 00 	nop    DWORD PTR [rax+0x0]
2220:	89 f7                	mov    edi,esi
2222:	48 8d 35 c7 6e 20 00 	lea    rsi,[rip+0x206ec7]        # 2090f0 <buf.7126>
2229:	e8 d2 0a 00 00       	call   2d00 <umaxtostr>
222e:	48 8d 35 70 45 00 00 	lea    rsi,[rip+0x4570]        # 67a5 <_IO_stdin_used+0x585>
2235:	48 89 c5             	mov    rbp,rax
2238:	31 ff                	xor    edi,edi
223a:	ba 05 00 00 00       	mov    edx,0x5
223f:	e8 7c f4 ff ff       	call   16c0 <dcgettext@plt>
2244:	48 89 ea             	mov    rdx,rbp
2247:	48 89 c6             	mov    rsi,rax
224a:	bf 01 00 00 00       	mov    edi,0x1
224f:	31 c0                	xor    eax,eax
2251:	e8 6a f6 ff ff       	call   18c0 <__printf_chk@plt>
2256:	8b 3d b8 6e 20 00    	mov    edi,DWORD PTR [rip+0x206eb8]        # 209114 <ruid>
225c:	e8 3f f4 ff ff       	call   16a0 <getpwuid@plt>
2261:	48 85 c0             	test   rax,rax
2264:	48 89 c5             	mov    rbp,rax
2267:	74 16                	je     227f <print_stuff+0x22f>
2269:	48 8b 10             	mov    rdx,QWORD PTR [rax]
226c:	48 8d 35 23 45 00 00 	lea    rsi,[rip+0x4523]        # 6796 <_IO_stdin_used+0x576>
2273:	bf 01 00 00 00       	mov    edi,0x1
2278:	31 c0                	xor    eax,eax
227a:	e8 41 f6 ff ff       	call   18c0 <__printf_chk@plt>
227f:	8b 3d 87 6e 20 00    	mov    edi,DWORD PTR [rip+0x206e87]        # 20910c <rgid>
2285:	48 8d 35 44 6e 20 00 	lea    rsi,[rip+0x206e44]        # 2090d0 <buf.7122>
228c:	e8 6f 0a 00 00       	call   2d00 <umaxtostr>
2291:	48 8d 35 03 45 00 00 	lea    rsi,[rip+0x4503]        # 679b <_IO_stdin_used+0x57b>
2298:	31 ff                	xor    edi,edi
229a:	49 89 c4             	mov    r12,rax
229d:	ba 05 00 00 00       	mov    edx,0x5
22a2:	e8 19 f4 ff ff       	call   16c0 <dcgettext@plt>
22a7:	4c 89 e2             	mov    rdx,r12
22aa:	48 89 c6             	mov    rsi,rax
22ad:	bf 01 00 00 00       	mov    edi,0x1
22b2:	31 c0                	xor    eax,eax
22b4:	e8 07 f6 ff ff       	call   18c0 <__printf_chk@plt>
22b9:	8b 3d 4d 6e 20 00    	mov    edi,DWORD PTR [rip+0x206e4d]        # 20910c <rgid>
22bf:	e8 7c f4 ff ff       	call   1740 <getgrgid@plt>
22c4:	48 85 c0             	test   rax,rax
22c7:	74 16                	je     22df <print_stuff+0x28f>
22c9:	48 8b 10             	mov    rdx,QWORD PTR [rax]
22cc:	48 8d 35 c3 44 00 00 	lea    rsi,[rip+0x44c3]        # 6796 <_IO_stdin_used+0x576>
22d3:	bf 01 00 00 00       	mov    edi,0x1
22d8:	31 c0                	xor    eax,eax
22da:	e8 e1 f5 ff ff       	call   18c0 <__printf_chk@plt>
22df:	8b 3d 2b 6e 20 00    	mov    edi,DWORD PTR [rip+0x206e2b]        # 209110 <euid>
22e5:	3b 3d 29 6e 20 00    	cmp    edi,DWORD PTR [rip+0x206e29]        # 209114 <ruid>
22eb:	0f 85 cf 00 00 00    	jne    23c0 <print_stuff+0x370>
22f1:	8b 3d 11 6e 20 00    	mov    edi,DWORD PTR [rip+0x206e11]        # 209108 <egid>
22f7:	3b 3d 0f 6e 20 00    	cmp    edi,DWORD PTR [rip+0x206e0f]        # 20910c <rgid>
22fd:	75 59                	jne    2358 <print_stuff+0x308>
22ff:	48 85 db             	test   rbx,rbx
2302:	48 89 e2             	mov    rdx,rsp
2305:	0f 84 25 01 00 00    	je     2430 <print_stuff+0x3e0>
230b:	48 85 ed             	test   rbp,rbp
230e:	be ff ff ff ff       	mov    esi,0xffffffff
2313:	74 03                	je     2318 <print_stuff+0x2c8>
2315:	8b 75 14             	mov    esi,DWORD PTR [rbp+0x14]
2318:	48 89 df             	mov    rdi,rbx
231b:	e8 b0 34 00 00       	call   57d0 <xgetgroups>
2320:	85 c0                	test   eax,eax
2322:	41 89 c4             	mov    r12d,eax
2325:	0f 88 55 02 00 00    	js     2580 <print_stuff+0x530>
232b:	45 85 e4             	test   r12d,r12d
232e:	0f 85 94 01 00 00    	jne    24c8 <print_stuff+0x478>
2334:	48 8b 3c 24          	mov    rdi,QWORD PTR [rsp]
2338:	e8 e3 f2 ff ff       	call   1620 <free@plt>
233d:	e9 77 fd ff ff       	jmp    20b9 <print_stuff+0x69>
2342:	66 0f 1f 44 00 00    	nop    WORD PTR [rax+rax*1+0x0]
2348:	e8 03 f4 ff ff       	call   1750 <__overflow@plt>
234d:	e9 af fd ff ff       	jmp    2101 <print_stuff+0xb1>
2352:	66 0f 1f 44 00 00    	nop    WORD PTR [rax+rax*1+0x0]
2358:	48 8d 35 71 6d 20 00 	lea    rsi,[rip+0x206d71]        # 2090d0 <buf.7122>
235f:	e8 9c 09 00 00       	call   2d00 <umaxtostr>
2364:	48 8d 35 41 44 00 00 	lea    rsi,[rip+0x4441]        # 67ac <_IO_stdin_used+0x58c>
236b:	31 ff                	xor    edi,edi
236d:	49 89 c4             	mov    r12,rax
2370:	ba 05 00 00 00       	mov    edx,0x5
2375:	e8 46 f3 ff ff       	call   16c0 <dcgettext@plt>
237a:	4c 89 e2             	mov    rdx,r12
237d:	48 89 c6             	mov    rsi,rax
2380:	bf 01 00 00 00       	mov    edi,0x1
2385:	31 c0                	xor    eax,eax
2387:	e8 34 f5 ff ff       	call   18c0 <__printf_chk@plt>
238c:	8b 3d 76 6d 20 00    	mov    edi,DWORD PTR [rip+0x206d76]        # 209108 <egid>
2392:	e8 a9 f3 ff ff       	call   1740 <getgrgid@plt>
2397:	48 85 c0             	test   rax,rax
239a:	0f 84 5f ff ff ff    	je     22ff <print_stuff+0x2af>
23a0:	48 8b 10             	mov    rdx,QWORD PTR [rax]
23a3:	48 8d 35 ec 43 00 00 	lea    rsi,[rip+0x43ec]        # 6796 <_IO_stdin_used+0x576>
23aa:	bf 01 00 00 00       	mov    edi,0x1
23af:	31 c0                	xor    eax,eax
23b1:	e8 0a f5 ff ff       	call   18c0 <__printf_chk@plt>
23b6:	e9 44 ff ff ff       	jmp    22ff <print_stuff+0x2af>
23bb:	0f 1f 44 00 00       	nop    DWORD PTR [rax+rax*1+0x0]
23c0:	48 8d 35 29 6d 20 00 	lea    rsi,[rip+0x206d29]        # 2090f0 <buf.7126>
23c7:	e8 34 09 00 00       	call   2d00 <umaxtostr>
23cc:	48 8d 35 d0 43 00 00 	lea    rsi,[rip+0x43d0]        # 67a3 <_IO_stdin_used+0x583>
23d3:	48 89 c5             	mov    rbp,rax
23d6:	31 ff                	xor    edi,edi
23d8:	ba 05 00 00 00       	mov    edx,0x5
23dd:	e8 de f2 ff ff       	call   16c0 <dcgettext@plt>
23e2:	48 89 ea             	mov    rdx,rbp
23e5:	48 89 c6             	mov    rsi,rax
23e8:	bf 01 00 00 00       	mov    edi,0x1
23ed:	31 c0                	xor    eax,eax
23ef:	e8 cc f4 ff ff       	call   18c0 <__printf_chk@plt>
23f4:	8b 3d 16 6d 20 00    	mov    edi,DWORD PTR [rip+0x206d16]        # 209110 <euid>
23fa:	e8 a1 f2 ff ff       	call   16a0 <getpwuid@plt>
23ff:	48 85 c0             	test   rax,rax
2402:	48 89 c5             	mov    rbp,rax
2405:	0f 84 e6 fe ff ff    	je     22f1 <print_stuff+0x2a1>
240b:	48 8b 10             	mov    rdx,QWORD PTR [rax]
240e:	48 8d 35 81 43 00 00 	lea    rsi,[rip+0x4381]        # 6796 <_IO_stdin_used+0x576>
2415:	bf 01 00 00 00       	mov    edi,0x1
241a:	31 c0                	xor    eax,eax
241c:	e8 9f f4 ff ff       	call   18c0 <__printf_chk@plt>
2421:	e9 cb fe ff ff       	jmp    22f1 <print_stuff+0x2a1>
2426:	66 2e 0f 1f 84 00 00 	nop    WORD PTR cs:[rax+rax*1+0x0]
242d:	00 00 00
2430:	8b 35 d2 6c 20 00    	mov    esi,DWORD PTR [rip+0x206cd2]        # 209108 <egid>
2436:	31 ff                	xor    edi,edi
2438:	e8 93 33 00 00       	call   57d0 <xgetgroups>
243d:	85 c0                	test   eax,eax
243f:	41 89 c4             	mov    r12d,eax
2442:	0f 89 e3 fe ff ff    	jns    232b <print_stuff+0x2db>
2448:	48 8d 35 21 3e 00 00 	lea    rsi,[rip+0x3e21]        # 6270 <_IO_stdin_used+0x50>
244f:	ba 05 00 00 00       	mov    edx,0x5
2454:	31 ff                	xor    edi,edi
2456:	e8 65 f2 ff ff       	call   16c0 <dcgettext@plt>
245b:	48 89 c3             	mov    rbx,rax
245e:	e8 dd f1 ff ff       	call   1640 <__errno_location@plt>
2463:	8b 30                	mov    esi,DWORD PTR [rax]
2465:	48 89 da             	mov    rdx,rbx
2468:	31 ff                	xor    edi,edi
246a:	31 c0                	xor    eax,eax
246c:	e8 5f f4 ff ff       	call   18d0 <error@plt>
2471:	c6 05 98 6b 20 00 00 	mov    BYTE PTR [rip+0x206b98],0x0        # 209010 <ok>
2478:	e9 3c fc ff ff       	jmp    20b9 <print_stuff+0x69>
247d:	0f 1f 00             	nop    DWORD PTR [rax]
2480:	48 8d 35 69 6c 20 00 	lea    rsi,[rip+0x206c69]        # 2090f0 <buf.7126>
2487:	48 89 df             	mov    rdi,rbx
248a:	e8 71 08 00 00       	call   2d00 <umaxtostr>
248f:	48 8d 35 92 3d 00 00 	lea    rsi,[rip+0x3d92]        # 6228 <_IO_stdin_used+0x8>
2496:	48 89 c5             	mov    rbp,rax
2499:	ba 05 00 00 00       	mov    edx,0x5
249e:	31 ff                	xor    edi,edi
24a0:	e8 1b f2 ff ff       	call   16c0 <dcgettext@plt>
24a5:	48 89 e9             	mov    rcx,rbp
24a8:	48 89 c2             	mov    rdx,rax
24ab:	31 f6                	xor    esi,esi
24ad:	31 ff                	xor    edi,edi
24af:	31 c0                	xor    eax,eax
24b1:	e8 1a f4 ff ff       	call   18d0 <error@plt>
24b6:	c6 05 53 6b 20 00 00 	mov    BYTE PTR [rip+0x206b53],0x0        # 209010 <ok>
24bd:	e9 d9 fb ff ff       	jmp    209b <print_stuff+0x4b>
24c2:	66 0f 1f 44 00 00    	nop    WORD PTR [rax+rax*1+0x0]
24c8:	48 8b 1d d9 6b 20 00 	mov    rbx,QWORD PTR [rip+0x206bd9]        # 2090a8 <stdout@@GLIBC_2.2.5>
24cf:	48 8d 35 df 42 00 00 	lea    rsi,[rip+0x42df]        # 67b5 <_IO_stdin_used+0x595>
24d6:	ba 05 00 00 00       	mov    edx,0x5
24db:	31 ff                	xor    edi,edi
24dd:	31 ed                	xor    ebp,ebp
24df:	4c 8d 2d ea 6b 20 00 	lea    r13,[rip+0x206bea]        # 2090d0 <buf.7122>
24e6:	e8 d5 f1 ff ff       	call   16c0 <dcgettext@plt>
24eb:	48 89 de             	mov    rsi,rbx
24ee:	48 89 c7             	mov    rdi,rax
24f1:	31 db                	xor    ebx,ebx
24f3:	e8 c8 f2 ff ff       	call   17c0 <fputs_unlocked@plt>
24f8:	eb 15                	jmp    250f <print_stuff+0x4bf>
24fa:	66 0f 1f 44 00 00    	nop    WORD PTR [rax+rax*1+0x0]
2500:	48 8d 50 01          	lea    rdx,[rax+0x1]
2504:	48 89 57 28          	mov    QWORD PTR [rdi+0x28],rdx
2508:	c6 00 2c             	mov    BYTE PTR [rax],0x2c
250b:	48 83 c3 04          	add    rbx,0x4
250f:	48 8b 04 24          	mov    rax,QWORD PTR [rsp]
2513:	4c 8b 35 8e 6b 20 00 	mov    r14,QWORD PTR [rip+0x206b8e]        # 2090a8 <stdout@@GLIBC_2.2.5>
251a:	4c 89 ee             	mov    rsi,r13
251d:	8b 3c 18             	mov    edi,DWORD PTR [rax+rbx*1]
2520:	e8 db 07 00 00       	call   2d00 <umaxtostr>
2525:	4c 89 f6             	mov    rsi,r14
2528:	48 89 c7             	mov    rdi,rax
252b:	e8 90 f2 ff ff       	call   17c0 <fputs_unlocked@plt>
2530:	48 8b 04 24          	mov    rax,QWORD PTR [rsp]
2534:	8b 3c 18             	mov    edi,DWORD PTR [rax+rbx*1]
2537:	e8 04 f2 ff ff       	call   1740 <getgrgid@plt>
253c:	48 85 c0             	test   rax,rax
253f:	74 16                	je     2557 <print_stuff+0x507>
2541:	48 8b 10             	mov    rdx,QWORD PTR [rax]
2544:	48 8d 35 4b 42 00 00 	lea    rsi,[rip+0x424b]        # 6796 <_IO_stdin_used+0x576>
254b:	bf 01 00 00 00       	mov    edi,0x1
2550:	31 c0                	xor    eax,eax
2552:	e8 69 f3 ff ff       	call   18c0 <__printf_chk@plt>
2557:	83 c5 01             	add    ebp,0x1
255a:	44 39 e5             	cmp    ebp,r12d
255d:	0f 84 d1 fd ff ff    	je     2334 <print_stuff+0x2e4>
2563:	48 8b 3d 3e 6b 20 00 	mov    rdi,QWORD PTR [rip+0x206b3e]        # 2090a8 <stdout@@GLIBC_2.2.5>
256a:	48 8b 47 28          	mov    rax,QWORD PTR [rdi+0x28]
256e:	48 3b 47 30          	cmp    rax,QWORD PTR [rdi+0x30]
2572:	72 8c                	jb     2500 <print_stuff+0x4b0>
2574:	be 2c 00 00 00       	mov    esi,0x2c
2579:	e8 d2 f1 ff ff       	call   1750 <__overflow@plt>
257e:	eb 8b                	jmp    250b <print_stuff+0x4bb>
2580:	48 89 df             	mov    rdi,rbx
2583:	e8 d8 24 00 00       	call   4a60 <quote>
2588:	48 8d 35 b9 3c 00 00 	lea    rsi,[rip+0x3cb9]        # 6248 <_IO_stdin_used+0x28>
258f:	31 ff                	xor    edi,edi
2591:	ba 05 00 00 00       	mov    edx,0x5
2596:	48 89 c5             	mov    rbp,rax
2599:	e8 22 f1 ff ff       	call   16c0 <dcgettext@plt>
259e:	48 89 c3             	mov    rbx,rax
25a1:	e8 9a f0 ff ff       	call   1640 <__errno_location@plt>
25a6:	8b 30                	mov    esi,DWORD PTR [rax]
25a8:	48 89 e9             	mov    rcx,rbp
25ab:	48 89 da             	mov    rdx,rbx
25ae:	31 ff                	xor    edi,edi
25b0:	31 c0                	xor    eax,eax
25b2:	e8 19 f3 ff ff       	call   18d0 <error@plt>
25b7:	e9 b5 fe ff ff       	jmp    2471 <print_stuff+0x421>
25bc:	0f 1f 40 00          	nop    DWORD PTR [rax+0x0]
25c0:	31 f6                	xor    esi,esi
25c2:	e8 89 f1 ff ff       	call   1750 <__overflow@plt>
25c7:	e9 35 fb ff ff       	jmp    2101 <print_stuff+0xb1>
25cc:	0f 1f 40 00          	nop    DWORD PTR [rax+0x0]
25d0:	31 f6                	xor    esi,esi
25d2:	e8 79 f1 ff ff       	call   1750 <__overflow@plt>
25d7:	e9 18 fc ff ff       	jmp    21f4 <print_stuff+0x1a4>
25dc:	e8 0f f1 ff ff       	call   16f0 <__stack_chk_fail@plt>
25e1:	0f 1f 44 00 00       	nop    DWORD PTR [rax+rax*1+0x0]
25e6:	66 2e 0f 1f 84 00 00 	nop    WORD PTR cs:[rax+rax*1+0x0]
25ed:	00 00 00

00000000000025f0 <usage>:
25f0:	41 55                	push   r13
25f2:	41 54                	push   r12
25f4:	ba 05 00 00 00       	mov    edx,0x5
25f9:	55                   	push   rbp
25fa:	53                   	push   rbx
25fb:	89 fd                	mov    ebp,edi
25fd:	48 81 ec 88 00 00 00 	sub    rsp,0x88
2604:	48 8b 1d 3d 6b 20 00 	mov    rbx,QWORD PTR [rip+0x206b3d]        # 209148 <program_name>
260b:	64 48 8b 04 25 28 00 	mov    rax,QWORD PTR fs:0x28
2612:	00 00
2614:	48 89 44 24 78       	mov    QWORD PTR [rsp+0x78],rax
2619:	31 c0                	xor    eax,eax
261b:	85 ff                	test   edi,edi
261d:	74 2e                	je     264d <usage+0x5d>
261f:	48 8d 35 7a 3c 00 00 	lea    rsi,[rip+0x3c7a]        # 62a0 <_IO_stdin_used+0x80>
2626:	31 ff                	xor    edi,edi
2628:	e8 93 f0 ff ff       	call   16c0 <dcgettext@plt>
262d:	48 8b 3d 8c 6a 20 00 	mov    rdi,QWORD PTR [rip+0x206a8c]        # 2090c0 <stderr@@GLIBC_2.2.5>
2634:	48 89 c2             	mov    rdx,rax
2637:	48 89 d9             	mov    rcx,rbx
263a:	be 01 00 00 00       	mov    esi,0x1
263f:	31 c0                	xor    eax,eax
2641:	e8 fa f2 ff ff       	call   1940 <__fprintf_chk@plt>
2646:	89 ef                	mov    edi,ebp
2648:	e8 d3 f2 ff ff       	call   1920 <exit@plt>
264d:	48 8d 35 74 3c 00 00 	lea    rsi,[rip+0x3c74]        # 62c8 <_IO_stdin_used+0xa8>
2654:	31 ff                	xor    edi,edi
2656:	e8 65 f0 ff ff       	call   16c0 <dcgettext@plt>
265b:	48 89 da             	mov    rdx,rbx
265e:	48 89 c6             	mov    rsi,rax
2661:	bf 01 00 00 00       	mov    edi,0x1
2666:	31 c0                	xor    eax,eax
2668:	e8 53 f2 ff ff       	call   18c0 <__printf_chk@plt>
266d:	48 8b 1d 34 6a 20 00 	mov    rbx,QWORD PTR [rip+0x206a34]        # 2090a8 <stdout@@GLIBC_2.2.5>
2674:	48 8d 35 75 3c 00 00 	lea    rsi,[rip+0x3c75]        # 62f0 <_IO_stdin_used+0xd0>
267b:	ba 05 00 00 00       	mov    edx,0x5
2680:	31 ff                	xor    edi,edi
2682:	e8 39 f0 ff ff       	call   16c0 <dcgettext@plt>
2687:	48 89 de             	mov    rsi,rbx
268a:	48 89 c7             	mov    rdi,rax
268d:	e8 2e f1 ff ff       	call   17c0 <fputs_unlocked@plt>
2692:	48 8b 1d 0f 6a 20 00 	mov    rbx,QWORD PTR [rip+0x206a0f]        # 2090a8 <stdout@@GLIBC_2.2.5>
2699:	48 8d 35 c0 3c 00 00 	lea    rsi,[rip+0x3cc0]        # 6360 <_IO_stdin_used+0x140>
26a0:	ba 05 00 00 00       	mov    edx,0x5
26a5:	31 ff                	xor    edi,edi
26a7:	e8 14 f0 ff ff       	call   16c0 <dcgettext@plt>
26ac:	48 89 de             	mov    rsi,rbx
26af:	48 89 c7             	mov    rdi,rax
26b2:	e8 09 f1 ff ff       	call   17c0 <fputs_unlocked@plt>
26b7:	48 8b 1d ea 69 20 00 	mov    rbx,QWORD PTR [rip+0x2069ea]        # 2090a8 <stdout@@GLIBC_2.2.5>
26be:	48 8d 35 ab 3e 00 00 	lea    rsi,[rip+0x3eab]        # 6570 <_IO_stdin_used+0x350>
26c5:	ba 05 00 00 00       	mov    edx,0x5
26ca:	31 ff                	xor    edi,edi
26cc:	e8 ef ef ff ff       	call   16c0 <dcgettext@plt>
26d1:	48 89 de             	mov    rsi,rbx
26d4:	48 89 c7             	mov    rdi,rax
26d7:	e8 e4 f0 ff ff       	call   17c0 <fputs_unlocked@plt>
26dc:	48 8b 1d c5 69 20 00 	mov    rbx,QWORD PTR [rip+0x2069c5]        # 2090a8 <stdout@@GLIBC_2.2.5>
26e3:	48 8d 35 b6 3e 00 00 	lea    rsi,[rip+0x3eb6]        # 65a0 <_IO_stdin_used+0x380>
26ea:	ba 05 00 00 00       	mov    edx,0x5
26ef:	31 ff                	xor    edi,edi
26f1:	e8 ca ef ff ff       	call   16c0 <dcgettext@plt>
26f6:	48 89 de             	mov    rsi,rbx
26f9:	48 89 c7             	mov    rdi,rax
26fc:	e8 bf f0 ff ff       	call   17c0 <fputs_unlocked@plt>
2701:	48 8b 1d a0 69 20 00 	mov    rbx,QWORD PTR [rip+0x2069a0]        # 2090a8 <stdout@@GLIBC_2.2.5>
2708:	48 8d 35 c9 3e 00 00 	lea    rsi,[rip+0x3ec9]        # 65d8 <_IO_stdin_used+0x3b8>
270f:	ba 05 00 00 00       	mov    edx,0x5
2714:	31 ff                	xor    edi,edi
2716:	e8 a5 ef ff ff       	call   16c0 <dcgettext@plt>
271b:	48 89 de             	mov    rsi,rbx
271e:	48 89 c7             	mov    rdi,rax
2721:	48 8d 1d 96 40 00 00 	lea    rbx,[rip+0x4096]        # 67be <_IO_stdin_used+0x59e>
2728:	e8 93 f0 ff ff       	call   17c0 <fputs_unlocked@plt>
272d:	48 8d 05 8d 40 00 00 	lea    rax,[rip+0x408d]        # 67c1 <_IO_stdin_used+0x5a1>
2734:	48 8d 0d c7 40 00 00 	lea    rcx,[rip+0x40c7]        # 6802 <_IO_stdin_used+0x5e2>
273b:	48 c7 44 24 60 00 00 	mov    QWORD PTR [rsp+0x60],0x0
2742:	00 00
2744:	48 c7 44 24 68 00 00 	mov    QWORD PTR [rsp+0x68],0x0
274b:	00 00
274d:	48 89 e2             	mov    rdx,rsp
2750:	48 89 04 24          	mov    QWORD PTR [rsp],rax
2754:	48 8d 05 68 40 00 00 	lea    rax,[rip+0x4068]        # 67c3 <_IO_stdin_used+0x5a3>
275b:	48 89 4c 24 30       	mov    QWORD PTR [rsp+0x30],rcx
2760:	48 8d 0d a5 40 00 00 	lea    rcx,[rip+0x40a5]        # 680c <_IO_stdin_used+0x5ec>
2767:	48 89 44 24 08       	mov    QWORD PTR [rsp+0x8],rax
276c:	48 8d 05 c8 40 00 00 	lea    rax,[rip+0x40c8]        # 683b <_IO_stdin_used+0x61b>
2773:	48 89 4c 24 40       	mov    QWORD PTR [rsp+0x40],rcx
2778:	48 8d 0d 97 40 00 00 	lea    rcx,[rip+0x4097]        # 6816 <_IO_stdin_used+0x5f6>
277f:	48 89 44 24 10       	mov    QWORD PTR [rsp+0x10],rax
2784:	48 8d 05 48 40 00 00 	lea    rax,[rip+0x4048]        # 67d3 <_IO_stdin_used+0x5b3>
278b:	48 89 4c 24 50       	mov    QWORD PTR [rsp+0x50],rcx
2790:	48 89 44 24 18       	mov    QWORD PTR [rsp+0x18],rax
2795:	48 8d 05 4d 40 00 00 	lea    rax,[rip+0x404d]        # 67e9 <_IO_stdin_used+0x5c9>
279c:	48 89 44 24 20       	mov    QWORD PTR [rsp+0x20],rax
27a1:	48 8d 05 4b 40 00 00 	lea    rax,[rip+0x404b]        # 67f3 <_IO_stdin_used+0x5d3>
27a8:	48 89 44 24 28       	mov    QWORD PTR [rsp+0x28],rax
27ad:	48 89 44 24 38       	mov    QWORD PTR [rsp+0x38],rax
27b2:	48 89 44 24 48       	mov    QWORD PTR [rsp+0x48],rax
27b7:	48 89 44 24 58       	mov    QWORD PTR [rsp+0x58],rax
27bc:	0f 1f 40 00          	nop    DWORD PTR [rax+0x0]
27c0:	48 83 c2 10          	add    rdx,0x10
27c4:	48 8b 3a             	mov    rdi,QWORD PTR [rdx]
27c7:	48 85 ff             	test   rdi,rdi
27ca:	74 13                	je     27df <usage+0x1ef>
27cc:	b9 03 00 00 00       	mov    ecx,0x3
27d1:	48 89 de             	mov    rsi,rbx
27d4:	f3 a6                	repz cmps BYTE PTR ds:[rsi],BYTE PTR es:[rdi]
27d6:	0f 97 c0             	seta   al
27d9:	1c 00                	sbb    al,0x0
27db:	84 c0                	test   al,al
27dd:	75 e1                	jne    27c0 <usage+0x1d0>
27df:	4c 8b 62 08          	mov    r12,QWORD PTR [rdx+0x8]
27e3:	31 ff                	xor    edi,edi
27e5:	ba 05 00 00 00       	mov    edx,0x5
27ea:	48 8d 35 2f 40 00 00 	lea    rsi,[rip+0x402f]        # 6820 <_IO_stdin_used+0x600>
27f1:	4d 85 e4             	test   r12,r12
27f4:	0f 84 c1 00 00 00    	je     28bb <usage+0x2cb>
27fa:	e8 c1 ee ff ff       	call   16c0 <dcgettext@plt>
27ff:	48 8d 0d 1a 3e 00 00 	lea    rcx,[rip+0x3e1a]        # 6620 <_IO_stdin_used+0x400>
2806:	48 8d 15 2a 40 00 00 	lea    rdx,[rip+0x402a]        # 6837 <_IO_stdin_used+0x617>
280d:	48 89 c6             	mov    rsi,rax
2810:	bf 01 00 00 00       	mov    edi,0x1
2815:	31 c0                	xor    eax,eax
2817:	e8 a4 f0 ff ff       	call   18c0 <__printf_chk@plt>
281c:	31 f6                	xor    esi,esi
281e:	bf 05 00 00 00       	mov    edi,0x5
2823:	e8 88 f0 ff ff       	call   18b0 <setlocale@plt>
2828:	48 85 c0             	test   rax,rax
282b:	74 1c                	je     2849 <usage+0x259>
282d:	48 8d 35 11 40 00 00 	lea    rsi,[rip+0x4011]        # 6845 <_IO_stdin_used+0x625>
2834:	ba 03 00 00 00       	mov    edx,0x3
2839:	48 89 c7             	mov    rdi,rax
283c:	e8 0f ee ff ff       	call   1650 <strncmp@plt>
2841:	85 c0                	test   eax,eax
2843:	0f 85 07 01 00 00    	jne    2950 <usage+0x360>
2849:	48 8d 35 f9 3f 00 00 	lea    rsi,[rip+0x3ff9]        # 6849 <_IO_stdin_used+0x629>
2850:	31 ff                	xor    edi,edi
2852:	ba 05 00 00 00       	mov    edx,0x5
2857:	e8 64 ee ff ff       	call   16c0 <dcgettext@plt>
285c:	48 8d 0d 5b 3f 00 00 	lea    rcx,[rip+0x3f5b]        # 67be <_IO_stdin_used+0x59e>
2863:	48 8d 15 b6 3d 00 00 	lea    rdx,[rip+0x3db6]        # 6620 <_IO_stdin_used+0x400>
286a:	48 89 c6             	mov    rsi,rax
286d:	bf 01 00 00 00       	mov    edi,0x1
2872:	31 c0                	xor    eax,eax
2874:	e8 47 f0 ff ff       	call   18c0 <__printf_chk@plt>
2879:	49 39 dc             	cmp    r12,rbx
287c:	48 8d 0d 5a 3f 00 00 	lea    rcx,[rip+0x3f5a]        # 67dd <_IO_stdin_used+0x5bd>
2883:	48 8d 1d 9f 46 00 00 	lea    rbx,[rip+0x469f]        # 6f29 <quoting_style_vals+0xa9>
288a:	48 0f 44 d9          	cmove  rbx,rcx
288e:	48 8d 35 fb 3d 00 00 	lea    rsi,[rip+0x3dfb]        # 6690 <_IO_stdin_used+0x470>
2895:	31 ff                	xor    edi,edi
2897:	ba 05 00 00 00       	mov    edx,0x5
289c:	e8 1f ee ff ff       	call   16c0 <dcgettext@plt>
28a1:	48 89 d9             	mov    rcx,rbx
28a4:	48 89 c6             	mov    rsi,rax
28a7:	4c 89 e2             	mov    rdx,r12
28aa:	bf 01 00 00 00       	mov    edi,0x1
28af:	31 c0                	xor    eax,eax
28b1:	e8 0a f0 ff ff       	call   18c0 <__printf_chk@plt>
28b6:	e9 8b fd ff ff       	jmp    2646 <usage+0x56>
28bb:	e8 00 ee ff ff       	call   16c0 <dcgettext@plt>
28c0:	48 8d 0d 59 3d 00 00 	lea    rcx,[rip+0x3d59]        # 6620 <_IO_stdin_used+0x400>
28c7:	48 8d 15 69 3f 00 00 	lea    rdx,[rip+0x3f69]        # 6837 <_IO_stdin_used+0x617>
28ce:	48 89 c6             	mov    rsi,rax
28d1:	bf 01 00 00 00       	mov    edi,0x1
28d6:	31 c0                	xor    eax,eax
28d8:	e8 e3 ef ff ff       	call   18c0 <__printf_chk@plt>
28dd:	31 f6                	xor    esi,esi
28df:	bf 05 00 00 00       	mov    edi,0x5
28e4:	e8 c7 ef ff ff       	call   18b0 <setlocale@plt>
28e9:	48 85 c0             	test   rax,rax
28ec:	74 18                	je     2906 <usage+0x316>
28ee:	48 8d 35 50 3f 00 00 	lea    rsi,[rip+0x3f50]        # 6845 <_IO_stdin_used+0x625>
28f5:	ba 03 00 00 00       	mov    edx,0x3
28fa:	48 89 c7             	mov    rdi,rax
28fd:	e8 4e ed ff ff       	call   1650 <strncmp@plt>
2902:	85 c0                	test   eax,eax
2904:	75 43                	jne    2949 <usage+0x359>
2906:	48 8d 35 3c 3f 00 00 	lea    rsi,[rip+0x3f3c]        # 6849 <_IO_stdin_used+0x629>
290d:	ba 05 00 00 00       	mov    edx,0x5
2912:	31 ff                	xor    edi,edi
2914:	4c 8d 25 a3 3e 00 00 	lea    r12,[rip+0x3ea3]        # 67be <_IO_stdin_used+0x59e>
291b:	48 8d 1d bb 3e 00 00 	lea    rbx,[rip+0x3ebb]        # 67dd <_IO_stdin_used+0x5bd>
2922:	e8 99 ed ff ff       	call   16c0 <dcgettext@plt>
2927:	48 8d 0d 90 3e 00 00 	lea    rcx,[rip+0x3e90]        # 67be <_IO_stdin_used+0x59e>
292e:	48 8d 15 eb 3c 00 00 	lea    rdx,[rip+0x3ceb]        # 6620 <_IO_stdin_used+0x400>
2935:	48 89 c6             	mov    rsi,rax
2938:	bf 01 00 00 00       	mov    edi,0x1
293d:	31 c0                	xor    eax,eax
293f:	e8 7c ef ff ff       	call   18c0 <__printf_chk@plt>
2944:	e9 45 ff ff ff       	jmp    288e <usage+0x29e>
2949:	4c 8d 25 6e 3e 00 00 	lea    r12,[rip+0x3e6e]        # 67be <_IO_stdin_used+0x59e>
2950:	4c 8b 2d 51 67 20 00 	mov    r13,QWORD PTR [rip+0x206751]        # 2090a8 <stdout@@GLIBC_2.2.5>
2957:	48 8d 35 ea 3c 00 00 	lea    rsi,[rip+0x3cea]        # 6648 <_IO_stdin_used+0x428>
295e:	31 ff                	xor    edi,edi
2960:	ba 05 00 00 00       	mov    edx,0x5
2965:	e8 56 ed ff ff       	call   16c0 <dcgettext@plt>
296a:	4c 89 ee             	mov    rsi,r13
296d:	48 89 c7             	mov    rdi,rax
2970:	e8 4b ee ff ff       	call   17c0 <fputs_unlocked@plt>
2975:	e9 cf fe ff ff       	jmp    2849 <usage+0x259>
297a:	66 0f 1f 44 00 00    	nop    WORD PTR [rax+rax*1+0x0]

0000000000002980 <print_group>:
2980:	55                   	push   rbp
2981:	53                   	push   rbx
2982:	89 fd                	mov    ebp,edi
2984:	bb 01 00 00 00       	mov    ebx,0x1
2989:	48 83 ec 08          	sub    rsp,0x8
298d:	40 84 f6             	test   sil,sil
2990:	74 3e                	je     29d0 <print_group+0x50>
2992:	89 ef                	mov    edi,ebp
2994:	89 f3                	mov    ebx,esi
2996:	e8 a5 ed ff ff       	call   1740 <getgrgid@plt>
299b:	48 85 c0             	test   rax,rax
299e:	74 08                	je     29a8 <print_group+0x28>
29a0:	48 8b 38             	mov    rdi,QWORD PTR [rax]
29a3:	eb 3d                	jmp    29e2 <print_group+0x62>
29a5:	0f 1f 00             	nop    DWORD PTR [rax]
29a8:	48 8d 35 a1 3f 00 00 	lea    rsi,[rip+0x3fa1]        # 6950 <_IO_stdin_used+0x730>
29af:	ba 05 00 00 00       	mov    edx,0x5
29b4:	31 ff                	xor    edi,edi
29b6:	31 db                	xor    ebx,ebx
29b8:	e8 03 ed ff ff       	call   16c0 <dcgettext@plt>
29bd:	48 89 e9             	mov    rcx,rbp
29c0:	48 89 c2             	mov    rdx,rax
29c3:	31 f6                	xor    esi,esi
29c5:	31 ff                	xor    edi,edi
29c7:	31 c0                	xor    eax,eax
29c9:	e8 02 ef ff ff       	call   18d0 <error@plt>
29ce:	66 90                	xchg   ax,ax
29d0:	48 8d 35 49 67 20 00 	lea    rsi,[rip+0x206749]        # 209120 <buf.6964>
29d7:	48 89 ef             	mov    rdi,rbp
29da:	e8 21 03 00 00       	call   2d00 <umaxtostr>
29df:	48 89 c7             	mov    rdi,rax
29e2:	48 8b 35 bf 66 20 00 	mov    rsi,QWORD PTR [rip+0x2066bf]        # 2090a8 <stdout@@GLIBC_2.2.5>
29e9:	e8 d2 ed ff ff       	call   17c0 <fputs_unlocked@plt>
29ee:	48 83 c4 08          	add    rsp,0x8
29f2:	89 d8                	mov    eax,ebx
29f4:	5b                   	pop    rbx
29f5:	5d                   	pop    rbp
29f6:	c3                   	ret
29f7:	66 0f 1f 84 00 00 00 	nop    WORD PTR [rax+rax*1+0x0]
29fe:	00 00

0000000000002a00 <print_group_list>:
2a00:	41 57                	push   r15
2a02:	41 56                	push   r14
2a04:	49 89 fe             	mov    r14,rdi
2a07:	41 55                	push   r13
2a09:	41 54                	push   r12
2a0b:	45 89 c5             	mov    r13d,r8d
2a0e:	55                   	push   rbp
2a0f:	53                   	push   rbx
2a10:	89 d5                	mov    ebp,edx
2a12:	41 89 cc             	mov    r12d,ecx
2a15:	48 83 ec 28          	sub    rsp,0x28
2a19:	64 48 8b 04 25 28 00 	mov    rax,QWORD PTR fs:0x28
2a20:	00 00
2a22:	48 89 44 24 18       	mov    QWORD PTR [rsp+0x18],rax
2a27:	31 c0                	xor    eax,eax
2a29:	48 85 ff             	test   rdi,rdi
2a2c:	44 88 4c 24 07       	mov    BYTE PTR [rsp+0x7],r9b
2a31:	0f 84 49 01 00 00    	je     2b80 <print_group_list+0x180>
2a37:	89 f7                	mov    edi,esi
2a39:	44 89 4c 24 0c       	mov    DWORD PTR [rsp+0xc],r9d
2a3e:	e8 5d ec ff ff       	call   16a0 <getpwuid@plt>
2a43:	44 8b 4c 24 0c       	mov    r9d,DWORD PTR [rsp+0xc]
2a48:	48 85 c0             	test   rax,rax
2a4b:	49 89 c7             	mov    r15,rax
2a4e:	0f 95 44 24 08       	setne  BYTE PTR [rsp+0x8]
2a53:	45 0f b6 ed          	movzx  r13d,r13b
2a57:	89 ef                	mov    edi,ebp
2a59:	44 89 4c 24 0c       	mov    DWORD PTR [rsp+0xc],r9d
2a5e:	44 89 ee             	mov    esi,r13d
2a61:	e8 1a ff ff ff       	call   2980 <print_group>
2a66:	89 c3                	mov    ebx,eax
2a68:	84 c0                	test   al,al
2a6a:	0f b6 44 24 08       	movzx  eax,BYTE PTR [rsp+0x8]
2a6f:	0f 44 c3             	cmove  eax,ebx
2a72:	44 39 e5             	cmp    ebp,r12d
2a75:	89 c3                	mov    ebx,eax
2a77:	74 3a                	je     2ab3 <print_group_list+0xb3>
2a79:	48 8b 3d 28 66 20 00 	mov    rdi,QWORD PTR [rip+0x206628]        # 2090a8 <stdout@@GLIBC_2.2.5>
2a80:	44 8b 4c 24 0c       	mov    r9d,DWORD PTR [rsp+0xc]
2a85:	48 8b 47 28          	mov    rax,QWORD PTR [rdi+0x28]
2a89:	48 3b 47 30          	cmp    rax,QWORD PTR [rdi+0x30]
2a8d:	0f 83 7d 01 00 00    	jae    2c10 <print_group_list+0x210>
2a93:	48 8d 50 01          	lea    rdx,[rax+0x1]
2a97:	48 89 57 28          	mov    QWORD PTR [rdi+0x28],rdx
2a9b:	44 88 08             	mov    BYTE PTR [rax],r9b
2a9e:	44 89 ee             	mov    esi,r13d
2aa1:	44 89 e7             	mov    edi,r12d
2aa4:	e8 d7 fe ff ff       	call   2980 <print_group>
2aa9:	84 c0                	test   al,al
2aab:	b8 00 00 00 00       	mov    eax,0x0
2ab0:	0f 44 d8             	cmove  ebx,eax
2ab3:	4d 85 ff             	test   r15,r15
2ab6:	44 89 e6             	mov    esi,r12d
2ab9:	74 04                	je     2abf <print_group_list+0xbf>
2abb:	41 8b 77 14          	mov    esi,DWORD PTR [r15+0x14]
2abf:	48 8d 54 24 10       	lea    rdx,[rsp+0x10]
2ac4:	4c 89 f7             	mov    rdi,r14
2ac7:	e8 04 2d 00 00       	call   57d0 <xgetgroups>
2acc:	85 c0                	test   eax,eax
2ace:	0f 88 bc 00 00 00    	js     2b90 <print_group_list+0x190>
2ad4:	48 8b 7c 24 10       	mov    rdi,QWORD PTR [rsp+0x10]
2ad9:	74 73                	je     2b4e <print_group_list+0x14e>
2adb:	83 e8 01             	sub    eax,0x1
2ade:	45 31 ff             	xor    r15d,r15d
2ae1:	4c 8d 34 85 04 00 00 	lea    r14,[rax*4+0x4]
2ae8:	00
2ae9:	0f b6 44 24 07       	movzx  eax,BYTE PTR [rsp+0x7]
2aee:	89 44 24 08          	mov    DWORD PTR [rsp+0x8],eax
2af2:	66 0f 1f 44 00 00    	nop    WORD PTR [rax+rax*1+0x0]
2af8:	42 8b 04 3f          	mov    eax,DWORD PTR [rdi+r15*1]
2afc:	39 e8                	cmp    eax,ebp
2afe:	74 45                	je     2b45 <print_group_list+0x145>
2b00:	44 39 e0             	cmp    eax,r12d
2b03:	74 40                	je     2b45 <print_group_list+0x145>
2b05:	48 8b 3d 9c 65 20 00 	mov    rdi,QWORD PTR [rip+0x20659c]        # 2090a8 <stdout@@GLIBC_2.2.5>
2b0c:	48 8b 47 28          	mov    rax,QWORD PTR [rdi+0x28]
2b10:	48 3b 47 30          	cmp    rax,QWORD PTR [rdi+0x30]
2b14:	0f 83 b6 00 00 00    	jae    2bd0 <print_group_list+0x1d0>
2b1a:	48 8d 48 01          	lea    rcx,[rax+0x1]
2b1e:	48 89 4f 28          	mov    QWORD PTR [rdi+0x28],rcx
2b22:	0f b6 4c 24 07       	movzx  ecx,BYTE PTR [rsp+0x7]
2b27:	88 08                	mov    BYTE PTR [rax],cl
2b29:	48 8b 44 24 10       	mov    rax,QWORD PTR [rsp+0x10]
2b2e:	44 89 ee             	mov    esi,r13d
2b31:	42 8b 3c 38          	mov    edi,DWORD PTR [rax+r15*1]
2b35:	e8 46 fe ff ff       	call   2980 <print_group>
2b3a:	84 c0                	test   al,al
2b3c:	48 8b 7c 24 10       	mov    rdi,QWORD PTR [rsp+0x10]
2b41:	75 02                	jne    2b45 <print_group_list+0x145>
2b43:	31 db                	xor    ebx,ebx
2b45:	49 83 c7 04          	add    r15,0x4
2b49:	4d 39 fe             	cmp    r14,r15
2b4c:	75 aa                	jne    2af8 <print_group_list+0xf8>
2b4e:	e8 cd ea ff ff       	call   1620 <free@plt>
2b53:	48 8b 54 24 18       	mov    rdx,QWORD PTR [rsp+0x18]
2b58:	64 48 33 14 25 28 00 	xor    rdx,QWORD PTR fs:0x28
2b5f:	00 00
2b61:	89 d8                	mov    eax,ebx
2b63:	0f 85 b5 00 00 00    	jne    2c1e <print_group_list+0x21e>
2b69:	48 83 c4 28          	add    rsp,0x28
2b6d:	5b                   	pop    rbx
2b6e:	5d                   	pop    rbp
2b6f:	41 5c                	pop    r12
2b71:	41 5d                	pop    r13
2b73:	41 5e                	pop    r14
2b75:	41 5f                	pop    r15
2b77:	c3                   	ret
2b78:	0f 1f 84 00 00 00 00 	nop    DWORD PTR [rax+rax*1+0x0]
2b7f:	00
2b80:	45 31 ff             	xor    r15d,r15d
2b83:	c6 44 24 08 01       	mov    BYTE PTR [rsp+0x8],0x1
2b88:	e9 c6 fe ff ff       	jmp    2a53 <print_group_list+0x53>
2b8d:	0f 1f 00             	nop    DWORD PTR [rax]
2b90:	e8 ab ea ff ff       	call   1640 <__errno_location@plt>
2b95:	4d 85 f6             	test   r14,r14
2b98:	48 89 c3             	mov    rbx,rax
2b9b:	74 43                	je     2be0 <print_group_list+0x1e0>
2b9d:	4c 89 f7             	mov    rdi,r14
2ba0:	e8 bb 1e 00 00       	call   4a60 <quote>
2ba5:	48 8d 35 9c 36 00 00 	lea    rsi,[rip+0x369c]        # 6248 <_IO_stdin_used+0x28>
2bac:	ba 05 00 00 00       	mov    edx,0x5
2bb1:	31 ff                	xor    edi,edi
2bb3:	48 89 c5             	mov    rbp,rax
2bb6:	e8 05 eb ff ff       	call   16c0 <dcgettext@plt>
2bbb:	8b 33                	mov    esi,DWORD PTR [rbx]
2bbd:	48 89 c2             	mov    rdx,rax
2bc0:	48 89 e9             	mov    rcx,rbp
2bc3:	31 ff                	xor    edi,edi
2bc5:	31 c0                	xor    eax,eax
2bc7:	31 db                	xor    ebx,ebx
2bc9:	e8 02 ed ff ff       	call   18d0 <error@plt>
2bce:	eb 83                	jmp    2b53 <print_group_list+0x153>
2bd0:	8b 74 24 08          	mov    esi,DWORD PTR [rsp+0x8]
2bd4:	e8 77 eb ff ff       	call   1750 <__overflow@plt>
2bd9:	e9 4b ff ff ff       	jmp    2b29 <print_group_list+0x129>
2bde:	66 90                	xchg   ax,ax
2be0:	48 8d 35 89 36 00 00 	lea    rsi,[rip+0x3689]        # 6270 <_IO_stdin_used+0x50>
2be7:	ba 05 00 00 00       	mov    edx,0x5
2bec:	31 ff                	xor    edi,edi
2bee:	e8 cd ea ff ff       	call   16c0 <dcgettext@plt>
2bf3:	8b 33                	mov    esi,DWORD PTR [rbx]
2bf5:	48 89 c2             	mov    rdx,rax
2bf8:	31 ff                	xor    edi,edi
2bfa:	31 c0                	xor    eax,eax
2bfc:	31 db                	xor    ebx,ebx
2bfe:	e8 cd ec ff ff       	call   18d0 <error@plt>
2c03:	e9 4b ff ff ff       	jmp    2b53 <print_group_list+0x153>
2c08:	0f 1f 84 00 00 00 00 	nop    DWORD PTR [rax+rax*1+0x0]
2c0f:	00
2c10:	41 0f b6 f1          	movzx  esi,r9b
2c14:	e8 37 eb ff ff       	call   1750 <__overflow@plt>
2c19:	e9 80 fe ff ff       	jmp    2a9e <print_group_list+0x9e>
2c1e:	e8 cd ea ff ff       	call   16f0 <__stack_chk_fail@plt>
2c23:	66 2e 0f 1f 84 00 00 	nop    WORD PTR cs:[rax+rax*1+0x0]
2c2a:	00 00 00
2c2d:	0f 1f 00             	nop    DWORD PTR [rax]

0000000000002c30 <close_stdout_set_file_name>:
2c30:	48 89 3d 09 65 20 00 	mov    QWORD PTR [rip+0x206509],rdi        # 209140 <file_name>
2c37:	c3                   	ret
2c38:	0f 1f 84 00 00 00 00 	nop    DWORD PTR [rax+rax*1+0x0]
2c3f:	00

0000000000002c40 <close_stdout_set_ignore_EPIPE>:
2c40:	40 88 3d f1 64 20 00 	mov    BYTE PTR [rip+0x2064f1],dil        # 209138 <ignore_EPIPE>
2c47:	c3                   	ret
2c48:	0f 1f 84 00 00 00 00 	nop    DWORD PTR [rax+rax*1+0x0]
2c4f:	00

0000000000002c50 <close_stdout>:
2c50:	55                   	push   rbp
2c51:	53                   	push   rbx
2c52:	48 83 ec 08          	sub    rsp,0x8
2c56:	48 8b 3d 4b 64 20 00 	mov    rdi,QWORD PTR [rip+0x20644b]        # 2090a8 <stdout@@GLIBC_2.2.5>
2c5d:	e8 4e 30 00 00       	call   5cb0 <close_stream>
2c62:	85 c0                	test   eax,eax
2c64:	74 16                	je     2c7c <close_stdout+0x2c>
2c66:	e8 d5 e9 ff ff       	call   1640 <__errno_location@plt>
2c6b:	80 3d c6 64 20 00 00 	cmp    BYTE PTR [rip+0x2064c6],0x0        # 209138 <ignore_EPIPE>
2c72:	48 89 c3             	mov    rbx,rax
2c75:	74 1c                	je     2c93 <close_stdout+0x43>
2c77:	83 38 20             	cmp    DWORD PTR [rax],0x20
2c7a:	75 17                	jne    2c93 <close_stdout+0x43>
2c7c:	48 8b 3d 3d 64 20 00 	mov    rdi,QWORD PTR [rip+0x20643d]        # 2090c0 <stderr@@GLIBC_2.2.5>
2c83:	e8 28 30 00 00       	call   5cb0 <close_stream>
2c88:	85 c0                	test   eax,eax
2c8a:	75 46                	jne    2cd2 <close_stdout+0x82>
2c8c:	48 83 c4 08          	add    rsp,0x8
2c90:	5b                   	pop    rbx
2c91:	5d                   	pop    rbp
2c92:	c3                   	ret
2c93:	48 8d 35 dd 3c 00 00 	lea    rsi,[rip+0x3cdd]        # 6977 <_IO_stdin_used+0x757>
2c9a:	31 ff                	xor    edi,edi
2c9c:	ba 05 00 00 00       	mov    edx,0x5
2ca1:	e8 1a ea ff ff       	call   16c0 <dcgettext@plt>
2ca6:	48 8b 3d 93 64 20 00 	mov    rdi,QWORD PTR [rip+0x206493]        # 209140 <file_name>
2cad:	48 89 c5             	mov    rbp,rax
2cb0:	48 85 ff             	test   rdi,rdi
2cb3:	74 28                	je     2cdd <close_stdout+0x8d>
2cb5:	e8 a6 1b 00 00       	call   4860 <quotearg_colon>
2cba:	8b 33                	mov    esi,DWORD PTR [rbx]
2cbc:	48 8d 15 c0 3c 00 00 	lea    rdx,[rip+0x3cc0]        # 6983 <_IO_stdin_used+0x763>
2cc3:	48 89 c1             	mov    rcx,rax
2cc6:	49 89 e8             	mov    r8,rbp
2cc9:	31 ff                	xor    edi,edi
2ccb:	31 c0                	xor    eax,eax
2ccd:	e8 fe eb ff ff       	call   18d0 <error@plt>
2cd2:	8b 3d 48 63 20 00    	mov    edi,DWORD PTR [rip+0x206348]        # 209020 <exit_failure>
2cd8:	e8 83 e9 ff ff       	call   1660 <_exit@plt>
2cdd:	8b 33                	mov    esi,DWORD PTR [rbx]
2cdf:	48 8d 15 a1 3c 00 00 	lea    rdx,[rip+0x3ca1]        # 6987 <_IO_stdin_used+0x767>
2ce6:	48 89 c1             	mov    rcx,rax
2ce9:	31 ff                	xor    edi,edi
2ceb:	31 c0                	xor    eax,eax
2ced:	e8 de eb ff ff       	call   18d0 <error@plt>
2cf2:	eb de                	jmp    2cd2 <close_stdout+0x82>
2cf4:	66 2e 0f 1f 84 00 00 	nop    WORD PTR cs:[rax+rax*1+0x0]
2cfb:	00 00 00
2cfe:	66 90                	xchg   ax,ax

0000000000002d00 <umaxtostr>:
2d00:	48 8d 4e 14          	lea    rcx,[rsi+0x14]
2d04:	c6 46 14 00          	mov    BYTE PTR [rsi+0x14],0x0
2d08:	48 be cd cc cc cc cc 	movabs rsi,0xcccccccccccccccd
2d0f:	cc cc cc
2d12:	66 0f 1f 44 00 00    	nop    WORD PTR [rax+rax*1+0x0]
2d18:	48 89 f8             	mov    rax,rdi
2d1b:	48 83 e9 01          	sub    rcx,0x1
2d1f:	48 f7 e6             	mul    rsi
2d22:	48 c1 ea 03          	shr    rdx,0x3
2d26:	48 8d 04 92          	lea    rax,[rdx+rdx*4]
2d2a:	48 01 c0             	add    rax,rax
2d2d:	48 29 c7             	sub    rdi,rax
2d30:	83 c7 30             	add    edi,0x30
2d33:	48 85 d2             	test   rdx,rdx
2d36:	40 88 39             	mov    BYTE PTR [rcx],dil
2d39:	48 89 d7             	mov    rdi,rdx
2d3c:	75 da                	jne    2d18 <umaxtostr+0x18>
2d3e:	48 89 c8             	mov    rax,rcx
2d41:	c3                   	ret
2d42:	66 2e 0f 1f 84 00 00 	nop    WORD PTR cs:[rax+rax*1+0x0]
2d49:	00 00 00
2d4c:	0f 1f 40 00          	nop    DWORD PTR [rax+0x0]

0000000000002d50 <set_program_name>:
2d50:	48 85 ff             	test   rdi,rdi
2d53:	53                   	push   rbx
2d54:	74 77                	je     2dcd <set_program_name+0x7d>
2d56:	be 2f 00 00 00       	mov    esi,0x2f
2d5b:	48 89 fb             	mov    rbx,rdi
2d5e:	e8 fd e9 ff ff       	call   1760 <strrchr@plt>
2d63:	48 85 c0             	test   rax,rax
2d66:	74 55                	je     2dbd <set_program_name+0x6d>
2d68:	4c 8d 40 01          	lea    r8,[rax+0x1]
2d6c:	4c 89 c2             	mov    rdx,r8
2d6f:	48 29 da             	sub    rdx,rbx
2d72:	48 83 fa 06          	cmp    rdx,0x6
2d76:	7e 45                	jle    2dbd <set_program_name+0x6d>
2d78:	48 8d 70 fa          	lea    rsi,[rax-0x6]
2d7c:	48 8d 3d 45 3c 00 00 	lea    rdi,[rip+0x3c45]        # 69c8 <_IO_stdin_used+0x7a8>
2d83:	b9 07 00 00 00       	mov    ecx,0x7
2d88:	f3 a6                	repz cmps BYTE PTR ds:[rsi],BYTE PTR es:[rdi]
2d8a:	0f 97 c2             	seta   dl
2d8d:	80 da 00             	sbb    dl,0x0
2d90:	84 d2                	test   dl,dl
2d92:	75 29                	jne    2dbd <set_program_name+0x6d>
2d94:	48 8d 3d 35 3c 00 00 	lea    rdi,[rip+0x3c35]        # 69d0 <_IO_stdin_used+0x7b0>
2d9b:	b9 03 00 00 00       	mov    ecx,0x3
2da0:	4c 89 c6             	mov    rsi,r8
2da3:	4c 89 c3             	mov    rbx,r8
2da6:	f3 a6                	repz cmps BYTE PTR ds:[rsi],BYTE PTR es:[rdi]
2da8:	0f 97 c2             	seta   dl
2dab:	80 da 00             	sbb    dl,0x0
2dae:	84 d2                	test   dl,dl
2db0:	75 0b                	jne    2dbd <set_program_name+0x6d>
2db2:	48 8d 58 04          	lea    rbx,[rax+0x4]
2db6:	48 89 1d e3 62 20 00 	mov    QWORD PTR [rip+0x2062e3],rbx        # 2090a0 <__progname@@GLIBC_2.2.5>
2dbd:	48 89 1d 84 63 20 00 	mov    QWORD PTR [rip+0x206384],rbx        # 209148 <program_name>
2dc4:	48 89 1d ed 62 20 00 	mov    QWORD PTR [rip+0x2062ed],rbx        # 2090b8 <__progname_full@@GLIBC_2.2.5>
2dcb:	5b                   	pop    rbx
2dcc:	c3                   	ret
2dcd:	48 8b 0d ec 62 20 00 	mov    rcx,QWORD PTR [rip+0x2062ec]        # 2090c0 <stderr@@GLIBC_2.2.5>
2dd4:	48 8d 3d b5 3b 00 00 	lea    rdi,[rip+0x3bb5]        # 6990 <_IO_stdin_used+0x770>
2ddb:	ba 37 00 00 00       	mov    edx,0x37
2de0:	be 01 00 00 00       	mov    esi,0x1
2de5:	e8 46 eb ff ff       	call   1930 <fwrite@plt>
2dea:	e8 41 e8 ff ff       	call   1630 <abort@plt>
2def:	90                   	nop

0000000000002df0 <gettext_quote.part.1>:
2df0:	55                   	push   rbp
2df1:	53                   	push   rbx
2df2:	48 89 fd             	mov    rbp,rdi
2df5:	89 f3                	mov    ebx,esi
2df7:	48 83 ec 08          	sub    rsp,0x8
2dfb:	e8 90 2f 00 00       	call   5d90 <locale_charset>
2e00:	0f b6 10             	movzx  edx,BYTE PTR [rax]
2e03:	83 e2 df             	and    edx,0xffffffdf
2e06:	80 fa 55             	cmp    dl,0x55
2e09:	74 75                	je     2e80 <gettext_quote.part.1+0x90>
2e0b:	80 fa 47             	cmp    dl,0x47
2e0e:	74 20                	je     2e30 <gettext_quote.part.1+0x40>
2e10:	48 8d 05 cc 3b 00 00 	lea    rax,[rip+0x3bcc]        # 69e3 <_IO_stdin_used+0x7c3>
2e17:	48 8d 15 c7 3b 00 00 	lea    rdx,[rip+0x3bc7]        # 69e5 <_IO_stdin_used+0x7c5>
2e1e:	83 fb 09             	cmp    ebx,0x9
2e21:	48 0f 45 c2          	cmovne rax,rdx
2e25:	48 83 c4 08          	add    rsp,0x8
2e29:	5b                   	pop    rbx
2e2a:	5d                   	pop    rbp
2e2b:	c3                   	ret
2e2c:	0f 1f 40 00          	nop    DWORD PTR [rax+0x0]
2e30:	0f b6 50 01          	movzx  edx,BYTE PTR [rax+0x1]
2e34:	83 e2 df             	and    edx,0xffffffdf
2e37:	80 fa 42             	cmp    dl,0x42
2e3a:	75 d4                	jne    2e10 <gettext_quote.part.1+0x20>
2e3c:	80 78 02 31          	cmp    BYTE PTR [rax+0x2],0x31
2e40:	75 ce                	jne    2e10 <gettext_quote.part.1+0x20>
2e42:	80 78 03 38          	cmp    BYTE PTR [rax+0x3],0x38
2e46:	75 c8                	jne    2e10 <gettext_quote.part.1+0x20>
2e48:	80 78 04 30          	cmp    BYTE PTR [rax+0x4],0x30
2e4c:	75 c2                	jne    2e10 <gettext_quote.part.1+0x20>
2e4e:	80 78 05 33          	cmp    BYTE PTR [rax+0x5],0x33
2e52:	75 bc                	jne    2e10 <gettext_quote.part.1+0x20>
2e54:	80 78 06 30          	cmp    BYTE PTR [rax+0x6],0x30
2e58:	75 b6                	jne    2e10 <gettext_quote.part.1+0x20>
2e5a:	80 78 07 00          	cmp    BYTE PTR [rax+0x7],0x0
2e5e:	75 b0                	jne    2e10 <gettext_quote.part.1+0x20>
2e60:	80 7d 00 60          	cmp    BYTE PTR [rbp+0x0],0x60
2e64:	48 8d 05 71 3b 00 00 	lea    rax,[rip+0x3b71]        # 69dc <_IO_stdin_used+0x7bc>
2e6b:	48 8d 15 6e 3b 00 00 	lea    rdx,[rip+0x3b6e]        # 69e0 <_IO_stdin_used+0x7c0>
2e72:	48 0f 45 c2          	cmovne rax,rdx
2e76:	48 83 c4 08          	add    rsp,0x8
2e7a:	5b                   	pop    rbx
2e7b:	5d                   	pop    rbp
2e7c:	c3                   	ret
2e7d:	0f 1f 00             	nop    DWORD PTR [rax]
2e80:	0f b6 50 01          	movzx  edx,BYTE PTR [rax+0x1]
2e84:	83 e2 df             	and    edx,0xffffffdf
2e87:	80 fa 54             	cmp    dl,0x54
2e8a:	75 84                	jne    2e10 <gettext_quote.part.1+0x20>
2e8c:	0f b6 50 02          	movzx  edx,BYTE PTR [rax+0x2]
2e90:	83 e2 df             	and    edx,0xffffffdf
2e93:	80 fa 46             	cmp    dl,0x46
2e96:	0f 85 74 ff ff ff    	jne    2e10 <gettext_quote.part.1+0x20>
2e9c:	80 78 03 2d          	cmp    BYTE PTR [rax+0x3],0x2d
2ea0:	0f 85 6a ff ff ff    	jne    2e10 <gettext_quote.part.1+0x20>
2ea6:	80 78 04 38          	cmp    BYTE PTR [rax+0x4],0x38
2eaa:	0f 85 60 ff ff ff    	jne    2e10 <gettext_quote.part.1+0x20>
2eb0:	80 78 05 00          	cmp    BYTE PTR [rax+0x5],0x0
2eb4:	0f 85 56 ff ff ff    	jne    2e10 <gettext_quote.part.1+0x20>
2eba:	80 7d 00 60          	cmp    BYTE PTR [rbp+0x0],0x60
2ebe:	48 8d 05 0f 3b 00 00 	lea    rax,[rip+0x3b0f]        # 69d4 <_IO_stdin_used+0x7b4>
2ec5:	48 8d 15 0c 3b 00 00 	lea    rdx,[rip+0x3b0c]        # 69d8 <_IO_stdin_used+0x7b8>
2ecc:	48 0f 45 c2          	cmovne rax,rdx
2ed0:	48 83 c4 08          	add    rsp,0x8
2ed4:	5b                   	pop    rbx
2ed5:	5d                   	pop    rbp
2ed6:	c3                   	ret
2ed7:	66 0f 1f 84 00 00 00 	nop    WORD PTR [rax+rax*1+0x0]
2ede:	00 00

0000000000002ee0 <quotearg_buffer_restyled>:
2ee0:	41 57                	push   r15
2ee2:	41 56                	push   r14
2ee4:	45 89 c7             	mov    r15d,r8d
2ee7:	41 55                	push   r13
2ee9:	41 54                	push   r12
2eeb:	49 89 fe             	mov    r14,rdi
2eee:	55                   	push   rbp
2eef:	53                   	push   rbx
2ef0:	44 89 cb             	mov    ebx,r9d
2ef3:	49 89 f5             	mov    r13,rsi
2ef6:	48 89 cd             	mov    rbp,rcx
2ef9:	83 e3 02             	and    ebx,0x2
2efc:	48 81 ec b8 00 00 00 	sub    rsp,0xb8
2f03:	48 8b 84 24 f0 00 00 	mov    rax,QWORD PTR [rsp+0xf0]
2f0a:	00
2f0b:	48 89 54 24 10       	mov    QWORD PTR [rsp+0x10],rdx
2f10:	44 89 44 24 08       	mov    DWORD PTR [rsp+0x8],r8d
2f15:	44 89 4c 24 78       	mov    DWORD PTR [rsp+0x78],r9d
2f1a:	48 89 44 24 20       	mov    QWORD PTR [rsp+0x20],rax
2f1f:	48 8b 84 24 f8 00 00 	mov    rax,QWORD PTR [rsp+0xf8]
2f26:	00
2f27:	48 89 44 24 68       	mov    QWORD PTR [rsp+0x68],rax
2f2c:	48 8b 84 24 00 01 00 	mov    rax,QWORD PTR [rsp+0x100]
2f33:	00
2f34:	48 89 44 24 60       	mov    QWORD PTR [rsp+0x60],rax
2f39:	64 48 8b 04 25 28 00 	mov    rax,QWORD PTR fs:0x28
2f40:	00 00
2f42:	48 89 84 24 a8 00 00 	mov    QWORD PTR [rsp+0xa8],rax
2f49:	00
2f4a:	31 c0                	xor    eax,eax
2f4c:	e8 7f e7 ff ff       	call   16d0 <__ctype_get_mb_cur_max@plt>
2f51:	41 83 ff 0a          	cmp    r15d,0xa
2f55:	48 89 44 24 58       	mov    QWORD PTR [rsp+0x58],rax
2f5a:	0f 87 af 11 00 00    	ja     410f <quotearg_buffer_restyled+0x122f>
2f60:	48 8d 0d d9 3a 00 00 	lea    rcx,[rip+0x3ad9]        # 6a40 <_IO_stdin_used+0x820>
2f67:	44 89 fa             	mov    edx,r15d
2f6a:	48 63 04 91          	movsxd rax,DWORD PTR [rcx+rdx*4]
2f6e:	48 01 c8             	add    rax,rcx
2f71:	ff e0                	jmp    rax
2f73:	c6 44 24 0e 01       	mov    BYTE PTR [rsp+0xe],0x1
2f78:	c6 44 24 7c 00       	mov    BYTE PTR [rsp+0x7c],0x0
2f7d:	45 31 e4             	xor    r12d,r12d
2f80:	48 c7 44 24 50 00 00 	mov    QWORD PTR [rsp+0x50],0x0
2f87:	00 00
2f89:	c6 44 24 0f 01       	mov    BYTE PTR [rsp+0xf],0x1
2f8e:	c6 44 24 0d 00       	mov    BYTE PTR [rsp+0xd],0x0
2f93:	48 8d 05 4b 3a 00 00 	lea    rax,[rip+0x3a4b]        # 69e5 <_IO_stdin_used+0x7c5>
2f9a:	48 c7 44 24 18 01 00 	mov    QWORD PTR [rsp+0x18],0x1
2fa1:	00 00
2fa3:	45 31 ff             	xor    r15d,r15d
2fa6:	c7 44 24 08 02 00 00 	mov    DWORD PTR [rsp+0x8],0x2
2fad:	00
2fae:	48 89 44 24 48       	mov    QWORD PTR [rsp+0x48],rax
2fb3:	45 31 db             	xor    r11d,r11d
2fb6:	48 89 e8             	mov    rax,rbp
2fb9:	45 89 e0             	mov    r8d,r12d
2fbc:	4c 89 dd             	mov    rbp,r11
2fbf:	49 89 c3             	mov    r11,rax
2fc2:	66 0f 1f 44 00 00    	nop    WORD PTR [rax+rax*1+0x0]
2fc8:	49 39 eb             	cmp    r11,rbp
2fcb:	41 0f 95 c4          	setne  r12b
2fcf:	49 83 fb ff          	cmp    r11,0xffffffffffffffff
2fd3:	75 0d                	jne    2fe2 <quotearg_buffer_restyled+0x102>
2fd5:	48 8b 44 24 10       	mov    rax,QWORD PTR [rsp+0x10]
2fda:	80 3c 28 00          	cmp    BYTE PTR [rax+rbp*1],0x0
2fde:	41 0f 95 c4          	setne  r12b
2fe2:	45 84 e4             	test   r12b,r12b
2fe5:	0f 84 55 06 00 00    	je     3640 <quotearg_buffer_restyled+0x760>
2feb:	83 7c 24 08 02       	cmp    DWORD PTR [rsp+0x8],0x2
2ff0:	48 8b 7c 24 10       	mov    rdi,QWORD PTR [rsp+0x10]
2ff5:	4c 8d 0c 2f          	lea    r9,[rdi+rbp*1]
2ff9:	0f 95 c0             	setne  al
2ffc:	22 44 24 0d          	and    al,BYTE PTR [rsp+0xd]
3000:	41 89 c2             	mov    r10d,eax
3003:	0f 84 a7 00 00 00    	je     30b0 <quotearg_buffer_restyled+0x1d0>
3009:	48 8b 44 24 18       	mov    rax,QWORD PTR [rsp+0x18]
300e:	48 85 c0             	test   rax,rax
3011:	0f 84 29 04 00 00    	je     3440 <quotearg_buffer_restyled+0x560>
3017:	49 83 fb ff          	cmp    r11,0xffffffffffffffff
301b:	48 8d 5c 05 00       	lea    rbx,[rbp+rax*1+0x0]
3020:	75 2e                	jne    3050 <quotearg_buffer_restyled+0x170>
3022:	48 83 f8 01          	cmp    rax,0x1
3026:	76 28                	jbe    3050 <quotearg_buffer_restyled+0x170>
3028:	44 88 44 24 38       	mov    BYTE PTR [rsp+0x38],r8b
302d:	44 88 54 24 30       	mov    BYTE PTR [rsp+0x30],r10b
3032:	4c 89 4c 24 28       	mov    QWORD PTR [rsp+0x28],r9
3037:	e8 a4 e6 ff ff       	call   16e0 <strlen@plt>
303c:	44 0f b6 44 24 38    	movzx  r8d,BYTE PTR [rsp+0x38]
3042:	44 0f b6 54 24 30    	movzx  r10d,BYTE PTR [rsp+0x30]
3048:	49 89 c3             	mov    r11,rax
304b:	4c 8b 4c 24 28       	mov    r9,QWORD PTR [rsp+0x28]
3050:	4c 39 db             	cmp    rbx,r11
3053:	44 88 54 24 28       	mov    BYTE PTR [rsp+0x28],r10b
3058:	0f 87 b2 05 00 00    	ja     3610 <quotearg_buffer_restyled+0x730>
305e:	48 8b 54 24 18       	mov    rdx,QWORD PTR [rsp+0x18]
3063:	48 8b 74 24 48       	mov    rsi,QWORD PTR [rsp+0x48]
3068:	4c 89 cf             	mov    rdi,r9
306b:	4c 89 5c 24 40       	mov    QWORD PTR [rsp+0x40],r11
3070:	44 88 44 24 38       	mov    BYTE PTR [rsp+0x38],r8b
3075:	4c 89 4c 24 30       	mov    QWORD PTR [rsp+0x30],r9
307a:	e8 31 e7 ff ff       	call   17b0 <memcmp@plt>
307f:	85 c0                	test   eax,eax
3081:	4c 8b 4c 24 30       	mov    r9,QWORD PTR [rsp+0x30]
3086:	44 0f b6 44 24 38    	movzx  r8d,BYTE PTR [rsp+0x38]
308c:	4c 8b 5c 24 40       	mov    r11,QWORD PTR [rsp+0x40]
3091:	0f 85 79 05 00 00    	jne    3610 <quotearg_buffer_restyled+0x730>
3097:	80 7c 24 0f 00       	cmp    BYTE PTR [rsp+0xf],0x0
309c:	44 0f b6 54 24 28    	movzx  r10d,BYTE PTR [rsp+0x28]
30a2:	0f 85 7d 0f 00 00    	jne    4025 <quotearg_buffer_restyled+0x1145>
30a8:	0f 1f 84 00 00 00 00 	nop    DWORD PTR [rax+rax*1+0x0]
30af:	00
30b0:	41 0f b6 19          	movzx  ebx,BYTE PTR [r9]
30b4:	80 fb 7e             	cmp    bl,0x7e
30b7:	0f 87 1b 03 00 00    	ja     33d8 <quotearg_buffer_restyled+0x4f8>
30bd:	48 8d 0d a8 39 00 00 	lea    rcx,[rip+0x39a8]        # 6a6c <_IO_stdin_used+0x84c>
30c4:	0f b6 d3             	movzx  edx,bl
30c7:	48 63 04 91          	movsxd rax,DWORD PTR [rcx+rdx*4]
30cb:	48 01 c8             	add    rax,rcx
30ce:	ff e0                	jmp    rax
30d0:	45 31 d2             	xor    r10d,r10d
30d3:	49 83 fb 01          	cmp    r11,0x1
30d7:	0f 95 c0             	setne  al
30da:	49 83 fb ff          	cmp    r11,0xffffffffffffffff
30de:	75 0c                	jne    30ec <quotearg_buffer_restyled+0x20c>
30e0:	48 8b 44 24 10       	mov    rax,QWORD PTR [rsp+0x10]
30e5:	80 78 01 00          	cmp    BYTE PTR [rax+0x1],0x0
30e9:	0f 95 c0             	setne  al
30ec:	83 7c 24 08 02       	cmp    DWORD PTR [rsp+0x8],0x2
30f1:	0f 94 c2             	sete   dl
30f4:	84 c0                	test   al,al
30f6:	0f 84 4c 02 00 00    	je     3348 <quotearg_buffer_restyled+0x468>
30fc:	45 31 e4             	xor    r12d,r12d
30ff:	31 c0                	xor    eax,eax
3101:	0f 1f 80 00 00 00 00 	nop    DWORD PTR [rax+0x0]
3108:	80 7c 24 0d 01       	cmp    BYTE PTR [rsp+0xd],0x1
310d:	0f 85 0f 01 00 00    	jne    3222 <quotearg_buffer_restyled+0x342>
3113:	84 d2                	test   dl,dl
3115:	0f 85 07 01 00 00    	jne    3222 <quotearg_buffer_restyled+0x342>
311b:	48 8b 74 24 20       	mov    rsi,QWORD PTR [rsp+0x20]
3120:	48 85 f6             	test   rsi,rsi
3123:	74 14                	je     3139 <quotearg_buffer_restyled+0x259>
3125:	89 da                	mov    edx,ebx
3127:	c0 ea 05             	shr    dl,0x5
312a:	0f b6 d2             	movzx  edx,dl
312d:	8b 14 96             	mov    edx,DWORD PTR [rsi+rdx*4]
3130:	0f a3 da             	bt     edx,ebx
3133:	0f 82 4a 01 00 00    	jb     3283 <quotearg_buffer_restyled+0x3a3>
3139:	45 84 d2             	test   r10b,r10b
313c:	0f 85 41 01 00 00    	jne    3283 <quotearg_buffer_restyled+0x3a3>
3142:	83 f0 01             	xor    eax,0x1
3145:	48 83 c5 01          	add    rbp,0x1
3149:	44 21 c0             	and    eax,r8d
314c:	84 c0                	test   al,al
314e:	74 20                	je     3170 <quotearg_buffer_restyled+0x290>
3150:	4d 39 fd             	cmp    r13,r15
3153:	76 05                	jbe    315a <quotearg_buffer_restyled+0x27a>
3155:	43 c6 04 3e 27       	mov    BYTE PTR [r14+r15*1],0x27
315a:	49 8d 47 01          	lea    rax,[r15+0x1]
315e:	49 39 c5             	cmp    r13,rax
3161:	76 06                	jbe    3169 <quotearg_buffer_restyled+0x289>
3163:	43 c6 44 3e 01 27    	mov    BYTE PTR [r14+r15*1+0x1],0x27
3169:	49 83 c7 02          	add    r15,0x2
316d:	45 31 c0             	xor    r8d,r8d
3170:	4d 39 ef             	cmp    r15,r13
3173:	73 04                	jae    3179 <quotearg_buffer_restyled+0x299>
3175:	43 88 1c 3e          	mov    BYTE PTR [r14+r15*1],bl
3179:	0f b6 7c 24 0e       	movzx  edi,BYTE PTR [rsp+0xe]
317e:	49 83 c7 01          	add    r15,0x1
3182:	b8 00 00 00 00       	mov    eax,0x0
3187:	45 84 e4             	test   r12b,r12b
318a:	0f 44 f8             	cmove  edi,eax
318d:	40 88 7c 24 0e       	mov    BYTE PTR [rsp+0xe],dil
3192:	e9 31 fe ff ff       	jmp    2fc8 <quotearg_buffer_restyled+0xe8>
3197:	66 0f 1f 84 00 00 00 	nop    WORD PTR [rax+rax*1+0x0]
319e:	00 00
31a0:	45 31 d2             	xor    r10d,r10d
31a3:	8b 44 24 08          	mov    eax,DWORD PTR [rsp+0x8]
31a7:	83 f8 02             	cmp    eax,0x2
31aa:	0f 84 b8 05 00 00    	je     3768 <quotearg_buffer_restyled+0x888>
31b0:	83 f8 05             	cmp    eax,0x5
31b3:	0f 84 6f 05 00 00    	je     3728 <quotearg_buffer_restyled+0x848>
31b9:	83 f8 02             	cmp    eax,0x2
31bc:	bb 3f 00 00 00       	mov    ebx,0x3f
31c1:	0f 94 c2             	sete   dl
31c4:	45 31 e4             	xor    r12d,r12d
31c7:	31 c0                	xor    eax,eax
31c9:	e9 3a ff ff ff       	jmp    3108 <quotearg_buffer_restyled+0x228>
31ce:	66 90                	xchg   ax,ax
31d0:	45 31 d2             	xor    r10d,r10d
31d3:	83 7c 24 08 02       	cmp    DWORD PTR [rsp+0x8],0x2
31d8:	0f 84 02 05 00 00    	je     36e0 <quotearg_buffer_restyled+0x800>
31de:	44 88 64 24 7c       	mov    BYTE PTR [rsp+0x7c],r12b
31e3:	31 d2                	xor    edx,edx
31e5:	31 c0                	xor    eax,eax
31e7:	bb 27 00 00 00       	mov    ebx,0x27
31ec:	e9 17 ff ff ff       	jmp    3108 <quotearg_buffer_restyled+0x228>
31f1:	0f 1f 80 00 00 00 00 	nop    DWORD PTR [rax+0x0]
31f8:	ba 09 00 00 00       	mov    edx,0x9
31fd:	bb 74 00 00 00       	mov    ebx,0x74
3202:	83 7c 24 08 02       	cmp    DWORD PTR [rsp+0x8],0x2
3207:	0f 94 c0             	sete   al
320a:	22 44 24 0f          	and    al,BYTE PTR [rsp+0xf]
320e:	0f 85 4a 01 00 00    	jne    335e <quotearg_buffer_restyled+0x47e>
3214:	80 7c 24 0d 00       	cmp    BYTE PTR [rsp+0xd],0x0
3219:	75 65                	jne    3280 <quotearg_buffer_restyled+0x3a0>
321b:	89 d3                	mov    ebx,edx
321d:	45 31 e4             	xor    r12d,r12d
3220:	31 c0                	xor    eax,eax
3222:	80 7c 24 0f 00       	cmp    BYTE PTR [rsp+0xf],0x0
3227:	0f 85 ee fe ff ff    	jne    311b <quotearg_buffer_restyled+0x23b>
322d:	e9 07 ff ff ff       	jmp    3139 <quotearg_buffer_restyled+0x259>
3232:	66 0f 1f 44 00 00    	nop    WORD PTR [rax+rax*1+0x0]
3238:	ba 08 00 00 00       	mov    edx,0x8
323d:	bb 62 00 00 00       	mov    ebx,0x62
3242:	eb d0                	jmp    3214 <quotearg_buffer_restyled+0x334>
3244:	0f 1f 40 00          	nop    DWORD PTR [rax+0x0]
3248:	83 7c 24 08 02       	cmp    DWORD PTR [rsp+0x8],0x2
324d:	0f 84 cd 03 00 00    	je     3620 <quotearg_buffer_restyled+0x740>
3253:	80 7c 24 0d 00       	cmp    BYTE PTR [rsp+0xd],0x0
3258:	0f 84 12 02 00 00    	je     3470 <quotearg_buffer_restyled+0x590>
325e:	80 7c 24 0f 00       	cmp    BYTE PTR [rsp+0xf],0x0
3263:	0f 84 07 02 00 00    	je     3470 <quotearg_buffer_restyled+0x590>
3269:	48 83 7c 24 18 00    	cmp    QWORD PTR [rsp+0x18],0x0
326f:	0f 85 b6 03 00 00    	jne    362b <quotearg_buffer_restyled+0x74b>
3275:	bb 5c 00 00 00       	mov    ebx,0x5c
327a:	66 0f 1f 44 00 00    	nop    WORD PTR [rax+rax*1+0x0]
3280:	45 31 e4             	xor    r12d,r12d
3283:	83 7c 24 08 02       	cmp    DWORD PTR [rsp+0x8],0x2
3288:	0f 94 c2             	sete   dl
328b:	80 7c 24 0f 00       	cmp    BYTE PTR [rsp+0xf],0x0
3290:	89 d0                	mov    eax,edx
3292:	0f 85 50 08 00 00    	jne    3ae8 <quotearg_buffer_restyled+0xc08>
3298:	44 89 c0             	mov    eax,r8d
329b:	83 f0 01             	xor    eax,0x1
329e:	20 d0                	and    al,dl
32a0:	74 2f                	je     32d1 <quotearg_buffer_restyled+0x3f1>
32a2:	4d 39 fd             	cmp    r13,r15
32a5:	76 05                	jbe    32ac <quotearg_buffer_restyled+0x3cc>
32a7:	43 c6 04 3e 27       	mov    BYTE PTR [r14+r15*1],0x27
32ac:	49 8d 57 01          	lea    rdx,[r15+0x1]
32b0:	49 39 d5             	cmp    r13,rdx
32b3:	76 06                	jbe    32bb <quotearg_buffer_restyled+0x3db>
32b5:	43 c6 44 3e 01 24    	mov    BYTE PTR [r14+r15*1+0x1],0x24
32bb:	49 8d 57 02          	lea    rdx,[r15+0x2]
32bf:	49 39 d5             	cmp    r13,rdx
32c2:	76 06                	jbe    32ca <quotearg_buffer_restyled+0x3ea>
32c4:	43 c6 44 3e 02 27    	mov    BYTE PTR [r14+r15*1+0x2],0x27
32ca:	49 83 c7 03          	add    r15,0x3
32ce:	41 89 c0             	mov    r8d,eax
32d1:	4d 39 fd             	cmp    r13,r15
32d4:	76 05                	jbe    32db <quotearg_buffer_restyled+0x3fb>
32d6:	43 c6 04 3e 5c       	mov    BYTE PTR [r14+r15*1],0x5c
32db:	49 83 c7 01          	add    r15,0x1
32df:	48 83 c5 01          	add    rbp,0x1
32e3:	e9 88 fe ff ff       	jmp    3170 <quotearg_buffer_restyled+0x290>
32e8:	0f 1f 84 00 00 00 00 	nop    DWORD PTR [rax+rax*1+0x0]
32ef:	00
32f0:	80 7c 24 0d 00       	cmp    BYTE PTR [rsp+0xd],0x0
32f5:	0f 85 c8 01 00 00    	jne    34c3 <quotearg_buffer_restyled+0x5e3>
32fb:	31 d2                	xor    edx,edx
32fd:	f6 44 24 78 01       	test   BYTE PTR [rsp+0x78],0x1
3302:	0f 84 13 ff ff ff    	je     321b <quotearg_buffer_restyled+0x33b>
3308:	48 83 c5 01          	add    rbp,0x1
330c:	e9 b7 fc ff ff       	jmp    2fc8 <quotearg_buffer_restyled+0xe8>
3311:	0f 1f 80 00 00 00 00 	nop    DWORD PTR [rax+0x0]
3318:	83 7c 24 08 02       	cmp    DWORD PTR [rsp+0x8],0x2
331d:	0f 94 c2             	sete   dl
3320:	31 c0                	xor    eax,eax
3322:	e9 e1 fd ff ff       	jmp    3108 <quotearg_buffer_restyled+0x228>
3327:	66 0f 1f 84 00 00 00 	nop    WORD PTR [rax+rax*1+0x0]
332e:	00 00
3330:	ba 07 00 00 00       	mov    edx,0x7
3335:	bb 61 00 00 00       	mov    ebx,0x61
333a:	e9 d5 fe ff ff       	jmp    3214 <quotearg_buffer_restyled+0x334>
333f:	90                   	nop
3340:	83 7c 24 08 02       	cmp    DWORD PTR [rsp+0x8],0x2
3345:	0f 94 c2             	sete   dl
3348:	48 85 ed             	test   rbp,rbp
334b:	0f 85 ab fd ff ff    	jne    30fc <quotearg_buffer_restyled+0x21c>
3351:	0f b6 44 24 0f       	movzx  eax,BYTE PTR [rsp+0xf]
3356:	20 d0                	and    al,dl
3358:	0f 84 aa fd ff ff    	je     3108 <quotearg_buffer_restyled+0x228>
335e:	4c 89 dd             	mov    rbp,r11
3361:	c7 44 24 08 02 00 00 	mov    DWORD PTR [rsp+0x8],0x2
3368:	00
3369:	e9 fb 06 00 00       	jmp    3a69 <quotearg_buffer_restyled+0xb89>
336e:	66 90                	xchg   ax,ax
3370:	83 7c 24 08 02       	cmp    DWORD PTR [rsp+0x8],0x2
3375:	0f 94 c2             	sete   dl
3378:	45 31 e4             	xor    r12d,r12d
337b:	eb d4                	jmp    3351 <quotearg_buffer_restyled+0x471>
337d:	0f 1f 00             	nop    DWORD PTR [rax]
3380:	83 7c 24 08 02       	cmp    DWORD PTR [rsp+0x8],0x2
3385:	bb 20 00 00 00       	mov    ebx,0x20
338a:	0f 94 c2             	sete   dl
338d:	eb c2                	jmp    3351 <quotearg_buffer_restyled+0x471>
338f:	90                   	nop
3390:	ba 0d 00 00 00       	mov    edx,0xd
3395:	bb 72 00 00 00       	mov    ebx,0x72
339a:	e9 63 fe ff ff       	jmp    3202 <quotearg_buffer_restyled+0x322>
339f:	90                   	nop
33a0:	ba 0c 00 00 00       	mov    edx,0xc
33a5:	bb 66 00 00 00       	mov    ebx,0x66
33aa:	e9 65 fe ff ff       	jmp    3214 <quotearg_buffer_restyled+0x334>
33af:	90                   	nop
33b0:	ba 0b 00 00 00       	mov    edx,0xb
33b5:	bb 76 00 00 00       	mov    ebx,0x76
33ba:	e9 55 fe ff ff       	jmp    3214 <quotearg_buffer_restyled+0x334>
33bf:	90                   	nop
33c0:	ba 0a 00 00 00       	mov    edx,0xa
33c5:	bb 6e 00 00 00       	mov    ebx,0x6e
33ca:	e9 33 fe ff ff       	jmp    3202 <quotearg_buffer_restyled+0x322>
33cf:	90                   	nop
33d0:	45 31 d2             	xor    r10d,r10d
33d3:	0f 1f 44 00 00       	nop    DWORD PTR [rax+rax*1+0x0]
33d8:	48 83 7c 24 58 01    	cmp    QWORD PTR [rsp+0x58],0x1
33de:	0f 85 a4 03 00 00    	jne    3788 <quotearg_buffer_restyled+0x8a8>
33e4:	4c 89 5c 24 38       	mov    QWORD PTR [rsp+0x38],r11
33e9:	44 88 44 24 30       	mov    BYTE PTR [rsp+0x30],r8b
33ee:	44 88 54 24 28       	mov    BYTE PTR [rsp+0x28],r10b
33f3:	e8 78 e5 ff ff       	call   1970 <__ctype_b_loc@plt>
33f8:	48 8b 08             	mov    rcx,QWORD PTR [rax]
33fb:	0f b6 d3             	movzx  edx,bl
33fe:	44 0f b6 54 24 28    	movzx  r10d,BYTE PTR [rsp+0x28]
3404:	44 0f b6 44 24 30    	movzx  r8d,BYTE PTR [rsp+0x30]
340a:	4c 8b 5c 24 38       	mov    r11,QWORD PTR [rsp+0x38]
340f:	bf 01 00 00 00       	mov    edi,0x1
3414:	0f b7 04 51          	movzx  eax,WORD PTR [rcx+rdx*2]
3418:	66 25 00 40          	and    ax,0x4000
341c:	41 0f 95 c4          	setne  r12b
3420:	0f 94 c0             	sete   al
3423:	22 44 24 0d          	and    al,BYTE PTR [rsp+0xd]
3427:	84 c0                	test   al,al
3429:	0f 85 92 09 00 00    	jne    3dc1 <quotearg_buffer_restyled+0xee1>
342f:	83 7c 24 08 02       	cmp    DWORD PTR [rsp+0x8],0x2
3434:	0f 94 c2             	sete   dl
3437:	e9 cc fc ff ff       	jmp    3108 <quotearg_buffer_restyled+0x228>
343c:	0f 1f 40 00          	nop    DWORD PTR [rax+0x0]
3440:	41 0f b6 19          	movzx  ebx,BYTE PTR [r9]
3444:	80 fb 7e             	cmp    bl,0x7e
3447:	77 87                	ja     33d0 <quotearg_buffer_restyled+0x4f0>
3449:	48 8d 0d 18 38 00 00 	lea    rcx,[rip+0x3818]        # 6c68 <_IO_stdin_used+0xa48>
3450:	0f b6 d3             	movzx  edx,bl
3453:	48 63 04 91          	movsxd rax,DWORD PTR [rcx+rdx*4]
3457:	48 01 c8             	add    rax,rcx
345a:	ff e0                	jmp    rax
345c:	0f 1f 40 00          	nop    DWORD PTR [rax+0x0]
3460:	45 31 d2             	xor    r10d,r10d
3463:	80 7c 24 0d 00       	cmp    BYTE PTR [rsp+0xd],0x0
3468:	0f 85 f0 fd ff ff    	jne    325e <quotearg_buffer_restyled+0x37e>
346e:	66 90                	xchg   ax,ax
3470:	ba 5c 00 00 00       	mov    edx,0x5c
3475:	bb 5c 00 00 00       	mov    ebx,0x5c
347a:	e9 95 fd ff ff       	jmp    3214 <quotearg_buffer_restyled+0x334>
347f:	90                   	nop
3480:	ba 0c 00 00 00       	mov    edx,0xc
3485:	45 31 d2             	xor    r10d,r10d
3488:	bb 66 00 00 00       	mov    ebx,0x66
348d:	e9 82 fd ff ff       	jmp    3214 <quotearg_buffer_restyled+0x334>
3492:	66 0f 1f 44 00 00    	nop    WORD PTR [rax+rax*1+0x0]
3498:	ba 0a 00 00 00       	mov    edx,0xa
349d:	45 31 d2             	xor    r10d,r10d
34a0:	bb 6e 00 00 00       	mov    ebx,0x6e
34a5:	e9 58 fd ff ff       	jmp    3202 <quotearg_buffer_restyled+0x322>
34aa:	66 0f 1f 44 00 00    	nop    WORD PTR [rax+rax*1+0x0]
34b0:	bb 61 00 00 00       	mov    ebx,0x61
34b5:	e9 c6 fd ff ff       	jmp    3280 <quotearg_buffer_restyled+0x3a0>
34ba:	66 0f 1f 44 00 00    	nop    WORD PTR [rax+rax*1+0x0]
34c0:	45 31 d2             	xor    r10d,r10d
34c3:	83 7c 24 08 02       	cmp    DWORD PTR [rsp+0x8],0x2
34c8:	0f 94 c2             	sete   dl
34cb:	80 7c 24 0f 00       	cmp    BYTE PTR [rsp+0xf],0x0
34d0:	0f 85 94 0b 00 00    	jne    406a <quotearg_buffer_restyled+0x118a>
34d6:	44 89 c0             	mov    eax,r8d
34d9:	4c 89 f9             	mov    rcx,r15
34dc:	83 f0 01             	xor    eax,0x1
34df:	20 d0                	and    al,dl
34e1:	74 2d                	je     3510 <quotearg_buffer_restyled+0x630>
34e3:	4d 39 fd             	cmp    r13,r15
34e6:	76 05                	jbe    34ed <quotearg_buffer_restyled+0x60d>
34e8:	43 c6 04 3e 27       	mov    BYTE PTR [r14+r15*1],0x27
34ed:	49 8d 4f 01          	lea    rcx,[r15+0x1]
34f1:	49 39 cd             	cmp    r13,rcx
34f4:	76 06                	jbe    34fc <quotearg_buffer_restyled+0x61c>
34f6:	43 c6 44 3e 01 24    	mov    BYTE PTR [r14+r15*1+0x1],0x24
34fc:	49 8d 4f 02          	lea    rcx,[r15+0x2]
3500:	49 39 cd             	cmp    r13,rcx
3503:	0f 87 30 06 00 00    	ja     3b39 <quotearg_buffer_restyled+0xc59>
3509:	49 8d 4f 03          	lea    rcx,[r15+0x3]
350d:	41 89 c0             	mov    r8d,eax
3510:	49 39 cd             	cmp    r13,rcx
3513:	76 05                	jbe    351a <quotearg_buffer_restyled+0x63a>
3515:	41 c6 04 0e 5c       	mov    BYTE PTR [r14+rcx*1],0x5c
351a:	83 7c 24 08 02       	cmp    DWORD PTR [rsp+0x8],0x2
351f:	4c 8d 79 01          	lea    r15,[rcx+0x1]
3523:	0f 84 00 06 00 00    	je     3b29 <quotearg_buffer_restyled+0xc49>
3529:	48 8d 45 01          	lea    rax,[rbp+0x1]
352d:	4c 39 d8             	cmp    rax,r11
3530:	73 19                	jae    354b <quotearg_buffer_restyled+0x66b>
3532:	48 8b 44 24 10       	mov    rax,QWORD PTR [rsp+0x10]
3537:	0f b6 44 28 01       	movzx  eax,BYTE PTR [rax+rbp*1+0x1]
353c:	88 44 24 28          	mov    BYTE PTR [rsp+0x28],al
3540:	83 e8 30             	sub    eax,0x30
3543:	3c 09                	cmp    al,0x9
3545:	0f 86 2e 08 00 00    	jbe    3d79 <quotearg_buffer_restyled+0xe99>
354b:	44 89 e0             	mov    eax,r12d
354e:	bb 30 00 00 00       	mov    ebx,0x30
3553:	45 31 e4             	xor    r12d,r12d
3556:	e9 ad fb ff ff       	jmp    3108 <quotearg_buffer_restyled+0x228>
355b:	0f 1f 44 00 00       	nop    DWORD PTR [rax+rax*1+0x0]
3560:	83 7c 24 08 02       	cmp    DWORD PTR [rsp+0x8],0x2
3565:	45 89 d4             	mov    r12d,r10d
3568:	0f 94 c2             	sete   dl
356b:	45 31 d2             	xor    r10d,r10d
356e:	31 c0                	xor    eax,eax
3570:	e9 93 fb ff ff       	jmp    3108 <quotearg_buffer_restyled+0x228>
3575:	0f 1f 00             	nop    DWORD PTR [rax]
3578:	83 7c 24 08 02       	cmp    DWORD PTR [rsp+0x8],0x2
357d:	0f 94 c2             	sete   dl
3580:	45 31 d2             	xor    r10d,r10d
3583:	e9 c0 fd ff ff       	jmp    3348 <quotearg_buffer_restyled+0x468>
3588:	0f 1f 84 00 00 00 00 	nop    DWORD PTR [rax+rax*1+0x0]
358f:	00
3590:	83 7c 24 08 02       	cmp    DWORD PTR [rsp+0x8],0x2
3595:	0f 94 c2             	sete   dl
3598:	45 31 d2             	xor    r10d,r10d
359b:	45 31 e4             	xor    r12d,r12d
359e:	e9 ae fd ff ff       	jmp    3351 <quotearg_buffer_restyled+0x471>
35a3:	0f 1f 44 00 00       	nop    DWORD PTR [rax+rax*1+0x0]
35a8:	83 7c 24 08 02       	cmp    DWORD PTR [rsp+0x8],0x2
35ad:	45 89 d4             	mov    r12d,r10d
35b0:	bb 20 00 00 00       	mov    ebx,0x20
35b5:	0f 94 c2             	sete   dl
35b8:	45 31 d2             	xor    r10d,r10d
35bb:	e9 91 fd ff ff       	jmp    3351 <quotearg_buffer_restyled+0x471>
35c0:	ba 0d 00 00 00       	mov    edx,0xd
35c5:	45 31 d2             	xor    r10d,r10d
35c8:	bb 72 00 00 00       	mov    ebx,0x72
35cd:	e9 30 fc ff ff       	jmp    3202 <quotearg_buffer_restyled+0x322>
35d2:	66 0f 1f 44 00 00    	nop    WORD PTR [rax+rax*1+0x0]
35d8:	bb 76 00 00 00       	mov    ebx,0x76
35dd:	e9 9e fc ff ff       	jmp    3280 <quotearg_buffer_restyled+0x3a0>
35e2:	66 0f 1f 44 00 00    	nop    WORD PTR [rax+rax*1+0x0]
35e8:	ba 09 00 00 00       	mov    edx,0x9
35ed:	45 31 d2             	xor    r10d,r10d
35f0:	bb 74 00 00 00       	mov    ebx,0x74
35f5:	e9 08 fc ff ff       	jmp    3202 <quotearg_buffer_restyled+0x322>
35fa:	66 0f 1f 44 00 00    	nop    WORD PTR [rax+rax*1+0x0]
3600:	bb 62 00 00 00       	mov    ebx,0x62
3605:	e9 76 fc ff ff       	jmp    3280 <quotearg_buffer_restyled+0x3a0>
360a:	66 0f 1f 44 00 00    	nop    WORD PTR [rax+rax*1+0x0]
3610:	45 31 d2             	xor    r10d,r10d
3613:	e9 98 fa ff ff       	jmp    30b0 <quotearg_buffer_restyled+0x1d0>
3618:	0f 1f 84 00 00 00 00 	nop    DWORD PTR [rax+rax*1+0x0]
361f:	00
3620:	80 7c 24 0f 00       	cmp    BYTE PTR [rsp+0xf],0x0
3625:	0f 85 65 09 00 00    	jne    3f90 <quotearg_buffer_restyled+0x10b0>
362b:	48 83 c5 01          	add    rbp,0x1
362f:	44 89 c0             	mov    eax,r8d
3632:	45 31 e4             	xor    r12d,r12d
3635:	bb 5c 00 00 00       	mov    ebx,0x5c
363a:	e9 0d fb ff ff       	jmp    314c <quotearg_buffer_restyled+0x26c>
363f:	90                   	nop
3640:	83 7c 24 08 02       	cmp    DWORD PTR [rsp+0x8],0x2
3645:	0f b6 5c 24 0f       	movzx  ebx,BYTE PTR [rsp+0xf]
364a:	45 89 c4             	mov    r12d,r8d
364d:	4c 89 dd             	mov    rbp,r11
3650:	0f 94 c2             	sete   dl
3653:	89 d8                	mov    eax,ebx
3655:	4d 85 ff             	test   r15,r15
3658:	0f 94 c1             	sete   cl
365b:	21 d0                	and    eax,edx
365d:	20 c8                	and    al,cl
365f:	0f 85 61 0a 00 00    	jne    40c6 <quotearg_buffer_restyled+0x11e6>
3665:	89 d8                	mov    eax,ebx
3667:	83 f0 01             	xor    eax,0x1
366a:	20 c2                	and    dl,al
366c:	0f 84 6a 09 00 00    	je     3fdc <quotearg_buffer_restyled+0x10fc>
3672:	80 7c 24 7c 00       	cmp    BYTE PTR [rsp+0x7c],0x0
3677:	0f 84 5d 09 00 00    	je     3fda <quotearg_buffer_restyled+0x10fa>
367d:	80 7c 24 0e 00       	cmp    BYTE PTR [rsp+0xe],0x0
3682:	0f 85 f5 09 00 00    	jne    407d <quotearg_buffer_restyled+0x119d>
3688:	4d 85 ed             	test   r13,r13
368b:	0f 94 c0             	sete   al
368e:	48 83 7c 24 50 00    	cmp    QWORD PTR [rsp+0x50],0x0
3694:	0f 95 c2             	setne  dl
3697:	20 d0                	and    al,dl
3699:	0f 84 1d 0a 00 00    	je     40bc <quotearg_buffer_restyled+0x11dc>
369f:	4c 8b 6c 24 50       	mov    r13,QWORD PTR [rsp+0x50]
36a4:	48 8d 1d 3a 33 00 00 	lea    rbx,[rip+0x333a]        # 69e5 <_IO_stdin_used+0x7c5>
36ab:	41 c6 06 27          	mov    BYTE PTR [r14],0x27
36af:	c7 44 24 08 02 00 00 	mov    DWORD PTR [rsp+0x8],0x2
36b6:	00
36b7:	41 bf 01 00 00 00    	mov    r15d,0x1
36bd:	48 c7 44 24 18 01 00 	mov    QWORD PTR [rsp+0x18],0x1
36c4:	00 00
36c6:	c6 44 24 0f 00       	mov    BYTE PTR [rsp+0xf],0x0
36cb:	48 89 5c 24 48       	mov    QWORD PTR [rsp+0x48],rbx
36d0:	88 44 24 7c          	mov    BYTE PTR [rsp+0x7c],al
36d4:	e9 da f8 ff ff       	jmp    2fb3 <quotearg_buffer_restyled+0xd3>
36d9:	0f 1f 80 00 00 00 00 	nop    DWORD PTR [rax+0x0]
36e0:	80 7c 24 0f 00       	cmp    BYTE PTR [rsp+0xf],0x0
36e5:	0f 85 a5 08 00 00    	jne    3f90 <quotearg_buffer_restyled+0x10b0>
36eb:	4d 85 ed             	test   r13,r13
36ee:	0f 84 fc 03 00 00    	je     3af0 <quotearg_buffer_restyled+0xc10>
36f4:	31 d2                	xor    edx,edx
36f6:	48 83 7c 24 50 00    	cmp    QWORD PTR [rsp+0x50],0x0
36fc:	0f 85 ee 03 00 00    	jne    3af0 <quotearg_buffer_restyled+0xc10>
3702:	4c 89 6c 24 50       	mov    QWORD PTR [rsp+0x50],r13
3707:	49 83 c7 03          	add    r15,0x3
370b:	31 c0                	xor    eax,eax
370d:	44 88 64 24 7c       	mov    BYTE PTR [rsp+0x7c],r12b
3712:	45 31 c0             	xor    r8d,r8d
3715:	49 89 d5             	mov    r13,rdx
3718:	bb 27 00 00 00       	mov    ebx,0x27
371d:	e9 17 fa ff ff       	jmp    3139 <quotearg_buffer_restyled+0x259>
3722:	66 0f 1f 44 00 00    	nop    WORD PTR [rax+rax*1+0x0]
3728:	f6 44 24 78 04       	test   BYTE PTR [rsp+0x78],0x4
372d:	74 21                	je     3750 <quotearg_buffer_restyled+0x870>
372f:	48 8d 4d 02          	lea    rcx,[rbp+0x2]
3733:	4c 39 d9             	cmp    rcx,r11
3736:	73 18                	jae    3750 <quotearg_buffer_restyled+0x870>
3738:	48 8b 44 24 10       	mov    rax,QWORD PTR [rsp+0x10]
373d:	80 7c 28 01 3f       	cmp    BYTE PTR [rax+rbp*1+0x1],0x3f
3742:	0f 84 8a 07 00 00    	je     3ed2 <quotearg_buffer_restyled+0xff2>
3748:	0f 1f 84 00 00 00 00 	nop    DWORD PTR [rax+rax*1+0x0]
374f:	00
3750:	31 d2                	xor    edx,edx
3752:	45 31 e4             	xor    r12d,r12d
3755:	31 c0                	xor    eax,eax
3757:	bb 3f 00 00 00       	mov    ebx,0x3f
375c:	e9 a7 f9 ff ff       	jmp    3108 <quotearg_buffer_restyled+0x228>
3761:	0f 1f 80 00 00 00 00 	nop    DWORD PTR [rax+0x0]
3768:	80 7c 24 0f 00       	cmp    BYTE PTR [rsp+0xf],0x0
376d:	0f 85 1d 08 00 00    	jne    3f90 <quotearg_buffer_restyled+0x10b0>
3773:	45 31 e4             	xor    r12d,r12d
3776:	31 c0                	xor    eax,eax
3778:	bb 3f 00 00 00       	mov    ebx,0x3f
377d:	e9 b7 f9 ff ff       	jmp    3139 <quotearg_buffer_restyled+0x259>
3782:	66 0f 1f 44 00 00    	nop    WORD PTR [rax+rax*1+0x0]
3788:	48 8d 84 24 a0 00 00 	lea    rax,[rsp+0xa0]
378f:	00
3790:	49 83 fb ff          	cmp    r11,0xffffffffffffffff
3794:	48 c7 84 24 a0 00 00 	mov    QWORD PTR [rsp+0xa0],0x0
379b:	00 00 00 00 00
37a0:	48 89 44 24 28       	mov    QWORD PTR [rsp+0x28],rax
37a5:	75 2d                	jne    37d4 <quotearg_buffer_restyled+0x8f4>
37a7:	48 8b 7c 24 10       	mov    rdi,QWORD PTR [rsp+0x10]
37ac:	44 88 44 24 40       	mov    BYTE PTR [rsp+0x40],r8b
37b1:	44 88 54 24 38       	mov    BYTE PTR [rsp+0x38],r10b
37b6:	4c 89 4c 24 30       	mov    QWORD PTR [rsp+0x30],r9
37bb:	e8 20 df ff ff       	call   16e0 <strlen@plt>
37c0:	44 0f b6 44 24 40    	movzx  r8d,BYTE PTR [rsp+0x40]
37c6:	44 0f b6 54 24 38    	movzx  r10d,BYTE PTR [rsp+0x38]
37cc:	49 89 c3             	mov    r11,rax
37cf:	4c 8b 4c 24 30       	mov    r9,QWORD PTR [rsp+0x30]
37d4:	48 8d 84 24 9c 00 00 	lea    rax,[rsp+0x9c]
37db:	00
37dc:	31 c9                	xor    ecx,ecx
37de:	88 5c 24 7e          	mov    BYTE PTR [rsp+0x7e],bl
37e2:	44 88 44 24 7d       	mov    BYTE PTR [rsp+0x7d],r8b
37e7:	48 89 cb             	mov    rbx,rcx
37ea:	4c 89 8c 24 88 00 00 	mov    QWORD PTR [rsp+0x88],r9
37f1:	00
37f2:	48 89 44 24 38       	mov    QWORD PTR [rsp+0x38],rax
37f7:	44 88 54 24 7f       	mov    BYTE PTR [rsp+0x7f],r10b
37fc:	4c 89 bc 24 80 00 00 	mov    QWORD PTR [rsp+0x80],r15
3803:	00
3804:	4c 89 74 24 40       	mov    QWORD PTR [rsp+0x40],r14
3809:	4c 89 6c 24 70       	mov    QWORD PTR [rsp+0x70],r13
380e:	4c 89 5c 24 30       	mov    QWORD PTR [rsp+0x30],r11
3813:	48 8b 44 24 10       	mov    rax,QWORD PTR [rsp+0x10]
3818:	4c 8d 74 1d 00       	lea    r14,[rbp+rbx*1+0x0]
381d:	48 8b 54 24 30       	mov    rdx,QWORD PTR [rsp+0x30]
3822:	48 8b 4c 24 28       	mov    rcx,QWORD PTR [rsp+0x28]
3827:	48 8b 7c 24 38       	mov    rdi,QWORD PTR [rsp+0x38]
382c:	4e 8d 2c 30          	lea    r13,[rax+r14*1]
3830:	4c 29 f2             	sub    rdx,r14
3833:	4c 89 ee             	mov    rsi,r13
3836:	e8 e5 23 00 00       	call   5c20 <rpl_mbrtowc>
383b:	48 85 c0             	test   rax,rax
383e:	49 89 c7             	mov    r15,rax
3841:	74 4e                	je     3891 <quotearg_buffer_restyled+0x9b1>
3843:	48 83 f8 ff          	cmp    rax,0xffffffffffffffff
3847:	0f 84 18 06 00 00    	je     3e65 <quotearg_buffer_restyled+0xf85>
384d:	48 83 f8 fe          	cmp    rax,0xfffffffffffffffe
3851:	0f 84 9a 05 00 00    	je     3df1 <quotearg_buffer_restyled+0xf11>
3857:	83 7c 24 08 02       	cmp    DWORD PTR [rsp+0x8],0x2
385c:	0f 94 c0             	sete   al
385f:	22 44 24 0f          	and    al,BYTE PTR [rsp+0xf]
3863:	0f 85 97 01 00 00    	jne    3a00 <quotearg_buffer_restyled+0xb20>
3869:	8b bc 24 9c 00 00 00 	mov    edi,DWORD PTR [rsp+0x9c]
3870:	e8 eb e0 ff ff       	call   1960 <iswprint@plt>
3875:	48 8b 7c 24 28       	mov    rdi,QWORD PTR [rsp+0x28]
387a:	85 c0                	test   eax,eax
387c:	b8 00 00 00 00       	mov    eax,0x0
3881:	44 0f 44 e0          	cmove  r12d,eax
3885:	4c 01 fb             	add    rbx,r15
3888:	e8 c3 e0 ff ff       	call   1950 <mbsinit@plt>
388d:	85 c0                	test   eax,eax
388f:	74 82                	je     3813 <quotearg_buffer_restyled+0x933>
3891:	44 89 e2             	mov    edx,r12d
3894:	48 89 df             	mov    rdi,rbx
3897:	44 0f b6 44 24 7d    	movzx  r8d,BYTE PTR [rsp+0x7d]
389d:	83 f2 01             	xor    edx,0x1
38a0:	0f b6 5c 24 7e       	movzx  ebx,BYTE PTR [rsp+0x7e]
38a5:	44 0f b6 54 24 7f    	movzx  r10d,BYTE PTR [rsp+0x7f]
38ab:	22 54 24 0d          	and    dl,BYTE PTR [rsp+0xd]
38af:	4c 8b bc 24 80 00 00 	mov    r15,QWORD PTR [rsp+0x80]
38b6:	00
38b7:	4c 8b 74 24 40       	mov    r14,QWORD PTR [rsp+0x40]
38bc:	4c 8b 6c 24 70       	mov    r13,QWORD PTR [rsp+0x70]
38c1:	4c 8b 5c 24 30       	mov    r11,QWORD PTR [rsp+0x30]
38c6:	48 83 ff 01          	cmp    rdi,0x1
38ca:	0f 86 fb 05 00 00    	jbe    3ecb <quotearg_buffer_restyled+0xfeb>
38d0:	48 89 f9             	mov    rcx,rdi
38d3:	31 f6                	xor    esi,esi
38d5:	44 0f b6 4c 24 0f    	movzx  r9d,BYTE PTR [rsp+0xf]
38db:	48 01 e9             	add    rcx,rbp
38de:	48 8b 7c 24 10       	mov    rdi,QWORD PTR [rsp+0x10]
38e3:	e9 b6 00 00 00       	jmp    399e <quotearg_buffer_restyled+0xabe>
38e8:	0f 1f 84 00 00 00 00 	nop    DWORD PTR [rax+rax*1+0x0]
38ef:	00
38f0:	83 7c 24 08 02       	cmp    DWORD PTR [rsp+0x8],0x2
38f5:	0f 94 c0             	sete   al
38f8:	45 84 c9             	test   r9b,r9b
38fb:	0f 85 af 04 00 00    	jne    3db0 <quotearg_buffer_restyled+0xed0>
3901:	44 89 c6             	mov    esi,r8d
3904:	83 f6 01             	xor    esi,0x1
3907:	40 20 f0             	and    al,sil
390a:	74 2f                	je     393b <quotearg_buffer_restyled+0xa5b>
390c:	4d 39 fd             	cmp    r13,r15
390f:	76 05                	jbe    3916 <quotearg_buffer_restyled+0xa36>
3911:	43 c6 04 3e 27       	mov    BYTE PTR [r14+r15*1],0x27
3916:	49 8d 77 01          	lea    rsi,[r15+0x1]
391a:	49 39 f5             	cmp    r13,rsi
391d:	76 06                	jbe    3925 <quotearg_buffer_restyled+0xa45>
391f:	43 c6 44 3e 01 24    	mov    BYTE PTR [r14+r15*1+0x1],0x24
3925:	49 8d 77 02          	lea    rsi,[r15+0x2]
3929:	49 39 f5             	cmp    r13,rsi
392c:	76 06                	jbe    3934 <quotearg_buffer_restyled+0xa54>
392e:	43 c6 44 3e 02 27    	mov    BYTE PTR [r14+r15*1+0x2],0x27
3934:	49 83 c7 03          	add    r15,0x3
3938:	41 89 c0             	mov    r8d,eax
393b:	4d 39 fd             	cmp    r13,r15
393e:	76 05                	jbe    3945 <quotearg_buffer_restyled+0xa65>
3940:	43 c6 04 3e 5c       	mov    BYTE PTR [r14+r15*1],0x5c
3945:	49 8d 47 01          	lea    rax,[r15+0x1]
3949:	49 39 c5             	cmp    r13,rax
394c:	76 0d                	jbe    395b <quotearg_buffer_restyled+0xa7b>
394e:	89 d8                	mov    eax,ebx
3950:	c0 e8 06             	shr    al,0x6
3953:	83 c0 30             	add    eax,0x30
3956:	43 88 44 3e 01       	mov    BYTE PTR [r14+r15*1+0x1],al
395b:	49 8d 47 02          	lea    rax,[r15+0x2]
395f:	49 39 c5             	cmp    r13,rax
3962:	76 10                	jbe    3974 <quotearg_buffer_restyled+0xa94>
3964:	89 d8                	mov    eax,ebx
3966:	c0 e8 03             	shr    al,0x3
3969:	83 e0 07             	and    eax,0x7
396c:	83 c0 30             	add    eax,0x30
396f:	43 88 44 3e 02       	mov    BYTE PTR [r14+r15*1+0x2],al
3974:	83 e3 07             	and    ebx,0x7
3977:	48 83 c5 01          	add    rbp,0x1
397b:	49 83 c7 03          	add    r15,0x3
397f:	83 c3 30             	add    ebx,0x30
3982:	48 39 cd             	cmp    rbp,rcx
3985:	0f 83 e5 f7 ff ff    	jae    3170 <quotearg_buffer_restyled+0x290>
398b:	89 d6                	mov    esi,edx
398d:	4d 39 fd             	cmp    r13,r15
3990:	76 04                	jbe    3996 <quotearg_buffer_restyled+0xab6>
3992:	43 88 1c 3e          	mov    BYTE PTR [r14+r15*1],bl
3996:	0f b6 1c 2f          	movzx  ebx,BYTE PTR [rdi+rbp*1]
399a:	49 83 c7 01          	add    r15,0x1
399e:	84 d2                	test   dl,dl
39a0:	0f 85 4a ff ff ff    	jne    38f0 <quotearg_buffer_restyled+0xa10>
39a6:	89 f0                	mov    eax,esi
39a8:	83 f0 01             	xor    eax,0x1
39ab:	44 21 c0             	and    eax,r8d
39ae:	45 84 d2             	test   r10b,r10b
39b1:	74 0e                	je     39c1 <quotearg_buffer_restyled+0xae1>
39b3:	4d 39 fd             	cmp    r13,r15
39b6:	76 05                	jbe    39bd <quotearg_buffer_restyled+0xadd>
39b8:	43 c6 04 3e 5c       	mov    BYTE PTR [r14+r15*1],0x5c
39bd:	49 83 c7 01          	add    r15,0x1
39c1:	48 83 c5 01          	add    rbp,0x1
39c5:	48 39 cd             	cmp    rbp,rcx
39c8:	0f 83 7e f7 ff ff    	jae    314c <quotearg_buffer_restyled+0x26c>
39ce:	84 c0                	test   al,al
39d0:	0f 84 f8 03 00 00    	je     3dce <quotearg_buffer_restyled+0xeee>
39d6:	4d 39 fd             	cmp    r13,r15
39d9:	76 05                	jbe    39e0 <quotearg_buffer_restyled+0xb00>
39db:	43 c6 04 3e 27       	mov    BYTE PTR [r14+r15*1],0x27
39e0:	49 8d 47 01          	lea    rax,[r15+0x1]
39e4:	49 39 c5             	cmp    r13,rax
39e7:	76 06                	jbe    39ef <quotearg_buffer_restyled+0xb0f>
39e9:	43 c6 44 3e 01 27    	mov    BYTE PTR [r14+r15*1+0x1],0x27
39ef:	49 83 c7 02          	add    r15,0x2
39f3:	45 31 d2             	xor    r10d,r10d
39f6:	45 31 c0             	xor    r8d,r8d
39f9:	eb 92                	jmp    398d <quotearg_buffer_restyled+0xaad>
39fb:	0f 1f 44 00 00       	nop    DWORD PTR [rax+rax*1+0x0]
3a00:	49 83 ff 01          	cmp    r15,0x1
3a04:	0f 84 5f fe ff ff    	je     3869 <quotearg_buffer_restyled+0x989>
3a0a:	48 8b 7c 24 10       	mov    rdi,QWORD PTR [rsp+0x10]
3a0f:	4a 8d 0c 3f          	lea    rcx,[rdi+r15*1]
3a13:	4a 8d 54 37 01       	lea    rdx,[rdi+r14*1+0x1]
3a18:	4e 8d 04 31          	lea    r8,[rcx+r14*1]
3a1c:	eb 0f                	jmp    3a2d <quotearg_buffer_restyled+0xb4d>
3a1e:	66 90                	xchg   ax,ax
3a20:	48 83 c2 01          	add    rdx,0x1
3a24:	49 39 d0             	cmp    r8,rdx
3a27:	0f 84 3c fe ff ff    	je     3869 <quotearg_buffer_restyled+0x989>
3a2d:	0f b6 0a             	movzx  ecx,BYTE PTR [rdx]
3a30:	83 e9 5b             	sub    ecx,0x5b
3a33:	80 f9 21             	cmp    cl,0x21
3a36:	77 e8                	ja     3a20 <quotearg_buffer_restyled+0xb40>
3a38:	be 01 00 00 00       	mov    esi,0x1
3a3d:	48 d3 e6             	shl    rsi,cl
3a40:	48 89 f1             	mov    rcx,rsi
3a43:	48 be 2b 00 00 00 02 	movabs rsi,0x20000002b
3a4a:	00 00 00
3a4d:	48 85 f1             	test   rcx,rsi
3a50:	74 ce                	je     3a20 <quotearg_buffer_restyled+0xb40>
3a52:	4c 8b 74 24 40       	mov    r14,QWORD PTR [rsp+0x40]
3a57:	4c 8b 6c 24 70       	mov    r13,QWORD PTR [rsp+0x70]
3a5c:	48 8b 6c 24 30       	mov    rbp,QWORD PTR [rsp+0x30]
3a61:	c7 44 24 08 02 00 00 	mov    DWORD PTR [rsp+0x8],0x2
3a68:	00
3a69:	80 7c 24 0d 00       	cmp    BYTE PTR [rsp+0xd],0x0
3a6e:	74 10                	je     3a80 <quotearg_buffer_restyled+0xba0>
3a70:	84 c0                	test   al,al
3a72:	b8 04 00 00 00       	mov    eax,0x4
3a77:	0f 44 44 24 08       	cmove  eax,DWORD PTR [rsp+0x8]
3a7c:	89 44 24 08          	mov    DWORD PTR [rsp+0x8],eax
3a80:	48 83 ec 08          	sub    rsp,0x8
3a84:	48 89 e9             	mov    rcx,rbp
3a87:	4c 89 ee             	mov    rsi,r13
3a8a:	ff 74 24 68          	push   QWORD PTR [rsp+0x68]
3a8e:	ff 74 24 78          	push   QWORD PTR [rsp+0x78]
3a92:	4c 89 f7             	mov    rdi,r14
3a95:	6a 00                	push   0x0
3a97:	44 8b 8c 24 98 00 00 	mov    r9d,DWORD PTR [rsp+0x98]
3a9e:	00
3a9f:	44 8b 44 24 28       	mov    r8d,DWORD PTR [rsp+0x28]
3aa4:	48 8b 54 24 30       	mov    rdx,QWORD PTR [rsp+0x30]
3aa9:	41 83 e1 fd          	and    r9d,0xfffffffd
3aad:	e8 2e f4 ff ff       	call   2ee0 <quotearg_buffer_restyled>
3ab2:	48 83 c4 20          	add    rsp,0x20
3ab6:	49 89 c7             	mov    r15,rax
3ab9:	48 8b 9c 24 a8 00 00 	mov    rbx,QWORD PTR [rsp+0xa8]
3ac0:	00
3ac1:	64 48 33 1c 25 28 00 	xor    rbx,QWORD PTR fs:0x28
3ac8:	00 00
3aca:	4c 89 f8             	mov    rax,r15
3acd:	0f 85 00 06 00 00    	jne    40d3 <quotearg_buffer_restyled+0x11f3>
3ad3:	48 81 c4 b8 00 00 00 	add    rsp,0xb8
3ada:	5b                   	pop    rbx
3adb:	5d                   	pop    rbp
3adc:	41 5c                	pop    r12
3ade:	41 5d                	pop    r13
3ae0:	41 5e                	pop    r14
3ae2:	41 5f                	pop    r15
3ae4:	c3                   	ret
3ae5:	0f 1f 00             	nop    DWORD PTR [rax]
3ae8:	4c 89 dd             	mov    rbp,r11
3aeb:	e9 79 ff ff ff       	jmp    3a69 <quotearg_buffer_restyled+0xb89>
3af0:	4d 39 fd             	cmp    r13,r15
3af3:	76 05                	jbe    3afa <quotearg_buffer_restyled+0xc1a>
3af5:	43 c6 04 3e 27       	mov    BYTE PTR [r14+r15*1],0x27
3afa:	49 8d 47 01          	lea    rax,[r15+0x1]
3afe:	49 39 c5             	cmp    r13,rax
3b01:	76 06                	jbe    3b09 <quotearg_buffer_restyled+0xc29>
3b03:	43 c6 44 3e 01 5c    	mov    BYTE PTR [r14+r15*1+0x1],0x5c
3b09:	49 8d 47 02          	lea    rax,[r15+0x2]
3b0d:	49 39 c5             	cmp    r13,rax
3b10:	0f 86 ec 05 00 00    	jbe    4102 <quotearg_buffer_restyled+0x1222>
3b16:	4c 89 ea             	mov    rdx,r13
3b19:	43 c6 44 3e 02 27    	mov    BYTE PTR [r14+r15*1+0x2],0x27
3b1f:	4c 8b 6c 24 50       	mov    r13,QWORD PTR [rsp+0x50]
3b24:	e9 d9 fb ff ff       	jmp    3702 <quotearg_buffer_restyled+0x822>
3b29:	44 89 e0             	mov    eax,r12d
3b2c:	bb 30 00 00 00       	mov    ebx,0x30
3b31:	45 31 e4             	xor    r12d,r12d
3b34:	e9 00 f6 ff ff       	jmp    3139 <quotearg_buffer_restyled+0x259>
3b39:	43 c6 44 3e 02 27    	mov    BYTE PTR [r14+r15*1+0x2],0x27
3b3f:	e9 c5 f9 ff ff       	jmp    3509 <quotearg_buffer_restyled+0x629>
3b44:	85 db                	test   ebx,ebx
3b46:	0f 85 27 f4 ff ff    	jne    2f73 <quotearg_buffer_restyled+0x93>
3b4c:	c6 44 24 0d 01       	mov    BYTE PTR [rsp+0xd],0x1
3b51:	4d 85 ed             	test   r13,r13
3b54:	0f 85 90 05 00 00    	jne    40ea <quotearg_buffer_restyled+0x120a>
3b5a:	48 8d 05 84 2e 00 00 	lea    rax,[rip+0x2e84]        # 69e5 <_IO_stdin_used+0x7c5>
3b61:	48 c7 44 24 50 00 00 	mov    QWORD PTR [rsp+0x50],0x0
3b68:	00 00
3b6a:	c6 44 24 0e 01       	mov    BYTE PTR [rsp+0xe],0x1
3b6f:	c6 44 24 7c 00       	mov    BYTE PTR [rsp+0x7c],0x0
3b74:	45 31 e4             	xor    r12d,r12d
3b77:	c6 44 24 0f 00       	mov    BYTE PTR [rsp+0xf],0x0
3b7c:	48 c7 44 24 18 01 00 	mov    QWORD PTR [rsp+0x18],0x1
3b83:	00 00
3b85:	48 89 44 24 48       	mov    QWORD PTR [rsp+0x48],rax
3b8a:	41 bf 01 00 00 00    	mov    r15d,0x1
3b90:	c7 44 24 08 02 00 00 	mov    DWORD PTR [rsp+0x8],0x2
3b97:	00
3b98:	e9 16 f4 ff ff       	jmp    2fb3 <quotearg_buffer_restyled+0xd3>
3b9d:	0f 1f 00             	nop    DWORD PTR [rax]
3ba0:	85 db                	test   ebx,ebx
3ba2:	0f 85 f5 03 00 00    	jne    3f9d <quotearg_buffer_restyled+0x10bd>
3ba8:	4d 85 ed             	test   r13,r13
3bab:	0f 84 25 02 00 00    	je     3dd6 <quotearg_buffer_restyled+0xef6>
3bb1:	41 c6 06 22          	mov    BYTE PTR [r14],0x22
3bb5:	c6 44 24 0e 01       	mov    BYTE PTR [rsp+0xe],0x1
3bba:	45 31 e4             	xor    r12d,r12d
3bbd:	c6 44 24 7c 00       	mov    BYTE PTR [rsp+0x7c],0x0
3bc2:	48 c7 44 24 50 00 00 	mov    QWORD PTR [rsp+0x50],0x0
3bc9:	00 00
3bcb:	48 8d 05 11 2e 00 00 	lea    rax,[rip+0x2e11]        # 69e3 <_IO_stdin_used+0x7c3>
3bd2:	c6 44 24 0f 00       	mov    BYTE PTR [rsp+0xf],0x0
3bd7:	c6 44 24 0d 01       	mov    BYTE PTR [rsp+0xd],0x1
3bdc:	48 c7 44 24 18 01 00 	mov    QWORD PTR [rsp+0x18],0x1
3be3:	00 00
3be5:	41 bf 01 00 00 00    	mov    r15d,0x1
3beb:	48 89 44 24 48       	mov    QWORD PTR [rsp+0x48],rax
3bf0:	e9 be f3 ff ff       	jmp    2fb3 <quotearg_buffer_restyled+0xd3>
3bf5:	48 8d 05 e7 2d 00 00 	lea    rax,[rip+0x2de7]        # 69e3 <_IO_stdin_used+0x7c3>
3bfc:	c6 44 24 0e 01       	mov    BYTE PTR [rsp+0xe],0x1
3c01:	c6 44 24 7c 00       	mov    BYTE PTR [rsp+0x7c],0x0
3c06:	45 31 e4             	xor    r12d,r12d
3c09:	48 c7 44 24 50 00 00 	mov    QWORD PTR [rsp+0x50],0x0
3c10:	00 00
3c12:	c6 44 24 0f 01       	mov    BYTE PTR [rsp+0xf],0x1
3c17:	c6 44 24 0d 01       	mov    BYTE PTR [rsp+0xd],0x1
3c1c:	48 c7 44 24 18 01 00 	mov    QWORD PTR [rsp+0x18],0x1
3c23:	00 00
3c25:	45 31 ff             	xor    r15d,r15d
3c28:	48 89 44 24 48       	mov    QWORD PTR [rsp+0x48],rax
3c2d:	c7 44 24 08 05 00 00 	mov    DWORD PTR [rsp+0x8],0x5
3c34:	00
3c35:	e9 79 f3 ff ff       	jmp    2fb3 <quotearg_buffer_restyled+0xd3>
3c3a:	c6 44 24 0e 01       	mov    BYTE PTR [rsp+0xe],0x1
3c3f:	c6 44 24 7c 00       	mov    BYTE PTR [rsp+0x7c],0x0
3c44:	45 31 e4             	xor    r12d,r12d
3c47:	48 c7 44 24 50 00 00 	mov    QWORD PTR [rsp+0x50],0x0
3c4e:	00 00
3c50:	c6 44 24 0f 00       	mov    BYTE PTR [rsp+0xf],0x0
3c55:	45 31 ff             	xor    r15d,r15d
3c58:	c6 44 24 0d 01       	mov    BYTE PTR [rsp+0xd],0x1
3c5d:	48 c7 44 24 18 00 00 	mov    QWORD PTR [rsp+0x18],0x0
3c64:	00 00
3c66:	48 c7 44 24 48 00 00 	mov    QWORD PTR [rsp+0x48],0x0
3c6d:	00 00
3c6f:	e9 3f f3 ff ff       	jmp    2fb3 <quotearg_buffer_restyled+0xd3>
3c74:	83 7c 24 08 0a       	cmp    DWORD PTR [rsp+0x8],0xa
3c79:	74 56                	je     3cd1 <quotearg_buffer_restyled+0xdf1>
3c7b:	48 8d 35 65 2d 00 00 	lea    rsi,[rip+0x2d65]        # 69e7 <_IO_stdin_used+0x7c7>
3c82:	31 ff                	xor    edi,edi
3c84:	ba 05 00 00 00       	mov    edx,0x5
3c89:	e8 32 da ff ff       	call   16c0 <dcgettext@plt>
3c8e:	48 89 c1             	mov    rcx,rax
3c91:	48 89 44 24 68       	mov    QWORD PTR [rsp+0x68],rax
3c96:	48 8d 05 4a 2d 00 00 	lea    rax,[rip+0x2d4a]        # 69e7 <_IO_stdin_used+0x7c7>
3c9d:	48 39 c1             	cmp    rcx,rax
3ca0:	0f 84 98 03 00 00    	je     403e <quotearg_buffer_restyled+0x115e>
3ca6:	48 8d 35 38 2d 00 00 	lea    rsi,[rip+0x2d38]        # 69e5 <_IO_stdin_used+0x7c5>
3cad:	31 ff                	xor    edi,edi
3caf:	ba 05 00 00 00       	mov    edx,0x5
3cb4:	e8 07 da ff ff       	call   16c0 <dcgettext@plt>
3cb9:	48 89 c1             	mov    rcx,rax
3cbc:	48 89 44 24 60       	mov    QWORD PTR [rsp+0x60],rax
3cc1:	48 8d 05 1d 2d 00 00 	lea    rax,[rip+0x2d1d]        # 69e5 <_IO_stdin_used+0x7c5>
3cc8:	48 39 c1             	cmp    rcx,rax
3ccb:	0f 84 83 03 00 00    	je     4054 <quotearg_buffer_restyled+0x1174>
3cd1:	45 31 ff             	xor    r15d,r15d
3cd4:	85 db                	test   ebx,ebx
3cd6:	0f 84 c1 01 00 00    	je     3e9d <quotearg_buffer_restyled+0xfbd>
3cdc:	85 db                	test   ebx,ebx
3cde:	48 8b 5c 24 60       	mov    rbx,QWORD PTR [rsp+0x60]
3ce3:	0f 95 44 24 0f       	setne  BYTE PTR [rsp+0xf]
3ce8:	45 31 e4             	xor    r12d,r12d
3ceb:	48 89 df             	mov    rdi,rbx
3cee:	e8 ed d9 ff ff       	call   16e0 <strlen@plt>
3cf3:	48 89 5c 24 48       	mov    QWORD PTR [rsp+0x48],rbx
3cf8:	48 89 44 24 18       	mov    QWORD PTR [rsp+0x18],rax
3cfd:	c6 44 24 0e 01       	mov    BYTE PTR [rsp+0xe],0x1
3d02:	c6 44 24 7c 00       	mov    BYTE PTR [rsp+0x7c],0x0
3d07:	48 c7 44 24 50 00 00 	mov    QWORD PTR [rsp+0x50],0x0
3d0e:	00 00
3d10:	c6 44 24 0d 01       	mov    BYTE PTR [rsp+0xd],0x1
3d15:	e9 99 f2 ff ff       	jmp    2fb3 <quotearg_buffer_restyled+0xd3>
3d1a:	c6 44 24 0e 01       	mov    BYTE PTR [rsp+0xe],0x1
3d1f:	c6 44 24 7c 00       	mov    BYTE PTR [rsp+0x7c],0x0
3d24:	45 31 e4             	xor    r12d,r12d
3d27:	48 c7 44 24 50 00 00 	mov    QWORD PTR [rsp+0x50],0x0
3d2e:	00 00
3d30:	c6 44 24 0f 00       	mov    BYTE PTR [rsp+0xf],0x0
3d35:	45 31 ff             	xor    r15d,r15d
3d38:	c6 44 24 0d 00       	mov    BYTE PTR [rsp+0xd],0x0
3d3d:	48 c7 44 24 18 00 00 	mov    QWORD PTR [rsp+0x18],0x0
3d44:	00 00
3d46:	48 c7 44 24 48 00 00 	mov    QWORD PTR [rsp+0x48],0x0
3d4d:	00 00
3d4f:	e9 5f f2 ff ff       	jmp    2fb3 <quotearg_buffer_restyled+0xd3>
3d54:	c6 44 24 0e 01       	mov    BYTE PTR [rsp+0xe],0x1
3d59:	c6 44 24 7c 00       	mov    BYTE PTR [rsp+0x7c],0x0
3d5e:	45 31 e4             	xor    r12d,r12d
3d61:	48 c7 44 24 50 00 00 	mov    QWORD PTR [rsp+0x50],0x0
3d68:	00 00
3d6a:	c6 44 24 0f 01       	mov    BYTE PTR [rsp+0xf],0x1
3d6f:	c6 44 24 0d 01       	mov    BYTE PTR [rsp+0xd],0x1
3d74:	e9 1a f2 ff ff       	jmp    2f93 <quotearg_buffer_restyled+0xb3>
3d79:	4d 39 fd             	cmp    r13,r15
3d7c:	76 05                	jbe    3d83 <quotearg_buffer_restyled+0xea3>
3d7e:	43 c6 04 3e 30       	mov    BYTE PTR [r14+r15*1],0x30
3d83:	48 8d 41 02          	lea    rax,[rcx+0x2]
3d87:	49 39 c5             	cmp    r13,rax
3d8a:	76 06                	jbe    3d92 <quotearg_buffer_restyled+0xeb2>
3d8c:	41 c6 44 0e 02 30    	mov    BYTE PTR [r14+rcx*1+0x2],0x30
3d92:	44 89 e0             	mov    eax,r12d
3d95:	4c 8d 79 03          	lea    r15,[rcx+0x3]
3d99:	45 31 e4             	xor    r12d,r12d
3d9c:	bb 30 00 00 00       	mov    ebx,0x30
3da1:	e9 62 f3 ff ff       	jmp    3108 <quotearg_buffer_restyled+0x228>
3da6:	66 2e 0f 1f 84 00 00 	nop    WORD PTR cs:[rax+rax*1+0x0]
3dad:	00 00 00
3db0:	0f b6 5c 24 0f       	movzx  ebx,BYTE PTR [rsp+0xf]
3db5:	4c 89 dd             	mov    rbp,r11
3db8:	88 5c 24 0d          	mov    BYTE PTR [rsp+0xd],bl
3dbc:	e9 a8 fc ff ff       	jmp    3a69 <quotearg_buffer_restyled+0xb89>
3dc1:	0f b6 54 24 0d       	movzx  edx,BYTE PTR [rsp+0xd]
3dc6:	45 31 e4             	xor    r12d,r12d
3dc9:	e9 02 fb ff ff       	jmp    38d0 <quotearg_buffer_restyled+0x9f0>
3dce:	45 31 d2             	xor    r10d,r10d
3dd1:	e9 b7 fb ff ff       	jmp    398d <quotearg_buffer_restyled+0xaad>
3dd6:	48 c7 44 24 50 00 00 	mov    QWORD PTR [rsp+0x50],0x0
3ddd:	00 00
3ddf:	c6 44 24 0e 01       	mov    BYTE PTR [rsp+0xe],0x1
3de4:	45 31 e4             	xor    r12d,r12d
3de7:	c6 44 24 7c 00       	mov    BYTE PTR [rsp+0x7c],0x0
3dec:	e9 da fd ff ff       	jmp    3bcb <quotearg_buffer_restyled+0xceb>
3df1:	4c 8b 5c 24 30       	mov    r11,QWORD PTR [rsp+0x30]
3df6:	4c 89 f6             	mov    rsi,r14
3df9:	4c 89 e9             	mov    rcx,r13
3dfc:	48 89 d8             	mov    rax,rbx
3dff:	48 89 df             	mov    rdi,rbx
3e02:	44 0f b6 44 24 7d    	movzx  r8d,BYTE PTR [rsp+0x7d]
3e08:	0f b6 5c 24 7e       	movzx  ebx,BYTE PTR [rsp+0x7e]
3e0d:	4c 8b 8c 24 88 00 00 	mov    r9,QWORD PTR [rsp+0x88]
3e14:	00
3e15:	4c 39 de             	cmp    rsi,r11
3e18:	44 0f b6 54 24 7f    	movzx  r10d,BYTE PTR [rsp+0x7f]
3e1e:	4c 8b bc 24 80 00 00 	mov    r15,QWORD PTR [rsp+0x80]
3e25:	00
3e26:	4c 8b 74 24 40       	mov    r14,QWORD PTR [rsp+0x40]
3e2b:	4c 8b 6c 24 70       	mov    r13,QWORD PTR [rsp+0x70]
3e30:	73 26                	jae    3e58 <quotearg_buffer_restyled+0xf78>
3e32:	80 39 00             	cmp    BYTE PTR [rcx],0x0
3e35:	75 10                	jne    3e47 <quotearg_buffer_restyled+0xf67>
3e37:	eb 1f                	jmp    3e58 <quotearg_buffer_restyled+0xf78>
3e39:	0f 1f 80 00 00 00 00 	nop    DWORD PTR [rax+0x0]
3e40:	41 80 3c 01 00       	cmp    BYTE PTR [r9+rax*1],0x0
3e45:	74 0e                	je     3e55 <quotearg_buffer_restyled+0xf75>
3e47:	48 83 c0 01          	add    rax,0x1
3e4b:	48 8d 54 05 00       	lea    rdx,[rbp+rax*1+0x0]
3e50:	49 39 d3             	cmp    r11,rdx
3e53:	77 eb                	ja     3e40 <quotearg_buffer_restyled+0xf60>
3e55:	48 89 c7             	mov    rdi,rax
3e58:	0f b6 54 24 0d       	movzx  edx,BYTE PTR [rsp+0xd]
3e5d:	45 31 e4             	xor    r12d,r12d
3e60:	e9 61 fa ff ff       	jmp    38c6 <quotearg_buffer_restyled+0x9e6>
3e65:	48 89 df             	mov    rdi,rbx
3e68:	44 0f b6 44 24 7d    	movzx  r8d,BYTE PTR [rsp+0x7d]
3e6e:	0f b6 5c 24 7e       	movzx  ebx,BYTE PTR [rsp+0x7e]
3e73:	44 0f b6 54 24 7f    	movzx  r10d,BYTE PTR [rsp+0x7f]
3e79:	4c 8b bc 24 80 00 00 	mov    r15,QWORD PTR [rsp+0x80]
3e80:	00
3e81:	45 31 e4             	xor    r12d,r12d
3e84:	4c 8b 74 24 40       	mov    r14,QWORD PTR [rsp+0x40]
3e89:	4c 8b 6c 24 70       	mov    r13,QWORD PTR [rsp+0x70]
3e8e:	4c 8b 5c 24 30       	mov    r11,QWORD PTR [rsp+0x30]
3e93:	0f b6 54 24 0d       	movzx  edx,BYTE PTR [rsp+0xd]
3e98:	e9 29 fa ff ff       	jmp    38c6 <quotearg_buffer_restyled+0x9e6>
3e9d:	48 8b 54 24 68       	mov    rdx,QWORD PTR [rsp+0x68]
3ea2:	0f b6 02             	movzx  eax,BYTE PTR [rdx]
3ea5:	84 c0                	test   al,al
3ea7:	0f 84 2f fe ff ff    	je     3cdc <quotearg_buffer_restyled+0xdfc>
3ead:	0f 1f 00             	nop    DWORD PTR [rax]
3eb0:	4d 39 fd             	cmp    r13,r15
3eb3:	76 04                	jbe    3eb9 <quotearg_buffer_restyled+0xfd9>
3eb5:	43 88 04 3e          	mov    BYTE PTR [r14+r15*1],al
3eb9:	49 83 c7 01          	add    r15,0x1
3ebd:	42 0f b6 04 3a       	movzx  eax,BYTE PTR [rdx+r15*1]
3ec2:	84 c0                	test   al,al
3ec4:	75 ea                	jne    3eb0 <quotearg_buffer_restyled+0xfd0>
3ec6:	e9 11 fe ff ff       	jmp    3cdc <quotearg_buffer_restyled+0xdfc>
3ecb:	89 d0                	mov    eax,edx
3ecd:	e9 55 f5 ff ff       	jmp    3427 <quotearg_buffer_restyled+0x547>
3ed2:	0f b6 1c 08          	movzx  ebx,BYTE PTR [rax+rcx*1]
3ed6:	80 fb 3e             	cmp    bl,0x3e
3ed9:	0f 87 71 f8 ff ff    	ja     3750 <quotearg_buffer_restyled+0x870>
3edf:	48 b8 00 00 00 00 82 	movabs rax,0x7000a38200000000
3ee6:	a3 00 70
3ee9:	48 0f a3 d8          	bt     rax,rbx
3eed:	0f 83 5d f8 ff ff    	jae    3750 <quotearg_buffer_restyled+0x870>
3ef3:	80 7c 24 0f 00       	cmp    BYTE PTR [rsp+0xf],0x0
3ef8:	0f 85 e4 01 00 00    	jne    40e2 <quotearg_buffer_restyled+0x1202>
3efe:	4d 39 fd             	cmp    r13,r15
3f01:	76 05                	jbe    3f08 <quotearg_buffer_restyled+0x1028>
3f03:	43 c6 04 3e 3f       	mov    BYTE PTR [r14+r15*1],0x3f
3f08:	49 8d 47 01          	lea    rax,[r15+0x1]
3f0c:	49 39 c5             	cmp    r13,rax
3f0f:	76 06                	jbe    3f17 <quotearg_buffer_restyled+0x1037>
3f11:	43 c6 44 3e 01 22    	mov    BYTE PTR [r14+r15*1+0x1],0x22
3f17:	49 8d 47 02          	lea    rax,[r15+0x2]
3f1b:	49 39 c5             	cmp    r13,rax
3f1e:	76 06                	jbe    3f26 <quotearg_buffer_restyled+0x1046>
3f20:	43 c6 44 3e 02 22    	mov    BYTE PTR [r14+r15*1+0x2],0x22
3f26:	49 8d 47 03          	lea    rax,[r15+0x3]
3f2a:	49 39 c5             	cmp    r13,rax
3f2d:	76 06                	jbe    3f35 <quotearg_buffer_restyled+0x1055>
3f2f:	43 c6 44 3e 03 3f    	mov    BYTE PTR [r14+r15*1+0x3],0x3f
3f35:	49 83 c7 04          	add    r15,0x4
3f39:	31 d2                	xor    edx,edx
3f3b:	45 31 e4             	xor    r12d,r12d
3f3e:	31 c0                	xor    eax,eax
3f40:	48 89 cd             	mov    rbp,rcx
3f43:	e9 c0 f1 ff ff       	jmp    3108 <quotearg_buffer_restyled+0x228>
3f48:	85 db                	test   ebx,ebx
3f4a:	0f 84 88 01 00 00    	je     40d8 <quotearg_buffer_restyled+0x11f8>
3f50:	48 8d 05 8e 2a 00 00 	lea    rax,[rip+0x2a8e]        # 69e5 <_IO_stdin_used+0x7c5>
3f57:	c6 44 24 0e 01       	mov    BYTE PTR [rsp+0xe],0x1
3f5c:	c6 44 24 7c 00       	mov    BYTE PTR [rsp+0x7c],0x0
3f61:	45 31 e4             	xor    r12d,r12d
3f64:	48 c7 44 24 50 00 00 	mov    QWORD PTR [rsp+0x50],0x0
3f6b:	00 00
3f6d:	c6 44 24 0f 01       	mov    BYTE PTR [rsp+0xf],0x1
3f72:	c6 44 24 0d 00       	mov    BYTE PTR [rsp+0xd],0x0
3f77:	48 c7 44 24 18 01 00 	mov    QWORD PTR [rsp+0x18],0x1
3f7e:	00 00
3f80:	45 31 ff             	xor    r15d,r15d
3f83:	48 89 44 24 48       	mov    QWORD PTR [rsp+0x48],rax
3f88:	e9 26 f0 ff ff       	jmp    2fb3 <quotearg_buffer_restyled+0xd3>
3f8d:	0f 1f 00             	nop    DWORD PTR [rax]
3f90:	4c 89 dd             	mov    rbp,r11
3f93:	0f b6 44 24 0f       	movzx  eax,BYTE PTR [rsp+0xf]
3f98:	e9 cc fa ff ff       	jmp    3a69 <quotearg_buffer_restyled+0xb89>
3f9d:	48 8d 05 3f 2a 00 00 	lea    rax,[rip+0x2a3f]        # 69e3 <_IO_stdin_used+0x7c3>
3fa4:	c6 44 24 0e 01       	mov    BYTE PTR [rsp+0xe],0x1
3fa9:	c6 44 24 7c 00       	mov    BYTE PTR [rsp+0x7c],0x0
3fae:	45 31 e4             	xor    r12d,r12d
3fb1:	48 c7 44 24 50 00 00 	mov    QWORD PTR [rsp+0x50],0x0
3fb8:	00 00
3fba:	c6 44 24 0f 01       	mov    BYTE PTR [rsp+0xf],0x1
3fbf:	c6 44 24 0d 01       	mov    BYTE PTR [rsp+0xd],0x1
3fc4:	48 c7 44 24 18 01 00 	mov    QWORD PTR [rsp+0x18],0x1
3fcb:	00 00
3fcd:	45 31 ff             	xor    r15d,r15d
3fd0:	48 89 44 24 48       	mov    QWORD PTR [rsp+0x48],rax
3fd5:	e9 d9 ef ff ff       	jmp    2fb3 <quotearg_buffer_restyled+0xd3>
3fda:	89 d0                	mov    eax,edx
3fdc:	48 8b 5c 24 48       	mov    rbx,QWORD PTR [rsp+0x48]
3fe1:	48 85 db             	test   rbx,rbx
3fe4:	74 2c                	je     4012 <quotearg_buffer_restyled+0x1132>
3fe6:	84 c0                	test   al,al
3fe8:	74 28                	je     4012 <quotearg_buffer_restyled+0x1132>
3fea:	0f b6 0b             	movzx  ecx,BYTE PTR [rbx]
3fed:	48 89 d8             	mov    rax,rbx
3ff0:	84 c9                	test   cl,cl
3ff2:	74 1e                	je     4012 <quotearg_buffer_restyled+0x1132>
3ff4:	4c 89 fa             	mov    rdx,r15
3ff7:	4c 29 f8             	sub    rax,r15
3ffa:	49 39 d5             	cmp    r13,rdx
3ffd:	76 04                	jbe    4003 <quotearg_buffer_restyled+0x1123>
3fff:	41 88 0c 16          	mov    BYTE PTR [r14+rdx*1],cl
4003:	48 83 c2 01          	add    rdx,0x1
4007:	0f b6 0c 10          	movzx  ecx,BYTE PTR [rax+rdx*1]
400b:	84 c9                	test   cl,cl
400d:	75 eb                	jne    3ffa <quotearg_buffer_restyled+0x111a>
400f:	49 89 d7             	mov    r15,rdx
4012:	4d 39 fd             	cmp    r13,r15
4015:	0f 86 9e fa ff ff    	jbe    3ab9 <quotearg_buffer_restyled+0xbd9>
401b:	43 c6 04 3e 00       	mov    BYTE PTR [r14+r15*1],0x0
4020:	e9 94 fa ff ff       	jmp    3ab9 <quotearg_buffer_restyled+0xbd9>
4025:	83 7c 24 08 02       	cmp    DWORD PTR [rsp+0x8],0x2
402a:	0f b6 5c 24 0f       	movzx  ebx,BYTE PTR [rsp+0xf]
402f:	4c 89 dd             	mov    rbp,r11
4032:	0f 94 c0             	sete   al
4035:	88 5c 24 0d          	mov    BYTE PTR [rsp+0xd],bl
4039:	e9 2b fa ff ff       	jmp    3a69 <quotearg_buffer_restyled+0xb89>
403e:	8b 74 24 08          	mov    esi,DWORD PTR [rsp+0x8]
4042:	48 89 cf             	mov    rdi,rcx
4045:	e8 a6 ed ff ff       	call   2df0 <gettext_quote.part.1>
404a:	48 89 44 24 68       	mov    QWORD PTR [rsp+0x68],rax
404f:	e9 52 fc ff ff       	jmp    3ca6 <quotearg_buffer_restyled+0xdc6>
4054:	8b 74 24 08          	mov    esi,DWORD PTR [rsp+0x8]
4058:	48 89 cf             	mov    rdi,rcx
405b:	e8 90 ed ff ff       	call   2df0 <gettext_quote.part.1>
4060:	48 89 44 24 60       	mov    QWORD PTR [rsp+0x60],rax
4065:	e9 67 fc ff ff       	jmp    3cd1 <quotearg_buffer_restyled+0xdf1>
406a:	0f b6 5c 24 0f       	movzx  ebx,BYTE PTR [rsp+0xf]
406f:	4c 89 dd             	mov    rbp,r11
4072:	89 d0                	mov    eax,edx
4074:	88 5c 24 0d          	mov    BYTE PTR [rsp+0xd],bl
4078:	e9 ec f9 ff ff       	jmp    3a69 <quotearg_buffer_restyled+0xb89>
407d:	48 83 ec 08          	sub    rsp,0x8
4081:	41 b8 05 00 00 00    	mov    r8d,0x5
4087:	4c 89 d9             	mov    rcx,r11
408a:	ff 74 24 68          	push   QWORD PTR [rsp+0x68]
408e:	ff 74 24 78          	push   QWORD PTR [rsp+0x78]
4092:	4c 89 f7             	mov    rdi,r14
4095:	ff 74 24 38          	push   QWORD PTR [rsp+0x38]
4099:	44 8b 8c 24 98 00 00 	mov    r9d,DWORD PTR [rsp+0x98]
40a0:	00
40a1:	48 8b 54 24 30       	mov    rdx,QWORD PTR [rsp+0x30]
40a6:	48 8b 74 24 70       	mov    rsi,QWORD PTR [rsp+0x70]
40ab:	e8 30 ee ff ff       	call   2ee0 <quotearg_buffer_restyled>
40b0:	48 83 c4 20          	add    rsp,0x20
40b4:	49 89 c7             	mov    r15,rax
40b7:	e9 fd f9 ff ff       	jmp    3ab9 <quotearg_buffer_restyled+0xbd9>
40bc:	0f b6 44 24 7c       	movzx  eax,BYTE PTR [rsp+0x7c]
40c1:	e9 16 ff ff ff       	jmp    3fdc <quotearg_buffer_restyled+0x10fc>
40c6:	c7 44 24 08 02 00 00 	mov    DWORD PTR [rsp+0x8],0x2
40cd:	00
40ce:	e9 96 f9 ff ff       	jmp    3a69 <quotearg_buffer_restyled+0xb89>
40d3:	e8 18 d6 ff ff       	call   16f0 <__stack_chk_fail@plt>
40d8:	c6 44 24 0d 00       	mov    BYTE PTR [rsp+0xd],0x0
40dd:	e9 6f fa ff ff       	jmp    3b51 <quotearg_buffer_restyled+0xc71>
40e2:	4c 89 dd             	mov    rbp,r11
40e5:	e9 96 f9 ff ff       	jmp    3a80 <quotearg_buffer_restyled+0xba0>
40ea:	c6 44 24 0e 01       	mov    BYTE PTR [rsp+0xe],0x1
40ef:	31 c0                	xor    eax,eax
40f1:	45 31 e4             	xor    r12d,r12d
40f4:	48 c7 44 24 50 00 00 	mov    QWORD PTR [rsp+0x50],0x0
40fb:	00 00
40fd:	e9 a2 f5 ff ff       	jmp    36a4 <quotearg_buffer_restyled+0x7c4>
4102:	4c 89 ea             	mov    rdx,r13
4105:	4c 8b 6c 24 50       	mov    r13,QWORD PTR [rsp+0x50]
410a:	e9 f3 f5 ff ff       	jmp    3702 <quotearg_buffer_restyled+0x822>
410f:	e8 1c d5 ff ff       	call   1630 <abort@plt>
4114:	66 90                	xchg   ax,ax
4116:	66 2e 0f 1f 84 00 00 	nop    WORD PTR cs:[rax+rax*1+0x0]
411d:	00 00 00

0000000000004120 <quotearg_n_options>:
4120:	41 57                	push   r15
4122:	41 56                	push   r14
4124:	4c 63 ff             	movsxd r15,edi
4127:	41 55                	push   r13
4129:	41 54                	push   r12
412b:	49 89 d6             	mov    r14,rdx
412e:	55                   	push   rbp
412f:	53                   	push   rbx
4130:	48 89 cd             	mov    rbp,rcx
4133:	48 83 ec 28          	sub    rsp,0x28
4137:	48 89 74 24 08       	mov    QWORD PTR [rsp+0x8],rsi
413c:	e8 ff d4 ff ff       	call   1640 <__errno_location@plt>
4141:	49 89 c5             	mov    r13,rax
4144:	8b 00                	mov    eax,DWORD PTR [rax]
4146:	45 85 ff             	test   r15d,r15d
4149:	48 8b 1d 30 4f 20 00 	mov    rbx,QWORD PTR [rip+0x204f30]        # 209080 <slotvec>
4150:	89 44 24 18          	mov    DWORD PTR [rsp+0x18],eax
4154:	0f 88 67 01 00 00    	js     42c1 <quotearg_n_options+0x1a1>
415a:	44 39 3d 17 4f 20 00 	cmp    DWORD PTR [rip+0x204f17],r15d        # 209078 <nslots>
4161:	7f 62                	jg     41c5 <quotearg_n_options+0xa5>
4163:	41 81 ff ff ff ff 7f 	cmp    r15d,0x7fffffff
416a:	0f 84 56 01 00 00    	je     42c6 <quotearg_n_options+0x1a6>
4170:	45 8d 67 01          	lea    r12d,[r15+0x1]
4174:	48 8d 05 15 4f 20 00 	lea    rax,[rip+0x204f15]        # 209090 <slotvec0>
417b:	49 63 f4             	movsxd rsi,r12d
417e:	48 c1 e6 04          	shl    rsi,0x4
4182:	48 39 c3             	cmp    rbx,rax
4185:	0f 84 15 01 00 00    	je     42a0 <quotearg_n_options+0x180>
418b:	48 89 df             	mov    rdi,rbx
418e:	e8 0d 14 00 00       	call   55a0 <xrealloc>
4193:	48 89 c3             	mov    rbx,rax
4196:	48 89 05 e3 4e 20 00 	mov    QWORD PTR [rip+0x204ee3],rax        # 209080 <slotvec>
419d:	48 63 3d d4 4e 20 00 	movsxd rdi,DWORD PTR [rip+0x204ed4]        # 209078 <nslots>
41a4:	44 89 e2             	mov    edx,r12d
41a7:	31 f6                	xor    esi,esi
41a9:	29 fa                	sub    edx,edi
41ab:	48 c1 e7 04          	shl    rdi,0x4
41af:	48 63 d2             	movsxd rdx,edx
41b2:	48 01 df             	add    rdi,rbx
41b5:	48 c1 e2 04          	shl    rdx,0x4
41b9:	e8 d2 d5 ff ff       	call   1790 <memset@plt>
41be:	44 89 25 b3 4e 20 00 	mov    DWORD PTR [rip+0x204eb3],r12d        # 209078 <nslots>
41c5:	8b 45 04             	mov    eax,DWORD PTR [rbp+0x4]
41c8:	49 c1 e7 04          	shl    r15,0x4
41cc:	48 83 ec 08          	sub    rsp,0x8
41d0:	4c 01 fb             	add    rbx,r15
41d3:	4c 8d 7d 08          	lea    r15,[rbp+0x8]
41d7:	44 8b 45 00          	mov    r8d,DWORD PTR [rbp+0x0]
41db:	4c 8b 1b             	mov    r11,QWORD PTR [rbx]
41de:	4c 8b 63 08          	mov    r12,QWORD PTR [rbx+0x8]
41e2:	4c 89 f1             	mov    rcx,r14
41e5:	83 c8 01             	or     eax,0x1
41e8:	89 44 24 24          	mov    DWORD PTR [rsp+0x24],eax
41ec:	ff 75 30             	push   QWORD PTR [rbp+0x30]
41ef:	41 89 c1             	mov    r9d,eax
41f2:	ff 75 28             	push   QWORD PTR [rbp+0x28]
41f5:	41 57                	push   r15
41f7:	4c 89 de             	mov    rsi,r11
41fa:	48 8b 54 24 28       	mov    rdx,QWORD PTR [rsp+0x28]
41ff:	4c 89 e7             	mov    rdi,r12
4202:	4c 89 5c 24 30       	mov    QWORD PTR [rsp+0x30],r11
4207:	e8 d4 ec ff ff       	call   2ee0 <quotearg_buffer_restyled>
420c:	48 83 c4 20          	add    rsp,0x20
4210:	4c 8b 5c 24 10       	mov    r11,QWORD PTR [rsp+0x10]
4215:	49 39 c3             	cmp    r11,rax
4218:	77 67                	ja     4281 <quotearg_n_options+0x161>
421a:	48 8d 70 01          	lea    rsi,[rax+0x1]
421e:	48 8d 05 3b 4f 20 00 	lea    rax,[rip+0x204f3b]        # 209160 <slot0>
4225:	49 39 c4             	cmp    r12,rax
4228:	48 89 33             	mov    QWORD PTR [rbx],rsi
422b:	74 12                	je     423f <quotearg_n_options+0x11f>
422d:	4c 89 e7             	mov    rdi,r12
4230:	48 89 74 24 10       	mov    QWORD PTR [rsp+0x10],rsi
4235:	e8 e6 d3 ff ff       	call   1620 <free@plt>
423a:	48 8b 74 24 10       	mov    rsi,QWORD PTR [rsp+0x10]
423f:	48 89 f7             	mov    rdi,rsi
4242:	48 89 74 24 10       	mov    QWORD PTR [rsp+0x10],rsi
4247:	e8 f4 12 00 00       	call   5540 <xmalloc>
424c:	48 83 ec 08          	sub    rsp,0x8
4250:	48 89 43 08          	mov    QWORD PTR [rbx+0x8],rax
4254:	44 8b 45 00          	mov    r8d,DWORD PTR [rbp+0x0]
4258:	ff 75 30             	push   QWORD PTR [rbp+0x30]
425b:	ff 75 28             	push   QWORD PTR [rbp+0x28]
425e:	4c 89 f1             	mov    rcx,r14
4261:	41 57                	push   r15
4263:	44 8b 4c 24 3c       	mov    r9d,DWORD PTR [rsp+0x3c]
4268:	48 89 c7             	mov    rdi,rax
426b:	48 8b 54 24 28       	mov    rdx,QWORD PTR [rsp+0x28]
4270:	48 8b 74 24 30       	mov    rsi,QWORD PTR [rsp+0x30]
4275:	49 89 c4             	mov    r12,rax
4278:	e8 63 ec ff ff       	call   2ee0 <quotearg_buffer_restyled>
427d:	48 83 c4 20          	add    rsp,0x20
4281:	8b 44 24 18          	mov    eax,DWORD PTR [rsp+0x18]
4285:	41 89 45 00          	mov    DWORD PTR [r13+0x0],eax
4289:	48 83 c4 28          	add    rsp,0x28
428d:	4c 89 e0             	mov    rax,r12
4290:	5b                   	pop    rbx
4291:	5d                   	pop    rbp
4292:	41 5c                	pop    r12
4294:	41 5d                	pop    r13
4296:	41 5e                	pop    r14
4298:	41 5f                	pop    r15
429a:	c3                   	ret
429b:	0f 1f 44 00 00       	nop    DWORD PTR [rax+rax*1+0x0]
42a0:	31 ff                	xor    edi,edi
42a2:	e8 f9 12 00 00       	call   55a0 <xrealloc>
42a7:	66 0f 6f 05 e1 4d 20 	movdqa xmm0,XMMWORD PTR [rip+0x204de1]        # 209090 <slotvec0>
42ae:	00
42af:	48 89 c3             	mov    rbx,rax
42b2:	48 89 05 c7 4d 20 00 	mov    QWORD PTR [rip+0x204dc7],rax        # 209080 <slotvec>
42b9:	0f 11 00             	movups XMMWORD PTR [rax],xmm0
42bc:	e9 dc fe ff ff       	jmp    419d <quotearg_n_options+0x7d>
42c1:	e8 6a d3 ff ff       	call   1630 <abort@plt>
42c6:	e8 c5 14 00 00       	call   5790 <xalloc_die>
42cb:	0f 1f 44 00 00       	nop    DWORD PTR [rax+rax*1+0x0]

00000000000042d0 <clone_quoting_options>:
42d0:	41 54                	push   r12
42d2:	55                   	push   rbp
42d3:	53                   	push   rbx
42d4:	48 89 fb             	mov    rbx,rdi
42d7:	e8 64 d3 ff ff       	call   1640 <__errno_location@plt>
42dc:	44 8b 20             	mov    r12d,DWORD PTR [rax]
42df:	48 89 c5             	mov    rbp,rax
42e2:	48 8d 05 77 4f 20 00 	lea    rax,[rip+0x204f77]        # 209260 <default_quoting_options>
42e9:	48 85 db             	test   rbx,rbx
42ec:	be 38 00 00 00       	mov    esi,0x38
42f1:	48 0f 44 d8          	cmove  rbx,rax
42f5:	48 89 df             	mov    rdi,rbx
42f8:	e8 43 14 00 00       	call   5740 <xmemdup>
42fd:	44 89 65 00          	mov    DWORD PTR [rbp+0x0],r12d
4301:	5b                   	pop    rbx
4302:	5d                   	pop    rbp
4303:	41 5c                	pop    r12
4305:	c3                   	ret
4306:	66 2e 0f 1f 84 00 00 	nop    WORD PTR cs:[rax+rax*1+0x0]
430d:	00 00 00

0000000000004310 <get_quoting_style>:
4310:	48 8d 05 49 4f 20 00 	lea    rax,[rip+0x204f49]        # 209260 <default_quoting_options>
4317:	48 85 ff             	test   rdi,rdi
431a:	48 0f 44 f8          	cmove  rdi,rax
431e:	8b 07                	mov    eax,DWORD PTR [rdi]
4320:	c3                   	ret
4321:	0f 1f 44 00 00       	nop    DWORD PTR [rax+rax*1+0x0]
4326:	66 2e 0f 1f 84 00 00 	nop    WORD PTR cs:[rax+rax*1+0x0]
432d:	00 00 00

0000000000004330 <set_quoting_style>:
4330:	48 8d 05 29 4f 20 00 	lea    rax,[rip+0x204f29]        # 209260 <default_quoting_options>
4337:	48 85 ff             	test   rdi,rdi
433a:	48 0f 44 f8          	cmove  rdi,rax
433e:	89 37                	mov    DWORD PTR [rdi],esi
4340:	c3                   	ret
4341:	0f 1f 44 00 00       	nop    DWORD PTR [rax+rax*1+0x0]
4346:	66 2e 0f 1f 84 00 00 	nop    WORD PTR cs:[rax+rax*1+0x0]
434d:	00 00 00

0000000000004350 <set_char_quoting>:
4350:	48 8d 05 09 4f 20 00 	lea    rax,[rip+0x204f09]        # 209260 <default_quoting_options>
4357:	48 85 ff             	test   rdi,rdi
435a:	89 f1                	mov    ecx,esi
435c:	48 0f 44 f8          	cmove  rdi,rax
4360:	89 f0                	mov    eax,esi
4362:	83 e1 1f             	and    ecx,0x1f
4365:	c0 e8 05             	shr    al,0x5
4368:	0f b6 c0             	movzx  eax,al
436b:	48 8d 7c 87 08       	lea    rdi,[rdi+rax*4+0x8]
4370:	8b 37                	mov    esi,DWORD PTR [rdi]
4372:	89 f0                	mov    eax,esi
4374:	d3 e8                	shr    eax,cl
4376:	31 c2                	xor    edx,eax
4378:	83 e0 01             	and    eax,0x1
437b:	83 e2 01             	and    edx,0x1
437e:	d3 e2                	shl    edx,cl
4380:	31 f2                	xor    edx,esi
4382:	89 17                	mov    DWORD PTR [rdi],edx
4384:	c3                   	ret
4385:	90                   	nop
4386:	66 2e 0f 1f 84 00 00 	nop    WORD PTR cs:[rax+rax*1+0x0]
438d:	00 00 00

0000000000004390 <set_quoting_flags>:
4390:	48 8d 05 c9 4e 20 00 	lea    rax,[rip+0x204ec9]        # 209260 <default_quoting_options>
4397:	48 85 ff             	test   rdi,rdi
439a:	48 0f 44 f8          	cmove  rdi,rax
439e:	8b 47 04             	mov    eax,DWORD PTR [rdi+0x4]
43a1:	89 77 04             	mov    DWORD PTR [rdi+0x4],esi
43a4:	c3                   	ret
43a5:	90                   	nop
43a6:	66 2e 0f 1f 84 00 00 	nop    WORD PTR cs:[rax+rax*1+0x0]
43ad:	00 00 00

00000000000043b0 <set_custom_quoting>:
43b0:	48 8d 05 a9 4e 20 00 	lea    rax,[rip+0x204ea9]        # 209260 <default_quoting_options>
43b7:	48 85 ff             	test   rdi,rdi
43ba:	48 0f 44 f8          	cmove  rdi,rax
43be:	48 85 f6             	test   rsi,rsi
43c1:	c7 07 0a 00 00 00    	mov    DWORD PTR [rdi],0xa
43c7:	74 0e                	je     43d7 <set_custom_quoting+0x27>
43c9:	48 85 d2             	test   rdx,rdx
43cc:	74 09                	je     43d7 <set_custom_quoting+0x27>
43ce:	48 89 77 28          	mov    QWORD PTR [rdi+0x28],rsi
43d2:	48 89 57 30          	mov    QWORD PTR [rdi+0x30],rdx
43d6:	c3                   	ret
43d7:	48 83 ec 08          	sub    rsp,0x8
43db:	e8 50 d2 ff ff       	call   1630 <abort@plt>

00000000000043e0 <quotearg_buffer>:
43e0:	41 57                	push   r15
43e2:	41 56                	push   r14
43e4:	48 8d 05 75 4e 20 00 	lea    rax,[rip+0x204e75]        # 209260 <default_quoting_options>
43eb:	41 55                	push   r13
43ed:	41 54                	push   r12
43ef:	49 89 fd             	mov    r13,rdi
43f2:	55                   	push   rbp
43f3:	53                   	push   rbx
43f4:	4c 89 c3             	mov    rbx,r8
43f7:	49 89 f6             	mov    r14,rsi
43fa:	49 89 d7             	mov    r15,rdx
43fd:	48 83 ec 18          	sub    rsp,0x18
4401:	4d 85 c0             	test   r8,r8
4404:	48 0f 44 d8          	cmove  rbx,rax
4408:	48 89 4c 24 08       	mov    QWORD PTR [rsp+0x8],rcx
440d:	e8 2e d2 ff ff       	call   1640 <__errno_location@plt>
4412:	44 8b 20             	mov    r12d,DWORD PTR [rax]
4415:	48 89 c5             	mov    rbp,rax
4418:	48 8d 43 08          	lea    rax,[rbx+0x8]
441c:	48 83 ec 08          	sub    rsp,0x8
4420:	44 8b 4b 04          	mov    r9d,DWORD PTR [rbx+0x4]
4424:	ff 73 30             	push   QWORD PTR [rbx+0x30]
4427:	44 8b 03             	mov    r8d,DWORD PTR [rbx]
442a:	ff 73 28             	push   QWORD PTR [rbx+0x28]
442d:	4c 89 fa             	mov    rdx,r15
4430:	50                   	push   rax
4431:	48 8b 4c 24 28       	mov    rcx,QWORD PTR [rsp+0x28]
4436:	4c 89 f6             	mov    rsi,r14
4439:	4c 89 ef             	mov    rdi,r13
443c:	e8 9f ea ff ff       	call   2ee0 <quotearg_buffer_restyled>
4441:	44 89 65 00          	mov    DWORD PTR [rbp+0x0],r12d
4445:	48 83 c4 38          	add    rsp,0x38
4449:	5b                   	pop    rbx
444a:	5d                   	pop    rbp
444b:	41 5c                	pop    r12
444d:	41 5d                	pop    r13
444f:	41 5e                	pop    r14
4451:	41 5f                	pop    r15
4453:	c3                   	ret
4454:	66 90                	xchg   ax,ax
4456:	66 2e 0f 1f 84 00 00 	nop    WORD PTR cs:[rax+rax*1+0x0]
445d:	00 00 00

0000000000004460 <quotearg_alloc_mem>:
4460:	41 57                	push   r15
4462:	41 56                	push   r14
4464:	48 8d 05 f5 4d 20 00 	lea    rax,[rip+0x204df5]        # 209260 <default_quoting_options>
446b:	41 55                	push   r13
446d:	41 54                	push   r12
446f:	49 89 d4             	mov    r12,rdx
4472:	55                   	push   rbp
4473:	53                   	push   rbx
4474:	48 89 cb             	mov    rbx,rcx
4477:	49 89 fe             	mov    r14,rdi
447a:	49 89 f7             	mov    r15,rsi
447d:	48 83 ec 38          	sub    rsp,0x38
4481:	48 85 c9             	test   rcx,rcx
4484:	48 0f 44 d8          	cmove  rbx,rax
4488:	31 ed                	xor    ebp,ebp
448a:	e8 b1 d1 ff ff       	call   1640 <__errno_location@plt>
448f:	4d 85 e4             	test   r12,r12
4492:	49 89 c5             	mov    r13,rax
4495:	8b 00                	mov    eax,DWORD PTR [rax]
4497:	40 0f 94 c5          	sete   bpl
449b:	0b 6b 04             	or     ebp,DWORD PTR [rbx+0x4]
449e:	4c 8d 53 08          	lea    r10,[rbx+0x8]
44a2:	48 83 ec 08          	sub    rsp,0x8
44a6:	44 8b 03             	mov    r8d,DWORD PTR [rbx]
44a9:	4c 89 f9             	mov    rcx,r15
44ac:	89 44 24 14          	mov    DWORD PTR [rsp+0x14],eax
44b0:	ff 73 30             	push   QWORD PTR [rbx+0x30]
44b3:	4c 89 f2             	mov    rdx,r14
44b6:	ff 73 28             	push   QWORD PTR [rbx+0x28]
44b9:	41 52                	push   r10
44bb:	31 f6                	xor    esi,esi
44bd:	41 89 e9             	mov    r9d,ebp
44c0:	31 ff                	xor    edi,edi
44c2:	4c 89 54 24 40       	mov    QWORD PTR [rsp+0x40],r10
44c7:	e8 14 ea ff ff       	call   2ee0 <quotearg_buffer_restyled>
44cc:	48 8d 70 01          	lea    rsi,[rax+0x1]
44d0:	48 89 44 24 48       	mov    QWORD PTR [rsp+0x48],rax
44d5:	48 83 c4 20          	add    rsp,0x20
44d9:	48 89 f7             	mov    rdi,rsi
44dc:	48 89 74 24 18       	mov    QWORD PTR [rsp+0x18],rsi
44e1:	e8 5a 10 00 00       	call   5540 <xmalloc>
44e6:	48 89 44 24 10       	mov    QWORD PTR [rsp+0x10],rax
44eb:	48 83 ec 08          	sub    rsp,0x8
44ef:	ff 73 30             	push   QWORD PTR [rbx+0x30]
44f2:	ff 73 28             	push   QWORD PTR [rbx+0x28]
44f5:	4c 8b 54 24 38       	mov    r10,QWORD PTR [rsp+0x38]
44fa:	41 89 e9             	mov    r9d,ebp
44fd:	44 8b 03             	mov    r8d,DWORD PTR [rbx]
4500:	4c 89 f9             	mov    rcx,r15
4503:	4c 89 f2             	mov    rdx,r14
4506:	48 89 c7             	mov    rdi,rax
4509:	41 52                	push   r10
450b:	48 8b 74 24 38       	mov    rsi,QWORD PTR [rsp+0x38]
4510:	e8 cb e9 ff ff       	call   2ee0 <quotearg_buffer_restyled>
4515:	8b 44 24 2c          	mov    eax,DWORD PTR [rsp+0x2c]
4519:	48 83 c4 20          	add    rsp,0x20
451d:	4d 85 e4             	test   r12,r12
4520:	41 89 45 00          	mov    DWORD PTR [r13+0x0],eax
4524:	74 09                	je     452f <quotearg_alloc_mem+0xcf>
4526:	4c 8b 5c 24 28       	mov    r11,QWORD PTR [rsp+0x28]
452b:	4d 89 1c 24          	mov    QWORD PTR [r12],r11
452f:	48 8b 44 24 10       	mov    rax,QWORD PTR [rsp+0x10]
4534:	48 83 c4 38          	add    rsp,0x38
4538:	5b                   	pop    rbx
4539:	5d                   	pop    rbp
453a:	41 5c                	pop    r12
453c:	41 5d                	pop    r13
453e:	41 5e                	pop    r14
4540:	41 5f                	pop    r15
4542:	c3                   	ret
4543:	0f 1f 00             	nop    DWORD PTR [rax]
4546:	66 2e 0f 1f 84 00 00 	nop    WORD PTR cs:[rax+rax*1+0x0]
454d:	00 00 00

0000000000004550 <quotearg_alloc>:
4550:	48 89 d1             	mov    rcx,rdx
4553:	31 d2                	xor    edx,edx
4555:	e9 06 ff ff ff       	jmp    4460 <quotearg_alloc_mem>
455a:	66 0f 1f 44 00 00    	nop    WORD PTR [rax+rax*1+0x0]

0000000000004560 <quotearg_free>:
4560:	8b 05 12 4b 20 00    	mov    eax,DWORD PTR [rip+0x204b12]        # 209078 <nslots>
4566:	41 54                	push   r12
4568:	4c 8b 25 11 4b 20 00 	mov    r12,QWORD PTR [rip+0x204b11]        # 209080 <slotvec>
456f:	55                   	push   rbp
4570:	53                   	push   rbx
4571:	83 f8 01             	cmp    eax,0x1
4574:	7e 2b                	jle    45a1 <quotearg_free+0x41>
4576:	83 e8 02             	sub    eax,0x2
4579:	49 8d 5c 24 18       	lea    rbx,[r12+0x18]
457e:	48 c1 e0 04          	shl    rax,0x4
4582:	49 8d 6c 04 28       	lea    rbp,[r12+rax*1+0x28]
4587:	66 0f 1f 84 00 00 00 	nop    WORD PTR [rax+rax*1+0x0]
458e:	00 00
4590:	48 8b 3b             	mov    rdi,QWORD PTR [rbx]
4593:	48 83 c3 10          	add    rbx,0x10
4597:	e8 84 d0 ff ff       	call   1620 <free@plt>
459c:	48 39 eb             	cmp    rbx,rbp
459f:	75 ef                	jne    4590 <quotearg_free+0x30>
45a1:	49 8b 7c 24 08       	mov    rdi,QWORD PTR [r12+0x8]
45a6:	48 8d 1d b3 4b 20 00 	lea    rbx,[rip+0x204bb3]        # 209160 <slot0>
45ad:	48 39 df             	cmp    rdi,rbx
45b0:	74 17                	je     45c9 <quotearg_free+0x69>
45b2:	e8 69 d0 ff ff       	call   1620 <free@plt>
45b7:	48 c7 05 ce 4a 20 00 	mov    QWORD PTR [rip+0x204ace],0x100        # 209090 <slotvec0>
45be:	00 01 00 00
45c2:	48 89 1d cf 4a 20 00 	mov    QWORD PTR [rip+0x204acf],rbx        # 209098 <slotvec0+0x8>
45c9:	48 8d 1d c0 4a 20 00 	lea    rbx,[rip+0x204ac0]        # 209090 <slotvec0>
45d0:	49 39 dc             	cmp    r12,rbx
45d3:	74 0f                	je     45e4 <quotearg_free+0x84>
45d5:	4c 89 e7             	mov    rdi,r12
45d8:	e8 43 d0 ff ff       	call   1620 <free@plt>
45dd:	48 89 1d 9c 4a 20 00 	mov    QWORD PTR [rip+0x204a9c],rbx        # 209080 <slotvec>
45e4:	5b                   	pop    rbx
45e5:	c7 05 89 4a 20 00 01 	mov    DWORD PTR [rip+0x204a89],0x1        # 209078 <nslots>
45ec:	00 00 00
45ef:	5d                   	pop    rbp
45f0:	41 5c                	pop    r12
45f2:	c3                   	ret
45f3:	0f 1f 00             	nop    DWORD PTR [rax]
45f6:	66 2e 0f 1f 84 00 00 	nop    WORD PTR cs:[rax+rax*1+0x0]
45fd:	00 00 00

0000000000004600 <quotearg_n>:
4600:	48 8d 0d 59 4c 20 00 	lea    rcx,[rip+0x204c59]        # 209260 <default_quoting_options>
4607:	48 c7 c2 ff ff ff ff 	mov    rdx,0xffffffffffffffff
460e:	e9 0d fb ff ff       	jmp    4120 <quotearg_n_options>
4613:	0f 1f 00             	nop    DWORD PTR [rax]
4616:	66 2e 0f 1f 84 00 00 	nop    WORD PTR cs:[rax+rax*1+0x0]
461d:	00 00 00

0000000000004620 <quotearg_n_mem>:
4620:	48 8d 0d 39 4c 20 00 	lea    rcx,[rip+0x204c39]        # 209260 <default_quoting_options>
4627:	e9 f4 fa ff ff       	jmp    4120 <quotearg_n_options>
462c:	0f 1f 40 00          	nop    DWORD PTR [rax+0x0]

0000000000004630 <quotearg>:
4630:	48 8d 0d 29 4c 20 00 	lea    rcx,[rip+0x204c29]        # 209260 <default_quoting_options>
4637:	48 89 fe             	mov    rsi,rdi
463a:	48 c7 c2 ff ff ff ff 	mov    rdx,0xffffffffffffffff
4641:	31 ff                	xor    edi,edi
4643:	e9 d8 fa ff ff       	jmp    4120 <quotearg_n_options>
4648:	0f 1f 84 00 00 00 00 	nop    DWORD PTR [rax+rax*1+0x0]
464f:	00

0000000000004650 <quotearg_mem>:
4650:	48 8d 0d 09 4c 20 00 	lea    rcx,[rip+0x204c09]        # 209260 <default_quoting_options>
4657:	48 89 f2             	mov    rdx,rsi
465a:	48 89 fe             	mov    rsi,rdi
465d:	31 ff                	xor    edi,edi
465f:	e9 bc fa ff ff       	jmp    4120 <quotearg_n_options>
4664:	66 90                	xchg   ax,ax
4666:	66 2e 0f 1f 84 00 00 	nop    WORD PTR cs:[rax+rax*1+0x0]
466d:	00 00 00

0000000000004670 <quotearg_n_style>:
4670:	48 83 ec 48          	sub    rsp,0x48
4674:	48 89 d0             	mov    rax,rdx
4677:	64 48 8b 14 25 28 00 	mov    rdx,QWORD PTR fs:0x28
467e:	00 00
4680:	48 89 54 24 38       	mov    QWORD PTR [rsp+0x38],rdx
4685:	31 d2                	xor    edx,edx
4687:	83 fe 0a             	cmp    esi,0xa
468a:	74 68                	je     46f4 <quotearg_n_style+0x84>
468c:	89 34 24             	mov    DWORD PTR [rsp],esi
468f:	48 89 e1             	mov    rcx,rsp
4692:	48 c7 c2 ff ff ff ff 	mov    rdx,0xffffffffffffffff
4699:	48 89 c6             	mov    rsi,rax
469c:	48 c7 44 24 04 00 00 	mov    QWORD PTR [rsp+0x4],0x0
46a3:	00 00
46a5:	48 c7 44 24 0c 00 00 	mov    QWORD PTR [rsp+0xc],0x0
46ac:	00 00
46ae:	48 c7 44 24 14 00 00 	mov    QWORD PTR [rsp+0x14],0x0
46b5:	00 00
46b7:	48 c7 44 24 1c 00 00 	mov    QWORD PTR [rsp+0x1c],0x0
46be:	00 00
46c0:	48 c7 44 24 24 00 00 	mov    QWORD PTR [rsp+0x24],0x0
46c7:	00 00
46c9:	48 c7 44 24 2c 00 00 	mov    QWORD PTR [rsp+0x2c],0x0
46d0:	00 00
46d2:	c7 44 24 34 00 00 00 	mov    DWORD PTR [rsp+0x34],0x0
46d9:	00
46da:	e8 41 fa ff ff       	call   4120 <quotearg_n_options>
46df:	48 8b 4c 24 38       	mov    rcx,QWORD PTR [rsp+0x38]
46e4:	64 48 33 0c 25 28 00 	xor    rcx,QWORD PTR fs:0x28
46eb:	00 00
46ed:	75 0a                	jne    46f9 <quotearg_n_style+0x89>
46ef:	48 83 c4 48          	add    rsp,0x48
46f3:	c3                   	ret
46f4:	e8 37 cf ff ff       	call   1630 <abort@plt>
46f9:	e8 f2 cf ff ff       	call   16f0 <__stack_chk_fail@plt>
46fe:	66 90                	xchg   ax,ax

0000000000004700 <quotearg_n_style_mem>:
4700:	48 83 ec 48          	sub    rsp,0x48
4704:	48 89 d0             	mov    rax,rdx
4707:	48 89 ca             	mov    rdx,rcx
470a:	64 48 8b 0c 25 28 00 	mov    rcx,QWORD PTR fs:0x28
4711:	00 00
4713:	48 89 4c 24 38       	mov    QWORD PTR [rsp+0x38],rcx
4718:	31 c9                	xor    ecx,ecx
471a:	83 fe 0a             	cmp    esi,0xa
471d:	74 61                	je     4780 <quotearg_n_style_mem+0x80>
471f:	89 34 24             	mov    DWORD PTR [rsp],esi
4722:	48 89 e1             	mov    rcx,rsp
4725:	48 89 c6             	mov    rsi,rax
4728:	48 c7 44 24 04 00 00 	mov    QWORD PTR [rsp+0x4],0x0
472f:	00 00
4731:	48 c7 44 24 0c 00 00 	mov    QWORD PTR [rsp+0xc],0x0
4738:	00 00
473a:	48 c7 44 24 14 00 00 	mov    QWORD PTR [rsp+0x14],0x0
4741:	00 00
4743:	48 c7 44 24 1c 00 00 	mov    QWORD PTR [rsp+0x1c],0x0
474a:	00 00
474c:	48 c7 44 24 24 00 00 	mov    QWORD PTR [rsp+0x24],0x0
4753:	00 00
4755:	48 c7 44 24 2c 00 00 	mov    QWORD PTR [rsp+0x2c],0x0
475c:	00 00
475e:	c7 44 24 34 00 00 00 	mov    DWORD PTR [rsp+0x34],0x0
4765:	00
4766:	e8 b5 f9 ff ff       	call   4120 <quotearg_n_options>
476b:	48 8b 54 24 38       	mov    rdx,QWORD PTR [rsp+0x38]
4770:	64 48 33 14 25 28 00 	xor    rdx,QWORD PTR fs:0x28
4777:	00 00
4779:	75 0a                	jne    4785 <quotearg_n_style_mem+0x85>
477b:	48 83 c4 48          	add    rsp,0x48
477f:	c3                   	ret
4780:	e8 ab ce ff ff       	call   1630 <abort@plt>
4785:	e8 66 cf ff ff       	call   16f0 <__stack_chk_fail@plt>
478a:	66 0f 1f 44 00 00    	nop    WORD PTR [rax+rax*1+0x0]

0000000000004790 <quotearg_style>:
4790:	48 89 f2             	mov    rdx,rsi
4793:	89 fe                	mov    esi,edi
4795:	31 ff                	xor    edi,edi
4797:	e9 d4 fe ff ff       	jmp    4670 <quotearg_n_style>
479c:	0f 1f 40 00          	nop    DWORD PTR [rax+0x0]

00000000000047a0 <quotearg_style_mem>:
47a0:	48 89 d1             	mov    rcx,rdx
47a3:	48 89 f2             	mov    rdx,rsi
47a6:	89 fe                	mov    esi,edi
47a8:	31 ff                	xor    edi,edi
47aa:	e9 51 ff ff ff       	jmp    4700 <quotearg_n_style_mem>
47af:	90                   	nop

00000000000047b0 <quotearg_char_mem>:
47b0:	48 83 ec 48          	sub    rsp,0x48
47b4:	89 d1                	mov    ecx,edx
47b6:	64 48 8b 04 25 28 00 	mov    rax,QWORD PTR fs:0x28
47bd:	00 00
47bf:	48 89 44 24 38       	mov    QWORD PTR [rsp+0x38],rax
47c4:	31 c0                	xor    eax,eax
47c6:	48 8b 05 c3 4a 20 00 	mov    rax,QWORD PTR [rip+0x204ac3]        # 209290 <default_quoting_options+0x30>
47cd:	49 89 e0             	mov    r8,rsp
47d0:	83 e1 1f             	and    ecx,0x1f
47d3:	66 0f 6f 05 85 4a 20 	movdqa xmm0,XMMWORD PTR [rip+0x204a85]        # 209260 <default_quoting_options>
47da:	00
47db:	48 89 44 24 30       	mov    QWORD PTR [rsp+0x30],rax
47e0:	89 d0                	mov    eax,edx
47e2:	0f 29 04 24          	movaps XMMWORD PTR [rsp],xmm0
47e6:	c0 e8 05             	shr    al,0x5
47e9:	0f b6 c0             	movzx  eax,al
47ec:	4d 8d 4c 80 08       	lea    r9,[r8+rax*4+0x8]
47f1:	66 0f 6f 05 77 4a 20 	movdqa xmm0,XMMWORD PTR [rip+0x204a77]        # 209270 <default_quoting_options+0x10>
47f8:	00
47f9:	0f 29 44 24 10       	movaps XMMWORD PTR [rsp+0x10],xmm0
47fe:	66 0f 6f 05 7a 4a 20 	movdqa xmm0,XMMWORD PTR [rip+0x204a7a]        # 209280 <default_quoting_options+0x20>
4805:	00
4806:	0f 29 44 24 20       	movaps XMMWORD PTR [rsp+0x20],xmm0
480b:	41 8b 11             	mov    edx,DWORD PTR [r9]
480e:	89 d0                	mov    eax,edx
4810:	d3 e8                	shr    eax,cl
4812:	f7 d0                	not    eax
4814:	83 e0 01             	and    eax,0x1
4817:	d3 e0                	shl    eax,cl
4819:	4c 89 c1             	mov    rcx,r8
481c:	31 d0                	xor    eax,edx
481e:	48 89 f2             	mov    rdx,rsi
4821:	48 89 fe             	mov    rsi,rdi
4824:	41 89 01             	mov    DWORD PTR [r9],eax
4827:	31 ff                	xor    edi,edi
4829:	e8 f2 f8 ff ff       	call   4120 <quotearg_n_options>
482e:	48 8b 74 24 38       	mov    rsi,QWORD PTR [rsp+0x38]
4833:	64 48 33 34 25 28 00 	xor    rsi,QWORD PTR fs:0x28
483a:	00 00
483c:	75 05                	jne    4843 <quotearg_char_mem+0x93>
483e:	48 83 c4 48          	add    rsp,0x48
4842:	c3                   	ret
4843:	e8 a8 ce ff ff       	call   16f0 <__stack_chk_fail@plt>
4848:	0f 1f 84 00 00 00 00 	nop    DWORD PTR [rax+rax*1+0x0]
484f:	00

0000000000004850 <quotearg_char>:
4850:	40 0f be d6          	movsx  edx,sil
4854:	48 c7 c6 ff ff ff ff 	mov    rsi,0xffffffffffffffff
485b:	e9 50 ff ff ff       	jmp    47b0 <quotearg_char_mem>

0000000000004860 <quotearg_colon>:
4860:	ba 3a 00 00 00       	mov    edx,0x3a
4865:	48 c7 c6 ff ff ff ff 	mov    rsi,0xffffffffffffffff
486c:	e9 3f ff ff ff       	jmp    47b0 <quotearg_char_mem>
4871:	0f 1f 44 00 00       	nop    DWORD PTR [rax+rax*1+0x0]
4876:	66 2e 0f 1f 84 00 00 	nop    WORD PTR cs:[rax+rax*1+0x0]
487d:	00 00 00

0000000000004880 <quotearg_colon_mem>:
4880:	ba 3a 00 00 00       	mov    edx,0x3a
4885:	e9 26 ff ff ff       	jmp    47b0 <quotearg_char_mem>
488a:	66 0f 1f 44 00 00    	nop    WORD PTR [rax+rax*1+0x0]

0000000000004890 <quotearg_n_style_colon>:
4890:	48 83 ec 48          	sub    rsp,0x48
4894:	48 89 d0             	mov    rax,rdx
4897:	64 48 8b 14 25 28 00 	mov    rdx,QWORD PTR fs:0x28
489e:	00 00
48a0:	48 89 54 24 38       	mov    QWORD PTR [rsp+0x38],rdx
48a5:	31 d2                	xor    edx,edx
48a7:	83 fe 0a             	cmp    esi,0xa
48aa:	74 68                	je     4914 <quotearg_n_style_colon+0x84>
48ac:	89 34 24             	mov    DWORD PTR [rsp],esi
48af:	48 89 e1             	mov    rcx,rsp
48b2:	48 c7 c2 ff ff ff ff 	mov    rdx,0xffffffffffffffff
48b9:	48 89 c6             	mov    rsi,rax
48bc:	48 c7 44 24 04 00 00 	mov    QWORD PTR [rsp+0x4],0x0
48c3:	00 00
48c5:	48 c7 44 24 0c 00 00 	mov    QWORD PTR [rsp+0xc],0x4000000
48cc:	00 04
48ce:	48 c7 44 24 14 00 00 	mov    QWORD PTR [rsp+0x14],0x0
48d5:	00 00
48d7:	48 c7 44 24 1c 00 00 	mov    QWORD PTR [rsp+0x1c],0x0
48de:	00 00
48e0:	48 c7 44 24 24 00 00 	mov    QWORD PTR [rsp+0x24],0x0
48e7:	00 00
48e9:	48 c7 44 24 2c 00 00 	mov    QWORD PTR [rsp+0x2c],0x0
48f0:	00 00
48f2:	c7 44 24 34 00 00 00 	mov    DWORD PTR [rsp+0x34],0x0
48f9:	00
48fa:	e8 21 f8 ff ff       	call   4120 <quotearg_n_options>
48ff:	48 8b 4c 24 38       	mov    rcx,QWORD PTR [rsp+0x38]
4904:	64 48 33 0c 25 28 00 	xor    rcx,QWORD PTR fs:0x28
490b:	00 00
490d:	75 0a                	jne    4919 <quotearg_n_style_colon+0x89>
490f:	48 83 c4 48          	add    rsp,0x48
4913:	c3                   	ret
4914:	e8 17 cd ff ff       	call   1630 <abort@plt>
4919:	e8 d2 cd ff ff       	call   16f0 <__stack_chk_fail@plt>
491e:	66 90                	xchg   ax,ax

0000000000004920 <quotearg_n_custom_mem>:
4920:	48 83 ec 48          	sub    rsp,0x48
4924:	49 89 c9             	mov    r9,rcx
4927:	48 8b 0d 62 49 20 00 	mov    rcx,QWORD PTR [rip+0x204962]        # 209290 <default_quoting_options+0x30>
492e:	66 0f 6f 05 2a 49 20 	movdqa xmm0,XMMWORD PTR [rip+0x20492a]        # 209260 <default_quoting_options>
4935:	00
4936:	64 48 8b 04 25 28 00 	mov    rax,QWORD PTR fs:0x28
493d:	00 00
493f:	48 89 44 24 38       	mov    QWORD PTR [rsp+0x38],rax
4944:	31 c0                	xor    eax,eax
4946:	0f 29 04 24          	movaps XMMWORD PTR [rsp],xmm0
494a:	48 85 f6             	test   rsi,rsi
494d:	48 89 4c 24 30       	mov    QWORD PTR [rsp+0x30],rcx
4952:	c7 04 24 0a 00 00 00 	mov    DWORD PTR [rsp],0xa
4959:	66 0f 6f 05 0f 49 20 	movdqa xmm0,XMMWORD PTR [rip+0x20490f]        # 209270 <default_quoting_options+0x10>
4960:	00
4961:	0f 29 44 24 10       	movaps XMMWORD PTR [rsp+0x10],xmm0
4966:	66 0f 6f 05 12 49 20 	movdqa xmm0,XMMWORD PTR [rip+0x204912]        # 209280 <default_quoting_options+0x20>
496d:	00
496e:	0f 29 44 24 20       	movaps XMMWORD PTR [rsp+0x20],xmm0
4973:	74 32                	je     49a7 <quotearg_n_custom_mem+0x87>
4975:	48 85 d2             	test   rdx,rdx
4978:	74 2d                	je     49a7 <quotearg_n_custom_mem+0x87>
497a:	48 89 74 24 28       	mov    QWORD PTR [rsp+0x28],rsi
497f:	48 89 54 24 30       	mov    QWORD PTR [rsp+0x30],rdx
4984:	48 89 e1             	mov    rcx,rsp
4987:	4c 89 c2             	mov    rdx,r8
498a:	4c 89 ce             	mov    rsi,r9
498d:	e8 8e f7 ff ff       	call   4120 <quotearg_n_options>
4992:	48 8b 7c 24 38       	mov    rdi,QWORD PTR [rsp+0x38]
4997:	64 48 33 3c 25 28 00 	xor    rdi,QWORD PTR fs:0x28
499e:	00 00
49a0:	75 0a                	jne    49ac <quotearg_n_custom_mem+0x8c>
49a2:	48 83 c4 48          	add    rsp,0x48
49a6:	c3                   	ret
49a7:	e8 84 cc ff ff       	call   1630 <abort@plt>
49ac:	e8 3f cd ff ff       	call   16f0 <__stack_chk_fail@plt>
49b1:	0f 1f 44 00 00       	nop    DWORD PTR [rax+rax*1+0x0]
49b6:	66 2e 0f 1f 84 00 00 	nop    WORD PTR cs:[rax+rax*1+0x0]
49bd:	00 00 00

00000000000049c0 <quotearg_n_custom>:
49c0:	49 c7 c0 ff ff ff ff 	mov    r8,0xffffffffffffffff
49c7:	e9 54 ff ff ff       	jmp    4920 <quotearg_n_custom_mem>
49cc:	0f 1f 40 00          	nop    DWORD PTR [rax+0x0]

00000000000049d0 <quotearg_custom>:
49d0:	48 89 d1             	mov    rcx,rdx
49d3:	49 c7 c0 ff ff ff ff 	mov    r8,0xffffffffffffffff
49da:	48 89 f2             	mov    rdx,rsi
49dd:	48 89 fe             	mov    rsi,rdi
49e0:	31 ff                	xor    edi,edi
49e2:	e9 39 ff ff ff       	jmp    4920 <quotearg_n_custom_mem>
49e7:	66 0f 1f 84 00 00 00 	nop    WORD PTR [rax+rax*1+0x0]
49ee:	00 00

00000000000049f0 <quotearg_custom_mem>:
49f0:	49 89 c8             	mov    r8,rcx
49f3:	48 89 d1             	mov    rcx,rdx
49f6:	48 89 f2             	mov    rdx,rsi
49f9:	48 89 fe             	mov    rsi,rdi
49fc:	31 ff                	xor    edi,edi
49fe:	e9 1d ff ff ff       	jmp    4920 <quotearg_n_custom_mem>
4a03:	0f 1f 00             	nop    DWORD PTR [rax]
4a06:	66 2e 0f 1f 84 00 00 	nop    WORD PTR cs:[rax+rax*1+0x0]
4a0d:	00 00 00

0000000000004a10 <quote_n_mem>:
4a10:	48 8d 0d 29 46 20 00 	lea    rcx,[rip+0x204629]        # 209040 <quote_quoting_options>
4a17:	e9 04 f7 ff ff       	jmp    4120 <quotearg_n_options>
4a1c:	0f 1f 40 00          	nop    DWORD PTR [rax+0x0]

0000000000004a20 <quote_mem>:
4a20:	48 8d 0d 19 46 20 00 	lea    rcx,[rip+0x204619]        # 209040 <quote_quoting_options>
4a27:	48 89 f2             	mov    rdx,rsi
4a2a:	48 89 fe             	mov    rsi,rdi
4a2d:	31 ff                	xor    edi,edi
4a2f:	e9 ec f6 ff ff       	jmp    4120 <quotearg_n_options>
4a34:	66 90                	xchg   ax,ax
4a36:	66 2e 0f 1f 84 00 00 	nop    WORD PTR cs:[rax+rax*1+0x0]
4a3d:	00 00 00

0000000000004a40 <quote_n>:
4a40:	48 8d 0d f9 45 20 00 	lea    rcx,[rip+0x2045f9]        # 209040 <quote_quoting_options>
4a47:	48 c7 c2 ff ff ff ff 	mov    rdx,0xffffffffffffffff
4a4e:	e9 cd f6 ff ff       	jmp    4120 <quotearg_n_options>
4a53:	0f 1f 00             	nop    DWORD PTR [rax]
4a56:	66 2e 0f 1f 84 00 00 	nop    WORD PTR cs:[rax+rax*1+0x0]
4a5d:	00 00 00

0000000000004a60 <quote>:
4a60:	48 8d 0d d9 45 20 00 	lea    rcx,[rip+0x2045d9]        # 209040 <quote_quoting_options>
4a67:	48 89 fe             	mov    rsi,rdi
4a6a:	48 c7 c2 ff ff ff ff 	mov    rdx,0xffffffffffffffff
4a71:	31 ff                	xor    edi,edi
4a73:	e9 a8 f6 ff ff       	jmp    4120 <quotearg_n_options>
4a78:	0f 1f 84 00 00 00 00 	nop    DWORD PTR [rax+rax*1+0x0]
4a7f:	00

0000000000004a80 <parse_with_separator>:
4a80:	41 57                	push   r15
4a82:	41 56                	push   r14
4a84:	49 89 f2             	mov    r10,rsi
4a87:	41 55                	push   r13
4a89:	41 54                	push   r12
4a8b:	49 89 cc             	mov    r12,rcx
4a8e:	55                   	push   rbp
4a8f:	53                   	push   rbx
4a90:	4d 89 c5             	mov    r13,r8
4a93:	4d 89 ce             	mov    r14,r9
4a96:	41 bf ff ff ff ff    	mov    r15d,0xffffffff
4a9c:	48 83 ec 58          	sub    rsp,0x58
4aa0:	8b 02                	mov    eax,DWORD PTR [rdx]
4aa2:	64 48 8b 0c 25 28 00 	mov    rcx,QWORD PTR fs:0x28
4aa9:	00 00
4aab:	48 89 4c 24 48       	mov    QWORD PTR [rsp+0x48],rcx
4ab0:	31 c9                	xor    ecx,ecx
4ab2:	4d 85 e4             	test   r12,r12
4ab5:	48 89 54 24 10       	mov    QWORD PTR [rsp+0x10],rdx
4aba:	89 44 24 18          	mov    DWORD PTR [rsp+0x18],eax
4abe:	74 04                	je     4ac4 <parse_with_separator+0x44>
4ac0:	45 8b 3c 24          	mov    r15d,DWORD PTR [r12]
4ac4:	4d 85 ed             	test   r13,r13
4ac7:	74 08                	je     4ad1 <parse_with_separator+0x51>
4ac9:	49 c7 45 00 00 00 00 	mov    QWORD PTR [r13+0x0],0x0
4ad0:	00
4ad1:	4d 85 f6             	test   r14,r14
4ad4:	74 07                	je     4add <parse_with_separator+0x5d>
4ad6:	49 c7 06 00 00 00 00 	mov    QWORD PTR [r14],0x0
4add:	4d 85 d2             	test   r10,r10
4ae0:	0f 84 92 01 00 00    	je     4c78 <parse_with_separator+0x1f8>
4ae6:	4c 89 d3             	mov    rbx,r10
4ae9:	48 29 fb             	sub    rbx,rdi
4aec:	0f 85 ce 00 00 00    	jne    4bc0 <parse_with_separator+0x140>
4af2:	41 80 7a 01 00       	cmp    BYTE PTR [r10+0x1],0x0
4af7:	0f 84 0b 02 00 00    	je     4d08 <parse_with_separator+0x288>
4afd:	49 83 c2 01          	add    r10,0x1
4b01:	48 c7 04 24 00 00 00 	mov    QWORD PTR [rsp],0x0
4b08:	00
4b09:	0f 95 44 24 1e       	setne  BYTE PTR [rsp+0x1e]
4b0e:	4c 89 54 24 08       	mov    QWORD PTR [rsp+0x8],r10
4b13:	31 ed                	xor    ebp,ebp
4b15:	31 db                	xor    ebx,ebx
4b17:	80 7c 24 1e 00       	cmp    BYTE PTR [rsp+0x1e],0x0
4b1c:	0f 84 ee 02 00 00    	je     4e10 <parse_with_separator+0x390>
4b22:	48 8b 44 24 08       	mov    rax,QWORD PTR [rsp+0x8]
4b27:	80 38 2b             	cmp    BYTE PTR [rax],0x2b
4b2a:	0f 84 70 01 00 00    	je     4ca0 <parse_with_separator+0x220>
4b30:	48 8b 7c 24 08       	mov    rdi,QWORD PTR [rsp+0x8]
4b35:	e8 c6 cc ff ff       	call   1800 <getgrnam@plt>
4b3a:	48 85 c0             	test   rax,rax
4b3d:	0f 84 5d 01 00 00    	je     4ca0 <parse_with_separator+0x220>
4b43:	44 8b 78 10          	mov    r15d,DWORD PTR [rax+0x10]
4b47:	e8 b4 ca ff ff       	call   1600 <endgrent@plt>
4b4c:	48 8b 7c 24 08       	mov    rdi,QWORD PTR [rsp+0x8]
4b51:	e8 1a 0c 00 00       	call   5770 <xstrdup>
4b56:	48 89 c3             	mov    rbx,rax
4b59:	49 89 ea             	mov    r10,rbp
4b5c:	48 8b 44 24 10       	mov    rax,QWORD PTR [rsp+0x10]
4b61:	8b 74 24 18          	mov    esi,DWORD PTR [rsp+0x18]
4b65:	4d 85 e4             	test   r12,r12
4b68:	89 30                	mov    DWORD PTR [rax],esi
4b6a:	74 04                	je     4b70 <parse_with_separator+0xf0>
4b6c:	45 89 3c 24          	mov    DWORD PTR [r12],r15d
4b70:	4d 85 ed             	test   r13,r13
4b73:	74 07                	je     4b7c <parse_with_separator+0xfc>
4b75:	4d 89 55 00          	mov    QWORD PTR [r13+0x0],r10
4b79:	45 31 d2             	xor    r10d,r10d
4b7c:	4d 85 f6             	test   r14,r14
4b7f:	74 05                	je     4b86 <parse_with_separator+0x106>
4b81:	49 89 1e             	mov    QWORD PTR [r14],rbx
4b84:	31 db                	xor    ebx,ebx
4b86:	4c 89 d7             	mov    rdi,r10
4b89:	e8 92 ca ff ff       	call   1620 <free@plt>
4b8e:	48 89 df             	mov    rdi,rbx
4b91:	e8 8a ca ff ff       	call   1620 <free@plt>
4b96:	31 c0                	xor    eax,eax
4b98:	48 8b 54 24 48       	mov    rdx,QWORD PTR [rsp+0x48]
4b9d:	64 48 33 14 25 28 00 	xor    rdx,QWORD PTR fs:0x28
4ba4:	00 00
4ba6:	0f 85 89 02 00 00    	jne    4e35 <parse_with_separator+0x3b5>
4bac:	48 83 c4 58          	add    rsp,0x58
4bb0:	5b                   	pop    rbx
4bb1:	5d                   	pop    rbp
4bb2:	41 5c                	pop    r12
4bb4:	41 5d                	pop    r13
4bb6:	41 5e                	pop    r14
4bb8:	41 5f                	pop    r15
4bba:	c3                   	ret
4bbb:	0f 1f 44 00 00       	nop    DWORD PTR [rax+rax*1+0x0]
4bc0:	48 8d 73 01          	lea    rsi,[rbx+0x1]
4bc4:	4c 89 14 24          	mov    QWORD PTR [rsp],r10
4bc8:	e8 73 0b 00 00       	call   5740 <xmemdup>
4bcd:	4c 8b 14 24          	mov    r10,QWORD PTR [rsp]
4bd1:	c6 04 18 00          	mov    BYTE PTR [rax+rbx*1],0x0
4bd5:	48 89 c5             	mov    rbp,rax
4bd8:	41 80 7a 01 00       	cmp    BYTE PTR [r10+0x1],0x0
4bdd:	0f 85 4d 01 00 00    	jne    4d30 <parse_with_separator+0x2b0>
4be3:	48 85 ed             	test   rbp,rbp
4be6:	0f 84 1c 01 00 00    	je     4d08 <parse_with_separator+0x288>
4bec:	c6 44 24 1e 00       	mov    BYTE PTR [rsp+0x1e],0x0
4bf1:	b8 01 00 00 00       	mov    eax,0x1
4bf6:	48 c7 44 24 08 00 00 	mov    QWORD PTR [rsp+0x8],0x0
4bfd:	00 00
4bff:	4d 85 d2             	test   r10,r10
4c02:	41 0f 95 c1          	setne  r9b
4c06:	41 21 c1             	and    r9d,eax
4c09:	80 7d 00 2b          	cmp    BYTE PTR [rbp+0x0],0x2b
4c0d:	74 41                	je     4c50 <parse_with_separator+0x1d0>
4c0f:	48 89 ef             	mov    rdi,rbp
4c12:	44 88 0c 24          	mov    BYTE PTR [rsp],r9b
4c16:	e8 c5 cb ff ff       	call   17e0 <getpwnam@plt>
4c1b:	48 85 c0             	test   rax,rax
4c1e:	44 0f b6 0c 24       	movzx  r9d,BYTE PTR [rsp]
4c23:	74 2b                	je     4c50 <parse_with_separator+0x1d0>
4c25:	8b 48 10             	mov    ecx,DWORD PTR [rax+0x10]
4c28:	31 db                	xor    ebx,ebx
4c2a:	45 84 c9             	test   r9b,r9b
4c2d:	48 c7 04 24 00 00 00 	mov    QWORD PTR [rsp],0x0
4c34:	00
4c35:	89 4c 24 18          	mov    DWORD PTR [rsp+0x18],ecx
4c39:	0f 85 19 01 00 00    	jne    4d58 <parse_with_separator+0x2d8>
4c3f:	e8 2c cc ff ff       	call   1870 <endpwent@plt>
4c44:	e9 ce fe ff ff       	jmp    4b17 <parse_with_separator+0x97>
4c49:	0f 1f 80 00 00 00 00 	nop    DWORD PTR [rax+0x0]
4c50:	45 84 c9             	test   r9b,r9b
4c53:	0f 84 37 01 00 00    	je     4d90 <parse_with_separator+0x310>
4c59:	48 8d 05 55 22 00 00 	lea    rax,[rip+0x2255]        # 6eb5 <quoting_style_vals+0x35>
4c60:	c6 44 24 1e 00       	mov    BYTE PTR [rsp+0x1e],0x0
4c65:	31 db                	xor    ebx,ebx
4c67:	48 89 04 24          	mov    QWORD PTR [rsp],rax
4c6b:	e8 00 cc ff ff       	call   1870 <endpwent@plt>
4c70:	e9 a2 fe ff ff       	jmp    4b17 <parse_with_separator+0x97>
4c75:	0f 1f 00             	nop    DWORD PTR [rax]
4c78:	31 db                	xor    ebx,ebx
4c7a:	80 3f 00             	cmp    BYTE PTR [rdi],0x0
4c7d:	0f 84 d9 fe ff ff    	je     4b5c <parse_with_separator+0xdc>
4c83:	4c 89 14 24          	mov    QWORD PTR [rsp],r10
4c87:	e8 e4 0a 00 00       	call   5770 <xstrdup>
4c8c:	4c 8b 14 24          	mov    r10,QWORD PTR [rsp]
4c90:	48 89 c5             	mov    rbp,rax
4c93:	e9 4b ff ff ff       	jmp    4be3 <parse_with_separator+0x163>
4c98:	0f 1f 84 00 00 00 00 	nop    DWORD PTR [rax+rax*1+0x0]
4c9f:	00
4ca0:	48 8b 7c 24 08       	mov    rdi,QWORD PTR [rsp+0x8]
4ca5:	48 8d 4c 24 28       	lea    rcx,[rsp+0x28]
4caa:	4c 8d 05 78 22 00 00 	lea    r8,[rip+0x2278]        # 6f29 <quoting_style_vals+0xa9>
4cb1:	31 f6                	xor    esi,esi
4cb3:	ba 0a 00 00 00       	mov    edx,0xa
4cb8:	e8 43 0b 00 00       	call   5800 <xstrtoul>
4cbd:	85 c0                	test   eax,eax
4cbf:	74 57                	je     4d18 <parse_with_separator+0x298>
4cc1:	e8 3a c9 ff ff       	call   1600 <endgrent@plt>
4cc6:	48 8b 7c 24 08       	mov    rdi,QWORD PTR [rsp+0x8]
4ccb:	e8 a0 0a 00 00       	call   5770 <xstrdup>
4cd0:	48 89 c3             	mov    rbx,rax
4cd3:	48 8d 05 e8 21 00 00 	lea    rax,[rip+0x21e8]        # 6ec2 <quoting_style_vals+0x42>
4cda:	48 89 04 24          	mov    QWORD PTR [rsp],rax
4cde:	48 89 ef             	mov    rdi,rbp
4ce1:	e8 3a c9 ff ff       	call   1620 <free@plt>
4ce6:	48 89 df             	mov    rdi,rbx
4ce9:	e8 32 c9 ff ff       	call   1620 <free@plt>
4cee:	48 8b 34 24          	mov    rsi,QWORD PTR [rsp]
4cf2:	ba 05 00 00 00       	mov    edx,0x5
4cf7:	31 ff                	xor    edi,edi
4cf9:	e8 c2 c9 ff ff       	call   16c0 <dcgettext@plt>
4cfe:	e9 95 fe ff ff       	jmp    4b98 <parse_with_separator+0x118>
4d03:	0f 1f 44 00 00       	nop    DWORD PTR [rax+rax*1+0x0]
4d08:	45 31 d2             	xor    r10d,r10d
4d0b:	31 db                	xor    ebx,ebx
4d0d:	e9 4a fe ff ff       	jmp    4b5c <parse_with_separator+0xdc>
4d12:	66 0f 1f 44 00 00    	nop    WORD PTR [rax+rax*1+0x0]
4d18:	48 8b 44 24 28       	mov    rax,QWORD PTR [rsp+0x28]
4d1d:	ba fe ff ff ff       	mov    edx,0xfffffffe
4d22:	48 39 d0             	cmp    rax,rdx
4d25:	41 89 c7             	mov    r15d,eax
4d28:	0f 86 19 fe ff ff    	jbe    4b47 <parse_with_separator+0xc7>
4d2e:	eb 91                	jmp    4cc1 <parse_with_separator+0x241>
4d30:	4c 89 d0             	mov    rax,r10
4d33:	48 83 c0 01          	add    rax,0x1
4d37:	0f 95 44 24 1e       	setne  BYTE PTR [rsp+0x1e]
4d3c:	48 85 ed             	test   rbp,rbp
4d3f:	48 89 44 24 08       	mov    QWORD PTR [rsp+0x8],rax
4d44:	0f 84 f0 00 00 00    	je     4e3a <parse_with_separator+0x3ba>
4d4a:	48 85 c0             	test   rax,rax
4d4d:	0f 94 c0             	sete   al
4d50:	e9 aa fe ff ff       	jmp    4bff <parse_with_separator+0x17f>
4d55:	0f 1f 00             	nop    DWORD PTR [rax]
4d58:	44 8b 78 14          	mov    r15d,DWORD PTR [rax+0x14]
4d5c:	44 89 ff             	mov    edi,r15d
4d5f:	e8 dc c9 ff ff       	call   1740 <getgrgid@plt>
4d64:	48 85 c0             	test   rax,rax
4d67:	0f 84 b3 00 00 00    	je     4e20 <parse_with_separator+0x3a0>
4d6d:	48 8b 38             	mov    rdi,QWORD PTR [rax]
4d70:	e8 fb 09 00 00       	call   5770 <xstrdup>
4d75:	48 89 c3             	mov    rbx,rax
4d78:	e8 83 c8 ff ff       	call   1600 <endgrent@plt>
4d7d:	48 c7 04 24 00 00 00 	mov    QWORD PTR [rsp],0x0
4d84:	00
4d85:	e9 b5 fe ff ff       	jmp    4c3f <parse_with_separator+0x1bf>
4d8a:	66 0f 1f 44 00 00    	nop    WORD PTR [rax+rax*1+0x0]
4d90:	48 8d 4c 24 28       	lea    rcx,[rsp+0x28]
4d95:	4c 8d 05 8d 21 00 00 	lea    r8,[rip+0x218d]        # 6f29 <quoting_style_vals+0xa9>
4d9c:	31 f6                	xor    esi,esi
4d9e:	ba 0a 00 00 00       	mov    edx,0xa
4da3:	48 89 ef             	mov    rdi,rbp
4da6:	44 88 4c 24 1f       	mov    BYTE PTR [rsp+0x1f],r9b
4dab:	e8 50 0a 00 00       	call   5800 <xstrtoul>
4db0:	48 8d 35 f1 20 00 00 	lea    rsi,[rip+0x20f1]        # 6ea8 <quoting_style_vals+0x28>
4db7:	85 c0                	test   eax,eax
4db9:	44 0f b6 4c 24 1f    	movzx  r9d,BYTE PTR [rsp+0x1f]
4dbf:	48 89 34 24          	mov    QWORD PTR [rsp],rsi
4dc3:	75 31                	jne    4df6 <parse_with_separator+0x376>
4dc5:	48 8b 44 24 28       	mov    rax,QWORD PTR [rsp+0x28]
4dca:	0f b6 4c 24 1e       	movzx  ecx,BYTE PTR [rsp+0x1e]
4dcf:	ba fe ff ff ff       	mov    edx,0xfffffffe
4dd4:	48 39 d0             	cmp    rax,rdx
4dd7:	41 0f 47 c9          	cmova  ecx,r9d
4ddb:	41 89 c9             	mov    r9d,ecx
4dde:	8b 4c 24 18          	mov    ecx,DWORD PTR [rsp+0x18]
4de2:	0f 46 c8             	cmovbe ecx,eax
4de5:	b8 00 00 00 00       	mov    eax,0x0
4dea:	48 0f 47 c6          	cmova  rax,rsi
4dee:	89 4c 24 18          	mov    DWORD PTR [rsp+0x18],ecx
4df2:	48 89 04 24          	mov    QWORD PTR [rsp],rax
4df6:	44 88 4c 24 1e       	mov    BYTE PTR [rsp+0x1e],r9b
4dfb:	31 db                	xor    ebx,ebx
4dfd:	e8 6e ca ff ff       	call   1870 <endpwent@plt>
4e02:	e9 10 fd ff ff       	jmp    4b17 <parse_with_separator+0x97>
4e07:	66 0f 1f 84 00 00 00 	nop    WORD PTR [rax+rax*1+0x0]
4e0e:	00 00
4e10:	48 83 3c 24 00       	cmp    QWORD PTR [rsp],0x0
4e15:	0f 85 c3 fe ff ff    	jne    4cde <parse_with_separator+0x25e>
4e1b:	e9 39 fd ff ff       	jmp    4b59 <parse_with_separator+0xd9>
4e20:	48 8d 74 24 30       	lea    rsi,[rsp+0x30]
4e25:	44 89 ff             	mov    edi,r15d
4e28:	e8 d3 de ff ff       	call   2d00 <umaxtostr>
4e2d:	48 89 c7             	mov    rdi,rax
4e30:	e9 3b ff ff ff       	jmp    4d70 <parse_with_separator+0x2f0>
4e35:	e8 b6 c8 ff ff       	call   16f0 <__stack_chk_fail@plt>
4e3a:	31 db                	xor    ebx,ebx
4e3c:	48 c7 04 24 00 00 00 	mov    QWORD PTR [rsp],0x0
4e43:	00
4e44:	e9 ce fc ff ff       	jmp    4b17 <parse_with_separator+0x97>
4e49:	0f 1f 80 00 00 00 00 	nop    DWORD PTR [rax+0x0]

0000000000004e50 <parse_user_spec>:
4e50:	48 85 d2             	test   rdx,rdx
4e53:	0f 84 a7 00 00 00    	je     4f00 <parse_user_spec+0xb0>
4e59:	41 57                	push   r15
4e5b:	41 56                	push   r14
4e5d:	49 89 f6             	mov    r14,rsi
4e60:	41 55                	push   r13
4e62:	41 54                	push   r12
4e64:	4d 89 c5             	mov    r13,r8
4e67:	55                   	push   rbp
4e68:	53                   	push   rbx
4e69:	49 89 cc             	mov    r12,rcx
4e6c:	48 89 d5             	mov    rbp,rdx
4e6f:	48 89 fb             	mov    rbx,rdi
4e72:	be 3a 00 00 00       	mov    esi,0x3a
4e77:	48 83 ec 18          	sub    rsp,0x18
4e7b:	e8 b0 c8 ff ff       	call   1730 <strchr@plt>
4e80:	4d 89 e9             	mov    r9,r13
4e83:	49 89 c7             	mov    r15,rax
4e86:	4d 89 e0             	mov    r8,r12
4e89:	48 89 e9             	mov    rcx,rbp
4e8c:	4c 89 f2             	mov    rdx,r14
4e8f:	48 89 c6             	mov    rsi,rax
4e92:	48 89 df             	mov    rdi,rbx
4e95:	e8 e6 fb ff ff       	call   4a80 <parse_with_separator>
4e9a:	4d 85 ff             	test   r15,r15
4e9d:	49 89 c2             	mov    r10,rax
4ea0:	75 42                	jne    4ee4 <parse_user_spec+0x94>
4ea2:	48 85 c0             	test   rax,rax
4ea5:	48 89 44 24 08       	mov    QWORD PTR [rsp+0x8],rax
4eaa:	74 6c                	je     4f18 <parse_user_spec+0xc8>
4eac:	be 2e 00 00 00       	mov    esi,0x2e
4eb1:	48 89 df             	mov    rdi,rbx
4eb4:	e8 77 c8 ff ff       	call   1730 <strchr@plt>
4eb9:	48 85 c0             	test   rax,rax
4ebc:	4c 8b 54 24 08       	mov    r10,QWORD PTR [rsp+0x8]
4ec1:	74 21                	je     4ee4 <parse_user_spec+0x94>
4ec3:	4d 89 e9             	mov    r9,r13
4ec6:	4d 89 e0             	mov    r8,r12
4ec9:	48 89 e9             	mov    rcx,rbp
4ecc:	4c 89 f2             	mov    rdx,r14
4ecf:	48 89 c6             	mov    rsi,rax
4ed2:	48 89 df             	mov    rdi,rbx
4ed5:	e8 a6 fb ff ff       	call   4a80 <parse_with_separator>
4eda:	48 85 c0             	test   rax,rax
4edd:	4c 8b 54 24 08       	mov    r10,QWORD PTR [rsp+0x8]
4ee2:	74 34                	je     4f18 <parse_user_spec+0xc8>
4ee4:	48 83 c4 18          	add    rsp,0x18
4ee8:	4c 89 d0             	mov    rax,r10
4eeb:	5b                   	pop    rbx
4eec:	5d                   	pop    rbp
4eed:	41 5c                	pop    r12
4eef:	41 5d                	pop    r13
4ef1:	41 5e                	pop    r14
4ef3:	41 5f                	pop    r15
4ef5:	c3                   	ret
4ef6:	66 2e 0f 1f 84 00 00 	nop    WORD PTR cs:[rax+rax*1+0x0]
4efd:	00 00 00
4f00:	4d 89 c1             	mov    r9,r8
4f03:	48 89 f2             	mov    rdx,rsi
4f06:	49 89 c8             	mov    r8,rcx
4f09:	31 f6                	xor    esi,esi
4f0b:	31 c9                	xor    ecx,ecx
4f0d:	e9 6e fb ff ff       	jmp    4a80 <parse_with_separator>
4f12:	66 0f 1f 44 00 00    	nop    WORD PTR [rax+rax*1+0x0]
4f18:	45 31 d2             	xor    r10d,r10d
4f1b:	eb c7                	jmp    4ee4 <parse_user_spec+0x94>
4f1d:	0f 1f 00             	nop    DWORD PTR [rax]

0000000000004f20 <version_etc_arn>:
4f20:	41 57                	push   r15
4f22:	41 56                	push   r14
4f24:	41 55                	push   r13
4f26:	41 54                	push   r12
4f28:	4d 89 cc             	mov    r12,r9
4f2b:	55                   	push   rbp
4f2c:	53                   	push   rbx
4f2d:	48 89 fd             	mov    rbp,rdi
4f30:	4c 89 c3             	mov    rbx,r8
4f33:	48 83 ec 28          	sub    rsp,0x28
4f37:	48 85 f6             	test   rsi,rsi
4f3a:	0f 84 18 01 00 00    	je     5058 <version_etc_arn+0x138>
4f40:	49 89 d0             	mov    r8,rdx
4f43:	48 8d 15 86 1f 00 00 	lea    rdx,[rip+0x1f86]        # 6ed0 <quoting_style_vals+0x50>
4f4a:	49 89 c9             	mov    r9,rcx
4f4d:	31 c0                	xor    eax,eax
4f4f:	48 89 f1             	mov    rcx,rsi
4f52:	be 01 00 00 00       	mov    esi,0x1
4f57:	e8 e4 c9 ff ff       	call   1940 <__fprintf_chk@plt>
4f5c:	48 8d 35 80 1f 00 00 	lea    rsi,[rip+0x1f80]        # 6ee3 <quoting_style_vals+0x63>
4f63:	31 ff                	xor    edi,edi
4f65:	ba 05 00 00 00       	mov    edx,0x5
4f6a:	e8 51 c7 ff ff       	call   16c0 <dcgettext@plt>
4f6f:	48 8d 15 8a 22 00 00 	lea    rdx,[rip+0x228a]        # 7200 <version_etc_copyright>
4f76:	48 89 c1             	mov    rcx,rax
4f79:	41 b8 e3 07 00 00    	mov    r8d,0x7e3
4f7f:	be 01 00 00 00       	mov    esi,0x1
4f84:	48 89 ef             	mov    rdi,rbp
4f87:	31 c0                	xor    eax,eax
4f89:	e8 b2 c9 ff ff       	call   1940 <__fprintf_chk@plt>
4f8e:	48 8d 35 db 1f 00 00 	lea    rsi,[rip+0x1fdb]        # 6f70 <quoting_style_vals+0xf0>
4f95:	31 ff                	xor    edi,edi
4f97:	ba 05 00 00 00       	mov    edx,0x5
4f9c:	e8 1f c7 ff ff       	call   16c0 <dcgettext@plt>
4fa1:	48 89 ee             	mov    rsi,rbp
4fa4:	48 89 c7             	mov    rdi,rax
4fa7:	e8 14 c8 ff ff       	call   17c0 <fputs_unlocked@plt>
4fac:	49 83 fc 09          	cmp    r12,0x9
4fb0:	0f 87 3a 03 00 00    	ja     52f0 <version_etc_arn+0x3d0>
4fb6:	48 8d 15 0f 22 00 00 	lea    rdx,[rip+0x220f]        # 71cc <quoting_style_vals+0x34c>
4fbd:	4a 63 04 a2          	movsxd rax,DWORD PTR [rdx+r12*4]
4fc1:	48 01 d0             	add    rax,rdx
4fc4:	ff e0                	jmp    rax
4fc6:	66 2e 0f 1f 84 00 00 	nop    WORD PTR cs:[rax+rax*1+0x0]
4fcd:	00 00 00
4fd0:	4c 8b 4b 38          	mov    r9,QWORD PTR [rbx+0x38]
4fd4:	48 8b 43 10          	mov    rax,QWORD PTR [rbx+0x10]
4fd8:	48 8d 35 01 21 00 00 	lea    rsi,[rip+0x2101]        # 70e0 <quoting_style_vals+0x260>
4fdf:	4c 8b 43 08          	mov    r8,QWORD PTR [rbx+0x8]
4fe3:	ba 05 00 00 00       	mov    edx,0x5
4fe8:	31 ff                	xor    edi,edi
4fea:	4c 8b 6b 30          	mov    r13,QWORD PTR [rbx+0x30]
4fee:	4c 8b 63 28          	mov    r12,QWORD PTR [rbx+0x28]
4ff2:	4c 89 4c 24 10       	mov    QWORD PTR [rsp+0x10],r9
4ff7:	4c 8b 7b 20          	mov    r15,QWORD PTR [rbx+0x20]
4ffb:	4c 8b 73 18          	mov    r14,QWORD PTR [rbx+0x18]
4fff:	48 89 04 24          	mov    QWORD PTR [rsp],rax
5003:	4c 89 44 24 08       	mov    QWORD PTR [rsp+0x8],r8
5008:	48 8b 1b             	mov    rbx,QWORD PTR [rbx]
500b:	e8 b0 c6 ff ff       	call   16c0 <dcgettext@plt>
5010:	48 83 ec 08          	sub    rsp,0x8
5014:	4c 8b 4c 24 18       	mov    r9,QWORD PTR [rsp+0x18]
5019:	48 89 c2             	mov    rdx,rax
501c:	48 89 d9             	mov    rcx,rbx
501f:	be 01 00 00 00       	mov    esi,0x1
5024:	48 89 ef             	mov    rdi,rbp
5027:	31 c0                	xor    eax,eax
5029:	41 51                	push   r9
502b:	41 55                	push   r13
502d:	41 54                	push   r12
502f:	41 57                	push   r15
5031:	41 56                	push   r14
5033:	4c 8b 4c 24 30       	mov    r9,QWORD PTR [rsp+0x30]
5038:	4c 8b 44 24 38       	mov    r8,QWORD PTR [rsp+0x38]
503d:	e8 fe c8 ff ff       	call   1940 <__fprintf_chk@plt>
5042:	48 83 c4 30          	add    rsp,0x30
5046:	48 83 c4 28          	add    rsp,0x28
504a:	5b                   	pop    rbx
504b:	5d                   	pop    rbp
504c:	41 5c                	pop    r12
504e:	41 5d                	pop    r13
5050:	41 5e                	pop    r14
5052:	41 5f                	pop    r15
5054:	c3                   	ret
5055:	0f 1f 00             	nop    DWORD PTR [rax]
5058:	49 89 c8             	mov    r8,rcx
505b:	48 89 d1             	mov    rcx,rdx
505e:	48 8d 15 77 1e 00 00 	lea    rdx,[rip+0x1e77]        # 6edc <quoting_style_vals+0x5c>
5065:	be 01 00 00 00       	mov    esi,0x1
506a:	31 c0                	xor    eax,eax
506c:	e8 cf c8 ff ff       	call   1940 <__fprintf_chk@plt>
5071:	e9 e6 fe ff ff       	jmp    4f5c <version_etc_arn+0x3c>
5076:	66 2e 0f 1f 84 00 00 	nop    WORD PTR cs:[rax+rax*1+0x0]
507d:	00 00 00
5080:	4c 8b 53 40          	mov    r10,QWORD PTR [rbx+0x40]
5084:	4c 8b 4b 38          	mov    r9,QWORD PTR [rbx+0x38]
5088:	48 8d 35 81 20 00 00 	lea    rsi,[rip+0x2081]        # 7110 <quoting_style_vals+0x290>
508f:	48 8b 43 10          	mov    rax,QWORD PTR [rbx+0x10]
5093:	4c 8b 43 08          	mov    r8,QWORD PTR [rbx+0x8]
5097:	ba 05 00 00 00       	mov    edx,0x5
509c:	4c 8b 6b 30          	mov    r13,QWORD PTR [rbx+0x30]
50a0:	4c 8b 63 28          	mov    r12,QWORD PTR [rbx+0x28]
50a4:	4c 8b 7b 20          	mov    r15,QWORD PTR [rbx+0x20]
50a8:	4c 8b 73 18          	mov    r14,QWORD PTR [rbx+0x18]
50ac:	48 8b 1b             	mov    rbx,QWORD PTR [rbx]
50af:	4c 89 54 24 18       	mov    QWORD PTR [rsp+0x18],r10
50b4:	4c 89 4c 24 10       	mov    QWORD PTR [rsp+0x10],r9
50b9:	48 89 04 24          	mov    QWORD PTR [rsp],rax
50bd:	4c 89 44 24 08       	mov    QWORD PTR [rsp+0x8],r8
50c2:	31 ff                	xor    edi,edi
50c4:	e8 f7 c5 ff ff       	call   16c0 <dcgettext@plt>
50c9:	4c 8b 54 24 18       	mov    r10,QWORD PTR [rsp+0x18]
50ce:	41 52                	push   r10
50d0:	e9 3f ff ff ff       	jmp    5014 <version_etc_arn+0xf4>
50d5:	0f 1f 00             	nop    DWORD PTR [rax]
50d8:	48 8b 1b             	mov    rbx,QWORD PTR [rbx]
50db:	48 8d 35 05 1e 00 00 	lea    rsi,[rip+0x1e05]        # 6ee7 <quoting_style_vals+0x67>
50e2:	ba 05 00 00 00       	mov    edx,0x5
50e7:	31 ff                	xor    edi,edi
50e9:	e8 d2 c5 ff ff       	call   16c0 <dcgettext@plt>
50ee:	48 83 c4 28          	add    rsp,0x28
50f2:	48 89 d9             	mov    rcx,rbx
50f5:	48 89 ef             	mov    rdi,rbp
50f8:	5b                   	pop    rbx
50f9:	5d                   	pop    rbp
50fa:	41 5c                	pop    r12
50fc:	41 5d                	pop    r13
50fe:	41 5e                	pop    r14
5100:	41 5f                	pop    r15
5102:	48 89 c2             	mov    rdx,rax
5105:	be 01 00 00 00       	mov    esi,0x1
510a:	31 c0                	xor    eax,eax
510c:	e9 2f c8 ff ff       	jmp    1940 <__fprintf_chk@plt>
5111:	0f 1f 80 00 00 00 00 	nop    DWORD PTR [rax+0x0]
5118:	4c 8b 63 08          	mov    r12,QWORD PTR [rbx+0x8]
511c:	48 8d 35 d4 1d 00 00 	lea    rsi,[rip+0x1dd4]        # 6ef7 <quoting_style_vals+0x77>
5123:	48 8b 1b             	mov    rbx,QWORD PTR [rbx]
5126:	ba 05 00 00 00       	mov    edx,0x5
512b:	31 ff                	xor    edi,edi
512d:	e8 8e c5 ff ff       	call   16c0 <dcgettext@plt>
5132:	48 83 c4 28          	add    rsp,0x28
5136:	4d 89 e0             	mov    r8,r12
5139:	48 89 d9             	mov    rcx,rbx
513c:	48 89 ef             	mov    rdi,rbp
513f:	48 89 c2             	mov    rdx,rax
5142:	be 01 00 00 00       	mov    esi,0x1
5147:	5b                   	pop    rbx
5148:	5d                   	pop    rbp
5149:	41 5c                	pop    r12
514b:	41 5d                	pop    r13
514d:	41 5e                	pop    r14
514f:	41 5f                	pop    r15
5151:	31 c0                	xor    eax,eax
5153:	e9 e8 c7 ff ff       	jmp    1940 <__fprintf_chk@plt>
5158:	0f 1f 84 00 00 00 00 	nop    DWORD PTR [rax+rax*1+0x0]
515f:	00
5160:	4c 8b 6b 10          	mov    r13,QWORD PTR [rbx+0x10]
5164:	4c 8b 63 08          	mov    r12,QWORD PTR [rbx+0x8]
5168:	48 8d 35 9f 1d 00 00 	lea    rsi,[rip+0x1d9f]        # 6f0e <quoting_style_vals+0x8e>
516f:	48 8b 1b             	mov    rbx,QWORD PTR [rbx]
5172:	ba 05 00 00 00       	mov    edx,0x5
5177:	31 ff                	xor    edi,edi
5179:	e8 42 c5 ff ff       	call   16c0 <dcgettext@plt>
517e:	48 83 c4 28          	add    rsp,0x28
5182:	4d 89 e9             	mov    r9,r13
5185:	4d 89 e0             	mov    r8,r12
5188:	48 89 d9             	mov    rcx,rbx
518b:	48 89 ef             	mov    rdi,rbp
518e:	48 89 c2             	mov    rdx,rax
5191:	5b                   	pop    rbx
5192:	5d                   	pop    rbp
5193:	41 5c                	pop    r12
5195:	41 5d                	pop    r13
5197:	41 5e                	pop    r14
5199:	41 5f                	pop    r15
519b:	be 01 00 00 00       	mov    esi,0x1
51a0:	31 c0                	xor    eax,eax
51a2:	e9 99 c7 ff ff       	jmp    1940 <__fprintf_chk@plt>
51a7:	66 0f 1f 84 00 00 00 	nop    WORD PTR [rax+rax*1+0x0]
51ae:	00 00
51b0:	48 8d 35 89 1e 00 00 	lea    rsi,[rip+0x1e89]        # 7040 <quoting_style_vals+0x1c0>
51b7:	ba 05 00 00 00       	mov    edx,0x5
51bc:	31 ff                	xor    edi,edi
51be:	4c 8b 73 18          	mov    r14,QWORD PTR [rbx+0x18]
51c2:	4c 8b 6b 10          	mov    r13,QWORD PTR [rbx+0x10]
51c6:	4c 8b 63 08          	mov    r12,QWORD PTR [rbx+0x8]
51ca:	48 8b 1b             	mov    rbx,QWORD PTR [rbx]
51cd:	e8 ee c4 ff ff       	call   16c0 <dcgettext@plt>
51d2:	48 83 ec 08          	sub    rsp,0x8
51d6:	41 56                	push   r14
51d8:	48 89 c2             	mov    rdx,rax
51db:	4d 89 e9             	mov    r9,r13
51de:	4d 89 e0             	mov    r8,r12
51e1:	48 89 d9             	mov    rcx,rbx
51e4:	48 89 ef             	mov    rdi,rbp
51e7:	be 01 00 00 00       	mov    esi,0x1
51ec:	31 c0                	xor    eax,eax
51ee:	e8 4d c7 ff ff       	call   1940 <__fprintf_chk@plt>
51f3:	58                   	pop    rax
51f4:	5a                   	pop    rdx
51f5:	48 83 c4 28          	add    rsp,0x28
51f9:	5b                   	pop    rbx
51fa:	5d                   	pop    rbp
51fb:	41 5c                	pop    r12
51fd:	41 5d                	pop    r13
51ff:	41 5e                	pop    r14
5201:	41 5f                	pop    r15
5203:	c3                   	ret
5204:	0f 1f 40 00          	nop    DWORD PTR [rax+0x0]
5208:	4c 8b 7b 20          	mov    r15,QWORD PTR [rbx+0x20]
520c:	48 8d 35 4d 1e 00 00 	lea    rsi,[rip+0x1e4d]        # 7060 <quoting_style_vals+0x1e0>
5213:	ba 05 00 00 00       	mov    edx,0x5
5218:	31 ff                	xor    edi,edi
521a:	4c 8b 73 18          	mov    r14,QWORD PTR [rbx+0x18]
521e:	4c 8b 6b 10          	mov    r13,QWORD PTR [rbx+0x10]
5222:	4c 8b 63 08          	mov    r12,QWORD PTR [rbx+0x8]
5226:	48 8b 1b             	mov    rbx,QWORD PTR [rbx]
5229:	e8 92 c4 ff ff       	call   16c0 <dcgettext@plt>
522e:	41 57                	push   r15
5230:	eb a4                	jmp    51d6 <version_etc_arn+0x2b6>
5232:	66 0f 1f 44 00 00    	nop    WORD PTR [rax+rax*1+0x0]
5238:	4c 8b 43 08          	mov    r8,QWORD PTR [rbx+0x8]
523c:	4c 8b 63 28          	mov    r12,QWORD PTR [rbx+0x28]
5240:	48 8d 35 41 1e 00 00 	lea    rsi,[rip+0x1e41]        # 7088 <quoting_style_vals+0x208>
5247:	4c 8b 7b 20          	mov    r15,QWORD PTR [rbx+0x20]
524b:	4c 8b 73 18          	mov    r14,QWORD PTR [rbx+0x18]
524f:	ba 05 00 00 00       	mov    edx,0x5
5254:	4c 8b 6b 10          	mov    r13,QWORD PTR [rbx+0x10]
5258:	31 ff                	xor    edi,edi
525a:	48 8b 1b             	mov    rbx,QWORD PTR [rbx]
525d:	4c 89 04 24          	mov    QWORD PTR [rsp],r8
5261:	e8 5a c4 ff ff       	call   16c0 <dcgettext@plt>
5266:	48 83 ec 08          	sub    rsp,0x8
526a:	4d 89 e9             	mov    r9,r13
526d:	41 54                	push   r12
526f:	41 57                	push   r15
5271:	41 56                	push   r14
5273:	4c 8b 44 24 20       	mov    r8,QWORD PTR [rsp+0x20]
5278:	48 89 d9             	mov    rcx,rbx
527b:	48 89 c2             	mov    rdx,rax
527e:	48 89 ef             	mov    rdi,rbp
5281:	be 01 00 00 00       	mov    esi,0x1
5286:	31 c0                	xor    eax,eax
5288:	e8 b3 c6 ff ff       	call   1940 <__fprintf_chk@plt>
528d:	48 83 c4 20          	add    rsp,0x20
5291:	48 83 c4 28          	add    rsp,0x28
5295:	5b                   	pop    rbx
5296:	5d                   	pop    rbp
5297:	41 5c                	pop    r12
5299:	41 5d                	pop    r13
529b:	41 5e                	pop    r14
529d:	41 5f                	pop    r15
529f:	c3                   	ret
52a0:	4c 8b 4b 10          	mov    r9,QWORD PTR [rbx+0x10]
52a4:	4c 8b 6b 30          	mov    r13,QWORD PTR [rbx+0x30]
52a8:	48 8d 35 01 1e 00 00 	lea    rsi,[rip+0x1e01]        # 70b0 <quoting_style_vals+0x230>
52af:	4c 8b 63 28          	mov    r12,QWORD PTR [rbx+0x28]
52b3:	4c 8b 7b 20          	mov    r15,QWORD PTR [rbx+0x20]
52b7:	ba 05 00 00 00       	mov    edx,0x5
52bc:	4c 8b 73 18          	mov    r14,QWORD PTR [rbx+0x18]
52c0:	4c 8b 43 08          	mov    r8,QWORD PTR [rbx+0x8]
52c4:	31 ff                	xor    edi,edi
52c6:	4c 89 4c 24 08       	mov    QWORD PTR [rsp+0x8],r9
52cb:	48 8b 1b             	mov    rbx,QWORD PTR [rbx]
52ce:	4c 89 04 24          	mov    QWORD PTR [rsp],r8
52d2:	e8 e9 c3 ff ff       	call   16c0 <dcgettext@plt>
52d7:	41 55                	push   r13
52d9:	41 54                	push   r12
52db:	41 57                	push   r15
52dd:	41 56                	push   r14
52df:	4c 8b 4c 24 28       	mov    r9,QWORD PTR [rsp+0x28]
52e4:	eb 8d                	jmp    5273 <version_etc_arn+0x353>
52e6:	66 2e 0f 1f 84 00 00 	nop    WORD PTR cs:[rax+rax*1+0x0]
52ed:	00 00 00
52f0:	4c 8b 53 40          	mov    r10,QWORD PTR [rbx+0x40]
52f4:	4c 8b 4b 38          	mov    r9,QWORD PTR [rbx+0x38]
52f8:	ba 05 00 00 00       	mov    edx,0x5
52fd:	48 8b 43 10          	mov    rax,QWORD PTR [rbx+0x10]
5301:	4c 8b 43 08          	mov    r8,QWORD PTR [rbx+0x8]
5305:	48 8d 35 3c 1e 00 00 	lea    rsi,[rip+0x1e3c]        # 7148 <quoting_style_vals+0x2c8>
530c:	4c 8b 6b 30          	mov    r13,QWORD PTR [rbx+0x30]
5310:	4c 8b 63 28          	mov    r12,QWORD PTR [rbx+0x28]
5314:	4c 8b 7b 20          	mov    r15,QWORD PTR [rbx+0x20]
5318:	4c 8b 73 18          	mov    r14,QWORD PTR [rbx+0x18]
531c:	4c 89 54 24 18       	mov    QWORD PTR [rsp+0x18],r10
5321:	4c 89 4c 24 10       	mov    QWORD PTR [rsp+0x10],r9
5326:	48 89 04 24          	mov    QWORD PTR [rsp],rax
532a:	4c 89 44 24 08       	mov    QWORD PTR [rsp+0x8],r8
532f:	48 8b 1b             	mov    rbx,QWORD PTR [rbx]
5332:	e9 8b fd ff ff       	jmp    50c2 <version_etc_arn+0x1a2>
5337:	66 0f 1f 84 00 00 00 	nop    WORD PTR [rax+rax*1+0x0]
533e:	00 00

0000000000005340 <version_etc_ar>:
5340:	45 31 c9             	xor    r9d,r9d
5343:	49 83 38 00          	cmp    QWORD PTR [r8],0x0
5347:	74 12                	je     535b <version_etc_ar+0x1b>
5349:	0f 1f 80 00 00 00 00 	nop    DWORD PTR [rax+0x0]
5350:	49 83 c1 01          	add    r9,0x1
5354:	4b 83 3c c8 00       	cmp    QWORD PTR [r8+r9*8],0x0
5359:	75 f5                	jne    5350 <version_etc_ar+0x10>
535b:	e9 c0 fb ff ff       	jmp    4f20 <version_etc_arn>

0000000000005360 <version_etc_va>:
5360:	48 83 ec 68          	sub    rsp,0x68
5364:	4d 89 c2             	mov    r10,r8
5367:	45 31 c9             	xor    r9d,r9d
536a:	64 48 8b 04 25 28 00 	mov    rax,QWORD PTR fs:0x28
5371:	00 00
5373:	48 89 44 24 58       	mov    QWORD PTR [rsp+0x58],rax
5378:	31 c0                	xor    eax,eax
537a:	49 89 e0             	mov    r8,rsp
537d:	0f 1f 00             	nop    DWORD PTR [rax]
5380:	41 8b 02             	mov    eax,DWORD PTR [r10]
5383:	83 f8 2f             	cmp    eax,0x2f
5386:	77 42                	ja     53ca <version_etc_va+0x6a>
5388:	41 89 c3             	mov    r11d,eax
538b:	4d 03 5a 10          	add    r11,QWORD PTR [r10+0x10]
538f:	83 c0 08             	add    eax,0x8
5392:	41 89 02             	mov    DWORD PTR [r10],eax
5395:	49 8b 03             	mov    rax,QWORD PTR [r11]
5398:	48 85 c0             	test   rax,rax
539b:	4b 89 04 c8          	mov    QWORD PTR [r8+r9*8],rax
539f:	74 0a                	je     53ab <version_etc_va+0x4b>
53a1:	49 83 c1 01          	add    r9,0x1
53a5:	49 83 f9 0a          	cmp    r9,0xa
53a9:	75 d5                	jne    5380 <version_etc_va+0x20>
53ab:	e8 70 fb ff ff       	call   4f20 <version_etc_arn>
53b0:	48 8b 44 24 58       	mov    rax,QWORD PTR [rsp+0x58]
53b5:	64 48 33 04 25 28 00 	xor    rax,QWORD PTR fs:0x28
53bc:	00 00
53be:	75 05                	jne    53c5 <version_etc_va+0x65>
53c0:	48 83 c4 68          	add    rsp,0x68
53c4:	c3                   	ret
53c5:	e8 26 c3 ff ff       	call   16f0 <__stack_chk_fail@plt>
53ca:	4d 8b 5a 08          	mov    r11,QWORD PTR [r10+0x8]
53ce:	49 8d 43 08          	lea    rax,[r11+0x8]
53d2:	49 89 42 08          	mov    QWORD PTR [r10+0x8],rax
53d6:	eb bd                	jmp    5395 <version_etc_va+0x35>
53d8:	0f 1f 84 00 00 00 00 	nop    DWORD PTR [rax+rax*1+0x0]
53df:	00

00000000000053e0 <version_etc>:
53e0:	55                   	push   rbp
53e1:	53                   	push   rbx
53e2:	41 ba 20 00 00 00    	mov    r10d,0x20
53e8:	45 31 db             	xor    r11d,r11d
53eb:	48 81 ec b8 00 00 00 	sub    rsp,0xb8
53f2:	64 48 8b 04 25 28 00 	mov    rax,QWORD PTR fs:0x28
53f9:	00 00
53fb:	48 89 44 24 78       	mov    QWORD PTR [rsp+0x78],rax
5400:	31 c0                	xor    eax,eax
5402:	48 8d 84 24 d0 00 00 	lea    rax,[rsp+0xd0]
5409:	00
540a:	4c 89 84 24 a0 00 00 	mov    QWORD PTR [rsp+0xa0],r8
5411:	00
5412:	48 8d 9c 24 d0 00 00 	lea    rbx,[rsp+0xd0]
5419:	00
541a:	4c 8d 44 24 20       	lea    r8,[rsp+0x20]
541f:	4c 89 8c 24 a8 00 00 	mov    QWORD PTR [rsp+0xa8],r9
5426:	00
5427:	c7 44 24 08 20 00 00 	mov    DWORD PTR [rsp+0x8],0x20
542e:	00
542f:	48 89 44 24 10       	mov    QWORD PTR [rsp+0x10],rax
5434:	48 8d 84 24 80 00 00 	lea    rax,[rsp+0x80]
543b:	00
543c:	45 31 c9             	xor    r9d,r9d
543f:	48 89 44 24 18       	mov    QWORD PTR [rsp+0x18],rax
5444:	48 89 c5             	mov    rbp,rax
5447:	66 0f 1f 84 00 00 00 	nop    WORD PTR [rax+rax*1+0x0]
544e:	00 00
5450:	41 83 fa 2f          	cmp    r10d,0x2f
5454:	77 56                	ja     54ac <version_etc+0xcc>
5456:	44 89 d0             	mov    eax,r10d
5459:	41 bb 01 00 00 00    	mov    r11d,0x1
545f:	41 83 c2 08          	add    r10d,0x8
5463:	48 01 e8             	add    rax,rbp
5466:	48 8b 00             	mov    rax,QWORD PTR [rax]
5469:	48 85 c0             	test   rax,rax
546c:	4b 89 04 c8          	mov    QWORD PTR [r8+r9*8],rax
5470:	74 0a                	je     547c <version_etc+0x9c>
5472:	49 83 c1 01          	add    r9,0x1
5476:	49 83 f9 0a          	cmp    r9,0xa
547a:	75 d4                	jne    5450 <version_etc+0x70>
547c:	45 84 db             	test   r11b,r11b
547f:	75 24                	jne    54a5 <version_etc+0xc5>
5481:	e8 9a fa ff ff       	call   4f20 <version_etc_arn>
5486:	48 8b 44 24 78       	mov    rax,QWORD PTR [rsp+0x78]
548b:	64 48 33 04 25 28 00 	xor    rax,QWORD PTR fs:0x28
5492:	00 00
5494:	75 0a                	jne    54a0 <version_etc+0xc0>
5496:	48 81 c4 b8 00 00 00 	add    rsp,0xb8
549d:	5b                   	pop    rbx
549e:	5d                   	pop    rbp
549f:	c3                   	ret
54a0:	e8 4b c2 ff ff       	call   16f0 <__stack_chk_fail@plt>
54a5:	44 89 54 24 08       	mov    DWORD PTR [rsp+0x8],r10d
54aa:	eb d5                	jmp    5481 <version_etc+0xa1>
54ac:	48 89 d8             	mov    rax,rbx
54af:	48 83 c3 08          	add    rbx,0x8
54b3:	eb b1                	jmp    5466 <version_etc+0x86>
54b5:	90                   	nop
54b6:	66 2e 0f 1f 84 00 00 	nop    WORD PTR cs:[rax+rax*1+0x0]
54bd:	00 00 00

00000000000054c0 <emit_bug_reporting_address>:
54c0:	53                   	push   rbx
54c1:	48 8d 35 62 1a 00 00 	lea    rsi,[rip+0x1a62]        # 6f2a <quoting_style_vals+0xaa>
54c8:	ba 05 00 00 00       	mov    edx,0x5
54cd:	31 ff                	xor    edi,edi
54cf:	e8 ec c1 ff ff       	call   16c0 <dcgettext@plt>
54d4:	48 8d 15 64 1a 00 00 	lea    rdx,[rip+0x1a64]        # 6f3f <quoting_style_vals+0xbf>
54db:	48 89 c6             	mov    rsi,rax
54de:	bf 01 00 00 00       	mov    edi,0x1
54e3:	31 c0                	xor    eax,eax
54e5:	e8 d6 c3 ff ff       	call   18c0 <__printf_chk@plt>
54ea:	48 8d 35 64 1a 00 00 	lea    rsi,[rip+0x1a64]        # 6f55 <quoting_style_vals+0xd5>
54f1:	ba 05 00 00 00       	mov    edx,0x5
54f6:	31 ff                	xor    edi,edi
54f8:	e8 c3 c1 ff ff       	call   16c0 <dcgettext@plt>
54fd:	48 8d 0d 1c 11 00 00 	lea    rcx,[rip+0x111c]        # 6620 <_IO_stdin_used+0x400>
5504:	48 8d 15 2c 13 00 00 	lea    rdx,[rip+0x132c]        # 6837 <_IO_stdin_used+0x617>
550b:	48 89 c6             	mov    rsi,rax
550e:	bf 01 00 00 00       	mov    edi,0x1
5513:	31 c0                	xor    eax,eax
5515:	e8 a6 c3 ff ff       	call   18c0 <__printf_chk@plt>
551a:	48 8b 1d 87 3b 20 00 	mov    rbx,QWORD PTR [rip+0x203b87]        # 2090a8 <stdout@@GLIBC_2.2.5>
5521:	48 8d 35 60 1c 00 00 	lea    rsi,[rip+0x1c60]        # 7188 <quoting_style_vals+0x308>
5528:	31 ff                	xor    edi,edi
552a:	ba 05 00 00 00       	mov    edx,0x5
552f:	e8 8c c1 ff ff       	call   16c0 <dcgettext@plt>
5534:	48 89 de             	mov    rsi,rbx
5537:	48 89 c7             	mov    rdi,rax
553a:	5b                   	pop    rbx
553b:	e9 80 c2 ff ff       	jmp    17c0 <fputs_unlocked@plt>

0000000000005540 <xmalloc>:
5540:	53                   	push   rbx
5541:	48 89 fb             	mov    rbx,rdi
5544:	e8 f7 c2 ff ff       	call   1840 <malloc@plt>
5549:	48 85 c0             	test   rax,rax
554c:	75 05                	jne    5553 <xmalloc+0x13>
554e:	48 85 db             	test   rbx,rbx
5551:	75 02                	jne    5555 <xmalloc+0x15>
5553:	5b                   	pop    rbx
5554:	c3                   	ret
5555:	e8 36 02 00 00       	call   5790 <xalloc_die>
555a:	66 0f 1f 44 00 00    	nop    WORD PTR [rax+rax*1+0x0]

0000000000005560 <xnmalloc>:
5560:	48 89 f8             	mov    rax,rdi
5563:	48 f7 e6             	mul    rsi
5566:	48 89 c7             	mov    rdi,rax
5569:	0f 90 c0             	seto   al
556c:	48 85 ff             	test   rdi,rdi
556f:	78 0a                	js     557b <xnmalloc+0x1b>
5571:	0f b6 c0             	movzx  eax,al
5574:	48 85 c0             	test   rax,rax
5577:	75 02                	jne    557b <xnmalloc+0x1b>
5579:	eb c5                	jmp    5540 <xmalloc>
557b:	48 83 ec 08          	sub    rsp,0x8
557f:	e8 0c 02 00 00       	call   5790 <xalloc_die>
5584:	66 90                	xchg   ax,ax
5586:	66 2e 0f 1f 84 00 00 	nop    WORD PTR cs:[rax+rax*1+0x0]
558d:	00 00 00

0000000000005590 <xcharalloc>:
5590:	eb ae                	jmp    5540 <xmalloc>
5592:	0f 1f 40 00          	nop    DWORD PTR [rax+0x0]
5596:	66 2e 0f 1f 84 00 00 	nop    WORD PTR cs:[rax+rax*1+0x0]
559d:	00 00 00

00000000000055a0 <xrealloc>:
55a0:	48 85 f6             	test   rsi,rsi
55a3:	53                   	push   rbx
55a4:	48 89 f3             	mov    rbx,rsi
55a7:	75 05                	jne    55ae <xrealloc+0xe>
55a9:	48 85 ff             	test   rdi,rdi
55ac:	75 1a                	jne    55c8 <xrealloc+0x28>
55ae:	48 89 de             	mov    rsi,rbx
55b1:	e8 ea c2 ff ff       	call   18a0 <realloc@plt>
55b6:	48 85 c0             	test   rax,rax
55b9:	75 05                	jne    55c0 <xrealloc+0x20>
55bb:	48 85 db             	test   rbx,rbx
55be:	75 11                	jne    55d1 <xrealloc+0x31>
55c0:	5b                   	pop    rbx
55c1:	c3                   	ret
55c2:	66 0f 1f 44 00 00    	nop    WORD PTR [rax+rax*1+0x0]
55c8:	e8 53 c0 ff ff       	call   1620 <free@plt>
55cd:	31 c0                	xor    eax,eax
55cf:	5b                   	pop    rbx
55d0:	c3                   	ret
55d1:	e8 ba 01 00 00       	call   5790 <xalloc_die>
55d6:	66 2e 0f 1f 84 00 00 	nop    WORD PTR cs:[rax+rax*1+0x0]
55dd:	00 00 00

00000000000055e0 <xnrealloc>:
55e0:	48 89 f0             	mov    rax,rsi
55e3:	48 f7 e2             	mul    rdx
55e6:	48 89 c6             	mov    rsi,rax
55e9:	0f 90 c0             	seto   al
55ec:	48 85 f6             	test   rsi,rsi
55ef:	78 0a                	js     55fb <xnrealloc+0x1b>
55f1:	0f b6 c0             	movzx  eax,al
55f4:	48 85 c0             	test   rax,rax
55f7:	75 02                	jne    55fb <xnrealloc+0x1b>
55f9:	eb a5                	jmp    55a0 <xrealloc>
55fb:	48 83 ec 08          	sub    rsp,0x8
55ff:	e8 8c 01 00 00       	call   5790 <xalloc_die>
5604:	66 90                	xchg   ax,ax
5606:	66 2e 0f 1f 84 00 00 	nop    WORD PTR cs:[rax+rax*1+0x0]
560d:	00 00 00

0000000000005610 <x2nrealloc>:
5610:	48 85 ff             	test   rdi,rdi
5613:	49 89 d1             	mov    r9,rdx
5616:	48 8b 0e             	mov    rcx,QWORD PTR [rsi]
5619:	74 35                	je     5650 <x2nrealloc+0x40>
561b:	31 d2                	xor    edx,edx
561d:	48 b8 54 55 55 55 55 	movabs rax,0x5555555555555554
5624:	55 55 55
5627:	49 f7 f1             	div    r9
562a:	48 39 c8             	cmp    rax,rcx
562d:	76 3c                	jbe    566b <x2nrealloc+0x5b>
562f:	48 89 c8             	mov    rax,rcx
5632:	48 d1 e8             	shr    rax,1
5635:	48 8d 4c 08 01       	lea    rcx,[rax+rcx*1+0x1]
563a:	48 89 0e             	mov    QWORD PTR [rsi],rcx
563d:	49 0f af c9          	imul   rcx,r9
5641:	48 89 ce             	mov    rsi,rcx
5644:	e9 57 ff ff ff       	jmp    55a0 <xrealloc>
5649:	0f 1f 80 00 00 00 00 	nop    DWORD PTR [rax+0x0]
5650:	48 85 c9             	test   rcx,rcx
5653:	74 23                	je     5678 <x2nrealloc+0x68>
5655:	48 89 c8             	mov    rax,rcx
5658:	49 f7 e1             	mul    r9
565b:	0f 90 c2             	seto   dl
565e:	48 85 c0             	test   rax,rax
5661:	0f b6 d2             	movzx  edx,dl
5664:	78 05                	js     566b <x2nrealloc+0x5b>
5666:	48 85 d2             	test   rdx,rdx
5669:	74 cf                	je     563a <x2nrealloc+0x2a>
566b:	48 83 ec 08          	sub    rsp,0x8
566f:	e8 1c 01 00 00       	call   5790 <xalloc_die>
5674:	0f 1f 40 00          	nop    DWORD PTR [rax+0x0]
5678:	31 d2                	xor    edx,edx
567a:	b8 80 00 00 00       	mov    eax,0x80
567f:	45 31 c0             	xor    r8d,r8d
5682:	49 f7 f1             	div    r9
5685:	48 85 c0             	test   rax,rax
5688:	41 0f 94 c0          	sete   r8b
568c:	49 8d 0c 00          	lea    rcx,[r8+rax*1]
5690:	eb c3                	jmp    5655 <x2nrealloc+0x45>
5692:	0f 1f 40 00          	nop    DWORD PTR [rax+0x0]
5696:	66 2e 0f 1f 84 00 00 	nop    WORD PTR cs:[rax+rax*1+0x0]
569d:	00 00 00

00000000000056a0 <x2realloc>:
56a0:	48 85 ff             	test   rdi,rdi
56a3:	48 8b 06             	mov    rax,QWORD PTR [rsi]
56a6:	74 28                	je     56d0 <x2realloc+0x30>
56a8:	48 ba 53 55 55 55 55 	movabs rdx,0x5555555555555553
56af:	55 55 55
56b2:	48 39 d0             	cmp    rax,rdx
56b5:	77 2a                	ja     56e1 <x2realloc+0x41>
56b7:	48 89 c2             	mov    rdx,rax
56ba:	48 d1 ea             	shr    rdx,1
56bd:	48 8d 44 02 01       	lea    rax,[rdx+rax*1+0x1]
56c2:	48 89 06             	mov    QWORD PTR [rsi],rax
56c5:	48 89 c6             	mov    rsi,rax
56c8:	e9 d3 fe ff ff       	jmp    55a0 <xrealloc>
56cd:	0f 1f 00             	nop    DWORD PTR [rax]
56d0:	48 85 c0             	test   rax,rax
56d3:	ba 80 00 00 00       	mov    edx,0x80
56d8:	48 0f 44 c2          	cmove  rax,rdx
56dc:	48 85 c0             	test   rax,rax
56df:	79 e1                	jns    56c2 <x2realloc+0x22>
56e1:	48 83 ec 08          	sub    rsp,0x8
56e5:	e8 a6 00 00 00       	call   5790 <xalloc_die>
56ea:	66 0f 1f 44 00 00    	nop    WORD PTR [rax+rax*1+0x0]

00000000000056f0 <xzalloc>:
56f0:	53                   	push   rbx
56f1:	48 89 fb             	mov    rbx,rdi
56f4:	e8 47 fe ff ff       	call   5540 <xmalloc>
56f9:	48 89 da             	mov    rdx,rbx
56fc:	31 f6                	xor    esi,esi
56fe:	48 89 c7             	mov    rdi,rax
5701:	5b                   	pop    rbx
5702:	e9 89 c0 ff ff       	jmp    1790 <memset@plt>
5707:	66 0f 1f 84 00 00 00 	nop    WORD PTR [rax+rax*1+0x0]
570e:	00 00

0000000000005710 <xcalloc>:
5710:	48 89 f8             	mov    rax,rdi
5713:	48 83 ec 08          	sub    rsp,0x8
5717:	48 f7 e6             	mul    rsi
571a:	0f 90 c2             	seto   dl
571d:	48 85 c0             	test   rax,rax
5720:	78 17                	js     5739 <xcalloc+0x29>
5722:	0f b6 d2             	movzx  edx,dl
5725:	48 85 d2             	test   rdx,rdx
5728:	75 0f                	jne    5739 <xcalloc+0x29>
572a:	e8 a1 c0 ff ff       	call   17d0 <calloc@plt>
572f:	48 85 c0             	test   rax,rax
5732:	74 05                	je     5739 <xcalloc+0x29>
5734:	48 83 c4 08          	add    rsp,0x8
5738:	c3                   	ret
5739:	e8 52 00 00 00       	call   5790 <xalloc_die>
573e:	66 90                	xchg   ax,ax

0000000000005740 <xmemdup>:
5740:	55                   	push   rbp
5741:	53                   	push   rbx
5742:	48 89 fd             	mov    rbp,rdi
5745:	48 89 f7             	mov    rdi,rsi
5748:	48 89 f3             	mov    rbx,rsi
574b:	48 83 ec 08          	sub    rsp,0x8
574f:	e8 ec fd ff ff       	call   5540 <xmalloc>
5754:	48 83 c4 08          	add    rsp,0x8
5758:	48 89 da             	mov    rdx,rbx
575b:	48 89 ee             	mov    rsi,rbp
575e:	5b                   	pop    rbx
575f:	5d                   	pop    rbp
5760:	48 89 c7             	mov    rdi,rax
5763:	e9 88 c0 ff ff       	jmp    17f0 <memcpy@plt>
5768:	0f 1f 84 00 00 00 00 	nop    DWORD PTR [rax+rax*1+0x0]
576f:	00

0000000000005770 <xstrdup>:
5770:	53                   	push   rbx
5771:	48 89 fb             	mov    rbx,rdi
5774:	e8 67 bf ff ff       	call   16e0 <strlen@plt>
5779:	48 89 df             	mov    rdi,rbx
577c:	48 8d 70 01          	lea    rsi,[rax+0x1]
5780:	5b                   	pop    rbx
5781:	eb bd                	jmp    5740 <xmemdup>
5783:	66 2e 0f 1f 84 00 00 	nop    WORD PTR cs:[rax+rax*1+0x0]
578a:	00 00 00
578d:	0f 1f 00             	nop    DWORD PTR [rax]

0000000000005790 <xalloc_die>:
5790:	48 8d 35 98 1a 00 00 	lea    rsi,[rip+0x1a98]        # 722f <version_etc_copyright+0x2f>
5797:	48 83 ec 08          	sub    rsp,0x8
579b:	ba 05 00 00 00       	mov    edx,0x5
57a0:	31 ff                	xor    edi,edi
57a2:	e8 19 bf ff ff       	call   16c0 <dcgettext@plt>
57a7:	8b 3d 73 38 20 00    	mov    edi,DWORD PTR [rip+0x203873]        # 209020 <exit_failure>
57ad:	48 8d 15 d3 11 00 00 	lea    rdx,[rip+0x11d3]        # 6987 <_IO_stdin_used+0x767>
57b4:	48 89 c1             	mov    rcx,rax
57b7:	31 f6                	xor    esi,esi
57b9:	31 c0                	xor    eax,eax
57bb:	e8 10 c1 ff ff       	call   18d0 <error@plt>
57c0:	e8 6b be ff ff       	call   1630 <abort@plt>
57c5:	66 2e 0f 1f 84 00 00 	nop    WORD PTR cs:[rax+rax*1+0x0]
57cc:	00 00 00
57cf:	90                   	nop

00000000000057d0 <xgetgroups>:
57d0:	53                   	push   rbx
57d1:	e8 4a 06 00 00       	call   5e20 <mgetgroups>
57d6:	83 f8 ff             	cmp    eax,0xffffffff
57d9:	89 c3                	mov    ebx,eax
57db:	74 0b                	je     57e8 <xgetgroups+0x18>
57dd:	89 d8                	mov    eax,ebx
57df:	5b                   	pop    rbx
57e0:	c3                   	ret
57e1:	0f 1f 80 00 00 00 00 	nop    DWORD PTR [rax+0x0]
57e8:	e8 53 be ff ff       	call   1640 <__errno_location@plt>
57ed:	83 38 0c             	cmp    DWORD PTR [rax],0xc
57f0:	75 eb                	jne    57dd <xgetgroups+0xd>
57f2:	e8 99 ff ff ff       	call   5790 <xalloc_die>
57f7:	66 0f 1f 84 00 00 00 	nop    WORD PTR [rax+rax*1+0x0]
57fe:	00 00

0000000000005800 <xstrtoul>:
5800:	41 57                	push   r15
5802:	41 56                	push   r14
5804:	41 55                	push   r13
5806:	41 54                	push   r12
5808:	55                   	push   rbp
5809:	53                   	push   rbx
580a:	48 83 ec 28          	sub    rsp,0x28
580e:	64 48 8b 04 25 28 00 	mov    rax,QWORD PTR fs:0x28
5815:	00 00
5817:	48 89 44 24 18       	mov    QWORD PTR [rsp+0x18],rax
581c:	31 c0                	xor    eax,eax
581e:	83 fa 24             	cmp    edx,0x24
5821:	0f 87 5e 03 00 00    	ja     5b85 <xstrtoul+0x385>
5827:	48 8d 44 24 10       	lea    rax,[rsp+0x10]
582c:	49 89 f7             	mov    r15,rsi
582f:	48 85 f6             	test   rsi,rsi
5832:	48 89 fd             	mov    rbp,rdi
5835:	89 54 24 08          	mov    DWORD PTR [rsp+0x8],edx
5839:	49 89 ce             	mov    r14,rcx
583c:	4d 89 c5             	mov    r13,r8
583f:	4c 0f 44 f8          	cmove  r15,rax
5843:	e8 f8 bd ff ff       	call   1640 <__errno_location@plt>
5848:	c7 00 00 00 00 00    	mov    DWORD PTR [rax],0x0
584e:	49 89 c4             	mov    r12,rax
5851:	0f b6 5d 00          	movzx  ebx,BYTE PTR [rbp+0x0]
5855:	e8 16 c1 ff ff       	call   1970 <__ctype_b_loc@plt>
585a:	8b 54 24 08          	mov    edx,DWORD PTR [rsp+0x8]
585e:	48 8b 30             	mov    rsi,QWORD PTR [rax]
5861:	48 89 e8             	mov    rax,rbp
5864:	eb 11                	jmp    5877 <xstrtoul+0x77>
5866:	66 2e 0f 1f 84 00 00 	nop    WORD PTR cs:[rax+rax*1+0x0]
586d:	00 00 00
5870:	48 83 c0 01          	add    rax,0x1
5874:	0f b6 18             	movzx  ebx,BYTE PTR [rax]
5877:	0f b6 cb             	movzx  ecx,bl
587a:	f6 44 4e 01 20       	test   BYTE PTR [rsi+rcx*2+0x1],0x20
587f:	75 ef                	jne    5870 <xstrtoul+0x70>
5881:	80 fb 2d             	cmp    bl,0x2d
5884:	74 52                	je     58d8 <xstrtoul+0xd8>
5886:	4c 89 fe             	mov    rsi,r15
5889:	48 89 ef             	mov    rdi,rbp
588c:	e8 6f c0 ff ff       	call   1900 <strtoul@plt>
5891:	49 8b 0f             	mov    rcx,QWORD PTR [r15]
5894:	48 89 c3             	mov    rbx,rax
5897:	48 39 e9             	cmp    rcx,rbp
589a:	74 2c                	je     58c8 <xstrtoul+0xc8>
589c:	41 8b 04 24          	mov    eax,DWORD PTR [r12]
58a0:	85 c0                	test   eax,eax
58a2:	74 64                	je     5908 <xstrtoul+0x108>
58a4:	83 f8 22             	cmp    eax,0x22
58a7:	bd 01 00 00 00       	mov    ebp,0x1
58ac:	75 2a                	jne    58d8 <xstrtoul+0xd8>
58ae:	4d 85 ed             	test   r13,r13
58b1:	74 09                	je     58bc <xstrtoul+0xbc>
58b3:	44 0f b6 21          	movzx  r12d,BYTE PTR [rcx]
58b7:	45 84 e4             	test   r12b,r12b
58ba:	75 7b                	jne    5937 <xstrtoul+0x137>
58bc:	49 89 1e             	mov    QWORD PTR [r14],rbx
58bf:	eb 1c                	jmp    58dd <xstrtoul+0xdd>
58c1:	0f 1f 80 00 00 00 00 	nop    DWORD PTR [rax+0x0]
58c8:	4d 85 ed             	test   r13,r13
58cb:	48 89 4c 24 08       	mov    QWORD PTR [rsp+0x8],rcx
58d0:	75 3e                	jne    5910 <xstrtoul+0x110>
58d2:	66 0f 1f 44 00 00    	nop    WORD PTR [rax+rax*1+0x0]
58d8:	bd 04 00 00 00       	mov    ebp,0x4
58dd:	48 8b 7c 24 18       	mov    rdi,QWORD PTR [rsp+0x18]
58e2:	64 48 33 3c 25 28 00 	xor    rdi,QWORD PTR fs:0x28
58e9:	00 00
58eb:	89 e8                	mov    eax,ebp
58ed:	0f 85 8d 02 00 00    	jne    5b80 <xstrtoul+0x380>
58f3:	48 83 c4 28          	add    rsp,0x28
58f7:	5b                   	pop    rbx
58f8:	5d                   	pop    rbp
58f9:	41 5c                	pop    r12
58fb:	41 5d                	pop    r13
58fd:	41 5e                	pop    r14
58ff:	41 5f                	pop    r15
5901:	c3                   	ret
5902:	66 0f 1f 44 00 00    	nop    WORD PTR [rax+rax*1+0x0]
5908:	31 ed                	xor    ebp,ebp
590a:	eb a2                	jmp    58ae <xstrtoul+0xae>
590c:	0f 1f 40 00          	nop    DWORD PTR [rax+0x0]
5910:	44 0f b6 65 00       	movzx  r12d,BYTE PTR [rbp+0x0]
5915:	45 84 e4             	test   r12b,r12b
5918:	74 be                	je     58d8 <xstrtoul+0xd8>
591a:	41 0f be f4          	movsx  esi,r12b
591e:	4c 89 ef             	mov    rdi,r13
5921:	31 ed                	xor    ebp,ebp
5923:	e8 08 be ff ff       	call   1730 <strchr@plt>
5928:	48 85 c0             	test   rax,rax
592b:	bb 01 00 00 00       	mov    ebx,0x1
5930:	48 8b 4c 24 08       	mov    rcx,QWORD PTR [rsp+0x8]
5935:	74 a1                	je     58d8 <xstrtoul+0xd8>
5937:	41 0f be f4          	movsx  esi,r12b
593b:	4c 89 ef             	mov    rdi,r13
593e:	48 89 4c 24 08       	mov    QWORD PTR [rsp+0x8],rcx
5943:	e8 e8 bd ff ff       	call   1730 <strchr@plt>
5948:	48 85 c0             	test   rax,rax
594b:	48 8b 4c 24 08       	mov    rcx,QWORD PTR [rsp+0x8]
5950:	0f 84 c6 00 00 00    	je     5a1c <xstrtoul+0x21c>
5956:	41 8d 44 24 bb       	lea    eax,[r12-0x45]
595b:	3c 2f                	cmp    al,0x2f
595d:	77 51                	ja     59b0 <xstrtoul+0x1b0>
595f:	48 ba 45 89 30 00 44 	movabs rdx,0x814400308945
5966:	81 00 00
5969:	48 0f a3 c2          	bt     rdx,rax
596d:	73 41                	jae    59b0 <xstrtoul+0x1b0>
596f:	be 30 00 00 00       	mov    esi,0x30
5974:	4c 89 ef             	mov    rdi,r13
5977:	48 89 4c 24 08       	mov    QWORD PTR [rsp+0x8],rcx
597c:	e8 af bd ff ff       	call   1730 <strchr@plt>
5981:	48 85 c0             	test   rax,rax
5984:	48 8b 4c 24 08       	mov    rcx,QWORD PTR [rsp+0x8]
5989:	74 25                	je     59b0 <xstrtoul+0x1b0>
598b:	0f b6 41 01          	movzx  eax,BYTE PTR [rcx+0x1]
598f:	3c 44                	cmp    al,0x44
5991:	74 0c                	je     599f <xstrtoul+0x19f>
5993:	3c 69                	cmp    al,0x69
5995:	0f 84 cd 01 00 00    	je     5b68 <xstrtoul+0x368>
599b:	3c 42                	cmp    al,0x42
599d:	75 11                	jne    59b0 <xstrtoul+0x1b0>
599f:	bf 02 00 00 00       	mov    edi,0x2
59a4:	be e8 03 00 00       	mov    esi,0x3e8
59a9:	eb 0f                	jmp    59ba <xstrtoul+0x1ba>
59ab:	0f 1f 44 00 00       	nop    DWORD PTR [rax+rax*1+0x0]
59b0:	bf 01 00 00 00       	mov    edi,0x1
59b5:	be 00 04 00 00       	mov    esi,0x400
59ba:	41 83 ec 42          	sub    r12d,0x42
59be:	41 80 fc 35          	cmp    r12b,0x35
59c2:	77 58                	ja     5a1c <xstrtoul+0x21c>
59c4:	48 8d 15 bd 18 00 00 	lea    rdx,[rip+0x18bd]        # 7288 <version_etc_copyright+0x88>
59cb:	45 0f b6 e4          	movzx  r12d,r12b
59cf:	4a 63 04 a2          	movsxd rax,DWORD PTR [rdx+r12*4]
59d3:	48 01 d0             	add    rax,rdx
59d6:	ff e0                	jmp    rax
59d8:	48 89 d8             	mov    rax,rbx
59db:	48 f7 e6             	mul    rsi
59de:	0f 80 ed 01 00 00    	jo     5bd1 <xstrtoul+0x3d1>
59e4:	45 31 c0             	xor    r8d,r8d
59e7:	48 f7 e6             	mul    rsi
59ea:	0f 80 d2 01 00 00    	jo     5bc2 <xstrtoul+0x3c2>
59f0:	48 89 c3             	mov    rbx,rax
59f3:	44 09 c5             	or     ebp,r8d
59f6:	66 2e 0f 1f 84 00 00 	nop    WORD PTR cs:[rax+rax*1+0x0]
59fd:	00 00 00
5a00:	48 63 ff             	movsxd rdi,edi
5a03:	89 e8                	mov    eax,ebp
5a05:	48 01 f9             	add    rcx,rdi
5a08:	83 c8 02             	or     eax,0x2
5a0b:	49 89 0f             	mov    QWORD PTR [r15],rcx
5a0e:	80 39 00             	cmp    BYTE PTR [rcx],0x0
5a11:	49 89 1e             	mov    QWORD PTR [r14],rbx
5a14:	0f 45 e8             	cmovne ebp,eax
5a17:	e9 c1 fe ff ff       	jmp    58dd <xstrtoul+0xdd>
5a1c:	49 89 1e             	mov    QWORD PTR [r14],rbx
5a1f:	83 cd 02             	or     ebp,0x2
5a22:	e9 b6 fe ff ff       	jmp    58dd <xstrtoul+0xdd>
5a27:	ba 02 00 00 00       	mov    edx,0x2
5a2c:	48 89 d0             	mov    rax,rdx
5a2f:	48 f7 e3             	mul    rbx
5a32:	0f 80 96 00 00 00    	jo     5ace <xstrtoul+0x2ce>
5a38:	48 01 db             	add    rbx,rbx
5a3b:	eb c3                	jmp    5a00 <xstrtoul+0x200>
5a3d:	ba 00 02 00 00       	mov    edx,0x200
5a42:	48 89 d0             	mov    rax,rdx
5a45:	48 f7 e3             	mul    rbx
5a48:	0f 80 80 00 00 00    	jo     5ace <xstrtoul+0x2ce>
5a4e:	48 c1 e3 09          	shl    rbx,0x9
5a52:	eb ac                	jmp    5a00 <xstrtoul+0x200>
5a54:	41 b8 07 00 00 00    	mov    r8d,0x7
5a5a:	45 31 c9             	xor    r9d,r9d
5a5d:	0f 1f 00             	nop    DWORD PTR [rax]
5a60:	48 89 d8             	mov    rax,rbx
5a63:	48 f7 e6             	mul    rsi
5a66:	48 89 c3             	mov    rbx,rax
5a69:	0f 80 8f 01 00 00    	jo     5bfe <xstrtoul+0x3fe>
5a6f:	41 83 e8 01          	sub    r8d,0x1
5a73:	75 eb                	jne    5a60 <xstrtoul+0x260>
5a75:	44 09 cd             	or     ebp,r9d
5a78:	eb 86                	jmp    5a00 <xstrtoul+0x200>
5a7a:	41 b8 08 00 00 00    	mov    r8d,0x8
5a80:	45 31 c9             	xor    r9d,r9d
5a83:	0f 1f 44 00 00       	nop    DWORD PTR [rax+rax*1+0x0]
5a88:	48 89 d8             	mov    rax,rbx
5a8b:	48 f7 e6             	mul    rsi
5a8e:	48 89 c3             	mov    rbx,rax
5a91:	0f 80 49 01 00 00    	jo     5be0 <xstrtoul+0x3e0>
5a97:	41 83 e8 01          	sub    r8d,0x1
5a9b:	75 eb                	jne    5a88 <xstrtoul+0x288>
5a9d:	eb d6                	jmp    5a75 <xstrtoul+0x275>
5a9f:	41 b8 04 00 00 00    	mov    r8d,0x4
5aa5:	45 31 c9             	xor    r9d,r9d
5aa8:	48 89 d8             	mov    rax,rbx
5aab:	48 f7 e6             	mul    rsi
5aae:	48 89 c3             	mov    rbx,rax
5ab1:	0f 80 fc 00 00 00    	jo     5bb3 <xstrtoul+0x3b3>
5ab7:	41 83 e8 01          	sub    r8d,0x1
5abb:	75 eb                	jne    5aa8 <xstrtoul+0x2a8>
5abd:	eb b6                	jmp    5a75 <xstrtoul+0x275>
5abf:	48 89 d8             	mov    rax,rbx
5ac2:	48 f7 e6             	mul    rsi
5ac5:	48 89 c3             	mov    rbx,rax
5ac8:	0f 81 32 ff ff ff    	jno    5a00 <xstrtoul+0x200>
5ace:	bd 01 00 00 00       	mov    ebp,0x1
5ad3:	48 83 cb ff          	or     rbx,0xffffffffffffffff
5ad7:	e9 24 ff ff ff       	jmp    5a00 <xstrtoul+0x200>
5adc:	0f 1f 40 00          	nop    DWORD PTR [rax+0x0]
5ae0:	41 b8 05 00 00 00    	mov    r8d,0x5
5ae6:	45 31 c9             	xor    r9d,r9d
5ae9:	48 89 d8             	mov    rax,rbx
5aec:	48 f7 e6             	mul    rsi
5aef:	48 89 c3             	mov    rbx,rax
5af2:	0f 80 f7 00 00 00    	jo     5bef <xstrtoul+0x3ef>
5af8:	41 83 e8 01          	sub    r8d,0x1
5afc:	75 eb                	jne    5ae9 <xstrtoul+0x2e9>
5afe:	e9 72 ff ff ff       	jmp    5a75 <xstrtoul+0x275>
5b03:	41 b8 06 00 00 00    	mov    r8d,0x6
5b09:	45 31 c9             	xor    r9d,r9d
5b0c:	48 89 d8             	mov    rax,rbx
5b0f:	48 f7 e6             	mul    rsi
5b12:	48 89 c3             	mov    rbx,rax
5b15:	0f 80 89 00 00 00    	jo     5ba4 <xstrtoul+0x3a4>
5b1b:	41 83 e8 01          	sub    r8d,0x1
5b1f:	75 eb                	jne    5b0c <xstrtoul+0x30c>
5b21:	e9 4f ff ff ff       	jmp    5a75 <xstrtoul+0x275>
5b26:	ba 00 04 00 00       	mov    edx,0x400
5b2b:	48 89 d0             	mov    rax,rdx
5b2e:	48 f7 e3             	mul    rbx
5b31:	70 9b                	jo     5ace <xstrtoul+0x2ce>
5b33:	48 c1 e3 0a          	shl    rbx,0xa
5b37:	e9 c4 fe ff ff       	jmp    5a00 <xstrtoul+0x200>
5b3c:	48 89 d8             	mov    rax,rbx
5b3f:	48 f7 e6             	mul    rsi
5b42:	0f 80 c5 00 00 00    	jo     5c0d <xstrtoul+0x40d>
5b48:	45 31 c0             	xor    r8d,r8d
5b4b:	48 f7 e6             	mul    rsi
5b4e:	0f 81 93 fe ff ff    	jno    59e7 <xstrtoul+0x1e7>
5b54:	41 b8 01 00 00 00    	mov    r8d,0x1
5b5a:	48 83 c8 ff          	or     rax,0xffffffffffffffff
5b5e:	e9 84 fe ff ff       	jmp    59e7 <xstrtoul+0x1e7>
5b63:	0f 1f 44 00 00       	nop    DWORD PTR [rax+rax*1+0x0]
5b68:	31 ff                	xor    edi,edi
5b6a:	80 79 02 42          	cmp    BYTE PTR [rcx+0x2],0x42
5b6e:	be 00 04 00 00       	mov    esi,0x400
5b73:	40 0f 94 c7          	sete   dil
5b77:	8d 7c 3f 01          	lea    edi,[rdi+rdi*1+0x1]
5b7b:	e9 3a fe ff ff       	jmp    59ba <xstrtoul+0x1ba>
5b80:	e8 6b bb ff ff       	call   16f0 <__stack_chk_fail@plt>
5b85:	48 8d 0d d4 17 00 00 	lea    rcx,[rip+0x17d4]        # 7360 <__PRETTY_FUNCTION__.4162>
5b8c:	48 8d 35 ad 16 00 00 	lea    rsi,[rip+0x16ad]        # 7240 <version_etc_copyright+0x40>
5b93:	48 8d 3d c6 16 00 00 	lea    rdi,[rip+0x16c6]        # 7260 <version_etc_copyright+0x60>
5b9a:	ba 54 00 00 00       	mov    edx,0x54
5b9f:	e8 dc bb ff ff       	call   1780 <__assert_fail@plt>
5ba4:	41 b9 01 00 00 00    	mov    r9d,0x1
5baa:	48 83 cb ff          	or     rbx,0xffffffffffffffff
5bae:	e9 68 ff ff ff       	jmp    5b1b <xstrtoul+0x31b>
5bb3:	41 b9 01 00 00 00    	mov    r9d,0x1
5bb9:	48 83 cb ff          	or     rbx,0xffffffffffffffff
5bbd:	e9 f5 fe ff ff       	jmp    5ab7 <xstrtoul+0x2b7>
5bc2:	41 b8 01 00 00 00    	mov    r8d,0x1
5bc8:	48 83 cb ff          	or     rbx,0xffffffffffffffff
5bcc:	e9 22 fe ff ff       	jmp    59f3 <xstrtoul+0x1f3>
5bd1:	48 83 c8 ff          	or     rax,0xffffffffffffffff
5bd5:	41 b8 01 00 00 00    	mov    r8d,0x1
5bdb:	e9 07 fe ff ff       	jmp    59e7 <xstrtoul+0x1e7>
5be0:	41 b9 01 00 00 00    	mov    r9d,0x1
5be6:	48 83 cb ff          	or     rbx,0xffffffffffffffff
5bea:	e9 a8 fe ff ff       	jmp    5a97 <xstrtoul+0x297>
5bef:	41 b9 01 00 00 00    	mov    r9d,0x1
5bf5:	48 83 cb ff          	or     rbx,0xffffffffffffffff
5bf9:	e9 fa fe ff ff       	jmp    5af8 <xstrtoul+0x2f8>
5bfe:	41 b9 01 00 00 00    	mov    r9d,0x1
5c04:	48 83 cb ff          	or     rbx,0xffffffffffffffff
5c08:	e9 62 fe ff ff       	jmp    5a6f <xstrtoul+0x26f>
5c0d:	41 b8 01 00 00 00    	mov    r8d,0x1
5c13:	48 83 c8 ff          	or     rax,0xffffffffffffffff
5c17:	e9 2f ff ff ff       	jmp    5b4b <xstrtoul+0x34b>
5c1c:	0f 1f 40 00          	nop    DWORD PTR [rax+0x0]

0000000000005c20 <rpl_mbrtowc>:
5c20:	41 55                	push   r13
5c22:	41 54                	push   r12
5c24:	49 89 f5             	mov    r13,rsi
5c27:	55                   	push   rbp
5c28:	53                   	push   rbx
5c29:	48 89 fb             	mov    rbx,rdi
5c2c:	49 89 d4             	mov    r12,rdx
5c2f:	48 83 ec 18          	sub    rsp,0x18
5c33:	64 48 8b 04 25 28 00 	mov    rax,QWORD PTR fs:0x28
5c3a:	00 00
5c3c:	48 89 44 24 08       	mov    QWORD PTR [rsp+0x8],rax
5c41:	31 c0                	xor    eax,eax
5c43:	48 8d 44 24 04       	lea    rax,[rsp+0x4]
5c48:	48 85 ff             	test   rdi,rdi
5c4b:	48 0f 44 d8          	cmove  rbx,rax
5c4f:	48 89 df             	mov    rdi,rbx
5c52:	e8 c9 ba ff ff       	call   1720 <mbrtowc@plt>
5c57:	48 83 f8 fd          	cmp    rax,0xfffffffffffffffd
5c5b:	48 89 c5             	mov    rbp,rax
5c5e:	76 20                	jbe    5c80 <rpl_mbrtowc+0x60>
5c60:	4d 85 e4             	test   r12,r12
5c63:	74 1b                	je     5c80 <rpl_mbrtowc+0x60>
5c65:	31 ff                	xor    edi,edi
5c67:	e8 c4 00 00 00       	call   5d30 <hard_locale>
5c6c:	84 c0                	test   al,al
5c6e:	75 10                	jne    5c80 <rpl_mbrtowc+0x60>
5c70:	41 0f b6 45 00       	movzx  eax,BYTE PTR [r13+0x0]
5c75:	bd 01 00 00 00       	mov    ebp,0x1
5c7a:	89 03                	mov    DWORD PTR [rbx],eax
5c7c:	0f 1f 40 00          	nop    DWORD PTR [rax+0x0]
5c80:	48 8b 54 24 08       	mov    rdx,QWORD PTR [rsp+0x8]
5c85:	64 48 33 14 25 28 00 	xor    rdx,QWORD PTR fs:0x28
5c8c:	00 00
5c8e:	48 89 e8             	mov    rax,rbp
5c91:	75 0b                	jne    5c9e <rpl_mbrtowc+0x7e>
5c93:	48 83 c4 18          	add    rsp,0x18
5c97:	5b                   	pop    rbx
5c98:	5d                   	pop    rbp
5c99:	41 5c                	pop    r12
5c9b:	41 5d                	pop    r13
5c9d:	c3                   	ret
5c9e:	e8 4d ba ff ff       	call   16f0 <__stack_chk_fail@plt>
5ca3:	66 2e 0f 1f 84 00 00 	nop    WORD PTR cs:[rax+rax*1+0x0]
5caa:	00 00 00
5cad:	0f 1f 00             	nop    DWORD PTR [rax]

0000000000005cb0 <close_stream>:
5cb0:	41 54                	push   r12
5cb2:	55                   	push   rbp
5cb3:	48 89 fd             	mov    rbp,rdi
5cb6:	53                   	push   rbx
5cb7:	e8 b4 b9 ff ff       	call   1670 <__fpending@plt>
5cbc:	8b 5d 00             	mov    ebx,DWORD PTR [rbp+0x0]
5cbf:	48 89 ef             	mov    rdi,rbp
5cc2:	49 89 c4             	mov    r12,rax
5cc5:	e8 96 03 00 00       	call   6060 <rpl_fclose>
5cca:	83 e3 20             	and    ebx,0x20
5ccd:	85 db                	test   ebx,ebx
5ccf:	75 17                	jne    5ce8 <close_stream+0x38>
5cd1:	85 c0                	test   eax,eax
5cd3:	74 0a                	je     5cdf <close_stream+0x2f>
5cd5:	4d 85 e4             	test   r12,r12
5cd8:	b8 ff ff ff ff       	mov    eax,0xffffffff
5cdd:	74 39                	je     5d18 <close_stream+0x68>
5cdf:	5b                   	pop    rbx
5ce0:	5d                   	pop    rbp
5ce1:	41 5c                	pop    r12
5ce3:	c3                   	ret
5ce4:	0f 1f 40 00          	nop    DWORD PTR [rax+0x0]
5ce8:	85 c0                	test   eax,eax
5cea:	75 1c                	jne    5d08 <close_stream+0x58>
5cec:	e8 4f b9 ff ff       	call   1640 <__errno_location@plt>
5cf1:	c7 00 00 00 00 00    	mov    DWORD PTR [rax],0x0
5cf7:	b8 ff ff ff ff       	mov    eax,0xffffffff
5cfc:	5b                   	pop    rbx
5cfd:	5d                   	pop    rbp
5cfe:	41 5c                	pop    r12
5d00:	c3                   	ret
5d01:	0f 1f 80 00 00 00 00 	nop    DWORD PTR [rax+0x0]
5d08:	5b                   	pop    rbx
5d09:	b8 ff ff ff ff       	mov    eax,0xffffffff
5d0e:	5d                   	pop    rbp
5d0f:	41 5c                	pop    r12
5d11:	c3                   	ret
5d12:	66 0f 1f 44 00 00    	nop    WORD PTR [rax+rax*1+0x0]
5d18:	e8 23 b9 ff ff       	call   1640 <__errno_location@plt>
5d1d:	83 38 09             	cmp    DWORD PTR [rax],0x9
5d20:	5b                   	pop    rbx
5d21:	5d                   	pop    rbp
5d22:	41 5c                	pop    r12
5d24:	0f 95 c0             	setne  al
5d27:	0f b6 c0             	movzx  eax,al
5d2a:	f7 d8                	neg    eax
5d2c:	c3                   	ret
5d2d:	0f 1f 00             	nop    DWORD PTR [rax]

0000000000005d30 <hard_locale>:
5d30:	48 83 ec 08          	sub    rsp,0x8
5d34:	31 f6                	xor    esi,esi
5d36:	e8 75 bb ff ff       	call   18b0 <setlocale@plt>
5d3b:	48 89 c2             	mov    rdx,rax
5d3e:	b8 01 00 00 00       	mov    eax,0x1
5d43:	48 85 d2             	test   rdx,rdx
5d46:	74 1d                	je     5d65 <hard_locale+0x35>
5d48:	48 8d 3d 1a 16 00 00 	lea    rdi,[rip+0x161a]        # 7369 <__PRETTY_FUNCTION__.4162+0x9>
5d4f:	b9 02 00 00 00       	mov    ecx,0x2
5d54:	48 89 d6             	mov    rsi,rdx
5d57:	f3 a6                	repz cmps BYTE PTR ds:[rsi],BYTE PTR es:[rdi]
5d59:	0f 97 c1             	seta   cl
5d5c:	80 d9 00             	sbb    cl,0x0
5d5f:	31 c0                	xor    eax,eax
5d61:	84 c9                	test   cl,cl
5d63:	75 0b                	jne    5d70 <hard_locale+0x40>
5d65:	48 83 c4 08          	add    rsp,0x8
5d69:	c3                   	ret
5d6a:	66 0f 1f 44 00 00    	nop    WORD PTR [rax+rax*1+0x0]
5d70:	48 8d 3d f4 15 00 00 	lea    rdi,[rip+0x15f4]        # 736b <__PRETTY_FUNCTION__.4162+0xb>
5d77:	b9 06 00 00 00       	mov    ecx,0x6
5d7c:	48 89 d6             	mov    rsi,rdx
5d7f:	f3 a6                	repz cmps BYTE PTR ds:[rsi],BYTE PTR es:[rdi]
5d81:	0f 97 c0             	seta   al
5d84:	1c 00                	sbb    al,0x0
5d86:	84 c0                	test   al,al
5d88:	0f 95 c0             	setne  al
5d8b:	48 83 c4 08          	add    rsp,0x8
5d8f:	c3                   	ret

0000000000005d90 <locale_charset>:
5d90:	48 83 ec 08          	sub    rsp,0x8
5d94:	bf 0e 00 00 00       	mov    edi,0xe
5d99:	e8 c2 ba ff ff       	call   1860 <nl_langinfo@plt>
5d9e:	48 85 c0             	test   rax,rax
5da1:	74 1d                	je     5dc0 <locale_charset+0x30>
5da3:	80 38 00             	cmp    BYTE PTR [rax],0x0
5da6:	48 8d 15 c4 15 00 00 	lea    rdx,[rip+0x15c4]        # 7371 <__PRETTY_FUNCTION__.4162+0x11>
5dad:	48 0f 44 c2          	cmove  rax,rdx
5db1:	48 83 c4 08          	add    rsp,0x8
5db5:	c3                   	ret
5db6:	66 2e 0f 1f 84 00 00 	nop    WORD PTR cs:[rax+rax*1+0x0]
5dbd:	00 00 00
5dc0:	48 8d 05 aa 15 00 00 	lea    rax,[rip+0x15aa]        # 7371 <__PRETTY_FUNCTION__.4162+0x11>
5dc7:	48 83 c4 08          	add    rsp,0x8
5dcb:	c3                   	ret
5dcc:	0f 1f 40 00          	nop    DWORD PTR [rax+0x0]

0000000000005dd0 <realloc_groupbuf>:
5dd0:	ba 04 00 00 00       	mov    edx,0x4
5dd5:	48 89 d0             	mov    rax,rdx
5dd8:	48 f7 e6             	mul    rsi
5ddb:	70 31                	jo     5e0e <realloc_groupbuf+0x3e>
5ddd:	31 c9                	xor    ecx,ecx
5ddf:	48 85 c0             	test   rax,rax
5de2:	78 14                	js     5df8 <realloc_groupbuf+0x28>
5de4:	48 85 c9             	test   rcx,rcx
5de7:	75 0f                	jne    5df8 <realloc_groupbuf+0x28>
5de9:	48 c1 e6 02          	shl    rsi,0x2
5ded:	e9 ae ba ff ff       	jmp    18a0 <realloc@plt>
5df2:	66 0f 1f 44 00 00    	nop    WORD PTR [rax+rax*1+0x0]
5df8:	48 83 ec 08          	sub    rsp,0x8
5dfc:	e8 3f b8 ff ff       	call   1640 <__errno_location@plt>
5e01:	c7 00 0c 00 00 00    	mov    DWORD PTR [rax],0xc
5e07:	31 c0                	xor    eax,eax
5e09:	48 83 c4 08          	add    rsp,0x8
5e0d:	c3                   	ret
5e0e:	b9 01 00 00 00       	mov    ecx,0x1
5e13:	eb ca                	jmp    5ddf <realloc_groupbuf+0xf>
5e15:	90                   	nop
5e16:	66 2e 0f 1f 84 00 00 	nop    WORD PTR cs:[rax+rax*1+0x0]
5e1d:	00 00 00

0000000000005e20 <mgetgroups>:
5e20:	41 57                	push   r15
5e22:	41 56                	push   r14
5e24:	49 89 d7             	mov    r15,rdx
5e27:	41 55                	push   r13
5e29:	41 54                	push   r12
5e2b:	41 89 f5             	mov    r13d,esi
5e2e:	55                   	push   rbp
5e2f:	53                   	push   rbx
5e30:	48 83 ec 18          	sub    rsp,0x18
5e34:	64 48 8b 04 25 28 00 	mov    rax,QWORD PTR fs:0x28
5e3b:	00 00
5e3d:	48 89 44 24 08       	mov    QWORD PTR [rsp+0x8],rax
5e42:	31 c0                	xor    eax,eax
5e44:	48 85 ff             	test   rdi,rdi
5e47:	0f 84 cb 00 00 00    	je     5f18 <mgetgroups+0xf8>
5e4d:	48 89 fd             	mov    rbp,rdi
5e50:	be 0a 00 00 00       	mov    esi,0xa
5e55:	31 ff                	xor    edi,edi
5e57:	c7 44 24 04 0a 00 00 	mov    DWORD PTR [rsp+0x4],0xa
5e5e:	00
5e5f:	e8 6c ff ff ff       	call   5dd0 <realloc_groupbuf>
5e64:	48 85 c0             	test   rax,rax
5e67:	48 89 c3             	mov    rbx,rax
5e6a:	0f 84 c8 01 00 00    	je     6038 <mgetgroups+0x218>
5e70:	4c 8d 74 24 04       	lea    r14,[rsp+0x4]
5e75:	44 89 ee             	mov    esi,r13d
5e78:	4c 89 f1             	mov    rcx,r14
5e7b:	48 89 da             	mov    rdx,rbx
5e7e:	48 89 ef             	mov    rdi,rbp
5e81:	44 8b 64 24 04       	mov    r12d,DWORD PTR [rsp+0x4]
5e86:	e8 55 ba ff ff       	call   18e0 <getgrouplist@plt>
5e8b:	85 c0                	test   eax,eax
5e8d:	48 63 74 24 04       	movsxd rsi,DWORD PTR [rsp+0x4]
5e92:	78 4c                	js     5ee0 <mgetgroups+0xc0>
5e94:	48 89 df             	mov    rdi,rbx
5e97:	e8 34 ff ff ff       	call   5dd0 <realloc_groupbuf>
5e9c:	48 85 c0             	test   rax,rax
5e9f:	75 67                	jne    5f08 <mgetgroups+0xe8>
5ea1:	e8 9a b7 ff ff       	call   1640 <__errno_location@plt>
5ea6:	44 8b 20             	mov    r12d,DWORD PTR [rax]
5ea9:	48 89 c5             	mov    rbp,rax
5eac:	48 89 df             	mov    rdi,rbx
5eaf:	e8 6c b7 ff ff       	call   1620 <free@plt>
5eb4:	b8 ff ff ff ff       	mov    eax,0xffffffff
5eb9:	44 89 65 00          	mov    DWORD PTR [rbp+0x0],r12d
5ebd:	48 8b 4c 24 08       	mov    rcx,QWORD PTR [rsp+0x8]
5ec2:	64 48 33 0c 25 28 00 	xor    rcx,QWORD PTR fs:0x28
5ec9:	00 00
5ecb:	0f 85 86 01 00 00    	jne    6057 <mgetgroups+0x237>
5ed1:	48 83 c4 18          	add    rsp,0x18
5ed5:	5b                   	pop    rbx
5ed6:	5d                   	pop    rbp
5ed7:	41 5c                	pop    r12
5ed9:	41 5d                	pop    r13
5edb:	41 5e                	pop    r14
5edd:	41 5f                	pop    r15
5edf:	c3                   	ret
5ee0:	44 39 e6             	cmp    esi,r12d
5ee3:	75 09                	jne    5eee <mgetgroups+0xce>
5ee5:	01 f6                	add    esi,esi
5ee7:	89 74 24 04          	mov    DWORD PTR [rsp+0x4],esi
5eeb:	48 63 f6             	movsxd rsi,esi
5eee:	48 89 df             	mov    rdi,rbx
5ef1:	e8 da fe ff ff       	call   5dd0 <realloc_groupbuf>
5ef6:	48 85 c0             	test   rax,rax
5ef9:	74 a6                	je     5ea1 <mgetgroups+0x81>
5efb:	48 89 c3             	mov    rbx,rax
5efe:	e9 72 ff ff ff       	jmp    5e75 <mgetgroups+0x55>
5f03:	0f 1f 44 00 00       	nop    DWORD PTR [rax+rax*1+0x0]
5f08:	49 89 07             	mov    QWORD PTR [r15],rax
5f0b:	8b 44 24 04          	mov    eax,DWORD PTR [rsp+0x4]
5f0f:	eb ac                	jmp    5ebd <mgetgroups+0x9d>
5f11:	0f 1f 80 00 00 00 00 	nop    DWORD PTR [rax+0x0]
5f18:	31 f6                	xor    esi,esi
5f1a:	31 ff                	xor    edi,edi
5f1c:	e8 0f b9 ff ff       	call   1830 <getgroups@plt>
5f21:	85 c0                	test   eax,eax
5f23:	89 44 24 04          	mov    DWORD PTR [rsp+0x4],eax
5f27:	0f 88 ab 00 00 00    	js     5fd8 <mgetgroups+0x1b8>
5f2d:	41 83 fd ff          	cmp    r13d,0xffffffff
5f31:	40 0f 95 c5          	setne  bpl
5f35:	85 c0                	test   eax,eax
5f37:	74 09                	je     5f42 <mgetgroups+0x122>
5f39:	40 84 ed             	test   bpl,bpl
5f3c:	0f 84 c5 00 00 00    	je     6007 <mgetgroups+0x1e7>
5f42:	83 c0 01             	add    eax,0x1
5f45:	31 ff                	xor    edi,edi
5f47:	48 63 f0             	movsxd rsi,eax
5f4a:	89 44 24 04          	mov    DWORD PTR [rsp+0x4],eax
5f4e:	e8 7d fe ff ff       	call   5dd0 <realloc_groupbuf>
5f53:	48 85 c0             	test   rax,rax
5f56:	48 89 c3             	mov    rbx,rax
5f59:	0f 84 d9 00 00 00    	je     6038 <mgetgroups+0x218>
5f5f:	8b 7c 24 04          	mov    edi,DWORD PTR [rsp+0x4]
5f63:	40 0f b6 ed          	movzx  ebp,bpl
5f67:	29 ef                	sub    edi,ebp
5f69:	41 83 fd ff          	cmp    r13d,0xffffffff
5f6d:	0f 84 cf 00 00 00    	je     6042 <mgetgroups+0x222>
5f73:	48 8d 70 04          	lea    rsi,[rax+0x4]
5f77:	e8 b4 b8 ff ff       	call   1830 <getgroups@plt>
5f7c:	85 c0                	test   eax,eax
5f7e:	0f 88 1d ff ff ff    	js     5ea1 <mgetgroups+0x81>
5f84:	44 89 2b             	mov    DWORD PTR [rbx],r13d
5f87:	83 c0 01             	add    eax,0x1
5f8a:	83 f8 01             	cmp    eax,0x1
5f8d:	49 89 1f             	mov    QWORD PTR [r15],rbx
5f90:	0f 8e 27 ff ff ff    	jle    5ebd <mgetgroups+0x9d>
5f96:	48 63 d0             	movsxd rdx,eax
5f99:	8b 3b                	mov    edi,DWORD PTR [rbx]
5f9b:	48 8d 34 93          	lea    rsi,[rbx+rdx*4]
5f9f:	48 8d 53 04          	lea    rdx,[rbx+0x4]
5fa3:	48 39 d6             	cmp    rsi,rdx
5fa6:	77 20                	ja     5fc8 <mgetgroups+0x1a8>
5fa8:	e9 10 ff ff ff       	jmp    5ebd <mgetgroups+0x9d>
5fad:	0f 1f 00             	nop    DWORD PTR [rax]
5fb0:	3b 0b                	cmp    ecx,DWORD PTR [rbx]
5fb2:	74 1a                	je     5fce <mgetgroups+0x1ae>
5fb4:	89 4b 04             	mov    DWORD PTR [rbx+0x4],ecx
5fb7:	48 83 c3 04          	add    rbx,0x4
5fbb:	48 83 c2 04          	add    rdx,0x4
5fbf:	48 39 d6             	cmp    rsi,rdx
5fc2:	0f 86 f5 fe ff ff    	jbe    5ebd <mgetgroups+0x9d>
5fc8:	8b 0a                	mov    ecx,DWORD PTR [rdx]
5fca:	39 f9                	cmp    ecx,edi
5fcc:	75 e2                	jne    5fb0 <mgetgroups+0x190>
5fce:	83 e8 01             	sub    eax,0x1
5fd1:	eb e8                	jmp    5fbb <mgetgroups+0x19b>
5fd3:	0f 1f 44 00 00       	nop    DWORD PTR [rax+rax*1+0x0]
5fd8:	e8 63 b6 ff ff       	call   1640 <__errno_location@plt>
5fdd:	83 38 26             	cmp    DWORD PTR [rax],0x26
5fe0:	75 56                	jne    6038 <mgetgroups+0x218>
5fe2:	31 ff                	xor    edi,edi
5fe4:	be 04 00 00 00       	mov    esi,0x4
5fe9:	e8 b2 b8 ff ff       	call   18a0 <realloc@plt>
5fee:	48 85 c0             	test   rax,rax
5ff1:	74 45                	je     6038 <mgetgroups+0x218>
5ff3:	49 89 07             	mov    QWORD PTR [r15],rax
5ff6:	44 89 28             	mov    DWORD PTR [rax],r13d
5ff9:	31 c0                	xor    eax,eax
5ffb:	41 83 fd ff          	cmp    r13d,0xffffffff
5fff:	0f 95 c0             	setne  al
6002:	e9 b6 fe ff ff       	jmp    5ebd <mgetgroups+0x9d>
6007:	31 ff                	xor    edi,edi
6009:	48 63 f0             	movsxd rsi,eax
600c:	e8 bf fd ff ff       	call   5dd0 <realloc_groupbuf>
6011:	48 85 c0             	test   rax,rax
6014:	48 89 c3             	mov    rbx,rax
6017:	74 1f                	je     6038 <mgetgroups+0x218>
6019:	8b 7c 24 04          	mov    edi,DWORD PTR [rsp+0x4]
601d:	48 89 de             	mov    rsi,rbx
6020:	e8 0b b8 ff ff       	call   1830 <getgroups@plt>
6025:	85 c0                	test   eax,eax
6027:	0f 89 5d ff ff ff    	jns    5f8a <mgetgroups+0x16a>
602d:	e9 6f fe ff ff       	jmp    5ea1 <mgetgroups+0x81>
6032:	66 0f 1f 44 00 00    	nop    WORD PTR [rax+rax*1+0x0]
6038:	b8 ff ff ff ff       	mov    eax,0xffffffff
603d:	e9 7b fe ff ff       	jmp    5ebd <mgetgroups+0x9d>
6042:	48 89 c6             	mov    rsi,rax
6045:	e8 e6 b7 ff ff       	call   1830 <getgroups@plt>
604a:	85 c0                	test   eax,eax
604c:	0f 89 38 ff ff ff    	jns    5f8a <mgetgroups+0x16a>
6052:	e9 4a fe ff ff       	jmp    5ea1 <mgetgroups+0x81>
6057:	e8 94 b6 ff ff       	call   16f0 <__stack_chk_fail@plt>
605c:	0f 1f 40 00          	nop    DWORD PTR [rax+0x0]

0000000000006060 <rpl_fclose>:
6060:	41 54                	push   r12
6062:	55                   	push   rbp
6063:	53                   	push   rbx
6064:	48 89 fb             	mov    rbx,rdi
6067:	e8 a4 b7 ff ff       	call   1810 <fileno@plt>
606c:	85 c0                	test   eax,eax
606e:	48 89 df             	mov    rdi,rbx
6071:	78 54                	js     60c7 <rpl_fclose+0x67>
6073:	e8 18 b8 ff ff       	call   1890 <__freading@plt>
6078:	85 c0                	test   eax,eax
607a:	75 2c                	jne    60a8 <rpl_fclose+0x48>
607c:	48 89 df             	mov    rdi,rbx
607f:	e8 5c 00 00 00       	call   60e0 <rpl_fflush>
6084:	85 c0                	test   eax,eax
6086:	74 3c                	je     60c4 <rpl_fclose+0x64>
6088:	e8 b3 b5 ff ff       	call   1640 <__errno_location@plt>
608d:	44 8b 20             	mov    r12d,DWORD PTR [rax]
6090:	48 89 df             	mov    rdi,rbx
6093:	48 89 c5             	mov    rbp,rax
6096:	e8 f5 b5 ff ff       	call   1690 <fclose@plt>
609b:	45 85 e4             	test   r12d,r12d
609e:	75 30                	jne    60d0 <rpl_fclose+0x70>
60a0:	5b                   	pop    rbx
60a1:	5d                   	pop    rbp
60a2:	41 5c                	pop    r12
60a4:	c3                   	ret
60a5:	0f 1f 00             	nop    DWORD PTR [rax]
60a8:	48 89 df             	mov    rdi,rbx
60ab:	e8 60 b7 ff ff       	call   1810 <fileno@plt>
60b0:	31 f6                	xor    esi,esi
60b2:	ba 01 00 00 00       	mov    edx,0x1
60b7:	89 c7                	mov    edi,eax
60b9:	e8 b2 b6 ff ff       	call   1770 <lseek@plt>
60be:	48 83 f8 ff          	cmp    rax,0xffffffffffffffff
60c2:	75 b8                	jne    607c <rpl_fclose+0x1c>
60c4:	48 89 df             	mov    rdi,rbx
60c7:	5b                   	pop    rbx
60c8:	5d                   	pop    rbp
60c9:	41 5c                	pop    r12
60cb:	e9 c0 b5 ff ff       	jmp    1690 <fclose@plt>
60d0:	44 89 65 00          	mov    DWORD PTR [rbp+0x0],r12d
60d4:	b8 ff ff ff ff       	mov    eax,0xffffffff
60d9:	eb c5                	jmp    60a0 <rpl_fclose+0x40>
60db:	0f 1f 44 00 00       	nop    DWORD PTR [rax+rax*1+0x0]

00000000000060e0 <rpl_fflush>:
60e0:	48 85 ff             	test   rdi,rdi
60e3:	53                   	push   rbx
60e4:	48 89 fb             	mov    rbx,rdi
60e7:	74 11                	je     60fa <rpl_fflush+0x1a>
60e9:	e8 a2 b7 ff ff       	call   1890 <__freading@plt>
60ee:	85 c0                	test   eax,eax
60f0:	74 08                	je     60fa <rpl_fflush+0x1a>
60f2:	f7 03 00 01 00 00    	test   DWORD PTR [rbx],0x100
60f8:	75 0e                	jne    6108 <rpl_fflush+0x28>
60fa:	48 89 df             	mov    rdi,rbx
60fd:	5b                   	pop    rbx
60fe:	e9 4d b7 ff ff       	jmp    1850 <fflush@plt>
6103:	0f 1f 44 00 00       	nop    DWORD PTR [rax+rax*1+0x0]
6108:	48 89 df             	mov    rdi,rbx
610b:	ba 01 00 00 00       	mov    edx,0x1
6110:	31 f6                	xor    esi,esi
6112:	e8 09 00 00 00       	call   6120 <rpl_fseeko>
6117:	48 89 df             	mov    rdi,rbx
611a:	5b                   	pop    rbx
611b:	e9 30 b7 ff ff       	jmp    1850 <fflush@plt>

0000000000006120 <rpl_fseeko>:
6120:	48 8b 47 08          	mov    rax,QWORD PTR [rdi+0x8]
6124:	48 39 47 10          	cmp    QWORD PTR [rdi+0x10],rax
6128:	74 06                	je     6130 <rpl_fseeko+0x10>
612a:	e9 c1 b7 ff ff       	jmp    18f0 <fseeko@plt>
612f:	90                   	nop
6130:	48 8b 47 20          	mov    rax,QWORD PTR [rdi+0x20]
6134:	48 39 47 28          	cmp    QWORD PTR [rdi+0x28],rax
6138:	75 f0                	jne    612a <rpl_fseeko+0xa>
613a:	48 83 7f 48 00       	cmp    QWORD PTR [rdi+0x48],0x0
613f:	75 e9                	jne    612a <rpl_fseeko+0xa>
6141:	41 54                	push   r12
6143:	55                   	push   rbp
6144:	41 89 d4             	mov    r12d,edx
6147:	53                   	push   rbx
6148:	48 89 f5             	mov    rbp,rsi
614b:	48 89 fb             	mov    rbx,rdi
614e:	e8 bd b6 ff ff       	call   1810 <fileno@plt>
6153:	44 89 e2             	mov    edx,r12d
6156:	48 89 ee             	mov    rsi,rbp
6159:	89 c7                	mov    edi,eax
615b:	e8 10 b6 ff ff       	call   1770 <lseek@plt>
6160:	48 83 f8 ff          	cmp    rax,0xffffffffffffffff
6164:	74 0c                	je     6172 <rpl_fseeko+0x52>
6166:	83 23 ef             	and    DWORD PTR [rbx],0xffffffef
6169:	48 89 83 90 00 00 00 	mov    QWORD PTR [rbx+0x90],rax
6170:	31 c0                	xor    eax,eax
6172:	5b                   	pop    rbx
6173:	5d                   	pop    rbp
6174:	41 5c                	pop    r12
6176:	c3                   	ret
6177:	66 0f 1f 84 00 00 00 	nop    WORD PTR [rax+rax*1+0x0]
617e:	00 00

0000000000006180 <__libc_csu_init>:
6180:	41 57                	push   r15
6182:	41 56                	push   r14
6184:	49 89 d7             	mov    r15,rdx
6187:	41 55                	push   r13
6189:	41 54                	push   r12
618b:	4c 8d 25 be 28 20 00 	lea    r12,[rip+0x2028be]        # 208a50 <__frame_dummy_init_array_entry>
6192:	55                   	push   rbp
6193:	48 8d 2d be 28 20 00 	lea    rbp,[rip+0x2028be]        # 208a58 <__init_array_end>
619a:	53                   	push   rbx
619b:	41 89 fd             	mov    r13d,edi
619e:	49 89 f6             	mov    r14,rsi
61a1:	4c 29 e5             	sub    rbp,r12
61a4:	48 83 ec 08          	sub    rsp,0x8
61a8:	48 c1 fd 03          	sar    rbp,0x3
61ac:	e8 27 b4 ff ff       	call   15d8 <_init>
61b1:	48 85 ed             	test   rbp,rbp
61b4:	74 20                	je     61d6 <__libc_csu_init+0x56>
61b6:	31 db                	xor    ebx,ebx
61b8:	0f 1f 84 00 00 00 00 	nop    DWORD PTR [rax+rax*1+0x0]
61bf:	00
61c0:	4c 89 fa             	mov    rdx,r15
61c3:	4c 89 f6             	mov    rsi,r14
61c6:	44 89 ef             	mov    edi,r13d
61c9:	41 ff 14 dc          	call   QWORD PTR [r12+rbx*8]
61cd:	48 83 c3 01          	add    rbx,0x1
61d1:	48 39 dd             	cmp    rbp,rbx
61d4:	75 ea                	jne    61c0 <__libc_csu_init+0x40>
61d6:	48 83 c4 08          	add    rsp,0x8
61da:	5b                   	pop    rbx
61db:	5d                   	pop    rbp
61dc:	41 5c                	pop    r12
61de:	41 5d                	pop    r13
61e0:	41 5e                	pop    r14
61e2:	41 5f                	pop    r15
61e4:	c3                   	ret
61e5:	90                   	nop
61e6:	66 2e 0f 1f 84 00 00 	nop    WORD PTR cs:[rax+rax*1+0x0]
61ed:	00 00 00

00000000000061f0 <__libc_csu_fini>:
61f0:	f3 c3                	repz ret
61f2:	66 2e 0f 1f 84 00 00 	nop    WORD PTR cs:[rax+rax*1+0x0]
61f9:	00 00 00
61fc:	0f 1f 40 00          	nop    DWORD PTR [rax+0x0]

0000000000006200 <atexit>:
6200:	48 8b 15 01 2e 20 00 	mov    rdx,QWORD PTR [rip+0x202e01]        # 209008 <__dso_handle>
6207:	31 f6                	xor    esi,esi
6209:	e9 02 b7 ff ff       	jmp    1910 <__cxa_atexit@plt>

Disassembly of section .fini:

0000000000006210 <_fini>:
6210:	48 83 ec 08          	sub    rsp,0x8
6214:	48 83 c4 08          	add    rsp,0x8
6218:	c3                   	ret
