


Disassembly of section .init:

0000000000001600 <_init>:
1600:	48 83 ec 08          	sub    rsp,0x8
1604:	48 8b 05 dd 99 20 00 	mov    rax,QWORD PTR [rip+0x2099dd]        # 20afe8 <__gmon_start__>
160b:	48 85 c0             	test   rax,rax
160e:	74 02                	je     1612 <_init+0x12>
1610:	ff d0                	call   rax
1612:	48 83 c4 08          	add    rsp,0x8
1616:	c3                   	ret

Disassembly of section .plt:

0000000000001620 <.plt>:
1620:	ff 35 ea 97 20 00    	push   QWORD PTR [rip+0x2097ea]        # 20ae10 <_GLOBAL_OFFSET_TABLE_+0x8>
1626:	ff 25 ec 97 20 00    	jmp    QWORD PTR [rip+0x2097ec]        # 20ae18 <_GLOBAL_OFFSET_TABLE_+0x10>
162c:	0f 1f 40 00          	nop    DWORD PTR [rax+0x0]

0000000000001630 <__ctype_toupper_loc@plt>:
1630:	ff 25 ea 97 20 00    	jmp    QWORD PTR [rip+0x2097ea]        # 20ae20 <__ctype_toupper_loc@GLIBC_2.3>
1636:	68 00 00 00 00       	push   0x0
163b:	e9 e0 ff ff ff       	jmp    1620 <.plt>

0000000000001640 <__uflow@plt>:
1640:	ff 25 e2 97 20 00    	jmp    QWORD PTR [rip+0x2097e2]        # 20ae28 <__uflow@GLIBC_2.2.5>
1646:	68 01 00 00 00       	push   0x1
164b:	e9 d0 ff ff ff       	jmp    1620 <.plt>

0000000000001650 <free@plt>:
1650:	ff 25 da 97 20 00    	jmp    QWORD PTR [rip+0x2097da]        # 20ae30 <free@GLIBC_2.2.5>
1656:	68 02 00 00 00       	push   0x2
165b:	e9 c0 ff ff ff       	jmp    1620 <.plt>

0000000000001660 <abort@plt>:
1660:	ff 25 d2 97 20 00    	jmp    QWORD PTR [rip+0x2097d2]        # 20ae38 <abort@GLIBC_2.2.5>
1666:	68 03 00 00 00       	push   0x3
166b:	e9 b0 ff ff ff       	jmp    1620 <.plt>

0000000000001670 <__errno_location@plt>:
1670:	ff 25 ca 97 20 00    	jmp    QWORD PTR [rip+0x2097ca]        # 20ae40 <__errno_location@GLIBC_2.2.5>
1676:	68 04 00 00 00       	push   0x4
167b:	e9 a0 ff ff ff       	jmp    1620 <.plt>

0000000000001680 <strncmp@plt>:
1680:	ff 25 c2 97 20 00    	jmp    QWORD PTR [rip+0x2097c2]        # 20ae48 <strncmp@GLIBC_2.2.5>
1686:	68 05 00 00 00       	push   0x5
168b:	e9 90 ff ff ff       	jmp    1620 <.plt>

0000000000001690 <_exit@plt>:
1690:	ff 25 ba 97 20 00    	jmp    QWORD PTR [rip+0x2097ba]        # 20ae50 <_exit@GLIBC_2.2.5>
1696:	68 06 00 00 00       	push   0x6
169b:	e9 80 ff ff ff       	jmp    1620 <.plt>

00000000000016a0 <__fpending@plt>:
16a0:	ff 25 b2 97 20 00    	jmp    QWORD PTR [rip+0x2097b2]        # 20ae58 <__fpending@GLIBC_2.2.5>
16a6:	68 07 00 00 00       	push   0x7
16ab:	e9 70 ff ff ff       	jmp    1620 <.plt>

00000000000016b0 <fcntl@plt>:
16b0:	ff 25 aa 97 20 00    	jmp    QWORD PTR [rip+0x2097aa]        # 20ae60 <fcntl@GLIBC_2.2.5>
16b6:	68 08 00 00 00       	push   0x8
16bb:	e9 60 ff ff ff       	jmp    1620 <.plt>

00000000000016c0 <textdomain@plt>:
16c0:	ff 25 a2 97 20 00    	jmp    QWORD PTR [rip+0x2097a2]        # 20ae68 <textdomain@GLIBC_2.2.5>
16c6:	68 09 00 00 00       	push   0x9
16cb:	e9 50 ff ff ff       	jmp    1620 <.plt>

00000000000016d0 <fclose@plt>:
16d0:	ff 25 9a 97 20 00    	jmp    QWORD PTR [rip+0x20979a]        # 20ae70 <fclose@GLIBC_2.2.5>
16d6:	68 0a 00 00 00       	push   0xa
16db:	e9 40 ff ff ff       	jmp    1620 <.plt>

00000000000016e0 <bindtextdomain@plt>:
16e0:	ff 25 92 97 20 00    	jmp    QWORD PTR [rip+0x209792]        # 20ae78 <bindtextdomain@GLIBC_2.2.5>
16e6:	68 0b 00 00 00       	push   0xb
16eb:	e9 30 ff ff ff       	jmp    1620 <.plt>

00000000000016f0 <dcgettext@plt>:
16f0:	ff 25 8a 97 20 00    	jmp    QWORD PTR [rip+0x20978a]        # 20ae80 <dcgettext@GLIBC_2.2.5>
16f6:	68 0c 00 00 00       	push   0xc
16fb:	e9 20 ff ff ff       	jmp    1620 <.plt>

0000000000001700 <__ctype_get_mb_cur_max@plt>:
1700:	ff 25 82 97 20 00    	jmp    QWORD PTR [rip+0x209782]        # 20ae88 <__ctype_get_mb_cur_max@GLIBC_2.2.5>
1706:	68 0d 00 00 00       	push   0xd
170b:	e9 10 ff ff ff       	jmp    1620 <.plt>

0000000000001710 <strlen@plt>:
1710:	ff 25 7a 97 20 00    	jmp    QWORD PTR [rip+0x20977a]        # 20ae90 <strlen@GLIBC_2.2.5>
1716:	68 0e 00 00 00       	push   0xe
171b:	e9 00 ff ff ff       	jmp    1620 <.plt>

0000000000001720 <__stack_chk_fail@plt>:
1720:	ff 25 72 97 20 00    	jmp    QWORD PTR [rip+0x209772]        # 20ae98 <__stack_chk_fail@GLIBC_2.4>
1726:	68 0f 00 00 00       	push   0xf
172b:	e9 f0 fe ff ff       	jmp    1620 <.plt>

0000000000001730 <getopt_long@plt>:
1730:	ff 25 6a 97 20 00    	jmp    QWORD PTR [rip+0x20976a]        # 20aea0 <getopt_long@GLIBC_2.2.5>
1736:	68 10 00 00 00       	push   0x10
173b:	e9 e0 fe ff ff       	jmp    1620 <.plt>

0000000000001740 <mbrtowc@plt>:
1740:	ff 25 62 97 20 00    	jmp    QWORD PTR [rip+0x209762]        # 20aea8 <mbrtowc@GLIBC_2.2.5>
1746:	68 11 00 00 00       	push   0x11
174b:	e9 d0 fe ff ff       	jmp    1620 <.plt>

0000000000001750 <strchr@plt>:
1750:	ff 25 5a 97 20 00    	jmp    QWORD PTR [rip+0x20975a]        # 20aeb0 <strchr@GLIBC_2.2.5>
1756:	68 12 00 00 00       	push   0x12
175b:	e9 c0 fe ff ff       	jmp    1620 <.plt>

0000000000001760 <__overflow@plt>:
1760:	ff 25 52 97 20 00    	jmp    QWORD PTR [rip+0x209752]        # 20aeb8 <__overflow@GLIBC_2.2.5>
1766:	68 13 00 00 00       	push   0x13
176b:	e9 b0 fe ff ff       	jmp    1620 <.plt>

0000000000001770 <strrchr@plt>:
1770:	ff 25 4a 97 20 00    	jmp    QWORD PTR [rip+0x20974a]        # 20aec0 <strrchr@GLIBC_2.2.5>
1776:	68 14 00 00 00       	push   0x14
177b:	e9 a0 fe ff ff       	jmp    1620 <.plt>

0000000000001780 <lseek@plt>:
1780:	ff 25 42 97 20 00    	jmp    QWORD PTR [rip+0x209742]        # 20aec8 <lseek@GLIBC_2.2.5>
1786:	68 15 00 00 00       	push   0x15
178b:	e9 90 fe ff ff       	jmp    1620 <.plt>

0000000000001790 <__assert_fail@plt>:
1790:	ff 25 3a 97 20 00    	jmp    QWORD PTR [rip+0x20973a]        # 20aed0 <__assert_fail@GLIBC_2.2.5>
1796:	68 16 00 00 00       	push   0x16
179b:	e9 80 fe ff ff       	jmp    1620 <.plt>

00000000000017a0 <memset@plt>:
17a0:	ff 25 32 97 20 00    	jmp    QWORD PTR [rip+0x209732]        # 20aed8 <memset@GLIBC_2.2.5>
17a6:	68 17 00 00 00       	push   0x17
17ab:	e9 70 fe ff ff       	jmp    1620 <.plt>

00000000000017b0 <close@plt>:
17b0:	ff 25 2a 97 20 00    	jmp    QWORD PTR [rip+0x20972a]        # 20aee0 <close@GLIBC_2.2.5>
17b6:	68 18 00 00 00       	push   0x18
17bb:	e9 60 fe ff ff       	jmp    1620 <.plt>

00000000000017c0 <posix_fadvise@plt>:
17c0:	ff 25 22 97 20 00    	jmp    QWORD PTR [rip+0x209722]        # 20aee8 <posix_fadvise@GLIBC_2.2.5>
17c6:	68 19 00 00 00       	push   0x19
17cb:	e9 50 fe ff ff       	jmp    1620 <.plt>

00000000000017d0 <memchr@plt>:
17d0:	ff 25 1a 97 20 00    	jmp    QWORD PTR [rip+0x20971a]        # 20aef0 <memchr@GLIBC_2.2.5>
17d6:	68 1a 00 00 00       	push   0x1a
17db:	e9 40 fe ff ff       	jmp    1620 <.plt>

00000000000017e0 <memcmp@plt>:
17e0:	ff 25 12 97 20 00    	jmp    QWORD PTR [rip+0x209712]        # 20aef8 <memcmp@GLIBC_2.2.5>
17e6:	68 1b 00 00 00       	push   0x1b
17eb:	e9 30 fe ff ff       	jmp    1620 <.plt>

00000000000017f0 <fputs_unlocked@plt>:
17f0:	ff 25 0a 97 20 00    	jmp    QWORD PTR [rip+0x20970a]        # 20af00 <fputs_unlocked@GLIBC_2.2.5>
17f6:	68 1c 00 00 00       	push   0x1c
17fb:	e9 20 fe ff ff       	jmp    1620 <.plt>

0000000000001800 <calloc@plt>:
1800:	ff 25 02 97 20 00    	jmp    QWORD PTR [rip+0x209702]        # 20af08 <calloc@GLIBC_2.2.5>
1806:	68 1d 00 00 00       	push   0x1d
180b:	e9 10 fe ff ff       	jmp    1620 <.plt>

0000000000001810 <strcmp@plt>:
1810:	ff 25 fa 96 20 00    	jmp    QWORD PTR [rip+0x2096fa]        # 20af10 <strcmp@GLIBC_2.2.5>
1816:	68 1e 00 00 00       	push   0x1e
181b:	e9 00 fe ff ff       	jmp    1620 <.plt>

0000000000001820 <memcpy@plt>:
1820:	ff 25 f2 96 20 00    	jmp    QWORD PTR [rip+0x2096f2]        # 20af18 <memcpy@GLIBC_2.14>
1826:	68 1f 00 00 00       	push   0x1f
182b:	e9 f0 fd ff ff       	jmp    1620 <.plt>

0000000000001830 <fileno@plt>:
1830:	ff 25 ea 96 20 00    	jmp    QWORD PTR [rip+0x2096ea]        # 20af20 <fileno@GLIBC_2.2.5>
1836:	68 20 00 00 00       	push   0x20
183b:	e9 e0 fd ff ff       	jmp    1620 <.plt>

0000000000001840 <malloc@plt>:
1840:	ff 25 e2 96 20 00    	jmp    QWORD PTR [rip+0x2096e2]        # 20af28 <malloc@GLIBC_2.2.5>
1846:	68 21 00 00 00       	push   0x21
184b:	e9 d0 fd ff ff       	jmp    1620 <.plt>

0000000000001850 <fflush@plt>:
1850:	ff 25 da 96 20 00    	jmp    QWORD PTR [rip+0x2096da]        # 20af30 <fflush@GLIBC_2.2.5>
1856:	68 22 00 00 00       	push   0x22
185b:	e9 c0 fd ff ff       	jmp    1620 <.plt>

0000000000001860 <nl_langinfo@plt>:
1860:	ff 25 d2 96 20 00    	jmp    QWORD PTR [rip+0x2096d2]        # 20af38 <nl_langinfo@GLIBC_2.2.5>
1866:	68 23 00 00 00       	push   0x23
186b:	e9 b0 fd ff ff       	jmp    1620 <.plt>

0000000000001870 <strcoll@plt>:
1870:	ff 25 ca 96 20 00    	jmp    QWORD PTR [rip+0x2096ca]        # 20af40 <strcoll@GLIBC_2.2.5>
1876:	68 24 00 00 00       	push   0x24
187b:	e9 a0 fd ff ff       	jmp    1620 <.plt>

0000000000001880 <strpbrk@plt>:
1880:	ff 25 c2 96 20 00    	jmp    QWORD PTR [rip+0x2096c2]        # 20af48 <strpbrk@GLIBC_2.2.5>
1886:	68 25 00 00 00       	push   0x25
188b:	e9 90 fd ff ff       	jmp    1620 <.plt>

0000000000001890 <__freading@plt>:
1890:	ff 25 ba 96 20 00    	jmp    QWORD PTR [rip+0x2096ba]        # 20af50 <__freading@GLIBC_2.2.5>
1896:	68 26 00 00 00       	push   0x26
189b:	e9 80 fd ff ff       	jmp    1620 <.plt>

00000000000018a0 <fwrite_unlocked@plt>:
18a0:	ff 25 b2 96 20 00    	jmp    QWORD PTR [rip+0x2096b2]        # 20af58 <fwrite_unlocked@GLIBC_2.2.5>
18a6:	68 27 00 00 00       	push   0x27
18ab:	e9 70 fd ff ff       	jmp    1620 <.plt>

00000000000018b0 <realloc@plt>:
18b0:	ff 25 aa 96 20 00    	jmp    QWORD PTR [rip+0x2096aa]        # 20af60 <realloc@GLIBC_2.2.5>
18b6:	68 28 00 00 00       	push   0x28
18bb:	e9 60 fd ff ff       	jmp    1620 <.plt>

00000000000018c0 <fdopen@plt>:
18c0:	ff 25 a2 96 20 00    	jmp    QWORD PTR [rip+0x2096a2]        # 20af68 <fdopen@GLIBC_2.2.5>
18c6:	68 29 00 00 00       	push   0x29
18cb:	e9 50 fd ff ff       	jmp    1620 <.plt>

00000000000018d0 <setlocale@plt>:
18d0:	ff 25 9a 96 20 00    	jmp    QWORD PTR [rip+0x20969a]        # 20af70 <setlocale@GLIBC_2.2.5>
18d6:	68 2a 00 00 00       	push   0x2a
18db:	e9 40 fd ff ff       	jmp    1620 <.plt>

00000000000018e0 <__printf_chk@plt>:
18e0:	ff 25 92 96 20 00    	jmp    QWORD PTR [rip+0x209692]        # 20af78 <__printf_chk@GLIBC_2.3.4>
18e6:	68 2b 00 00 00       	push   0x2b
18eb:	e9 30 fd ff ff       	jmp    1620 <.plt>

00000000000018f0 <error@plt>:
18f0:	ff 25 8a 96 20 00    	jmp    QWORD PTR [rip+0x20968a]        # 20af80 <error@GLIBC_2.2.5>
18f6:	68 2c 00 00 00       	push   0x2c
18fb:	e9 20 fd ff ff       	jmp    1620 <.plt>

0000000000001900 <fseeko@plt>:
1900:	ff 25 82 96 20 00    	jmp    QWORD PTR [rip+0x209682]        # 20af88 <fseeko@GLIBC_2.2.5>
1906:	68 2d 00 00 00       	push   0x2d
190b:	e9 10 fd ff ff       	jmp    1620 <.plt>

0000000000001910 <fopen@plt>:
1910:	ff 25 7a 96 20 00    	jmp    QWORD PTR [rip+0x20967a]        # 20af90 <fopen@GLIBC_2.2.5>
1916:	68 2e 00 00 00       	push   0x2e
191b:	e9 00 fd ff ff       	jmp    1620 <.plt>

0000000000001920 <strtoul@plt>:
1920:	ff 25 72 96 20 00    	jmp    QWORD PTR [rip+0x209672]        # 20af98 <strtoul@GLIBC_2.2.5>
1926:	68 2f 00 00 00       	push   0x2f
192b:	e9 f0 fc ff ff       	jmp    1620 <.plt>

0000000000001930 <__cxa_atexit@plt>:
1930:	ff 25 6a 96 20 00    	jmp    QWORD PTR [rip+0x20966a]        # 20afa0 <__cxa_atexit@GLIBC_2.2.5>
1936:	68 30 00 00 00       	push   0x30
193b:	e9 e0 fc ff ff       	jmp    1620 <.plt>

0000000000001940 <exit@plt>:
1940:	ff 25 62 96 20 00    	jmp    QWORD PTR [rip+0x209662]        # 20afa8 <exit@GLIBC_2.2.5>
1946:	68 31 00 00 00       	push   0x31
194b:	e9 d0 fc ff ff       	jmp    1620 <.plt>

0000000000001950 <fwrite@plt>:
1950:	ff 25 5a 96 20 00    	jmp    QWORD PTR [rip+0x20965a]        # 20afb0 <fwrite@GLIBC_2.2.5>
1956:	68 32 00 00 00       	push   0x32
195b:	e9 c0 fc ff ff       	jmp    1620 <.plt>

0000000000001960 <__fprintf_chk@plt>:
1960:	ff 25 52 96 20 00    	jmp    QWORD PTR [rip+0x209652]        # 20afb8 <__fprintf_chk@GLIBC_2.3.4>
1966:	68 33 00 00 00       	push   0x33
196b:	e9 b0 fc ff ff       	jmp    1620 <.plt>

0000000000001970 <mbsinit@plt>:
1970:	ff 25 4a 96 20 00    	jmp    QWORD PTR [rip+0x20964a]        # 20afc0 <mbsinit@GLIBC_2.2.5>
1976:	68 34 00 00 00       	push   0x34
197b:	e9 a0 fc ff ff       	jmp    1620 <.plt>

0000000000001980 <iswprint@plt>:
1980:	ff 25 42 96 20 00    	jmp    QWORD PTR [rip+0x209642]        # 20afc8 <iswprint@GLIBC_2.2.5>
1986:	68 35 00 00 00       	push   0x35
198b:	e9 90 fc ff ff       	jmp    1620 <.plt>

0000000000001990 <__ctype_b_loc@plt>:
1990:	ff 25 3a 96 20 00    	jmp    QWORD PTR [rip+0x20963a]        # 20afd0 <__ctype_b_loc@GLIBC_2.3>
1996:	68 36 00 00 00       	push   0x36
199b:	e9 80 fc ff ff       	jmp    1620 <.plt>

Disassembly of section .plt.got:

00000000000019a0 <__cxa_finalize@plt>:
19a0:	ff 25 52 96 20 00    	jmp    QWORD PTR [rip+0x209652]        # 20aff8 <__cxa_finalize@GLIBC_2.2.5>
19a6:	66 90                	xchg   ax,ax

Disassembly of section .text:

00000000000019b0 <main>:
19b0:	41 57                	push   r15
19b2:	41 56                	push   r14
19b4:	41 55                	push   r13
19b6:	41 54                	push   r12
19b8:	55                   	push   rbp
19b9:	53                   	push   rbx
19ba:	48 63 ef             	movsxd rbp,edi
19bd:	48 89 f3             	mov    rbx,rsi
19c0:	48 81 ec 98 00 00 00 	sub    rsp,0x98
19c7:	48 8b 3e             	mov    rdi,QWORD PTR [rsi]
19ca:	64 48 8b 04 25 28 00 	mov    rax,QWORD PTR fs:0x28
19d1:	00 00
19d3:	48 89 84 24 88 00 00 	mov    QWORD PTR [rsp+0x88],rax
19da:	00
19db:	31 c0                	xor    eax,eax
19dd:	c7 44 24 30 00 00 00 	mov    DWORD PTR [rsp+0x30],0x0
19e4:	00
19e5:	48 c7 84 24 80 00 00 	mov    QWORD PTR [rsp+0x80],0x0
19ec:	00 00 00 00 00
19f1:	4c 8d 7c 24 60       	lea    r15,[rsp+0x60]
19f6:	c7 44 24 34 00 00 00 	mov    DWORD PTR [rsp+0x34],0x0
19fd:	00
19fe:	e8 3d 26 00 00       	call   4040 <set_program_name>
1a03:	48 8d 35 4e 63 00 00 	lea    rsi,[rip+0x634e]        # 7d58 <_IO_stdin_used+0xa38>
1a0a:	bf 06 00 00 00       	mov    edi,0x6
1a0f:	e8 bc fe ff ff       	call   18d0 <setlocale@plt>
1a14:	48 8d 35 3a 64 00 00 	lea    rsi,[rip+0x643a]        # 7e55 <_IO_stdin_used+0xb35>
1a1b:	48 8d 3d f9 63 00 00 	lea    rdi,[rip+0x63f9]        # 7e1b <_IO_stdin_used+0xafb>
1a22:	e8 b9 fc ff ff       	call   16e0 <bindtextdomain@plt>
1a27:	48 8d 3d ed 63 00 00 	lea    rdi,[rip+0x63ed]        # 7e1b <_IO_stdin_used+0xafb>
1a2e:	e8 8d fc ff ff       	call   16c0 <textdomain@plt>
1a33:	bf 03 00 00 00       	mov    edi,0x3
1a38:	e8 13 24 00 00       	call   3e50 <hard_locale>
1a3d:	48 8d 3d 7c 22 00 00 	lea    rdi,[rip+0x227c]        # 3cc0 <close_stdout>
1a44:	88 05 54 97 20 00    	mov    BYTE PTR [rip+0x209754],al        # 20b19e <hard_LC_COLLATE>
1a4a:	e8 a1 58 00 00       	call   72f0 <atexit>
1a4f:	48 8d 3d 4a 12 00 00 	lea    rdi,[rip+0x124a]        # 2ca0 <free_spareline>
1a56:	e8 95 58 00 00       	call   72f0 <atexit>
1a5b:	48 8d 44 24 2c       	lea    rax,[rsp+0x2c]
1a60:	c6 05 34 97 20 00 01 	mov    BYTE PTR [rip+0x209734],0x1        # 20b19b <print_pairables>
1a67:	c6 05 2c 97 20 00 00 	mov    BYTE PTR [rip+0x20972c],0x0        # 20b19a <seen_unpairable>
1a6e:	c6 05 24 97 20 00 00 	mov    BYTE PTR [rip+0x209724],0x0        # 20b199 <issued_disorder_warning+0x1>
1a75:	c6 05 1c 97 20 00 00 	mov    BYTE PTR [rip+0x20971c],0x0        # 20b198 <issued_disorder_warning>
1a7c:	48 89 44 24 08       	mov    QWORD PTR [rsp+0x8],rax
1a81:	48 8d 44 24 30       	lea    rax,[rsp+0x30]
1a86:	c7 05 c0 96 20 00 00 	mov    DWORD PTR [rip+0x2096c0],0x0        # 20b150 <check_input_order>
1a8d:	00 00 00
1a90:	48 89 44 24 10       	mov    QWORD PTR [rsp+0x10],rax
1a95:	eb 4d                	jmp    1ae4 <main+0x134>
1a97:	66 0f 1f 84 00 00 00 	nop    WORD PTR [rax+rax*1+0x0]
1a9e:	00 00
1aa0:	83 f8 76             	cmp    eax,0x76
1aa3:	0f 84 9f 01 00 00    	je     1c48 <main+0x298>
1aa9:	0f 8e c9 00 00 00    	jle    1b78 <main+0x1c8>
1aaf:	3d 80 00 00 00       	cmp    eax,0x80
1ab4:	0f 84 b6 02 00 00    	je     1d70 <main+0x3c0>
1aba:	0f 8e 90 02 00 00    	jle    1d50 <main+0x3a0>
1ac0:	3d 81 00 00 00       	cmp    eax,0x81
1ac5:	0f 84 35 03 00 00    	je     1e00 <main+0x450>
1acb:	3d 82 00 00 00       	cmp    eax,0x82
1ad0:	75 6f                	jne    1b41 <main+0x191>
1ad2:	c6 05 27 96 20 00 01 	mov    BYTE PTR [rip+0x209627],0x1        # 20b100 <join_header_lines>
1ad9:	31 c0                	xor    eax,eax
1adb:	0f 1f 44 00 00       	nop    DWORD PTR [rax+rax*1+0x0]
1ae0:	89 44 24 30          	mov    DWORD PTR [rsp+0x30],eax
1ae4:	48 8d 0d d5 8f 20 00 	lea    rcx,[rip+0x208fd5]        # 20aac0 <longopts>
1aeb:	48 8d 15 b9 63 00 00 	lea    rdx,[rip+0x63b9]        # 7eab <_IO_stdin_used+0xb8b>
1af2:	45 31 c0             	xor    r8d,r8d
1af5:	48 89 de             	mov    rsi,rbx
1af8:	89 ef                	mov    edi,ebp
1afa:	e8 31 fc ff ff       	call   1730 <getopt_long@plt>
1aff:	83 f8 ff             	cmp    eax,0xffffffff
1b02:	0f 84 59 03 00 00    	je     1e61 <main+0x4b1>
1b08:	83 f8 69             	cmp    eax,0x69
1b0b:	c7 44 24 2c 00 00 00 	mov    DWORD PTR [rsp+0x2c],0x0
1b12:	00
1b13:	0f 84 cf 02 00 00    	je     1de8 <main+0x438>
1b19:	7f 85                	jg     1aa0 <main+0xf0>
1b1b:	83 f8 31             	cmp    eax,0x31
1b1e:	0f 84 9c 02 00 00    	je     1dc0 <main+0x410>
1b24:	0f 8e c6 00 00 00    	jle    1bf0 <main+0x240>
1b2a:	83 f8 61             	cmp    eax,0x61
1b2d:	0f 84 1c 01 00 00    	je     1c4f <main+0x29f>
1b33:	83 f8 65             	cmp    eax,0x65
1b36:	0f 84 dc 01 00 00    	je     1d18 <main+0x368>
1b3c:	83 f8 32             	cmp    eax,0x32
1b3f:	74 0f                	je     1b50 <main+0x1a0>
1b41:	bf 01 00 00 00       	mov    edi,0x1
1b46:	e8 75 1b 00 00       	call   36c0 <usage>
1b4b:	0f 1f 44 00 00       	nop    DWORD PTR [rax+rax*1+0x0]
1b50:	48 8b 3d 69 95 20 00 	mov    rdi,QWORD PTR [rip+0x209569]        # 20b0c0 <optarg@@GLIBC_2.2.5>
1b57:	e8 34 0f 00 00       	call   2a90 <string_to_join_field>
1b5c:	48 8d 3d b5 94 20 00 	lea    rdi,[rip+0x2094b5]        # 20b018 <join_field_2>
1b63:	48 89 c6             	mov    rsi,rax
1b66:	e8 d5 0e 00 00       	call   2a40 <set_join_field>
1b6b:	8b 44 24 2c          	mov    eax,DWORD PTR [rsp+0x2c]
1b6f:	e9 6c ff ff ff       	jmp    1ae0 <main+0x130>
1b74:	0f 1f 40 00          	nop    DWORD PTR [rax+0x0]
1b78:	83 f8 6f             	cmp    eax,0x6f
1b7b:	0f 84 1f 01 00 00    	je     1ca0 <main+0x2f0>
1b81:	83 f8 74             	cmp    eax,0x74
1b84:	0f 84 fe 01 00 00    	je     1d88 <main+0x3d8>
1b8a:	83 f8 6a             	cmp    eax,0x6a
1b8d:	75 b2                	jne    1b41 <main+0x191>
1b8f:	48 8b 3d 2a 95 20 00 	mov    rdi,QWORD PTR [rip+0x20952a]        # 20b0c0 <optarg@@GLIBC_2.2.5>
1b96:	0f b6 07             	movzx  eax,BYTE PTR [rdi]
1b99:	8d 50 cf             	lea    edx,[rax-0x31]
1b9c:	80 fa 01             	cmp    dl,0x1
1b9f:	77 1f                	ja     1bc0 <main+0x210>
1ba1:	80 7f 01 00          	cmp    BYTE PTR [rdi+0x1],0x0
1ba5:	75 19                	jne    1bc0 <main+0x210>
1ba7:	48 63 15 0a 95 20 00 	movsxd rdx,DWORD PTR [rip+0x20950a]        # 20b0b8 <optind@@GLIBC_2.2.5>
1bae:	48 8b 54 d3 f8       	mov    rdx,QWORD PTR [rbx+rdx*8-0x8]
1bb3:	48 83 c2 02          	add    rdx,0x2
1bb7:	48 39 d7             	cmp    rdi,rdx
1bba:	0f 84 be 07 00 00    	je     237e <main+0x9ce>
1bc0:	e8 cb 0e 00 00       	call   2a90 <string_to_join_field>
1bc5:	48 8d 3d 54 94 20 00 	lea    rdi,[rip+0x209454]        # 20b020 <join_field_1>
1bcc:	48 89 c6             	mov    rsi,rax
1bcf:	e8 6c 0e 00 00       	call   2a40 <set_join_field>
1bd4:	48 8b 35 45 94 20 00 	mov    rsi,QWORD PTR [rip+0x209445]        # 20b020 <join_field_1>
1bdb:	48 8d 3d 36 94 20 00 	lea    rdi,[rip+0x209436]        # 20b018 <join_field_2>
1be2:	e8 59 0e 00 00       	call   2a40 <set_join_field>
1be7:	8b 44 24 2c          	mov    eax,DWORD PTR [rsp+0x2c]
1beb:	e9 f0 fe ff ff       	jmp    1ae0 <main+0x130>
1bf0:	3d 7e ff ff ff       	cmp    eax,0xffffff7e
1bf5:	0f 84 db 0a 00 00    	je     26d6 <main+0xd26>
1bfb:	83 f8 01             	cmp    eax,0x1
1bfe:	0f 84 d4 00 00 00    	je     1cd8 <main+0x328>
1c04:	3d 7d ff ff ff       	cmp    eax,0xffffff7d
1c09:	0f 85 32 ff ff ff    	jne    1b41 <main+0x191>
1c0f:	48 8b 3d 92 94 20 00 	mov    rdi,QWORD PTR [rip+0x209492]        # 20b0a8 <stdout@@GLIBC_2.2.5>
1c16:	48 8b 0d 13 94 20 00 	mov    rcx,QWORD PTR [rip+0x209413]        # 20b030 <Version>
1c1d:	4c 8d 05 7a 62 00 00 	lea    r8,[rip+0x627a]        # 7e9e <_IO_stdin_used+0xb7e>
1c24:	48 8d 15 ec 61 00 00 	lea    rdx,[rip+0x61ec]        # 7e17 <_IO_stdin_used+0xaf7>
1c2b:	48 8d 35 6a 61 00 00 	lea    rsi,[rip+0x616a]        # 7d9c <_IO_stdin_used+0xa7c>
1c32:	45 31 c9             	xor    r9d,r9d
1c35:	31 c0                	xor    eax,eax
1c37:	e8 04 46 00 00       	call   6240 <version_etc>
1c3c:	31 ff                	xor    edi,edi
1c3e:	e8 fd fc ff ff       	call   1940 <exit@plt>
1c43:	0f 1f 44 00 00       	nop    DWORD PTR [rax+rax*1+0x0]
1c48:	c6 05 4c 95 20 00 00 	mov    BYTE PTR [rip+0x20954c],0x0        # 20b19b <print_pairables>
1c4f:	48 8b 3d 6a 94 20 00 	mov    rdi,QWORD PTR [rip+0x20946a]        # 20b0c0 <optarg@@GLIBC_2.2.5>
1c56:	4c 8d 05 fb 60 00 00 	lea    r8,[rip+0x60fb]        # 7d58 <_IO_stdin_used+0xa38>
1c5d:	31 f6                	xor    esi,esi
1c5f:	4c 89 f9             	mov    rcx,r15
1c62:	ba 0a 00 00 00       	mov    edx,0xa
1c67:	e8 24 4b 00 00       	call   6790 <xstrtoul>
1c6c:	85 c0                	test   eax,eax
1c6e:	0f 85 85 0a 00 00    	jne    26f9 <main+0xd49>
1c74:	48 8b 44 24 60       	mov    rax,QWORD PTR [rsp+0x60]
1c79:	48 8d 50 ff          	lea    rdx,[rax-0x1]
1c7d:	48 83 fa 01          	cmp    rdx,0x1
1c81:	0f 87 72 0a 00 00    	ja     26f9 <main+0xd49>
1c87:	48 83 f8 01          	cmp    rax,0x1
1c8b:	0f 84 80 01 00 00    	je     1e11 <main+0x461>
1c91:	c6 05 04 95 20 00 01 	mov    BYTE PTR [rip+0x209504],0x1        # 20b19c <print_unpairables_2>
1c98:	e9 4a ff ff ff       	jmp    1be7 <main+0x237>
1c9d:	0f 1f 00             	nop    DWORD PTR [rax]
1ca0:	48 8b 15 19 94 20 00 	mov    rdx,QWORD PTR [rip+0x209419]        # 20b0c0 <optarg@@GLIBC_2.2.5>
1ca7:	48 8d 3d bf 61 00 00 	lea    rdi,[rip+0x61bf]        # 7e6d <_IO_stdin_used+0xb4d>
1cae:	b9 05 00 00 00       	mov    ecx,0x5
1cb3:	48 89 d6             	mov    rsi,rdx
1cb6:	f3 a6                	repz cmps BYTE PTR ds:[rsi],BYTE PTR es:[rdi]
1cb8:	0f 97 c0             	seta   al
1cbb:	1c 00                	sbb    al,0x0
1cbd:	0f be c0             	movsx  eax,al
1cc0:	85 c0                	test   eax,eax
1cc2:	0f 85 7f 01 00 00    	jne    1e47 <main+0x497>
1cc8:	c6 05 b9 94 20 00 01 	mov    BYTE PTR [rip+0x2094b9],0x1        # 20b188 <autoformat>
1ccf:	e9 0c fe ff ff       	jmp    1ae0 <main+0x130>
1cd4:	0f 1f 40 00          	nop    DWORD PTR [rax+0x0]
1cd8:	4c 8d 74 24 34       	lea    r14,[rsp+0x34]
1cdd:	4c 8d ac 24 80 00 00 	lea    r13,[rsp+0x80]
1ce4:	00
1ce5:	4c 8d 64 24 78       	lea    r12,[rsp+0x78]
1cea:	4c 8b 4c 24 08       	mov    r9,QWORD PTR [rsp+0x8]
1cef:	4c 8b 44 24 10       	mov    r8,QWORD PTR [rsp+0x10]
1cf4:	48 8b 3d c5 93 20 00 	mov    rdi,QWORD PTR [rip+0x2093c5]        # 20b0c0 <optarg@@GLIBC_2.2.5>
1cfb:	4c 89 f1             	mov    rcx,r14
1cfe:	4c 89 ea             	mov    rdx,r13
1d01:	4c 89 e6             	mov    rsi,r12
1d04:	e8 d7 1d 00 00       	call   3ae0 <add_file_name.constprop.7>
1d09:	8b 44 24 2c          	mov    eax,DWORD PTR [rsp+0x2c]
1d0d:	e9 ce fd ff ff       	jmp    1ae0 <main+0x130>
1d12:	66 0f 1f 44 00 00    	nop    WORD PTR [rax+rax*1+0x0]
1d18:	48 8b 3d 71 94 20 00 	mov    rdi,QWORD PTR [rip+0x209471]        # 20b190 <empty_filler>
1d1f:	4c 8b 25 9a 93 20 00 	mov    r12,QWORD PTR [rip+0x20939a]        # 20b0c0 <optarg@@GLIBC_2.2.5>
1d26:	48 85 ff             	test   rdi,rdi
1d29:	74 10                	je     1d3b <main+0x38b>
1d2b:	4c 89 e6             	mov    rsi,r12
1d2e:	e8 dd fa ff ff       	call   1810 <strcmp@plt>
1d33:	85 c0                	test   eax,eax
1d35:	0f 85 f4 09 00 00    	jne    272f <main+0xd7f>
1d3b:	4c 89 25 4e 94 20 00 	mov    QWORD PTR [rip+0x20944e],r12        # 20b190 <empty_filler>
1d42:	31 c0                	xor    eax,eax
1d44:	e9 97 fd ff ff       	jmp    1ae0 <main+0x130>
1d49:	0f 1f 80 00 00 00 00 	nop    DWORD PTR [rax+0x0]
1d50:	83 f8 7a             	cmp    eax,0x7a
1d53:	0f 85 e8 fd ff ff    	jne    1b41 <main+0x191>
1d59:	c6 05 b0 92 20 00 00 	mov    BYTE PTR [rip+0x2092b0],0x0        # 20b010 <eolchar>
1d60:	31 c0                	xor    eax,eax
1d62:	e9 79 fd ff ff       	jmp    1ae0 <main+0x130>
1d67:	66 0f 1f 84 00 00 00 	nop    WORD PTR [rax+rax*1+0x0]
1d6e:	00 00
1d70:	c7 05 d6 93 20 00 01 	mov    DWORD PTR [rip+0x2093d6],0x1        # 20b150 <check_input_order>
1d77:	00 00 00
1d7a:	31 c0                	xor    eax,eax
1d7c:	e9 5f fd ff ff       	jmp    1ae0 <main+0x130>
1d81:	0f 1f 80 00 00 00 00 	nop    DWORD PTR [rax+0x0]
1d88:	4c 8b 25 31 93 20 00 	mov    r12,QWORD PTR [rip+0x209331]        # 20b0c0 <optarg@@GLIBC_2.2.5>
1d8f:	41 0f b6 04 24       	movzx  eax,BYTE PTR [r12]
1d94:	84 c0                	test   al,al
1d96:	0f 85 81 00 00 00    	jne    1e1d <main+0x46d>
1d9c:	b8 0a 00 00 00       	mov    eax,0xa
1da1:	8b 15 6d 92 20 00    	mov    edx,DWORD PTR [rip+0x20926d]        # 20b014 <tab>
1da7:	85 d2                	test   edx,edx
1da9:	78 08                	js     1db3 <main+0x403>
1dab:	39 c2                	cmp    edx,eax
1dad:	0f 85 1d 0b 00 00    	jne    28d0 <main+0xf20>
1db3:	89 05 5b 92 20 00    	mov    DWORD PTR [rip+0x20925b],eax        # 20b014 <tab>
1db9:	31 c0                	xor    eax,eax
1dbb:	e9 20 fd ff ff       	jmp    1ae0 <main+0x130>
1dc0:	48 8b 3d f9 92 20 00 	mov    rdi,QWORD PTR [rip+0x2092f9]        # 20b0c0 <optarg@@GLIBC_2.2.5>
1dc7:	e8 c4 0c 00 00       	call   2a90 <string_to_join_field>
1dcc:	48 8d 3d 4d 92 20 00 	lea    rdi,[rip+0x20924d]        # 20b020 <join_field_1>
1dd3:	48 89 c6             	mov    rsi,rax
1dd6:	e8 65 0c 00 00       	call   2a40 <set_join_field>
1ddb:	8b 44 24 2c          	mov    eax,DWORD PTR [rsp+0x2c]
1ddf:	e9 fc fc ff ff       	jmp    1ae0 <main+0x130>
1de4:	0f 1f 40 00          	nop    DWORD PTR [rax+0x0]
1de8:	c6 05 12 93 20 00 01 	mov    BYTE PTR [rip+0x209312],0x1        # 20b101 <ignore_case>
1def:	31 c0                	xor    eax,eax
1df1:	e9 ea fc ff ff       	jmp    1ae0 <main+0x130>
1df6:	66 2e 0f 1f 84 00 00 	nop    WORD PTR cs:[rax+rax*1+0x0]
1dfd:	00 00 00
1e00:	c7 05 46 93 20 00 02 	mov    DWORD PTR [rip+0x209346],0x2        # 20b150 <check_input_order>
1e07:	00 00 00
1e0a:	31 c0                	xor    eax,eax
1e0c:	e9 cf fc ff ff       	jmp    1ae0 <main+0x130>
1e11:	c6 05 85 93 20 00 01 	mov    BYTE PTR [rip+0x209385],0x1        # 20b19d <print_unpairables_1>
1e18:	e9 ca fd ff ff       	jmp    1be7 <main+0x237>
1e1d:	41 80 7c 24 01 00    	cmp    BYTE PTR [r12+0x1],0x0
1e23:	0f 84 78 ff ff ff    	je     1da1 <main+0x3f1>
1e29:	48 8d 35 42 60 00 00 	lea    rsi,[rip+0x6042]        # 7e72 <_IO_stdin_used+0xb52>
1e30:	4c 89 e7             	mov    rdi,r12
1e33:	e8 d8 f9 ff ff       	call   1810 <strcmp@plt>
1e38:	85 c0                	test   eax,eax
1e3a:	0f 85 ce 09 00 00    	jne    280e <main+0xe5e>
1e40:	31 c0                	xor    eax,eax
1e42:	e9 5a ff ff ff       	jmp    1da1 <main+0x3f1>
1e47:	48 89 d7             	mov    rdi,rdx
1e4a:	e8 e1 0c 00 00       	call   2b30 <add_field_list>
1e4f:	c7 44 24 2c 03 00 00 	mov    DWORD PTR [rsp+0x2c],0x3
1e56:	00
1e57:	b8 03 00 00 00       	mov    eax,0x3
1e5c:	e9 7f fc ff ff       	jmp    1ae0 <main+0x130>
1e61:	48 63 05 50 92 20 00 	movsxd rax,DWORD PTR [rip+0x209250]        # 20b0b8 <optind@@GLIBC_2.2.5>
1e68:	c7 44 24 30 00 00 00 	mov    DWORD PTR [rsp+0x30],0x0
1e6f:	00
1e70:	39 c5                	cmp    ebp,eax
1e72:	7e 52                	jle    1ec6 <main+0x516>
1e74:	48 8d 4c 24 30       	lea    rcx,[rsp+0x30]
1e79:	4c 8d 7c 24 2c       	lea    r15,[rsp+0x2c]
1e7e:	4c 8d 74 24 34       	lea    r14,[rsp+0x34]
1e83:	4c 8d ac 24 80 00 00 	lea    r13,[rsp+0x80]
1e8a:	00
1e8b:	4c 8d 64 24 78       	lea    r12,[rsp+0x78]
1e90:	48 89 4c 24 08       	mov    QWORD PTR [rsp+0x8],rcx
1e95:	0f 1f 00             	nop    DWORD PTR [rax]
1e98:	8d 50 01             	lea    edx,[rax+0x1]
1e9b:	48 8b 3c c3          	mov    rdi,QWORD PTR [rbx+rax*8]
1e9f:	4c 8b 44 24 08       	mov    r8,QWORD PTR [rsp+0x8]
1ea4:	4d 89 f9             	mov    r9,r15
1ea7:	4c 89 f1             	mov    rcx,r14
1eaa:	4c 89 e6             	mov    rsi,r12
1ead:	89 15 05 92 20 00    	mov    DWORD PTR [rip+0x209205],edx        # 20b0b8 <optind@@GLIBC_2.2.5>
1eb3:	4c 89 ea             	mov    rdx,r13
1eb6:	e8 25 1c 00 00       	call   3ae0 <add_file_name.constprop.7>
1ebb:	48 63 05 f6 91 20 00 	movsxd rax,DWORD PTR [rip+0x2091f6]        # 20b0b8 <optind@@GLIBC_2.2.5>
1ec2:	39 e8                	cmp    eax,ebp
1ec4:	7c d2                	jl     1e98 <main+0x4e8>
1ec6:	8b 44 24 34          	mov    eax,DWORD PTR [rsp+0x34]
1eca:	83 f8 02             	cmp    eax,0x2
1ecd:	0f 85 d3 09 00 00    	jne    28a6 <main+0xef6>
1ed3:	83 bc 24 80 00 00 00 	cmp    DWORD PTR [rsp+0x80],0x0
1eda:	00
1edb:	0f 85 65 04 00 00    	jne    2346 <main+0x996>
1ee1:	83 bc 24 84 00 00 00 	cmp    DWORD PTR [rsp+0x84],0x0
1ee8:	00
1ee9:	0f 85 30 04 00 00    	jne    231f <main+0x96f>
1eef:	48 83 3d 29 91 20 00 	cmp    QWORD PTR [rip+0x209129],0xffffffffffffffff        # 20b020 <join_field_1>
1ef6:	ff
1ef7:	0f 84 12 04 00 00    	je     230f <main+0x95f>
1efd:	48 83 3d 13 91 20 00 	cmp    QWORD PTR [rip+0x209113],0xffffffffffffffff        # 20b018 <join_field_2>
1f04:	ff
1f05:	0f 84 f4 03 00 00    	je     22ff <main+0x94f>
1f0b:	48 8b 1d 9e 92 20 00 	mov    rbx,QWORD PTR [rip+0x20929e]        # 20b1b0 <g_names>
1f12:	48 8d 35 91 60 00 00 	lea    rsi,[rip+0x6091]        # 7faa <_IO_stdin_used+0xc8a>
1f19:	48 89 df             	mov    rdi,rbx
1f1c:	e8 ef f8 ff ff       	call   1810 <strcmp@plt>
1f21:	85 c0                	test   eax,eax
1f23:	0f 85 3e 04 00 00    	jne    2367 <main+0x9b7>
1f29:	4c 8b 25 80 91 20 00 	mov    r12,QWORD PTR [rip+0x209180]        # 20b0b0 <stdin@@GLIBC_2.2.5>
1f30:	4d 85 e4             	test   r12,r12
1f33:	0f 84 3a 09 00 00    	je     2873 <main+0xec3>
1f39:	48 8b 1d 78 92 20 00 	mov    rbx,QWORD PTR [rip+0x209278]        # 20b1b8 <g_names+0x8>
1f40:	48 8d 35 63 60 00 00 	lea    rsi,[rip+0x6063]        # 7faa <_IO_stdin_used+0xc8a>
1f47:	48 89 df             	mov    rdi,rbx
1f4a:	e8 c1 f8 ff ff       	call   1810 <strcmp@plt>
1f4f:	85 c0                	test   eax,eax
1f51:	0f 85 6f 06 00 00    	jne    25c6 <main+0xc16>
1f57:	48 8b 1d 52 91 20 00 	mov    rbx,QWORD PTR [rip+0x209152]        # 20b0b0 <stdin@@GLIBC_2.2.5>
1f5e:	48 85 db             	test   rbx,rbx
1f61:	0f 84 d9 08 00 00    	je     2840 <main+0xe90>
1f67:	49 39 dc             	cmp    r12,rbx
1f6a:	0f 84 3a 08 00 00    	je     27aa <main+0xdfa>
1f70:	be 02 00 00 00       	mov    esi,0x2
1f75:	4c 89 e7             	mov    rdi,r12
1f78:	4c 8d 74 24 40       	lea    r14,[rsp+0x40]
1f7d:	e8 fe 1d 00 00       	call   3d80 <fadvise>
1f82:	4c 8d 6c 24 60       	lea    r13,[rsp+0x60]
1f87:	be 02 00 00 00       	mov    esi,0x2
1f8c:	48 89 df             	mov    rdi,rbx
1f8f:	e8 ec 1d 00 00       	call   3d80 <fadvise>
1f94:	ba 01 00 00 00       	mov    edx,0x1
1f99:	4c 89 f6             	mov    rsi,r14
1f9c:	4c 89 e7             	mov    rdi,r12
1f9f:	48 c7 44 24 40 00 00 	mov    QWORD PTR [rsp+0x40],0x0
1fa6:	00 00
1fa8:	48 c7 44 24 48 00 00 	mov    QWORD PTR [rsp+0x48],0x0
1faf:	00 00
1fb1:	48 c7 44 24 50 00 00 	mov    QWORD PTR [rsp+0x50],0x0
1fb8:	00 00
1fba:	e8 21 16 00 00       	call   35e0 <getseq>
1fbf:	ba 02 00 00 00       	mov    edx,0x2
1fc4:	4c 89 ee             	mov    rsi,r13
1fc7:	48 89 df             	mov    rdi,rbx
1fca:	48 c7 44 24 60 00 00 	mov    QWORD PTR [rsp+0x60],0x0
1fd1:	00 00
1fd3:	48 c7 44 24 68 00 00 	mov    QWORD PTR [rsp+0x68],0x0
1fda:	00 00
1fdc:	48 c7 44 24 70 00 00 	mov    QWORD PTR [rsp+0x70],0x0
1fe3:	00 00
1fe5:	e8 f6 15 00 00       	call   35e0 <getseq>
1fea:	80 3d 97 91 20 00 00 	cmp    BYTE PTR [rip+0x209197],0x0        # 20b188 <autoformat>
1ff1:	74 3a                	je     202d <main+0x67d>
1ff3:	48 8b 44 24 40       	mov    rax,QWORD PTR [rsp+0x40]
1ff8:	48 85 c0             	test   rax,rax
1ffb:	74 0c                	je     2009 <main+0x659>
1ffd:	48 8b 44 24 50       	mov    rax,QWORD PTR [rsp+0x50]
2002:	48 8b 00             	mov    rax,QWORD PTR [rax]
2005:	48 8b 40 18          	mov    rax,QWORD PTR [rax+0x18]
2009:	48 89 05 70 91 20 00 	mov    QWORD PTR [rip+0x209170],rax        # 20b180 <autocount_1>
2010:	48 8b 44 24 60       	mov    rax,QWORD PTR [rsp+0x60]
2015:	48 85 c0             	test   rax,rax
2018:	74 0c                	je     2026 <main+0x676>
201a:	48 8b 44 24 70       	mov    rax,QWORD PTR [rsp+0x70]
201f:	48 8b 00             	mov    rax,QWORD PTR [rax]
2022:	48 8b 40 18          	mov    rax,QWORD PTR [rax+0x18]
2026:	48 89 05 4b 91 20 00 	mov    QWORD PTR [rip+0x20914b],rax        # 20b178 <autocount_2>
202d:	80 3d cc 90 20 00 00 	cmp    BYTE PTR [rip+0x2090cc],0x0        # 20b100 <join_header_lines>
2034:	0f 84 2a 02 00 00    	je     2264 <main+0x8b4>
203a:	48 83 7c 24 40 00    	cmp    QWORD PTR [rsp+0x40],0x0
2040:	48 8b 44 24 60       	mov    rax,QWORD PTR [rsp+0x60]
2045:	0f 85 92 05 00 00    	jne    25dd <main+0xc2d>
204b:	48 85 c0             	test   rax,rax
204e:	0f 85 03 06 00 00    	jne    2657 <main+0xca7>
2054:	31 c0                	xor    eax,eax
2056:	83 3d f3 90 20 00 02 	cmp    DWORD PTR [rip+0x2090f3],0x2        # 20b150 <check_input_order>
205d:	48 c7 44 24 38 00 00 	mov    QWORD PTR [rsp+0x38],0x0
2064:	00 00
2066:	74 1a                	je     2082 <main+0x6d2>
2068:	80 3d 29 91 20 00 00 	cmp    BYTE PTR [rip+0x209129],0x0        # 20b198 <issued_disorder_warning>
206f:	0f 84 27 03 00 00    	je     239c <main+0x9ec>
2075:	80 3d 1d 91 20 00 00 	cmp    BYTE PTR [rip+0x20911d],0x0        # 20b199 <issued_disorder_warning+0x1>
207c:	0f 84 1a 03 00 00    	je     239c <main+0x9ec>
2082:	80 3d 14 91 20 00 00 	cmp    BYTE PTR [rip+0x209114],0x0        # 20b19d <print_unpairables_1>
2089:	0f 85 4e 06 00 00    	jne    26dd <main+0xd2d>
208f:	0f b6 05 06 91 20 00 	movzx  eax,BYTE PTR [rip+0x209106]        # 20b19c <print_unpairables_2>
2096:	84 c0                	test   al,al
2098:	0f 85 a9 04 00 00    	jne    2547 <main+0xb97>
209e:	48 8b 7c 24 38       	mov    rdi,QWORD PTR [rsp+0x38]
20a3:	e8 a8 f5 ff ff       	call   1650 <free@plt>
20a8:	49 8d 76 10          	lea    rsi,[r14+0x10]
20ac:	49 8d 7e 08          	lea    rdi,[r14+0x8]
20b0:	e8 3b 0c 00 00       	call   2cf0 <delseq.isra.3>
20b5:	49 8d 75 10          	lea    rsi,[r13+0x10]
20b9:	49 8d 7d 08          	lea    rdi,[r13+0x8]
20bd:	e8 2e 0c 00 00       	call   2cf0 <delseq.isra.3>
20c2:	4c 89 e7             	mov    rdi,r12
20c5:	e8 e6 4a 00 00       	call   6bb0 <rpl_fclose>
20ca:	85 c0                	test   eax,eax
20cc:	0f 85 04 07 00 00    	jne    27d6 <main+0xe26>
20d2:	48 89 df             	mov    rdi,rbx
20d5:	e8 d6 4a 00 00       	call   6bb0 <rpl_fclose>
20da:	85 c0                	test   eax,eax
20dc:	0f 85 95 06 00 00    	jne    2777 <main+0xdc7>
20e2:	80 3d af 90 20 00 00 	cmp    BYTE PTR [rip+0x2090af],0x0        # 20b198 <issued_disorder_warning>
20e9:	0f 85 64 06 00 00    	jne    2753 <main+0xda3>
20ef:	80 3d a3 90 20 00 00 	cmp    BYTE PTR [rip+0x2090a3],0x0        # 20b199 <issued_disorder_warning+0x1>
20f6:	0f 85 57 06 00 00    	jne    2753 <main+0xda3>
20fc:	31 c0                	xor    eax,eax
20fe:	48 8b 9c 24 88 00 00 	mov    rbx,QWORD PTR [rsp+0x88]
2105:	00
2106:	64 48 33 1c 25 28 00 	xor    rbx,QWORD PTR fs:0x28
210d:	00 00
210f:	0f 85 f4 06 00 00    	jne    2809 <main+0xe59>
2115:	48 81 c4 98 00 00 00 	add    rsp,0x98
211c:	5b                   	pop    rbx
211d:	5d                   	pop    rbp
211e:	41 5c                	pop    r12
2120:	41 5d                	pop    r13
2122:	41 5e                	pop    r14
2124:	41 5f                	pop    r15
2126:	c3                   	ret
2127:	66 0f 1f 84 00 00 00 	nop    WORD PTR [rax+rax*1+0x0]
212e:	00 00
2130:	48 8b 44 24 70       	mov    rax,QWORD PTR [rsp+0x70]
2135:	48 8b 4c 24 40       	mov    rcx,QWORD PTR [rsp+0x40]
213a:	4c 8b 0d d7 8e 20 00 	mov    r9,QWORD PTR [rip+0x208ed7]        # 20b018 <join_field_2>
2141:	4c 8b 05 d8 8e 20 00 	mov    r8,QWORD PTR [rip+0x208ed8]        # 20b020 <join_field_1>
2148:	48 8b 10             	mov    rdx,QWORD PTR [rax]
214b:	48 8b 44 24 50       	mov    rax,QWORD PTR [rsp+0x50]
2150:	48 8b 44 c8 f8       	mov    rax,QWORD PTR [rax+rcx*8-0x8]
2155:	48 8d 4a 28          	lea    rcx,[rdx+0x28]
2159:	48 8b 52 18          	mov    rdx,QWORD PTR [rdx+0x18]
215d:	48 8b 78 18          	mov    rdi,QWORD PTR [rax+0x18]
2161:	48 8d 70 28          	lea    rsi,[rax+0x28]
2165:	e8 d6 0b 00 00       	call   2d40 <keycmp.isra.4>
216a:	85 c0                	test   eax,eax
216c:	0f 85 2d 03 00 00    	jne    249f <main+0xaef>
2172:	ba 01 00 00 00       	mov    edx,0x1
2177:	4c 89 f6             	mov    rsi,r14
217a:	4c 89 e7             	mov    rdi,r12
217d:	e8 5e 14 00 00       	call   35e0 <getseq>
2182:	84 c0                	test   al,al
2184:	75 aa                	jne    2130 <main+0x780>
2186:	48 83 44 24 40 01    	add    QWORD PTR [rsp+0x40],0x1
218c:	c6 44 24 10 01       	mov    BYTE PTR [rsp+0x10],0x1
2191:	eb 47                	jmp    21da <main+0x82a>
2193:	0f 1f 44 00 00       	nop    DWORD PTR [rax+rax*1+0x0]
2198:	48 8b 44 24 70       	mov    rax,QWORD PTR [rsp+0x70]
219d:	48 8b 54 24 60       	mov    rdx,QWORD PTR [rsp+0x60]
21a2:	4c 8b 0d 6f 8e 20 00 	mov    r9,QWORD PTR [rip+0x208e6f]        # 20b018 <join_field_2>
21a9:	4c 8b 05 70 8e 20 00 	mov    r8,QWORD PTR [rip+0x208e70]        # 20b020 <join_field_1>
21b0:	48 8b 54 d0 f8       	mov    rdx,QWORD PTR [rax+rdx*8-0x8]
21b5:	48 8b 44 24 50       	mov    rax,QWORD PTR [rsp+0x50]
21ba:	48 8b 00             	mov    rax,QWORD PTR [rax]
21bd:	48 8d 4a 28          	lea    rcx,[rdx+0x28]
21c1:	48 8b 52 18          	mov    rdx,QWORD PTR [rdx+0x18]
21c5:	48 8b 78 18          	mov    rdi,QWORD PTR [rax+0x18]
21c9:	48 8d 70 28          	lea    rsi,[rax+0x28]
21cd:	e8 6e 0b 00 00       	call   2d40 <keycmp.isra.4>
21d2:	85 c0                	test   eax,eax
21d4:	0f 85 bb 02 00 00    	jne    2495 <main+0xae5>
21da:	ba 02 00 00 00       	mov    edx,0x2
21df:	4c 89 ee             	mov    rsi,r13
21e2:	48 89 df             	mov    rdi,rbx
21e5:	e8 f6 13 00 00       	call   35e0 <getseq>
21ea:	84 c0                	test   al,al
21ec:	75 aa                	jne    2198 <main+0x7e8>
21ee:	48 83 44 24 60 01    	add    QWORD PTR [rsp+0x60],0x1
21f4:	c6 44 24 1f 01       	mov    BYTE PTR [rsp+0x1f],0x1
21f9:	80 3d 9b 8f 20 00 00 	cmp    BYTE PTR [rip+0x208f9b],0x0        # 20b19b <print_pairables>
2200:	0f 85 a3 02 00 00    	jne    24a9 <main+0xaf9>
2206:	80 7c 24 10 00       	cmp    BYTE PTR [rsp+0x10],0x0
220b:	0f 85 68 02 00 00    	jne    2479 <main+0xac9>
2211:	48 8b 44 24 50       	mov    rax,QWORD PTR [rsp+0x50]
2216:	48 8b 54 24 40       	mov    rdx,QWORD PTR [rsp+0x40]
221b:	48 8d 54 d0 f8       	lea    rdx,[rax+rdx*8-0x8]
2220:	48 8b 08             	mov    rcx,QWORD PTR [rax]
2223:	48 8b 32             	mov    rsi,QWORD PTR [rdx]
2226:	48 89 30             	mov    QWORD PTR [rax],rsi
2229:	48 89 0a             	mov    QWORD PTR [rdx],rcx
222c:	48 c7 44 24 40 01 00 	mov    QWORD PTR [rsp+0x40],0x1
2233:	00 00
2235:	80 7c 24 1f 00       	cmp    BYTE PTR [rsp+0x1f],0x0
223a:	0f 85 47 02 00 00    	jne    2487 <main+0xad7>
2240:	48 8b 44 24 70       	mov    rax,QWORD PTR [rsp+0x70]
2245:	48 8b 54 24 60       	mov    rdx,QWORD PTR [rsp+0x60]
224a:	48 8d 54 d0 f8       	lea    rdx,[rax+rdx*8-0x8]
224f:	48 8b 08             	mov    rcx,QWORD PTR [rax]
2252:	48 8b 32             	mov    rsi,QWORD PTR [rdx]
2255:	48 89 30             	mov    QWORD PTR [rax],rsi
2258:	48 89 0a             	mov    QWORD PTR [rdx],rcx
225b:	48 c7 44 24 60 01 00 	mov    QWORD PTR [rsp+0x60],0x1
2262:	00 00
2264:	48 8b 44 24 40       	mov    rax,QWORD PTR [rsp+0x40]
2269:	48 85 c0             	test   rax,rax
226c:	0f 84 e2 fd ff ff    	je     2054 <main+0x6a4>
2272:	48 83 7c 24 60 00    	cmp    QWORD PTR [rsp+0x60],0x0
2278:	0f 84 d8 fd ff ff    	je     2056 <main+0x6a6>
227e:	48 8b 44 24 70       	mov    rax,QWORD PTR [rsp+0x70]
2283:	4c 8b 0d 8e 8d 20 00 	mov    r9,QWORD PTR [rip+0x208d8e]        # 20b018 <join_field_2>
228a:	4c 8b 05 8f 8d 20 00 	mov    r8,QWORD PTR [rip+0x208d8f]        # 20b020 <join_field_1>
2291:	48 8b 10             	mov    rdx,QWORD PTR [rax]
2294:	48 8b 44 24 50       	mov    rax,QWORD PTR [rsp+0x50]
2299:	48 8b 00             	mov    rax,QWORD PTR [rax]
229c:	48 8d 4a 28          	lea    rcx,[rdx+0x28]
22a0:	48 8b 52 18          	mov    rdx,QWORD PTR [rdx+0x18]
22a4:	48 8b 78 18          	mov    rdi,QWORD PTR [rax+0x18]
22a8:	48 8d 70 28          	lea    rsi,[rax+0x28]
22ac:	e8 8f 0a 00 00       	call   2d40 <keycmp.isra.4>
22b1:	85 c0                	test   eax,eax
22b3:	0f 88 75 01 00 00    	js     242e <main+0xa7e>
22b9:	0f 84 b3 fe ff ff    	je     2172 <main+0x7c2>
22bf:	80 3d d6 8e 20 00 00 	cmp    BYTE PTR [rip+0x208ed6],0x0        # 20b19c <print_unpairables_2>
22c6:	0f 85 94 01 00 00    	jne    2460 <main+0xab0>
22cc:	ba 02 00 00 00       	mov    edx,0x2
22d1:	4c 89 ee             	mov    rsi,r13
22d4:	48 89 df             	mov    rdi,rbx
22d7:	48 c7 44 24 60 00 00 	mov    QWORD PTR [rsp+0x60],0x0
22de:	00 00
22e0:	e8 fb 12 00 00       	call   35e0 <getseq>
22e5:	48 8b 44 24 40       	mov    rax,QWORD PTR [rsp+0x40]
22ea:	c6 05 a9 8e 20 00 01 	mov    BYTE PTR [rip+0x208ea9],0x1        # 20b19a <seen_unpairable>
22f1:	48 85 c0             	test   rax,rax
22f4:	0f 85 78 ff ff ff    	jne    2272 <main+0x8c2>
22fa:	e9 55 fd ff ff       	jmp    2054 <main+0x6a4>
22ff:	48 c7 05 0e 8d 20 00 	mov    QWORD PTR [rip+0x208d0e],0x0        # 20b018 <join_field_2>
2306:	00 00 00 00
230a:	e9 fc fb ff ff       	jmp    1f0b <main+0x55b>
230f:	48 c7 05 06 8d 20 00 	mov    QWORD PTR [rip+0x208d06],0x0        # 20b020 <join_field_1>
2316:	00 00 00 00
231a:	e9 de fb ff ff       	jmp    1efd <main+0x54d>
231f:	48 8d 3d fa 8c 20 00 	lea    rdi,[rip+0x208cfa]        # 20b020 <join_field_1>
2326:	be 01 00 00 00       	mov    esi,0x1
232b:	e8 10 07 00 00       	call   2a40 <set_join_field>
2330:	48 8d 3d e1 8c 20 00 	lea    rdi,[rip+0x208ce1]        # 20b018 <join_field_2>
2337:	be 01 00 00 00       	mov    esi,0x1
233c:	e8 ff 06 00 00       	call   2a40 <set_join_field>
2341:	e9 a9 fb ff ff       	jmp    1eef <main+0x53f>
2346:	48 8d 3d d3 8c 20 00 	lea    rdi,[rip+0x208cd3]        # 20b020 <join_field_1>
234d:	31 f6                	xor    esi,esi
234f:	e8 ec 06 00 00       	call   2a40 <set_join_field>
2354:	48 8d 3d bd 8c 20 00 	lea    rdi,[rip+0x208cbd]        # 20b018 <join_field_2>
235b:	31 f6                	xor    esi,esi
235d:	e8 de 06 00 00       	call   2a40 <set_join_field>
2362:	e9 7a fb ff ff       	jmp    1ee1 <main+0x531>
2367:	48 8d 35 c6 5b 00 00 	lea    rsi,[rip+0x5bc6]        # 7f34 <_IO_stdin_used+0xc14>
236e:	48 89 df             	mov    rdi,rbx
2371:	e8 3a 1a 00 00       	call   3db0 <fopen_safer>
2376:	49 89 c4             	mov    r12,rax
2379:	e9 b2 fb ff ff       	jmp    1f30 <main+0x580>
237e:	31 d2                	xor    edx,edx
2380:	3c 32                	cmp    al,0x32
2382:	0f 94 c2             	sete   dl
2385:	48 89 d0             	mov    rax,rdx
2388:	83 84 94 80 00 00 00 	add    DWORD PTR [rsp+rdx*4+0x80],0x1
238f:	01
2390:	83 c0 01             	add    eax,0x1
2393:	89 44 24 2c          	mov    DWORD PTR [rsp+0x2c],eax
2397:	e9 44 f7 ff ff       	jmp    1ae0 <main+0x130>
239c:	48 85 c0             	test   rax,rax
239f:	0f 84 9b 01 00 00    	je     2540 <main+0xb90>
23a5:	44 0f b6 3d f0 8d 20 	movzx  r15d,BYTE PTR [rip+0x208df0]        # 20b19d <print_unpairables_1>
23ac:	00
23ad:	45 84 ff             	test   r15b,r15b
23b0:	0f 85 d7 02 00 00    	jne    268d <main+0xcdd>
23b6:	41 bf 01 00 00 00    	mov    r15d,0x1
23bc:	48 83 7c 24 60 00    	cmp    QWORD PTR [rsp+0x60],0x0
23c2:	74 07                	je     23cb <main+0xa1b>
23c4:	c6 05 cf 8d 20 00 01 	mov    BYTE PTR [rip+0x208dcf],0x1        # 20b19a <seen_unpairable>
23cb:	48 8d 6c 24 38       	lea    rbp,[rsp+0x38]
23d0:	ba 01 00 00 00       	mov    edx,0x1
23d5:	48 89 ee             	mov    rsi,rbp
23d8:	4c 89 e7             	mov    rdi,r12
23db:	e8 10 0e 00 00       	call   31f0 <get_line>
23e0:	84 c0                	test   al,al
23e2:	74 16                	je     23fa <main+0xa4a>
23e4:	80 3d b2 8d 20 00 00 	cmp    BYTE PTR [rip+0x208db2],0x0        # 20b19d <print_unpairables_1>
23eb:	0f 85 b5 02 00 00    	jne    26a6 <main+0xcf6>
23f1:	80 3d a0 8d 20 00 00 	cmp    BYTE PTR [rip+0x208da0],0x0        # 20b198 <issued_disorder_warning>
23f8:	74 d6                	je     23d0 <main+0xa20>
23fa:	0f b6 05 9b 8d 20 00 	movzx  eax,BYTE PTR [rip+0x208d9b]        # 20b19c <print_unpairables_2>
2401:	84 c0                	test   al,al
2403:	75 05                	jne    240a <main+0xa5a>
2405:	45 84 ff             	test   r15b,r15b
2408:	74 0c                	je     2416 <main+0xa66>
240a:	48 83 7c 24 60 00    	cmp    QWORD PTR [rsp+0x60],0x0
2410:	0f 85 3d 01 00 00    	jne    2553 <main+0xba3>
2416:	48 8b 7c 24 38       	mov    rdi,QWORD PTR [rsp+0x38]
241b:	48 85 ff             	test   rdi,rdi
241e:	0f 84 7f fc ff ff    	je     20a3 <main+0x6f3>
2424:	e8 47 08 00 00       	call   2c70 <freeline.part.2>
2429:	e9 70 fc ff ff       	jmp    209e <main+0x6ee>
242e:	80 3d 68 8d 20 00 00 	cmp    BYTE PTR [rip+0x208d68],0x0        # 20b19d <print_unpairables_1>
2435:	0f 85 ec 00 00 00    	jne    2527 <main+0xb77>
243b:	ba 01 00 00 00       	mov    edx,0x1
2440:	4c 89 f6             	mov    rsi,r14
2443:	4c 89 e7             	mov    rdi,r12
2446:	48 c7 44 24 40 00 00 	mov    QWORD PTR [rsp+0x40],0x0
244d:	00 00
244f:	e8 8c 11 00 00       	call   35e0 <getseq>
2454:	c6 05 3f 8d 20 00 01 	mov    BYTE PTR [rip+0x208d3f],0x1        # 20b19a <seen_unpairable>
245b:	e9 04 fe ff ff       	jmp    2264 <main+0x8b4>
2460:	48 8b 44 24 70       	mov    rax,QWORD PTR [rsp+0x70]
2465:	48 8d 3d b4 8c 20 00 	lea    rdi,[rip+0x208cb4]        # 20b120 <uni_blank>
246c:	48 8b 30             	mov    rsi,QWORD PTR [rax]
246f:	e8 5c 0b 00 00       	call   2fd0 <prjoin>
2474:	e9 53 fe ff ff       	jmp    22cc <main+0x91c>
2479:	48 c7 44 24 40 00 00 	mov    QWORD PTR [rsp+0x40],0x0
2480:	00 00
2482:	e9 ae fd ff ff       	jmp    2235 <main+0x885>
2487:	48 c7 44 24 60 00 00 	mov    QWORD PTR [rsp+0x60],0x0
248e:	00 00
2490:	e9 cf fd ff ff       	jmp    2264 <main+0x8b4>
2495:	c6 44 24 1f 00       	mov    BYTE PTR [rsp+0x1f],0x0
249a:	e9 5a fd ff ff       	jmp    21f9 <main+0x849>
249f:	c6 44 24 10 00       	mov    BYTE PTR [rsp+0x10],0x0
24a4:	e9 31 fd ff ff       	jmp    21da <main+0x82a>
24a9:	48 83 7c 24 40 01    	cmp    QWORD PTR [rsp+0x40],0x1
24af:	48 c7 44 24 08 00 00 	mov    QWORD PTR [rsp+0x8],0x0
24b6:	00 00
24b8:	0f 84 48 fd ff ff    	je     2206 <main+0x856>
24be:	66 90                	xchg   ax,ax
24c0:	45 31 ff             	xor    r15d,r15d
24c3:	48 83 7c 24 60 01    	cmp    QWORD PTR [rsp+0x60],0x1
24c9:	48 8b 44 24 08       	mov    rax,QWORD PTR [rsp+0x8]
24ce:	48 8d 2c c5 00 00 00 	lea    rbp,[rax*8+0x0]
24d5:	00
24d6:	74 31                	je     2509 <main+0xb59>
24d8:	0f 1f 84 00 00 00 00 	nop    DWORD PTR [rax+rax*1+0x0]
24df:	00
24e0:	48 8b 54 24 70       	mov    rdx,QWORD PTR [rsp+0x70]
24e5:	4a 8b 34 fa          	mov    rsi,QWORD PTR [rdx+r15*8]
24e9:	48 8b 54 24 50       	mov    rdx,QWORD PTR [rsp+0x50]
24ee:	49 83 c7 01          	add    r15,0x1
24f2:	48 8b 3c 2a          	mov    rdi,QWORD PTR [rdx+rbp*1]
24f6:	e8 d5 0a 00 00       	call   2fd0 <prjoin>
24fb:	48 8b 44 24 60       	mov    rax,QWORD PTR [rsp+0x60]
2500:	48 8d 50 ff          	lea    rdx,[rax-0x1]
2504:	49 39 d7             	cmp    r15,rdx
2507:	72 d7                	jb     24e0 <main+0xb30>
2509:	48 83 44 24 08 01    	add    QWORD PTR [rsp+0x8],0x1
250f:	48 8b 44 24 40       	mov    rax,QWORD PTR [rsp+0x40]
2514:	48 8b 4c 24 08       	mov    rcx,QWORD PTR [rsp+0x8]
2519:	48 83 e8 01          	sub    rax,0x1
251d:	48 39 c1             	cmp    rcx,rax
2520:	72 9e                	jb     24c0 <main+0xb10>
2522:	e9 df fc ff ff       	jmp    2206 <main+0x856>
2527:	48 8b 44 24 50       	mov    rax,QWORD PTR [rsp+0x50]
252c:	48 8d 35 ed 8b 20 00 	lea    rsi,[rip+0x208bed]        # 20b120 <uni_blank>
2533:	48 8b 38             	mov    rdi,QWORD PTR [rax]
2536:	e8 95 0a 00 00       	call   2fd0 <prjoin>
253b:	e9 fb fe ff ff       	jmp    243b <main+0xa8b>
2540:	0f b6 05 55 8c 20 00 	movzx  eax,BYTE PTR [rip+0x208c55]        # 20b19c <print_unpairables_2>
2547:	48 83 7c 24 60 00    	cmp    QWORD PTR [rsp+0x60],0x0
254d:	0f 84 4b fb ff ff    	je     209e <main+0x6ee>
2553:	84 c0                	test   al,al
2555:	0f 85 19 01 00 00    	jne    2674 <main+0xcc4>
255b:	48 83 7c 24 40 00    	cmp    QWORD PTR [rsp+0x40],0x0
2561:	0f 85 01 01 00 00    	jne    2668 <main+0xcb8>
2567:	48 8d 6c 24 38       	lea    rbp,[rsp+0x38]
256c:	4c 8d 3d ad 8b 20 00 	lea    r15,[rip+0x208bad]        # 20b120 <uni_blank>
2573:	ba 02 00 00 00       	mov    edx,0x2
2578:	48 89 ee             	mov    rsi,rbp
257b:	48 89 df             	mov    rdi,rbx
257e:	e8 6d 0c 00 00       	call   31f0 <get_line>
2583:	84 c0                	test   al,al
2585:	0f 84 8b fe ff ff    	je     2416 <main+0xa66>
258b:	80 3d 0a 8c 20 00 00 	cmp    BYTE PTR [rip+0x208c0a],0x0        # 20b19c <print_unpairables_2>
2592:	75 0e                	jne    25a2 <main+0xbf2>
2594:	80 3d fe 8b 20 00 00 	cmp    BYTE PTR [rip+0x208bfe],0x0        # 20b199 <issued_disorder_warning+0x1>
259b:	74 d6                	je     2573 <main+0xbc3>
259d:	e9 74 fe ff ff       	jmp    2416 <main+0xa66>
25a2:	48 8b 74 24 38       	mov    rsi,QWORD PTR [rsp+0x38]
25a7:	4c 89 ff             	mov    rdi,r15
25aa:	e8 21 0a 00 00       	call   2fd0 <prjoin>
25af:	80 3d e3 8b 20 00 00 	cmp    BYTE PTR [rip+0x208be3],0x0        # 20b199 <issued_disorder_warning+0x1>
25b6:	74 bb                	je     2573 <main+0xbc3>
25b8:	80 3d dd 8b 20 00 00 	cmp    BYTE PTR [rip+0x208bdd],0x0        # 20b19c <print_unpairables_2>
25bf:	75 b2                	jne    2573 <main+0xbc3>
25c1:	e9 50 fe ff ff       	jmp    2416 <main+0xa66>
25c6:	48 8d 35 67 59 00 00 	lea    rsi,[rip+0x5967]        # 7f34 <_IO_stdin_used+0xc14>
25cd:	48 89 df             	mov    rdi,rbx
25d0:	e8 db 17 00 00       	call   3db0 <fopen_safer>
25d5:	48 89 c3             	mov    rbx,rax
25d8:	e9 81 f9 ff ff       	jmp    1f5e <main+0x5ae>
25dd:	48 8b 54 24 50       	mov    rdx,QWORD PTR [rsp+0x50]
25e2:	48 85 c0             	test   rax,rax
25e5:	48 8d 35 34 8b 20 00 	lea    rsi,[rip+0x208b34]        # 20b120 <uni_blank>
25ec:	48 8b 3a             	mov    rdi,QWORD PTR [rdx]
25ef:	75 6d                	jne    265e <main+0xcae>
25f1:	e8 da 09 00 00       	call   2fd0 <prjoin>
25f6:	48 83 7c 24 40 00    	cmp    QWORD PTR [rsp+0x40],0x0
25fc:	48 c7 05 c9 8b 20 00 	mov    QWORD PTR [rip+0x208bc9],0x0        # 20b1d0 <prevline>
2603:	00 00 00 00
2607:	48 c7 05 c6 8b 20 00 	mov    QWORD PTR [rip+0x208bc6],0x0        # 20b1d8 <prevline+0x8>
260e:	00 00 00 00
2612:	74 19                	je     262d <main+0xc7d>
2614:	ba 01 00 00 00       	mov    edx,0x1
2619:	4c 89 f6             	mov    rsi,r14
261c:	4c 89 e7             	mov    rdi,r12
261f:	48 c7 44 24 40 00 00 	mov    QWORD PTR [rsp+0x40],0x0
2626:	00 00
2628:	e8 b3 0f 00 00       	call   35e0 <getseq>
262d:	48 83 7c 24 60 00    	cmp    QWORD PTR [rsp+0x60],0x0
2633:	0f 84 2b fc ff ff    	je     2264 <main+0x8b4>
2639:	ba 02 00 00 00       	mov    edx,0x2
263e:	4c 89 ee             	mov    rsi,r13
2641:	48 89 df             	mov    rdi,rbx
2644:	48 c7 44 24 60 00 00 	mov    QWORD PTR [rsp+0x60],0x0
264b:	00 00
264d:	e8 8e 0f 00 00       	call   35e0 <getseq>
2652:	e9 0d fc ff ff       	jmp    2264 <main+0x8b4>
2657:	48 8d 3d c2 8a 20 00 	lea    rdi,[rip+0x208ac2]        # 20b120 <uni_blank>
265e:	48 8b 44 24 70       	mov    rax,QWORD PTR [rsp+0x70]
2663:	48 8b 30             	mov    rsi,QWORD PTR [rax]
2666:	eb 89                	jmp    25f1 <main+0xc41>
2668:	c6 05 2b 8b 20 00 01 	mov    BYTE PTR [rip+0x208b2b],0x1        # 20b19a <seen_unpairable>
266f:	e9 f3 fe ff ff       	jmp    2567 <main+0xbb7>
2674:	48 8b 44 24 70       	mov    rax,QWORD PTR [rsp+0x70]
2679:	48 8d 3d a0 8a 20 00 	lea    rdi,[rip+0x208aa0]        # 20b120 <uni_blank>
2680:	48 8b 30             	mov    rsi,QWORD PTR [rax]
2683:	e8 48 09 00 00       	call   2fd0 <prjoin>
2688:	e9 ce fe ff ff       	jmp    255b <main+0xbab>
268d:	48 8b 44 24 50       	mov    rax,QWORD PTR [rsp+0x50]
2692:	48 8d 35 87 8a 20 00 	lea    rsi,[rip+0x208a87]        # 20b120 <uni_blank>
2699:	48 8b 38             	mov    rdi,QWORD PTR [rax]
269c:	e8 2f 09 00 00       	call   2fd0 <prjoin>
26a1:	e9 16 fd ff ff       	jmp    23bc <main+0xa0c>
26a6:	48 8b 7c 24 38       	mov    rdi,QWORD PTR [rsp+0x38]
26ab:	48 8d 35 6e 8a 20 00 	lea    rsi,[rip+0x208a6e]        # 20b120 <uni_blank>
26b2:	e8 19 09 00 00       	call   2fd0 <prjoin>
26b7:	80 3d da 8a 20 00 00 	cmp    BYTE PTR [rip+0x208ada],0x0        # 20b198 <issued_disorder_warning>
26be:	0f 84 0c fd ff ff    	je     23d0 <main+0xa20>
26c4:	80 3d d2 8a 20 00 00 	cmp    BYTE PTR [rip+0x208ad2],0x0        # 20b19d <print_unpairables_1>
26cb:	0f 85 ff fc ff ff    	jne    23d0 <main+0xa20>
26d1:	e9 24 fd ff ff       	jmp    23fa <main+0xa4a>
26d6:	31 ff                	xor    edi,edi
26d8:	e8 e3 0f 00 00       	call   36c0 <usage>
26dd:	45 31 ff             	xor    r15d,r15d
26e0:	48 85 c0             	test   rax,rax
26e3:	75 a8                	jne    268d <main+0xcdd>
26e5:	0f b6 05 b0 8a 20 00 	movzx  eax,BYTE PTR [rip+0x208ab0]        # 20b19c <print_unpairables_2>
26ec:	84 c0                	test   al,al
26ee:	0f 84 aa f9 ff ff    	je     209e <main+0x6ee>
26f4:	e9 11 fd ff ff       	jmp    240a <main+0xa5a>
26f9:	48 8b 3d c0 89 20 00 	mov    rdi,QWORD PTR [rip+0x2089c0]        # 20b0c0 <optarg@@GLIBC_2.2.5>
2700:	e8 4b 36 00 00       	call   5d50 <quote>
2705:	48 8d 35 30 56 00 00 	lea    rsi,[rip+0x5630]        # 7d3c <_IO_stdin_used+0xa1c>
270c:	48 89 c3             	mov    rbx,rax
270f:	ba 05 00 00 00       	mov    edx,0x5
2714:	31 ff                	xor    edi,edi
2716:	e8 d5 ef ff ff       	call   16f0 <dcgettext@plt>
271b:	48 89 d9             	mov    rcx,rbx
271e:	48 89 c2             	mov    rdx,rax
2721:	31 f6                	xor    esi,esi
2723:	bf 01 00 00 00       	mov    edi,0x1
2728:	31 c0                	xor    eax,eax
272a:	e8 c1 f1 ff ff       	call   18f0 <error@plt>
272f:	48 8d 35 b2 55 00 00 	lea    rsi,[rip+0x55b2]        # 7ce8 <_IO_stdin_used+0x9c8>
2736:	ba 05 00 00 00       	mov    edx,0x5
273b:	31 ff                	xor    edi,edi
273d:	e8 ae ef ff ff       	call   16f0 <dcgettext@plt>
2742:	31 f6                	xor    esi,esi
2744:	48 89 c2             	mov    rdx,rax
2747:	bf 01 00 00 00       	mov    edi,0x1
274c:	31 c0                	xor    eax,eax
274e:	e8 9d f1 ff ff       	call   18f0 <error@plt>
2753:	48 8d 35 8e 57 00 00 	lea    rsi,[rip+0x578e]        # 7ee8 <_IO_stdin_used+0xbc8>
275a:	ba 05 00 00 00       	mov    edx,0x5
275f:	31 ff                	xor    edi,edi
2761:	e8 8a ef ff ff       	call   16f0 <dcgettext@plt>
2766:	31 f6                	xor    esi,esi
2768:	48 89 c2             	mov    rdx,rax
276b:	bf 01 00 00 00       	mov    edi,0x1
2770:	31 c0                	xor    eax,eax
2772:	e8 79 f1 ff ff       	call   18f0 <error@plt>
2777:	48 8b 15 3a 8a 20 00 	mov    rdx,QWORD PTR [rip+0x208a3a]        # 20b1b8 <g_names+0x8>
277e:	be 03 00 00 00       	mov    esi,0x3
2783:	31 ff                	xor    edi,edi
2785:	e8 f6 33 00 00       	call   5b80 <quotearg_n_style_colon>
278a:	48 89 c3             	mov    rbx,rax
278d:	e8 de ee ff ff       	call   1670 <__errno_location@plt>
2792:	8b 30                	mov    esi,DWORD PTR [rax]
2794:	48 8d 15 b7 55 00 00 	lea    rdx,[rip+0x55b7]        # 7d52 <_IO_stdin_used+0xa32>
279b:	48 89 d9             	mov    rcx,rbx
279e:	bf 01 00 00 00       	mov    edi,0x1
27a3:	31 c0                	xor    eax,eax
27a5:	e8 46 f1 ff ff       	call   18f0 <error@plt>
27aa:	48 8d 35 67 55 00 00 	lea    rsi,[rip+0x5567]        # 7d18 <_IO_stdin_used+0x9f8>
27b1:	ba 05 00 00 00       	mov    edx,0x5
27b6:	31 ff                	xor    edi,edi
27b8:	e8 33 ef ff ff       	call   16f0 <dcgettext@plt>
27bd:	48 89 c3             	mov    rbx,rax
27c0:	e8 ab ee ff ff       	call   1670 <__errno_location@plt>
27c5:	8b 30                	mov    esi,DWORD PTR [rax]
27c7:	48 89 da             	mov    rdx,rbx
27ca:	bf 01 00 00 00       	mov    edi,0x1
27cf:	31 c0                	xor    eax,eax
27d1:	e8 1a f1 ff ff       	call   18f0 <error@plt>
27d6:	48 8b 15 d3 89 20 00 	mov    rdx,QWORD PTR [rip+0x2089d3]        # 20b1b0 <g_names>
27dd:	be 03 00 00 00       	mov    esi,0x3
27e2:	31 ff                	xor    edi,edi
27e4:	e8 97 33 00 00       	call   5b80 <quotearg_n_style_colon>
27e9:	48 89 c3             	mov    rbx,rax
27ec:	e8 7f ee ff ff       	call   1670 <__errno_location@plt>
27f1:	8b 30                	mov    esi,DWORD PTR [rax]
27f3:	48 8d 15 58 55 00 00 	lea    rdx,[rip+0x5558]        # 7d52 <_IO_stdin_used+0xa32>
27fa:	48 89 d9             	mov    rcx,rbx
27fd:	bf 01 00 00 00       	mov    edi,0x1
2802:	31 c0                	xor    eax,eax
2804:	e8 e7 f0 ff ff       	call   18f0 <error@plt>
2809:	e8 12 ef ff ff       	call   1720 <__stack_chk_fail@plt>
280e:	4c 89 e7             	mov    rdi,r12
2811:	e8 3a 35 00 00       	call   5d50 <quote>
2816:	48 8d 35 58 56 00 00 	lea    rsi,[rip+0x5658]        # 7e75 <_IO_stdin_used+0xb55>
281d:	48 89 c3             	mov    rbx,rax
2820:	ba 05 00 00 00       	mov    edx,0x5
2825:	31 ff                	xor    edi,edi
2827:	e8 c4 ee ff ff       	call   16f0 <dcgettext@plt>
282c:	48 89 d9             	mov    rcx,rbx
282f:	48 89 c2             	mov    rdx,rax
2832:	31 f6                	xor    esi,esi
2834:	bf 01 00 00 00       	mov    edi,0x1
2839:	31 c0                	xor    eax,eax
283b:	e8 b0 f0 ff ff       	call   18f0 <error@plt>
2840:	48 8b 15 71 89 20 00 	mov    rdx,QWORD PTR [rip+0x208971]        # 20b1b8 <g_names+0x8>
2847:	be 03 00 00 00       	mov    esi,0x3
284c:	31 ff                	xor    edi,edi
284e:	e8 2d 33 00 00       	call   5b80 <quotearg_n_style_colon>
2853:	48 89 c3             	mov    rbx,rax
2856:	e8 15 ee ff ff       	call   1670 <__errno_location@plt>
285b:	8b 30                	mov    esi,DWORD PTR [rax]
285d:	48 8d 15 ee 54 00 00 	lea    rdx,[rip+0x54ee]        # 7d52 <_IO_stdin_used+0xa32>
2864:	48 89 d9             	mov    rcx,rbx
2867:	bf 01 00 00 00       	mov    edi,0x1
286c:	31 c0                	xor    eax,eax
286e:	e8 7d f0 ff ff       	call   18f0 <error@plt>
2873:	48 8b 15 36 89 20 00 	mov    rdx,QWORD PTR [rip+0x208936]        # 20b1b0 <g_names>
287a:	be 03 00 00 00       	mov    esi,0x3
287f:	31 ff                	xor    edi,edi
2881:	e8 fa 32 00 00       	call   5b80 <quotearg_n_style_colon>
2886:	48 89 c3             	mov    rbx,rax
2889:	e8 e2 ed ff ff       	call   1670 <__errno_location@plt>
288e:	8b 30                	mov    esi,DWORD PTR [rax]
2890:	48 8d 15 bb 54 00 00 	lea    rdx,[rip+0x54bb]        # 7d52 <_IO_stdin_used+0xa32>
2897:	48 89 d9             	mov    rcx,rbx
289a:	bf 01 00 00 00       	mov    edi,0x1
289f:	31 c0                	xor    eax,eax
28a1:	e8 4a f0 ff ff       	call   18f0 <error@plt>
28a6:	85 c0                	test   eax,eax
28a8:	75 4a                	jne    28f4 <main+0xf44>
28aa:	48 8d 35 0e 56 00 00 	lea    rsi,[rip+0x560e]        # 7ebf <_IO_stdin_used+0xb9f>
28b1:	31 ff                	xor    edi,edi
28b3:	ba 05 00 00 00       	mov    edx,0x5
28b8:	e8 33 ee ff ff       	call   16f0 <dcgettext@plt>
28bd:	31 f6                	xor    esi,esi
28bf:	48 89 c2             	mov    rdx,rax
28c2:	31 ff                	xor    edi,edi
28c4:	31 c0                	xor    eax,eax
28c6:	e8 25 f0 ff ff       	call   18f0 <error@plt>
28cb:	e9 71 f2 ff ff       	jmp    1b41 <main+0x191>
28d0:	48 8d 35 b5 55 00 00 	lea    rsi,[rip+0x55b5]        # 7e8c <_IO_stdin_used+0xb6c>
28d7:	ba 05 00 00 00       	mov    edx,0x5
28dc:	31 ff                	xor    edi,edi
28de:	e8 0d ee ff ff       	call   16f0 <dcgettext@plt>
28e3:	31 f6                	xor    esi,esi
28e5:	48 89 c2             	mov    rdx,rax
28e8:	bf 01 00 00 00       	mov    edi,0x1
28ed:	31 c0                	xor    eax,eax
28ef:	e8 fc ef ff ff       	call   18f0 <error@plt>
28f4:	48 8b 7c eb f8       	mov    rdi,QWORD PTR [rbx+rbp*8-0x8]
28f9:	e8 52 34 00 00       	call   5d50 <quote>
28fe:	48 8d 35 ca 55 00 00 	lea    rsi,[rip+0x55ca]        # 7ecf <_IO_stdin_used+0xbaf>
2905:	48 89 c3             	mov    rbx,rax
2908:	31 ff                	xor    edi,edi
290a:	ba 05 00 00 00       	mov    edx,0x5
290f:	e8 dc ed ff ff       	call   16f0 <dcgettext@plt>
2914:	48 89 d9             	mov    rcx,rbx
2917:	48 89 c2             	mov    rdx,rax
291a:	31 f6                	xor    esi,esi
291c:	31 ff                	xor    edi,edi
291e:	31 c0                	xor    eax,eax
2920:	e8 cb ef ff ff       	call   18f0 <error@plt>
2925:	e9 17 f2 ff ff       	jmp    1b41 <main+0x191>
292a:	66 0f 1f 44 00 00    	nop    WORD PTR [rax+rax*1+0x0]

0000000000002930 <_start>:
2930:	31 ed                	xor    ebp,ebp
2932:	49 89 d1             	mov    r9,rdx
2935:	5e                   	pop    rsi
2936:	48 89 e2             	mov    rdx,rsp
2939:	48 83 e4 f0          	and    rsp,0xfffffffffffffff0
293d:	50                   	push   rax
293e:	54                   	push   rsp
293f:	4c 8d 05 9a 49 00 00 	lea    r8,[rip+0x499a]        # 72e0 <__libc_csu_fini>
2946:	48 8d 0d 23 49 00 00 	lea    rcx,[rip+0x4923]        # 7270 <__libc_csu_init>
294d:	48 8d 3d 5c f0 ff ff 	lea    rdi,[rip+0xfffffffffffff05c]        # 19b0 <main>
2954:	ff 15 86 86 20 00    	call   QWORD PTR [rip+0x208686]        # 20afe0 <__libc_start_main@GLIBC_2.2.5>
295a:	f4                   	hlt
295b:	0f 1f 44 00 00       	nop    DWORD PTR [rax+rax*1+0x0]

0000000000002960 <deregister_tm_clones>:
2960:	48 8d 3d 39 87 20 00 	lea    rdi,[rip+0x208739]        # 20b0a0 <__progname@@GLIBC_2.2.5>
2967:	55                   	push   rbp
2968:	48 8d 05 31 87 20 00 	lea    rax,[rip+0x208731]        # 20b0a0 <__progname@@GLIBC_2.2.5>
296f:	48 39 f8             	cmp    rax,rdi
2972:	48 89 e5             	mov    rbp,rsp
2975:	74 19                	je     2990 <deregister_tm_clones+0x30>
2977:	48 8b 05 5a 86 20 00 	mov    rax,QWORD PTR [rip+0x20865a]        # 20afd8 <_ITM_deregisterTMCloneTable>
297e:	48 85 c0             	test   rax,rax
2981:	74 0d                	je     2990 <deregister_tm_clones+0x30>
2983:	5d                   	pop    rbp
2984:	ff e0                	jmp    rax
2986:	66 2e 0f 1f 84 00 00 	nop    WORD PTR cs:[rax+rax*1+0x0]
298d:	00 00 00
2990:	5d                   	pop    rbp
2991:	c3                   	ret
2992:	0f 1f 40 00          	nop    DWORD PTR [rax+0x0]
2996:	66 2e 0f 1f 84 00 00 	nop    WORD PTR cs:[rax+rax*1+0x0]
299d:	00 00 00

00000000000029a0 <register_tm_clones>:
29a0:	48 8d 3d f9 86 20 00 	lea    rdi,[rip+0x2086f9]        # 20b0a0 <__progname@@GLIBC_2.2.5>
29a7:	48 8d 35 f2 86 20 00 	lea    rsi,[rip+0x2086f2]        # 20b0a0 <__progname@@GLIBC_2.2.5>
29ae:	55                   	push   rbp
29af:	48 29 fe             	sub    rsi,rdi
29b2:	48 89 e5             	mov    rbp,rsp
29b5:	48 c1 fe 03          	sar    rsi,0x3
29b9:	48 89 f0             	mov    rax,rsi
29bc:	48 c1 e8 3f          	shr    rax,0x3f
29c0:	48 01 c6             	add    rsi,rax
29c3:	48 d1 fe             	sar    rsi,1
29c6:	74 18                	je     29e0 <register_tm_clones+0x40>
29c8:	48 8b 05 21 86 20 00 	mov    rax,QWORD PTR [rip+0x208621]        # 20aff0 <_ITM_registerTMCloneTable>
29cf:	48 85 c0             	test   rax,rax
29d2:	74 0c                	je     29e0 <register_tm_clones+0x40>
29d4:	5d                   	pop    rbp
29d5:	ff e0                	jmp    rax
29d7:	66 0f 1f 84 00 00 00 	nop    WORD PTR [rax+rax*1+0x0]
29de:	00 00
29e0:	5d                   	pop    rbp
29e1:	c3                   	ret
29e2:	0f 1f 40 00          	nop    DWORD PTR [rax+0x0]
29e6:	66 2e 0f 1f 84 00 00 	nop    WORD PTR cs:[rax+rax*1+0x0]
29ed:	00 00 00

00000000000029f0 <__do_global_dtors_aux>:
29f0:	80 3d f1 86 20 00 00 	cmp    BYTE PTR [rip+0x2086f1],0x0        # 20b0e8 <completed.7697>
29f7:	75 2f                	jne    2a28 <__do_global_dtors_aux+0x38>
29f9:	48 83 3d f7 85 20 00 	cmp    QWORD PTR [rip+0x2085f7],0x0        # 20aff8 <__cxa_finalize@GLIBC_2.2.5>
2a00:	00
2a01:	55                   	push   rbp
2a02:	48 89 e5             	mov    rbp,rsp
2a05:	74 0c                	je     2a13 <__do_global_dtors_aux+0x23>
2a07:	48 8b 3d fa 85 20 00 	mov    rdi,QWORD PTR [rip+0x2085fa]        # 20b008 <__dso_handle>
2a0e:	e8 8d ef ff ff       	call   19a0 <__cxa_finalize@plt>
2a13:	e8 48 ff ff ff       	call   2960 <deregister_tm_clones>
2a18:	c6 05 c9 86 20 00 01 	mov    BYTE PTR [rip+0x2086c9],0x1        # 20b0e8 <completed.7697>
2a1f:	5d                   	pop    rbp
2a20:	c3                   	ret
2a21:	0f 1f 80 00 00 00 00 	nop    DWORD PTR [rax+0x0]
2a28:	f3 c3                	repz ret
2a2a:	66 0f 1f 44 00 00    	nop    WORD PTR [rax+rax*1+0x0]

0000000000002a30 <frame_dummy>:
2a30:	55                   	push   rbp
2a31:	48 89 e5             	mov    rbp,rsp
2a34:	5d                   	pop    rbp
2a35:	e9 66 ff ff ff       	jmp    29a0 <register_tm_clones>
2a3a:	66 0f 1f 44 00 00    	nop    WORD PTR [rax+rax*1+0x0]

0000000000002a40 <set_join_field>:
2a40:	55                   	push   rbp
2a41:	53                   	push   rbx
2a42:	48 83 ec 08          	sub    rsp,0x8
2a46:	48 8b 1f             	mov    rbx,QWORD PTR [rdi]
2a49:	48 83 fb ff          	cmp    rbx,0xffffffffffffffff
2a4d:	74 05                	je     2a54 <set_join_field+0x14>
2a4f:	48 39 f3             	cmp    rbx,rsi
2a52:	75 0a                	jne    2a5e <set_join_field+0x1e>
2a54:	48 89 37             	mov    QWORD PTR [rdi],rsi
2a57:	48 83 c4 08          	add    rsp,0x8
2a5b:	5b                   	pop    rbx
2a5c:	5d                   	pop    rbp
2a5d:	c3                   	ret
2a5e:	48 89 f5             	mov    rbp,rsi
2a61:	48 8d 35 c0 48 00 00 	lea    rsi,[rip+0x48c0]        # 7328 <_IO_stdin_used+0x8>
2a68:	ba 05 00 00 00       	mov    edx,0x5
2a6d:	31 ff                	xor    edi,edi
2a6f:	e8 7c ec ff ff       	call   16f0 <dcgettext@plt>
2a74:	48 8d 4b 01          	lea    rcx,[rbx+0x1]
2a78:	4c 8d 45 01          	lea    r8,[rbp+0x1]
2a7c:	48 89 c2             	mov    rdx,rax
2a7f:	31 f6                	xor    esi,esi
2a81:	bf 01 00 00 00       	mov    edi,0x1
2a86:	31 c0                	xor    eax,eax
2a88:	e8 63 ee ff ff       	call   18f0 <error@plt>
2a8d:	0f 1f 00             	nop    DWORD PTR [rax]

0000000000002a90 <string_to_join_field>:
2a90:	53                   	push   rbx
2a91:	4c 8d 05 c0 52 00 00 	lea    r8,[rip+0x52c0]        # 7d58 <_IO_stdin_used+0xa38>
2a98:	31 f6                	xor    esi,esi
2a9a:	ba 0a 00 00 00       	mov    edx,0xa
2a9f:	48 89 fb             	mov    rbx,rdi
2aa2:	48 83 ec 10          	sub    rsp,0x10
2aa6:	48 89 e1             	mov    rcx,rsp
2aa9:	64 48 8b 04 25 28 00 	mov    rax,QWORD PTR fs:0x28
2ab0:	00 00
2ab2:	48 89 44 24 08       	mov    QWORD PTR [rsp+0x8],rax
2ab7:	31 c0                	xor    eax,eax
2ab9:	e8 d2 3c 00 00       	call   6790 <xstrtoul>
2abe:	83 f8 01             	cmp    eax,0x1
2ac1:	74 2d                	je     2af0 <string_to_join_field+0x60>
2ac3:	85 c0                	test   eax,eax
2ac5:	75 32                	jne    2af9 <string_to_join_field+0x69>
2ac7:	48 8b 04 24          	mov    rax,QWORD PTR [rsp]
2acb:	48 85 c0             	test   rax,rax
2ace:	74 29                	je     2af9 <string_to_join_field+0x69>
2ad0:	48 83 e8 01          	sub    rax,0x1
2ad4:	48 8b 54 24 08       	mov    rdx,QWORD PTR [rsp+0x8]
2ad9:	64 48 33 14 25 28 00 	xor    rdx,QWORD PTR fs:0x28
2ae0:	00 00
2ae2:	75 47                	jne    2b2b <string_to_join_field+0x9b>
2ae4:	48 83 c4 10          	add    rsp,0x10
2ae8:	5b                   	pop    rbx
2ae9:	c3                   	ret
2aea:	66 0f 1f 44 00 00    	nop    WORD PTR [rax+rax*1+0x0]
2af0:	48 c7 c0 fe ff ff ff 	mov    rax,0xfffffffffffffffe
2af7:	eb db                	jmp    2ad4 <string_to_join_field+0x44>
2af9:	48 89 df             	mov    rdi,rbx
2afc:	e8 4f 32 00 00       	call   5d50 <quote>
2b01:	48 8d 35 34 52 00 00 	lea    rsi,[rip+0x5234]        # 7d3c <_IO_stdin_used+0xa1c>
2b08:	48 89 c3             	mov    rbx,rax
2b0b:	ba 05 00 00 00       	mov    edx,0x5
2b10:	31 ff                	xor    edi,edi
2b12:	e8 d9 eb ff ff       	call   16f0 <dcgettext@plt>
2b17:	48 89 d9             	mov    rcx,rbx
2b1a:	48 89 c2             	mov    rdx,rax
2b1d:	31 f6                	xor    esi,esi
2b1f:	bf 01 00 00 00       	mov    edi,0x1
2b24:	31 c0                	xor    eax,eax
2b26:	e8 c5 ed ff ff       	call   18f0 <error@plt>
2b2b:	e8 f0 eb ff ff       	call   1720 <__stack_chk_fail@plt>

0000000000002b30 <add_field_list>:
2b30:	41 54                	push   r12
2b32:	55                   	push   rbp
2b33:	48 89 fd             	mov    rbp,rdi
2b36:	53                   	push   rbx
2b37:	eb 60                	jmp    2b99 <add_field_list+0x69>
2b39:	0f 1f 80 00 00 00 00 	nop    DWORD PTR [rax+0x0]
2b40:	0f 8c 8f 00 00 00    	jl     2bd5 <add_field_list+0xa5>
2b46:	3c 32                	cmp    al,0x32
2b48:	0f 8f 87 00 00 00    	jg     2bd5 <add_field_list+0xa5>
2b4e:	80 7d 01 2e          	cmp    BYTE PTR [rbp+0x1],0x2e
2b52:	0f 85 e1 00 00 00    	jne    2c39 <add_field_list+0x109>
2b58:	48 8d 7d 02          	lea    rdi,[rbp+0x2]
2b5c:	8d 58 d0             	lea    ebx,[rax-0x30]
2b5f:	e8 2c ff ff ff       	call   2a90 <string_to_join_field>
2b64:	48 89 c5             	mov    rbp,rax
2b67:	bf 18 00 00 00       	mov    edi,0x18
2b6c:	e8 2f 38 00 00       	call   63a0 <xmalloc>
2b71:	48 8b 15 b0 84 20 00 	mov    rdx,QWORD PTR [rip+0x2084b0]        # 20b028 <outlist_end>
2b78:	4d 85 e4             	test   r12,r12
2b7b:	89 18                	mov    DWORD PTR [rax],ebx
2b7d:	48 89 68 08          	mov    QWORD PTR [rax+0x8],rbp
2b81:	48 c7 40 10 00 00 00 	mov    QWORD PTR [rax+0x10],0x0
2b88:	00
2b89:	48 89 05 98 84 20 00 	mov    QWORD PTR [rip+0x208498],rax        # 20b028 <outlist_end>
2b90:	48 89 42 10          	mov    QWORD PTR [rdx+0x10],rax
2b94:	74 3a                	je     2bd0 <add_field_list+0xa0>
2b96:	4c 89 e5             	mov    rbp,r12
2b99:	48 8d 35 b5 51 00 00 	lea    rsi,[rip+0x51b5]        # 7d55 <_IO_stdin_used+0xa35>
2ba0:	48 89 ef             	mov    rdi,rbp
2ba3:	45 31 e4             	xor    r12d,r12d
2ba6:	e8 d5 ec ff ff       	call   1880 <strpbrk@plt>
2bab:	48 85 c0             	test   rax,rax
2bae:	74 07                	je     2bb7 <add_field_list+0x87>
2bb0:	4c 8d 60 01          	lea    r12,[rax+0x1]
2bb4:	c6 00 00             	mov    BYTE PTR [rax],0x0
2bb7:	0f be 45 00          	movsx  eax,BYTE PTR [rbp+0x0]
2bbb:	3c 30                	cmp    al,0x30
2bbd:	75 81                	jne    2b40 <add_field_list+0x10>
2bbf:	80 7d 01 00          	cmp    BYTE PTR [rbp+0x1],0x0
2bc3:	75 42                	jne    2c07 <add_field_list+0xd7>
2bc5:	31 ed                	xor    ebp,ebp
2bc7:	31 db                	xor    ebx,ebx
2bc9:	eb 9c                	jmp    2b67 <add_field_list+0x37>
2bcb:	0f 1f 44 00 00       	nop    DWORD PTR [rax+rax*1+0x0]
2bd0:	5b                   	pop    rbx
2bd1:	5d                   	pop    rbp
2bd2:	41 5c                	pop    r12
2bd4:	c3                   	ret
2bd5:	48 89 ef             	mov    rdi,rbp
2bd8:	e8 73 31 00 00       	call   5d50 <quote>
2bdd:	48 8d 35 6c 47 00 00 	lea    rsi,[rip+0x476c]        # 7350 <_IO_stdin_used+0x30>
2be4:	48 89 c3             	mov    rbx,rax
2be7:	ba 05 00 00 00       	mov    edx,0x5
2bec:	31 ff                	xor    edi,edi
2bee:	e8 fd ea ff ff       	call   16f0 <dcgettext@plt>
2bf3:	48 89 d9             	mov    rcx,rbx
2bf6:	48 89 c2             	mov    rdx,rax
2bf9:	31 f6                	xor    esi,esi
2bfb:	bf 01 00 00 00       	mov    edi,0x1
2c00:	31 c0                	xor    eax,eax
2c02:	e8 e9 ec ff ff       	call   18f0 <error@plt>
2c07:	48 89 ef             	mov    rdi,rbp
2c0a:	e8 41 31 00 00       	call   5d50 <quote>
2c0f:	48 8d 35 43 51 00 00 	lea    rsi,[rip+0x5143]        # 7d59 <_IO_stdin_used+0xa39>
2c16:	48 89 c3             	mov    rbx,rax
2c19:	ba 05 00 00 00       	mov    edx,0x5
2c1e:	31 ff                	xor    edi,edi
2c20:	e8 cb ea ff ff       	call   16f0 <dcgettext@plt>
2c25:	48 89 d9             	mov    rcx,rbx
2c28:	48 89 c2             	mov    rdx,rax
2c2b:	31 f6                	xor    esi,esi
2c2d:	bf 01 00 00 00       	mov    edi,0x1
2c32:	31 c0                	xor    eax,eax
2c34:	e8 b7 ec ff ff       	call   18f0 <error@plt>
2c39:	48 89 ef             	mov    rdi,rbp
2c3c:	e8 0f 31 00 00       	call   5d50 <quote>
2c41:	48 8d 35 11 51 00 00 	lea    rsi,[rip+0x5111]        # 7d59 <_IO_stdin_used+0xa39>
2c48:	48 89 c3             	mov    rbx,rax
2c4b:	ba 05 00 00 00       	mov    edx,0x5
2c50:	31 ff                	xor    edi,edi
2c52:	e8 99 ea ff ff       	call   16f0 <dcgettext@plt>
2c57:	48 89 d9             	mov    rcx,rbx
2c5a:	48 89 c2             	mov    rdx,rax
2c5d:	31 f6                	xor    esi,esi
2c5f:	bf 01 00 00 00       	mov    edi,0x1
2c64:	31 c0                	xor    eax,eax
2c66:	e8 85 ec ff ff       	call   18f0 <error@plt>
2c6b:	0f 1f 44 00 00       	nop    DWORD PTR [rax+rax*1+0x0]

0000000000002c70 <freeline.part.2>:
2c70:	53                   	push   rbx
2c71:	48 89 fb             	mov    rbx,rdi
2c74:	48 8b 7f 28          	mov    rdi,QWORD PTR [rdi+0x28]
2c78:	e8 d3 e9 ff ff       	call   1650 <free@plt>
2c7d:	48 8b 7b 10          	mov    rdi,QWORD PTR [rbx+0x10]
2c81:	48 c7 43 28 00 00 00 	mov    QWORD PTR [rbx+0x28],0x0
2c88:	00
2c89:	e8 c2 e9 ff ff       	call   1650 <free@plt>
2c8e:	48 c7 43 10 00 00 00 	mov    QWORD PTR [rbx+0x10],0x0
2c95:	00
2c96:	5b                   	pop    rbx
2c97:	c3                   	ret
2c98:	0f 1f 84 00 00 00 00 	nop    DWORD PTR [rax+rax*1+0x0]
2c9f:	00

0000000000002ca0 <free_spareline>:
2ca0:	53                   	push   rbx
2ca1:	48 8b 1d f8 84 20 00 	mov    rbx,QWORD PTR [rip+0x2084f8]        # 20b1a0 <spareline>
2ca8:	48 85 db             	test   rbx,rbx
2cab:	74 10                	je     2cbd <free_spareline+0x1d>
2cad:	48 89 df             	mov    rdi,rbx
2cb0:	e8 bb ff ff ff       	call   2c70 <freeline.part.2>
2cb5:	48 89 df             	mov    rdi,rbx
2cb8:	e8 93 e9 ff ff       	call   1650 <free@plt>
2cbd:	48 8b 1d e4 84 20 00 	mov    rbx,QWORD PTR [rip+0x2084e4]        # 20b1a8 <spareline+0x8>
2cc4:	48 85 db             	test   rbx,rbx
2cc7:	74 17                	je     2ce0 <free_spareline+0x40>
2cc9:	48 89 df             	mov    rdi,rbx
2ccc:	e8 9f ff ff ff       	call   2c70 <freeline.part.2>
2cd1:	48 89 df             	mov    rdi,rbx
2cd4:	5b                   	pop    rbx
2cd5:	e9 76 e9 ff ff       	jmp    1650 <free@plt>
2cda:	66 0f 1f 44 00 00    	nop    WORD PTR [rax+rax*1+0x0]
2ce0:	5b                   	pop    rbx
2ce1:	c3                   	ret
2ce2:	0f 1f 40 00          	nop    DWORD PTR [rax+0x0]
2ce6:	66 2e 0f 1f 84 00 00 	nop    WORD PTR cs:[rax+rax*1+0x0]
2ced:	00 00 00

0000000000002cf0 <delseq.isra.3>:
2cf0:	41 54                	push   r12
2cf2:	55                   	push   rbp
2cf3:	48 89 f5             	mov    rbp,rsi
2cf6:	53                   	push   rbx
2cf7:	48 83 3f 00          	cmp    QWORD PTR [rdi],0x0
2cfb:	74 34                	je     2d31 <delseq.isra.3+0x41>
2cfd:	49 89 fc             	mov    r12,rdi
2d00:	31 db                	xor    ebx,ebx
2d02:	66 0f 1f 44 00 00    	nop    WORD PTR [rax+rax*1+0x0]
2d08:	48 8b 45 00          	mov    rax,QWORD PTR [rbp+0x0]
2d0c:	48 8b 3c d8          	mov    rdi,QWORD PTR [rax+rbx*8]
2d10:	48 85 ff             	test   rdi,rdi
2d13:	74 0d                	je     2d22 <delseq.isra.3+0x32>
2d15:	e8 56 ff ff ff       	call   2c70 <freeline.part.2>
2d1a:	48 8b 45 00          	mov    rax,QWORD PTR [rbp+0x0]
2d1e:	48 8b 3c d8          	mov    rdi,QWORD PTR [rax+rbx*8]
2d22:	e8 29 e9 ff ff       	call   1650 <free@plt>
2d27:	48 83 c3 01          	add    rbx,0x1
2d2b:	49 3b 1c 24          	cmp    rbx,QWORD PTR [r12]
2d2f:	72 d7                	jb     2d08 <delseq.isra.3+0x18>
2d31:	5b                   	pop    rbx
2d32:	48 8b 7d 00          	mov    rdi,QWORD PTR [rbp+0x0]
2d36:	5d                   	pop    rbp
2d37:	41 5c                	pop    r12
2d39:	e9 12 e9 ff ff       	jmp    1650 <free@plt>
2d3e:	66 90                	xchg   ax,ax

0000000000002d40 <keycmp.isra.4>:
2d40:	55                   	push   rbp
2d41:	53                   	push   rbx
2d42:	48 83 ec 08          	sub    rsp,0x8
2d46:	49 39 f8             	cmp    r8,rdi
2d49:	73 7d                	jae    2dc8 <keycmp.isra.4+0x88>
2d4b:	49 c1 e0 04          	shl    r8,0x4
2d4f:	4c 03 06             	add    r8,QWORD PTR [rsi]
2d52:	49 39 d1             	cmp    r9,rdx
2d55:	49 8b 68 08          	mov    rbp,QWORD PTR [r8+0x8]
2d59:	0f 83 a1 00 00 00    	jae    2e00 <keycmp.isra.4+0xc0>
2d5f:	49 c1 e1 04          	shl    r9,0x4
2d63:	4c 03 09             	add    r9,QWORD PTR [rcx]
2d66:	48 85 ed             	test   rbp,rbp
2d69:	49 8b 31             	mov    rsi,QWORD PTR [r9]
2d6c:	49 8b 59 08          	mov    rbx,QWORD PTR [r9+0x8]
2d70:	74 66                	je     2dd8 <keycmp.isra.4+0x98>
2d72:	48 85 db             	test   rbx,rbx
2d75:	0f 84 c8 00 00 00    	je     2e43 <keycmp.isra.4+0x103>
2d7b:	80 3d 7f 83 20 00 00 	cmp    BYTE PTR [rip+0x20837f],0x0        # 20b101 <ignore_case>
2d82:	49 8b 38             	mov    rdi,QWORD PTR [r8]
2d85:	0f 85 85 00 00 00    	jne    2e10 <keycmp.isra.4+0xd0>
2d8b:	80 3d 0c 84 20 00 00 	cmp    BYTE PTR [rip+0x20840c],0x0        # 20b19e <hard_LC_COLLATE>
2d92:	0f 85 90 00 00 00    	jne    2e28 <keycmp.isra.4+0xe8>
2d98:	48 39 dd             	cmp    rbp,rbx
2d9b:	48 89 da             	mov    rdx,rbx
2d9e:	48 0f 46 d5          	cmovbe rdx,rbp
2da2:	e8 39 ea ff ff       	call   17e0 <memcmp@plt>
2da7:	85 c0                	test   eax,eax
2da9:	75 47                	jne    2df2 <keycmp.isra.4+0xb2>
2dab:	48 39 dd             	cmp    rbp,rbx
2dae:	0f 82 88 00 00 00    	jb     2e3c <keycmp.isra.4+0xfc>
2db4:	0f 95 c0             	setne  al
2db7:	48 83 c4 08          	add    rsp,0x8
2dbb:	0f b6 c0             	movzx  eax,al
2dbe:	5b                   	pop    rbx
2dbf:	5d                   	pop    rbp
2dc0:	c3                   	ret
2dc1:	0f 1f 80 00 00 00 00 	nop    DWORD PTR [rax+0x0]
2dc8:	49 39 d1             	cmp    r9,rdx
2dcb:	73 23                	jae    2df0 <keycmp.isra.4+0xb0>
2dcd:	49 c1 e1 04          	shl    r9,0x4
2dd1:	4c 03 09             	add    r9,QWORD PTR [rcx]
2dd4:	49 8b 59 08          	mov    rbx,QWORD PTR [r9+0x8]
2dd8:	31 c0                	xor    eax,eax
2dda:	48 85 db             	test   rbx,rbx
2ddd:	0f 95 c0             	setne  al
2de0:	48 83 c4 08          	add    rsp,0x8
2de4:	f7 d8                	neg    eax
2de6:	5b                   	pop    rbx
2de7:	5d                   	pop    rbp
2de8:	c3                   	ret
2de9:	0f 1f 80 00 00 00 00 	nop    DWORD PTR [rax+0x0]
2df0:	31 c0                	xor    eax,eax
2df2:	48 83 c4 08          	add    rsp,0x8
2df6:	5b                   	pop    rbx
2df7:	5d                   	pop    rbp
2df8:	c3                   	ret
2df9:	0f 1f 80 00 00 00 00 	nop    DWORD PTR [rax+0x0]
2e00:	31 c0                	xor    eax,eax
2e02:	48 85 ed             	test   rbp,rbp
2e05:	0f 95 c0             	setne  al
2e08:	48 83 c4 08          	add    rsp,0x8
2e0c:	5b                   	pop    rbx
2e0d:	5d                   	pop    rbp
2e0e:	c3                   	ret
2e0f:	90                   	nop
2e10:	48 39 dd             	cmp    rbp,rbx
2e13:	48 89 da             	mov    rdx,rbx
2e16:	48 0f 46 d5          	cmovbe rdx,rbp
2e1a:	e8 d1 11 00 00       	call   3ff0 <memcasecmp>
2e1f:	eb 86                	jmp    2da7 <keycmp.isra.4+0x67>
2e21:	0f 1f 80 00 00 00 00 	nop    DWORD PTR [rax+0x0]
2e28:	48 83 c4 08          	add    rsp,0x8
2e2c:	48 89 d9             	mov    rcx,rbx
2e2f:	48 89 f2             	mov    rdx,rsi
2e32:	5b                   	pop    rbx
2e33:	48 89 ee             	mov    rsi,rbp
2e36:	5d                   	pop    rbp
2e37:	e9 b4 38 00 00       	jmp    66f0 <xmemcoll>
2e3c:	b8 ff ff ff ff       	mov    eax,0xffffffff
2e41:	eb af                	jmp    2df2 <keycmp.isra.4+0xb2>
2e43:	b8 01 00 00 00       	mov    eax,0x1
2e48:	eb a8                	jmp    2df2 <keycmp.isra.4+0xb2>
2e4a:	66 0f 1f 44 00 00    	nop    WORD PTR [rax+rax*1+0x0]

0000000000002e50 <prfield.isra.5>:
2e50:	48 39 f7             	cmp    rdi,rsi
2e53:	73 2b                	jae    2e80 <prfield.isra.5+0x30>
2e55:	48 c1 e7 04          	shl    rdi,0x4
2e59:	48 03 3a             	add    rdi,QWORD PTR [rdx]
2e5c:	48 8b 57 08          	mov    rdx,QWORD PTR [rdi+0x8]
2e60:	48 85 d2             	test   rdx,rdx
2e63:	74 1b                	je     2e80 <prfield.isra.5+0x30>
2e65:	48 8b 0d 3c 82 20 00 	mov    rcx,QWORD PTR [rip+0x20823c]        # 20b0a8 <stdout@@GLIBC_2.2.5>
2e6c:	48 8b 3f             	mov    rdi,QWORD PTR [rdi]
2e6f:	be 01 00 00 00       	mov    esi,0x1
2e74:	e9 27 ea ff ff       	jmp    18a0 <fwrite_unlocked@plt>
2e79:	0f 1f 80 00 00 00 00 	nop    DWORD PTR [rax+0x0]
2e80:	48 8b 3d 09 83 20 00 	mov    rdi,QWORD PTR [rip+0x208309]        # 20b190 <empty_filler>
2e87:	48 85 ff             	test   rdi,rdi
2e8a:	74 14                	je     2ea0 <prfield.isra.5+0x50>
2e8c:	48 8b 35 15 82 20 00 	mov    rsi,QWORD PTR [rip+0x208215]        # 20b0a8 <stdout@@GLIBC_2.2.5>
2e93:	e9 58 e9 ff ff       	jmp    17f0 <fputs_unlocked@plt>
2e98:	0f 1f 84 00 00 00 00 	nop    DWORD PTR [rax+rax*1+0x0]
2e9f:	00
2ea0:	f3 c3                	repz ret
2ea2:	0f 1f 40 00          	nop    DWORD PTR [rax+0x0]
2ea6:	66 2e 0f 1f 84 00 00 	nop    WORD PTR cs:[rax+rax*1+0x0]
2ead:	00 00 00

0000000000002eb0 <prfields>:
2eb0:	41 57                	push   r15
2eb2:	41 56                	push   r14
2eb4:	49 89 ff             	mov    r15,rdi
2eb7:	41 55                	push   r13
2eb9:	41 54                	push   r12
2ebb:	49 89 d4             	mov    r12,rdx
2ebe:	55                   	push   rbp
2ebf:	53                   	push   rbx
2ec0:	48 83 ec 18          	sub    rsp,0x18
2ec4:	80 3d bd 82 20 00 00 	cmp    BYTE PTR [rip+0x2082bd],0x0        # 20b188 <autoformat>
2ecb:	48 89 74 24 08       	mov    QWORD PTR [rsp+0x8],rsi
2ed0:	75 04                	jne    2ed6 <prfields+0x26>
2ed2:	4c 8b 67 18          	mov    r12,QWORD PTR [rdi+0x18]
2ed6:	44 8b 35 37 81 20 00 	mov    r14d,DWORD PTR [rip+0x208137]        # 20b014 <tab>
2edd:	b8 20 00 00 00       	mov    eax,0x20
2ee2:	45 85 f6             	test   r14d,r14d
2ee5:	44 0f 48 f0          	cmovs  r14d,eax
2ee9:	48 8b 44 24 08       	mov    rax,QWORD PTR [rsp+0x8]
2eee:	44 89 f5             	mov    ebp,r14d
2ef1:	49 39 c4             	cmp    r12,rax
2ef4:	49 89 c5             	mov    r13,rax
2ef7:	4d 0f 46 ec          	cmovbe r13,r12
2efb:	4d 85 ed             	test   r13,r13
2efe:	74 49                	je     2f49 <prfields+0x99>
2f00:	49 8d 47 28          	lea    rax,[r15+0x28]
2f04:	31 db                	xor    ebx,ebx
2f06:	45 0f b6 f6          	movzx  r14d,r14b
2f0a:	48 89 04 24          	mov    QWORD PTR [rsp],rax
2f0e:	66 90                	xchg   ax,ax
2f10:	48 8b 3d 91 81 20 00 	mov    rdi,QWORD PTR [rip+0x208191]        # 20b0a8 <stdout@@GLIBC_2.2.5>
2f17:	48 8b 47 28          	mov    rax,QWORD PTR [rdi+0x28]
2f1b:	48 3b 47 30          	cmp    rax,QWORD PTR [rdi+0x30]
2f1f:	0f 83 83 00 00 00    	jae    2fa8 <prfields+0xf8>
2f25:	48 8d 50 01          	lea    rdx,[rax+0x1]
2f29:	48 89 57 28          	mov    QWORD PTR [rdi+0x28],rdx
2f2d:	40 88 28             	mov    BYTE PTR [rax],bpl
2f30:	49 8b 77 18          	mov    rsi,QWORD PTR [r15+0x18]
2f34:	48 8b 14 24          	mov    rdx,QWORD PTR [rsp]
2f38:	48 89 df             	mov    rdi,rbx
2f3b:	48 83 c3 01          	add    rbx,0x1
2f3f:	e8 0c ff ff ff       	call   2e50 <prfield.isra.5>
2f44:	4c 39 eb             	cmp    rbx,r13
2f47:	75 c7                	jne    2f10 <prfields+0x60>
2f49:	48 8b 5c 24 08       	mov    rbx,QWORD PTR [rsp+0x8]
2f4e:	48 83 c3 01          	add    rbx,0x1
2f52:	49 39 dc             	cmp    r12,rbx
2f55:	76 3d                	jbe    2f94 <prfields+0xe4>
2f57:	4d 8d 6f 28          	lea    r13,[r15+0x28]
2f5b:	44 0f b6 f5          	movzx  r14d,bpl
2f5f:	90                   	nop
2f60:	48 8b 3d 41 81 20 00 	mov    rdi,QWORD PTR [rip+0x208141]        # 20b0a8 <stdout@@GLIBC_2.2.5>
2f67:	48 8b 47 28          	mov    rax,QWORD PTR [rdi+0x28]
2f6b:	48 3b 47 30          	cmp    rax,QWORD PTR [rdi+0x30]
2f6f:	73 47                	jae    2fb8 <prfields+0x108>
2f71:	48 8d 50 01          	lea    rdx,[rax+0x1]
2f75:	48 89 57 28          	mov    QWORD PTR [rdi+0x28],rdx
2f79:	40 88 28             	mov    BYTE PTR [rax],bpl
2f7c:	49 8b 77 18          	mov    rsi,QWORD PTR [r15+0x18]
2f80:	48 89 df             	mov    rdi,rbx
2f83:	4c 89 ea             	mov    rdx,r13
2f86:	48 83 c3 01          	add    rbx,0x1
2f8a:	e8 c1 fe ff ff       	call   2e50 <prfield.isra.5>
2f8f:	49 39 dc             	cmp    r12,rbx
2f92:	75 cc                	jne    2f60 <prfields+0xb0>
2f94:	48 83 c4 18          	add    rsp,0x18
2f98:	5b                   	pop    rbx
2f99:	5d                   	pop    rbp
2f9a:	41 5c                	pop    r12
2f9c:	41 5d                	pop    r13
2f9e:	41 5e                	pop    r14
2fa0:	41 5f                	pop    r15
2fa2:	c3                   	ret
2fa3:	0f 1f 44 00 00       	nop    DWORD PTR [rax+rax*1+0x0]
2fa8:	44 89 f6             	mov    esi,r14d
2fab:	e8 b0 e7 ff ff       	call   1760 <__overflow@plt>
2fb0:	e9 7b ff ff ff       	jmp    2f30 <prfields+0x80>
2fb5:	0f 1f 00             	nop    DWORD PTR [rax]
2fb8:	44 89 f6             	mov    esi,r14d
2fbb:	e8 a0 e7 ff ff       	call   1760 <__overflow@plt>
2fc0:	eb ba                	jmp    2f7c <prfields+0xcc>
2fc2:	0f 1f 40 00          	nop    DWORD PTR [rax+0x0]
2fc6:	66 2e 0f 1f 84 00 00 	nop    WORD PTR cs:[rax+rax*1+0x0]
2fcd:	00 00 00

0000000000002fd0 <prjoin>:
2fd0:	41 56                	push   r14
2fd2:	41 55                	push   r13
2fd4:	b8 20 00 00 00       	mov    eax,0x20
2fd9:	41 54                	push   r12
2fdb:	44 8b 25 32 80 20 00 	mov    r12d,DWORD PTR [rip+0x208032]        # 20b014 <tab>
2fe2:	49 89 f5             	mov    r13,rsi
2fe5:	55                   	push   rbp
2fe6:	53                   	push   rbx
2fe7:	48 89 fd             	mov    rbp,rdi
2fea:	48 8b 1d 7f 81 20 00 	mov    rbx,QWORD PTR [rip+0x20817f]        # 20b170 <outlist_head+0x10>
2ff1:	4c 8d 35 28 81 20 00 	lea    r14,[rip+0x208128]        # 20b120 <uni_blank>
2ff8:	45 85 e4             	test   r12d,r12d
2ffb:	44 0f 48 e0          	cmovs  r12d,eax
2fff:	48 85 db             	test   rbx,rbx
3002:	74 6c                	je     3070 <prjoin+0xa0>
3004:	8b 03                	mov    eax,DWORD PTR [rbx]
3006:	85 c0                	test   eax,eax
3008:	75 53                	jne    305d <prjoin+0x8d>
300a:	4c 39 f5             	cmp    rbp,r14
300d:	0f 84 dd 00 00 00    	je     30f0 <prjoin+0x120>
3013:	48 8b 3d 06 80 20 00 	mov    rdi,QWORD PTR [rip+0x208006]        # 20b020 <join_field_1>
301a:	48 89 e8             	mov    rax,rbp
301d:	48 8b 70 18          	mov    rsi,QWORD PTR [rax+0x18]
3021:	48 8d 50 28          	lea    rdx,[rax+0x28]
3025:	e8 26 fe ff ff       	call   2e50 <prfield.isra.5>
302a:	48 8b 5b 10          	mov    rbx,QWORD PTR [rbx+0x10]
302e:	48 85 db             	test   rbx,rbx
3031:	0f 84 8c 00 00 00    	je     30c3 <prjoin+0xf3>
3037:	48 8b 3d 6a 80 20 00 	mov    rdi,QWORD PTR [rip+0x20806a]        # 20b0a8 <stdout@@GLIBC_2.2.5>
303e:	48 8b 47 28          	mov    rax,QWORD PTR [rdi+0x28]
3042:	48 3b 47 30          	cmp    rax,QWORD PTR [rdi+0x30]
3046:	0f 83 b4 00 00 00    	jae    3100 <prjoin+0x130>
304c:	48 8d 50 01          	lea    rdx,[rax+0x1]
3050:	48 89 57 28          	mov    QWORD PTR [rdi+0x28],rdx
3054:	44 88 20             	mov    BYTE PTR [rax],r12b
3057:	8b 03                	mov    eax,DWORD PTR [rbx]
3059:	85 c0                	test   eax,eax
305b:	74 ad                	je     300a <prjoin+0x3a>
305d:	83 f8 01             	cmp    eax,0x1
3060:	48 89 e8             	mov    rax,rbp
3063:	48 8b 7b 08          	mov    rdi,QWORD PTR [rbx+0x8]
3067:	49 0f 45 c5          	cmovne rax,r13
306b:	eb b0                	jmp    301d <prjoin+0x4d>
306d:	0f 1f 00             	nop    DWORD PTR [rax]
3070:	48 8d 05 a9 80 20 00 	lea    rax,[rip+0x2080a9]        # 20b120 <uni_blank>
3077:	48 39 c7             	cmp    rdi,rax
307a:	0f 84 a0 00 00 00    	je     3120 <prjoin+0x150>
3080:	48 8b 3d 99 7f 20 00 	mov    rdi,QWORD PTR [rip+0x207f99]        # 20b020 <join_field_1>
3087:	48 89 e8             	mov    rax,rbp
308a:	48 8b 70 18          	mov    rsi,QWORD PTR [rax+0x18]
308e:	48 8d 50 28          	lea    rdx,[rax+0x28]
3092:	e8 b9 fd ff ff       	call   2e50 <prfield.isra.5>
3097:	48 8b 15 e2 80 20 00 	mov    rdx,QWORD PTR [rip+0x2080e2]        # 20b180 <autocount_1>
309e:	48 8b 35 7b 7f 20 00 	mov    rsi,QWORD PTR [rip+0x207f7b]        # 20b020 <join_field_1>
30a5:	48 89 ef             	mov    rdi,rbp
30a8:	e8 03 fe ff ff       	call   2eb0 <prfields>
30ad:	48 8b 15 c4 80 20 00 	mov    rdx,QWORD PTR [rip+0x2080c4]        # 20b178 <autocount_2>
30b4:	48 8b 35 5d 7f 20 00 	mov    rsi,QWORD PTR [rip+0x207f5d]        # 20b018 <join_field_2>
30bb:	4c 89 ef             	mov    rdi,r13
30be:	e8 ed fd ff ff       	call   2eb0 <prfields>
30c3:	48 8b 3d de 7f 20 00 	mov    rdi,QWORD PTR [rip+0x207fde]        # 20b0a8 <stdout@@GLIBC_2.2.5>
30ca:	0f b6 15 3f 7f 20 00 	movzx  edx,BYTE PTR [rip+0x207f3f]        # 20b010 <eolchar>
30d1:	48 8b 47 28          	mov    rax,QWORD PTR [rdi+0x28]
30d5:	48 3b 47 30          	cmp    rax,QWORD PTR [rdi+0x30]
30d9:	73 35                	jae    3110 <prjoin+0x140>
30db:	48 8d 48 01          	lea    rcx,[rax+0x1]
30df:	48 89 4f 28          	mov    QWORD PTR [rdi+0x28],rcx
30e3:	88 10                	mov    BYTE PTR [rax],dl
30e5:	5b                   	pop    rbx
30e6:	5d                   	pop    rbp
30e7:	41 5c                	pop    r12
30e9:	41 5d                	pop    r13
30eb:	41 5e                	pop    r14
30ed:	c3                   	ret
30ee:	66 90                	xchg   ax,ax
30f0:	48 8b 3d 21 7f 20 00 	mov    rdi,QWORD PTR [rip+0x207f21]        # 20b018 <join_field_2>
30f7:	4c 89 e8             	mov    rax,r13
30fa:	e9 1e ff ff ff       	jmp    301d <prjoin+0x4d>
30ff:	90                   	nop
3100:	41 0f b6 f4          	movzx  esi,r12b
3104:	e8 57 e6 ff ff       	call   1760 <__overflow@plt>
3109:	e9 f6 fe ff ff       	jmp    3004 <prjoin+0x34>
310e:	66 90                	xchg   ax,ax
3110:	5b                   	pop    rbx
3111:	5d                   	pop    rbp
3112:	41 5c                	pop    r12
3114:	41 5d                	pop    r13
3116:	41 5e                	pop    r14
3118:	0f b6 f2             	movzx  esi,dl
311b:	e9 40 e6 ff ff       	jmp    1760 <__overflow@plt>
3120:	48 8b 3d f1 7e 20 00 	mov    rdi,QWORD PTR [rip+0x207ef1]        # 20b018 <join_field_2>
3127:	48 89 f0             	mov    rax,rsi
312a:	e9 5b ff ff ff       	jmp    308a <prjoin+0xba>
312f:	90                   	nop

0000000000003130 <extract_field>:
3130:	41 54                	push   r12
3132:	49 89 f4             	mov    r12,rsi
3135:	55                   	push   rbp
3136:	53                   	push   rbx
3137:	48 8b 47 18          	mov    rax,QWORD PTR [rdi+0x18]
313b:	48 89 fb             	mov    rbx,rdi
313e:	48 8b 77 20          	mov    rsi,QWORD PTR [rdi+0x20]
3142:	48 89 d5             	mov    rbp,rdx
3145:	48 8b 7f 28          	mov    rdi,QWORD PTR [rdi+0x28]
3149:	48 39 f0             	cmp    rax,rsi
314c:	73 22                	jae    3170 <extract_field+0x40>
314e:	48 89 c2             	mov    rdx,rax
3151:	48 83 c0 01          	add    rax,0x1
3155:	48 c1 e2 04          	shl    rdx,0x4
3159:	48 01 d7             	add    rdi,rdx
315c:	4c 89 27             	mov    QWORD PTR [rdi],r12
315f:	48 89 6f 08          	mov    QWORD PTR [rdi+0x8],rbp
3163:	48 89 43 18          	mov    QWORD PTR [rbx+0x18],rax
3167:	5b                   	pop    rbx
3168:	5d                   	pop    rbp
3169:	41 5c                	pop    r12
316b:	c3                   	ret
316c:	0f 1f 40 00          	nop    DWORD PTR [rax+0x0]
3170:	48 85 ff             	test   rdi,rdi
3173:	74 3b                	je     31b0 <extract_field+0x80>
3175:	48 b8 54 55 55 55 55 	movabs rax,0x555555555555554
317c:	55 55 05
317f:	48 39 c6             	cmp    rsi,rax
3182:	77 51                	ja     31d5 <extract_field+0xa5>
3184:	48 89 f0             	mov    rax,rsi
3187:	48 d1 e8             	shr    rax,1
318a:	48 8d 74 06 01       	lea    rsi,[rsi+rax*1+0x1]
318f:	48 89 73 20          	mov    QWORD PTR [rbx+0x20],rsi
3193:	48 c1 e6 04          	shl    rsi,0x4
3197:	e8 64 32 00 00       	call   6400 <xrealloc>
319c:	48 89 c7             	mov    rdi,rax
319f:	48 89 43 28          	mov    QWORD PTR [rbx+0x28],rax
31a3:	48 8b 43 18          	mov    rax,QWORD PTR [rbx+0x18]
31a7:	eb a5                	jmp    314e <extract_field+0x1e>
31a9:	0f 1f 80 00 00 00 00 	nop    DWORD PTR [rax+0x0]
31b0:	48 85 f6             	test   rsi,rsi
31b3:	b8 08 00 00 00       	mov    eax,0x8
31b8:	ba 10 00 00 00       	mov    edx,0x10
31bd:	48 0f 44 f0          	cmove  rsi,rax
31c1:	48 89 d0             	mov    rax,rdx
31c4:	31 c9                	xor    ecx,ecx
31c6:	48 f7 e6             	mul    rsi
31c9:	70 0f                	jo     31da <extract_field+0xaa>
31cb:	48 85 c0             	test   rax,rax
31ce:	78 05                	js     31d5 <extract_field+0xa5>
31d0:	48 85 c9             	test   rcx,rcx
31d3:	74 ba                	je     318f <extract_field+0x5f>
31d5:	e8 16 34 00 00       	call   65f0 <xalloc_die>
31da:	b9 01 00 00 00       	mov    ecx,0x1
31df:	eb ea                	jmp    31cb <extract_field+0x9b>
31e1:	0f 1f 44 00 00       	nop    DWORD PTR [rax+rax*1+0x0]
31e6:	66 2e 0f 1f 84 00 00 	nop    WORD PTR cs:[rax+rax*1+0x0]
31ed:	00 00 00

00000000000031f0 <get_line>:
31f0:	41 57                	push   r15
31f2:	41 56                	push   r14
31f4:	49 89 fe             	mov    r14,rdi
31f7:	41 55                	push   r13
31f9:	41 54                	push   r12
31fb:	4c 8d 25 ce 7f 20 00 	lea    r12,[rip+0x207fce]        # 20b1d0 <prevline>
3202:	55                   	push   rbp
3203:	53                   	push   rbx
3204:	8d 5a ff             	lea    ebx,[rdx-0x1]
3207:	48 89 f5             	mov    rbp,rsi
320a:	48 63 db             	movsxd rbx,ebx
320d:	48 83 ec 18          	sub    rsp,0x18
3211:	4c 8b 2e             	mov    r13,QWORD PTR [rsi]
3214:	4d 39 2c dc          	cmp    QWORD PTR [r12+rbx*8],r13
3218:	89 54 24 0c          	mov    DWORD PTR [rsp+0xc],edx
321c:	0f 84 de 02 00 00    	je     3500 <get_line+0x310>
3222:	4d 85 ed             	test   r13,r13
3225:	0f 84 f3 02 00 00    	je     351e <get_line+0x32e>
322b:	49 c7 45 18 00 00 00 	mov    QWORD PTR [r13+0x18],0x0
3232:	00
3233:	0f be 15 d6 7d 20 00 	movsx  edx,BYTE PTR [rip+0x207dd6]        # 20b010 <eolchar>
323a:	4c 89 f6             	mov    rsi,r14
323d:	4c 89 ef             	mov    rdi,r13
3240:	e8 7b 0c 00 00       	call   3ec0 <readlinebuffer_delim>
3245:	48 85 c0             	test   rax,rax
3248:	0f 84 82 02 00 00    	je     34d0 <get_line+0x2e0>
324e:	48 8d 05 6b 7f 20 00 	lea    rax,[rip+0x207f6b]        # 20b1c0 <line_no>
3255:	4d 8b 75 10          	mov    r14,QWORD PTR [r13+0x10]
3259:	48 83 04 d8 01       	add    QWORD PTR [rax+rbx*8],0x1
325e:	49 8b 45 08          	mov    rax,QWORD PTR [r13+0x8]
3262:	4c 8d 78 ff          	lea    r15,[rax-0x1]
3266:	4b 8d 2c 3e          	lea    rbp,[r14+r15*1]
326a:	49 39 ee             	cmp    r14,rbp
326d:	0f 84 de 00 00 00    	je     3351 <get_line+0x161>
3273:	8b 35 9b 7d 20 00    	mov    esi,DWORD PTR [rip+0x207d9b]        # 20b014 <tab>
3279:	85 f6                	test   esi,esi
327b:	78 09                	js     3286 <get_line+0x96>
327d:	83 fe 0a             	cmp    esi,0xa
3280:	0f 85 1d 02 00 00    	jne    34a3 <get_line+0x2b3>
3286:	85 f6                	test   esi,esi
3288:	0f 89 b5 00 00 00    	jns    3343 <get_line+0x153>
328e:	e8 fd e6 ff ff       	call   1990 <__ctype_b_loc@plt>
3293:	48 8b 10             	mov    rdx,QWORD PTR [rax]
3296:	49 89 c7             	mov    r15,rax
3299:	0f 1f 80 00 00 00 00 	nop    DWORD PTR [rax+0x0]
32a0:	41 0f b6 3e          	movzx  edi,BYTE PTR [r14]
32a4:	49 8d 46 01          	lea    rax,[r14+0x1]
32a8:	f6 04 7a 01          	test   BYTE PTR [rdx+rdi*2],0x1
32ac:	0f 85 ae 02 00 00    	jne    3560 <get_line+0x370>
32b2:	40 80 ff 0a          	cmp    dil,0xa
32b6:	0f 84 a4 02 00 00    	je     3560 <get_line+0x370>
32bc:	48 39 c5             	cmp    rbp,rax
32bf:	0f 84 b3 02 00 00    	je     3578 <get_line+0x388>
32c5:	41 0f b6 7e 01       	movzx  edi,BYTE PTR [r14+0x1]
32ca:	f6 04 7a 01          	test   BYTE PTR [rdx+rdi*2],0x1
32ce:	48 89 fe             	mov    rsi,rdi
32d1:	75 25                	jne    32f8 <get_line+0x108>
32d3:	40 80 fe 0a          	cmp    sil,0xa
32d7:	74 1f                	je     32f8 <get_line+0x108>
32d9:	48 83 c0 01          	add    rax,0x1
32dd:	48 39 c5             	cmp    rbp,rax
32e0:	0f 84 92 02 00 00    	je     3578 <get_line+0x388>
32e6:	0f b6 38             	movzx  edi,BYTE PTR [rax]
32e9:	f6 04 7a 01          	test   BYTE PTR [rdx+rdi*2],0x1
32ed:	48 89 fe             	mov    rsi,rdi
32f0:	74 e1                	je     32d3 <get_line+0xe3>
32f2:	66 0f 1f 44 00 00    	nop    WORD PTR [rax+rax*1+0x0]
32f8:	48 89 c2             	mov    rdx,rax
32fb:	4c 89 f6             	mov    rsi,r14
32fe:	4c 89 ef             	mov    rdi,r13
3301:	4c 29 f2             	sub    rdx,r14
3304:	48 89 04 24          	mov    QWORD PTR [rsp],rax
3308:	e8 23 fe ff ff       	call   3130 <extract_field>
330d:	48 8b 04 24          	mov    rax,QWORD PTR [rsp]
3311:	4c 8d 70 01          	lea    r14,[rax+0x1]
3315:	4c 39 f5             	cmp    rbp,r14
3318:	74 26                	je     3340 <get_line+0x150>
331a:	0f b6 70 01          	movzx  esi,BYTE PTR [rax+0x1]
331e:	49 8b 17             	mov    rdx,QWORD PTR [r15]
3321:	f6 04 72 01          	test   BYTE PTR [rdx+rsi*2],0x1
3325:	48 89 f0             	mov    rax,rsi
3328:	0f 85 12 02 00 00    	jne    3540 <get_line+0x350>
332e:	3c 0a                	cmp    al,0xa
3330:	0f 84 0a 02 00 00    	je     3540 <get_line+0x350>
3336:	49 8d 46 01          	lea    rax,[r14+0x1]
333a:	eb 80                	jmp    32bc <get_line+0xcc>
333c:	0f 1f 40 00          	nop    DWORD PTR [rax+0x0]
3340:	45 31 ff             	xor    r15d,r15d
3343:	4c 89 fa             	mov    rdx,r15
3346:	4c 89 f6             	mov    rsi,r14
3349:	4c 89 ef             	mov    rdi,r13
334c:	e8 df fd ff ff       	call   3130 <extract_field>
3351:	49 8b 04 dc          	mov    rax,QWORD PTR [r12+rbx*8]
3355:	48 85 c0             	test   rax,rax
3358:	0f 84 02 01 00 00    	je     3460 <get_line+0x270>
335e:	8b 15 ec 7d 20 00    	mov    edx,DWORD PTR [rip+0x207dec]        # 20b150 <check_input_order>
3364:	83 fa 02             	cmp    edx,0x2
3367:	0f 84 f3 00 00 00    	je     3460 <get_line+0x270>
336d:	83 fa 01             	cmp    edx,0x1
3370:	74 0d                	je     337f <get_line+0x18f>
3372:	80 3d 21 7e 20 00 00 	cmp    BYTE PTR [rip+0x207e21],0x0        # 20b19a <seen_unpairable>
3379:	0f 84 e1 00 00 00    	je     3460 <get_line+0x270>
337f:	48 8d 2d 12 7e 20 00 	lea    rbp,[rip+0x207e12]        # 20b198 <issued_disorder_warning>
3386:	80 7c 1d 00 00       	cmp    BYTE PTR [rbp+rbx*1+0x0],0x0
338b:	0f 85 cf 00 00 00    	jne    3460 <get_line+0x270>
3391:	83 7c 24 0c 01       	cmp    DWORD PTR [rsp+0xc],0x1
3396:	4c 8b 05 83 7c 20 00 	mov    r8,QWORD PTR [rip+0x207c83]        # 20b020 <join_field_1>
339d:	49 8d 4d 28          	lea    rcx,[r13+0x28]
33a1:	4c 0f 45 05 6f 7c 20 	cmovne r8,QWORD PTR [rip+0x207c6f]        # 20b018 <join_field_2>
33a8:	00
33a9:	49 8b 55 18          	mov    rdx,QWORD PTR [r13+0x18]
33ad:	48 8d 70 28          	lea    rsi,[rax+0x28]
33b1:	48 8b 78 18          	mov    rdi,QWORD PTR [rax+0x18]
33b5:	4d 89 c1             	mov    r9,r8
33b8:	e8 83 f9 ff ff       	call   2d40 <keycmp.isra.4>
33bd:	85 c0                	test   eax,eax
33bf:	0f 8e 9b 00 00 00    	jle    3460 <get_line+0x270>
33c5:	49 8b 45 08          	mov    rax,QWORD PTR [r13+0x8]
33c9:	45 31 c9             	xor    r9d,r9d
33cc:	4d 8b 75 10          	mov    r14,QWORD PTR [r13+0x10]
33d0:	48 85 c0             	test   rax,rax
33d3:	74 22                	je     33f7 <get_line+0x207>
33d5:	41 80 7c 06 ff 0a    	cmp    BYTE PTR [r14+rax*1-0x1],0xa
33db:	48 8d 50 ff          	lea    rdx,[rax-0x1]
33df:	0f 84 a9 01 00 00    	je     358e <get_line+0x39e>
33e5:	48 3d ff ff ff 7f    	cmp    rax,0x7fffffff
33eb:	ba ff ff ff 7f       	mov    edx,0x7fffffff
33f0:	48 0f 46 d0          	cmovbe rdx,rax
33f4:	49 89 d1             	mov    r9,rdx
33f7:	48 8d 05 c2 7d 20 00 	lea    rax,[rip+0x207dc2]        # 20b1c0 <line_no>
33fe:	48 8d 35 7b 49 00 00 	lea    rsi,[rip+0x497b]        # 7d80 <_IO_stdin_used+0xa60>
3405:	31 ff                	xor    edi,edi
3407:	ba 05 00 00 00       	mov    edx,0x5
340c:	44 89 4c 24 0c       	mov    DWORD PTR [rsp+0xc],r9d
3411:	4c 8b 3c d8          	mov    r15,QWORD PTR [rax+rbx*8]
3415:	48 8d 05 94 7d 20 00 	lea    rax,[rip+0x207d94]        # 20b1b0 <g_names>
341c:	48 8b 0c d8          	mov    rcx,QWORD PTR [rax+rbx*8]
3420:	48 89 0c 24          	mov    QWORD PTR [rsp],rcx
3424:	e8 c7 e2 ff ff       	call   16f0 <dcgettext@plt>
3429:	31 ff                	xor    edi,edi
342b:	83 3d 1e 7d 20 00 01 	cmp    DWORD PTR [rip+0x207d1e],0x1        # 20b150 <check_input_order>
3432:	48 89 c2             	mov    rdx,rax
3435:	4d 89 f8             	mov    r8,r15
3438:	40 0f 94 c7          	sete   dil
343c:	48 83 ec 08          	sub    rsp,0x8
3440:	31 c0                	xor    eax,eax
3442:	41 56                	push   r14
3444:	44 8b 4c 24 1c       	mov    r9d,DWORD PTR [rsp+0x1c]
3449:	31 f6                	xor    esi,esi
344b:	48 8b 4c 24 10       	mov    rcx,QWORD PTR [rsp+0x10]
3450:	e8 9b e4 ff ff       	call   18f0 <error@plt>
3455:	c6 44 1d 00 01       	mov    BYTE PTR [rbp+rbx*1+0x0],0x1
345a:	58                   	pop    rax
345b:	5a                   	pop    rdx
345c:	0f 1f 40 00          	nop    DWORD PTR [rax+0x0]
3460:	4d 89 2c dc          	mov    QWORD PTR [r12+rbx*8],r13
3464:	b8 01 00 00 00       	mov    eax,0x1
3469:	48 83 c4 18          	add    rsp,0x18
346d:	5b                   	pop    rbx
346e:	5d                   	pop    rbp
346f:	41 5c                	pop    r12
3471:	41 5d                	pop    r13
3473:	41 5e                	pop    r14
3475:	41 5f                	pop    r15
3477:	c3                   	ret
3478:	0f 1f 84 00 00 00 00 	nop    DWORD PTR [rax+rax*1+0x0]
347f:	00
3480:	48 89 c2             	mov    rdx,rax
3483:	4c 89 f6             	mov    rsi,r14
3486:	4c 89 ef             	mov    rdi,r13
3489:	4c 29 f2             	sub    rdx,r14
348c:	48 89 04 24          	mov    QWORD PTR [rsp],rax
3490:	e8 9b fc ff ff       	call   3130 <extract_field>
3495:	48 8b 04 24          	mov    rax,QWORD PTR [rsp]
3499:	8b 35 75 7b 20 00    	mov    esi,DWORD PTR [rip+0x207b75]        # 20b014 <tab>
349f:	4c 8d 70 01          	lea    r14,[rax+0x1]
34a3:	49 89 ef             	mov    r15,rbp
34a6:	4c 89 f7             	mov    rdi,r14
34a9:	4d 29 f7             	sub    r15,r14
34ac:	4c 89 fa             	mov    rdx,r15
34af:	e8 1c e3 ff ff       	call   17d0 <memchr@plt>
34b4:	48 85 c0             	test   rax,rax
34b7:	75 c7                	jne    3480 <get_line+0x290>
34b9:	4c 89 fa             	mov    rdx,r15
34bc:	4c 89 f6             	mov    rsi,r14
34bf:	4c 89 ef             	mov    rdi,r13
34c2:	e8 69 fc ff ff       	call   3130 <extract_field>
34c7:	e9 85 fe ff ff       	jmp    3351 <get_line+0x161>
34cc:	0f 1f 40 00          	nop    DWORD PTR [rax+0x0]
34d0:	41 f6 06 20          	test   BYTE PTR [r14],0x20
34d4:	0f 85 cc 00 00 00    	jne    35a6 <get_line+0x3b6>
34da:	31 c0                	xor    eax,eax
34dc:	4d 85 ed             	test   r13,r13
34df:	74 88                	je     3469 <get_line+0x279>
34e1:	4c 89 ef             	mov    rdi,r13
34e4:	88 04 24             	mov    BYTE PTR [rsp],al
34e7:	e8 84 f7 ff ff       	call   2c70 <freeline.part.2>
34ec:	0f b6 04 24          	movzx  eax,BYTE PTR [rsp]
34f0:	48 83 c4 18          	add    rsp,0x18
34f4:	5b                   	pop    rbx
34f5:	5d                   	pop    rbp
34f6:	41 5c                	pop    r12
34f8:	41 5d                	pop    r13
34fa:	41 5e                	pop    r14
34fc:	41 5f                	pop    r15
34fe:	c3                   	ret
34ff:	90                   	nop
3500:	48 8d 15 99 7c 20 00 	lea    rdx,[rip+0x207c99]        # 20b1a0 <spareline>
3507:	48 8b 04 da          	mov    rax,QWORD PTR [rdx+rbx*8]
350b:	4c 89 2c da          	mov    QWORD PTR [rdx+rbx*8],r13
350f:	49 89 c5             	mov    r13,rax
3512:	48 89 06             	mov    QWORD PTR [rsi],rax
3515:	4d 85 ed             	test   r13,r13
3518:	0f 85 0d fd ff ff    	jne    322b <get_line+0x3b>
351e:	be 30 00 00 00       	mov    esi,0x30
3523:	bf 01 00 00 00       	mov    edi,0x1
3528:	e8 43 30 00 00       	call   6570 <xcalloc>
352d:	49 89 c5             	mov    r13,rax
3530:	48 89 45 00          	mov    QWORD PTR [rbp+0x0],rax
3534:	e9 fa fc ff ff       	jmp    3233 <get_line+0x43>
3539:	0f 1f 80 00 00 00 00 	nop    DWORD PTR [rax+0x0]
3540:	49 83 c6 01          	add    r14,0x1
3544:	4c 39 f5             	cmp    rbp,r14
3547:	0f 84 f3 fd ff ff    	je     3340 <get_line+0x150>
354d:	41 0f b6 36          	movzx  esi,BYTE PTR [r14]
3551:	f6 04 72 01          	test   BYTE PTR [rdx+rsi*2],0x1
3555:	48 89 f0             	mov    rax,rsi
3558:	0f 84 d0 fd ff ff    	je     332e <get_line+0x13e>
355e:	eb e0                	jmp    3540 <get_line+0x350>
3560:	48 39 c5             	cmp    rbp,rax
3563:	49 89 c6             	mov    r14,rax
3566:	0f 85 34 fd ff ff    	jne    32a0 <get_line+0xb0>
356c:	e9 e0 fd ff ff       	jmp    3351 <get_line+0x161>
3571:	0f 1f 80 00 00 00 00 	nop    DWORD PTR [rax+0x0]
3578:	4c 29 f0             	sub    rax,r14
357b:	4c 89 f6             	mov    rsi,r14
357e:	4c 89 ef             	mov    rdi,r13
3581:	48 89 c2             	mov    rdx,rax
3584:	e8 a7 fb ff ff       	call   3130 <extract_field>
3589:	e9 c3 fd ff ff       	jmp    3351 <get_line+0x161>
358e:	48 81 fa ff ff ff 7f 	cmp    rdx,0x7fffffff
3595:	b8 ff ff ff 7f       	mov    eax,0x7fffffff
359a:	48 0f 46 c2          	cmovbe rax,rdx
359e:	49 89 c1             	mov    r9,rax
35a1:	e9 51 fe ff ff       	jmp    33f7 <get_line+0x207>
35a6:	48 8d 35 c8 47 00 00 	lea    rsi,[rip+0x47c8]        # 7d75 <_IO_stdin_used+0xa55>
35ad:	ba 05 00 00 00       	mov    edx,0x5
35b2:	31 ff                	xor    edi,edi
35b4:	e8 37 e1 ff ff       	call   16f0 <dcgettext@plt>
35b9:	48 89 c3             	mov    rbx,rax
35bc:	e8 af e0 ff ff       	call   1670 <__errno_location@plt>
35c1:	8b 30                	mov    esi,DWORD PTR [rax]
35c3:	48 89 da             	mov    rdx,rbx
35c6:	bf 01 00 00 00       	mov    edi,0x1
35cb:	31 c0                	xor    eax,eax
35cd:	e8 1e e3 ff ff       	call   18f0 <error@plt>
35d2:	0f 1f 40 00          	nop    DWORD PTR [rax+0x0]
35d6:	66 2e 0f 1f 84 00 00 	nop    WORD PTR cs:[rax+rax*1+0x0]
35dd:	00 00 00

00000000000035e0 <getseq>:
35e0:	41 54                	push   r12
35e2:	55                   	push   rbp
35e3:	41 89 d4             	mov    r12d,edx
35e6:	53                   	push   rbx
35e7:	48 89 f3             	mov    rbx,rsi
35ea:	48 8b 36             	mov    rsi,QWORD PTR [rsi]
35ed:	48 3b 73 08          	cmp    rsi,QWORD PTR [rbx+0x8]
35f1:	48 89 fd             	mov    rbp,rdi
35f4:	48 8b 7b 10          	mov    rdi,QWORD PTR [rbx+0x10]
35f8:	74 26                	je     3620 <getseq+0x40>
35fa:	48 8d 34 f7          	lea    rsi,[rdi+rsi*8]
35fe:	44 89 e2             	mov    edx,r12d
3601:	48 89 ef             	mov    rdi,rbp
3604:	e8 e7 fb ff ff       	call   31f0 <get_line>
3609:	84 c0                	test   al,al
360b:	74 04                	je     3611 <getseq+0x31>
360d:	48 83 03 01          	add    QWORD PTR [rbx],0x1
3611:	5b                   	pop    rbx
3612:	5d                   	pop    rbp
3613:	41 5c                	pop    r12
3615:	c3                   	ret
3616:	66 2e 0f 1f 84 00 00 	nop    WORD PTR cs:[rax+rax*1+0x0]
361d:	00 00 00
3620:	48 85 ff             	test   rdi,rdi
3623:	74 63                	je     3688 <getseq+0xa8>
3625:	48 b8 a9 aa aa aa aa 	movabs rax,0xaaaaaaaaaaaaaa9
362c:	aa aa 0a
362f:	48 39 c6             	cmp    rsi,rax
3632:	77 79                	ja     36ad <getseq+0xcd>
3634:	48 89 f0             	mov    rax,rsi
3637:	48 d1 e8             	shr    rax,1
363a:	48 8d 74 06 01       	lea    rsi,[rsi+rax*1+0x1]
363f:	48 89 73 08          	mov    QWORD PTR [rbx+0x8],rsi
3643:	48 c1 e6 03          	shl    rsi,0x3
3647:	e8 b4 2d 00 00       	call   6400 <xrealloc>
364c:	48 8b 33             	mov    rsi,QWORD PTR [rbx]
364f:	48 8b 53 08          	mov    rdx,QWORD PTR [rbx+0x8]
3653:	48 89 c7             	mov    rdi,rax
3656:	48 89 43 10          	mov    QWORD PTR [rbx+0x10],rax
365a:	48 39 d6             	cmp    rsi,rdx
365d:	73 9b                	jae    35fa <getseq+0x1a>
365f:	48 8d 04 f0          	lea    rax,[rax+rsi*8]
3663:	48 8d 14 d7          	lea    rdx,[rdi+rdx*8]
3667:	66 0f 1f 84 00 00 00 	nop    WORD PTR [rax+rax*1+0x0]
366e:	00 00
3670:	48 c7 00 00 00 00 00 	mov    QWORD PTR [rax],0x0
3677:	48 83 c0 08          	add    rax,0x8
367b:	48 39 d0             	cmp    rax,rdx
367e:	75 f0                	jne    3670 <getseq+0x90>
3680:	e9 75 ff ff ff       	jmp    35fa <getseq+0x1a>
3685:	0f 1f 00             	nop    DWORD PTR [rax]
3688:	48 85 f6             	test   rsi,rsi
368b:	b8 10 00 00 00       	mov    eax,0x10
3690:	ba 08 00 00 00       	mov    edx,0x8
3695:	48 0f 44 f0          	cmove  rsi,rax
3699:	48 89 d0             	mov    rax,rdx
369c:	31 c9                	xor    ecx,ecx
369e:	48 f7 e6             	mul    rsi
36a1:	70 0f                	jo     36b2 <getseq+0xd2>
36a3:	48 85 c0             	test   rax,rax
36a6:	78 05                	js     36ad <getseq+0xcd>
36a8:	48 85 c9             	test   rcx,rcx
36ab:	74 92                	je     363f <getseq+0x5f>
36ad:	e8 3e 2f 00 00       	call   65f0 <xalloc_die>
36b2:	b9 01 00 00 00       	mov    ecx,0x1
36b7:	eb ea                	jmp    36a3 <getseq+0xc3>
36b9:	0f 1f 80 00 00 00 00 	nop    DWORD PTR [rax+0x0]

00000000000036c0 <usage>:
36c0:	41 55                	push   r13
36c2:	41 54                	push   r12
36c4:	ba 05 00 00 00       	mov    edx,0x5
36c9:	55                   	push   rbp
36ca:	53                   	push   rbx
36cb:	89 fd                	mov    ebp,edi
36cd:	48 81 ec 88 00 00 00 	sub    rsp,0x88
36d4:	48 8b 1d 15 7b 20 00 	mov    rbx,QWORD PTR [rip+0x207b15]        # 20b1f0 <program_name>
36db:	64 48 8b 04 25 28 00 	mov    rax,QWORD PTR fs:0x28
36e2:	00 00
36e4:	48 89 44 24 78       	mov    QWORD PTR [rsp+0x78],rax
36e9:	31 c0                	xor    eax,eax
36eb:	85 ff                	test   edi,edi
36ed:	74 2e                	je     371d <usage+0x5d>
36ef:	48 8d 35 82 3c 00 00 	lea    rsi,[rip+0x3c82]        # 7378 <_IO_stdin_used+0x58>
36f6:	31 ff                	xor    edi,edi
36f8:	e8 f3 df ff ff       	call   16f0 <dcgettext@plt>
36fd:	48 8b 3d dc 79 20 00 	mov    rdi,QWORD PTR [rip+0x2079dc]        # 20b0e0 <stderr@@GLIBC_2.2.5>
3704:	48 89 c2             	mov    rdx,rax
3707:	48 89 d9             	mov    rcx,rbx
370a:	be 01 00 00 00       	mov    esi,0x1
370f:	31 c0                	xor    eax,eax
3711:	e8 4a e2 ff ff       	call   1960 <__fprintf_chk@plt>
3716:	89 ef                	mov    edi,ebp
3718:	e8 23 e2 ff ff       	call   1940 <exit@plt>
371d:	48 8d 35 7c 3c 00 00 	lea    rsi,[rip+0x3c7c]        # 73a0 <_IO_stdin_used+0x80>
3724:	31 ff                	xor    edi,edi
3726:	e8 c5 df ff ff       	call   16f0 <dcgettext@plt>
372b:	48 89 da             	mov    rdx,rbx
372e:	48 89 c6             	mov    rsi,rax
3731:	bf 01 00 00 00       	mov    edi,0x1
3736:	31 c0                	xor    eax,eax
3738:	e8 a3 e1 ff ff       	call   18e0 <__printf_chk@plt>
373d:	48 8b 1d 64 79 20 00 	mov    rbx,QWORD PTR [rip+0x207964]        # 20b0a8 <stdout@@GLIBC_2.2.5>
3744:	48 8d 35 7d 3c 00 00 	lea    rsi,[rip+0x3c7d]        # 73c8 <_IO_stdin_used+0xa8>
374b:	ba 05 00 00 00       	mov    edx,0x5
3750:	31 ff                	xor    edi,edi
3752:	e8 99 df ff ff       	call   16f0 <dcgettext@plt>
3757:	48 89 de             	mov    rsi,rbx
375a:	48 89 c7             	mov    rdi,rax
375d:	e8 8e e0 ff ff       	call   17f0 <fputs_unlocked@plt>
3762:	48 8b 1d 3f 79 20 00 	mov    rbx,QWORD PTR [rip+0x20793f]        # 20b0a8 <stdout@@GLIBC_2.2.5>
3769:	48 8d 35 f0 3c 00 00 	lea    rsi,[rip+0x3cf0]        # 7460 <_IO_stdin_used+0x140>
3770:	ba 05 00 00 00       	mov    edx,0x5
3775:	31 ff                	xor    edi,edi
3777:	e8 74 df ff ff       	call   16f0 <dcgettext@plt>
377c:	48 89 de             	mov    rsi,rbx
377f:	48 89 c7             	mov    rdi,rax
3782:	e8 69 e0 ff ff       	call   17f0 <fputs_unlocked@plt>
3787:	48 8b 1d 1a 79 20 00 	mov    rbx,QWORD PTR [rip+0x20791a]        # 20b0a8 <stdout@@GLIBC_2.2.5>
378e:	48 8d 35 0b 3d 00 00 	lea    rsi,[rip+0x3d0b]        # 74a0 <_IO_stdin_used+0x180>
3795:	ba 05 00 00 00       	mov    edx,0x5
379a:	31 ff                	xor    edi,edi
379c:	e8 4f df ff ff       	call   16f0 <dcgettext@plt>
37a1:	48 89 de             	mov    rsi,rbx
37a4:	48 89 c7             	mov    rdi,rax
37a7:	e8 44 e0 ff ff       	call   17f0 <fputs_unlocked@plt>
37ac:	48 8b 1d f5 78 20 00 	mov    rbx,QWORD PTR [rip+0x2078f5]        # 20b0a8 <stdout@@GLIBC_2.2.5>
37b3:	48 8d 35 b6 3d 00 00 	lea    rsi,[rip+0x3db6]        # 7570 <_IO_stdin_used+0x250>
37ba:	ba 05 00 00 00       	mov    edx,0x5
37bf:	31 ff                	xor    edi,edi
37c1:	e8 2a df ff ff       	call   16f0 <dcgettext@plt>
37c6:	48 89 de             	mov    rsi,rbx
37c9:	48 89 c7             	mov    rdi,rax
37cc:	e8 1f e0 ff ff       	call   17f0 <fputs_unlocked@plt>
37d1:	48 8b 1d d0 78 20 00 	mov    rbx,QWORD PTR [rip+0x2078d0]        # 20b0a8 <stdout@@GLIBC_2.2.5>
37d8:	48 8d 35 91 3e 00 00 	lea    rsi,[rip+0x3e91]        # 7670 <_IO_stdin_used+0x350>
37df:	ba 05 00 00 00       	mov    edx,0x5
37e4:	31 ff                	xor    edi,edi
37e6:	e8 05 df ff ff       	call   16f0 <dcgettext@plt>
37eb:	48 89 de             	mov    rsi,rbx
37ee:	48 89 c7             	mov    rdi,rax
37f1:	e8 fa df ff ff       	call   17f0 <fputs_unlocked@plt>
37f6:	48 8b 1d ab 78 20 00 	mov    rbx,QWORD PTR [rip+0x2078ab]        # 20b0a8 <stdout@@GLIBC_2.2.5>
37fd:	48 8d 35 5c 40 00 00 	lea    rsi,[rip+0x405c]        # 7860 <_IO_stdin_used+0x540>
3804:	ba 05 00 00 00       	mov    edx,0x5
3809:	31 ff                	xor    edi,edi
380b:	e8 e0 de ff ff       	call   16f0 <dcgettext@plt>
3810:	48 89 de             	mov    rsi,rbx
3813:	48 89 c7             	mov    rdi,rax
3816:	e8 d5 df ff ff       	call   17f0 <fputs_unlocked@plt>
381b:	48 8b 1d 86 78 20 00 	mov    rbx,QWORD PTR [rip+0x207886]        # 20b0a8 <stdout@@GLIBC_2.2.5>
3822:	48 8d 35 77 40 00 00 	lea    rsi,[rip+0x4077]        # 78a0 <_IO_stdin_used+0x580>
3829:	ba 05 00 00 00       	mov    edx,0x5
382e:	31 ff                	xor    edi,edi
3830:	e8 bb de ff ff       	call   16f0 <dcgettext@plt>
3835:	48 89 de             	mov    rsi,rbx
3838:	48 89 c7             	mov    rdi,rax
383b:	e8 b0 df ff ff       	call   17f0 <fputs_unlocked@plt>
3840:	48 8b 1d 61 78 20 00 	mov    rbx,QWORD PTR [rip+0x207861]        # 20b0a8 <stdout@@GLIBC_2.2.5>
3847:	48 8d 35 82 40 00 00 	lea    rsi,[rip+0x4082]        # 78d0 <_IO_stdin_used+0x5b0>
384e:	ba 05 00 00 00       	mov    edx,0x5
3853:	31 ff                	xor    edi,edi
3855:	e8 96 de ff ff       	call   16f0 <dcgettext@plt>
385a:	48 89 de             	mov    rsi,rbx
385d:	48 89 c7             	mov    rdi,rax
3860:	e8 8b df ff ff       	call   17f0 <fputs_unlocked@plt>
3865:	48 8b 1d 3c 78 20 00 	mov    rbx,QWORD PTR [rip+0x20783c]        # 20b0a8 <stdout@@GLIBC_2.2.5>
386c:	48 8d 35 95 40 00 00 	lea    rsi,[rip+0x4095]        # 7908 <_IO_stdin_used+0x5e8>
3873:	ba 05 00 00 00       	mov    edx,0x5
3878:	31 ff                	xor    edi,edi
387a:	e8 71 de ff ff       	call   16f0 <dcgettext@plt>
387f:	48 89 de             	mov    rsi,rbx
3882:	48 89 c7             	mov    rdi,rax
3885:	48 8d 1d 10 45 00 00 	lea    rbx,[rip+0x4510]        # 7d9c <_IO_stdin_used+0xa7c>
388c:	e8 5f df ff ff       	call   17f0 <fputs_unlocked@plt>
3891:	48 8d 05 09 45 00 00 	lea    rax,[rip+0x4509]        # 7da1 <_IO_stdin_used+0xa81>
3898:	48 8d 0d 43 45 00 00 	lea    rcx,[rip+0x4543]        # 7de2 <_IO_stdin_used+0xac2>
389f:	48 c7 44 24 60 00 00 	mov    QWORD PTR [rsp+0x60],0x0
38a6:	00 00
38a8:	48 c7 44 24 68 00 00 	mov    QWORD PTR [rsp+0x68],0x0
38af:	00 00
38b1:	48 89 e2             	mov    rdx,rsp
38b4:	48 89 04 24          	mov    QWORD PTR [rsp],rax
38b8:	48 8d 05 e4 44 00 00 	lea    rax,[rip+0x44e4]        # 7da3 <_IO_stdin_used+0xa83>
38bf:	48 89 4c 24 30       	mov    QWORD PTR [rsp+0x30],rcx
38c4:	48 8d 0d 21 45 00 00 	lea    rcx,[rip+0x4521]        # 7dec <_IO_stdin_used+0xacc>
38cb:	48 89 44 24 08       	mov    QWORD PTR [rsp+0x8],rax
38d0:	48 8d 05 44 45 00 00 	lea    rax,[rip+0x4544]        # 7e1b <_IO_stdin_used+0xafb>
38d7:	48 89 4c 24 40       	mov    QWORD PTR [rsp+0x40],rcx
38dc:	48 8d 0d 13 45 00 00 	lea    rcx,[rip+0x4513]        # 7df6 <_IO_stdin_used+0xad6>
38e3:	48 89 44 24 10       	mov    QWORD PTR [rsp+0x10],rax
38e8:	48 8d 05 c4 44 00 00 	lea    rax,[rip+0x44c4]        # 7db3 <_IO_stdin_used+0xa93>
38ef:	48 89 4c 24 50       	mov    QWORD PTR [rsp+0x50],rcx
38f4:	48 89 44 24 18       	mov    QWORD PTR [rsp+0x18],rax
38f9:	48 8d 05 c9 44 00 00 	lea    rax,[rip+0x44c9]        # 7dc9 <_IO_stdin_used+0xaa9>
3900:	48 89 44 24 20       	mov    QWORD PTR [rsp+0x20],rax
3905:	48 8d 05 c7 44 00 00 	lea    rax,[rip+0x44c7]        # 7dd3 <_IO_stdin_used+0xab3>
390c:	48 89 44 24 28       	mov    QWORD PTR [rsp+0x28],rax
3911:	48 89 44 24 38       	mov    QWORD PTR [rsp+0x38],rax
3916:	48 89 44 24 48       	mov    QWORD PTR [rsp+0x48],rax
391b:	48 89 44 24 58       	mov    QWORD PTR [rsp+0x58],rax
3920:	48 83 c2 10          	add    rdx,0x10
3924:	48 8b 3a             	mov    rdi,QWORD PTR [rdx]
3927:	48 85 ff             	test   rdi,rdi
392a:	74 13                	je     393f <usage+0x27f>
392c:	b9 05 00 00 00       	mov    ecx,0x5
3931:	48 89 de             	mov    rsi,rbx
3934:	f3 a6                	repz cmps BYTE PTR ds:[rsi],BYTE PTR es:[rdi]
3936:	0f 97 c0             	seta   al
3939:	1c 00                	sbb    al,0x0
393b:	84 c0                	test   al,al
393d:	75 e1                	jne    3920 <usage+0x260>
393f:	4c 8b 62 08          	mov    r12,QWORD PTR [rdx+0x8]
3943:	31 ff                	xor    edi,edi
3945:	ba 05 00 00 00       	mov    edx,0x5
394a:	48 8d 35 af 44 00 00 	lea    rsi,[rip+0x44af]        # 7e00 <_IO_stdin_used+0xae0>
3951:	4d 85 e4             	test   r12,r12
3954:	0f 84 c1 00 00 00    	je     3a1b <usage+0x35b>
395a:	e8 91 dd ff ff       	call   16f0 <dcgettext@plt>
395f:	48 8d 0d da 42 00 00 	lea    rcx,[rip+0x42da]        # 7c40 <_IO_stdin_used+0x920>
3966:	48 8d 15 aa 44 00 00 	lea    rdx,[rip+0x44aa]        # 7e17 <_IO_stdin_used+0xaf7>
396d:	48 89 c6             	mov    rsi,rax
3970:	bf 01 00 00 00       	mov    edi,0x1
3975:	31 c0                	xor    eax,eax
3977:	e8 64 df ff ff       	call   18e0 <__printf_chk@plt>
397c:	31 f6                	xor    esi,esi
397e:	bf 05 00 00 00       	mov    edi,0x5
3983:	e8 48 df ff ff       	call   18d0 <setlocale@plt>
3988:	48 85 c0             	test   rax,rax
398b:	74 1c                	je     39a9 <usage+0x2e9>
398d:	48 8d 35 91 44 00 00 	lea    rsi,[rip+0x4491]        # 7e25 <_IO_stdin_used+0xb05>
3994:	ba 03 00 00 00       	mov    edx,0x3
3999:	48 89 c7             	mov    rdi,rax
399c:	e8 df dc ff ff       	call   1680 <strncmp@plt>
39a1:	85 c0                	test   eax,eax
39a3:	0f 85 07 01 00 00    	jne    3ab0 <usage+0x3f0>
39a9:	48 8d 35 79 44 00 00 	lea    rsi,[rip+0x4479]        # 7e29 <_IO_stdin_used+0xb09>
39b0:	31 ff                	xor    edi,edi
39b2:	ba 05 00 00 00       	mov    edx,0x5
39b7:	e8 34 dd ff ff       	call   16f0 <dcgettext@plt>
39bc:	48 8d 0d d9 43 00 00 	lea    rcx,[rip+0x43d9]        # 7d9c <_IO_stdin_used+0xa7c>
39c3:	48 8d 15 76 42 00 00 	lea    rdx,[rip+0x4276]        # 7c40 <_IO_stdin_used+0x920>
39ca:	48 89 c6             	mov    rsi,rax
39cd:	bf 01 00 00 00       	mov    edi,0x1
39d2:	31 c0                	xor    eax,eax
39d4:	e8 07 df ff ff       	call   18e0 <__printf_chk@plt>
39d9:	49 39 dc             	cmp    r12,rbx
39dc:	48 8d 0d da 43 00 00 	lea    rcx,[rip+0x43da]        # 7dbd <_IO_stdin_used+0xa9d>
39e3:	48 8d 1d 6e 43 00 00 	lea    rbx,[rip+0x436e]        # 7d58 <_IO_stdin_used+0xa38>
39ea:	48 0f 44 d9          	cmove  rbx,rcx
39ee:	48 8d 35 bb 42 00 00 	lea    rsi,[rip+0x42bb]        # 7cb0 <_IO_stdin_used+0x990>
39f5:	31 ff                	xor    edi,edi
39f7:	ba 05 00 00 00       	mov    edx,0x5
39fc:	e8 ef dc ff ff       	call   16f0 <dcgettext@plt>
3a01:	48 89 d9             	mov    rcx,rbx
3a04:	48 89 c6             	mov    rsi,rax
3a07:	4c 89 e2             	mov    rdx,r12
3a0a:	bf 01 00 00 00       	mov    edi,0x1
3a0f:	31 c0                	xor    eax,eax
3a11:	e8 ca de ff ff       	call   18e0 <__printf_chk@plt>
3a16:	e9 fb fc ff ff       	jmp    3716 <usage+0x56>
3a1b:	e8 d0 dc ff ff       	call   16f0 <dcgettext@plt>
3a20:	48 8d 0d 19 42 00 00 	lea    rcx,[rip+0x4219]        # 7c40 <_IO_stdin_used+0x920>
3a27:	48 8d 15 e9 43 00 00 	lea    rdx,[rip+0x43e9]        # 7e17 <_IO_stdin_used+0xaf7>
3a2e:	48 89 c6             	mov    rsi,rax
3a31:	bf 01 00 00 00       	mov    edi,0x1
3a36:	31 c0                	xor    eax,eax
3a38:	e8 a3 de ff ff       	call   18e0 <__printf_chk@plt>
3a3d:	31 f6                	xor    esi,esi
3a3f:	bf 05 00 00 00       	mov    edi,0x5
3a44:	e8 87 de ff ff       	call   18d0 <setlocale@plt>
3a49:	48 85 c0             	test   rax,rax
3a4c:	74 18                	je     3a66 <usage+0x3a6>
3a4e:	48 8d 35 d0 43 00 00 	lea    rsi,[rip+0x43d0]        # 7e25 <_IO_stdin_used+0xb05>
3a55:	ba 03 00 00 00       	mov    edx,0x3
3a5a:	48 89 c7             	mov    rdi,rax
3a5d:	e8 1e dc ff ff       	call   1680 <strncmp@plt>
3a62:	85 c0                	test   eax,eax
3a64:	75 43                	jne    3aa9 <usage+0x3e9>
3a66:	48 8d 35 bc 43 00 00 	lea    rsi,[rip+0x43bc]        # 7e29 <_IO_stdin_used+0xb09>
3a6d:	ba 05 00 00 00       	mov    edx,0x5
3a72:	31 ff                	xor    edi,edi
3a74:	4c 8d 25 21 43 00 00 	lea    r12,[rip+0x4321]        # 7d9c <_IO_stdin_used+0xa7c>
3a7b:	48 8d 1d 3b 43 00 00 	lea    rbx,[rip+0x433b]        # 7dbd <_IO_stdin_used+0xa9d>
3a82:	e8 69 dc ff ff       	call   16f0 <dcgettext@plt>
3a87:	48 8d 0d 0e 43 00 00 	lea    rcx,[rip+0x430e]        # 7d9c <_IO_stdin_used+0xa7c>
3a8e:	48 8d 15 ab 41 00 00 	lea    rdx,[rip+0x41ab]        # 7c40 <_IO_stdin_used+0x920>
3a95:	48 89 c6             	mov    rsi,rax
3a98:	bf 01 00 00 00       	mov    edi,0x1
3a9d:	31 c0                	xor    eax,eax
3a9f:	e8 3c de ff ff       	call   18e0 <__printf_chk@plt>
3aa4:	e9 45 ff ff ff       	jmp    39ee <usage+0x32e>
3aa9:	4c 8d 25 ec 42 00 00 	lea    r12,[rip+0x42ec]        # 7d9c <_IO_stdin_used+0xa7c>
3ab0:	4c 8b 2d f1 75 20 00 	mov    r13,QWORD PTR [rip+0x2075f1]        # 20b0a8 <stdout@@GLIBC_2.2.5>
3ab7:	48 8d 35 aa 41 00 00 	lea    rsi,[rip+0x41aa]        # 7c68 <_IO_stdin_used+0x948>
3abe:	31 ff                	xor    edi,edi
3ac0:	ba 05 00 00 00       	mov    edx,0x5
3ac5:	e8 26 dc ff ff       	call   16f0 <dcgettext@plt>
3aca:	4c 89 ee             	mov    rsi,r13
3acd:	48 89 c7             	mov    rdi,rax
3ad0:	e8 1b dd ff ff       	call   17f0 <fputs_unlocked@plt>
3ad5:	e9 cf fe ff ff       	jmp    39a9 <usage+0x2e9>
3ada:	66 0f 1f 44 00 00    	nop    WORD PTR [rax+rax*1+0x0]

0000000000003ae0 <add_file_name.constprop.7>:
3ae0:	41 56                	push   r14
3ae2:	41 55                	push   r13
3ae4:	49 89 fd             	mov    r13,rdi
3ae7:	41 54                	push   r12
3ae9:	55                   	push   rbp
3aea:	48 89 f5             	mov    rbp,rsi
3aed:	53                   	push   rbx
3aee:	48 83 ec 20          	sub    rsp,0x20
3af2:	8b 19                	mov    ebx,DWORD PTR [rcx]
3af4:	83 fb 02             	cmp    ebx,0x2
3af7:	74 47                	je     3b40 <add_file_name.constprop.7+0x60>
3af9:	48 63 c3             	movsxd rax,ebx
3afc:	4c 8d 25 ad 76 20 00 	lea    r12,[rip+0x2076ad]        # 20b1b0 <g_names>
3b03:	83 c3 01             	add    ebx,0x1
3b06:	48 8d 14 85 00 00 00 	lea    rdx,[rax*4+0x0]
3b0d:	00
3b0e:	48 c1 e0 03          	shl    rax,0x3
3b12:	41 8b 30             	mov    esi,DWORD PTR [r8]
3b15:	89 74 15 00          	mov    DWORD PTR [rbp+rdx*1+0x0],esi
3b19:	4d 89 2c 04          	mov    QWORD PTR [r12+rax*1],r13
3b1d:	89 19                	mov    DWORD PTR [rcx],ebx
3b1f:	41 83 38 03          	cmp    DWORD PTR [r8],0x3
3b23:	75 07                	jne    3b2c <add_file_name.constprop.7+0x4c>
3b25:	41 c7 01 03 00 00 00 	mov    DWORD PTR [r9],0x3
3b2c:	48 83 c4 20          	add    rsp,0x20
3b30:	5b                   	pop    rbx
3b31:	5d                   	pop    rbp
3b32:	41 5c                	pop    r12
3b34:	41 5d                	pop    r13
3b36:	41 5e                	pop    r14
3b38:	c3                   	ret
3b39:	0f 1f 80 00 00 00 00 	nop    DWORD PTR [rax+0x0]
3b40:	44 8b 36             	mov    r14d,DWORD PTR [rsi]
3b43:	31 c0                	xor    eax,eax
3b45:	4c 8d 25 64 76 20 00 	lea    r12,[rip+0x207664]        # 20b1b0 <g_names>
3b4c:	45 85 f6             	test   r14d,r14d
3b4f:	0f 94 c0             	sete   al
3b52:	49 8b 3c c4          	mov    rdi,QWORD PTR [r12+rax*8]
3b56:	8b 04 86             	mov    eax,DWORD PTR [rsi+rax*4]
3b59:	83 f8 01             	cmp    eax,0x1
3b5c:	0f 84 ae 00 00 00    	je     3c10 <add_file_name.constprop.7+0x130>
3b62:	0f 8e e8 00 00 00    	jle    3c50 <add_file_name.constprop.7+0x170>
3b68:	83 f8 02             	cmp    eax,0x2
3b6b:	74 53                	je     3bc0 <add_file_name.constprop.7+0xe0>
3b6d:	83 f8 03             	cmp    eax,0x3
3b70:	75 23                	jne    3b95 <add_file_name.constprop.7+0xb5>
3b72:	4c 89 4c 24 18       	mov    QWORD PTR [rsp+0x18],r9
3b77:	4c 89 44 24 10       	mov    QWORD PTR [rsp+0x10],r8
3b7c:	48 89 4c 24 08       	mov    QWORD PTR [rsp+0x8],rcx
3b81:	e8 aa ef ff ff       	call   2b30 <add_field_list>
3b86:	4c 8b 4c 24 18       	mov    r9,QWORD PTR [rsp+0x18]
3b8b:	4c 8b 44 24 10       	mov    r8,QWORD PTR [rsp+0x10]
3b90:	48 8b 4c 24 08       	mov    rcx,QWORD PTR [rsp+0x8]
3b95:	45 85 f6             	test   r14d,r14d
3b98:	74 66                	je     3c00 <add_file_name.constprop.7+0x120>
3b9a:	8b 45 04             	mov    eax,DWORD PTR [rbp+0x4]
3b9d:	ba 04 00 00 00       	mov    edx,0x4
3ba2:	89 45 00             	mov    DWORD PTR [rbp+0x0],eax
3ba5:	48 8b 05 0c 76 20 00 	mov    rax,QWORD PTR [rip+0x20760c]        # 20b1b8 <g_names+0x8>
3bac:	48 89 05 fd 75 20 00 	mov    QWORD PTR [rip+0x2075fd],rax        # 20b1b0 <g_names>
3bb3:	b8 08 00 00 00       	mov    eax,0x8
3bb8:	e9 55 ff ff ff       	jmp    3b12 <add_file_name.constprop.7+0x32>
3bbd:	0f 1f 00             	nop    DWORD PTR [rax]
3bc0:	83 6a 04 01          	sub    DWORD PTR [rdx+0x4],0x1
3bc4:	4c 89 4c 24 18       	mov    QWORD PTR [rsp+0x18],r9
3bc9:	4c 89 44 24 10       	mov    QWORD PTR [rsp+0x10],r8
3bce:	48 89 4c 24 08       	mov    QWORD PTR [rsp+0x8],rcx
3bd3:	e8 b8 ee ff ff       	call   2a90 <string_to_join_field>
3bd8:	48 8d 3d 39 74 20 00 	lea    rdi,[rip+0x207439]        # 20b018 <join_field_2>
3bdf:	48 89 c6             	mov    rsi,rax
3be2:	e8 59 ee ff ff       	call   2a40 <set_join_field>
3be7:	48 8b 4c 24 08       	mov    rcx,QWORD PTR [rsp+0x8]
3bec:	4c 8b 44 24 10       	mov    r8,QWORD PTR [rsp+0x10]
3bf1:	4c 8b 4c 24 18       	mov    r9,QWORD PTR [rsp+0x18]
3bf6:	eb 9d                	jmp    3b95 <add_file_name.constprop.7+0xb5>
3bf8:	0f 1f 84 00 00 00 00 	nop    DWORD PTR [rax+rax*1+0x0]
3bff:	00
3c00:	b8 08 00 00 00       	mov    eax,0x8
3c05:	ba 04 00 00 00       	mov    edx,0x4
3c0a:	e9 03 ff ff ff       	jmp    3b12 <add_file_name.constprop.7+0x32>
3c0f:	90                   	nop
3c10:	83 2a 01             	sub    DWORD PTR [rdx],0x1
3c13:	4c 89 4c 24 18       	mov    QWORD PTR [rsp+0x18],r9
3c18:	4c 89 44 24 10       	mov    QWORD PTR [rsp+0x10],r8
3c1d:	48 89 4c 24 08       	mov    QWORD PTR [rsp+0x8],rcx
3c22:	e8 69 ee ff ff       	call   2a90 <string_to_join_field>
3c27:	48 8d 3d f2 73 20 00 	lea    rdi,[rip+0x2073f2]        # 20b020 <join_field_1>
3c2e:	48 89 c6             	mov    rsi,rax
3c31:	e8 0a ee ff ff       	call   2a40 <set_join_field>
3c36:	48 8b 4c 24 08       	mov    rcx,QWORD PTR [rsp+0x8]
3c3b:	4c 8b 44 24 10       	mov    r8,QWORD PTR [rsp+0x10]
3c40:	4c 8b 4c 24 18       	mov    r9,QWORD PTR [rsp+0x18]
3c45:	e9 4b ff ff ff       	jmp    3b95 <add_file_name.constprop.7+0xb5>
3c4a:	66 0f 1f 44 00 00    	nop    WORD PTR [rax+rax*1+0x0]
3c50:	85 c0                	test   eax,eax
3c52:	0f 85 3d ff ff ff    	jne    3b95 <add_file_name.constprop.7+0xb5>
3c58:	4c 89 ee             	mov    rsi,r13
3c5b:	bf 04 00 00 00       	mov    edi,0x4
3c60:	e8 1b 1e 00 00       	call   5a80 <quotearg_style>
3c65:	48 8d 35 d8 41 00 00 	lea    rsi,[rip+0x41d8]        # 7e44 <_IO_stdin_used+0xb24>
3c6c:	48 89 c3             	mov    rbx,rax
3c6f:	ba 05 00 00 00       	mov    edx,0x5
3c74:	31 ff                	xor    edi,edi
3c76:	e8 75 da ff ff       	call   16f0 <dcgettext@plt>
3c7b:	31 ff                	xor    edi,edi
3c7d:	48 89 c2             	mov    rdx,rax
3c80:	48 89 d9             	mov    rcx,rbx
3c83:	31 f6                	xor    esi,esi
3c85:	31 c0                	xor    eax,eax
3c87:	e8 64 dc ff ff       	call   18f0 <error@plt>
3c8c:	bf 01 00 00 00       	mov    edi,0x1
3c91:	e8 2a fa ff ff       	call   36c0 <usage>
3c96:	66 2e 0f 1f 84 00 00 	nop    WORD PTR cs:[rax+rax*1+0x0]
3c9d:	00 00 00

0000000000003ca0 <close_stdout_set_file_name>:
3ca0:	48 89 3d 41 75 20 00 	mov    QWORD PTR [rip+0x207541],rdi        # 20b1e8 <file_name>
3ca7:	c3                   	ret
3ca8:	0f 1f 84 00 00 00 00 	nop    DWORD PTR [rax+rax*1+0x0]
3caf:	00

0000000000003cb0 <close_stdout_set_ignore_EPIPE>:
3cb0:	40 88 3d 29 75 20 00 	mov    BYTE PTR [rip+0x207529],dil        # 20b1e0 <ignore_EPIPE>
3cb7:	c3                   	ret
3cb8:	0f 1f 84 00 00 00 00 	nop    DWORD PTR [rax+rax*1+0x0]
3cbf:	00

0000000000003cc0 <close_stdout>:
3cc0:	55                   	push   rbp
3cc1:	53                   	push   rbx
3cc2:	48 83 ec 08          	sub    rsp,0x8
3cc6:	48 8b 3d db 73 20 00 	mov    rdi,QWORD PTR [rip+0x2073db]        # 20b0a8 <stdout@@GLIBC_2.2.5>
3ccd:	e8 0e 33 00 00       	call   6fe0 <close_stream>
3cd2:	85 c0                	test   eax,eax
3cd4:	74 16                	je     3cec <close_stdout+0x2c>
3cd6:	e8 95 d9 ff ff       	call   1670 <__errno_location@plt>
3cdb:	80 3d fe 74 20 00 00 	cmp    BYTE PTR [rip+0x2074fe],0x0        # 20b1e0 <ignore_EPIPE>
3ce2:	48 89 c3             	mov    rbx,rax
3ce5:	74 1c                	je     3d03 <close_stdout+0x43>
3ce7:	83 38 20             	cmp    DWORD PTR [rax],0x20
3cea:	75 17                	jne    3d03 <close_stdout+0x43>
3cec:	48 8b 3d ed 73 20 00 	mov    rdi,QWORD PTR [rip+0x2073ed]        # 20b0e0 <stderr@@GLIBC_2.2.5>
3cf3:	e8 e8 32 00 00       	call   6fe0 <close_stream>
3cf8:	85 c0                	test   eax,eax
3cfa:	75 46                	jne    3d42 <close_stdout+0x82>
3cfc:	48 83 c4 08          	add    rsp,0x8
3d00:	5b                   	pop    rbx
3d01:	5d                   	pop    rbp
3d02:	c3                   	ret
3d03:	48 8d 35 3e 42 00 00 	lea    rsi,[rip+0x423e]        # 7f48 <_IO_stdin_used+0xc28>
3d0a:	31 ff                	xor    edi,edi
3d0c:	ba 05 00 00 00       	mov    edx,0x5
3d11:	e8 da d9 ff ff       	call   16f0 <dcgettext@plt>
3d16:	48 8b 3d cb 74 20 00 	mov    rdi,QWORD PTR [rip+0x2074cb]        # 20b1e8 <file_name>
3d1d:	48 89 c5             	mov    rbp,rax
3d20:	48 85 ff             	test   rdi,rdi
3d23:	74 28                	je     3d4d <close_stdout+0x8d>
3d25:	e8 26 1e 00 00       	call   5b50 <quotearg_colon>
3d2a:	8b 33                	mov    esi,DWORD PTR [rbx]
3d2c:	48 8d 15 21 42 00 00 	lea    rdx,[rip+0x4221]        # 7f54 <_IO_stdin_used+0xc34>
3d33:	48 89 c1             	mov    rcx,rax
3d36:	49 89 e8             	mov    r8,rbp
3d39:	31 ff                	xor    edi,edi
3d3b:	31 c0                	xor    eax,eax
3d3d:	e8 ae db ff ff       	call   18f0 <error@plt>
3d42:	8b 3d f0 72 20 00    	mov    edi,DWORD PTR [rip+0x2072f0]        # 20b038 <exit_failure>
3d48:	e8 43 d9 ff ff       	call   1690 <_exit@plt>
3d4d:	8b 33                	mov    esi,DWORD PTR [rbx]
3d4f:	48 8d 15 fc 3f 00 00 	lea    rdx,[rip+0x3ffc]        # 7d52 <_IO_stdin_used+0xa32>
3d56:	48 89 c1             	mov    rcx,rax
3d59:	31 ff                	xor    edi,edi
3d5b:	31 c0                	xor    eax,eax
3d5d:	e8 8e db ff ff       	call   18f0 <error@plt>
3d62:	eb de                	jmp    3d42 <close_stdout+0x82>
3d64:	66 2e 0f 1f 84 00 00 	nop    WORD PTR cs:[rax+rax*1+0x0]
3d6b:	00 00 00
3d6e:	66 90                	xchg   ax,ax

0000000000003d70 <fdadvise>:
3d70:	e9 4b da ff ff       	jmp    17c0 <posix_fadvise@plt>
3d75:	90                   	nop
3d76:	66 2e 0f 1f 84 00 00 	nop    WORD PTR cs:[rax+rax*1+0x0]
3d7d:	00 00 00

0000000000003d80 <fadvise>:
3d80:	48 85 ff             	test   rdi,rdi
3d83:	74 1b                	je     3da0 <fadvise+0x20>
3d85:	53                   	push   rbx
3d86:	89 f3                	mov    ebx,esi
3d88:	e8 a3 da ff ff       	call   1830 <fileno@plt>
3d8d:	89 d9                	mov    ecx,ebx
3d8f:	31 d2                	xor    edx,edx
3d91:	31 f6                	xor    esi,esi
3d93:	5b                   	pop    rbx
3d94:	89 c7                	mov    edi,eax
3d96:	e9 25 da ff ff       	jmp    17c0 <posix_fadvise@plt>
3d9b:	0f 1f 44 00 00       	nop    DWORD PTR [rax+rax*1+0x0]
3da0:	f3 c3                	repz ret
3da2:	66 2e 0f 1f 84 00 00 	nop    WORD PTR cs:[rax+rax*1+0x0]
3da9:	00 00 00
3dac:	0f 1f 40 00          	nop    DWORD PTR [rax+0x0]

0000000000003db0 <fopen_safer>:
3db0:	41 54                	push   r12
3db2:	55                   	push   rbp
3db3:	48 89 f5             	mov    rbp,rsi
3db6:	53                   	push   rbx
3db7:	e8 54 db ff ff       	call   1910 <fopen@plt>
3dbc:	48 85 c0             	test   rax,rax
3dbf:	48 89 c3             	mov    rbx,rax
3dc2:	74 0d                	je     3dd1 <fopen_safer+0x21>
3dc4:	48 89 c7             	mov    rdi,rax
3dc7:	e8 64 da ff ff       	call   1830 <fileno@plt>
3dcc:	83 f8 02             	cmp    eax,0x2
3dcf:	76 0f                	jbe    3de0 <fopen_safer+0x30>
3dd1:	48 89 d8             	mov    rax,rbx
3dd4:	5b                   	pop    rbx
3dd5:	5d                   	pop    rbp
3dd6:	41 5c                	pop    r12
3dd8:	c3                   	ret
3dd9:	0f 1f 80 00 00 00 00 	nop    DWORD PTR [rax+0x0]
3de0:	89 c7                	mov    edi,eax
3de2:	e8 89 1f 00 00       	call   5d70 <dup_safer>
3de7:	85 c0                	test   eax,eax
3de9:	41 89 c4             	mov    r12d,eax
3dec:	78 3a                	js     3e28 <fopen_safer+0x78>
3dee:	48 89 df             	mov    rdi,rbx
3df1:	e8 ba 2d 00 00       	call   6bb0 <rpl_fclose>
3df6:	85 c0                	test   eax,eax
3df8:	75 13                	jne    3e0d <fopen_safer+0x5d>
3dfa:	48 89 ee             	mov    rsi,rbp
3dfd:	44 89 e7             	mov    edi,r12d
3e00:	e8 bb da ff ff       	call   18c0 <fdopen@plt>
3e05:	48 85 c0             	test   rax,rax
3e08:	48 89 c3             	mov    rbx,rax
3e0b:	75 c4                	jne    3dd1 <fopen_safer+0x21>
3e0d:	e8 5e d8 ff ff       	call   1670 <__errno_location@plt>
3e12:	8b 28                	mov    ebp,DWORD PTR [rax]
3e14:	48 89 c3             	mov    rbx,rax
3e17:	44 89 e7             	mov    edi,r12d
3e1a:	e8 91 d9 ff ff       	call   17b0 <close@plt>
3e1f:	89 2b                	mov    DWORD PTR [rbx],ebp
3e21:	31 db                	xor    ebx,ebx
3e23:	eb ac                	jmp    3dd1 <fopen_safer+0x21>
3e25:	0f 1f 00             	nop    DWORD PTR [rax]
3e28:	e8 43 d8 ff ff       	call   1670 <__errno_location@plt>
3e2d:	44 8b 20             	mov    r12d,DWORD PTR [rax]
3e30:	48 89 c5             	mov    rbp,rax
3e33:	48 89 df             	mov    rdi,rbx
3e36:	e8 75 2d 00 00       	call   6bb0 <rpl_fclose>
3e3b:	31 db                	xor    ebx,ebx
3e3d:	44 89 65 00          	mov    DWORD PTR [rbp+0x0],r12d
3e41:	eb 8e                	jmp    3dd1 <fopen_safer+0x21>
3e43:	66 2e 0f 1f 84 00 00 	nop    WORD PTR cs:[rax+rax*1+0x0]
3e4a:	00 00 00
3e4d:	0f 1f 00             	nop    DWORD PTR [rax]

0000000000003e50 <hard_locale>:
3e50:	48 83 ec 08          	sub    rsp,0x8
3e54:	31 f6                	xor    esi,esi
3e56:	e8 75 da ff ff       	call   18d0 <setlocale@plt>
3e5b:	48 89 c2             	mov    rdx,rax
3e5e:	b8 01 00 00 00       	mov    eax,0x1
3e63:	48 85 d2             	test   rdx,rdx
3e66:	74 1d                	je     3e85 <hard_locale+0x35>
3e68:	48 8d 3d ec 40 00 00 	lea    rdi,[rip+0x40ec]        # 7f5b <_IO_stdin_used+0xc3b>
3e6f:	b9 02 00 00 00       	mov    ecx,0x2
3e74:	48 89 d6             	mov    rsi,rdx
3e77:	f3 a6                	repz cmps BYTE PTR ds:[rsi],BYTE PTR es:[rdi]
3e79:	0f 97 c1             	seta   cl
3e7c:	80 d9 00             	sbb    cl,0x0
3e7f:	31 c0                	xor    eax,eax
3e81:	84 c9                	test   cl,cl
3e83:	75 0b                	jne    3e90 <hard_locale+0x40>
3e85:	48 83 c4 08          	add    rsp,0x8
3e89:	c3                   	ret
3e8a:	66 0f 1f 44 00 00    	nop    WORD PTR [rax+rax*1+0x0]
3e90:	48 8d 3d c6 40 00 00 	lea    rdi,[rip+0x40c6]        # 7f5d <_IO_stdin_used+0xc3d>
3e97:	b9 06 00 00 00       	mov    ecx,0x6
3e9c:	48 89 d6             	mov    rsi,rdx
3e9f:	f3 a6                	repz cmps BYTE PTR ds:[rsi],BYTE PTR es:[rdi]
3ea1:	0f 97 c0             	seta   al
3ea4:	1c 00                	sbb    al,0x0
3ea6:	84 c0                	test   al,al
3ea8:	0f 95 c0             	setne  al
3eab:	48 83 c4 08          	add    rsp,0x8
3eaf:	c3                   	ret

0000000000003eb0 <initbuffer>:
3eb0:	66 0f ef c0          	pxor   xmm0,xmm0
3eb4:	48 c7 47 10 00 00 00 	mov    QWORD PTR [rdi+0x10],0x0
3ebb:	00
3ebc:	0f 11 07             	movups XMMWORD PTR [rdi],xmm0
3ebf:	c3                   	ret

0000000000003ec0 <readlinebuffer_delim>:
3ec0:	41 57                	push   r15
3ec2:	41 56                	push   r14
3ec4:	41 55                	push   r13
3ec6:	41 54                	push   r12
3ec8:	55                   	push   rbp
3ec9:	53                   	push   rbx
3eca:	48 83 ec 18          	sub    rsp,0x18
3ece:	4c 8b 6f 10          	mov    r13,QWORD PTR [rdi+0x10]
3ed2:	4c 8b 07             	mov    r8,QWORD PTR [rdi]
3ed5:	4d 01 e8             	add    r8,r13
3ed8:	f6 06 10             	test   BYTE PTR [rsi],0x10
3edb:	0f 85 cf 00 00 00    	jne    3fb0 <readlinebuffer_delim+0xf0>
3ee1:	49 89 fe             	mov    r14,rdi
3ee4:	48 89 f5             	mov    rbp,rsi
3ee7:	4c 89 eb             	mov    rbx,r13
3eea:	44 0f be fa          	movsx  r15d,dl
3eee:	eb 0b                	jmp    3efb <readlinebuffer_delim+0x3b>
3ef0:	45 39 fc             	cmp    r12d,r15d
3ef3:	48 8d 5e 01          	lea    rbx,[rsi+0x1]
3ef7:	88 0e                	mov    BYTE PTR [rsi],cl
3ef9:	74 5b                	je     3f56 <readlinebuffer_delim+0x96>
3efb:	48 8b 4d 08          	mov    rcx,QWORD PTR [rbp+0x8]
3eff:	48 3b 4d 10          	cmp    rcx,QWORD PTR [rbp+0x10]
3f03:	73 6b                	jae    3f70 <readlinebuffer_delim+0xb0>
3f05:	48 8d 41 01          	lea    rax,[rcx+0x1]
3f09:	48 89 45 08          	mov    QWORD PTR [rbp+0x8],rax
3f0d:	44 0f b6 21          	movzx  r12d,BYTE PTR [rcx]
3f11:	44 89 e1             	mov    ecx,r12d
3f14:	4c 39 c3             	cmp    rbx,r8
3f17:	48 89 de             	mov    rsi,rbx
3f1a:	75 d4                	jne    3ef0 <readlinebuffer_delim+0x30>
3f1c:	49 8b 1e             	mov    rbx,QWORD PTR [r14]
3f1f:	4c 89 f6             	mov    rsi,r14
3f22:	4c 89 ef             	mov    rdi,r13
3f25:	88 54 24 0f          	mov    BYTE PTR [rsp+0xf],dl
3f29:	88 0c 24             	mov    BYTE PTR [rsp],cl
3f2c:	e8 cf 25 00 00       	call   6500 <x2realloc>
3f31:	4d 8b 06             	mov    r8,QWORD PTR [r14]
3f34:	0f b6 0c 24          	movzx  ecx,BYTE PTR [rsp]
3f38:	48 8d 34 18          	lea    rsi,[rax+rbx*1]
3f3c:	49 89 46 10          	mov    QWORD PTR [r14+0x10],rax
3f40:	49 89 c5             	mov    r13,rax
3f43:	0f b6 54 24 0f       	movzx  edx,BYTE PTR [rsp+0xf]
3f48:	48 8d 5e 01          	lea    rbx,[rsi+0x1]
3f4c:	49 01 c0             	add    r8,rax
3f4f:	45 39 fc             	cmp    r12d,r15d
3f52:	88 0e                	mov    BYTE PTR [rsi],cl
3f54:	75 a5                	jne    3efb <readlinebuffer_delim+0x3b>
3f56:	4c 29 eb             	sub    rbx,r13
3f59:	4c 89 f0             	mov    rax,r14
3f5c:	49 89 5e 08          	mov    QWORD PTR [r14+0x8],rbx
3f60:	48 83 c4 18          	add    rsp,0x18
3f64:	5b                   	pop    rbx
3f65:	5d                   	pop    rbp
3f66:	41 5c                	pop    r12
3f68:	41 5d                	pop    r13
3f6a:	41 5e                	pop    r14
3f6c:	41 5f                	pop    r15
3f6e:	c3                   	ret
3f6f:	90                   	nop
3f70:	48 89 ef             	mov    rdi,rbp
3f73:	88 54 24 0f          	mov    BYTE PTR [rsp+0xf],dl
3f77:	4c 89 04 24          	mov    QWORD PTR [rsp],r8
3f7b:	e8 c0 d6 ff ff       	call   1640 <__uflow@plt>
3f80:	83 f8 ff             	cmp    eax,0xffffffff
3f83:	41 89 c4             	mov    r12d,eax
3f86:	4c 8b 04 24          	mov    r8,QWORD PTR [rsp]
3f8a:	0f b6 54 24 0f       	movzx  edx,BYTE PTR [rsp+0xf]
3f8f:	75 30                	jne    3fc1 <readlinebuffer_delim+0x101>
3f91:	49 39 dd             	cmp    r13,rbx
3f94:	74 1a                	je     3fb0 <readlinebuffer_delim+0xf0>
3f96:	f6 45 00 20          	test   BYTE PTR [rbp+0x0],0x20
3f9a:	75 14                	jne    3fb0 <readlinebuffer_delim+0xf0>
3f9c:	38 53 ff             	cmp    BYTE PTR [rbx-0x1],dl
3f9f:	74 b5                	je     3f56 <readlinebuffer_delim+0x96>
3fa1:	45 89 fc             	mov    r12d,r15d
3fa4:	89 d1                	mov    ecx,edx
3fa6:	e9 69 ff ff ff       	jmp    3f14 <readlinebuffer_delim+0x54>
3fab:	0f 1f 44 00 00       	nop    DWORD PTR [rax+rax*1+0x0]
3fb0:	48 83 c4 18          	add    rsp,0x18
3fb4:	31 c0                	xor    eax,eax
3fb6:	5b                   	pop    rbx
3fb7:	5d                   	pop    rbp
3fb8:	41 5c                	pop    r12
3fba:	41 5d                	pop    r13
3fbc:	41 5e                	pop    r14
3fbe:	41 5f                	pop    r15
3fc0:	c3                   	ret
3fc1:	89 c1                	mov    ecx,eax
3fc3:	e9 4c ff ff ff       	jmp    3f14 <readlinebuffer_delim+0x54>
3fc8:	0f 1f 84 00 00 00 00 	nop    DWORD PTR [rax+rax*1+0x0]
3fcf:	00

0000000000003fd0 <readlinebuffer>:
3fd0:	ba 0a 00 00 00       	mov    edx,0xa
3fd5:	e9 e6 fe ff ff       	jmp    3ec0 <readlinebuffer_delim>
3fda:	66 0f 1f 44 00 00    	nop    WORD PTR [rax+rax*1+0x0]

0000000000003fe0 <freebuffer>:
3fe0:	48 8b 7f 10          	mov    rdi,QWORD PTR [rdi+0x10]
3fe4:	e9 67 d6 ff ff       	jmp    1650 <free@plt>
3fe9:	0f 1f 80 00 00 00 00 	nop    DWORD PTR [rax+0x0]

0000000000003ff0 <memcasecmp>:
3ff0:	48 85 d2             	test   rdx,rdx
3ff3:	74 43                	je     4038 <memcasecmp+0x48>
3ff5:	41 54                	push   r12
3ff7:	55                   	push   rbp
3ff8:	49 89 f4             	mov    r12,rsi
3ffb:	53                   	push   rbx
3ffc:	48 89 fd             	mov    rbp,rdi
3fff:	48 89 d3             	mov    rbx,rdx
4002:	e8 29 d6 ff ff       	call   1630 <__ctype_toupper_loc@plt>
4007:	31 c9                	xor    ecx,ecx
4009:	4c 8b 00             	mov    r8,QWORD PTR [rax]
400c:	eb 0b                	jmp    4019 <memcasecmp+0x29>
400e:	66 90                	xchg   ax,ax
4010:	48 83 c1 01          	add    rcx,0x1
4014:	48 39 d9             	cmp    rcx,rbx
4017:	74 14                	je     402d <memcasecmp+0x3d>
4019:	0f b6 44 0d 00       	movzx  eax,BYTE PTR [rbp+rcx*1+0x0]
401e:	45 0f b6 0c 0c       	movzx  r9d,BYTE PTR [r12+rcx*1]
4023:	41 8b 04 80          	mov    eax,DWORD PTR [r8+rax*4]
4027:	43 2b 04 88          	sub    eax,DWORD PTR [r8+r9*4]
402b:	74 e3                	je     4010 <memcasecmp+0x20>
402d:	5b                   	pop    rbx
402e:	5d                   	pop    rbp
402f:	41 5c                	pop    r12
4031:	c3                   	ret
4032:	66 0f 1f 44 00 00    	nop    WORD PTR [rax+rax*1+0x0]
4038:	31 c0                	xor    eax,eax
403a:	c3                   	ret
403b:	0f 1f 44 00 00       	nop    DWORD PTR [rax+rax*1+0x0]

0000000000004040 <set_program_name>:
4040:	48 85 ff             	test   rdi,rdi
4043:	53                   	push   rbx
4044:	74 77                	je     40bd <set_program_name+0x7d>
4046:	be 2f 00 00 00       	mov    esi,0x2f
404b:	48 89 fb             	mov    rbx,rdi
404e:	e8 1d d7 ff ff       	call   1770 <strrchr@plt>
4053:	48 85 c0             	test   rax,rax
4056:	74 55                	je     40ad <set_program_name+0x6d>
4058:	4c 8d 40 01          	lea    r8,[rax+0x1]
405c:	4c 89 c2             	mov    rdx,r8
405f:	48 29 da             	sub    rdx,rbx
4062:	48 83 fa 06          	cmp    rdx,0x6
4066:	7e 45                	jle    40ad <set_program_name+0x6d>
4068:	48 8d 70 fa          	lea    rsi,[rax-0x6]
406c:	48 8d 3d 2d 3f 00 00 	lea    rdi,[rip+0x3f2d]        # 7fa0 <_IO_stdin_used+0xc80>
4073:	b9 07 00 00 00       	mov    ecx,0x7
4078:	f3 a6                	repz cmps BYTE PTR ds:[rsi],BYTE PTR es:[rdi]
407a:	0f 97 c2             	seta   dl
407d:	80 da 00             	sbb    dl,0x0
4080:	84 d2                	test   dl,dl
4082:	75 29                	jne    40ad <set_program_name+0x6d>
4084:	48 8d 3d 1d 3f 00 00 	lea    rdi,[rip+0x3f1d]        # 7fa8 <_IO_stdin_used+0xc88>
408b:	b9 03 00 00 00       	mov    ecx,0x3
4090:	4c 89 c6             	mov    rsi,r8
4093:	4c 89 c3             	mov    rbx,r8
4096:	f3 a6                	repz cmps BYTE PTR ds:[rsi],BYTE PTR es:[rdi]
4098:	0f 97 c2             	seta   dl
409b:	80 da 00             	sbb    dl,0x0
409e:	84 d2                	test   dl,dl
40a0:	75 0b                	jne    40ad <set_program_name+0x6d>
40a2:	48 8d 58 04          	lea    rbx,[rax+0x4]
40a6:	48 89 1d f3 6f 20 00 	mov    QWORD PTR [rip+0x206ff3],rbx        # 20b0a0 <__progname@@GLIBC_2.2.5>
40ad:	48 89 1d 3c 71 20 00 	mov    QWORD PTR [rip+0x20713c],rbx        # 20b1f0 <program_name>
40b4:	48 89 1d 0d 70 20 00 	mov    QWORD PTR [rip+0x20700d],rbx        # 20b0c8 <__progname_full@@GLIBC_2.2.5>
40bb:	5b                   	pop    rbx
40bc:	c3                   	ret
40bd:	48 8b 0d 1c 70 20 00 	mov    rcx,QWORD PTR [rip+0x20701c]        # 20b0e0 <stderr@@GLIBC_2.2.5>
40c4:	48 8d 3d 9d 3e 00 00 	lea    rdi,[rip+0x3e9d]        # 7f68 <_IO_stdin_used+0xc48>
40cb:	ba 37 00 00 00       	mov    edx,0x37
40d0:	be 01 00 00 00       	mov    esi,0x1
40d5:	e8 76 d8 ff ff       	call   1950 <fwrite@plt>
40da:	e8 81 d5 ff ff       	call   1660 <abort@plt>
40df:	90                   	nop

00000000000040e0 <gettext_quote.part.1>:
40e0:	55                   	push   rbp
40e1:	53                   	push   rbx
40e2:	48 89 fd             	mov    rbp,rdi
40e5:	89 f3                	mov    ebx,esi
40e7:	48 83 ec 08          	sub    rsp,0x8
40eb:	e8 70 2f 00 00       	call   7060 <locale_charset>
40f0:	0f b6 10             	movzx  edx,BYTE PTR [rax]
40f3:	83 e2 df             	and    edx,0xffffffdf
40f6:	80 fa 55             	cmp    dl,0x55
40f9:	74 75                	je     4170 <gettext_quote.part.1+0x90>
40fb:	80 fa 47             	cmp    dl,0x47
40fe:	74 20                	je     4120 <gettext_quote.part.1+0x40>
4100:	48 8d 05 b4 3e 00 00 	lea    rax,[rip+0x3eb4]        # 7fbb <_IO_stdin_used+0xc9b>
4107:	48 8d 15 af 3e 00 00 	lea    rdx,[rip+0x3eaf]        # 7fbd <_IO_stdin_used+0xc9d>
410e:	83 fb 09             	cmp    ebx,0x9
4111:	48 0f 45 c2          	cmovne rax,rdx
4115:	48 83 c4 08          	add    rsp,0x8
4119:	5b                   	pop    rbx
411a:	5d                   	pop    rbp
411b:	c3                   	ret
411c:	0f 1f 40 00          	nop    DWORD PTR [rax+0x0]
4120:	0f b6 50 01          	movzx  edx,BYTE PTR [rax+0x1]
4124:	83 e2 df             	and    edx,0xffffffdf
4127:	80 fa 42             	cmp    dl,0x42
412a:	75 d4                	jne    4100 <gettext_quote.part.1+0x20>
412c:	80 78 02 31          	cmp    BYTE PTR [rax+0x2],0x31
4130:	75 ce                	jne    4100 <gettext_quote.part.1+0x20>
4132:	80 78 03 38          	cmp    BYTE PTR [rax+0x3],0x38
4136:	75 c8                	jne    4100 <gettext_quote.part.1+0x20>
4138:	80 78 04 30          	cmp    BYTE PTR [rax+0x4],0x30
413c:	75 c2                	jne    4100 <gettext_quote.part.1+0x20>
413e:	80 78 05 33          	cmp    BYTE PTR [rax+0x5],0x33
4142:	75 bc                	jne    4100 <gettext_quote.part.1+0x20>
4144:	80 78 06 30          	cmp    BYTE PTR [rax+0x6],0x30
4148:	75 b6                	jne    4100 <gettext_quote.part.1+0x20>
414a:	80 78 07 00          	cmp    BYTE PTR [rax+0x7],0x0
414e:	75 b0                	jne    4100 <gettext_quote.part.1+0x20>
4150:	80 7d 00 60          	cmp    BYTE PTR [rbp+0x0],0x60
4154:	48 8d 05 59 3e 00 00 	lea    rax,[rip+0x3e59]        # 7fb4 <_IO_stdin_used+0xc94>
415b:	48 8d 15 56 3e 00 00 	lea    rdx,[rip+0x3e56]        # 7fb8 <_IO_stdin_used+0xc98>
4162:	48 0f 45 c2          	cmovne rax,rdx
4166:	48 83 c4 08          	add    rsp,0x8
416a:	5b                   	pop    rbx
416b:	5d                   	pop    rbp
416c:	c3                   	ret
416d:	0f 1f 00             	nop    DWORD PTR [rax]
4170:	0f b6 50 01          	movzx  edx,BYTE PTR [rax+0x1]
4174:	83 e2 df             	and    edx,0xffffffdf
4177:	80 fa 54             	cmp    dl,0x54
417a:	75 84                	jne    4100 <gettext_quote.part.1+0x20>
417c:	0f b6 50 02          	movzx  edx,BYTE PTR [rax+0x2]
4180:	83 e2 df             	and    edx,0xffffffdf
4183:	80 fa 46             	cmp    dl,0x46
4186:	0f 85 74 ff ff ff    	jne    4100 <gettext_quote.part.1+0x20>
418c:	80 78 03 2d          	cmp    BYTE PTR [rax+0x3],0x2d
4190:	0f 85 6a ff ff ff    	jne    4100 <gettext_quote.part.1+0x20>
4196:	80 78 04 38          	cmp    BYTE PTR [rax+0x4],0x38
419a:	0f 85 60 ff ff ff    	jne    4100 <gettext_quote.part.1+0x20>
41a0:	80 78 05 00          	cmp    BYTE PTR [rax+0x5],0x0
41a4:	0f 85 56 ff ff ff    	jne    4100 <gettext_quote.part.1+0x20>
41aa:	80 7d 00 60          	cmp    BYTE PTR [rbp+0x0],0x60
41ae:	48 8d 05 f7 3d 00 00 	lea    rax,[rip+0x3df7]        # 7fac <_IO_stdin_used+0xc8c>
41b5:	48 8d 15 f4 3d 00 00 	lea    rdx,[rip+0x3df4]        # 7fb0 <_IO_stdin_used+0xc90>
41bc:	48 0f 45 c2          	cmovne rax,rdx
41c0:	48 83 c4 08          	add    rsp,0x8
41c4:	5b                   	pop    rbx
41c5:	5d                   	pop    rbp
41c6:	c3                   	ret
41c7:	66 0f 1f 84 00 00 00 	nop    WORD PTR [rax+rax*1+0x0]
41ce:	00 00

00000000000041d0 <quotearg_buffer_restyled>:
41d0:	41 57                	push   r15
41d2:	41 56                	push   r14
41d4:	45 89 c7             	mov    r15d,r8d
41d7:	41 55                	push   r13
41d9:	41 54                	push   r12
41db:	49 89 fe             	mov    r14,rdi
41de:	55                   	push   rbp
41df:	53                   	push   rbx
41e0:	44 89 cb             	mov    ebx,r9d
41e3:	49 89 f5             	mov    r13,rsi
41e6:	48 89 cd             	mov    rbp,rcx
41e9:	83 e3 02             	and    ebx,0x2
41ec:	48 81 ec b8 00 00 00 	sub    rsp,0xb8
41f3:	48 8b 84 24 f0 00 00 	mov    rax,QWORD PTR [rsp+0xf0]
41fa:	00
41fb:	48 89 54 24 10       	mov    QWORD PTR [rsp+0x10],rdx
4200:	44 89 44 24 08       	mov    DWORD PTR [rsp+0x8],r8d
4205:	44 89 4c 24 78       	mov    DWORD PTR [rsp+0x78],r9d
420a:	48 89 44 24 20       	mov    QWORD PTR [rsp+0x20],rax
420f:	48 8b 84 24 f8 00 00 	mov    rax,QWORD PTR [rsp+0xf8]
4216:	00
4217:	48 89 44 24 68       	mov    QWORD PTR [rsp+0x68],rax
421c:	48 8b 84 24 00 01 00 	mov    rax,QWORD PTR [rsp+0x100]
4223:	00
4224:	48 89 44 24 60       	mov    QWORD PTR [rsp+0x60],rax
4229:	64 48 8b 04 25 28 00 	mov    rax,QWORD PTR fs:0x28
4230:	00 00
4232:	48 89 84 24 a8 00 00 	mov    QWORD PTR [rsp+0xa8],rax
4239:	00
423a:	31 c0                	xor    eax,eax
423c:	e8 bf d4 ff ff       	call   1700 <__ctype_get_mb_cur_max@plt>
4241:	41 83 ff 0a          	cmp    r15d,0xa
4245:	48 89 44 24 58       	mov    QWORD PTR [rsp+0x58],rax
424a:	0f 87 af 11 00 00    	ja     53ff <quotearg_buffer_restyled+0x122f>
4250:	48 8d 0d c9 3d 00 00 	lea    rcx,[rip+0x3dc9]        # 8020 <_IO_stdin_used+0xd00>
4257:	44 89 fa             	mov    edx,r15d
425a:	48 63 04 91          	movsxd rax,DWORD PTR [rcx+rdx*4]
425e:	48 01 c8             	add    rax,rcx
4261:	ff e0                	jmp    rax
4263:	c6 44 24 0e 01       	mov    BYTE PTR [rsp+0xe],0x1
4268:	c6 44 24 7c 00       	mov    BYTE PTR [rsp+0x7c],0x0
426d:	45 31 e4             	xor    r12d,r12d
4270:	48 c7 44 24 50 00 00 	mov    QWORD PTR [rsp+0x50],0x0
4277:	00 00
4279:	c6 44 24 0f 01       	mov    BYTE PTR [rsp+0xf],0x1
427e:	c6 44 24 0d 00       	mov    BYTE PTR [rsp+0xd],0x0
4283:	48 8d 05 33 3d 00 00 	lea    rax,[rip+0x3d33]        # 7fbd <_IO_stdin_used+0xc9d>
428a:	48 c7 44 24 18 01 00 	mov    QWORD PTR [rsp+0x18],0x1
4291:	00 00
4293:	45 31 ff             	xor    r15d,r15d
4296:	c7 44 24 08 02 00 00 	mov    DWORD PTR [rsp+0x8],0x2
429d:	00
429e:	48 89 44 24 48       	mov    QWORD PTR [rsp+0x48],rax
42a3:	45 31 db             	xor    r11d,r11d
42a6:	48 89 e8             	mov    rax,rbp
42a9:	45 89 e0             	mov    r8d,r12d
42ac:	4c 89 dd             	mov    rbp,r11
42af:	49 89 c3             	mov    r11,rax
42b2:	66 0f 1f 44 00 00    	nop    WORD PTR [rax+rax*1+0x0]
42b8:	49 39 eb             	cmp    r11,rbp
42bb:	41 0f 95 c4          	setne  r12b
42bf:	49 83 fb ff          	cmp    r11,0xffffffffffffffff
42c3:	75 0d                	jne    42d2 <quotearg_buffer_restyled+0x102>
42c5:	48 8b 44 24 10       	mov    rax,QWORD PTR [rsp+0x10]
42ca:	80 3c 28 00          	cmp    BYTE PTR [rax+rbp*1],0x0
42ce:	41 0f 95 c4          	setne  r12b
42d2:	45 84 e4             	test   r12b,r12b
42d5:	0f 84 55 06 00 00    	je     4930 <quotearg_buffer_restyled+0x760>
42db:	83 7c 24 08 02       	cmp    DWORD PTR [rsp+0x8],0x2
42e0:	48 8b 7c 24 10       	mov    rdi,QWORD PTR [rsp+0x10]
42e5:	4c 8d 0c 2f          	lea    r9,[rdi+rbp*1]
42e9:	0f 95 c0             	setne  al
42ec:	22 44 24 0d          	and    al,BYTE PTR [rsp+0xd]
42f0:	41 89 c2             	mov    r10d,eax
42f3:	0f 84 a7 00 00 00    	je     43a0 <quotearg_buffer_restyled+0x1d0>
42f9:	48 8b 44 24 18       	mov    rax,QWORD PTR [rsp+0x18]
42fe:	48 85 c0             	test   rax,rax
4301:	0f 84 29 04 00 00    	je     4730 <quotearg_buffer_restyled+0x560>
4307:	49 83 fb ff          	cmp    r11,0xffffffffffffffff
430b:	48 8d 5c 05 00       	lea    rbx,[rbp+rax*1+0x0]
4310:	75 2e                	jne    4340 <quotearg_buffer_restyled+0x170>
4312:	48 83 f8 01          	cmp    rax,0x1
4316:	76 28                	jbe    4340 <quotearg_buffer_restyled+0x170>
4318:	44 88 44 24 38       	mov    BYTE PTR [rsp+0x38],r8b
431d:	44 88 54 24 30       	mov    BYTE PTR [rsp+0x30],r10b
4322:	4c 89 4c 24 28       	mov    QWORD PTR [rsp+0x28],r9
4327:	e8 e4 d3 ff ff       	call   1710 <strlen@plt>
432c:	44 0f b6 44 24 38    	movzx  r8d,BYTE PTR [rsp+0x38]
4332:	44 0f b6 54 24 30    	movzx  r10d,BYTE PTR [rsp+0x30]
4338:	49 89 c3             	mov    r11,rax
433b:	4c 8b 4c 24 28       	mov    r9,QWORD PTR [rsp+0x28]
4340:	4c 39 db             	cmp    rbx,r11
4343:	44 88 54 24 28       	mov    BYTE PTR [rsp+0x28],r10b
4348:	0f 87 b2 05 00 00    	ja     4900 <quotearg_buffer_restyled+0x730>
434e:	48 8b 54 24 18       	mov    rdx,QWORD PTR [rsp+0x18]
4353:	48 8b 74 24 48       	mov    rsi,QWORD PTR [rsp+0x48]
4358:	4c 89 cf             	mov    rdi,r9
435b:	4c 89 5c 24 40       	mov    QWORD PTR [rsp+0x40],r11
4360:	44 88 44 24 38       	mov    BYTE PTR [rsp+0x38],r8b
4365:	4c 89 4c 24 30       	mov    QWORD PTR [rsp+0x30],r9
436a:	e8 71 d4 ff ff       	call   17e0 <memcmp@plt>
436f:	85 c0                	test   eax,eax
4371:	4c 8b 4c 24 30       	mov    r9,QWORD PTR [rsp+0x30]
4376:	44 0f b6 44 24 38    	movzx  r8d,BYTE PTR [rsp+0x38]
437c:	4c 8b 5c 24 40       	mov    r11,QWORD PTR [rsp+0x40]
4381:	0f 85 79 05 00 00    	jne    4900 <quotearg_buffer_restyled+0x730>
4387:	80 7c 24 0f 00       	cmp    BYTE PTR [rsp+0xf],0x0
438c:	44 0f b6 54 24 28    	movzx  r10d,BYTE PTR [rsp+0x28]
4392:	0f 85 7d 0f 00 00    	jne    5315 <quotearg_buffer_restyled+0x1145>
4398:	0f 1f 84 00 00 00 00 	nop    DWORD PTR [rax+rax*1+0x0]
439f:	00
43a0:	41 0f b6 19          	movzx  ebx,BYTE PTR [r9]
43a4:	80 fb 7e             	cmp    bl,0x7e
43a7:	0f 87 1b 03 00 00    	ja     46c8 <quotearg_buffer_restyled+0x4f8>
43ad:	48 8d 0d 98 3c 00 00 	lea    rcx,[rip+0x3c98]        # 804c <_IO_stdin_used+0xd2c>
43b4:	0f b6 d3             	movzx  edx,bl
43b7:	48 63 04 91          	movsxd rax,DWORD PTR [rcx+rdx*4]
43bb:	48 01 c8             	add    rax,rcx
43be:	ff e0                	jmp    rax
43c0:	45 31 d2             	xor    r10d,r10d
43c3:	49 83 fb 01          	cmp    r11,0x1
43c7:	0f 95 c0             	setne  al
43ca:	49 83 fb ff          	cmp    r11,0xffffffffffffffff
43ce:	75 0c                	jne    43dc <quotearg_buffer_restyled+0x20c>
43d0:	48 8b 44 24 10       	mov    rax,QWORD PTR [rsp+0x10]
43d5:	80 78 01 00          	cmp    BYTE PTR [rax+0x1],0x0
43d9:	0f 95 c0             	setne  al
43dc:	83 7c 24 08 02       	cmp    DWORD PTR [rsp+0x8],0x2
43e1:	0f 94 c2             	sete   dl
43e4:	84 c0                	test   al,al
43e6:	0f 84 4c 02 00 00    	je     4638 <quotearg_buffer_restyled+0x468>
43ec:	45 31 e4             	xor    r12d,r12d
43ef:	31 c0                	xor    eax,eax
43f1:	0f 1f 80 00 00 00 00 	nop    DWORD PTR [rax+0x0]
43f8:	80 7c 24 0d 01       	cmp    BYTE PTR [rsp+0xd],0x1
43fd:	0f 85 0f 01 00 00    	jne    4512 <quotearg_buffer_restyled+0x342>
4403:	84 d2                	test   dl,dl
4405:	0f 85 07 01 00 00    	jne    4512 <quotearg_buffer_restyled+0x342>
440b:	48 8b 74 24 20       	mov    rsi,QWORD PTR [rsp+0x20]
4410:	48 85 f6             	test   rsi,rsi
4413:	74 14                	je     4429 <quotearg_buffer_restyled+0x259>
4415:	89 da                	mov    edx,ebx
4417:	c0 ea 05             	shr    dl,0x5
441a:	0f b6 d2             	movzx  edx,dl
441d:	8b 14 96             	mov    edx,DWORD PTR [rsi+rdx*4]
4420:	0f a3 da             	bt     edx,ebx
4423:	0f 82 4a 01 00 00    	jb     4573 <quotearg_buffer_restyled+0x3a3>
4429:	45 84 d2             	test   r10b,r10b
442c:	0f 85 41 01 00 00    	jne    4573 <quotearg_buffer_restyled+0x3a3>
4432:	83 f0 01             	xor    eax,0x1
4435:	48 83 c5 01          	add    rbp,0x1
4439:	44 21 c0             	and    eax,r8d
443c:	84 c0                	test   al,al
443e:	74 20                	je     4460 <quotearg_buffer_restyled+0x290>
4440:	4d 39 fd             	cmp    r13,r15
4443:	76 05                	jbe    444a <quotearg_buffer_restyled+0x27a>
4445:	43 c6 04 3e 27       	mov    BYTE PTR [r14+r15*1],0x27
444a:	49 8d 47 01          	lea    rax,[r15+0x1]
444e:	49 39 c5             	cmp    r13,rax
4451:	76 06                	jbe    4459 <quotearg_buffer_restyled+0x289>
4453:	43 c6 44 3e 01 27    	mov    BYTE PTR [r14+r15*1+0x1],0x27
4459:	49 83 c7 02          	add    r15,0x2
445d:	45 31 c0             	xor    r8d,r8d
4460:	4d 39 ef             	cmp    r15,r13
4463:	73 04                	jae    4469 <quotearg_buffer_restyled+0x299>
4465:	43 88 1c 3e          	mov    BYTE PTR [r14+r15*1],bl
4469:	0f b6 7c 24 0e       	movzx  edi,BYTE PTR [rsp+0xe]
446e:	49 83 c7 01          	add    r15,0x1
4472:	b8 00 00 00 00       	mov    eax,0x0
4477:	45 84 e4             	test   r12b,r12b
447a:	0f 44 f8             	cmove  edi,eax
447d:	40 88 7c 24 0e       	mov    BYTE PTR [rsp+0xe],dil
4482:	e9 31 fe ff ff       	jmp    42b8 <quotearg_buffer_restyled+0xe8>
4487:	66 0f 1f 84 00 00 00 	nop    WORD PTR [rax+rax*1+0x0]
448e:	00 00
4490:	45 31 d2             	xor    r10d,r10d
4493:	8b 44 24 08          	mov    eax,DWORD PTR [rsp+0x8]
4497:	83 f8 02             	cmp    eax,0x2
449a:	0f 84 b8 05 00 00    	je     4a58 <quotearg_buffer_restyled+0x888>
44a0:	83 f8 05             	cmp    eax,0x5
44a3:	0f 84 6f 05 00 00    	je     4a18 <quotearg_buffer_restyled+0x848>
44a9:	83 f8 02             	cmp    eax,0x2
44ac:	bb 3f 00 00 00       	mov    ebx,0x3f
44b1:	0f 94 c2             	sete   dl
44b4:	45 31 e4             	xor    r12d,r12d
44b7:	31 c0                	xor    eax,eax
44b9:	e9 3a ff ff ff       	jmp    43f8 <quotearg_buffer_restyled+0x228>
44be:	66 90                	xchg   ax,ax
44c0:	45 31 d2             	xor    r10d,r10d
44c3:	83 7c 24 08 02       	cmp    DWORD PTR [rsp+0x8],0x2
44c8:	0f 84 02 05 00 00    	je     49d0 <quotearg_buffer_restyled+0x800>
44ce:	44 88 64 24 7c       	mov    BYTE PTR [rsp+0x7c],r12b
44d3:	31 d2                	xor    edx,edx
44d5:	31 c0                	xor    eax,eax
44d7:	bb 27 00 00 00       	mov    ebx,0x27
44dc:	e9 17 ff ff ff       	jmp    43f8 <quotearg_buffer_restyled+0x228>
44e1:	0f 1f 80 00 00 00 00 	nop    DWORD PTR [rax+0x0]
44e8:	ba 09 00 00 00       	mov    edx,0x9
44ed:	bb 74 00 00 00       	mov    ebx,0x74
44f2:	83 7c 24 08 02       	cmp    DWORD PTR [rsp+0x8],0x2
44f7:	0f 94 c0             	sete   al
44fa:	22 44 24 0f          	and    al,BYTE PTR [rsp+0xf]
44fe:	0f 85 4a 01 00 00    	jne    464e <quotearg_buffer_restyled+0x47e>
4504:	80 7c 24 0d 00       	cmp    BYTE PTR [rsp+0xd],0x0
4509:	75 65                	jne    4570 <quotearg_buffer_restyled+0x3a0>
450b:	89 d3                	mov    ebx,edx
450d:	45 31 e4             	xor    r12d,r12d
4510:	31 c0                	xor    eax,eax
4512:	80 7c 24 0f 00       	cmp    BYTE PTR [rsp+0xf],0x0
4517:	0f 85 ee fe ff ff    	jne    440b <quotearg_buffer_restyled+0x23b>
451d:	e9 07 ff ff ff       	jmp    4429 <quotearg_buffer_restyled+0x259>
4522:	66 0f 1f 44 00 00    	nop    WORD PTR [rax+rax*1+0x0]
4528:	ba 08 00 00 00       	mov    edx,0x8
452d:	bb 62 00 00 00       	mov    ebx,0x62
4532:	eb d0                	jmp    4504 <quotearg_buffer_restyled+0x334>
4534:	0f 1f 40 00          	nop    DWORD PTR [rax+0x0]
4538:	83 7c 24 08 02       	cmp    DWORD PTR [rsp+0x8],0x2
453d:	0f 84 cd 03 00 00    	je     4910 <quotearg_buffer_restyled+0x740>
4543:	80 7c 24 0d 00       	cmp    BYTE PTR [rsp+0xd],0x0
4548:	0f 84 12 02 00 00    	je     4760 <quotearg_buffer_restyled+0x590>
454e:	80 7c 24 0f 00       	cmp    BYTE PTR [rsp+0xf],0x0
4553:	0f 84 07 02 00 00    	je     4760 <quotearg_buffer_restyled+0x590>
4559:	48 83 7c 24 18 00    	cmp    QWORD PTR [rsp+0x18],0x0
455f:	0f 85 b6 03 00 00    	jne    491b <quotearg_buffer_restyled+0x74b>
4565:	bb 5c 00 00 00       	mov    ebx,0x5c
456a:	66 0f 1f 44 00 00    	nop    WORD PTR [rax+rax*1+0x0]
4570:	45 31 e4             	xor    r12d,r12d
4573:	83 7c 24 08 02       	cmp    DWORD PTR [rsp+0x8],0x2
4578:	0f 94 c2             	sete   dl
457b:	80 7c 24 0f 00       	cmp    BYTE PTR [rsp+0xf],0x0
4580:	89 d0                	mov    eax,edx
4582:	0f 85 50 08 00 00    	jne    4dd8 <quotearg_buffer_restyled+0xc08>
4588:	44 89 c0             	mov    eax,r8d
458b:	83 f0 01             	xor    eax,0x1
458e:	20 d0                	and    al,dl
4590:	74 2f                	je     45c1 <quotearg_buffer_restyled+0x3f1>
4592:	4d 39 fd             	cmp    r13,r15
4595:	76 05                	jbe    459c <quotearg_buffer_restyled+0x3cc>
4597:	43 c6 04 3e 27       	mov    BYTE PTR [r14+r15*1],0x27
459c:	49 8d 57 01          	lea    rdx,[r15+0x1]
45a0:	49 39 d5             	cmp    r13,rdx
45a3:	76 06                	jbe    45ab <quotearg_buffer_restyled+0x3db>
45a5:	43 c6 44 3e 01 24    	mov    BYTE PTR [r14+r15*1+0x1],0x24
45ab:	49 8d 57 02          	lea    rdx,[r15+0x2]
45af:	49 39 d5             	cmp    r13,rdx
45b2:	76 06                	jbe    45ba <quotearg_buffer_restyled+0x3ea>
45b4:	43 c6 44 3e 02 27    	mov    BYTE PTR [r14+r15*1+0x2],0x27
45ba:	49 83 c7 03          	add    r15,0x3
45be:	41 89 c0             	mov    r8d,eax
45c1:	4d 39 fd             	cmp    r13,r15
45c4:	76 05                	jbe    45cb <quotearg_buffer_restyled+0x3fb>
45c6:	43 c6 04 3e 5c       	mov    BYTE PTR [r14+r15*1],0x5c
45cb:	49 83 c7 01          	add    r15,0x1
45cf:	48 83 c5 01          	add    rbp,0x1
45d3:	e9 88 fe ff ff       	jmp    4460 <quotearg_buffer_restyled+0x290>
45d8:	0f 1f 84 00 00 00 00 	nop    DWORD PTR [rax+rax*1+0x0]
45df:	00
45e0:	80 7c 24 0d 00       	cmp    BYTE PTR [rsp+0xd],0x0
45e5:	0f 85 c8 01 00 00    	jne    47b3 <quotearg_buffer_restyled+0x5e3>
45eb:	31 d2                	xor    edx,edx
45ed:	f6 44 24 78 01       	test   BYTE PTR [rsp+0x78],0x1
45f2:	0f 84 13 ff ff ff    	je     450b <quotearg_buffer_restyled+0x33b>
45f8:	48 83 c5 01          	add    rbp,0x1
45fc:	e9 b7 fc ff ff       	jmp    42b8 <quotearg_buffer_restyled+0xe8>
4601:	0f 1f 80 00 00 00 00 	nop    DWORD PTR [rax+0x0]
4608:	83 7c 24 08 02       	cmp    DWORD PTR [rsp+0x8],0x2
460d:	0f 94 c2             	sete   dl
4610:	31 c0                	xor    eax,eax
4612:	e9 e1 fd ff ff       	jmp    43f8 <quotearg_buffer_restyled+0x228>
4617:	66 0f 1f 84 00 00 00 	nop    WORD PTR [rax+rax*1+0x0]
461e:	00 00
4620:	ba 07 00 00 00       	mov    edx,0x7
4625:	bb 61 00 00 00       	mov    ebx,0x61
462a:	e9 d5 fe ff ff       	jmp    4504 <quotearg_buffer_restyled+0x334>
462f:	90                   	nop
4630:	83 7c 24 08 02       	cmp    DWORD PTR [rsp+0x8],0x2
4635:	0f 94 c2             	sete   dl
4638:	48 85 ed             	test   rbp,rbp
463b:	0f 85 ab fd ff ff    	jne    43ec <quotearg_buffer_restyled+0x21c>
4641:	0f b6 44 24 0f       	movzx  eax,BYTE PTR [rsp+0xf]
4646:	20 d0                	and    al,dl
4648:	0f 84 aa fd ff ff    	je     43f8 <quotearg_buffer_restyled+0x228>
464e:	4c 89 dd             	mov    rbp,r11
4651:	c7 44 24 08 02 00 00 	mov    DWORD PTR [rsp+0x8],0x2
4658:	00
4659:	e9 fb 06 00 00       	jmp    4d59 <quotearg_buffer_restyled+0xb89>
465e:	66 90                	xchg   ax,ax
4660:	83 7c 24 08 02       	cmp    DWORD PTR [rsp+0x8],0x2
4665:	0f 94 c2             	sete   dl
4668:	45 31 e4             	xor    r12d,r12d
466b:	eb d4                	jmp    4641 <quotearg_buffer_restyled+0x471>
466d:	0f 1f 00             	nop    DWORD PTR [rax]
4670:	83 7c 24 08 02       	cmp    DWORD PTR [rsp+0x8],0x2
4675:	bb 20 00 00 00       	mov    ebx,0x20
467a:	0f 94 c2             	sete   dl
467d:	eb c2                	jmp    4641 <quotearg_buffer_restyled+0x471>
467f:	90                   	nop
4680:	ba 0d 00 00 00       	mov    edx,0xd
4685:	bb 72 00 00 00       	mov    ebx,0x72
468a:	e9 63 fe ff ff       	jmp    44f2 <quotearg_buffer_restyled+0x322>
468f:	90                   	nop
4690:	ba 0c 00 00 00       	mov    edx,0xc
4695:	bb 66 00 00 00       	mov    ebx,0x66
469a:	e9 65 fe ff ff       	jmp    4504 <quotearg_buffer_restyled+0x334>
469f:	90                   	nop
46a0:	ba 0b 00 00 00       	mov    edx,0xb
46a5:	bb 76 00 00 00       	mov    ebx,0x76
46aa:	e9 55 fe ff ff       	jmp    4504 <quotearg_buffer_restyled+0x334>
46af:	90                   	nop
46b0:	ba 0a 00 00 00       	mov    edx,0xa
46b5:	bb 6e 00 00 00       	mov    ebx,0x6e
46ba:	e9 33 fe ff ff       	jmp    44f2 <quotearg_buffer_restyled+0x322>
46bf:	90                   	nop
46c0:	45 31 d2             	xor    r10d,r10d
46c3:	0f 1f 44 00 00       	nop    DWORD PTR [rax+rax*1+0x0]
46c8:	48 83 7c 24 58 01    	cmp    QWORD PTR [rsp+0x58],0x1
46ce:	0f 85 a4 03 00 00    	jne    4a78 <quotearg_buffer_restyled+0x8a8>
46d4:	4c 89 5c 24 38       	mov    QWORD PTR [rsp+0x38],r11
46d9:	44 88 44 24 30       	mov    BYTE PTR [rsp+0x30],r8b
46de:	44 88 54 24 28       	mov    BYTE PTR [rsp+0x28],r10b
46e3:	e8 a8 d2 ff ff       	call   1990 <__ctype_b_loc@plt>
46e8:	48 8b 08             	mov    rcx,QWORD PTR [rax]
46eb:	0f b6 d3             	movzx  edx,bl
46ee:	44 0f b6 54 24 28    	movzx  r10d,BYTE PTR [rsp+0x28]
46f4:	44 0f b6 44 24 30    	movzx  r8d,BYTE PTR [rsp+0x30]
46fa:	4c 8b 5c 24 38       	mov    r11,QWORD PTR [rsp+0x38]
46ff:	bf 01 00 00 00       	mov    edi,0x1
4704:	0f b7 04 51          	movzx  eax,WORD PTR [rcx+rdx*2]
4708:	66 25 00 40          	and    ax,0x4000
470c:	41 0f 95 c4          	setne  r12b
4710:	0f 94 c0             	sete   al
4713:	22 44 24 0d          	and    al,BYTE PTR [rsp+0xd]
4717:	84 c0                	test   al,al
4719:	0f 85 92 09 00 00    	jne    50b1 <quotearg_buffer_restyled+0xee1>
471f:	83 7c 24 08 02       	cmp    DWORD PTR [rsp+0x8],0x2
4724:	0f 94 c2             	sete   dl
4727:	e9 cc fc ff ff       	jmp    43f8 <quotearg_buffer_restyled+0x228>
472c:	0f 1f 40 00          	nop    DWORD PTR [rax+0x0]
4730:	41 0f b6 19          	movzx  ebx,BYTE PTR [r9]
4734:	80 fb 7e             	cmp    bl,0x7e
4737:	77 87                	ja     46c0 <quotearg_buffer_restyled+0x4f0>
4739:	48 8d 0d 08 3b 00 00 	lea    rcx,[rip+0x3b08]        # 8248 <_IO_stdin_used+0xf28>
4740:	0f b6 d3             	movzx  edx,bl
4743:	48 63 04 91          	movsxd rax,DWORD PTR [rcx+rdx*4]
4747:	48 01 c8             	add    rax,rcx
474a:	ff e0                	jmp    rax
474c:	0f 1f 40 00          	nop    DWORD PTR [rax+0x0]
4750:	45 31 d2             	xor    r10d,r10d
4753:	80 7c 24 0d 00       	cmp    BYTE PTR [rsp+0xd],0x0
4758:	0f 85 f0 fd ff ff    	jne    454e <quotearg_buffer_restyled+0x37e>
475e:	66 90                	xchg   ax,ax
4760:	ba 5c 00 00 00       	mov    edx,0x5c
4765:	bb 5c 00 00 00       	mov    ebx,0x5c
476a:	e9 95 fd ff ff       	jmp    4504 <quotearg_buffer_restyled+0x334>
476f:	90                   	nop
4770:	ba 0c 00 00 00       	mov    edx,0xc
4775:	45 31 d2             	xor    r10d,r10d
4778:	bb 66 00 00 00       	mov    ebx,0x66
477d:	e9 82 fd ff ff       	jmp    4504 <quotearg_buffer_restyled+0x334>
4782:	66 0f 1f 44 00 00    	nop    WORD PTR [rax+rax*1+0x0]
4788:	ba 0a 00 00 00       	mov    edx,0xa
478d:	45 31 d2             	xor    r10d,r10d
4790:	bb 6e 00 00 00       	mov    ebx,0x6e
4795:	e9 58 fd ff ff       	jmp    44f2 <quotearg_buffer_restyled+0x322>
479a:	66 0f 1f 44 00 00    	nop    WORD PTR [rax+rax*1+0x0]
47a0:	bb 61 00 00 00       	mov    ebx,0x61
47a5:	e9 c6 fd ff ff       	jmp    4570 <quotearg_buffer_restyled+0x3a0>
47aa:	66 0f 1f 44 00 00    	nop    WORD PTR [rax+rax*1+0x0]
47b0:	45 31 d2             	xor    r10d,r10d
47b3:	83 7c 24 08 02       	cmp    DWORD PTR [rsp+0x8],0x2
47b8:	0f 94 c2             	sete   dl
47bb:	80 7c 24 0f 00       	cmp    BYTE PTR [rsp+0xf],0x0
47c0:	0f 85 94 0b 00 00    	jne    535a <quotearg_buffer_restyled+0x118a>
47c6:	44 89 c0             	mov    eax,r8d
47c9:	4c 89 f9             	mov    rcx,r15
47cc:	83 f0 01             	xor    eax,0x1
47cf:	20 d0                	and    al,dl
47d1:	74 2d                	je     4800 <quotearg_buffer_restyled+0x630>
47d3:	4d 39 fd             	cmp    r13,r15
47d6:	76 05                	jbe    47dd <quotearg_buffer_restyled+0x60d>
47d8:	43 c6 04 3e 27       	mov    BYTE PTR [r14+r15*1],0x27
47dd:	49 8d 4f 01          	lea    rcx,[r15+0x1]
47e1:	49 39 cd             	cmp    r13,rcx
47e4:	76 06                	jbe    47ec <quotearg_buffer_restyled+0x61c>
47e6:	43 c6 44 3e 01 24    	mov    BYTE PTR [r14+r15*1+0x1],0x24
47ec:	49 8d 4f 02          	lea    rcx,[r15+0x2]
47f0:	49 39 cd             	cmp    r13,rcx
47f3:	0f 87 30 06 00 00    	ja     4e29 <quotearg_buffer_restyled+0xc59>
47f9:	49 8d 4f 03          	lea    rcx,[r15+0x3]
47fd:	41 89 c0             	mov    r8d,eax
4800:	49 39 cd             	cmp    r13,rcx
4803:	76 05                	jbe    480a <quotearg_buffer_restyled+0x63a>
4805:	41 c6 04 0e 5c       	mov    BYTE PTR [r14+rcx*1],0x5c
480a:	83 7c 24 08 02       	cmp    DWORD PTR [rsp+0x8],0x2
480f:	4c 8d 79 01          	lea    r15,[rcx+0x1]
4813:	0f 84 00 06 00 00    	je     4e19 <quotearg_buffer_restyled+0xc49>
4819:	48 8d 45 01          	lea    rax,[rbp+0x1]
481d:	4c 39 d8             	cmp    rax,r11
4820:	73 19                	jae    483b <quotearg_buffer_restyled+0x66b>
4822:	48 8b 44 24 10       	mov    rax,QWORD PTR [rsp+0x10]
4827:	0f b6 44 28 01       	movzx  eax,BYTE PTR [rax+rbp*1+0x1]
482c:	88 44 24 28          	mov    BYTE PTR [rsp+0x28],al
4830:	83 e8 30             	sub    eax,0x30
4833:	3c 09                	cmp    al,0x9
4835:	0f 86 2e 08 00 00    	jbe    5069 <quotearg_buffer_restyled+0xe99>
483b:	44 89 e0             	mov    eax,r12d
483e:	bb 30 00 00 00       	mov    ebx,0x30
4843:	45 31 e4             	xor    r12d,r12d
4846:	e9 ad fb ff ff       	jmp    43f8 <quotearg_buffer_restyled+0x228>
484b:	0f 1f 44 00 00       	nop    DWORD PTR [rax+rax*1+0x0]
4850:	83 7c 24 08 02       	cmp    DWORD PTR [rsp+0x8],0x2
4855:	45 89 d4             	mov    r12d,r10d
4858:	0f 94 c2             	sete   dl
485b:	45 31 d2             	xor    r10d,r10d
485e:	31 c0                	xor    eax,eax
4860:	e9 93 fb ff ff       	jmp    43f8 <quotearg_buffer_restyled+0x228>
4865:	0f 1f 00             	nop    DWORD PTR [rax]
4868:	83 7c 24 08 02       	cmp    DWORD PTR [rsp+0x8],0x2
486d:	0f 94 c2             	sete   dl
4870:	45 31 d2             	xor    r10d,r10d
4873:	e9 c0 fd ff ff       	jmp    4638 <quotearg_buffer_restyled+0x468>
4878:	0f 1f 84 00 00 00 00 	nop    DWORD PTR [rax+rax*1+0x0]
487f:	00
4880:	83 7c 24 08 02       	cmp    DWORD PTR [rsp+0x8],0x2
4885:	0f 94 c2             	sete   dl
4888:	45 31 d2             	xor    r10d,r10d
488b:	45 31 e4             	xor    r12d,r12d
488e:	e9 ae fd ff ff       	jmp    4641 <quotearg_buffer_restyled+0x471>
4893:	0f 1f 44 00 00       	nop    DWORD PTR [rax+rax*1+0x0]
4898:	83 7c 24 08 02       	cmp    DWORD PTR [rsp+0x8],0x2
489d:	45 89 d4             	mov    r12d,r10d
48a0:	bb 20 00 00 00       	mov    ebx,0x20
48a5:	0f 94 c2             	sete   dl
48a8:	45 31 d2             	xor    r10d,r10d
48ab:	e9 91 fd ff ff       	jmp    4641 <quotearg_buffer_restyled+0x471>
48b0:	ba 0d 00 00 00       	mov    edx,0xd
48b5:	45 31 d2             	xor    r10d,r10d
48b8:	bb 72 00 00 00       	mov    ebx,0x72
48bd:	e9 30 fc ff ff       	jmp    44f2 <quotearg_buffer_restyled+0x322>
48c2:	66 0f 1f 44 00 00    	nop    WORD PTR [rax+rax*1+0x0]
48c8:	bb 76 00 00 00       	mov    ebx,0x76
48cd:	e9 9e fc ff ff       	jmp    4570 <quotearg_buffer_restyled+0x3a0>
48d2:	66 0f 1f 44 00 00    	nop    WORD PTR [rax+rax*1+0x0]
48d8:	ba 09 00 00 00       	mov    edx,0x9
48dd:	45 31 d2             	xor    r10d,r10d
48e0:	bb 74 00 00 00       	mov    ebx,0x74
48e5:	e9 08 fc ff ff       	jmp    44f2 <quotearg_buffer_restyled+0x322>
48ea:	66 0f 1f 44 00 00    	nop    WORD PTR [rax+rax*1+0x0]
48f0:	bb 62 00 00 00       	mov    ebx,0x62
48f5:	e9 76 fc ff ff       	jmp    4570 <quotearg_buffer_restyled+0x3a0>
48fa:	66 0f 1f 44 00 00    	nop    WORD PTR [rax+rax*1+0x0]
4900:	45 31 d2             	xor    r10d,r10d
4903:	e9 98 fa ff ff       	jmp    43a0 <quotearg_buffer_restyled+0x1d0>
4908:	0f 1f 84 00 00 00 00 	nop    DWORD PTR [rax+rax*1+0x0]
490f:	00
4910:	80 7c 24 0f 00       	cmp    BYTE PTR [rsp+0xf],0x0
4915:	0f 85 65 09 00 00    	jne    5280 <quotearg_buffer_restyled+0x10b0>
491b:	48 83 c5 01          	add    rbp,0x1
491f:	44 89 c0             	mov    eax,r8d
4922:	45 31 e4             	xor    r12d,r12d
4925:	bb 5c 00 00 00       	mov    ebx,0x5c
492a:	e9 0d fb ff ff       	jmp    443c <quotearg_buffer_restyled+0x26c>
492f:	90                   	nop
4930:	83 7c 24 08 02       	cmp    DWORD PTR [rsp+0x8],0x2
4935:	0f b6 5c 24 0f       	movzx  ebx,BYTE PTR [rsp+0xf]
493a:	45 89 c4             	mov    r12d,r8d
493d:	4c 89 dd             	mov    rbp,r11
4940:	0f 94 c2             	sete   dl
4943:	89 d8                	mov    eax,ebx
4945:	4d 85 ff             	test   r15,r15
4948:	0f 94 c1             	sete   cl
494b:	21 d0                	and    eax,edx
494d:	20 c8                	and    al,cl
494f:	0f 85 61 0a 00 00    	jne    53b6 <quotearg_buffer_restyled+0x11e6>
4955:	89 d8                	mov    eax,ebx
4957:	83 f0 01             	xor    eax,0x1
495a:	20 c2                	and    dl,al
495c:	0f 84 6a 09 00 00    	je     52cc <quotearg_buffer_restyled+0x10fc>
4962:	80 7c 24 7c 00       	cmp    BYTE PTR [rsp+0x7c],0x0
4967:	0f 84 5d 09 00 00    	je     52ca <quotearg_buffer_restyled+0x10fa>
496d:	80 7c 24 0e 00       	cmp    BYTE PTR [rsp+0xe],0x0
4972:	0f 85 f5 09 00 00    	jne    536d <quotearg_buffer_restyled+0x119d>
4978:	4d 85 ed             	test   r13,r13
497b:	0f 94 c0             	sete   al
497e:	48 83 7c 24 50 00    	cmp    QWORD PTR [rsp+0x50],0x0
4984:	0f 95 c2             	setne  dl
4987:	20 d0                	and    al,dl
4989:	0f 84 1d 0a 00 00    	je     53ac <quotearg_buffer_restyled+0x11dc>
498f:	4c 8b 6c 24 50       	mov    r13,QWORD PTR [rsp+0x50]
4994:	48 8d 1d 22 36 00 00 	lea    rbx,[rip+0x3622]        # 7fbd <_IO_stdin_used+0xc9d>
499b:	41 c6 06 27          	mov    BYTE PTR [r14],0x27
499f:	c7 44 24 08 02 00 00 	mov    DWORD PTR [rsp+0x8],0x2
49a6:	00
49a7:	41 bf 01 00 00 00    	mov    r15d,0x1
49ad:	48 c7 44 24 18 01 00 	mov    QWORD PTR [rsp+0x18],0x1
49b4:	00 00
49b6:	c6 44 24 0f 00       	mov    BYTE PTR [rsp+0xf],0x0
49bb:	48 89 5c 24 48       	mov    QWORD PTR [rsp+0x48],rbx
49c0:	88 44 24 7c          	mov    BYTE PTR [rsp+0x7c],al
49c4:	e9 da f8 ff ff       	jmp    42a3 <quotearg_buffer_restyled+0xd3>
49c9:	0f 1f 80 00 00 00 00 	nop    DWORD PTR [rax+0x0]
49d0:	80 7c 24 0f 00       	cmp    BYTE PTR [rsp+0xf],0x0
49d5:	0f 85 a5 08 00 00    	jne    5280 <quotearg_buffer_restyled+0x10b0>
49db:	4d 85 ed             	test   r13,r13
49de:	0f 84 fc 03 00 00    	je     4de0 <quotearg_buffer_restyled+0xc10>
49e4:	31 d2                	xor    edx,edx
49e6:	48 83 7c 24 50 00    	cmp    QWORD PTR [rsp+0x50],0x0
49ec:	0f 85 ee 03 00 00    	jne    4de0 <quotearg_buffer_restyled+0xc10>
49f2:	4c 89 6c 24 50       	mov    QWORD PTR [rsp+0x50],r13
49f7:	49 83 c7 03          	add    r15,0x3
49fb:	31 c0                	xor    eax,eax
49fd:	44 88 64 24 7c       	mov    BYTE PTR [rsp+0x7c],r12b
4a02:	45 31 c0             	xor    r8d,r8d
4a05:	49 89 d5             	mov    r13,rdx
4a08:	bb 27 00 00 00       	mov    ebx,0x27
4a0d:	e9 17 fa ff ff       	jmp    4429 <quotearg_buffer_restyled+0x259>
4a12:	66 0f 1f 44 00 00    	nop    WORD PTR [rax+rax*1+0x0]
4a18:	f6 44 24 78 04       	test   BYTE PTR [rsp+0x78],0x4
4a1d:	74 21                	je     4a40 <quotearg_buffer_restyled+0x870>
4a1f:	48 8d 4d 02          	lea    rcx,[rbp+0x2]
4a23:	4c 39 d9             	cmp    rcx,r11
4a26:	73 18                	jae    4a40 <quotearg_buffer_restyled+0x870>
4a28:	48 8b 44 24 10       	mov    rax,QWORD PTR [rsp+0x10]
4a2d:	80 7c 28 01 3f       	cmp    BYTE PTR [rax+rbp*1+0x1],0x3f
4a32:	0f 84 8a 07 00 00    	je     51c2 <quotearg_buffer_restyled+0xff2>
4a38:	0f 1f 84 00 00 00 00 	nop    DWORD PTR [rax+rax*1+0x0]
4a3f:	00
4a40:	31 d2                	xor    edx,edx
4a42:	45 31 e4             	xor    r12d,r12d
4a45:	31 c0                	xor    eax,eax
4a47:	bb 3f 00 00 00       	mov    ebx,0x3f
4a4c:	e9 a7 f9 ff ff       	jmp    43f8 <quotearg_buffer_restyled+0x228>
4a51:	0f 1f 80 00 00 00 00 	nop    DWORD PTR [rax+0x0]
4a58:	80 7c 24 0f 00       	cmp    BYTE PTR [rsp+0xf],0x0
4a5d:	0f 85 1d 08 00 00    	jne    5280 <quotearg_buffer_restyled+0x10b0>
4a63:	45 31 e4             	xor    r12d,r12d
4a66:	31 c0                	xor    eax,eax
4a68:	bb 3f 00 00 00       	mov    ebx,0x3f
4a6d:	e9 b7 f9 ff ff       	jmp    4429 <quotearg_buffer_restyled+0x259>
4a72:	66 0f 1f 44 00 00    	nop    WORD PTR [rax+rax*1+0x0]
4a78:	48 8d 84 24 a0 00 00 	lea    rax,[rsp+0xa0]
4a7f:	00
4a80:	49 83 fb ff          	cmp    r11,0xffffffffffffffff
4a84:	48 c7 84 24 a0 00 00 	mov    QWORD PTR [rsp+0xa0],0x0
4a8b:	00 00 00 00 00
4a90:	48 89 44 24 28       	mov    QWORD PTR [rsp+0x28],rax
4a95:	75 2d                	jne    4ac4 <quotearg_buffer_restyled+0x8f4>
4a97:	48 8b 7c 24 10       	mov    rdi,QWORD PTR [rsp+0x10]
4a9c:	44 88 44 24 40       	mov    BYTE PTR [rsp+0x40],r8b
4aa1:	44 88 54 24 38       	mov    BYTE PTR [rsp+0x38],r10b
4aa6:	4c 89 4c 24 30       	mov    QWORD PTR [rsp+0x30],r9
4aab:	e8 60 cc ff ff       	call   1710 <strlen@plt>
4ab0:	44 0f b6 44 24 40    	movzx  r8d,BYTE PTR [rsp+0x40]
4ab6:	44 0f b6 54 24 38    	movzx  r10d,BYTE PTR [rsp+0x38]
4abc:	49 89 c3             	mov    r11,rax
4abf:	4c 8b 4c 24 30       	mov    r9,QWORD PTR [rsp+0x30]
4ac4:	48 8d 84 24 9c 00 00 	lea    rax,[rsp+0x9c]
4acb:	00
4acc:	31 c9                	xor    ecx,ecx
4ace:	88 5c 24 7e          	mov    BYTE PTR [rsp+0x7e],bl
4ad2:	44 88 44 24 7d       	mov    BYTE PTR [rsp+0x7d],r8b
4ad7:	48 89 cb             	mov    rbx,rcx
4ada:	4c 89 8c 24 88 00 00 	mov    QWORD PTR [rsp+0x88],r9
4ae1:	00
4ae2:	48 89 44 24 38       	mov    QWORD PTR [rsp+0x38],rax
4ae7:	44 88 54 24 7f       	mov    BYTE PTR [rsp+0x7f],r10b
4aec:	4c 89 bc 24 80 00 00 	mov    QWORD PTR [rsp+0x80],r15
4af3:	00
4af4:	4c 89 74 24 40       	mov    QWORD PTR [rsp+0x40],r14
4af9:	4c 89 6c 24 70       	mov    QWORD PTR [rsp+0x70],r13
4afe:	4c 89 5c 24 30       	mov    QWORD PTR [rsp+0x30],r11
4b03:	48 8b 44 24 10       	mov    rax,QWORD PTR [rsp+0x10]
4b08:	4c 8d 74 1d 00       	lea    r14,[rbp+rbx*1+0x0]
4b0d:	48 8b 54 24 30       	mov    rdx,QWORD PTR [rsp+0x30]
4b12:	48 8b 4c 24 28       	mov    rcx,QWORD PTR [rsp+0x28]
4b17:	48 8b 7c 24 38       	mov    rdi,QWORD PTR [rsp+0x38]
4b1c:	4e 8d 2c 30          	lea    r13,[rax+r14*1]
4b20:	4c 29 f2             	sub    rdx,r14
4b23:	4c 89 ee             	mov    rsi,r13
4b26:	e8 25 24 00 00       	call   6f50 <rpl_mbrtowc>
4b2b:	48 85 c0             	test   rax,rax
4b2e:	49 89 c7             	mov    r15,rax
4b31:	74 4e                	je     4b81 <quotearg_buffer_restyled+0x9b1>
4b33:	48 83 f8 ff          	cmp    rax,0xffffffffffffffff
4b37:	0f 84 18 06 00 00    	je     5155 <quotearg_buffer_restyled+0xf85>
4b3d:	48 83 f8 fe          	cmp    rax,0xfffffffffffffffe
4b41:	0f 84 9a 05 00 00    	je     50e1 <quotearg_buffer_restyled+0xf11>
4b47:	83 7c 24 08 02       	cmp    DWORD PTR [rsp+0x8],0x2
4b4c:	0f 94 c0             	sete   al
4b4f:	22 44 24 0f          	and    al,BYTE PTR [rsp+0xf]
4b53:	0f 85 97 01 00 00    	jne    4cf0 <quotearg_buffer_restyled+0xb20>
4b59:	8b bc 24 9c 00 00 00 	mov    edi,DWORD PTR [rsp+0x9c]
4b60:	e8 1b ce ff ff       	call   1980 <iswprint@plt>
4b65:	48 8b 7c 24 28       	mov    rdi,QWORD PTR [rsp+0x28]
4b6a:	85 c0                	test   eax,eax
4b6c:	b8 00 00 00 00       	mov    eax,0x0
4b71:	44 0f 44 e0          	cmove  r12d,eax
4b75:	4c 01 fb             	add    rbx,r15
4b78:	e8 f3 cd ff ff       	call   1970 <mbsinit@plt>
4b7d:	85 c0                	test   eax,eax
4b7f:	74 82                	je     4b03 <quotearg_buffer_restyled+0x933>
4b81:	44 89 e2             	mov    edx,r12d
4b84:	48 89 df             	mov    rdi,rbx
4b87:	44 0f b6 44 24 7d    	movzx  r8d,BYTE PTR [rsp+0x7d]
4b8d:	83 f2 01             	xor    edx,0x1
4b90:	0f b6 5c 24 7e       	movzx  ebx,BYTE PTR [rsp+0x7e]
4b95:	44 0f b6 54 24 7f    	movzx  r10d,BYTE PTR [rsp+0x7f]
4b9b:	22 54 24 0d          	and    dl,BYTE PTR [rsp+0xd]
4b9f:	4c 8b bc 24 80 00 00 	mov    r15,QWORD PTR [rsp+0x80]
4ba6:	00
4ba7:	4c 8b 74 24 40       	mov    r14,QWORD PTR [rsp+0x40]
4bac:	4c 8b 6c 24 70       	mov    r13,QWORD PTR [rsp+0x70]
4bb1:	4c 8b 5c 24 30       	mov    r11,QWORD PTR [rsp+0x30]
4bb6:	48 83 ff 01          	cmp    rdi,0x1
4bba:	0f 86 fb 05 00 00    	jbe    51bb <quotearg_buffer_restyled+0xfeb>
4bc0:	48 89 f9             	mov    rcx,rdi
4bc3:	31 f6                	xor    esi,esi
4bc5:	44 0f b6 4c 24 0f    	movzx  r9d,BYTE PTR [rsp+0xf]
4bcb:	48 01 e9             	add    rcx,rbp
4bce:	48 8b 7c 24 10       	mov    rdi,QWORD PTR [rsp+0x10]
4bd3:	e9 b6 00 00 00       	jmp    4c8e <quotearg_buffer_restyled+0xabe>
4bd8:	0f 1f 84 00 00 00 00 	nop    DWORD PTR [rax+rax*1+0x0]
4bdf:	00
4be0:	83 7c 24 08 02       	cmp    DWORD PTR [rsp+0x8],0x2
4be5:	0f 94 c0             	sete   al
4be8:	45 84 c9             	test   r9b,r9b
4beb:	0f 85 af 04 00 00    	jne    50a0 <quotearg_buffer_restyled+0xed0>
4bf1:	44 89 c6             	mov    esi,r8d
4bf4:	83 f6 01             	xor    esi,0x1
4bf7:	40 20 f0             	and    al,sil
4bfa:	74 2f                	je     4c2b <quotearg_buffer_restyled+0xa5b>
4bfc:	4d 39 fd             	cmp    r13,r15
4bff:	76 05                	jbe    4c06 <quotearg_buffer_restyled+0xa36>
4c01:	43 c6 04 3e 27       	mov    BYTE PTR [r14+r15*1],0x27
4c06:	49 8d 77 01          	lea    rsi,[r15+0x1]
4c0a:	49 39 f5             	cmp    r13,rsi
4c0d:	76 06                	jbe    4c15 <quotearg_buffer_restyled+0xa45>
4c0f:	43 c6 44 3e 01 24    	mov    BYTE PTR [r14+r15*1+0x1],0x24
4c15:	49 8d 77 02          	lea    rsi,[r15+0x2]
4c19:	49 39 f5             	cmp    r13,rsi
4c1c:	76 06                	jbe    4c24 <quotearg_buffer_restyled+0xa54>
4c1e:	43 c6 44 3e 02 27    	mov    BYTE PTR [r14+r15*1+0x2],0x27
4c24:	49 83 c7 03          	add    r15,0x3
4c28:	41 89 c0             	mov    r8d,eax
4c2b:	4d 39 fd             	cmp    r13,r15
4c2e:	76 05                	jbe    4c35 <quotearg_buffer_restyled+0xa65>
4c30:	43 c6 04 3e 5c       	mov    BYTE PTR [r14+r15*1],0x5c
4c35:	49 8d 47 01          	lea    rax,[r15+0x1]
4c39:	49 39 c5             	cmp    r13,rax
4c3c:	76 0d                	jbe    4c4b <quotearg_buffer_restyled+0xa7b>
4c3e:	89 d8                	mov    eax,ebx
4c40:	c0 e8 06             	shr    al,0x6
4c43:	83 c0 30             	add    eax,0x30
4c46:	43 88 44 3e 01       	mov    BYTE PTR [r14+r15*1+0x1],al
4c4b:	49 8d 47 02          	lea    rax,[r15+0x2]
4c4f:	49 39 c5             	cmp    r13,rax
4c52:	76 10                	jbe    4c64 <quotearg_buffer_restyled+0xa94>
4c54:	89 d8                	mov    eax,ebx
4c56:	c0 e8 03             	shr    al,0x3
4c59:	83 e0 07             	and    eax,0x7
4c5c:	83 c0 30             	add    eax,0x30
4c5f:	43 88 44 3e 02       	mov    BYTE PTR [r14+r15*1+0x2],al
4c64:	83 e3 07             	and    ebx,0x7
4c67:	48 83 c5 01          	add    rbp,0x1
4c6b:	49 83 c7 03          	add    r15,0x3
4c6f:	83 c3 30             	add    ebx,0x30
4c72:	48 39 cd             	cmp    rbp,rcx
4c75:	0f 83 e5 f7 ff ff    	jae    4460 <quotearg_buffer_restyled+0x290>
4c7b:	89 d6                	mov    esi,edx
4c7d:	4d 39 fd             	cmp    r13,r15
4c80:	76 04                	jbe    4c86 <quotearg_buffer_restyled+0xab6>
4c82:	43 88 1c 3e          	mov    BYTE PTR [r14+r15*1],bl
4c86:	0f b6 1c 2f          	movzx  ebx,BYTE PTR [rdi+rbp*1]
4c8a:	49 83 c7 01          	add    r15,0x1
4c8e:	84 d2                	test   dl,dl
4c90:	0f 85 4a ff ff ff    	jne    4be0 <quotearg_buffer_restyled+0xa10>
4c96:	89 f0                	mov    eax,esi
4c98:	83 f0 01             	xor    eax,0x1
4c9b:	44 21 c0             	and    eax,r8d
4c9e:	45 84 d2             	test   r10b,r10b
4ca1:	74 0e                	je     4cb1 <quotearg_buffer_restyled+0xae1>
4ca3:	4d 39 fd             	cmp    r13,r15
4ca6:	76 05                	jbe    4cad <quotearg_buffer_restyled+0xadd>
4ca8:	43 c6 04 3e 5c       	mov    BYTE PTR [r14+r15*1],0x5c
4cad:	49 83 c7 01          	add    r15,0x1
4cb1:	48 83 c5 01          	add    rbp,0x1
4cb5:	48 39 cd             	cmp    rbp,rcx
4cb8:	0f 83 7e f7 ff ff    	jae    443c <quotearg_buffer_restyled+0x26c>
4cbe:	84 c0                	test   al,al
4cc0:	0f 84 f8 03 00 00    	je     50be <quotearg_buffer_restyled+0xeee>
4cc6:	4d 39 fd             	cmp    r13,r15
4cc9:	76 05                	jbe    4cd0 <quotearg_buffer_restyled+0xb00>
4ccb:	43 c6 04 3e 27       	mov    BYTE PTR [r14+r15*1],0x27
4cd0:	49 8d 47 01          	lea    rax,[r15+0x1]
4cd4:	49 39 c5             	cmp    r13,rax
4cd7:	76 06                	jbe    4cdf <quotearg_buffer_restyled+0xb0f>
4cd9:	43 c6 44 3e 01 27    	mov    BYTE PTR [r14+r15*1+0x1],0x27
4cdf:	49 83 c7 02          	add    r15,0x2
4ce3:	45 31 d2             	xor    r10d,r10d
4ce6:	45 31 c0             	xor    r8d,r8d
4ce9:	eb 92                	jmp    4c7d <quotearg_buffer_restyled+0xaad>
4ceb:	0f 1f 44 00 00       	nop    DWORD PTR [rax+rax*1+0x0]
4cf0:	49 83 ff 01          	cmp    r15,0x1
4cf4:	0f 84 5f fe ff ff    	je     4b59 <quotearg_buffer_restyled+0x989>
4cfa:	48 8b 7c 24 10       	mov    rdi,QWORD PTR [rsp+0x10]
4cff:	4a 8d 0c 3f          	lea    rcx,[rdi+r15*1]
4d03:	4a 8d 54 37 01       	lea    rdx,[rdi+r14*1+0x1]
4d08:	4e 8d 04 31          	lea    r8,[rcx+r14*1]
4d0c:	eb 0f                	jmp    4d1d <quotearg_buffer_restyled+0xb4d>
4d0e:	66 90                	xchg   ax,ax
4d10:	48 83 c2 01          	add    rdx,0x1
4d14:	49 39 d0             	cmp    r8,rdx
4d17:	0f 84 3c fe ff ff    	je     4b59 <quotearg_buffer_restyled+0x989>
4d1d:	0f b6 0a             	movzx  ecx,BYTE PTR [rdx]
4d20:	83 e9 5b             	sub    ecx,0x5b
4d23:	80 f9 21             	cmp    cl,0x21
4d26:	77 e8                	ja     4d10 <quotearg_buffer_restyled+0xb40>
4d28:	be 01 00 00 00       	mov    esi,0x1
4d2d:	48 d3 e6             	shl    rsi,cl
4d30:	48 89 f1             	mov    rcx,rsi
4d33:	48 be 2b 00 00 00 02 	movabs rsi,0x20000002b
4d3a:	00 00 00
4d3d:	48 85 f1             	test   rcx,rsi
4d40:	74 ce                	je     4d10 <quotearg_buffer_restyled+0xb40>
4d42:	4c 8b 74 24 40       	mov    r14,QWORD PTR [rsp+0x40]
4d47:	4c 8b 6c 24 70       	mov    r13,QWORD PTR [rsp+0x70]
4d4c:	48 8b 6c 24 30       	mov    rbp,QWORD PTR [rsp+0x30]
4d51:	c7 44 24 08 02 00 00 	mov    DWORD PTR [rsp+0x8],0x2
4d58:	00
4d59:	80 7c 24 0d 00       	cmp    BYTE PTR [rsp+0xd],0x0
4d5e:	74 10                	je     4d70 <quotearg_buffer_restyled+0xba0>
4d60:	84 c0                	test   al,al
4d62:	b8 04 00 00 00       	mov    eax,0x4
4d67:	0f 44 44 24 08       	cmove  eax,DWORD PTR [rsp+0x8]
4d6c:	89 44 24 08          	mov    DWORD PTR [rsp+0x8],eax
4d70:	48 83 ec 08          	sub    rsp,0x8
4d74:	48 89 e9             	mov    rcx,rbp
4d77:	4c 89 ee             	mov    rsi,r13
4d7a:	ff 74 24 68          	push   QWORD PTR [rsp+0x68]
4d7e:	ff 74 24 78          	push   QWORD PTR [rsp+0x78]
4d82:	4c 89 f7             	mov    rdi,r14
4d85:	6a 00                	push   0x0
4d87:	44 8b 8c 24 98 00 00 	mov    r9d,DWORD PTR [rsp+0x98]
4d8e:	00
4d8f:	44 8b 44 24 28       	mov    r8d,DWORD PTR [rsp+0x28]
4d94:	48 8b 54 24 30       	mov    rdx,QWORD PTR [rsp+0x30]
4d99:	41 83 e1 fd          	and    r9d,0xfffffffd
4d9d:	e8 2e f4 ff ff       	call   41d0 <quotearg_buffer_restyled>
4da2:	48 83 c4 20          	add    rsp,0x20
4da6:	49 89 c7             	mov    r15,rax
4da9:	48 8b 9c 24 a8 00 00 	mov    rbx,QWORD PTR [rsp+0xa8]
4db0:	00
4db1:	64 48 33 1c 25 28 00 	xor    rbx,QWORD PTR fs:0x28
4db8:	00 00
4dba:	4c 89 f8             	mov    rax,r15
4dbd:	0f 85 00 06 00 00    	jne    53c3 <quotearg_buffer_restyled+0x11f3>
4dc3:	48 81 c4 b8 00 00 00 	add    rsp,0xb8
4dca:	5b                   	pop    rbx
4dcb:	5d                   	pop    rbp
4dcc:	41 5c                	pop    r12
4dce:	41 5d                	pop    r13
4dd0:	41 5e                	pop    r14
4dd2:	41 5f                	pop    r15
4dd4:	c3                   	ret
4dd5:	0f 1f 00             	nop    DWORD PTR [rax]
4dd8:	4c 89 dd             	mov    rbp,r11
4ddb:	e9 79 ff ff ff       	jmp    4d59 <quotearg_buffer_restyled+0xb89>
4de0:	4d 39 fd             	cmp    r13,r15
4de3:	76 05                	jbe    4dea <quotearg_buffer_restyled+0xc1a>
4de5:	43 c6 04 3e 27       	mov    BYTE PTR [r14+r15*1],0x27
4dea:	49 8d 47 01          	lea    rax,[r15+0x1]
4dee:	49 39 c5             	cmp    r13,rax
4df1:	76 06                	jbe    4df9 <quotearg_buffer_restyled+0xc29>
4df3:	43 c6 44 3e 01 5c    	mov    BYTE PTR [r14+r15*1+0x1],0x5c
4df9:	49 8d 47 02          	lea    rax,[r15+0x2]
4dfd:	49 39 c5             	cmp    r13,rax
4e00:	0f 86 ec 05 00 00    	jbe    53f2 <quotearg_buffer_restyled+0x1222>
4e06:	4c 89 ea             	mov    rdx,r13
4e09:	43 c6 44 3e 02 27    	mov    BYTE PTR [r14+r15*1+0x2],0x27
4e0f:	4c 8b 6c 24 50       	mov    r13,QWORD PTR [rsp+0x50]
4e14:	e9 d9 fb ff ff       	jmp    49f2 <quotearg_buffer_restyled+0x822>
4e19:	44 89 e0             	mov    eax,r12d
4e1c:	bb 30 00 00 00       	mov    ebx,0x30
4e21:	45 31 e4             	xor    r12d,r12d
4e24:	e9 00 f6 ff ff       	jmp    4429 <quotearg_buffer_restyled+0x259>
4e29:	43 c6 44 3e 02 27    	mov    BYTE PTR [r14+r15*1+0x2],0x27
4e2f:	e9 c5 f9 ff ff       	jmp    47f9 <quotearg_buffer_restyled+0x629>
4e34:	85 db                	test   ebx,ebx
4e36:	0f 85 27 f4 ff ff    	jne    4263 <quotearg_buffer_restyled+0x93>
4e3c:	c6 44 24 0d 01       	mov    BYTE PTR [rsp+0xd],0x1
4e41:	4d 85 ed             	test   r13,r13
4e44:	0f 85 90 05 00 00    	jne    53da <quotearg_buffer_restyled+0x120a>
4e4a:	48 8d 05 6c 31 00 00 	lea    rax,[rip+0x316c]        # 7fbd <_IO_stdin_used+0xc9d>
4e51:	48 c7 44 24 50 00 00 	mov    QWORD PTR [rsp+0x50],0x0
4e58:	00 00
4e5a:	c6 44 24 0e 01       	mov    BYTE PTR [rsp+0xe],0x1
4e5f:	c6 44 24 7c 00       	mov    BYTE PTR [rsp+0x7c],0x0
4e64:	45 31 e4             	xor    r12d,r12d
4e67:	c6 44 24 0f 00       	mov    BYTE PTR [rsp+0xf],0x0
4e6c:	48 c7 44 24 18 01 00 	mov    QWORD PTR [rsp+0x18],0x1
4e73:	00 00
4e75:	48 89 44 24 48       	mov    QWORD PTR [rsp+0x48],rax
4e7a:	41 bf 01 00 00 00    	mov    r15d,0x1
4e80:	c7 44 24 08 02 00 00 	mov    DWORD PTR [rsp+0x8],0x2
4e87:	00
4e88:	e9 16 f4 ff ff       	jmp    42a3 <quotearg_buffer_restyled+0xd3>
4e8d:	0f 1f 00             	nop    DWORD PTR [rax]
4e90:	85 db                	test   ebx,ebx
4e92:	0f 85 f5 03 00 00    	jne    528d <quotearg_buffer_restyled+0x10bd>
4e98:	4d 85 ed             	test   r13,r13
4e9b:	0f 84 25 02 00 00    	je     50c6 <quotearg_buffer_restyled+0xef6>
4ea1:	41 c6 06 22          	mov    BYTE PTR [r14],0x22
4ea5:	c6 44 24 0e 01       	mov    BYTE PTR [rsp+0xe],0x1
4eaa:	45 31 e4             	xor    r12d,r12d
4ead:	c6 44 24 7c 00       	mov    BYTE PTR [rsp+0x7c],0x0
4eb2:	48 c7 44 24 50 00 00 	mov    QWORD PTR [rsp+0x50],0x0
4eb9:	00 00
4ebb:	48 8d 05 f9 30 00 00 	lea    rax,[rip+0x30f9]        # 7fbb <_IO_stdin_used+0xc9b>
4ec2:	c6 44 24 0f 00       	mov    BYTE PTR [rsp+0xf],0x0
4ec7:	c6 44 24 0d 01       	mov    BYTE PTR [rsp+0xd],0x1
4ecc:	48 c7 44 24 18 01 00 	mov    QWORD PTR [rsp+0x18],0x1
4ed3:	00 00
4ed5:	41 bf 01 00 00 00    	mov    r15d,0x1
4edb:	48 89 44 24 48       	mov    QWORD PTR [rsp+0x48],rax
4ee0:	e9 be f3 ff ff       	jmp    42a3 <quotearg_buffer_restyled+0xd3>
4ee5:	48 8d 05 cf 30 00 00 	lea    rax,[rip+0x30cf]        # 7fbb <_IO_stdin_used+0xc9b>
4eec:	c6 44 24 0e 01       	mov    BYTE PTR [rsp+0xe],0x1
4ef1:	c6 44 24 7c 00       	mov    BYTE PTR [rsp+0x7c],0x0
4ef6:	45 31 e4             	xor    r12d,r12d
4ef9:	48 c7 44 24 50 00 00 	mov    QWORD PTR [rsp+0x50],0x0
4f00:	00 00
4f02:	c6 44 24 0f 01       	mov    BYTE PTR [rsp+0xf],0x1
4f07:	c6 44 24 0d 01       	mov    BYTE PTR [rsp+0xd],0x1
4f0c:	48 c7 44 24 18 01 00 	mov    QWORD PTR [rsp+0x18],0x1
4f13:	00 00
4f15:	45 31 ff             	xor    r15d,r15d
4f18:	48 89 44 24 48       	mov    QWORD PTR [rsp+0x48],rax
4f1d:	c7 44 24 08 05 00 00 	mov    DWORD PTR [rsp+0x8],0x5
4f24:	00
4f25:	e9 79 f3 ff ff       	jmp    42a3 <quotearg_buffer_restyled+0xd3>
4f2a:	c6 44 24 0e 01       	mov    BYTE PTR [rsp+0xe],0x1
4f2f:	c6 44 24 7c 00       	mov    BYTE PTR [rsp+0x7c],0x0
4f34:	45 31 e4             	xor    r12d,r12d
4f37:	48 c7 44 24 50 00 00 	mov    QWORD PTR [rsp+0x50],0x0
4f3e:	00 00
4f40:	c6 44 24 0f 00       	mov    BYTE PTR [rsp+0xf],0x0
4f45:	45 31 ff             	xor    r15d,r15d
4f48:	c6 44 24 0d 01       	mov    BYTE PTR [rsp+0xd],0x1
4f4d:	48 c7 44 24 18 00 00 	mov    QWORD PTR [rsp+0x18],0x0
4f54:	00 00
4f56:	48 c7 44 24 48 00 00 	mov    QWORD PTR [rsp+0x48],0x0
4f5d:	00 00
4f5f:	e9 3f f3 ff ff       	jmp    42a3 <quotearg_buffer_restyled+0xd3>
4f64:	83 7c 24 08 0a       	cmp    DWORD PTR [rsp+0x8],0xa
4f69:	74 56                	je     4fc1 <quotearg_buffer_restyled+0xdf1>
4f6b:	48 8d 35 4d 30 00 00 	lea    rsi,[rip+0x304d]        # 7fbf <_IO_stdin_used+0xc9f>
4f72:	31 ff                	xor    edi,edi
4f74:	ba 05 00 00 00       	mov    edx,0x5
4f79:	e8 72 c7 ff ff       	call   16f0 <dcgettext@plt>
4f7e:	48 89 c1             	mov    rcx,rax
4f81:	48 89 44 24 68       	mov    QWORD PTR [rsp+0x68],rax
4f86:	48 8d 05 32 30 00 00 	lea    rax,[rip+0x3032]        # 7fbf <_IO_stdin_used+0xc9f>
4f8d:	48 39 c1             	cmp    rcx,rax
4f90:	0f 84 98 03 00 00    	je     532e <quotearg_buffer_restyled+0x115e>
4f96:	48 8d 35 20 30 00 00 	lea    rsi,[rip+0x3020]        # 7fbd <_IO_stdin_used+0xc9d>
4f9d:	31 ff                	xor    edi,edi
4f9f:	ba 05 00 00 00       	mov    edx,0x5
4fa4:	e8 47 c7 ff ff       	call   16f0 <dcgettext@plt>
4fa9:	48 89 c1             	mov    rcx,rax
4fac:	48 89 44 24 60       	mov    QWORD PTR [rsp+0x60],rax
4fb1:	48 8d 05 05 30 00 00 	lea    rax,[rip+0x3005]        # 7fbd <_IO_stdin_used+0xc9d>
4fb8:	48 39 c1             	cmp    rcx,rax
4fbb:	0f 84 83 03 00 00    	je     5344 <quotearg_buffer_restyled+0x1174>
4fc1:	45 31 ff             	xor    r15d,r15d
4fc4:	85 db                	test   ebx,ebx
4fc6:	0f 84 c1 01 00 00    	je     518d <quotearg_buffer_restyled+0xfbd>
4fcc:	85 db                	test   ebx,ebx
4fce:	48 8b 5c 24 60       	mov    rbx,QWORD PTR [rsp+0x60]
4fd3:	0f 95 44 24 0f       	setne  BYTE PTR [rsp+0xf]
4fd8:	45 31 e4             	xor    r12d,r12d
4fdb:	48 89 df             	mov    rdi,rbx
4fde:	e8 2d c7 ff ff       	call   1710 <strlen@plt>
4fe3:	48 89 5c 24 48       	mov    QWORD PTR [rsp+0x48],rbx
4fe8:	48 89 44 24 18       	mov    QWORD PTR [rsp+0x18],rax
4fed:	c6 44 24 0e 01       	mov    BYTE PTR [rsp+0xe],0x1
4ff2:	c6 44 24 7c 00       	mov    BYTE PTR [rsp+0x7c],0x0
4ff7:	48 c7 44 24 50 00 00 	mov    QWORD PTR [rsp+0x50],0x0
4ffe:	00 00
5000:	c6 44 24 0d 01       	mov    BYTE PTR [rsp+0xd],0x1
5005:	e9 99 f2 ff ff       	jmp    42a3 <quotearg_buffer_restyled+0xd3>
500a:	c6 44 24 0e 01       	mov    BYTE PTR [rsp+0xe],0x1
500f:	c6 44 24 7c 00       	mov    BYTE PTR [rsp+0x7c],0x0
5014:	45 31 e4             	xor    r12d,r12d
5017:	48 c7 44 24 50 00 00 	mov    QWORD PTR [rsp+0x50],0x0
501e:	00 00
5020:	c6 44 24 0f 00       	mov    BYTE PTR [rsp+0xf],0x0
5025:	45 31 ff             	xor    r15d,r15d
5028:	c6 44 24 0d 00       	mov    BYTE PTR [rsp+0xd],0x0
502d:	48 c7 44 24 18 00 00 	mov    QWORD PTR [rsp+0x18],0x0
5034:	00 00
5036:	48 c7 44 24 48 00 00 	mov    QWORD PTR [rsp+0x48],0x0
503d:	00 00
503f:	e9 5f f2 ff ff       	jmp    42a3 <quotearg_buffer_restyled+0xd3>
5044:	c6 44 24 0e 01       	mov    BYTE PTR [rsp+0xe],0x1
5049:	c6 44 24 7c 00       	mov    BYTE PTR [rsp+0x7c],0x0
504e:	45 31 e4             	xor    r12d,r12d
5051:	48 c7 44 24 50 00 00 	mov    QWORD PTR [rsp+0x50],0x0
5058:	00 00
505a:	c6 44 24 0f 01       	mov    BYTE PTR [rsp+0xf],0x1
505f:	c6 44 24 0d 01       	mov    BYTE PTR [rsp+0xd],0x1
5064:	e9 1a f2 ff ff       	jmp    4283 <quotearg_buffer_restyled+0xb3>
5069:	4d 39 fd             	cmp    r13,r15
506c:	76 05                	jbe    5073 <quotearg_buffer_restyled+0xea3>
506e:	43 c6 04 3e 30       	mov    BYTE PTR [r14+r15*1],0x30
5073:	48 8d 41 02          	lea    rax,[rcx+0x2]
5077:	49 39 c5             	cmp    r13,rax
507a:	76 06                	jbe    5082 <quotearg_buffer_restyled+0xeb2>
507c:	41 c6 44 0e 02 30    	mov    BYTE PTR [r14+rcx*1+0x2],0x30
5082:	44 89 e0             	mov    eax,r12d
5085:	4c 8d 79 03          	lea    r15,[rcx+0x3]
5089:	45 31 e4             	xor    r12d,r12d
508c:	bb 30 00 00 00       	mov    ebx,0x30
5091:	e9 62 f3 ff ff       	jmp    43f8 <quotearg_buffer_restyled+0x228>
5096:	66 2e 0f 1f 84 00 00 	nop    WORD PTR cs:[rax+rax*1+0x0]
509d:	00 00 00
50a0:	0f b6 5c 24 0f       	movzx  ebx,BYTE PTR [rsp+0xf]
50a5:	4c 89 dd             	mov    rbp,r11
50a8:	88 5c 24 0d          	mov    BYTE PTR [rsp+0xd],bl
50ac:	e9 a8 fc ff ff       	jmp    4d59 <quotearg_buffer_restyled+0xb89>
50b1:	0f b6 54 24 0d       	movzx  edx,BYTE PTR [rsp+0xd]
50b6:	45 31 e4             	xor    r12d,r12d
50b9:	e9 02 fb ff ff       	jmp    4bc0 <quotearg_buffer_restyled+0x9f0>
50be:	45 31 d2             	xor    r10d,r10d
50c1:	e9 b7 fb ff ff       	jmp    4c7d <quotearg_buffer_restyled+0xaad>
50c6:	48 c7 44 24 50 00 00 	mov    QWORD PTR [rsp+0x50],0x0
50cd:	00 00
50cf:	c6 44 24 0e 01       	mov    BYTE PTR [rsp+0xe],0x1
50d4:	45 31 e4             	xor    r12d,r12d
50d7:	c6 44 24 7c 00       	mov    BYTE PTR [rsp+0x7c],0x0
50dc:	e9 da fd ff ff       	jmp    4ebb <quotearg_buffer_restyled+0xceb>
50e1:	4c 8b 5c 24 30       	mov    r11,QWORD PTR [rsp+0x30]
50e6:	4c 89 f6             	mov    rsi,r14
50e9:	4c 89 e9             	mov    rcx,r13
50ec:	48 89 d8             	mov    rax,rbx
50ef:	48 89 df             	mov    rdi,rbx
50f2:	44 0f b6 44 24 7d    	movzx  r8d,BYTE PTR [rsp+0x7d]
50f8:	0f b6 5c 24 7e       	movzx  ebx,BYTE PTR [rsp+0x7e]
50fd:	4c 8b 8c 24 88 00 00 	mov    r9,QWORD PTR [rsp+0x88]
5104:	00
5105:	4c 39 de             	cmp    rsi,r11
5108:	44 0f b6 54 24 7f    	movzx  r10d,BYTE PTR [rsp+0x7f]
510e:	4c 8b bc 24 80 00 00 	mov    r15,QWORD PTR [rsp+0x80]
5115:	00
5116:	4c 8b 74 24 40       	mov    r14,QWORD PTR [rsp+0x40]
511b:	4c 8b 6c 24 70       	mov    r13,QWORD PTR [rsp+0x70]
5120:	73 26                	jae    5148 <quotearg_buffer_restyled+0xf78>
5122:	80 39 00             	cmp    BYTE PTR [rcx],0x0
5125:	75 10                	jne    5137 <quotearg_buffer_restyled+0xf67>
5127:	eb 1f                	jmp    5148 <quotearg_buffer_restyled+0xf78>
5129:	0f 1f 80 00 00 00 00 	nop    DWORD PTR [rax+0x0]
5130:	41 80 3c 01 00       	cmp    BYTE PTR [r9+rax*1],0x0
5135:	74 0e                	je     5145 <quotearg_buffer_restyled+0xf75>
5137:	48 83 c0 01          	add    rax,0x1
513b:	48 8d 54 05 00       	lea    rdx,[rbp+rax*1+0x0]
5140:	49 39 d3             	cmp    r11,rdx
5143:	77 eb                	ja     5130 <quotearg_buffer_restyled+0xf60>
5145:	48 89 c7             	mov    rdi,rax
5148:	0f b6 54 24 0d       	movzx  edx,BYTE PTR [rsp+0xd]
514d:	45 31 e4             	xor    r12d,r12d
5150:	e9 61 fa ff ff       	jmp    4bb6 <quotearg_buffer_restyled+0x9e6>
5155:	48 89 df             	mov    rdi,rbx
5158:	44 0f b6 44 24 7d    	movzx  r8d,BYTE PTR [rsp+0x7d]
515e:	0f b6 5c 24 7e       	movzx  ebx,BYTE PTR [rsp+0x7e]
5163:	44 0f b6 54 24 7f    	movzx  r10d,BYTE PTR [rsp+0x7f]
5169:	4c 8b bc 24 80 00 00 	mov    r15,QWORD PTR [rsp+0x80]
5170:	00
5171:	45 31 e4             	xor    r12d,r12d
5174:	4c 8b 74 24 40       	mov    r14,QWORD PTR [rsp+0x40]
5179:	4c 8b 6c 24 70       	mov    r13,QWORD PTR [rsp+0x70]
517e:	4c 8b 5c 24 30       	mov    r11,QWORD PTR [rsp+0x30]
5183:	0f b6 54 24 0d       	movzx  edx,BYTE PTR [rsp+0xd]
5188:	e9 29 fa ff ff       	jmp    4bb6 <quotearg_buffer_restyled+0x9e6>
518d:	48 8b 54 24 68       	mov    rdx,QWORD PTR [rsp+0x68]
5192:	0f b6 02             	movzx  eax,BYTE PTR [rdx]
5195:	84 c0                	test   al,al
5197:	0f 84 2f fe ff ff    	je     4fcc <quotearg_buffer_restyled+0xdfc>
519d:	0f 1f 00             	nop    DWORD PTR [rax]
51a0:	4d 39 fd             	cmp    r13,r15
51a3:	76 04                	jbe    51a9 <quotearg_buffer_restyled+0xfd9>
51a5:	43 88 04 3e          	mov    BYTE PTR [r14+r15*1],al
51a9:	49 83 c7 01          	add    r15,0x1
51ad:	42 0f b6 04 3a       	movzx  eax,BYTE PTR [rdx+r15*1]
51b2:	84 c0                	test   al,al
51b4:	75 ea                	jne    51a0 <quotearg_buffer_restyled+0xfd0>
51b6:	e9 11 fe ff ff       	jmp    4fcc <quotearg_buffer_restyled+0xdfc>
51bb:	89 d0                	mov    eax,edx
51bd:	e9 55 f5 ff ff       	jmp    4717 <quotearg_buffer_restyled+0x547>
51c2:	0f b6 1c 08          	movzx  ebx,BYTE PTR [rax+rcx*1]
51c6:	80 fb 3e             	cmp    bl,0x3e
51c9:	0f 87 71 f8 ff ff    	ja     4a40 <quotearg_buffer_restyled+0x870>
51cf:	48 b8 00 00 00 00 82 	movabs rax,0x7000a38200000000
51d6:	a3 00 70
51d9:	48 0f a3 d8          	bt     rax,rbx
51dd:	0f 83 5d f8 ff ff    	jae    4a40 <quotearg_buffer_restyled+0x870>
51e3:	80 7c 24 0f 00       	cmp    BYTE PTR [rsp+0xf],0x0
51e8:	0f 85 e4 01 00 00    	jne    53d2 <quotearg_buffer_restyled+0x1202>
51ee:	4d 39 fd             	cmp    r13,r15
51f1:	76 05                	jbe    51f8 <quotearg_buffer_restyled+0x1028>
51f3:	43 c6 04 3e 3f       	mov    BYTE PTR [r14+r15*1],0x3f
51f8:	49 8d 47 01          	lea    rax,[r15+0x1]
51fc:	49 39 c5             	cmp    r13,rax
51ff:	76 06                	jbe    5207 <quotearg_buffer_restyled+0x1037>
5201:	43 c6 44 3e 01 22    	mov    BYTE PTR [r14+r15*1+0x1],0x22
5207:	49 8d 47 02          	lea    rax,[r15+0x2]
520b:	49 39 c5             	cmp    r13,rax
520e:	76 06                	jbe    5216 <quotearg_buffer_restyled+0x1046>
5210:	43 c6 44 3e 02 22    	mov    BYTE PTR [r14+r15*1+0x2],0x22
5216:	49 8d 47 03          	lea    rax,[r15+0x3]
521a:	49 39 c5             	cmp    r13,rax
521d:	76 06                	jbe    5225 <quotearg_buffer_restyled+0x1055>
521f:	43 c6 44 3e 03 3f    	mov    BYTE PTR [r14+r15*1+0x3],0x3f
5225:	49 83 c7 04          	add    r15,0x4
5229:	31 d2                	xor    edx,edx
522b:	45 31 e4             	xor    r12d,r12d
522e:	31 c0                	xor    eax,eax
5230:	48 89 cd             	mov    rbp,rcx
5233:	e9 c0 f1 ff ff       	jmp    43f8 <quotearg_buffer_restyled+0x228>
5238:	85 db                	test   ebx,ebx
523a:	0f 84 88 01 00 00    	je     53c8 <quotearg_buffer_restyled+0x11f8>
5240:	48 8d 05 76 2d 00 00 	lea    rax,[rip+0x2d76]        # 7fbd <_IO_stdin_used+0xc9d>
5247:	c6 44 24 0e 01       	mov    BYTE PTR [rsp+0xe],0x1
524c:	c6 44 24 7c 00       	mov    BYTE PTR [rsp+0x7c],0x0
5251:	45 31 e4             	xor    r12d,r12d
5254:	48 c7 44 24 50 00 00 	mov    QWORD PTR [rsp+0x50],0x0
525b:	00 00
525d:	c6 44 24 0f 01       	mov    BYTE PTR [rsp+0xf],0x1
5262:	c6 44 24 0d 00       	mov    BYTE PTR [rsp+0xd],0x0
5267:	48 c7 44 24 18 01 00 	mov    QWORD PTR [rsp+0x18],0x1
526e:	00 00
5270:	45 31 ff             	xor    r15d,r15d
5273:	48 89 44 24 48       	mov    QWORD PTR [rsp+0x48],rax
5278:	e9 26 f0 ff ff       	jmp    42a3 <quotearg_buffer_restyled+0xd3>
527d:	0f 1f 00             	nop    DWORD PTR [rax]
5280:	4c 89 dd             	mov    rbp,r11
5283:	0f b6 44 24 0f       	movzx  eax,BYTE PTR [rsp+0xf]
5288:	e9 cc fa ff ff       	jmp    4d59 <quotearg_buffer_restyled+0xb89>
528d:	48 8d 05 27 2d 00 00 	lea    rax,[rip+0x2d27]        # 7fbb <_IO_stdin_used+0xc9b>
5294:	c6 44 24 0e 01       	mov    BYTE PTR [rsp+0xe],0x1
5299:	c6 44 24 7c 00       	mov    BYTE PTR [rsp+0x7c],0x0
529e:	45 31 e4             	xor    r12d,r12d
52a1:	48 c7 44 24 50 00 00 	mov    QWORD PTR [rsp+0x50],0x0
52a8:	00 00
52aa:	c6 44 24 0f 01       	mov    BYTE PTR [rsp+0xf],0x1
52af:	c6 44 24 0d 01       	mov    BYTE PTR [rsp+0xd],0x1
52b4:	48 c7 44 24 18 01 00 	mov    QWORD PTR [rsp+0x18],0x1
52bb:	00 00
52bd:	45 31 ff             	xor    r15d,r15d
52c0:	48 89 44 24 48       	mov    QWORD PTR [rsp+0x48],rax
52c5:	e9 d9 ef ff ff       	jmp    42a3 <quotearg_buffer_restyled+0xd3>
52ca:	89 d0                	mov    eax,edx
52cc:	48 8b 5c 24 48       	mov    rbx,QWORD PTR [rsp+0x48]
52d1:	48 85 db             	test   rbx,rbx
52d4:	74 2c                	je     5302 <quotearg_buffer_restyled+0x1132>
52d6:	84 c0                	test   al,al
52d8:	74 28                	je     5302 <quotearg_buffer_restyled+0x1132>
52da:	0f b6 0b             	movzx  ecx,BYTE PTR [rbx]
52dd:	48 89 d8             	mov    rax,rbx
52e0:	84 c9                	test   cl,cl
52e2:	74 1e                	je     5302 <quotearg_buffer_restyled+0x1132>
52e4:	4c 89 fa             	mov    rdx,r15
52e7:	4c 29 f8             	sub    rax,r15
52ea:	49 39 d5             	cmp    r13,rdx
52ed:	76 04                	jbe    52f3 <quotearg_buffer_restyled+0x1123>
52ef:	41 88 0c 16          	mov    BYTE PTR [r14+rdx*1],cl
52f3:	48 83 c2 01          	add    rdx,0x1
52f7:	0f b6 0c 10          	movzx  ecx,BYTE PTR [rax+rdx*1]
52fb:	84 c9                	test   cl,cl
52fd:	75 eb                	jne    52ea <quotearg_buffer_restyled+0x111a>
52ff:	49 89 d7             	mov    r15,rdx
5302:	4d 39 fd             	cmp    r13,r15
5305:	0f 86 9e fa ff ff    	jbe    4da9 <quotearg_buffer_restyled+0xbd9>
530b:	43 c6 04 3e 00       	mov    BYTE PTR [r14+r15*1],0x0
5310:	e9 94 fa ff ff       	jmp    4da9 <quotearg_buffer_restyled+0xbd9>
5315:	83 7c 24 08 02       	cmp    DWORD PTR [rsp+0x8],0x2
531a:	0f b6 5c 24 0f       	movzx  ebx,BYTE PTR [rsp+0xf]
531f:	4c 89 dd             	mov    rbp,r11
5322:	0f 94 c0             	sete   al
5325:	88 5c 24 0d          	mov    BYTE PTR [rsp+0xd],bl
5329:	e9 2b fa ff ff       	jmp    4d59 <quotearg_buffer_restyled+0xb89>
532e:	8b 74 24 08          	mov    esi,DWORD PTR [rsp+0x8]
5332:	48 89 cf             	mov    rdi,rcx
5335:	e8 a6 ed ff ff       	call   40e0 <gettext_quote.part.1>
533a:	48 89 44 24 68       	mov    QWORD PTR [rsp+0x68],rax
533f:	e9 52 fc ff ff       	jmp    4f96 <quotearg_buffer_restyled+0xdc6>
5344:	8b 74 24 08          	mov    esi,DWORD PTR [rsp+0x8]
5348:	48 89 cf             	mov    rdi,rcx
534b:	e8 90 ed ff ff       	call   40e0 <gettext_quote.part.1>
5350:	48 89 44 24 60       	mov    QWORD PTR [rsp+0x60],rax
5355:	e9 67 fc ff ff       	jmp    4fc1 <quotearg_buffer_restyled+0xdf1>
535a:	0f b6 5c 24 0f       	movzx  ebx,BYTE PTR [rsp+0xf]
535f:	4c 89 dd             	mov    rbp,r11
5362:	89 d0                	mov    eax,edx
5364:	88 5c 24 0d          	mov    BYTE PTR [rsp+0xd],bl
5368:	e9 ec f9 ff ff       	jmp    4d59 <quotearg_buffer_restyled+0xb89>
536d:	48 83 ec 08          	sub    rsp,0x8
5371:	41 b8 05 00 00 00    	mov    r8d,0x5
5377:	4c 89 d9             	mov    rcx,r11
537a:	ff 74 24 68          	push   QWORD PTR [rsp+0x68]
537e:	ff 74 24 78          	push   QWORD PTR [rsp+0x78]
5382:	4c 89 f7             	mov    rdi,r14
5385:	ff 74 24 38          	push   QWORD PTR [rsp+0x38]
5389:	44 8b 8c 24 98 00 00 	mov    r9d,DWORD PTR [rsp+0x98]
5390:	00
5391:	48 8b 54 24 30       	mov    rdx,QWORD PTR [rsp+0x30]
5396:	48 8b 74 24 70       	mov    rsi,QWORD PTR [rsp+0x70]
539b:	e8 30 ee ff ff       	call   41d0 <quotearg_buffer_restyled>
53a0:	48 83 c4 20          	add    rsp,0x20
53a4:	49 89 c7             	mov    r15,rax
53a7:	e9 fd f9 ff ff       	jmp    4da9 <quotearg_buffer_restyled+0xbd9>
53ac:	0f b6 44 24 7c       	movzx  eax,BYTE PTR [rsp+0x7c]
53b1:	e9 16 ff ff ff       	jmp    52cc <quotearg_buffer_restyled+0x10fc>
53b6:	c7 44 24 08 02 00 00 	mov    DWORD PTR [rsp+0x8],0x2
53bd:	00
53be:	e9 96 f9 ff ff       	jmp    4d59 <quotearg_buffer_restyled+0xb89>
53c3:	e8 58 c3 ff ff       	call   1720 <__stack_chk_fail@plt>
53c8:	c6 44 24 0d 00       	mov    BYTE PTR [rsp+0xd],0x0
53cd:	e9 6f fa ff ff       	jmp    4e41 <quotearg_buffer_restyled+0xc71>
53d2:	4c 89 dd             	mov    rbp,r11
53d5:	e9 96 f9 ff ff       	jmp    4d70 <quotearg_buffer_restyled+0xba0>
53da:	c6 44 24 0e 01       	mov    BYTE PTR [rsp+0xe],0x1
53df:	31 c0                	xor    eax,eax
53e1:	45 31 e4             	xor    r12d,r12d
53e4:	48 c7 44 24 50 00 00 	mov    QWORD PTR [rsp+0x50],0x0
53eb:	00 00
53ed:	e9 a2 f5 ff ff       	jmp    4994 <quotearg_buffer_restyled+0x7c4>
53f2:	4c 89 ea             	mov    rdx,r13
53f5:	4c 8b 6c 24 50       	mov    r13,QWORD PTR [rsp+0x50]
53fa:	e9 f3 f5 ff ff       	jmp    49f2 <quotearg_buffer_restyled+0x822>
53ff:	e8 5c c2 ff ff       	call   1660 <abort@plt>
5404:	66 90                	xchg   ax,ax
5406:	66 2e 0f 1f 84 00 00 	nop    WORD PTR cs:[rax+rax*1+0x0]
540d:	00 00 00

0000000000005410 <quotearg_n_options>:
5410:	41 57                	push   r15
5412:	41 56                	push   r14
5414:	4c 63 ff             	movsxd r15,edi
5417:	41 55                	push   r13
5419:	41 54                	push   r12
541b:	49 89 d6             	mov    r14,rdx
541e:	55                   	push   rbp
541f:	53                   	push   rbx
5420:	48 89 cd             	mov    rbp,rcx
5423:	48 83 ec 28          	sub    rsp,0x28
5427:	48 89 74 24 08       	mov    QWORD PTR [rsp+0x8],rsi
542c:	e8 3f c2 ff ff       	call   1670 <__errno_location@plt>
5431:	49 89 c5             	mov    r13,rax
5434:	8b 00                	mov    eax,DWORD PTR [rax]
5436:	45 85 ff             	test   r15d,r15d
5439:	48 8b 1d 40 5c 20 00 	mov    rbx,QWORD PTR [rip+0x205c40]        # 20b080 <slotvec>
5440:	89 44 24 18          	mov    DWORD PTR [rsp+0x18],eax
5444:	0f 88 67 01 00 00    	js     55b1 <quotearg_n_options+0x1a1>
544a:	44 39 3d 27 5c 20 00 	cmp    DWORD PTR [rip+0x205c27],r15d        # 20b078 <nslots>
5451:	7f 62                	jg     54b5 <quotearg_n_options+0xa5>
5453:	41 81 ff ff ff ff 7f 	cmp    r15d,0x7fffffff
545a:	0f 84 56 01 00 00    	je     55b6 <quotearg_n_options+0x1a6>
5460:	45 8d 67 01          	lea    r12d,[r15+0x1]
5464:	48 8d 05 25 5c 20 00 	lea    rax,[rip+0x205c25]        # 20b090 <slotvec0>
546b:	49 63 f4             	movsxd rsi,r12d
546e:	48 c1 e6 04          	shl    rsi,0x4
5472:	48 39 c3             	cmp    rbx,rax
5475:	0f 84 15 01 00 00    	je     5590 <quotearg_n_options+0x180>
547b:	48 89 df             	mov    rdi,rbx
547e:	e8 7d 0f 00 00       	call   6400 <xrealloc>
5483:	48 89 c3             	mov    rbx,rax
5486:	48 89 05 f3 5b 20 00 	mov    QWORD PTR [rip+0x205bf3],rax        # 20b080 <slotvec>
548d:	48 63 3d e4 5b 20 00 	movsxd rdi,DWORD PTR [rip+0x205be4]        # 20b078 <nslots>
5494:	44 89 e2             	mov    edx,r12d
5497:	31 f6                	xor    esi,esi
5499:	29 fa                	sub    edx,edi
549b:	48 c1 e7 04          	shl    rdi,0x4
549f:	48 63 d2             	movsxd rdx,edx
54a2:	48 01 df             	add    rdi,rbx
54a5:	48 c1 e2 04          	shl    rdx,0x4
54a9:	e8 f2 c2 ff ff       	call   17a0 <memset@plt>
54ae:	44 89 25 c3 5b 20 00 	mov    DWORD PTR [rip+0x205bc3],r12d        # 20b078 <nslots>
54b5:	8b 45 04             	mov    eax,DWORD PTR [rbp+0x4]
54b8:	49 c1 e7 04          	shl    r15,0x4
54bc:	48 83 ec 08          	sub    rsp,0x8
54c0:	4c 01 fb             	add    rbx,r15
54c3:	4c 8d 7d 08          	lea    r15,[rbp+0x8]
54c7:	44 8b 45 00          	mov    r8d,DWORD PTR [rbp+0x0]
54cb:	4c 8b 1b             	mov    r11,QWORD PTR [rbx]
54ce:	4c 8b 63 08          	mov    r12,QWORD PTR [rbx+0x8]
54d2:	4c 89 f1             	mov    rcx,r14
54d5:	83 c8 01             	or     eax,0x1
54d8:	89 44 24 24          	mov    DWORD PTR [rsp+0x24],eax
54dc:	ff 75 30             	push   QWORD PTR [rbp+0x30]
54df:	41 89 c1             	mov    r9d,eax
54e2:	ff 75 28             	push   QWORD PTR [rbp+0x28]
54e5:	41 57                	push   r15
54e7:	4c 89 de             	mov    rsi,r11
54ea:	48 8b 54 24 28       	mov    rdx,QWORD PTR [rsp+0x28]
54ef:	4c 89 e7             	mov    rdi,r12
54f2:	4c 89 5c 24 30       	mov    QWORD PTR [rsp+0x30],r11
54f7:	e8 d4 ec ff ff       	call   41d0 <quotearg_buffer_restyled>
54fc:	48 83 c4 20          	add    rsp,0x20
5500:	4c 8b 5c 24 10       	mov    r11,QWORD PTR [rsp+0x10]
5505:	49 39 c3             	cmp    r11,rax
5508:	77 67                	ja     5571 <quotearg_n_options+0x161>
550a:	48 8d 70 01          	lea    rsi,[rax+0x1]
550e:	48 8d 05 eb 5c 20 00 	lea    rax,[rip+0x205ceb]        # 20b200 <slot0>
5515:	49 39 c4             	cmp    r12,rax
5518:	48 89 33             	mov    QWORD PTR [rbx],rsi
551b:	74 12                	je     552f <quotearg_n_options+0x11f>
551d:	4c 89 e7             	mov    rdi,r12
5520:	48 89 74 24 10       	mov    QWORD PTR [rsp+0x10],rsi
5525:	e8 26 c1 ff ff       	call   1650 <free@plt>
552a:	48 8b 74 24 10       	mov    rsi,QWORD PTR [rsp+0x10]
552f:	48 89 f7             	mov    rdi,rsi
5532:	48 89 74 24 10       	mov    QWORD PTR [rsp+0x10],rsi
5537:	e8 64 0e 00 00       	call   63a0 <xmalloc>
553c:	48 83 ec 08          	sub    rsp,0x8
5540:	48 89 43 08          	mov    QWORD PTR [rbx+0x8],rax
5544:	44 8b 45 00          	mov    r8d,DWORD PTR [rbp+0x0]
5548:	ff 75 30             	push   QWORD PTR [rbp+0x30]
554b:	ff 75 28             	push   QWORD PTR [rbp+0x28]
554e:	4c 89 f1             	mov    rcx,r14
5551:	41 57                	push   r15
5553:	44 8b 4c 24 3c       	mov    r9d,DWORD PTR [rsp+0x3c]
5558:	48 89 c7             	mov    rdi,rax
555b:	48 8b 54 24 28       	mov    rdx,QWORD PTR [rsp+0x28]
5560:	48 8b 74 24 30       	mov    rsi,QWORD PTR [rsp+0x30]
5565:	49 89 c4             	mov    r12,rax
5568:	e8 63 ec ff ff       	call   41d0 <quotearg_buffer_restyled>
556d:	48 83 c4 20          	add    rsp,0x20
5571:	8b 44 24 18          	mov    eax,DWORD PTR [rsp+0x18]
5575:	41 89 45 00          	mov    DWORD PTR [r13+0x0],eax
5579:	48 83 c4 28          	add    rsp,0x28
557d:	4c 89 e0             	mov    rax,r12
5580:	5b                   	pop    rbx
5581:	5d                   	pop    rbp
5582:	41 5c                	pop    r12
5584:	41 5d                	pop    r13
5586:	41 5e                	pop    r14
5588:	41 5f                	pop    r15
558a:	c3                   	ret
558b:	0f 1f 44 00 00       	nop    DWORD PTR [rax+rax*1+0x0]
5590:	31 ff                	xor    edi,edi
5592:	e8 69 0e 00 00       	call   6400 <xrealloc>
5597:	66 0f 6f 05 f1 5a 20 	movdqa xmm0,XMMWORD PTR [rip+0x205af1]        # 20b090 <slotvec0>
559e:	00
559f:	48 89 c3             	mov    rbx,rax
55a2:	48 89 05 d7 5a 20 00 	mov    QWORD PTR [rip+0x205ad7],rax        # 20b080 <slotvec>
55a9:	0f 11 00             	movups XMMWORD PTR [rax],xmm0
55ac:	e9 dc fe ff ff       	jmp    548d <quotearg_n_options+0x7d>
55b1:	e8 aa c0 ff ff       	call   1660 <abort@plt>
55b6:	e8 35 10 00 00       	call   65f0 <xalloc_die>
55bb:	0f 1f 44 00 00       	nop    DWORD PTR [rax+rax*1+0x0]

00000000000055c0 <clone_quoting_options>:
55c0:	41 54                	push   r12
55c2:	55                   	push   rbp
55c3:	53                   	push   rbx
55c4:	48 89 fb             	mov    rbx,rdi
55c7:	e8 a4 c0 ff ff       	call   1670 <__errno_location@plt>
55cc:	44 8b 20             	mov    r12d,DWORD PTR [rax]
55cf:	48 89 c5             	mov    rbp,rax
55d2:	48 8d 05 27 5d 20 00 	lea    rax,[rip+0x205d27]        # 20b300 <default_quoting_options>
55d9:	48 85 db             	test   rbx,rbx
55dc:	be 38 00 00 00       	mov    esi,0x38
55e1:	48 0f 44 d8          	cmove  rbx,rax
55e5:	48 89 df             	mov    rdi,rbx
55e8:	e8 b3 0f 00 00       	call   65a0 <xmemdup>
55ed:	44 89 65 00          	mov    DWORD PTR [rbp+0x0],r12d
55f1:	5b                   	pop    rbx
55f2:	5d                   	pop    rbp
55f3:	41 5c                	pop    r12
55f5:	c3                   	ret
55f6:	66 2e 0f 1f 84 00 00 	nop    WORD PTR cs:[rax+rax*1+0x0]
55fd:	00 00 00

0000000000005600 <get_quoting_style>:
5600:	48 8d 05 f9 5c 20 00 	lea    rax,[rip+0x205cf9]        # 20b300 <default_quoting_options>
5607:	48 85 ff             	test   rdi,rdi
560a:	48 0f 44 f8          	cmove  rdi,rax
560e:	8b 07                	mov    eax,DWORD PTR [rdi]
5610:	c3                   	ret
5611:	0f 1f 44 00 00       	nop    DWORD PTR [rax+rax*1+0x0]
5616:	66 2e 0f 1f 84 00 00 	nop    WORD PTR cs:[rax+rax*1+0x0]
561d:	00 00 00

0000000000005620 <set_quoting_style>:
5620:	48 8d 05 d9 5c 20 00 	lea    rax,[rip+0x205cd9]        # 20b300 <default_quoting_options>
5627:	48 85 ff             	test   rdi,rdi
562a:	48 0f 44 f8          	cmove  rdi,rax
562e:	89 37                	mov    DWORD PTR [rdi],esi
5630:	c3                   	ret
5631:	0f 1f 44 00 00       	nop    DWORD PTR [rax+rax*1+0x0]
5636:	66 2e 0f 1f 84 00 00 	nop    WORD PTR cs:[rax+rax*1+0x0]
563d:	00 00 00

0000000000005640 <set_char_quoting>:
5640:	48 8d 05 b9 5c 20 00 	lea    rax,[rip+0x205cb9]        # 20b300 <default_quoting_options>
5647:	48 85 ff             	test   rdi,rdi
564a:	89 f1                	mov    ecx,esi
564c:	48 0f 44 f8          	cmove  rdi,rax
5650:	89 f0                	mov    eax,esi
5652:	83 e1 1f             	and    ecx,0x1f
5655:	c0 e8 05             	shr    al,0x5
5658:	0f b6 c0             	movzx  eax,al
565b:	48 8d 7c 87 08       	lea    rdi,[rdi+rax*4+0x8]
5660:	8b 37                	mov    esi,DWORD PTR [rdi]
5662:	89 f0                	mov    eax,esi
5664:	d3 e8                	shr    eax,cl
5666:	31 c2                	xor    edx,eax
5668:	83 e0 01             	and    eax,0x1
566b:	83 e2 01             	and    edx,0x1
566e:	d3 e2                	shl    edx,cl
5670:	31 f2                	xor    edx,esi
5672:	89 17                	mov    DWORD PTR [rdi],edx
5674:	c3                   	ret
5675:	90                   	nop
5676:	66 2e 0f 1f 84 00 00 	nop    WORD PTR cs:[rax+rax*1+0x0]
567d:	00 00 00

0000000000005680 <set_quoting_flags>:
5680:	48 8d 05 79 5c 20 00 	lea    rax,[rip+0x205c79]        # 20b300 <default_quoting_options>
5687:	48 85 ff             	test   rdi,rdi
568a:	48 0f 44 f8          	cmove  rdi,rax
568e:	8b 47 04             	mov    eax,DWORD PTR [rdi+0x4]
5691:	89 77 04             	mov    DWORD PTR [rdi+0x4],esi
5694:	c3                   	ret
5695:	90                   	nop
5696:	66 2e 0f 1f 84 00 00 	nop    WORD PTR cs:[rax+rax*1+0x0]
569d:	00 00 00

00000000000056a0 <set_custom_quoting>:
56a0:	48 8d 05 59 5c 20 00 	lea    rax,[rip+0x205c59]        # 20b300 <default_quoting_options>
56a7:	48 85 ff             	test   rdi,rdi
56aa:	48 0f 44 f8          	cmove  rdi,rax
56ae:	48 85 f6             	test   rsi,rsi
56b1:	c7 07 0a 00 00 00    	mov    DWORD PTR [rdi],0xa
56b7:	74 0e                	je     56c7 <set_custom_quoting+0x27>
56b9:	48 85 d2             	test   rdx,rdx
56bc:	74 09                	je     56c7 <set_custom_quoting+0x27>
56be:	48 89 77 28          	mov    QWORD PTR [rdi+0x28],rsi
56c2:	48 89 57 30          	mov    QWORD PTR [rdi+0x30],rdx
56c6:	c3                   	ret
56c7:	48 83 ec 08          	sub    rsp,0x8
56cb:	e8 90 bf ff ff       	call   1660 <abort@plt>

00000000000056d0 <quotearg_buffer>:
56d0:	41 57                	push   r15
56d2:	41 56                	push   r14
56d4:	48 8d 05 25 5c 20 00 	lea    rax,[rip+0x205c25]        # 20b300 <default_quoting_options>
56db:	41 55                	push   r13
56dd:	41 54                	push   r12
56df:	49 89 fd             	mov    r13,rdi
56e2:	55                   	push   rbp
56e3:	53                   	push   rbx
56e4:	4c 89 c3             	mov    rbx,r8
56e7:	49 89 f6             	mov    r14,rsi
56ea:	49 89 d7             	mov    r15,rdx
56ed:	48 83 ec 18          	sub    rsp,0x18
56f1:	4d 85 c0             	test   r8,r8
56f4:	48 0f 44 d8          	cmove  rbx,rax
56f8:	48 89 4c 24 08       	mov    QWORD PTR [rsp+0x8],rcx
56fd:	e8 6e bf ff ff       	call   1670 <__errno_location@plt>
5702:	44 8b 20             	mov    r12d,DWORD PTR [rax]
5705:	48 89 c5             	mov    rbp,rax
5708:	48 8d 43 08          	lea    rax,[rbx+0x8]
570c:	48 83 ec 08          	sub    rsp,0x8
5710:	44 8b 4b 04          	mov    r9d,DWORD PTR [rbx+0x4]
5714:	ff 73 30             	push   QWORD PTR [rbx+0x30]
5717:	44 8b 03             	mov    r8d,DWORD PTR [rbx]
571a:	ff 73 28             	push   QWORD PTR [rbx+0x28]
571d:	4c 89 fa             	mov    rdx,r15
5720:	50                   	push   rax
5721:	48 8b 4c 24 28       	mov    rcx,QWORD PTR [rsp+0x28]
5726:	4c 89 f6             	mov    rsi,r14
5729:	4c 89 ef             	mov    rdi,r13
572c:	e8 9f ea ff ff       	call   41d0 <quotearg_buffer_restyled>
5731:	44 89 65 00          	mov    DWORD PTR [rbp+0x0],r12d
5735:	48 83 c4 38          	add    rsp,0x38
5739:	5b                   	pop    rbx
573a:	5d                   	pop    rbp
573b:	41 5c                	pop    r12
573d:	41 5d                	pop    r13
573f:	41 5e                	pop    r14
5741:	41 5f                	pop    r15
5743:	c3                   	ret
5744:	66 90                	xchg   ax,ax
5746:	66 2e 0f 1f 84 00 00 	nop    WORD PTR cs:[rax+rax*1+0x0]
574d:	00 00 00

0000000000005750 <quotearg_alloc_mem>:
5750:	41 57                	push   r15
5752:	41 56                	push   r14
5754:	48 8d 05 a5 5b 20 00 	lea    rax,[rip+0x205ba5]        # 20b300 <default_quoting_options>
575b:	41 55                	push   r13
575d:	41 54                	push   r12
575f:	49 89 d4             	mov    r12,rdx
5762:	55                   	push   rbp
5763:	53                   	push   rbx
5764:	48 89 cb             	mov    rbx,rcx
5767:	49 89 fe             	mov    r14,rdi
576a:	49 89 f7             	mov    r15,rsi
576d:	48 83 ec 38          	sub    rsp,0x38
5771:	48 85 c9             	test   rcx,rcx
5774:	48 0f 44 d8          	cmove  rbx,rax
5778:	31 ed                	xor    ebp,ebp
577a:	e8 f1 be ff ff       	call   1670 <__errno_location@plt>
577f:	4d 85 e4             	test   r12,r12
5782:	49 89 c5             	mov    r13,rax
5785:	8b 00                	mov    eax,DWORD PTR [rax]
5787:	40 0f 94 c5          	sete   bpl
578b:	0b 6b 04             	or     ebp,DWORD PTR [rbx+0x4]
578e:	4c 8d 53 08          	lea    r10,[rbx+0x8]
5792:	48 83 ec 08          	sub    rsp,0x8
5796:	44 8b 03             	mov    r8d,DWORD PTR [rbx]
5799:	4c 89 f9             	mov    rcx,r15
579c:	89 44 24 14          	mov    DWORD PTR [rsp+0x14],eax
57a0:	ff 73 30             	push   QWORD PTR [rbx+0x30]
57a3:	4c 89 f2             	mov    rdx,r14
57a6:	ff 73 28             	push   QWORD PTR [rbx+0x28]
57a9:	41 52                	push   r10
57ab:	31 f6                	xor    esi,esi
57ad:	41 89 e9             	mov    r9d,ebp
57b0:	31 ff                	xor    edi,edi
57b2:	4c 89 54 24 40       	mov    QWORD PTR [rsp+0x40],r10
57b7:	e8 14 ea ff ff       	call   41d0 <quotearg_buffer_restyled>
57bc:	48 8d 70 01          	lea    rsi,[rax+0x1]
57c0:	48 89 44 24 48       	mov    QWORD PTR [rsp+0x48],rax
57c5:	48 83 c4 20          	add    rsp,0x20
57c9:	48 89 f7             	mov    rdi,rsi
57cc:	48 89 74 24 18       	mov    QWORD PTR [rsp+0x18],rsi
57d1:	e8 ca 0b 00 00       	call   63a0 <xmalloc>
57d6:	48 89 44 24 10       	mov    QWORD PTR [rsp+0x10],rax
57db:	48 83 ec 08          	sub    rsp,0x8
57df:	ff 73 30             	push   QWORD PTR [rbx+0x30]
57e2:	ff 73 28             	push   QWORD PTR [rbx+0x28]
57e5:	4c 8b 54 24 38       	mov    r10,QWORD PTR [rsp+0x38]
57ea:	41 89 e9             	mov    r9d,ebp
57ed:	44 8b 03             	mov    r8d,DWORD PTR [rbx]
57f0:	4c 89 f9             	mov    rcx,r15
57f3:	4c 89 f2             	mov    rdx,r14
57f6:	48 89 c7             	mov    rdi,rax
57f9:	41 52                	push   r10
57fb:	48 8b 74 24 38       	mov    rsi,QWORD PTR [rsp+0x38]
5800:	e8 cb e9 ff ff       	call   41d0 <quotearg_buffer_restyled>
5805:	8b 44 24 2c          	mov    eax,DWORD PTR [rsp+0x2c]
5809:	48 83 c4 20          	add    rsp,0x20
580d:	4d 85 e4             	test   r12,r12
5810:	41 89 45 00          	mov    DWORD PTR [r13+0x0],eax
5814:	74 09                	je     581f <quotearg_alloc_mem+0xcf>
5816:	4c 8b 5c 24 28       	mov    r11,QWORD PTR [rsp+0x28]
581b:	4d 89 1c 24          	mov    QWORD PTR [r12],r11
581f:	48 8b 44 24 10       	mov    rax,QWORD PTR [rsp+0x10]
5824:	48 83 c4 38          	add    rsp,0x38
5828:	5b                   	pop    rbx
5829:	5d                   	pop    rbp
582a:	41 5c                	pop    r12
582c:	41 5d                	pop    r13
582e:	41 5e                	pop    r14
5830:	41 5f                	pop    r15
5832:	c3                   	ret
5833:	0f 1f 00             	nop    DWORD PTR [rax]
5836:	66 2e 0f 1f 84 00 00 	nop    WORD PTR cs:[rax+rax*1+0x0]
583d:	00 00 00

0000000000005840 <quotearg_alloc>:
5840:	48 89 d1             	mov    rcx,rdx
5843:	31 d2                	xor    edx,edx
5845:	e9 06 ff ff ff       	jmp    5750 <quotearg_alloc_mem>
584a:	66 0f 1f 44 00 00    	nop    WORD PTR [rax+rax*1+0x0]

0000000000005850 <quotearg_free>:
5850:	8b 05 22 58 20 00    	mov    eax,DWORD PTR [rip+0x205822]        # 20b078 <nslots>
5856:	41 54                	push   r12
5858:	4c 8b 25 21 58 20 00 	mov    r12,QWORD PTR [rip+0x205821]        # 20b080 <slotvec>
585f:	55                   	push   rbp
5860:	53                   	push   rbx
5861:	83 f8 01             	cmp    eax,0x1
5864:	7e 2b                	jle    5891 <quotearg_free+0x41>
5866:	83 e8 02             	sub    eax,0x2
5869:	49 8d 5c 24 18       	lea    rbx,[r12+0x18]
586e:	48 c1 e0 04          	shl    rax,0x4
5872:	49 8d 6c 04 28       	lea    rbp,[r12+rax*1+0x28]
5877:	66 0f 1f 84 00 00 00 	nop    WORD PTR [rax+rax*1+0x0]
587e:	00 00
5880:	48 8b 3b             	mov    rdi,QWORD PTR [rbx]
5883:	48 83 c3 10          	add    rbx,0x10
5887:	e8 c4 bd ff ff       	call   1650 <free@plt>
588c:	48 39 eb             	cmp    rbx,rbp
588f:	75 ef                	jne    5880 <quotearg_free+0x30>
5891:	49 8b 7c 24 08       	mov    rdi,QWORD PTR [r12+0x8]
5896:	48 8d 1d 63 59 20 00 	lea    rbx,[rip+0x205963]        # 20b200 <slot0>
589d:	48 39 df             	cmp    rdi,rbx
58a0:	74 17                	je     58b9 <quotearg_free+0x69>
58a2:	e8 a9 bd ff ff       	call   1650 <free@plt>
58a7:	48 c7 05 de 57 20 00 	mov    QWORD PTR [rip+0x2057de],0x100        # 20b090 <slotvec0>
58ae:	00 01 00 00
58b2:	48 89 1d df 57 20 00 	mov    QWORD PTR [rip+0x2057df],rbx        # 20b098 <slotvec0+0x8>
58b9:	48 8d 1d d0 57 20 00 	lea    rbx,[rip+0x2057d0]        # 20b090 <slotvec0>
58c0:	49 39 dc             	cmp    r12,rbx
58c3:	74 0f                	je     58d4 <quotearg_free+0x84>
58c5:	4c 89 e7             	mov    rdi,r12
58c8:	e8 83 bd ff ff       	call   1650 <free@plt>
58cd:	48 89 1d ac 57 20 00 	mov    QWORD PTR [rip+0x2057ac],rbx        # 20b080 <slotvec>
58d4:	5b                   	pop    rbx
58d5:	c7 05 99 57 20 00 01 	mov    DWORD PTR [rip+0x205799],0x1        # 20b078 <nslots>
58dc:	00 00 00
58df:	5d                   	pop    rbp
58e0:	41 5c                	pop    r12
58e2:	c3                   	ret
58e3:	0f 1f 00             	nop    DWORD PTR [rax]
58e6:	66 2e 0f 1f 84 00 00 	nop    WORD PTR cs:[rax+rax*1+0x0]
58ed:	00 00 00

00000000000058f0 <quotearg_n>:
58f0:	48 8d 0d 09 5a 20 00 	lea    rcx,[rip+0x205a09]        # 20b300 <default_quoting_options>
58f7:	48 c7 c2 ff ff ff ff 	mov    rdx,0xffffffffffffffff
58fe:	e9 0d fb ff ff       	jmp    5410 <quotearg_n_options>
5903:	0f 1f 00             	nop    DWORD PTR [rax]
5906:	66 2e 0f 1f 84 00 00 	nop    WORD PTR cs:[rax+rax*1+0x0]
590d:	00 00 00

0000000000005910 <quotearg_n_mem>:
5910:	48 8d 0d e9 59 20 00 	lea    rcx,[rip+0x2059e9]        # 20b300 <default_quoting_options>
5917:	e9 f4 fa ff ff       	jmp    5410 <quotearg_n_options>
591c:	0f 1f 40 00          	nop    DWORD PTR [rax+0x0]

0000000000005920 <quotearg>:
5920:	48 8d 0d d9 59 20 00 	lea    rcx,[rip+0x2059d9]        # 20b300 <default_quoting_options>
5927:	48 89 fe             	mov    rsi,rdi
592a:	48 c7 c2 ff ff ff ff 	mov    rdx,0xffffffffffffffff
5931:	31 ff                	xor    edi,edi
5933:	e9 d8 fa ff ff       	jmp    5410 <quotearg_n_options>
5938:	0f 1f 84 00 00 00 00 	nop    DWORD PTR [rax+rax*1+0x0]
593f:	00

0000000000005940 <quotearg_mem>:
5940:	48 8d 0d b9 59 20 00 	lea    rcx,[rip+0x2059b9]        # 20b300 <default_quoting_options>
5947:	48 89 f2             	mov    rdx,rsi
594a:	48 89 fe             	mov    rsi,rdi
594d:	31 ff                	xor    edi,edi
594f:	e9 bc fa ff ff       	jmp    5410 <quotearg_n_options>
5954:	66 90                	xchg   ax,ax
5956:	66 2e 0f 1f 84 00 00 	nop    WORD PTR cs:[rax+rax*1+0x0]
595d:	00 00 00

0000000000005960 <quotearg_n_style>:
5960:	48 83 ec 48          	sub    rsp,0x48
5964:	48 89 d0             	mov    rax,rdx
5967:	64 48 8b 14 25 28 00 	mov    rdx,QWORD PTR fs:0x28
596e:	00 00
5970:	48 89 54 24 38       	mov    QWORD PTR [rsp+0x38],rdx
5975:	31 d2                	xor    edx,edx
5977:	83 fe 0a             	cmp    esi,0xa
597a:	74 68                	je     59e4 <quotearg_n_style+0x84>
597c:	89 34 24             	mov    DWORD PTR [rsp],esi
597f:	48 89 e1             	mov    rcx,rsp
5982:	48 c7 c2 ff ff ff ff 	mov    rdx,0xffffffffffffffff
5989:	48 89 c6             	mov    rsi,rax
598c:	48 c7 44 24 04 00 00 	mov    QWORD PTR [rsp+0x4],0x0
5993:	00 00
5995:	48 c7 44 24 0c 00 00 	mov    QWORD PTR [rsp+0xc],0x0
599c:	00 00
599e:	48 c7 44 24 14 00 00 	mov    QWORD PTR [rsp+0x14],0x0
59a5:	00 00
59a7:	48 c7 44 24 1c 00 00 	mov    QWORD PTR [rsp+0x1c],0x0
59ae:	00 00
59b0:	48 c7 44 24 24 00 00 	mov    QWORD PTR [rsp+0x24],0x0
59b7:	00 00
59b9:	48 c7 44 24 2c 00 00 	mov    QWORD PTR [rsp+0x2c],0x0
59c0:	00 00
59c2:	c7 44 24 34 00 00 00 	mov    DWORD PTR [rsp+0x34],0x0
59c9:	00
59ca:	e8 41 fa ff ff       	call   5410 <quotearg_n_options>
59cf:	48 8b 4c 24 38       	mov    rcx,QWORD PTR [rsp+0x38]
59d4:	64 48 33 0c 25 28 00 	xor    rcx,QWORD PTR fs:0x28
59db:	00 00
59dd:	75 0a                	jne    59e9 <quotearg_n_style+0x89>
59df:	48 83 c4 48          	add    rsp,0x48
59e3:	c3                   	ret
59e4:	e8 77 bc ff ff       	call   1660 <abort@plt>
59e9:	e8 32 bd ff ff       	call   1720 <__stack_chk_fail@plt>
59ee:	66 90                	xchg   ax,ax

00000000000059f0 <quotearg_n_style_mem>:
59f0:	48 83 ec 48          	sub    rsp,0x48
59f4:	48 89 d0             	mov    rax,rdx
59f7:	48 89 ca             	mov    rdx,rcx
59fa:	64 48 8b 0c 25 28 00 	mov    rcx,QWORD PTR fs:0x28
5a01:	00 00
5a03:	48 89 4c 24 38       	mov    QWORD PTR [rsp+0x38],rcx
5a08:	31 c9                	xor    ecx,ecx
5a0a:	83 fe 0a             	cmp    esi,0xa
5a0d:	74 61                	je     5a70 <quotearg_n_style_mem+0x80>
5a0f:	89 34 24             	mov    DWORD PTR [rsp],esi
5a12:	48 89 e1             	mov    rcx,rsp
5a15:	48 89 c6             	mov    rsi,rax
5a18:	48 c7 44 24 04 00 00 	mov    QWORD PTR [rsp+0x4],0x0
5a1f:	00 00
5a21:	48 c7 44 24 0c 00 00 	mov    QWORD PTR [rsp+0xc],0x0
5a28:	00 00
5a2a:	48 c7 44 24 14 00 00 	mov    QWORD PTR [rsp+0x14],0x0
5a31:	00 00
5a33:	48 c7 44 24 1c 00 00 	mov    QWORD PTR [rsp+0x1c],0x0
5a3a:	00 00
5a3c:	48 c7 44 24 24 00 00 	mov    QWORD PTR [rsp+0x24],0x0
5a43:	00 00
5a45:	48 c7 44 24 2c 00 00 	mov    QWORD PTR [rsp+0x2c],0x0
5a4c:	00 00
5a4e:	c7 44 24 34 00 00 00 	mov    DWORD PTR [rsp+0x34],0x0
5a55:	00
5a56:	e8 b5 f9 ff ff       	call   5410 <quotearg_n_options>
5a5b:	48 8b 54 24 38       	mov    rdx,QWORD PTR [rsp+0x38]
5a60:	64 48 33 14 25 28 00 	xor    rdx,QWORD PTR fs:0x28
5a67:	00 00
5a69:	75 0a                	jne    5a75 <quotearg_n_style_mem+0x85>
5a6b:	48 83 c4 48          	add    rsp,0x48
5a6f:	c3                   	ret
5a70:	e8 eb bb ff ff       	call   1660 <abort@plt>
5a75:	e8 a6 bc ff ff       	call   1720 <__stack_chk_fail@plt>
5a7a:	66 0f 1f 44 00 00    	nop    WORD PTR [rax+rax*1+0x0]

0000000000005a80 <quotearg_style>:
5a80:	48 89 f2             	mov    rdx,rsi
5a83:	89 fe                	mov    esi,edi
5a85:	31 ff                	xor    edi,edi
5a87:	e9 d4 fe ff ff       	jmp    5960 <quotearg_n_style>
5a8c:	0f 1f 40 00          	nop    DWORD PTR [rax+0x0]

0000000000005a90 <quotearg_style_mem>:
5a90:	48 89 d1             	mov    rcx,rdx
5a93:	48 89 f2             	mov    rdx,rsi
5a96:	89 fe                	mov    esi,edi
5a98:	31 ff                	xor    edi,edi
5a9a:	e9 51 ff ff ff       	jmp    59f0 <quotearg_n_style_mem>
5a9f:	90                   	nop

0000000000005aa0 <quotearg_char_mem>:
5aa0:	48 83 ec 48          	sub    rsp,0x48
5aa4:	89 d1                	mov    ecx,edx
5aa6:	64 48 8b 04 25 28 00 	mov    rax,QWORD PTR fs:0x28
5aad:	00 00
5aaf:	48 89 44 24 38       	mov    QWORD PTR [rsp+0x38],rax
5ab4:	31 c0                	xor    eax,eax
5ab6:	48 8b 05 73 58 20 00 	mov    rax,QWORD PTR [rip+0x205873]        # 20b330 <default_quoting_options+0x30>
5abd:	49 89 e0             	mov    r8,rsp
5ac0:	83 e1 1f             	and    ecx,0x1f
5ac3:	66 0f 6f 05 35 58 20 	movdqa xmm0,XMMWORD PTR [rip+0x205835]        # 20b300 <default_quoting_options>
5aca:	00
5acb:	48 89 44 24 30       	mov    QWORD PTR [rsp+0x30],rax
5ad0:	89 d0                	mov    eax,edx
5ad2:	0f 29 04 24          	movaps XMMWORD PTR [rsp],xmm0
5ad6:	c0 e8 05             	shr    al,0x5
5ad9:	0f b6 c0             	movzx  eax,al
5adc:	4d 8d 4c 80 08       	lea    r9,[r8+rax*4+0x8]
5ae1:	66 0f 6f 05 27 58 20 	movdqa xmm0,XMMWORD PTR [rip+0x205827]        # 20b310 <default_quoting_options+0x10>
5ae8:	00
5ae9:	0f 29 44 24 10       	movaps XMMWORD PTR [rsp+0x10],xmm0
5aee:	66 0f 6f 05 2a 58 20 	movdqa xmm0,XMMWORD PTR [rip+0x20582a]        # 20b320 <default_quoting_options+0x20>
5af5:	00
5af6:	0f 29 44 24 20       	movaps XMMWORD PTR [rsp+0x20],xmm0
5afb:	41 8b 11             	mov    edx,DWORD PTR [r9]
5afe:	89 d0                	mov    eax,edx
5b00:	d3 e8                	shr    eax,cl
5b02:	f7 d0                	not    eax
5b04:	83 e0 01             	and    eax,0x1
5b07:	d3 e0                	shl    eax,cl
5b09:	4c 89 c1             	mov    rcx,r8
5b0c:	31 d0                	xor    eax,edx
5b0e:	48 89 f2             	mov    rdx,rsi
5b11:	48 89 fe             	mov    rsi,rdi
5b14:	41 89 01             	mov    DWORD PTR [r9],eax
5b17:	31 ff                	xor    edi,edi
5b19:	e8 f2 f8 ff ff       	call   5410 <quotearg_n_options>
5b1e:	48 8b 74 24 38       	mov    rsi,QWORD PTR [rsp+0x38]
5b23:	64 48 33 34 25 28 00 	xor    rsi,QWORD PTR fs:0x28
5b2a:	00 00
5b2c:	75 05                	jne    5b33 <quotearg_char_mem+0x93>
5b2e:	48 83 c4 48          	add    rsp,0x48
5b32:	c3                   	ret
5b33:	e8 e8 bb ff ff       	call   1720 <__stack_chk_fail@plt>
5b38:	0f 1f 84 00 00 00 00 	nop    DWORD PTR [rax+rax*1+0x0]
5b3f:	00

0000000000005b40 <quotearg_char>:
5b40:	40 0f be d6          	movsx  edx,sil
5b44:	48 c7 c6 ff ff ff ff 	mov    rsi,0xffffffffffffffff
5b4b:	e9 50 ff ff ff       	jmp    5aa0 <quotearg_char_mem>

0000000000005b50 <quotearg_colon>:
5b50:	ba 3a 00 00 00       	mov    edx,0x3a
5b55:	48 c7 c6 ff ff ff ff 	mov    rsi,0xffffffffffffffff
5b5c:	e9 3f ff ff ff       	jmp    5aa0 <quotearg_char_mem>
5b61:	0f 1f 44 00 00       	nop    DWORD PTR [rax+rax*1+0x0]
5b66:	66 2e 0f 1f 84 00 00 	nop    WORD PTR cs:[rax+rax*1+0x0]
5b6d:	00 00 00

0000000000005b70 <quotearg_colon_mem>:
5b70:	ba 3a 00 00 00       	mov    edx,0x3a
5b75:	e9 26 ff ff ff       	jmp    5aa0 <quotearg_char_mem>
5b7a:	66 0f 1f 44 00 00    	nop    WORD PTR [rax+rax*1+0x0]

0000000000005b80 <quotearg_n_style_colon>:
5b80:	48 83 ec 48          	sub    rsp,0x48
5b84:	48 89 d0             	mov    rax,rdx
5b87:	64 48 8b 14 25 28 00 	mov    rdx,QWORD PTR fs:0x28
5b8e:	00 00
5b90:	48 89 54 24 38       	mov    QWORD PTR [rsp+0x38],rdx
5b95:	31 d2                	xor    edx,edx
5b97:	83 fe 0a             	cmp    esi,0xa
5b9a:	74 68                	je     5c04 <quotearg_n_style_colon+0x84>
5b9c:	89 34 24             	mov    DWORD PTR [rsp],esi
5b9f:	48 89 e1             	mov    rcx,rsp
5ba2:	48 c7 c2 ff ff ff ff 	mov    rdx,0xffffffffffffffff
5ba9:	48 89 c6             	mov    rsi,rax
5bac:	48 c7 44 24 04 00 00 	mov    QWORD PTR [rsp+0x4],0x0
5bb3:	00 00
5bb5:	48 c7 44 24 0c 00 00 	mov    QWORD PTR [rsp+0xc],0x4000000
5bbc:	00 04
5bbe:	48 c7 44 24 14 00 00 	mov    QWORD PTR [rsp+0x14],0x0
5bc5:	00 00
5bc7:	48 c7 44 24 1c 00 00 	mov    QWORD PTR [rsp+0x1c],0x0
5bce:	00 00
5bd0:	48 c7 44 24 24 00 00 	mov    QWORD PTR [rsp+0x24],0x0
5bd7:	00 00
5bd9:	48 c7 44 24 2c 00 00 	mov    QWORD PTR [rsp+0x2c],0x0
5be0:	00 00
5be2:	c7 44 24 34 00 00 00 	mov    DWORD PTR [rsp+0x34],0x0
5be9:	00
5bea:	e8 21 f8 ff ff       	call   5410 <quotearg_n_options>
5bef:	48 8b 4c 24 38       	mov    rcx,QWORD PTR [rsp+0x38]
5bf4:	64 48 33 0c 25 28 00 	xor    rcx,QWORD PTR fs:0x28
5bfb:	00 00
5bfd:	75 0a                	jne    5c09 <quotearg_n_style_colon+0x89>
5bff:	48 83 c4 48          	add    rsp,0x48
5c03:	c3                   	ret
5c04:	e8 57 ba ff ff       	call   1660 <abort@plt>
5c09:	e8 12 bb ff ff       	call   1720 <__stack_chk_fail@plt>
5c0e:	66 90                	xchg   ax,ax

0000000000005c10 <quotearg_n_custom_mem>:
5c10:	48 83 ec 48          	sub    rsp,0x48
5c14:	49 89 c9             	mov    r9,rcx
5c17:	48 8b 0d 12 57 20 00 	mov    rcx,QWORD PTR [rip+0x205712]        # 20b330 <default_quoting_options+0x30>
5c1e:	66 0f 6f 05 da 56 20 	movdqa xmm0,XMMWORD PTR [rip+0x2056da]        # 20b300 <default_quoting_options>
5c25:	00
5c26:	64 48 8b 04 25 28 00 	mov    rax,QWORD PTR fs:0x28
5c2d:	00 00
5c2f:	48 89 44 24 38       	mov    QWORD PTR [rsp+0x38],rax
5c34:	31 c0                	xor    eax,eax
5c36:	0f 29 04 24          	movaps XMMWORD PTR [rsp],xmm0
5c3a:	48 85 f6             	test   rsi,rsi
5c3d:	48 89 4c 24 30       	mov    QWORD PTR [rsp+0x30],rcx
5c42:	c7 04 24 0a 00 00 00 	mov    DWORD PTR [rsp],0xa
5c49:	66 0f 6f 05 bf 56 20 	movdqa xmm0,XMMWORD PTR [rip+0x2056bf]        # 20b310 <default_quoting_options+0x10>
5c50:	00
5c51:	0f 29 44 24 10       	movaps XMMWORD PTR [rsp+0x10],xmm0
5c56:	66 0f 6f 05 c2 56 20 	movdqa xmm0,XMMWORD PTR [rip+0x2056c2]        # 20b320 <default_quoting_options+0x20>
5c5d:	00
5c5e:	0f 29 44 24 20       	movaps XMMWORD PTR [rsp+0x20],xmm0
5c63:	74 32                	je     5c97 <quotearg_n_custom_mem+0x87>
5c65:	48 85 d2             	test   rdx,rdx
5c68:	74 2d                	je     5c97 <quotearg_n_custom_mem+0x87>
5c6a:	48 89 74 24 28       	mov    QWORD PTR [rsp+0x28],rsi
5c6f:	48 89 54 24 30       	mov    QWORD PTR [rsp+0x30],rdx
5c74:	48 89 e1             	mov    rcx,rsp
5c77:	4c 89 c2             	mov    rdx,r8
5c7a:	4c 89 ce             	mov    rsi,r9
5c7d:	e8 8e f7 ff ff       	call   5410 <quotearg_n_options>
5c82:	48 8b 7c 24 38       	mov    rdi,QWORD PTR [rsp+0x38]
5c87:	64 48 33 3c 25 28 00 	xor    rdi,QWORD PTR fs:0x28
5c8e:	00 00
5c90:	75 0a                	jne    5c9c <quotearg_n_custom_mem+0x8c>
5c92:	48 83 c4 48          	add    rsp,0x48
5c96:	c3                   	ret
5c97:	e8 c4 b9 ff ff       	call   1660 <abort@plt>
5c9c:	e8 7f ba ff ff       	call   1720 <__stack_chk_fail@plt>
5ca1:	0f 1f 44 00 00       	nop    DWORD PTR [rax+rax*1+0x0]
5ca6:	66 2e 0f 1f 84 00 00 	nop    WORD PTR cs:[rax+rax*1+0x0]
5cad:	00 00 00

0000000000005cb0 <quotearg_n_custom>:
5cb0:	49 c7 c0 ff ff ff ff 	mov    r8,0xffffffffffffffff
5cb7:	e9 54 ff ff ff       	jmp    5c10 <quotearg_n_custom_mem>
5cbc:	0f 1f 40 00          	nop    DWORD PTR [rax+0x0]

0000000000005cc0 <quotearg_custom>:
5cc0:	48 89 d1             	mov    rcx,rdx
5cc3:	49 c7 c0 ff ff ff ff 	mov    r8,0xffffffffffffffff
5cca:	48 89 f2             	mov    rdx,rsi
5ccd:	48 89 fe             	mov    rsi,rdi
5cd0:	31 ff                	xor    edi,edi
5cd2:	e9 39 ff ff ff       	jmp    5c10 <quotearg_n_custom_mem>
5cd7:	66 0f 1f 84 00 00 00 	nop    WORD PTR [rax+rax*1+0x0]
5cde:	00 00

0000000000005ce0 <quotearg_custom_mem>:
5ce0:	49 89 c8             	mov    r8,rcx
5ce3:	48 89 d1             	mov    rcx,rdx
5ce6:	48 89 f2             	mov    rdx,rsi
5ce9:	48 89 fe             	mov    rsi,rdi
5cec:	31 ff                	xor    edi,edi
5cee:	e9 1d ff ff ff       	jmp    5c10 <quotearg_n_custom_mem>
5cf3:	0f 1f 00             	nop    DWORD PTR [rax]
5cf6:	66 2e 0f 1f 84 00 00 	nop    WORD PTR cs:[rax+rax*1+0x0]
5cfd:	00 00 00

0000000000005d00 <quote_n_mem>:
5d00:	48 8d 0d 39 53 20 00 	lea    rcx,[rip+0x205339]        # 20b040 <quote_quoting_options>
5d07:	e9 04 f7 ff ff       	jmp    5410 <quotearg_n_options>
5d0c:	0f 1f 40 00          	nop    DWORD PTR [rax+0x0]

0000000000005d10 <quote_mem>:
5d10:	48 8d 0d 29 53 20 00 	lea    rcx,[rip+0x205329]        # 20b040 <quote_quoting_options>
5d17:	48 89 f2             	mov    rdx,rsi
5d1a:	48 89 fe             	mov    rsi,rdi
5d1d:	31 ff                	xor    edi,edi
5d1f:	e9 ec f6 ff ff       	jmp    5410 <quotearg_n_options>
5d24:	66 90                	xchg   ax,ax
5d26:	66 2e 0f 1f 84 00 00 	nop    WORD PTR cs:[rax+rax*1+0x0]
5d2d:	00 00 00

0000000000005d30 <quote_n>:
5d30:	48 8d 0d 09 53 20 00 	lea    rcx,[rip+0x205309]        # 20b040 <quote_quoting_options>
5d37:	48 c7 c2 ff ff ff ff 	mov    rdx,0xffffffffffffffff
5d3e:	e9 cd f6 ff ff       	jmp    5410 <quotearg_n_options>
5d43:	0f 1f 00             	nop    DWORD PTR [rax]
5d46:	66 2e 0f 1f 84 00 00 	nop    WORD PTR cs:[rax+rax*1+0x0]
5d4d:	00 00 00

0000000000005d50 <quote>:
5d50:	48 8d 0d e9 52 20 00 	lea    rcx,[rip+0x2052e9]        # 20b040 <quote_quoting_options>
5d57:	48 89 fe             	mov    rsi,rdi
5d5a:	48 c7 c2 ff ff ff ff 	mov    rdx,0xffffffffffffffff
5d61:	31 ff                	xor    edi,edi
5d63:	e9 a8 f6 ff ff       	jmp    5410 <quotearg_n_options>
5d68:	0f 1f 84 00 00 00 00 	nop    DWORD PTR [rax+rax*1+0x0]
5d6f:	00

0000000000005d70 <dup_safer>:
5d70:	ba 03 00 00 00       	mov    edx,0x3
5d75:	31 f6                	xor    esi,esi
5d77:	31 c0                	xor    eax,eax
5d79:	e9 b2 0e 00 00       	jmp    6c30 <rpl_fcntl>
5d7e:	66 90                	xchg   ax,ax

0000000000005d80 <version_etc_arn>:
5d80:	41 57                	push   r15
5d82:	41 56                	push   r14
5d84:	41 55                	push   r13
5d86:	41 54                	push   r12
5d88:	4d 89 cc             	mov    r12,r9
5d8b:	55                   	push   rbp
5d8c:	53                   	push   rbx
5d8d:	48 89 fd             	mov    rbp,rdi
5d90:	4c 89 c3             	mov    rbx,r8
5d93:	48 83 ec 28          	sub    rsp,0x28
5d97:	48 85 f6             	test   rsi,rsi
5d9a:	0f 84 18 01 00 00    	je     5eb8 <version_etc_arn+0x138>
5da0:	49 89 d0             	mov    r8,rdx
5da3:	48 8d 15 de 26 00 00 	lea    rdx,[rip+0x26de]        # 8488 <quoting_style_vals+0x28>
5daa:	49 89 c9             	mov    r9,rcx
5dad:	31 c0                	xor    eax,eax
5daf:	48 89 f1             	mov    rcx,rsi
5db2:	be 01 00 00 00       	mov    esi,0x1
5db7:	e8 a4 bb ff ff       	call   1960 <__fprintf_chk@plt>
5dbc:	48 8d 35 d8 26 00 00 	lea    rsi,[rip+0x26d8]        # 849b <quoting_style_vals+0x3b>
5dc3:	31 ff                	xor    edi,edi
5dc5:	ba 05 00 00 00       	mov    edx,0x5
5dca:	e8 21 b9 ff ff       	call   16f0 <dcgettext@plt>
5dcf:	48 8d 15 ea 29 00 00 	lea    rdx,[rip+0x29ea]        # 87c0 <version_etc_copyright>
5dd6:	48 89 c1             	mov    rcx,rax
5dd9:	41 b8 e3 07 00 00    	mov    r8d,0x7e3
5ddf:	be 01 00 00 00       	mov    esi,0x1
5de4:	48 89 ef             	mov    rdi,rbp
5de7:	31 c0                	xor    eax,eax
5de9:	e8 72 bb ff ff       	call   1960 <__fprintf_chk@plt>
5dee:	48 8d 35 33 27 00 00 	lea    rsi,[rip+0x2733]        # 8528 <quoting_style_vals+0xc8>
5df5:	31 ff                	xor    edi,edi
5df7:	ba 05 00 00 00       	mov    edx,0x5
5dfc:	e8 ef b8 ff ff       	call   16f0 <dcgettext@plt>
5e01:	48 89 ee             	mov    rsi,rbp
5e04:	48 89 c7             	mov    rdi,rax
5e07:	e8 e4 b9 ff ff       	call   17f0 <fputs_unlocked@plt>
5e0c:	49 83 fc 09          	cmp    r12,0x9
5e10:	0f 87 3a 03 00 00    	ja     6150 <version_etc_arn+0x3d0>
5e16:	48 8d 15 67 29 00 00 	lea    rdx,[rip+0x2967]        # 8784 <quoting_style_vals+0x324>
5e1d:	4a 63 04 a2          	movsxd rax,DWORD PTR [rdx+r12*4]
5e21:	48 01 d0             	add    rax,rdx
5e24:	ff e0                	jmp    rax
5e26:	66 2e 0f 1f 84 00 00 	nop    WORD PTR cs:[rax+rax*1+0x0]
5e2d:	00 00 00
5e30:	4c 8b 4b 38          	mov    r9,QWORD PTR [rbx+0x38]
5e34:	48 8b 43 10          	mov    rax,QWORD PTR [rbx+0x10]
5e38:	48 8d 35 59 28 00 00 	lea    rsi,[rip+0x2859]        # 8698 <quoting_style_vals+0x238>
5e3f:	4c 8b 43 08          	mov    r8,QWORD PTR [rbx+0x8]
5e43:	ba 05 00 00 00       	mov    edx,0x5
5e48:	31 ff                	xor    edi,edi
5e4a:	4c 8b 6b 30          	mov    r13,QWORD PTR [rbx+0x30]
5e4e:	4c 8b 63 28          	mov    r12,QWORD PTR [rbx+0x28]
5e52:	4c 89 4c 24 10       	mov    QWORD PTR [rsp+0x10],r9
5e57:	4c 8b 7b 20          	mov    r15,QWORD PTR [rbx+0x20]
5e5b:	4c 8b 73 18          	mov    r14,QWORD PTR [rbx+0x18]
5e5f:	48 89 04 24          	mov    QWORD PTR [rsp],rax
5e63:	4c 89 44 24 08       	mov    QWORD PTR [rsp+0x8],r8
5e68:	48 8b 1b             	mov    rbx,QWORD PTR [rbx]
5e6b:	e8 80 b8 ff ff       	call   16f0 <dcgettext@plt>
5e70:	48 83 ec 08          	sub    rsp,0x8
5e74:	4c 8b 4c 24 18       	mov    r9,QWORD PTR [rsp+0x18]
5e79:	48 89 c2             	mov    rdx,rax
5e7c:	48 89 d9             	mov    rcx,rbx
5e7f:	be 01 00 00 00       	mov    esi,0x1
5e84:	48 89 ef             	mov    rdi,rbp
5e87:	31 c0                	xor    eax,eax
5e89:	41 51                	push   r9
5e8b:	41 55                	push   r13
5e8d:	41 54                	push   r12
5e8f:	41 57                	push   r15
5e91:	41 56                	push   r14
5e93:	4c 8b 4c 24 30       	mov    r9,QWORD PTR [rsp+0x30]
5e98:	4c 8b 44 24 38       	mov    r8,QWORD PTR [rsp+0x38]
5e9d:	e8 be ba ff ff       	call   1960 <__fprintf_chk@plt>
5ea2:	48 83 c4 30          	add    rsp,0x30
5ea6:	48 83 c4 28          	add    rsp,0x28
5eaa:	5b                   	pop    rbx
5eab:	5d                   	pop    rbp
5eac:	41 5c                	pop    r12
5eae:	41 5d                	pop    r13
5eb0:	41 5e                	pop    r14
5eb2:	41 5f                	pop    r15
5eb4:	c3                   	ret
5eb5:	0f 1f 00             	nop    DWORD PTR [rax]
5eb8:	49 89 c8             	mov    r8,rcx
5ebb:	48 89 d1             	mov    rcx,rdx
5ebe:	48 8d 15 cf 25 00 00 	lea    rdx,[rip+0x25cf]        # 8494 <quoting_style_vals+0x34>
5ec5:	be 01 00 00 00       	mov    esi,0x1
5eca:	31 c0                	xor    eax,eax
5ecc:	e8 8f ba ff ff       	call   1960 <__fprintf_chk@plt>
5ed1:	e9 e6 fe ff ff       	jmp    5dbc <version_etc_arn+0x3c>
5ed6:	66 2e 0f 1f 84 00 00 	nop    WORD PTR cs:[rax+rax*1+0x0]
5edd:	00 00 00
5ee0:	4c 8b 53 40          	mov    r10,QWORD PTR [rbx+0x40]
5ee4:	4c 8b 4b 38          	mov    r9,QWORD PTR [rbx+0x38]
5ee8:	48 8d 35 d9 27 00 00 	lea    rsi,[rip+0x27d9]        # 86c8 <quoting_style_vals+0x268>
5eef:	48 8b 43 10          	mov    rax,QWORD PTR [rbx+0x10]
5ef3:	4c 8b 43 08          	mov    r8,QWORD PTR [rbx+0x8]
5ef7:	ba 05 00 00 00       	mov    edx,0x5
5efc:	4c 8b 6b 30          	mov    r13,QWORD PTR [rbx+0x30]
5f00:	4c 8b 63 28          	mov    r12,QWORD PTR [rbx+0x28]
5f04:	4c 8b 7b 20          	mov    r15,QWORD PTR [rbx+0x20]
5f08:	4c 8b 73 18          	mov    r14,QWORD PTR [rbx+0x18]
5f0c:	48 8b 1b             	mov    rbx,QWORD PTR [rbx]
5f0f:	4c 89 54 24 18       	mov    QWORD PTR [rsp+0x18],r10
5f14:	4c 89 4c 24 10       	mov    QWORD PTR [rsp+0x10],r9
5f19:	48 89 04 24          	mov    QWORD PTR [rsp],rax
5f1d:	4c 89 44 24 08       	mov    QWORD PTR [rsp+0x8],r8
5f22:	31 ff                	xor    edi,edi
5f24:	e8 c7 b7 ff ff       	call   16f0 <dcgettext@plt>
5f29:	4c 8b 54 24 18       	mov    r10,QWORD PTR [rsp+0x18]
5f2e:	41 52                	push   r10
5f30:	e9 3f ff ff ff       	jmp    5e74 <version_etc_arn+0xf4>
5f35:	0f 1f 00             	nop    DWORD PTR [rax]
5f38:	48 8b 1b             	mov    rbx,QWORD PTR [rbx]
5f3b:	48 8d 35 5d 25 00 00 	lea    rsi,[rip+0x255d]        # 849f <quoting_style_vals+0x3f>
5f42:	ba 05 00 00 00       	mov    edx,0x5
5f47:	31 ff                	xor    edi,edi
5f49:	e8 a2 b7 ff ff       	call   16f0 <dcgettext@plt>
5f4e:	48 83 c4 28          	add    rsp,0x28
5f52:	48 89 d9             	mov    rcx,rbx
5f55:	48 89 ef             	mov    rdi,rbp
5f58:	5b                   	pop    rbx
5f59:	5d                   	pop    rbp
5f5a:	41 5c                	pop    r12
5f5c:	41 5d                	pop    r13
5f5e:	41 5e                	pop    r14
5f60:	41 5f                	pop    r15
5f62:	48 89 c2             	mov    rdx,rax
5f65:	be 01 00 00 00       	mov    esi,0x1
5f6a:	31 c0                	xor    eax,eax
5f6c:	e9 ef b9 ff ff       	jmp    1960 <__fprintf_chk@plt>
5f71:	0f 1f 80 00 00 00 00 	nop    DWORD PTR [rax+0x0]
5f78:	4c 8b 63 08          	mov    r12,QWORD PTR [rbx+0x8]
5f7c:	48 8d 35 2c 25 00 00 	lea    rsi,[rip+0x252c]        # 84af <quoting_style_vals+0x4f>
5f83:	48 8b 1b             	mov    rbx,QWORD PTR [rbx]
5f86:	ba 05 00 00 00       	mov    edx,0x5
5f8b:	31 ff                	xor    edi,edi
5f8d:	e8 5e b7 ff ff       	call   16f0 <dcgettext@plt>
5f92:	48 83 c4 28          	add    rsp,0x28
5f96:	4d 89 e0             	mov    r8,r12
5f99:	48 89 d9             	mov    rcx,rbx
5f9c:	48 89 ef             	mov    rdi,rbp
5f9f:	48 89 c2             	mov    rdx,rax
5fa2:	be 01 00 00 00       	mov    esi,0x1
5fa7:	5b                   	pop    rbx
5fa8:	5d                   	pop    rbp
5fa9:	41 5c                	pop    r12
5fab:	41 5d                	pop    r13
5fad:	41 5e                	pop    r14
5faf:	41 5f                	pop    r15
5fb1:	31 c0                	xor    eax,eax
5fb3:	e9 a8 b9 ff ff       	jmp    1960 <__fprintf_chk@plt>
5fb8:	0f 1f 84 00 00 00 00 	nop    DWORD PTR [rax+rax*1+0x0]
5fbf:	00
5fc0:	4c 8b 6b 10          	mov    r13,QWORD PTR [rbx+0x10]
5fc4:	4c 8b 63 08          	mov    r12,QWORD PTR [rbx+0x8]
5fc8:	48 8d 35 f7 24 00 00 	lea    rsi,[rip+0x24f7]        # 84c6 <quoting_style_vals+0x66>
5fcf:	48 8b 1b             	mov    rbx,QWORD PTR [rbx]
5fd2:	ba 05 00 00 00       	mov    edx,0x5
5fd7:	31 ff                	xor    edi,edi
5fd9:	e8 12 b7 ff ff       	call   16f0 <dcgettext@plt>
5fde:	48 83 c4 28          	add    rsp,0x28
5fe2:	4d 89 e9             	mov    r9,r13
5fe5:	4d 89 e0             	mov    r8,r12
5fe8:	48 89 d9             	mov    rcx,rbx
5feb:	48 89 ef             	mov    rdi,rbp
5fee:	48 89 c2             	mov    rdx,rax
5ff1:	5b                   	pop    rbx
5ff2:	5d                   	pop    rbp
5ff3:	41 5c                	pop    r12
5ff5:	41 5d                	pop    r13
5ff7:	41 5e                	pop    r14
5ff9:	41 5f                	pop    r15
5ffb:	be 01 00 00 00       	mov    esi,0x1
6000:	31 c0                	xor    eax,eax
6002:	e9 59 b9 ff ff       	jmp    1960 <__fprintf_chk@plt>
6007:	66 0f 1f 84 00 00 00 	nop    WORD PTR [rax+rax*1+0x0]
600e:	00 00
6010:	48 8d 35 e1 25 00 00 	lea    rsi,[rip+0x25e1]        # 85f8 <quoting_style_vals+0x198>
6017:	ba 05 00 00 00       	mov    edx,0x5
601c:	31 ff                	xor    edi,edi
601e:	4c 8b 73 18          	mov    r14,QWORD PTR [rbx+0x18]
6022:	4c 8b 6b 10          	mov    r13,QWORD PTR [rbx+0x10]
6026:	4c 8b 63 08          	mov    r12,QWORD PTR [rbx+0x8]
602a:	48 8b 1b             	mov    rbx,QWORD PTR [rbx]
602d:	e8 be b6 ff ff       	call   16f0 <dcgettext@plt>
6032:	48 83 ec 08          	sub    rsp,0x8
6036:	41 56                	push   r14
6038:	48 89 c2             	mov    rdx,rax
603b:	4d 89 e9             	mov    r9,r13
603e:	4d 89 e0             	mov    r8,r12
6041:	48 89 d9             	mov    rcx,rbx
6044:	48 89 ef             	mov    rdi,rbp
6047:	be 01 00 00 00       	mov    esi,0x1
604c:	31 c0                	xor    eax,eax
604e:	e8 0d b9 ff ff       	call   1960 <__fprintf_chk@plt>
6053:	58                   	pop    rax
6054:	5a                   	pop    rdx
6055:	48 83 c4 28          	add    rsp,0x28
6059:	5b                   	pop    rbx
605a:	5d                   	pop    rbp
605b:	41 5c                	pop    r12
605d:	41 5d                	pop    r13
605f:	41 5e                	pop    r14
6061:	41 5f                	pop    r15
6063:	c3                   	ret
6064:	0f 1f 40 00          	nop    DWORD PTR [rax+0x0]
6068:	4c 8b 7b 20          	mov    r15,QWORD PTR [rbx+0x20]
606c:	48 8d 35 a5 25 00 00 	lea    rsi,[rip+0x25a5]        # 8618 <quoting_style_vals+0x1b8>
6073:	ba 05 00 00 00       	mov    edx,0x5
6078:	31 ff                	xor    edi,edi
607a:	4c 8b 73 18          	mov    r14,QWORD PTR [rbx+0x18]
607e:	4c 8b 6b 10          	mov    r13,QWORD PTR [rbx+0x10]
6082:	4c 8b 63 08          	mov    r12,QWORD PTR [rbx+0x8]
6086:	48 8b 1b             	mov    rbx,QWORD PTR [rbx]
6089:	e8 62 b6 ff ff       	call   16f0 <dcgettext@plt>
608e:	41 57                	push   r15
6090:	eb a4                	jmp    6036 <version_etc_arn+0x2b6>
6092:	66 0f 1f 44 00 00    	nop    WORD PTR [rax+rax*1+0x0]
6098:	4c 8b 43 08          	mov    r8,QWORD PTR [rbx+0x8]
609c:	4c 8b 63 28          	mov    r12,QWORD PTR [rbx+0x28]
60a0:	48 8d 35 99 25 00 00 	lea    rsi,[rip+0x2599]        # 8640 <quoting_style_vals+0x1e0>
60a7:	4c 8b 7b 20          	mov    r15,QWORD PTR [rbx+0x20]
60ab:	4c 8b 73 18          	mov    r14,QWORD PTR [rbx+0x18]
60af:	ba 05 00 00 00       	mov    edx,0x5
60b4:	4c 8b 6b 10          	mov    r13,QWORD PTR [rbx+0x10]
60b8:	31 ff                	xor    edi,edi
60ba:	48 8b 1b             	mov    rbx,QWORD PTR [rbx]
60bd:	4c 89 04 24          	mov    QWORD PTR [rsp],r8
60c1:	e8 2a b6 ff ff       	call   16f0 <dcgettext@plt>
60c6:	48 83 ec 08          	sub    rsp,0x8
60ca:	4d 89 e9             	mov    r9,r13
60cd:	41 54                	push   r12
60cf:	41 57                	push   r15
60d1:	41 56                	push   r14
60d3:	4c 8b 44 24 20       	mov    r8,QWORD PTR [rsp+0x20]
60d8:	48 89 d9             	mov    rcx,rbx
60db:	48 89 c2             	mov    rdx,rax
60de:	48 89 ef             	mov    rdi,rbp
60e1:	be 01 00 00 00       	mov    esi,0x1
60e6:	31 c0                	xor    eax,eax
60e8:	e8 73 b8 ff ff       	call   1960 <__fprintf_chk@plt>
60ed:	48 83 c4 20          	add    rsp,0x20
60f1:	48 83 c4 28          	add    rsp,0x28
60f5:	5b                   	pop    rbx
60f6:	5d                   	pop    rbp
60f7:	41 5c                	pop    r12
60f9:	41 5d                	pop    r13
60fb:	41 5e                	pop    r14
60fd:	41 5f                	pop    r15
60ff:	c3                   	ret
6100:	4c 8b 4b 10          	mov    r9,QWORD PTR [rbx+0x10]
6104:	4c 8b 6b 30          	mov    r13,QWORD PTR [rbx+0x30]
6108:	48 8d 35 59 25 00 00 	lea    rsi,[rip+0x2559]        # 8668 <quoting_style_vals+0x208>
610f:	4c 8b 63 28          	mov    r12,QWORD PTR [rbx+0x28]
6113:	4c 8b 7b 20          	mov    r15,QWORD PTR [rbx+0x20]
6117:	ba 05 00 00 00       	mov    edx,0x5
611c:	4c 8b 73 18          	mov    r14,QWORD PTR [rbx+0x18]
6120:	4c 8b 43 08          	mov    r8,QWORD PTR [rbx+0x8]
6124:	31 ff                	xor    edi,edi
6126:	4c 89 4c 24 08       	mov    QWORD PTR [rsp+0x8],r9
612b:	48 8b 1b             	mov    rbx,QWORD PTR [rbx]
612e:	4c 89 04 24          	mov    QWORD PTR [rsp],r8
6132:	e8 b9 b5 ff ff       	call   16f0 <dcgettext@plt>
6137:	41 55                	push   r13
6139:	41 54                	push   r12
613b:	41 57                	push   r15
613d:	41 56                	push   r14
613f:	4c 8b 4c 24 28       	mov    r9,QWORD PTR [rsp+0x28]
6144:	eb 8d                	jmp    60d3 <version_etc_arn+0x353>
6146:	66 2e 0f 1f 84 00 00 	nop    WORD PTR cs:[rax+rax*1+0x0]
614d:	00 00 00
6150:	4c 8b 53 40          	mov    r10,QWORD PTR [rbx+0x40]
6154:	4c 8b 4b 38          	mov    r9,QWORD PTR [rbx+0x38]
6158:	ba 05 00 00 00       	mov    edx,0x5
615d:	48 8b 43 10          	mov    rax,QWORD PTR [rbx+0x10]
6161:	4c 8b 43 08          	mov    r8,QWORD PTR [rbx+0x8]
6165:	48 8d 35 94 25 00 00 	lea    rsi,[rip+0x2594]        # 8700 <quoting_style_vals+0x2a0>
616c:	4c 8b 6b 30          	mov    r13,QWORD PTR [rbx+0x30]
6170:	4c 8b 63 28          	mov    r12,QWORD PTR [rbx+0x28]
6174:	4c 8b 7b 20          	mov    r15,QWORD PTR [rbx+0x20]
6178:	4c 8b 73 18          	mov    r14,QWORD PTR [rbx+0x18]
617c:	4c 89 54 24 18       	mov    QWORD PTR [rsp+0x18],r10
6181:	4c 89 4c 24 10       	mov    QWORD PTR [rsp+0x10],r9
6186:	48 89 04 24          	mov    QWORD PTR [rsp],rax
618a:	4c 89 44 24 08       	mov    QWORD PTR [rsp+0x8],r8
618f:	48 8b 1b             	mov    rbx,QWORD PTR [rbx]
6192:	e9 8b fd ff ff       	jmp    5f22 <version_etc_arn+0x1a2>
6197:	66 0f 1f 84 00 00 00 	nop    WORD PTR [rax+rax*1+0x0]
619e:	00 00

00000000000061a0 <version_etc_ar>:
61a0:	45 31 c9             	xor    r9d,r9d
61a3:	49 83 38 00          	cmp    QWORD PTR [r8],0x0
61a7:	74 12                	je     61bb <version_etc_ar+0x1b>
61a9:	0f 1f 80 00 00 00 00 	nop    DWORD PTR [rax+0x0]
61b0:	49 83 c1 01          	add    r9,0x1
61b4:	4b 83 3c c8 00       	cmp    QWORD PTR [r8+r9*8],0x0
61b9:	75 f5                	jne    61b0 <version_etc_ar+0x10>
61bb:	e9 c0 fb ff ff       	jmp    5d80 <version_etc_arn>

00000000000061c0 <version_etc_va>:
61c0:	48 83 ec 68          	sub    rsp,0x68
61c4:	4d 89 c2             	mov    r10,r8
61c7:	45 31 c9             	xor    r9d,r9d
61ca:	64 48 8b 04 25 28 00 	mov    rax,QWORD PTR fs:0x28
61d1:	00 00
61d3:	48 89 44 24 58       	mov    QWORD PTR [rsp+0x58],rax
61d8:	31 c0                	xor    eax,eax
61da:	49 89 e0             	mov    r8,rsp
61dd:	0f 1f 00             	nop    DWORD PTR [rax]
61e0:	41 8b 02             	mov    eax,DWORD PTR [r10]
61e3:	83 f8 2f             	cmp    eax,0x2f
61e6:	77 42                	ja     622a <version_etc_va+0x6a>
61e8:	41 89 c3             	mov    r11d,eax
61eb:	4d 03 5a 10          	add    r11,QWORD PTR [r10+0x10]
61ef:	83 c0 08             	add    eax,0x8
61f2:	41 89 02             	mov    DWORD PTR [r10],eax
61f5:	49 8b 03             	mov    rax,QWORD PTR [r11]
61f8:	48 85 c0             	test   rax,rax
61fb:	4b 89 04 c8          	mov    QWORD PTR [r8+r9*8],rax
61ff:	74 0a                	je     620b <version_etc_va+0x4b>
6201:	49 83 c1 01          	add    r9,0x1
6205:	49 83 f9 0a          	cmp    r9,0xa
6209:	75 d5                	jne    61e0 <version_etc_va+0x20>
620b:	e8 70 fb ff ff       	call   5d80 <version_etc_arn>
6210:	48 8b 44 24 58       	mov    rax,QWORD PTR [rsp+0x58]
6215:	64 48 33 04 25 28 00 	xor    rax,QWORD PTR fs:0x28
621c:	00 00
621e:	75 05                	jne    6225 <version_etc_va+0x65>
6220:	48 83 c4 68          	add    rsp,0x68
6224:	c3                   	ret
6225:	e8 f6 b4 ff ff       	call   1720 <__stack_chk_fail@plt>
622a:	4d 8b 5a 08          	mov    r11,QWORD PTR [r10+0x8]
622e:	49 8d 43 08          	lea    rax,[r11+0x8]
6232:	49 89 42 08          	mov    QWORD PTR [r10+0x8],rax
6236:	eb bd                	jmp    61f5 <version_etc_va+0x35>
6238:	0f 1f 84 00 00 00 00 	nop    DWORD PTR [rax+rax*1+0x0]
623f:	00

0000000000006240 <version_etc>:
6240:	55                   	push   rbp
6241:	53                   	push   rbx
6242:	41 ba 20 00 00 00    	mov    r10d,0x20
6248:	45 31 db             	xor    r11d,r11d
624b:	48 81 ec b8 00 00 00 	sub    rsp,0xb8
6252:	64 48 8b 04 25 28 00 	mov    rax,QWORD PTR fs:0x28
6259:	00 00
625b:	48 89 44 24 78       	mov    QWORD PTR [rsp+0x78],rax
6260:	31 c0                	xor    eax,eax
6262:	48 8d 84 24 d0 00 00 	lea    rax,[rsp+0xd0]
6269:	00
626a:	4c 89 84 24 a0 00 00 	mov    QWORD PTR [rsp+0xa0],r8
6271:	00
6272:	48 8d 9c 24 d0 00 00 	lea    rbx,[rsp+0xd0]
6279:	00
627a:	4c 8d 44 24 20       	lea    r8,[rsp+0x20]
627f:	4c 89 8c 24 a8 00 00 	mov    QWORD PTR [rsp+0xa8],r9
6286:	00
6287:	c7 44 24 08 20 00 00 	mov    DWORD PTR [rsp+0x8],0x20
628e:	00
628f:	48 89 44 24 10       	mov    QWORD PTR [rsp+0x10],rax
6294:	48 8d 84 24 80 00 00 	lea    rax,[rsp+0x80]
629b:	00
629c:	45 31 c9             	xor    r9d,r9d
629f:	48 89 44 24 18       	mov    QWORD PTR [rsp+0x18],rax
62a4:	48 89 c5             	mov    rbp,rax
62a7:	66 0f 1f 84 00 00 00 	nop    WORD PTR [rax+rax*1+0x0]
62ae:	00 00
62b0:	41 83 fa 2f          	cmp    r10d,0x2f
62b4:	77 56                	ja     630c <version_etc+0xcc>
62b6:	44 89 d0             	mov    eax,r10d
62b9:	41 bb 01 00 00 00    	mov    r11d,0x1
62bf:	41 83 c2 08          	add    r10d,0x8
62c3:	48 01 e8             	add    rax,rbp
62c6:	48 8b 00             	mov    rax,QWORD PTR [rax]
62c9:	48 85 c0             	test   rax,rax
62cc:	4b 89 04 c8          	mov    QWORD PTR [r8+r9*8],rax
62d0:	74 0a                	je     62dc <version_etc+0x9c>
62d2:	49 83 c1 01          	add    r9,0x1
62d6:	49 83 f9 0a          	cmp    r9,0xa
62da:	75 d4                	jne    62b0 <version_etc+0x70>
62dc:	45 84 db             	test   r11b,r11b
62df:	75 24                	jne    6305 <version_etc+0xc5>
62e1:	e8 9a fa ff ff       	call   5d80 <version_etc_arn>
62e6:	48 8b 44 24 78       	mov    rax,QWORD PTR [rsp+0x78]
62eb:	64 48 33 04 25 28 00 	xor    rax,QWORD PTR fs:0x28
62f2:	00 00
62f4:	75 0a                	jne    6300 <version_etc+0xc0>
62f6:	48 81 c4 b8 00 00 00 	add    rsp,0xb8
62fd:	5b                   	pop    rbx
62fe:	5d                   	pop    rbp
62ff:	c3                   	ret
6300:	e8 1b b4 ff ff       	call   1720 <__stack_chk_fail@plt>
6305:	44 89 54 24 08       	mov    DWORD PTR [rsp+0x8],r10d
630a:	eb d5                	jmp    62e1 <version_etc+0xa1>
630c:	48 89 d8             	mov    rax,rbx
630f:	48 83 c3 08          	add    rbx,0x8
6313:	eb b1                	jmp    62c6 <version_etc+0x86>
6315:	90                   	nop
6316:	66 2e 0f 1f 84 00 00 	nop    WORD PTR cs:[rax+rax*1+0x0]
631d:	00 00 00

0000000000006320 <emit_bug_reporting_address>:
6320:	53                   	push   rbx
6321:	48 8d 35 ba 21 00 00 	lea    rsi,[rip+0x21ba]        # 84e2 <quoting_style_vals+0x82>
6328:	ba 05 00 00 00       	mov    edx,0x5
632d:	31 ff                	xor    edi,edi
632f:	e8 bc b3 ff ff       	call   16f0 <dcgettext@plt>
6334:	48 8d 15 bc 21 00 00 	lea    rdx,[rip+0x21bc]        # 84f7 <quoting_style_vals+0x97>
633b:	48 89 c6             	mov    rsi,rax
633e:	bf 01 00 00 00       	mov    edi,0x1
6343:	31 c0                	xor    eax,eax
6345:	e8 96 b5 ff ff       	call   18e0 <__printf_chk@plt>
634a:	48 8d 35 bc 21 00 00 	lea    rsi,[rip+0x21bc]        # 850d <quoting_style_vals+0xad>
6351:	ba 05 00 00 00       	mov    edx,0x5
6356:	31 ff                	xor    edi,edi
6358:	e8 93 b3 ff ff       	call   16f0 <dcgettext@plt>
635d:	48 8d 0d dc 18 00 00 	lea    rcx,[rip+0x18dc]        # 7c40 <_IO_stdin_used+0x920>
6364:	48 8d 15 ac 1a 00 00 	lea    rdx,[rip+0x1aac]        # 7e17 <_IO_stdin_used+0xaf7>
636b:	48 89 c6             	mov    rsi,rax
636e:	bf 01 00 00 00       	mov    edi,0x1
6373:	31 c0                	xor    eax,eax
6375:	e8 66 b5 ff ff       	call   18e0 <__printf_chk@plt>
637a:	48 8b 1d 27 4d 20 00 	mov    rbx,QWORD PTR [rip+0x204d27]        # 20b0a8 <stdout@@GLIBC_2.2.5>
6381:	48 8d 35 b8 23 00 00 	lea    rsi,[rip+0x23b8]        # 8740 <quoting_style_vals+0x2e0>
6388:	31 ff                	xor    edi,edi
638a:	ba 05 00 00 00       	mov    edx,0x5
638f:	e8 5c b3 ff ff       	call   16f0 <dcgettext@plt>
6394:	48 89 de             	mov    rsi,rbx
6397:	48 89 c7             	mov    rdi,rax
639a:	5b                   	pop    rbx
639b:	e9 50 b4 ff ff       	jmp    17f0 <fputs_unlocked@plt>

00000000000063a0 <xmalloc>:
63a0:	53                   	push   rbx
63a1:	48 89 fb             	mov    rbx,rdi
63a4:	e8 97 b4 ff ff       	call   1840 <malloc@plt>
63a9:	48 85 c0             	test   rax,rax
63ac:	75 05                	jne    63b3 <xmalloc+0x13>
63ae:	48 85 db             	test   rbx,rbx
63b1:	75 02                	jne    63b5 <xmalloc+0x15>
63b3:	5b                   	pop    rbx
63b4:	c3                   	ret
63b5:	e8 36 02 00 00       	call   65f0 <xalloc_die>
63ba:	66 0f 1f 44 00 00    	nop    WORD PTR [rax+rax*1+0x0]

00000000000063c0 <xnmalloc>:
63c0:	48 89 f8             	mov    rax,rdi
63c3:	48 f7 e6             	mul    rsi
63c6:	48 89 c7             	mov    rdi,rax
63c9:	0f 90 c0             	seto   al
63cc:	48 85 ff             	test   rdi,rdi
63cf:	78 0a                	js     63db <xnmalloc+0x1b>
63d1:	0f b6 c0             	movzx  eax,al
63d4:	48 85 c0             	test   rax,rax
63d7:	75 02                	jne    63db <xnmalloc+0x1b>
63d9:	eb c5                	jmp    63a0 <xmalloc>
63db:	48 83 ec 08          	sub    rsp,0x8
63df:	e8 0c 02 00 00       	call   65f0 <xalloc_die>
63e4:	66 90                	xchg   ax,ax
63e6:	66 2e 0f 1f 84 00 00 	nop    WORD PTR cs:[rax+rax*1+0x0]
63ed:	00 00 00

00000000000063f0 <xcharalloc>:
63f0:	eb ae                	jmp    63a0 <xmalloc>
63f2:	0f 1f 40 00          	nop    DWORD PTR [rax+0x0]
63f6:	66 2e 0f 1f 84 00 00 	nop    WORD PTR cs:[rax+rax*1+0x0]
63fd:	00 00 00

0000000000006400 <xrealloc>:
6400:	48 85 f6             	test   rsi,rsi
6403:	53                   	push   rbx
6404:	48 89 f3             	mov    rbx,rsi
6407:	75 05                	jne    640e <xrealloc+0xe>
6409:	48 85 ff             	test   rdi,rdi
640c:	75 1a                	jne    6428 <xrealloc+0x28>
640e:	48 89 de             	mov    rsi,rbx
6411:	e8 9a b4 ff ff       	call   18b0 <realloc@plt>
6416:	48 85 c0             	test   rax,rax
6419:	75 05                	jne    6420 <xrealloc+0x20>
641b:	48 85 db             	test   rbx,rbx
641e:	75 11                	jne    6431 <xrealloc+0x31>
6420:	5b                   	pop    rbx
6421:	c3                   	ret
6422:	66 0f 1f 44 00 00    	nop    WORD PTR [rax+rax*1+0x0]
6428:	e8 23 b2 ff ff       	call   1650 <free@plt>
642d:	31 c0                	xor    eax,eax
642f:	5b                   	pop    rbx
6430:	c3                   	ret
6431:	e8 ba 01 00 00       	call   65f0 <xalloc_die>
6436:	66 2e 0f 1f 84 00 00 	nop    WORD PTR cs:[rax+rax*1+0x0]
643d:	00 00 00

0000000000006440 <xnrealloc>:
6440:	48 89 f0             	mov    rax,rsi
6443:	48 f7 e2             	mul    rdx
6446:	48 89 c6             	mov    rsi,rax
6449:	0f 90 c0             	seto   al
644c:	48 85 f6             	test   rsi,rsi
644f:	78 0a                	js     645b <xnrealloc+0x1b>
6451:	0f b6 c0             	movzx  eax,al
6454:	48 85 c0             	test   rax,rax
6457:	75 02                	jne    645b <xnrealloc+0x1b>
6459:	eb a5                	jmp    6400 <xrealloc>
645b:	48 83 ec 08          	sub    rsp,0x8
645f:	e8 8c 01 00 00       	call   65f0 <xalloc_die>
6464:	66 90                	xchg   ax,ax
6466:	66 2e 0f 1f 84 00 00 	nop    WORD PTR cs:[rax+rax*1+0x0]
646d:	00 00 00

0000000000006470 <x2nrealloc>:
6470:	48 85 ff             	test   rdi,rdi
6473:	49 89 d1             	mov    r9,rdx
6476:	48 8b 0e             	mov    rcx,QWORD PTR [rsi]
6479:	74 35                	je     64b0 <x2nrealloc+0x40>
647b:	31 d2                	xor    edx,edx
647d:	48 b8 54 55 55 55 55 	movabs rax,0x5555555555555554
6484:	55 55 55
6487:	49 f7 f1             	div    r9
648a:	48 39 c8             	cmp    rax,rcx
648d:	76 3c                	jbe    64cb <x2nrealloc+0x5b>
648f:	48 89 c8             	mov    rax,rcx
6492:	48 d1 e8             	shr    rax,1
6495:	48 8d 4c 08 01       	lea    rcx,[rax+rcx*1+0x1]
649a:	48 89 0e             	mov    QWORD PTR [rsi],rcx
649d:	49 0f af c9          	imul   rcx,r9
64a1:	48 89 ce             	mov    rsi,rcx
64a4:	e9 57 ff ff ff       	jmp    6400 <xrealloc>
64a9:	0f 1f 80 00 00 00 00 	nop    DWORD PTR [rax+0x0]
64b0:	48 85 c9             	test   rcx,rcx
64b3:	74 23                	je     64d8 <x2nrealloc+0x68>
64b5:	48 89 c8             	mov    rax,rcx
64b8:	49 f7 e1             	mul    r9
64bb:	0f 90 c2             	seto   dl
64be:	48 85 c0             	test   rax,rax
64c1:	0f b6 d2             	movzx  edx,dl
64c4:	78 05                	js     64cb <x2nrealloc+0x5b>
64c6:	48 85 d2             	test   rdx,rdx
64c9:	74 cf                	je     649a <x2nrealloc+0x2a>
64cb:	48 83 ec 08          	sub    rsp,0x8
64cf:	e8 1c 01 00 00       	call   65f0 <xalloc_die>
64d4:	0f 1f 40 00          	nop    DWORD PTR [rax+0x0]
64d8:	31 d2                	xor    edx,edx
64da:	b8 80 00 00 00       	mov    eax,0x80
64df:	45 31 c0             	xor    r8d,r8d
64e2:	49 f7 f1             	div    r9
64e5:	48 85 c0             	test   rax,rax
64e8:	41 0f 94 c0          	sete   r8b
64ec:	49 8d 0c 00          	lea    rcx,[r8+rax*1]
64f0:	eb c3                	jmp    64b5 <x2nrealloc+0x45>
64f2:	0f 1f 40 00          	nop    DWORD PTR [rax+0x0]
64f6:	66 2e 0f 1f 84 00 00 	nop    WORD PTR cs:[rax+rax*1+0x0]
64fd:	00 00 00

0000000000006500 <x2realloc>:
6500:	48 85 ff             	test   rdi,rdi
6503:	48 8b 06             	mov    rax,QWORD PTR [rsi]
6506:	74 28                	je     6530 <x2realloc+0x30>
6508:	48 ba 53 55 55 55 55 	movabs rdx,0x5555555555555553
650f:	55 55 55
6512:	48 39 d0             	cmp    rax,rdx
6515:	77 2a                	ja     6541 <x2realloc+0x41>
6517:	48 89 c2             	mov    rdx,rax
651a:	48 d1 ea             	shr    rdx,1
651d:	48 8d 44 02 01       	lea    rax,[rdx+rax*1+0x1]
6522:	48 89 06             	mov    QWORD PTR [rsi],rax
6525:	48 89 c6             	mov    rsi,rax
6528:	e9 d3 fe ff ff       	jmp    6400 <xrealloc>
652d:	0f 1f 00             	nop    DWORD PTR [rax]
6530:	48 85 c0             	test   rax,rax
6533:	ba 80 00 00 00       	mov    edx,0x80
6538:	48 0f 44 c2          	cmove  rax,rdx
653c:	48 85 c0             	test   rax,rax
653f:	79 e1                	jns    6522 <x2realloc+0x22>
6541:	48 83 ec 08          	sub    rsp,0x8
6545:	e8 a6 00 00 00       	call   65f0 <xalloc_die>
654a:	66 0f 1f 44 00 00    	nop    WORD PTR [rax+rax*1+0x0]

0000000000006550 <xzalloc>:
6550:	53                   	push   rbx
6551:	48 89 fb             	mov    rbx,rdi
6554:	e8 47 fe ff ff       	call   63a0 <xmalloc>
6559:	48 89 da             	mov    rdx,rbx
655c:	31 f6                	xor    esi,esi
655e:	48 89 c7             	mov    rdi,rax
6561:	5b                   	pop    rbx
6562:	e9 39 b2 ff ff       	jmp    17a0 <memset@plt>
6567:	66 0f 1f 84 00 00 00 	nop    WORD PTR [rax+rax*1+0x0]
656e:	00 00

0000000000006570 <xcalloc>:
6570:	48 89 f8             	mov    rax,rdi
6573:	48 83 ec 08          	sub    rsp,0x8
6577:	48 f7 e6             	mul    rsi
657a:	0f 90 c2             	seto   dl
657d:	48 85 c0             	test   rax,rax
6580:	78 17                	js     6599 <xcalloc+0x29>
6582:	0f b6 d2             	movzx  edx,dl
6585:	48 85 d2             	test   rdx,rdx
6588:	75 0f                	jne    6599 <xcalloc+0x29>
658a:	e8 71 b2 ff ff       	call   1800 <calloc@plt>
658f:	48 85 c0             	test   rax,rax
6592:	74 05                	je     6599 <xcalloc+0x29>
6594:	48 83 c4 08          	add    rsp,0x8
6598:	c3                   	ret
6599:	e8 52 00 00 00       	call   65f0 <xalloc_die>
659e:	66 90                	xchg   ax,ax

00000000000065a0 <xmemdup>:
65a0:	55                   	push   rbp
65a1:	53                   	push   rbx
65a2:	48 89 fd             	mov    rbp,rdi
65a5:	48 89 f7             	mov    rdi,rsi
65a8:	48 89 f3             	mov    rbx,rsi
65ab:	48 83 ec 08          	sub    rsp,0x8
65af:	e8 ec fd ff ff       	call   63a0 <xmalloc>
65b4:	48 83 c4 08          	add    rsp,0x8
65b8:	48 89 da             	mov    rdx,rbx
65bb:	48 89 ee             	mov    rsi,rbp
65be:	5b                   	pop    rbx
65bf:	5d                   	pop    rbp
65c0:	48 89 c7             	mov    rdi,rax
65c3:	e9 58 b2 ff ff       	jmp    1820 <memcpy@plt>
65c8:	0f 1f 84 00 00 00 00 	nop    DWORD PTR [rax+rax*1+0x0]
65cf:	00

00000000000065d0 <xstrdup>:
65d0:	53                   	push   rbx
65d1:	48 89 fb             	mov    rbx,rdi
65d4:	e8 37 b1 ff ff       	call   1710 <strlen@plt>
65d9:	48 89 df             	mov    rdi,rbx
65dc:	48 8d 70 01          	lea    rsi,[rax+0x1]
65e0:	5b                   	pop    rbx
65e1:	eb bd                	jmp    65a0 <xmemdup>
65e3:	66 2e 0f 1f 84 00 00 	nop    WORD PTR cs:[rax+rax*1+0x0]
65ea:	00 00 00
65ed:	0f 1f 00             	nop    DWORD PTR [rax]

00000000000065f0 <xalloc_die>:
65f0:	48 8d 35 f8 21 00 00 	lea    rsi,[rip+0x21f8]        # 87ef <version_etc_copyright+0x2f>
65f7:	48 83 ec 08          	sub    rsp,0x8
65fb:	ba 05 00 00 00       	mov    edx,0x5
6600:	31 ff                	xor    edi,edi
6602:	e8 e9 b0 ff ff       	call   16f0 <dcgettext@plt>
6607:	8b 3d 2b 4a 20 00    	mov    edi,DWORD PTR [rip+0x204a2b]        # 20b038 <exit_failure>
660d:	48 8d 15 3e 17 00 00 	lea    rdx,[rip+0x173e]        # 7d52 <_IO_stdin_used+0xa32>
6614:	48 89 c1             	mov    rcx,rax
6617:	31 f6                	xor    esi,esi
6619:	31 c0                	xor    eax,eax
661b:	e8 d0 b2 ff ff       	call   18f0 <error@plt>
6620:	e8 3b b0 ff ff       	call   1660 <abort@plt>
6625:	66 2e 0f 1f 84 00 00 	nop    WORD PTR cs:[rax+rax*1+0x0]
662c:	00 00 00
662f:	90                   	nop

0000000000006630 <collate_error>:
6630:	41 56                	push   r14
6632:	41 55                	push   r13
6634:	41 89 fe             	mov    r14d,edi
6637:	41 54                	push   r12
6639:	55                   	push   rbp
663a:	49 89 d4             	mov    r12,rdx
663d:	53                   	push   rbx
663e:	48 89 f3             	mov    rbx,rsi
6641:	48 8d 35 b8 21 00 00 	lea    rsi,[rip+0x21b8]        # 8800 <version_etc_copyright+0x40>
6648:	ba 05 00 00 00       	mov    edx,0x5
664d:	31 ff                	xor    edi,edi
664f:	4d 89 c5             	mov    r13,r8
6652:	48 89 cd             	mov    rbp,rcx
6655:	e8 96 b0 ff ff       	call   16f0 <dcgettext@plt>
665a:	44 89 f6             	mov    esi,r14d
665d:	48 89 c2             	mov    rdx,rax
6660:	31 ff                	xor    edi,edi
6662:	31 c0                	xor    eax,eax
6664:	e8 87 b2 ff ff       	call   18f0 <error@plt>
6669:	48 8d 35 b0 21 00 00 	lea    rsi,[rip+0x21b0]        # 8820 <version_etc_copyright+0x60>
6670:	ba 05 00 00 00       	mov    edx,0x5
6675:	31 ff                	xor    edi,edi
6677:	e8 74 b0 ff ff       	call   16f0 <dcgettext@plt>
667c:	31 f6                	xor    esi,esi
667e:	48 89 c2             	mov    rdx,rax
6681:	31 ff                	xor    edi,edi
6683:	31 c0                	xor    eax,eax
6685:	e8 66 b2 ff ff       	call   18f0 <error@plt>
668a:	4c 89 e9             	mov    rcx,r13
668d:	48 89 ea             	mov    rdx,rbp
6690:	be 08 00 00 00       	mov    esi,0x8
6695:	bf 01 00 00 00       	mov    edi,0x1
669a:	e8 51 f3 ff ff       	call   59f0 <quotearg_n_style_mem>
669f:	4c 89 e1             	mov    rcx,r12
66a2:	48 89 da             	mov    rdx,rbx
66a5:	be 08 00 00 00       	mov    esi,0x8
66aa:	31 ff                	xor    edi,edi
66ac:	48 89 c5             	mov    rbp,rax
66af:	e8 3c f3 ff ff       	call   59f0 <quotearg_n_style_mem>
66b4:	48 8d 35 95 21 00 00 	lea    rsi,[rip+0x2195]        # 8850 <version_etc_copyright+0x90>
66bb:	48 89 c3             	mov    rbx,rax
66be:	ba 05 00 00 00       	mov    edx,0x5
66c3:	31 ff                	xor    edi,edi
66c5:	e8 26 b0 ff ff       	call   16f0 <dcgettext@plt>
66ca:	49 89 e8             	mov    r8,rbp
66cd:	48 89 d9             	mov    rcx,rbx
66d0:	8b 3d 62 49 20 00    	mov    edi,DWORD PTR [rip+0x204962]        # 20b038 <exit_failure>
66d6:	5b                   	pop    rbx
66d7:	5d                   	pop    rbp
66d8:	41 5c                	pop    r12
66da:	41 5d                	pop    r13
66dc:	41 5e                	pop    r14
66de:	48 89 c2             	mov    rdx,rax
66e1:	31 f6                	xor    esi,esi
66e3:	31 c0                	xor    eax,eax
66e5:	e9 06 b2 ff ff       	jmp    18f0 <error@plt>
66ea:	66 0f 1f 44 00 00    	nop    WORD PTR [rax+rax*1+0x0]

00000000000066f0 <xmemcoll>:
66f0:	41 56                	push   r14
66f2:	41 55                	push   r13
66f4:	49 89 cd             	mov    r13,rcx
66f7:	41 54                	push   r12
66f9:	55                   	push   rbp
66fa:	49 89 d4             	mov    r12,rdx
66fd:	53                   	push   rbx
66fe:	48 89 f5             	mov    rbp,rsi
6701:	48 89 fb             	mov    rbx,rdi
6704:	e8 57 0a 00 00       	call   7160 <memcoll>
6709:	41 89 c6             	mov    r14d,eax
670c:	e8 5f af ff ff       	call   1670 <__errno_location@plt>
6711:	8b 38                	mov    edi,DWORD PTR [rax]
6713:	85 ff                	test   edi,edi
6715:	74 11                	je     6728 <xmemcoll+0x38>
6717:	4d 89 e8             	mov    r8,r13
671a:	4c 89 e1             	mov    rcx,r12
671d:	48 89 ea             	mov    rdx,rbp
6720:	48 89 de             	mov    rsi,rbx
6723:	e8 08 ff ff ff       	call   6630 <collate_error>
6728:	5b                   	pop    rbx
6729:	44 89 f0             	mov    eax,r14d
672c:	5d                   	pop    rbp
672d:	41 5c                	pop    r12
672f:	41 5d                	pop    r13
6731:	41 5e                	pop    r14
6733:	c3                   	ret
6734:	66 90                	xchg   ax,ax
6736:	66 2e 0f 1f 84 00 00 	nop    WORD PTR cs:[rax+rax*1+0x0]
673d:	00 00 00

0000000000006740 <xmemcoll0>:
6740:	41 56                	push   r14
6742:	41 55                	push   r13
6744:	49 89 ce             	mov    r14,rcx
6747:	41 54                	push   r12
6749:	55                   	push   rbp
674a:	49 89 d4             	mov    r12,rdx
674d:	53                   	push   rbx
674e:	48 89 fd             	mov    rbp,rdi
6751:	48 89 f3             	mov    rbx,rsi
6754:	e8 b7 0a 00 00       	call   7210 <memcoll0>
6759:	41 89 c5             	mov    r13d,eax
675c:	e8 0f af ff ff       	call   1670 <__errno_location@plt>
6761:	8b 38                	mov    edi,DWORD PTR [rax]
6763:	85 ff                	test   edi,edi
6765:	74 13                	je     677a <xmemcoll0+0x3a>
6767:	48 8d 53 ff          	lea    rdx,[rbx-0x1]
676b:	4d 8d 46 ff          	lea    r8,[r14-0x1]
676f:	4c 89 e1             	mov    rcx,r12
6772:	48 89 ee             	mov    rsi,rbp
6775:	e8 b6 fe ff ff       	call   6630 <collate_error>
677a:	5b                   	pop    rbx
677b:	44 89 e8             	mov    eax,r13d
677e:	5d                   	pop    rbp
677f:	41 5c                	pop    r12
6781:	41 5d                	pop    r13
6783:	41 5e                	pop    r14
6785:	c3                   	ret
6786:	66 2e 0f 1f 84 00 00 	nop    WORD PTR cs:[rax+rax*1+0x0]
678d:	00 00 00

0000000000006790 <xstrtoul>:
6790:	41 57                	push   r15
6792:	41 56                	push   r14
6794:	41 55                	push   r13
6796:	41 54                	push   r12
6798:	55                   	push   rbp
6799:	53                   	push   rbx
679a:	48 83 ec 28          	sub    rsp,0x28
679e:	64 48 8b 04 25 28 00 	mov    rax,QWORD PTR fs:0x28
67a5:	00 00
67a7:	48 89 44 24 18       	mov    QWORD PTR [rsp+0x18],rax
67ac:	31 c0                	xor    eax,eax
67ae:	83 fa 24             	cmp    edx,0x24
67b1:	0f 87 5e 03 00 00    	ja     6b15 <xstrtoul+0x385>
67b7:	48 8d 44 24 10       	lea    rax,[rsp+0x10]
67bc:	49 89 f7             	mov    r15,rsi
67bf:	48 85 f6             	test   rsi,rsi
67c2:	48 89 fd             	mov    rbp,rdi
67c5:	89 54 24 08          	mov    DWORD PTR [rsp+0x8],edx
67c9:	49 89 ce             	mov    r14,rcx
67cc:	4d 89 c5             	mov    r13,r8
67cf:	4c 0f 44 f8          	cmove  r15,rax
67d3:	e8 98 ae ff ff       	call   1670 <__errno_location@plt>
67d8:	c7 00 00 00 00 00    	mov    DWORD PTR [rax],0x0
67de:	49 89 c4             	mov    r12,rax
67e1:	0f b6 5d 00          	movzx  ebx,BYTE PTR [rbp+0x0]
67e5:	e8 a6 b1 ff ff       	call   1990 <__ctype_b_loc@plt>
67ea:	8b 54 24 08          	mov    edx,DWORD PTR [rsp+0x8]
67ee:	48 8b 30             	mov    rsi,QWORD PTR [rax]
67f1:	48 89 e8             	mov    rax,rbp
67f4:	eb 11                	jmp    6807 <xstrtoul+0x77>
67f6:	66 2e 0f 1f 84 00 00 	nop    WORD PTR cs:[rax+rax*1+0x0]
67fd:	00 00 00
6800:	48 83 c0 01          	add    rax,0x1
6804:	0f b6 18             	movzx  ebx,BYTE PTR [rax]
6807:	0f b6 cb             	movzx  ecx,bl
680a:	f6 44 4e 01 20       	test   BYTE PTR [rsi+rcx*2+0x1],0x20
680f:	75 ef                	jne    6800 <xstrtoul+0x70>
6811:	80 fb 2d             	cmp    bl,0x2d
6814:	74 52                	je     6868 <xstrtoul+0xd8>
6816:	4c 89 fe             	mov    rsi,r15
6819:	48 89 ef             	mov    rdi,rbp
681c:	e8 ff b0 ff ff       	call   1920 <strtoul@plt>
6821:	49 8b 0f             	mov    rcx,QWORD PTR [r15]
6824:	48 89 c3             	mov    rbx,rax
6827:	48 39 e9             	cmp    rcx,rbp
682a:	74 2c                	je     6858 <xstrtoul+0xc8>
682c:	41 8b 04 24          	mov    eax,DWORD PTR [r12]
6830:	85 c0                	test   eax,eax
6832:	74 64                	je     6898 <xstrtoul+0x108>
6834:	83 f8 22             	cmp    eax,0x22
6837:	bd 01 00 00 00       	mov    ebp,0x1
683c:	75 2a                	jne    6868 <xstrtoul+0xd8>
683e:	4d 85 ed             	test   r13,r13
6841:	74 09                	je     684c <xstrtoul+0xbc>
6843:	44 0f b6 21          	movzx  r12d,BYTE PTR [rcx]
6847:	45 84 e4             	test   r12b,r12b
684a:	75 7b                	jne    68c7 <xstrtoul+0x137>
684c:	49 89 1e             	mov    QWORD PTR [r14],rbx
684f:	eb 1c                	jmp    686d <xstrtoul+0xdd>
6851:	0f 1f 80 00 00 00 00 	nop    DWORD PTR [rax+0x0]
6858:	4d 85 ed             	test   r13,r13
685b:	48 89 4c 24 08       	mov    QWORD PTR [rsp+0x8],rcx
6860:	75 3e                	jne    68a0 <xstrtoul+0x110>
6862:	66 0f 1f 44 00 00    	nop    WORD PTR [rax+rax*1+0x0]
6868:	bd 04 00 00 00       	mov    ebp,0x4
686d:	48 8b 7c 24 18       	mov    rdi,QWORD PTR [rsp+0x18]
6872:	64 48 33 3c 25 28 00 	xor    rdi,QWORD PTR fs:0x28
6879:	00 00
687b:	89 e8                	mov    eax,ebp
687d:	0f 85 8d 02 00 00    	jne    6b10 <xstrtoul+0x380>
6883:	48 83 c4 28          	add    rsp,0x28
6887:	5b                   	pop    rbx
6888:	5d                   	pop    rbp
6889:	41 5c                	pop    r12
688b:	41 5d                	pop    r13
688d:	41 5e                	pop    r14
688f:	41 5f                	pop    r15
6891:	c3                   	ret
6892:	66 0f 1f 44 00 00    	nop    WORD PTR [rax+rax*1+0x0]
6898:	31 ed                	xor    ebp,ebp
689a:	eb a2                	jmp    683e <xstrtoul+0xae>
689c:	0f 1f 40 00          	nop    DWORD PTR [rax+0x0]
68a0:	44 0f b6 65 00       	movzx  r12d,BYTE PTR [rbp+0x0]
68a5:	45 84 e4             	test   r12b,r12b
68a8:	74 be                	je     6868 <xstrtoul+0xd8>
68aa:	41 0f be f4          	movsx  esi,r12b
68ae:	4c 89 ef             	mov    rdi,r13
68b1:	31 ed                	xor    ebp,ebp
68b3:	e8 98 ae ff ff       	call   1750 <strchr@plt>
68b8:	48 85 c0             	test   rax,rax
68bb:	bb 01 00 00 00       	mov    ebx,0x1
68c0:	48 8b 4c 24 08       	mov    rcx,QWORD PTR [rsp+0x8]
68c5:	74 a1                	je     6868 <xstrtoul+0xd8>
68c7:	41 0f be f4          	movsx  esi,r12b
68cb:	4c 89 ef             	mov    rdi,r13
68ce:	48 89 4c 24 08       	mov    QWORD PTR [rsp+0x8],rcx
68d3:	e8 78 ae ff ff       	call   1750 <strchr@plt>
68d8:	48 85 c0             	test   rax,rax
68db:	48 8b 4c 24 08       	mov    rcx,QWORD PTR [rsp+0x8]
68e0:	0f 84 c6 00 00 00    	je     69ac <xstrtoul+0x21c>
68e6:	41 8d 44 24 bb       	lea    eax,[r12-0x45]
68eb:	3c 2f                	cmp    al,0x2f
68ed:	77 51                	ja     6940 <xstrtoul+0x1b0>
68ef:	48 ba 45 89 30 00 44 	movabs rdx,0x814400308945
68f6:	81 00 00
68f9:	48 0f a3 c2          	bt     rdx,rax
68fd:	73 41                	jae    6940 <xstrtoul+0x1b0>
68ff:	be 30 00 00 00       	mov    esi,0x30
6904:	4c 89 ef             	mov    rdi,r13
6907:	48 89 4c 24 08       	mov    QWORD PTR [rsp+0x8],rcx
690c:	e8 3f ae ff ff       	call   1750 <strchr@plt>
6911:	48 85 c0             	test   rax,rax
6914:	48 8b 4c 24 08       	mov    rcx,QWORD PTR [rsp+0x8]
6919:	74 25                	je     6940 <xstrtoul+0x1b0>
691b:	0f b6 41 01          	movzx  eax,BYTE PTR [rcx+0x1]
691f:	3c 44                	cmp    al,0x44
6921:	74 0c                	je     692f <xstrtoul+0x19f>
6923:	3c 69                	cmp    al,0x69
6925:	0f 84 cd 01 00 00    	je     6af8 <xstrtoul+0x368>
692b:	3c 42                	cmp    al,0x42
692d:	75 11                	jne    6940 <xstrtoul+0x1b0>
692f:	bf 02 00 00 00       	mov    edi,0x2
6934:	be e8 03 00 00       	mov    esi,0x3e8
6939:	eb 0f                	jmp    694a <xstrtoul+0x1ba>
693b:	0f 1f 44 00 00       	nop    DWORD PTR [rax+rax*1+0x0]
6940:	bf 01 00 00 00       	mov    edi,0x1
6945:	be 00 04 00 00       	mov    esi,0x400
694a:	41 83 ec 42          	sub    r12d,0x42
694e:	41 80 fc 35          	cmp    r12b,0x35
6952:	77 58                	ja     69ac <xstrtoul+0x21c>
6954:	48 8d 15 65 1f 00 00 	lea    rdx,[rip+0x1f65]        # 88c0 <version_etc_copyright+0x100>
695b:	45 0f b6 e4          	movzx  r12d,r12b
695f:	4a 63 04 a2          	movsxd rax,DWORD PTR [rdx+r12*4]
6963:	48 01 d0             	add    rax,rdx
6966:	ff e0                	jmp    rax
6968:	48 89 d8             	mov    rax,rbx
696b:	48 f7 e6             	mul    rsi
696e:	0f 80 ed 01 00 00    	jo     6b61 <xstrtoul+0x3d1>
6974:	45 31 c0             	xor    r8d,r8d
6977:	48 f7 e6             	mul    rsi
697a:	0f 80 d2 01 00 00    	jo     6b52 <xstrtoul+0x3c2>
6980:	48 89 c3             	mov    rbx,rax
6983:	44 09 c5             	or     ebp,r8d
6986:	66 2e 0f 1f 84 00 00 	nop    WORD PTR cs:[rax+rax*1+0x0]
698d:	00 00 00
6990:	48 63 ff             	movsxd rdi,edi
6993:	89 e8                	mov    eax,ebp
6995:	48 01 f9             	add    rcx,rdi
6998:	83 c8 02             	or     eax,0x2
699b:	49 89 0f             	mov    QWORD PTR [r15],rcx
699e:	80 39 00             	cmp    BYTE PTR [rcx],0x0
69a1:	49 89 1e             	mov    QWORD PTR [r14],rbx
69a4:	0f 45 e8             	cmovne ebp,eax
69a7:	e9 c1 fe ff ff       	jmp    686d <xstrtoul+0xdd>
69ac:	49 89 1e             	mov    QWORD PTR [r14],rbx
69af:	83 cd 02             	or     ebp,0x2
69b2:	e9 b6 fe ff ff       	jmp    686d <xstrtoul+0xdd>
69b7:	ba 02 00 00 00       	mov    edx,0x2
69bc:	48 89 d0             	mov    rax,rdx
69bf:	48 f7 e3             	mul    rbx
69c2:	0f 80 96 00 00 00    	jo     6a5e <xstrtoul+0x2ce>
69c8:	48 01 db             	add    rbx,rbx
69cb:	eb c3                	jmp    6990 <xstrtoul+0x200>
69cd:	ba 00 02 00 00       	mov    edx,0x200
69d2:	48 89 d0             	mov    rax,rdx
69d5:	48 f7 e3             	mul    rbx
69d8:	0f 80 80 00 00 00    	jo     6a5e <xstrtoul+0x2ce>
69de:	48 c1 e3 09          	shl    rbx,0x9
69e2:	eb ac                	jmp    6990 <xstrtoul+0x200>
69e4:	41 b8 07 00 00 00    	mov    r8d,0x7
69ea:	45 31 c9             	xor    r9d,r9d
69ed:	0f 1f 00             	nop    DWORD PTR [rax]
69f0:	48 89 d8             	mov    rax,rbx
69f3:	48 f7 e6             	mul    rsi
69f6:	48 89 c3             	mov    rbx,rax
69f9:	0f 80 8f 01 00 00    	jo     6b8e <xstrtoul+0x3fe>
69ff:	41 83 e8 01          	sub    r8d,0x1
6a03:	75 eb                	jne    69f0 <xstrtoul+0x260>
6a05:	44 09 cd             	or     ebp,r9d
6a08:	eb 86                	jmp    6990 <xstrtoul+0x200>
6a0a:	41 b8 08 00 00 00    	mov    r8d,0x8
6a10:	45 31 c9             	xor    r9d,r9d
6a13:	0f 1f 44 00 00       	nop    DWORD PTR [rax+rax*1+0x0]
6a18:	48 89 d8             	mov    rax,rbx
6a1b:	48 f7 e6             	mul    rsi
6a1e:	48 89 c3             	mov    rbx,rax
6a21:	0f 80 49 01 00 00    	jo     6b70 <xstrtoul+0x3e0>
6a27:	41 83 e8 01          	sub    r8d,0x1
6a2b:	75 eb                	jne    6a18 <xstrtoul+0x288>
6a2d:	eb d6                	jmp    6a05 <xstrtoul+0x275>
6a2f:	41 b8 04 00 00 00    	mov    r8d,0x4
6a35:	45 31 c9             	xor    r9d,r9d
6a38:	48 89 d8             	mov    rax,rbx
6a3b:	48 f7 e6             	mul    rsi
6a3e:	48 89 c3             	mov    rbx,rax
6a41:	0f 80 fc 00 00 00    	jo     6b43 <xstrtoul+0x3b3>
6a47:	41 83 e8 01          	sub    r8d,0x1
6a4b:	75 eb                	jne    6a38 <xstrtoul+0x2a8>
6a4d:	eb b6                	jmp    6a05 <xstrtoul+0x275>
6a4f:	48 89 d8             	mov    rax,rbx
6a52:	48 f7 e6             	mul    rsi
6a55:	48 89 c3             	mov    rbx,rax
6a58:	0f 81 32 ff ff ff    	jno    6990 <xstrtoul+0x200>
6a5e:	bd 01 00 00 00       	mov    ebp,0x1
6a63:	48 83 cb ff          	or     rbx,0xffffffffffffffff
6a67:	e9 24 ff ff ff       	jmp    6990 <xstrtoul+0x200>
6a6c:	0f 1f 40 00          	nop    DWORD PTR [rax+0x0]
6a70:	41 b8 05 00 00 00    	mov    r8d,0x5
6a76:	45 31 c9             	xor    r9d,r9d
6a79:	48 89 d8             	mov    rax,rbx
6a7c:	48 f7 e6             	mul    rsi
6a7f:	48 89 c3             	mov    rbx,rax
6a82:	0f 80 f7 00 00 00    	jo     6b7f <xstrtoul+0x3ef>
6a88:	41 83 e8 01          	sub    r8d,0x1
6a8c:	75 eb                	jne    6a79 <xstrtoul+0x2e9>
6a8e:	e9 72 ff ff ff       	jmp    6a05 <xstrtoul+0x275>
6a93:	41 b8 06 00 00 00    	mov    r8d,0x6
6a99:	45 31 c9             	xor    r9d,r9d
6a9c:	48 89 d8             	mov    rax,rbx
6a9f:	48 f7 e6             	mul    rsi
6aa2:	48 89 c3             	mov    rbx,rax
6aa5:	0f 80 89 00 00 00    	jo     6b34 <xstrtoul+0x3a4>
6aab:	41 83 e8 01          	sub    r8d,0x1
6aaf:	75 eb                	jne    6a9c <xstrtoul+0x30c>
6ab1:	e9 4f ff ff ff       	jmp    6a05 <xstrtoul+0x275>
6ab6:	ba 00 04 00 00       	mov    edx,0x400
6abb:	48 89 d0             	mov    rax,rdx
6abe:	48 f7 e3             	mul    rbx
6ac1:	70 9b                	jo     6a5e <xstrtoul+0x2ce>
6ac3:	48 c1 e3 0a          	shl    rbx,0xa
6ac7:	e9 c4 fe ff ff       	jmp    6990 <xstrtoul+0x200>
6acc:	48 89 d8             	mov    rax,rbx
6acf:	48 f7 e6             	mul    rsi
6ad2:	0f 80 c5 00 00 00    	jo     6b9d <xstrtoul+0x40d>
6ad8:	45 31 c0             	xor    r8d,r8d
6adb:	48 f7 e6             	mul    rsi
6ade:	0f 81 93 fe ff ff    	jno    6977 <xstrtoul+0x1e7>
6ae4:	41 b8 01 00 00 00    	mov    r8d,0x1
6aea:	48 83 c8 ff          	or     rax,0xffffffffffffffff
6aee:	e9 84 fe ff ff       	jmp    6977 <xstrtoul+0x1e7>
6af3:	0f 1f 44 00 00       	nop    DWORD PTR [rax+rax*1+0x0]
6af8:	31 ff                	xor    edi,edi
6afa:	80 79 02 42          	cmp    BYTE PTR [rcx+0x2],0x42
6afe:	be 00 04 00 00       	mov    esi,0x400
6b03:	40 0f 94 c7          	sete   dil
6b07:	8d 7c 3f 01          	lea    edi,[rdi+rdi*1+0x1]
6b0b:	e9 3a fe ff ff       	jmp    694a <xstrtoul+0x1ba>
6b10:	e8 0b ac ff ff       	call   1720 <__stack_chk_fail@plt>
6b15:	48 8d 0d 7c 1e 00 00 	lea    rcx,[rip+0x1e7c]        # 8998 <__PRETTY_FUNCTION__.4162>
6b1c:	48 8d 35 55 1d 00 00 	lea    rsi,[rip+0x1d55]        # 8878 <version_etc_copyright+0xb8>
6b23:	48 8d 3d 6e 1d 00 00 	lea    rdi,[rip+0x1d6e]        # 8898 <version_etc_copyright+0xd8>
6b2a:	ba 54 00 00 00       	mov    edx,0x54
6b2f:	e8 5c ac ff ff       	call   1790 <__assert_fail@plt>
6b34:	41 b9 01 00 00 00    	mov    r9d,0x1
6b3a:	48 83 cb ff          	or     rbx,0xffffffffffffffff
6b3e:	e9 68 ff ff ff       	jmp    6aab <xstrtoul+0x31b>
6b43:	41 b9 01 00 00 00    	mov    r9d,0x1
6b49:	48 83 cb ff          	or     rbx,0xffffffffffffffff
6b4d:	e9 f5 fe ff ff       	jmp    6a47 <xstrtoul+0x2b7>
6b52:	41 b8 01 00 00 00    	mov    r8d,0x1
6b58:	48 83 cb ff          	or     rbx,0xffffffffffffffff
6b5c:	e9 22 fe ff ff       	jmp    6983 <xstrtoul+0x1f3>
6b61:	48 83 c8 ff          	or     rax,0xffffffffffffffff
6b65:	41 b8 01 00 00 00    	mov    r8d,0x1
6b6b:	e9 07 fe ff ff       	jmp    6977 <xstrtoul+0x1e7>
6b70:	41 b9 01 00 00 00    	mov    r9d,0x1
6b76:	48 83 cb ff          	or     rbx,0xffffffffffffffff
6b7a:	e9 a8 fe ff ff       	jmp    6a27 <xstrtoul+0x297>
6b7f:	41 b9 01 00 00 00    	mov    r9d,0x1
6b85:	48 83 cb ff          	or     rbx,0xffffffffffffffff
6b89:	e9 fa fe ff ff       	jmp    6a88 <xstrtoul+0x2f8>
6b8e:	41 b9 01 00 00 00    	mov    r9d,0x1
6b94:	48 83 cb ff          	or     rbx,0xffffffffffffffff
6b98:	e9 62 fe ff ff       	jmp    69ff <xstrtoul+0x26f>
6b9d:	41 b8 01 00 00 00    	mov    r8d,0x1
6ba3:	48 83 c8 ff          	or     rax,0xffffffffffffffff
6ba7:	e9 2f ff ff ff       	jmp    6adb <xstrtoul+0x34b>
6bac:	0f 1f 40 00          	nop    DWORD PTR [rax+0x0]

0000000000006bb0 <rpl_fclose>:
6bb0:	41 54                	push   r12
6bb2:	55                   	push   rbp
6bb3:	53                   	push   rbx
6bb4:	48 89 fb             	mov    rbx,rdi
6bb7:	e8 74 ac ff ff       	call   1830 <fileno@plt>
6bbc:	85 c0                	test   eax,eax
6bbe:	48 89 df             	mov    rdi,rbx
6bc1:	78 54                	js     6c17 <rpl_fclose+0x67>
6bc3:	e8 c8 ac ff ff       	call   1890 <__freading@plt>
6bc8:	85 c0                	test   eax,eax
6bca:	75 2c                	jne    6bf8 <rpl_fclose+0x48>
6bcc:	48 89 df             	mov    rdi,rbx
6bcf:	e8 dc 02 00 00       	call   6eb0 <rpl_fflush>
6bd4:	85 c0                	test   eax,eax
6bd6:	74 3c                	je     6c14 <rpl_fclose+0x64>
6bd8:	e8 93 aa ff ff       	call   1670 <__errno_location@plt>
6bdd:	44 8b 20             	mov    r12d,DWORD PTR [rax]
6be0:	48 89 df             	mov    rdi,rbx
6be3:	48 89 c5             	mov    rbp,rax
6be6:	e8 e5 aa ff ff       	call   16d0 <fclose@plt>
6beb:	45 85 e4             	test   r12d,r12d
6bee:	75 30                	jne    6c20 <rpl_fclose+0x70>
6bf0:	5b                   	pop    rbx
6bf1:	5d                   	pop    rbp
6bf2:	41 5c                	pop    r12
6bf4:	c3                   	ret
6bf5:	0f 1f 00             	nop    DWORD PTR [rax]
6bf8:	48 89 df             	mov    rdi,rbx
6bfb:	e8 30 ac ff ff       	call   1830 <fileno@plt>
6c00:	31 f6                	xor    esi,esi
6c02:	ba 01 00 00 00       	mov    edx,0x1
6c07:	89 c7                	mov    edi,eax
6c09:	e8 72 ab ff ff       	call   1780 <lseek@plt>
6c0e:	48 83 f8 ff          	cmp    rax,0xffffffffffffffff
6c12:	75 b8                	jne    6bcc <rpl_fclose+0x1c>
6c14:	48 89 df             	mov    rdi,rbx
6c17:	5b                   	pop    rbx
6c18:	5d                   	pop    rbp
6c19:	41 5c                	pop    r12
6c1b:	e9 b0 aa ff ff       	jmp    16d0 <fclose@plt>
6c20:	44 89 65 00          	mov    DWORD PTR [rbp+0x0],r12d
6c24:	b8 ff ff ff ff       	mov    eax,0xffffffff
6c29:	eb c5                	jmp    6bf0 <rpl_fclose+0x40>
6c2b:	0f 1f 44 00 00       	nop    DWORD PTR [rax+rax*1+0x0]

0000000000006c30 <rpl_fcntl>:
6c30:	41 54                	push   r12
6c32:	55                   	push   rbp
6c33:	89 fd                	mov    ebp,edi
6c35:	53                   	push   rbx
6c36:	48 83 ec 50          	sub    rsp,0x50
6c3a:	64 48 8b 04 25 28 00 	mov    rax,QWORD PTR fs:0x28
6c41:	00 00
6c43:	48 89 44 24 18       	mov    QWORD PTR [rsp+0x18],rax
6c48:	31 c0                	xor    eax,eax
6c4a:	48 8d 44 24 70       	lea    rax,[rsp+0x70]
6c4f:	85 f6                	test   esi,esi
6c51:	48 89 54 24 30       	mov    QWORD PTR [rsp+0x30],rdx
6c56:	48 89 4c 24 38       	mov    QWORD PTR [rsp+0x38],rcx
6c5b:	4c 89 44 24 40       	mov    QWORD PTR [rsp+0x40],r8
6c60:	48 89 44 24 08       	mov    QWORD PTR [rsp+0x8],rax
6c65:	48 8d 44 24 20       	lea    rax,[rsp+0x20]
6c6a:	4c 89 4c 24 48       	mov    QWORD PTR [rsp+0x48],r9
6c6f:	c7 04 24 10 00 00 00 	mov    DWORD PTR [rsp],0x10
6c76:	48 89 44 24 10       	mov    QWORD PTR [rsp+0x10],rax
6c7b:	0f 84 01 02 00 00    	je     6e82 <rpl_fcntl+0x252>
6c81:	81 fe 06 04 00 00    	cmp    esi,0x406
6c87:	75 47                	jne    6cd0 <rpl_fcntl+0xa0>
6c89:	48 8b 44 24 10       	mov    rax,QWORD PTR [rsp+0x10]
6c8e:	83 3d a3 46 20 00 00 	cmp    DWORD PTR [rip+0x2046a3],0x0        # 20b338 <have_dupfd_cloexec.3326>
6c95:	c7 04 24 18 00 00 00 	mov    DWORD PTR [rsp],0x18
6c9c:	44 8b 60 10          	mov    r12d,DWORD PTR [rax+0x10]
6ca0:	44 89 e2             	mov    edx,r12d
6ca3:	0f 88 2a 01 00 00    	js     6dd3 <rpl_fcntl+0x1a3>
6ca9:	31 c0                	xor    eax,eax
6cab:	be 06 04 00 00       	mov    esi,0x406
6cb0:	e8 fb a9 ff ff       	call   16b0 <fcntl@plt>
6cb5:	85 c0                	test   eax,eax
6cb7:	89 c3                	mov    ebx,eax
6cb9:	0f 88 89 01 00 00    	js     6e48 <rpl_fcntl+0x218>
6cbf:	c7 05 6f 46 20 00 01 	mov    DWORD PTR [rip+0x20466f],0x1        # 20b338 <have_dupfd_cloexec.3326>
6cc6:	00 00 00
6cc9:	eb 45                	jmp    6d10 <rpl_fcntl+0xe0>
6ccb:	0f 1f 44 00 00       	nop    DWORD PTR [rax+rax*1+0x0]
6cd0:	83 fe 0b             	cmp    esi,0xb
6cd3:	74 2b                	je     6d00 <rpl_fcntl+0xd0>
6cd5:	7f 59                	jg     6d30 <rpl_fcntl+0x100>
6cd7:	83 fe 04             	cmp    esi,0x4
6cda:	0f 84 d0 00 00 00    	je     6db0 <rpl_fcntl+0x180>
6ce0:	0f 8f ba 00 00 00    	jg     6da0 <rpl_fcntl+0x170>
6ce6:	83 fe 02             	cmp    esi,0x2
6ce9:	0f 84 c1 00 00 00    	je     6db0 <rpl_fcntl+0x180>
6cef:	7f 0f                	jg     6d00 <rpl_fcntl+0xd0>
6cf1:	83 fe 01             	cmp    esi,0x1
6cf4:	75 62                	jne    6d58 <rpl_fcntl+0x128>
6cf6:	66 2e 0f 1f 84 00 00 	nop    WORD PTR cs:[rax+rax*1+0x0]
6cfd:	00 00 00
6d00:	89 ef                	mov    edi,ebp
6d02:	31 c0                	xor    eax,eax
6d04:	e8 a7 a9 ff ff       	call   16b0 <fcntl@plt>
6d09:	89 c3                	mov    ebx,eax
6d0b:	0f 1f 44 00 00       	nop    DWORD PTR [rax+rax*1+0x0]
6d10:	48 8b 4c 24 18       	mov    rcx,QWORD PTR [rsp+0x18]
6d15:	64 48 33 0c 25 28 00 	xor    rcx,QWORD PTR fs:0x28
6d1c:	00 00
6d1e:	89 d8                	mov    eax,ebx
6d20:	0f 85 57 01 00 00    	jne    6e7d <rpl_fcntl+0x24d>
6d26:	48 83 c4 50          	add    rsp,0x50
6d2a:	5b                   	pop    rbx
6d2b:	5d                   	pop    rbp
6d2c:	41 5c                	pop    r12
6d2e:	c3                   	ret
6d2f:	90                   	nop
6d30:	81 fe 07 04 00 00    	cmp    esi,0x407
6d36:	7f 48                	jg     6d80 <rpl_fcntl+0x150>
6d38:	81 fe 06 04 00 00    	cmp    esi,0x406
6d3e:	7d 70                	jge    6db0 <rpl_fcntl+0x180>
6d40:	81 fe 01 04 00 00    	cmp    esi,0x401
6d46:	74 b8                	je     6d00 <rpl_fcntl+0xd0>
6d48:	81 fe 02 04 00 00    	cmp    esi,0x402
6d4e:	74 60                	je     6db0 <rpl_fcntl+0x180>
6d50:	81 fe 00 04 00 00    	cmp    esi,0x400
6d56:	74 58                	je     6db0 <rpl_fcntl+0x180>
6d58:	8b 04 24             	mov    eax,DWORD PTR [rsp]
6d5b:	83 f8 2f             	cmp    eax,0x2f
6d5e:	0f 87 36 01 00 00    	ja     6e9a <rpl_fcntl+0x26a>
6d64:	48 03 44 24 10       	add    rax,QWORD PTR [rsp+0x10]
6d69:	48 8b 10             	mov    rdx,QWORD PTR [rax]
6d6c:	89 ef                	mov    edi,ebp
6d6e:	31 c0                	xor    eax,eax
6d70:	e8 3b a9 ff ff       	call   16b0 <fcntl@plt>
6d75:	89 c3                	mov    ebx,eax
6d77:	eb 97                	jmp    6d10 <rpl_fcntl+0xe0>
6d79:	0f 1f 80 00 00 00 00 	nop    DWORD PTR [rax+0x0]
6d80:	81 fe 09 04 00 00    	cmp    esi,0x409
6d86:	74 28                	je     6db0 <rpl_fcntl+0x180>
6d88:	0f 8c 72 ff ff ff    	jl     6d00 <rpl_fcntl+0xd0>
6d8e:	81 fe 0a 04 00 00    	cmp    esi,0x40a
6d94:	75 c2                	jne    6d58 <rpl_fcntl+0x128>
6d96:	e9 65 ff ff ff       	jmp    6d00 <rpl_fcntl+0xd0>
6d9b:	0f 1f 44 00 00       	nop    DWORD PTR [rax+rax*1+0x0]
6da0:	83 fe 09             	cmp    esi,0x9
6da3:	0f 84 57 ff ff ff    	je     6d00 <rpl_fcntl+0xd0>
6da9:	7f 05                	jg     6db0 <rpl_fcntl+0x180>
6dab:	83 fe 08             	cmp    esi,0x8
6dae:	75 a8                	jne    6d58 <rpl_fcntl+0x128>
6db0:	8b 04 24             	mov    eax,DWORD PTR [rsp]
6db3:	83 f8 2f             	cmp    eax,0x2f
6db6:	0f 87 e8 00 00 00    	ja     6ea4 <rpl_fcntl+0x274>
6dbc:	48 03 44 24 10       	add    rax,QWORD PTR [rsp+0x10]
6dc1:	8b 10                	mov    edx,DWORD PTR [rax]
6dc3:	89 ef                	mov    edi,ebp
6dc5:	31 c0                	xor    eax,eax
6dc7:	e8 e4 a8 ff ff       	call   16b0 <fcntl@plt>
6dcc:	89 c3                	mov    ebx,eax
6dce:	e9 3d ff ff ff       	jmp    6d10 <rpl_fcntl+0xe0>
6dd3:	31 f6                	xor    esi,esi
6dd5:	31 c0                	xor    eax,eax
6dd7:	e8 d4 a8 ff ff       	call   16b0 <fcntl@plt>
6ddc:	85 c0                	test   eax,eax
6dde:	89 c3                	mov    ebx,eax
6de0:	0f 88 2a ff ff ff    	js     6d10 <rpl_fcntl+0xe0>
6de6:	83 3d 4b 45 20 00 ff 	cmp    DWORD PTR [rip+0x20454b],0xffffffff        # 20b338 <have_dupfd_cloexec.3326>
6ded:	0f 85 1d ff ff ff    	jne    6d10 <rpl_fcntl+0xe0>
6df3:	31 c0                	xor    eax,eax
6df5:	be 01 00 00 00       	mov    esi,0x1
6dfa:	89 df                	mov    edi,ebx
6dfc:	e8 af a8 ff ff       	call   16b0 <fcntl@plt>
6e01:	85 c0                	test   eax,eax
6e03:	78 1c                	js     6e21 <rpl_fcntl+0x1f1>
6e05:	83 c8 01             	or     eax,0x1
6e08:	be 02 00 00 00       	mov    esi,0x2
6e0d:	89 df                	mov    edi,ebx
6e0f:	89 c2                	mov    edx,eax
6e11:	31 c0                	xor    eax,eax
6e13:	e8 98 a8 ff ff       	call   16b0 <fcntl@plt>
6e18:	83 f8 ff             	cmp    eax,0xffffffff
6e1b:	0f 85 ef fe ff ff    	jne    6d10 <rpl_fcntl+0xe0>
6e21:	e8 4a a8 ff ff       	call   1670 <__errno_location@plt>
6e26:	44 8b 20             	mov    r12d,DWORD PTR [rax]
6e29:	48 89 c5             	mov    rbp,rax
6e2c:	89 df                	mov    edi,ebx
6e2e:	e8 7d a9 ff ff       	call   17b0 <close@plt>
6e33:	bb ff ff ff ff       	mov    ebx,0xffffffff
6e38:	44 89 65 00          	mov    DWORD PTR [rbp+0x0],r12d
6e3c:	e9 cf fe ff ff       	jmp    6d10 <rpl_fcntl+0xe0>
6e41:	0f 1f 80 00 00 00 00 	nop    DWORD PTR [rax+0x0]
6e48:	e8 23 a8 ff ff       	call   1670 <__errno_location@plt>
6e4d:	83 38 16             	cmp    DWORD PTR [rax],0x16
6e50:	0f 85 69 fe ff ff    	jne    6cbf <rpl_fcntl+0x8f>
6e56:	31 f6                	xor    esi,esi
6e58:	31 c0                	xor    eax,eax
6e5a:	44 89 e2             	mov    edx,r12d
6e5d:	89 ef                	mov    edi,ebp
6e5f:	e8 4c a8 ff ff       	call   16b0 <fcntl@plt>
6e64:	85 c0                	test   eax,eax
6e66:	89 c3                	mov    ebx,eax
6e68:	0f 88 a2 fe ff ff    	js     6d10 <rpl_fcntl+0xe0>
6e6e:	c7 05 c0 44 20 00 ff 	mov    DWORD PTR [rip+0x2044c0],0xffffffff        # 20b338 <have_dupfd_cloexec.3326>
6e75:	ff ff ff
6e78:	e9 76 ff ff ff       	jmp    6df3 <rpl_fcntl+0x1c3>
6e7d:	e8 9e a8 ff ff       	call   1720 <__stack_chk_fail@plt>
6e82:	48 8b 44 24 10       	mov    rax,QWORD PTR [rsp+0x10]
6e87:	31 f6                	xor    esi,esi
6e89:	8b 50 10             	mov    edx,DWORD PTR [rax+0x10]
6e8c:	31 c0                	xor    eax,eax
6e8e:	e8 1d a8 ff ff       	call   16b0 <fcntl@plt>
6e93:	89 c3                	mov    ebx,eax
6e95:	e9 76 fe ff ff       	jmp    6d10 <rpl_fcntl+0xe0>
6e9a:	48 8b 44 24 08       	mov    rax,QWORD PTR [rsp+0x8]
6e9f:	e9 c5 fe ff ff       	jmp    6d69 <rpl_fcntl+0x139>
6ea4:	48 8b 44 24 08       	mov    rax,QWORD PTR [rsp+0x8]
6ea9:	e9 13 ff ff ff       	jmp    6dc1 <rpl_fcntl+0x191>
6eae:	66 90                	xchg   ax,ax

0000000000006eb0 <rpl_fflush>:
6eb0:	48 85 ff             	test   rdi,rdi
6eb3:	53                   	push   rbx
6eb4:	48 89 fb             	mov    rbx,rdi
6eb7:	74 11                	je     6eca <rpl_fflush+0x1a>
6eb9:	e8 d2 a9 ff ff       	call   1890 <__freading@plt>
6ebe:	85 c0                	test   eax,eax
6ec0:	74 08                	je     6eca <rpl_fflush+0x1a>
6ec2:	f7 03 00 01 00 00    	test   DWORD PTR [rbx],0x100
6ec8:	75 0e                	jne    6ed8 <rpl_fflush+0x28>
6eca:	48 89 df             	mov    rdi,rbx
6ecd:	5b                   	pop    rbx
6ece:	e9 7d a9 ff ff       	jmp    1850 <fflush@plt>
6ed3:	0f 1f 44 00 00       	nop    DWORD PTR [rax+rax*1+0x0]
6ed8:	48 89 df             	mov    rdi,rbx
6edb:	ba 01 00 00 00       	mov    edx,0x1
6ee0:	31 f6                	xor    esi,esi
6ee2:	e8 09 00 00 00       	call   6ef0 <rpl_fseeko>
6ee7:	48 89 df             	mov    rdi,rbx
6eea:	5b                   	pop    rbx
6eeb:	e9 60 a9 ff ff       	jmp    1850 <fflush@plt>

0000000000006ef0 <rpl_fseeko>:
6ef0:	48 8b 47 08          	mov    rax,QWORD PTR [rdi+0x8]
6ef4:	48 39 47 10          	cmp    QWORD PTR [rdi+0x10],rax
6ef8:	74 06                	je     6f00 <rpl_fseeko+0x10>
6efa:	e9 01 aa ff ff       	jmp    1900 <fseeko@plt>
6eff:	90                   	nop
6f00:	48 8b 47 20          	mov    rax,QWORD PTR [rdi+0x20]
6f04:	48 39 47 28          	cmp    QWORD PTR [rdi+0x28],rax
6f08:	75 f0                	jne    6efa <rpl_fseeko+0xa>
6f0a:	48 83 7f 48 00       	cmp    QWORD PTR [rdi+0x48],0x0
6f0f:	75 e9                	jne    6efa <rpl_fseeko+0xa>
6f11:	41 54                	push   r12
6f13:	55                   	push   rbp
6f14:	41 89 d4             	mov    r12d,edx
6f17:	53                   	push   rbx
6f18:	48 89 f5             	mov    rbp,rsi
6f1b:	48 89 fb             	mov    rbx,rdi
6f1e:	e8 0d a9 ff ff       	call   1830 <fileno@plt>
6f23:	44 89 e2             	mov    edx,r12d
6f26:	48 89 ee             	mov    rsi,rbp
6f29:	89 c7                	mov    edi,eax
6f2b:	e8 50 a8 ff ff       	call   1780 <lseek@plt>
6f30:	48 83 f8 ff          	cmp    rax,0xffffffffffffffff
6f34:	74 0c                	je     6f42 <rpl_fseeko+0x52>
6f36:	83 23 ef             	and    DWORD PTR [rbx],0xffffffef
6f39:	48 89 83 90 00 00 00 	mov    QWORD PTR [rbx+0x90],rax
6f40:	31 c0                	xor    eax,eax
6f42:	5b                   	pop    rbx
6f43:	5d                   	pop    rbp
6f44:	41 5c                	pop    r12
6f46:	c3                   	ret
6f47:	66 0f 1f 84 00 00 00 	nop    WORD PTR [rax+rax*1+0x0]
6f4e:	00 00

0000000000006f50 <rpl_mbrtowc>:
6f50:	41 55                	push   r13
6f52:	41 54                	push   r12
6f54:	49 89 f5             	mov    r13,rsi
6f57:	55                   	push   rbp
6f58:	53                   	push   rbx
6f59:	48 89 fb             	mov    rbx,rdi
6f5c:	49 89 d4             	mov    r12,rdx
6f5f:	48 83 ec 18          	sub    rsp,0x18
6f63:	64 48 8b 04 25 28 00 	mov    rax,QWORD PTR fs:0x28
6f6a:	00 00
6f6c:	48 89 44 24 08       	mov    QWORD PTR [rsp+0x8],rax
6f71:	31 c0                	xor    eax,eax
6f73:	48 8d 44 24 04       	lea    rax,[rsp+0x4]
6f78:	48 85 ff             	test   rdi,rdi
6f7b:	48 0f 44 d8          	cmove  rbx,rax
6f7f:	48 89 df             	mov    rdi,rbx
6f82:	e8 b9 a7 ff ff       	call   1740 <mbrtowc@plt>
6f87:	48 83 f8 fd          	cmp    rax,0xfffffffffffffffd
6f8b:	48 89 c5             	mov    rbp,rax
6f8e:	76 20                	jbe    6fb0 <rpl_mbrtowc+0x60>
6f90:	4d 85 e4             	test   r12,r12
6f93:	74 1b                	je     6fb0 <rpl_mbrtowc+0x60>
6f95:	31 ff                	xor    edi,edi
6f97:	e8 b4 ce ff ff       	call   3e50 <hard_locale>
6f9c:	84 c0                	test   al,al
6f9e:	75 10                	jne    6fb0 <rpl_mbrtowc+0x60>
6fa0:	41 0f b6 45 00       	movzx  eax,BYTE PTR [r13+0x0]
6fa5:	bd 01 00 00 00       	mov    ebp,0x1
6faa:	89 03                	mov    DWORD PTR [rbx],eax
6fac:	0f 1f 40 00          	nop    DWORD PTR [rax+0x0]
6fb0:	48 8b 54 24 08       	mov    rdx,QWORD PTR [rsp+0x8]
6fb5:	64 48 33 14 25 28 00 	xor    rdx,QWORD PTR fs:0x28
6fbc:	00 00
6fbe:	48 89 e8             	mov    rax,rbp
6fc1:	75 0b                	jne    6fce <rpl_mbrtowc+0x7e>
6fc3:	48 83 c4 18          	add    rsp,0x18
6fc7:	5b                   	pop    rbx
6fc8:	5d                   	pop    rbp
6fc9:	41 5c                	pop    r12
6fcb:	41 5d                	pop    r13
6fcd:	c3                   	ret
6fce:	e8 4d a7 ff ff       	call   1720 <__stack_chk_fail@plt>
6fd3:	66 2e 0f 1f 84 00 00 	nop    WORD PTR cs:[rax+rax*1+0x0]
6fda:	00 00 00
6fdd:	0f 1f 00             	nop    DWORD PTR [rax]

0000000000006fe0 <close_stream>:
6fe0:	41 54                	push   r12
6fe2:	55                   	push   rbp
6fe3:	48 89 fd             	mov    rbp,rdi
6fe6:	53                   	push   rbx
6fe7:	e8 b4 a6 ff ff       	call   16a0 <__fpending@plt>
6fec:	8b 5d 00             	mov    ebx,DWORD PTR [rbp+0x0]
6fef:	48 89 ef             	mov    rdi,rbp
6ff2:	49 89 c4             	mov    r12,rax
6ff5:	e8 b6 fb ff ff       	call   6bb0 <rpl_fclose>
6ffa:	83 e3 20             	and    ebx,0x20
6ffd:	85 db                	test   ebx,ebx
6fff:	75 17                	jne    7018 <close_stream+0x38>
7001:	85 c0                	test   eax,eax
7003:	74 0a                	je     700f <close_stream+0x2f>
7005:	4d 85 e4             	test   r12,r12
7008:	b8 ff ff ff ff       	mov    eax,0xffffffff
700d:	74 39                	je     7048 <close_stream+0x68>
700f:	5b                   	pop    rbx
7010:	5d                   	pop    rbp
7011:	41 5c                	pop    r12
7013:	c3                   	ret
7014:	0f 1f 40 00          	nop    DWORD PTR [rax+0x0]
7018:	85 c0                	test   eax,eax
701a:	75 1c                	jne    7038 <close_stream+0x58>
701c:	e8 4f a6 ff ff       	call   1670 <__errno_location@plt>
7021:	c7 00 00 00 00 00    	mov    DWORD PTR [rax],0x0
7027:	b8 ff ff ff ff       	mov    eax,0xffffffff
702c:	5b                   	pop    rbx
702d:	5d                   	pop    rbp
702e:	41 5c                	pop    r12
7030:	c3                   	ret
7031:	0f 1f 80 00 00 00 00 	nop    DWORD PTR [rax+0x0]
7038:	5b                   	pop    rbx
7039:	b8 ff ff ff ff       	mov    eax,0xffffffff
703e:	5d                   	pop    rbp
703f:	41 5c                	pop    r12
7041:	c3                   	ret
7042:	66 0f 1f 44 00 00    	nop    WORD PTR [rax+rax*1+0x0]
7048:	e8 23 a6 ff ff       	call   1670 <__errno_location@plt>
704d:	83 38 09             	cmp    DWORD PTR [rax],0x9
7050:	5b                   	pop    rbx
7051:	5d                   	pop    rbp
7052:	41 5c                	pop    r12
7054:	0f 95 c0             	setne  al
7057:	0f b6 c0             	movzx  eax,al
705a:	f7 d8                	neg    eax
705c:	c3                   	ret
705d:	0f 1f 00             	nop    DWORD PTR [rax]

0000000000007060 <locale_charset>:
7060:	48 83 ec 08          	sub    rsp,0x8
7064:	bf 0e 00 00 00       	mov    edi,0xe
7069:	e8 f2 a7 ff ff       	call   1860 <nl_langinfo@plt>
706e:	48 85 c0             	test   rax,rax
7071:	74 1d                	je     7090 <locale_charset+0x30>
7073:	80 38 00             	cmp    BYTE PTR [rax],0x0
7076:	48 8d 15 24 19 00 00 	lea    rdx,[rip+0x1924]        # 89a1 <__PRETTY_FUNCTION__.4162+0x9>
707d:	48 0f 44 c2          	cmove  rax,rdx
7081:	48 83 c4 08          	add    rsp,0x8
7085:	c3                   	ret
7086:	66 2e 0f 1f 84 00 00 	nop    WORD PTR cs:[rax+rax*1+0x0]
708d:	00 00 00
7090:	48 8d 05 0a 19 00 00 	lea    rax,[rip+0x190a]        # 89a1 <__PRETTY_FUNCTION__.4162+0x9>
7097:	48 83 c4 08          	add    rsp,0x8
709b:	c3                   	ret
709c:	0f 1f 40 00          	nop    DWORD PTR [rax+0x0]

00000000000070a0 <strcoll_loop>:
70a0:	41 57                	push   r15
70a2:	41 56                	push   r14
70a4:	49 89 ce             	mov    r14,rcx
70a7:	41 55                	push   r13
70a9:	41 54                	push   r12
70ab:	49 89 f5             	mov    r13,rsi
70ae:	55                   	push   rbp
70af:	53                   	push   rbx
70b0:	49 89 fc             	mov    r12,rdi
70b3:	48 89 d5             	mov    rbp,rdx
70b6:	48 83 ec 08          	sub    rsp,0x8
70ba:	e8 b1 a5 ff ff       	call   1670 <__errno_location@plt>
70bf:	49 89 c7             	mov    r15,rax
70c2:	eb 2f                	jmp    70f3 <strcoll_loop+0x53>
70c4:	0f 1f 40 00          	nop    DWORD PTR [rax+0x0]
70c8:	4c 89 e7             	mov    rdi,r12
70cb:	e8 40 a6 ff ff       	call   1710 <strlen@plt>
70d0:	48 89 ef             	mov    rdi,rbp
70d3:	48 8d 58 01          	lea    rbx,[rax+0x1]
70d7:	e8 34 a6 ff ff       	call   1710 <strlen@plt>
70dc:	48 83 c0 01          	add    rax,0x1
70e0:	49 01 dc             	add    r12,rbx
70e3:	48 01 c5             	add    rbp,rax
70e6:	49 29 c6             	sub    r14,rax
70e9:	49 29 dd             	sub    r13,rbx
70ec:	74 32                	je     7120 <strcoll_loop+0x80>
70ee:	4d 85 f6             	test   r14,r14
70f1:	74 4d                	je     7140 <strcoll_loop+0xa0>
70f3:	41 c7 07 00 00 00 00 	mov    DWORD PTR [r15],0x0
70fa:	48 89 ee             	mov    rsi,rbp
70fd:	4c 89 e7             	mov    rdi,r12
7100:	e8 6b a7 ff ff       	call   1870 <strcoll@plt>
7105:	85 c0                	test   eax,eax
7107:	74 bf                	je     70c8 <strcoll_loop+0x28>
7109:	48 83 c4 08          	add    rsp,0x8
710d:	5b                   	pop    rbx
710e:	5d                   	pop    rbp
710f:	41 5c                	pop    r12
7111:	41 5d                	pop    r13
7113:	41 5e                	pop    r14
7115:	41 5f                	pop    r15
7117:	c3                   	ret
7118:	0f 1f 84 00 00 00 00 	nop    DWORD PTR [rax+rax*1+0x0]
711f:	00
7120:	31 c0                	xor    eax,eax
7122:	4d 85 f6             	test   r14,r14
7125:	0f 95 c0             	setne  al
7128:	48 83 c4 08          	add    rsp,0x8
712c:	5b                   	pop    rbx
712d:	f7 d8                	neg    eax
712f:	5d                   	pop    rbp
7130:	41 5c                	pop    r12
7132:	41 5d                	pop    r13
7134:	41 5e                	pop    r14
7136:	41 5f                	pop    r15
7138:	c3                   	ret
7139:	0f 1f 80 00 00 00 00 	nop    DWORD PTR [rax+0x0]
7140:	48 83 c4 08          	add    rsp,0x8
7144:	b8 01 00 00 00       	mov    eax,0x1
7149:	5b                   	pop    rbx
714a:	5d                   	pop    rbp
714b:	41 5c                	pop    r12
714d:	41 5d                	pop    r13
714f:	41 5e                	pop    r14
7151:	41 5f                	pop    r15
7153:	c3                   	ret
7154:	66 90                	xchg   ax,ax
7156:	66 2e 0f 1f 84 00 00 	nop    WORD PTR cs:[rax+rax*1+0x0]
715d:	00 00 00

0000000000007160 <memcoll>:
7160:	41 57                	push   r15
7162:	41 56                	push   r14
7164:	49 89 d7             	mov    r15,rdx
7167:	41 55                	push   r13
7169:	41 54                	push   r12
716b:	49 89 fe             	mov    r14,rdi
716e:	55                   	push   rbp
716f:	53                   	push   rbx
7170:	48 89 cd             	mov    rbp,rcx
7173:	48 89 f3             	mov    rbx,rsi
7176:	48 83 ec 18          	sub    rsp,0x18
717a:	48 39 ce             	cmp    rsi,rcx
717d:	75 13                	jne    7192 <memcoll+0x32>
717f:	48 89 f2             	mov    rdx,rsi
7182:	4c 89 fe             	mov    rsi,r15
7185:	e8 56 a6 ff ff       	call   17e0 <memcmp@plt>
718a:	85 c0                	test   eax,eax
718c:	89 44 24 08          	mov    DWORD PTR [rsp+0x8],eax
7190:	74 66                	je     71f8 <memcoll+0x98>
7192:	4d 8d 2c 1e          	lea    r13,[r14+rbx*1]
7196:	4d 8d 24 2f          	lea    r12,[r15+rbp*1]
719a:	48 8d 4d 01          	lea    rcx,[rbp+0x1]
719e:	48 8d 73 01          	lea    rsi,[rbx+0x1]
71a2:	4c 89 fa             	mov    rdx,r15
71a5:	4c 89 f7             	mov    rdi,r14
71a8:	45 0f b6 4d 00       	movzx  r9d,BYTE PTR [r13+0x0]
71ad:	45 0f b6 04 24       	movzx  r8d,BYTE PTR [r12]
71b2:	41 c6 45 00 00       	mov    BYTE PTR [r13+0x0],0x0
71b7:	41 c6 04 24 00       	mov    BYTE PTR [r12],0x0
71bc:	44 88 4c 24 0f       	mov    BYTE PTR [rsp+0xf],r9b
71c1:	44 88 44 24 08       	mov    BYTE PTR [rsp+0x8],r8b
71c6:	e8 d5 fe ff ff       	call   70a0 <strcoll_loop>
71cb:	44 0f b6 4c 24 0f    	movzx  r9d,BYTE PTR [rsp+0xf]
71d1:	44 0f b6 44 24 08    	movzx  r8d,BYTE PTR [rsp+0x8]
71d7:	89 c2                	mov    edx,eax
71d9:	45 88 4d 00          	mov    BYTE PTR [r13+0x0],r9b
71dd:	45 88 04 24          	mov    BYTE PTR [r12],r8b
71e1:	48 83 c4 18          	add    rsp,0x18
71e5:	89 d0                	mov    eax,edx
71e7:	5b                   	pop    rbx
71e8:	5d                   	pop    rbp
71e9:	41 5c                	pop    r12
71eb:	41 5d                	pop    r13
71ed:	41 5e                	pop    r14
71ef:	41 5f                	pop    r15
71f1:	c3                   	ret
71f2:	66 0f 1f 44 00 00    	nop    WORD PTR [rax+rax*1+0x0]
71f8:	e8 73 a4 ff ff       	call   1670 <__errno_location@plt>
71fd:	8b 54 24 08          	mov    edx,DWORD PTR [rsp+0x8]
7201:	c7 00 00 00 00 00    	mov    DWORD PTR [rax],0x0
7207:	eb d8                	jmp    71e1 <memcoll+0x81>
7209:	0f 1f 80 00 00 00 00 	nop    DWORD PTR [rax+0x0]

0000000000007210 <memcoll0>:
7210:	41 54                	push   r12
7212:	55                   	push   rbp
7213:	49 89 d4             	mov    r12,rdx
7216:	53                   	push   rbx
7217:	48 89 fd             	mov    rbp,rdi
721a:	48 89 f3             	mov    rbx,rsi
721d:	48 83 ec 10          	sub    rsp,0x10
7221:	48 39 ce             	cmp    rsi,rcx
7224:	75 19                	jne    723f <memcoll0+0x2f>
7226:	48 89 f2             	mov    rdx,rsi
7229:	4c 89 e6             	mov    rsi,r12
722c:	48 89 4c 24 08       	mov    QWORD PTR [rsp+0x8],rcx
7231:	e8 aa a5 ff ff       	call   17e0 <memcmp@plt>
7236:	85 c0                	test   eax,eax
7238:	48 8b 4c 24 08       	mov    rcx,QWORD PTR [rsp+0x8]
723d:	74 19                	je     7258 <memcoll0+0x48>
723f:	48 83 c4 10          	add    rsp,0x10
7243:	4c 89 e2             	mov    rdx,r12
7246:	48 89 de             	mov    rsi,rbx
7249:	48 89 ef             	mov    rdi,rbp
724c:	5b                   	pop    rbx
724d:	5d                   	pop    rbp
724e:	41 5c                	pop    r12
7250:	e9 4b fe ff ff       	jmp    70a0 <strcoll_loop>
7255:	0f 1f 00             	nop    DWORD PTR [rax]
7258:	e8 13 a4 ff ff       	call   1670 <__errno_location@plt>
725d:	c7 00 00 00 00 00    	mov    DWORD PTR [rax],0x0
7263:	48 83 c4 10          	add    rsp,0x10
7267:	31 c0                	xor    eax,eax
7269:	5b                   	pop    rbx
726a:	5d                   	pop    rbp
726b:	41 5c                	pop    r12
726d:	c3                   	ret
726e:	66 90                	xchg   ax,ax

0000000000007270 <__libc_csu_init>:
7270:	41 57                	push   r15
7272:	41 56                	push   r14
7274:	49 89 d7             	mov    r15,rdx
7277:	41 55                	push   r13
7279:	41 54                	push   r12
727b:	4c 8d 25 2e 38 20 00 	lea    r12,[rip+0x20382e]        # 20aab0 <__frame_dummy_init_array_entry>
7282:	55                   	push   rbp
7283:	48 8d 2d 2e 38 20 00 	lea    rbp,[rip+0x20382e]        # 20aab8 <__init_array_end>
728a:	53                   	push   rbx
728b:	41 89 fd             	mov    r13d,edi
728e:	49 89 f6             	mov    r14,rsi
7291:	4c 29 e5             	sub    rbp,r12
7294:	48 83 ec 08          	sub    rsp,0x8
7298:	48 c1 fd 03          	sar    rbp,0x3
729c:	e8 5f a3 ff ff       	call   1600 <_init>
72a1:	48 85 ed             	test   rbp,rbp
72a4:	74 20                	je     72c6 <__libc_csu_init+0x56>
72a6:	31 db                	xor    ebx,ebx
72a8:	0f 1f 84 00 00 00 00 	nop    DWORD PTR [rax+rax*1+0x0]
72af:	00
72b0:	4c 89 fa             	mov    rdx,r15
72b3:	4c 89 f6             	mov    rsi,r14
72b6:	44 89 ef             	mov    edi,r13d
72b9:	41 ff 14 dc          	call   QWORD PTR [r12+rbx*8]
72bd:	48 83 c3 01          	add    rbx,0x1
72c1:	48 39 dd             	cmp    rbp,rbx
72c4:	75 ea                	jne    72b0 <__libc_csu_init+0x40>
72c6:	48 83 c4 08          	add    rsp,0x8
72ca:	5b                   	pop    rbx
72cb:	5d                   	pop    rbp
72cc:	41 5c                	pop    r12
72ce:	41 5d                	pop    r13
72d0:	41 5e                	pop    r14
72d2:	41 5f                	pop    r15
72d4:	c3                   	ret
72d5:	90                   	nop
72d6:	66 2e 0f 1f 84 00 00 	nop    WORD PTR cs:[rax+rax*1+0x0]
72dd:	00 00 00

00000000000072e0 <__libc_csu_fini>:
72e0:	f3 c3                	repz ret
72e2:	66 2e 0f 1f 84 00 00 	nop    WORD PTR cs:[rax+rax*1+0x0]
72e9:	00 00 00
72ec:	0f 1f 40 00          	nop    DWORD PTR [rax+0x0]

00000000000072f0 <atexit>:
72f0:	48 8b 15 11 3d 20 00 	mov    rdx,QWORD PTR [rip+0x203d11]        # 20b008 <__dso_handle>
72f7:	31 f6                	xor    esi,esi
72f9:	e9 32 a6 ff ff       	jmp    1930 <__cxa_atexit@plt>

Disassembly of section .fini:

0000000000007300 <_fini>:
7300:	48 83 ec 08          	sub    rsp,0x8
7304:	48 83 c4 08          	add    rsp,0x8
7308:	c3                   	ret
