


Disassembly of section .init:

00000000000016e0 <_init>:
16e0:	48 83 ec 08          	sub    rsp,0x8
16e4:	48 8b 05 ed a8 20 00 	mov    rax,QWORD PTR [rip+0x20a8ed]        # 20bfd8 <__gmon_start__>
16eb:	48 85 c0             	test   rax,rax
16ee:	74 02                	je     16f2 <_init+0x12>
16f0:	ff d0                	call   rax
16f2:	48 83 c4 08          	add    rsp,0x8
16f6:	c3                   	ret

Disassembly of section .plt:

0000000000001700 <.plt>:
1700:	ff 35 ca a6 20 00    	push   QWORD PTR [rip+0x20a6ca]        # 20bdd0 <_GLOBAL_OFFSET_TABLE_+0x8>
1706:	ff 25 cc a6 20 00    	jmp    QWORD PTR [rip+0x20a6cc]        # 20bdd8 <_GLOBAL_OFFSET_TABLE_+0x10>
170c:	0f 1f 40 00          	nop    DWORD PTR [rax+0x0]

0000000000001710 <__snprintf_chk@plt>:
1710:	ff 25 ca a6 20 00    	jmp    QWORD PTR [rip+0x20a6ca]        # 20bde0 <__snprintf_chk@GLIBC_2.3.4>
1716:	68 00 00 00 00       	push   0x0
171b:	e9 e0 ff ff ff       	jmp    1700 <.plt>

0000000000001720 <raise@plt>:
1720:	ff 25 c2 a6 20 00    	jmp    QWORD PTR [rip+0x20a6c2]        # 20bde8 <raise@GLIBC_2.2.5>
1726:	68 01 00 00 00       	push   0x1
172b:	e9 d0 ff ff ff       	jmp    1700 <.plt>

0000000000001730 <free@plt>:
1730:	ff 25 ba a6 20 00    	jmp    QWORD PTR [rip+0x20a6ba]        # 20bdf0 <free@GLIBC_2.2.5>
1736:	68 02 00 00 00       	push   0x2
173b:	e9 c0 ff ff ff       	jmp    1700 <.plt>

0000000000001740 <abort@plt>:
1740:	ff 25 b2 a6 20 00    	jmp    QWORD PTR [rip+0x20a6b2]        # 20bdf8 <abort@GLIBC_2.2.5>
1746:	68 03 00 00 00       	push   0x3
174b:	e9 b0 ff ff ff       	jmp    1700 <.plt>

0000000000001750 <__errno_location@plt>:
1750:	ff 25 aa a6 20 00    	jmp    QWORD PTR [rip+0x20a6aa]        # 20be00 <__errno_location@GLIBC_2.2.5>
1756:	68 04 00 00 00       	push   0x4
175b:	e9 a0 ff ff ff       	jmp    1700 <.plt>

0000000000001760 <strncmp@plt>:
1760:	ff 25 a2 a6 20 00    	jmp    QWORD PTR [rip+0x20a6a2]        # 20be08 <strncmp@GLIBC_2.2.5>
1766:	68 05 00 00 00       	push   0x5
176b:	e9 90 ff ff ff       	jmp    1700 <.plt>

0000000000001770 <_exit@plt>:
1770:	ff 25 9a a6 20 00    	jmp    QWORD PTR [rip+0x20a69a]        # 20be10 <_exit@GLIBC_2.2.5>
1776:	68 06 00 00 00       	push   0x6
177b:	e9 80 ff ff ff       	jmp    1700 <.plt>

0000000000001780 <__fpending@plt>:
1780:	ff 25 92 a6 20 00    	jmp    QWORD PTR [rip+0x20a692]        # 20be18 <__fpending@GLIBC_2.2.5>
1786:	68 07 00 00 00       	push   0x7
178b:	e9 70 ff ff ff       	jmp    1700 <.plt>

0000000000001790 <mkdir@plt>:
1790:	ff 25 8a a6 20 00    	jmp    QWORD PTR [rip+0x20a68a]        # 20be20 <mkdir@GLIBC_2.2.5>
1796:	68 08 00 00 00       	push   0x8
179b:	e9 60 ff ff ff       	jmp    1700 <.plt>

00000000000017a0 <fcntl@plt>:
17a0:	ff 25 82 a6 20 00    	jmp    QWORD PTR [rip+0x20a682]        # 20be28 <fcntl@GLIBC_2.2.5>
17a6:	68 09 00 00 00       	push   0x9
17ab:	e9 50 ff ff ff       	jmp    1700 <.plt>

00000000000017b0 <textdomain@plt>:
17b0:	ff 25 7a a6 20 00    	jmp    QWORD PTR [rip+0x20a67a]        # 20be30 <textdomain@GLIBC_2.2.5>
17b6:	68 0a 00 00 00       	push   0xa
17bb:	e9 40 ff ff ff       	jmp    1700 <.plt>

00000000000017c0 <__open_2@plt>:
17c0:	ff 25 72 a6 20 00    	jmp    QWORD PTR [rip+0x20a672]        # 20be38 <__open_2@GLIBC_2.7>
17c6:	68 0b 00 00 00       	push   0xb
17cb:	e9 30 ff ff ff       	jmp    1700 <.plt>

00000000000017d0 <fclose@plt>:
17d0:	ff 25 6a a6 20 00    	jmp    QWORD PTR [rip+0x20a66a]        # 20be40 <fclose@GLIBC_2.2.5>
17d6:	68 0c 00 00 00       	push   0xc
17db:	e9 20 ff ff ff       	jmp    1700 <.plt>

00000000000017e0 <bindtextdomain@plt>:
17e0:	ff 25 62 a6 20 00    	jmp    QWORD PTR [rip+0x20a662]        # 20be48 <bindtextdomain@GLIBC_2.2.5>
17e6:	68 0d 00 00 00       	push   0xd
17eb:	e9 10 ff ff ff       	jmp    1700 <.plt>

00000000000017f0 <dcgettext@plt>:
17f0:	ff 25 5a a6 20 00    	jmp    QWORD PTR [rip+0x20a65a]        # 20be50 <dcgettext@GLIBC_2.2.5>
17f6:	68 0e 00 00 00       	push   0xe
17fb:	e9 00 ff ff ff       	jmp    1700 <.plt>

0000000000001800 <__ctype_get_mb_cur_max@plt>:
1800:	ff 25 52 a6 20 00    	jmp    QWORD PTR [rip+0x20a652]        # 20be58 <__ctype_get_mb_cur_max@GLIBC_2.2.5>
1806:	68 0f 00 00 00       	push   0xf
180b:	e9 f0 fe ff ff       	jmp    1700 <.plt>

0000000000001810 <strlen@plt>:
1810:	ff 25 4a a6 20 00    	jmp    QWORD PTR [rip+0x20a64a]        # 20be60 <strlen@GLIBC_2.2.5>
1816:	68 10 00 00 00       	push   0x10
181b:	e9 e0 fe ff ff       	jmp    1700 <.plt>

0000000000001820 <chdir@plt>:
1820:	ff 25 42 a6 20 00    	jmp    QWORD PTR [rip+0x20a642]        # 20be68 <chdir@GLIBC_2.2.5>
1826:	68 11 00 00 00       	push   0x11
182b:	e9 d0 fe ff ff       	jmp    1700 <.plt>

0000000000001830 <__stack_chk_fail@plt>:
1830:	ff 25 3a a6 20 00    	jmp    QWORD PTR [rip+0x20a63a]        # 20be70 <__stack_chk_fail@GLIBC_2.4>
1836:	68 12 00 00 00       	push   0x12
183b:	e9 c0 fe ff ff       	jmp    1700 <.plt>

0000000000001840 <getopt_long@plt>:
1840:	ff 25 32 a6 20 00    	jmp    QWORD PTR [rip+0x20a632]        # 20be78 <getopt_long@GLIBC_2.2.5>
1846:	68 13 00 00 00       	push   0x13
184b:	e9 b0 fe ff ff       	jmp    1700 <.plt>

0000000000001850 <mbrtowc@plt>:
1850:	ff 25 2a a6 20 00    	jmp    QWORD PTR [rip+0x20a62a]        # 20be80 <mbrtowc@GLIBC_2.2.5>
1856:	68 14 00 00 00       	push   0x14
185b:	e9 a0 fe ff ff       	jmp    1700 <.plt>

0000000000001860 <__overflow@plt>:
1860:	ff 25 22 a6 20 00    	jmp    QWORD PTR [rip+0x20a622]        # 20be88 <__overflow@GLIBC_2.2.5>
1866:	68 15 00 00 00       	push   0x15
186b:	e9 90 fe ff ff       	jmp    1700 <.plt>

0000000000001870 <strrchr@plt>:
1870:	ff 25 1a a6 20 00    	jmp    QWORD PTR [rip+0x20a61a]        # 20be90 <strrchr@GLIBC_2.2.5>
1876:	68 16 00 00 00       	push   0x16
187b:	e9 80 fe ff ff       	jmp    1700 <.plt>

0000000000001880 <lseek@plt>:
1880:	ff 25 12 a6 20 00    	jmp    QWORD PTR [rip+0x20a612]        # 20be98 <lseek@GLIBC_2.2.5>
1886:	68 17 00 00 00       	push   0x17
188b:	e9 70 fe ff ff       	jmp    1700 <.plt>

0000000000001890 <__assert_fail@plt>:
1890:	ff 25 0a a6 20 00    	jmp    QWORD PTR [rip+0x20a60a]        # 20bea0 <__assert_fail@GLIBC_2.2.5>
1896:	68 18 00 00 00       	push   0x18
189b:	e9 60 fe ff ff       	jmp    1700 <.plt>

00000000000018a0 <memset@plt>:
18a0:	ff 25 02 a6 20 00    	jmp    QWORD PTR [rip+0x20a602]        # 20bea8 <memset@GLIBC_2.2.5>
18a6:	68 19 00 00 00       	push   0x19
18ab:	e9 50 fe ff ff       	jmp    1700 <.plt>

00000000000018b0 <close@plt>:
18b0:	ff 25 fa a5 20 00    	jmp    QWORD PTR [rip+0x20a5fa]        # 20beb0 <close@GLIBC_2.2.5>
18b6:	68 1a 00 00 00       	push   0x1a
18bb:	e9 40 fe ff ff       	jmp    1700 <.plt>

00000000000018c0 <memcmp@plt>:
18c0:	ff 25 f2 a5 20 00    	jmp    QWORD PTR [rip+0x20a5f2]        # 20beb8 <memcmp@GLIBC_2.2.5>
18c6:	68 1b 00 00 00       	push   0x1b
18cb:	e9 30 fe ff ff       	jmp    1700 <.plt>

00000000000018d0 <fputs_unlocked@plt>:
18d0:	ff 25 ea a5 20 00    	jmp    QWORD PTR [rip+0x20a5ea]        # 20bec0 <fputs_unlocked@GLIBC_2.2.5>
18d6:	68 1c 00 00 00       	push   0x1c
18db:	e9 20 fe ff ff       	jmp    1700 <.plt>

00000000000018e0 <calloc@plt>:
18e0:	ff 25 e2 a5 20 00    	jmp    QWORD PTR [rip+0x20a5e2]        # 20bec8 <calloc@GLIBC_2.2.5>
18e6:	68 1d 00 00 00       	push   0x1d
18eb:	e9 10 fe ff ff       	jmp    1700 <.plt>

00000000000018f0 <umask@plt>:
18f0:	ff 25 da a5 20 00    	jmp    QWORD PTR [rip+0x20a5da]        # 20bed0 <umask@GLIBC_2.2.5>
18f6:	68 1e 00 00 00       	push   0x1e
18fb:	e9 00 fe ff ff       	jmp    1700 <.plt>

0000000000001900 <memcpy@plt>:
1900:	ff 25 d2 a5 20 00    	jmp    QWORD PTR [rip+0x20a5d2]        # 20bed8 <memcpy@GLIBC_2.14>
1906:	68 1f 00 00 00       	push   0x1f
190b:	e9 f0 fd ff ff       	jmp    1700 <.plt>

0000000000001910 <fileno@plt>:
1910:	ff 25 ca a5 20 00    	jmp    QWORD PTR [rip+0x20a5ca]        # 20bee0 <fileno@GLIBC_2.2.5>
1916:	68 20 00 00 00       	push   0x20
191b:	e9 e0 fd ff ff       	jmp    1700 <.plt>

0000000000001920 <__xstat@plt>:
1920:	ff 25 c2 a5 20 00    	jmp    QWORD PTR [rip+0x20a5c2]        # 20bee8 <__xstat@GLIBC_2.2.5>
1926:	68 21 00 00 00       	push   0x21
192b:	e9 d0 fd ff ff       	jmp    1700 <.plt>

0000000000001930 <malloc@plt>:
1930:	ff 25 ba a5 20 00    	jmp    QWORD PTR [rip+0x20a5ba]        # 20bef0 <malloc@GLIBC_2.2.5>
1936:	68 22 00 00 00       	push   0x22
193b:	e9 c0 fd ff ff       	jmp    1700 <.plt>

0000000000001940 <fflush@plt>:
1940:	ff 25 b2 a5 20 00    	jmp    QWORD PTR [rip+0x20a5b2]        # 20bef8 <fflush@GLIBC_2.2.5>
1946:	68 23 00 00 00       	push   0x23
194b:	e9 b0 fd ff ff       	jmp    1700 <.plt>

0000000000001950 <nl_langinfo@plt>:
1950:	ff 25 aa a5 20 00    	jmp    QWORD PTR [rip+0x20a5aa]        # 20bf00 <nl_langinfo@GLIBC_2.2.5>
1956:	68 24 00 00 00       	push   0x24
195b:	e9 a0 fd ff ff       	jmp    1700 <.plt>

0000000000001960 <__fxstat@plt>:
1960:	ff 25 a2 a5 20 00    	jmp    QWORD PTR [rip+0x20a5a2]        # 20bf08 <__fxstat@GLIBC_2.2.5>
1966:	68 25 00 00 00       	push   0x25
196b:	e9 90 fd ff ff       	jmp    1700 <.plt>

0000000000001970 <lchown@plt>:
1970:	ff 25 9a a5 20 00    	jmp    QWORD PTR [rip+0x20a59a]        # 20bf10 <lchown@GLIBC_2.2.5>
1976:	68 26 00 00 00       	push   0x26
197b:	e9 80 fd ff ff       	jmp    1700 <.plt>

0000000000001980 <__freading@plt>:
1980:	ff 25 92 a5 20 00    	jmp    QWORD PTR [rip+0x20a592]        # 20bf18 <__freading@GLIBC_2.2.5>
1986:	68 27 00 00 00       	push   0x27
198b:	e9 70 fd ff ff       	jmp    1700 <.plt>

0000000000001990 <fchdir@plt>:
1990:	ff 25 8a a5 20 00    	jmp    QWORD PTR [rip+0x20a58a]        # 20bf20 <fchdir@GLIBC_2.2.5>
1996:	68 28 00 00 00       	push   0x28
199b:	e9 60 fd ff ff       	jmp    1700 <.plt>

00000000000019a0 <fwrite_unlocked@plt>:
19a0:	ff 25 82 a5 20 00    	jmp    QWORD PTR [rip+0x20a582]        # 20bf28 <fwrite_unlocked@GLIBC_2.2.5>
19a6:	68 29 00 00 00       	push   0x29
19ab:	e9 50 fd ff ff       	jmp    1700 <.plt>

00000000000019b0 <chown@plt>:
19b0:	ff 25 7a a5 20 00    	jmp    QWORD PTR [rip+0x20a57a]        # 20bf30 <chown@GLIBC_2.2.5>
19b6:	68 2a 00 00 00       	push   0x2a
19bb:	e9 40 fd ff ff       	jmp    1700 <.plt>

00000000000019c0 <realloc@plt>:
19c0:	ff 25 72 a5 20 00    	jmp    QWORD PTR [rip+0x20a572]        # 20bf38 <realloc@GLIBC_2.2.5>
19c6:	68 2b 00 00 00       	push   0x2b
19cb:	e9 30 fd ff ff       	jmp    1700 <.plt>

00000000000019d0 <setlocale@plt>:
19d0:	ff 25 6a a5 20 00    	jmp    QWORD PTR [rip+0x20a56a]        # 20bf40 <setlocale@GLIBC_2.2.5>
19d6:	68 2c 00 00 00       	push   0x2c
19db:	e9 20 fd ff ff       	jmp    1700 <.plt>

00000000000019e0 <__printf_chk@plt>:
19e0:	ff 25 62 a5 20 00    	jmp    QWORD PTR [rip+0x20a562]        # 20bf48 <__printf_chk@GLIBC_2.3.4>
19e6:	68 2d 00 00 00       	push   0x2d
19eb:	e9 10 fd ff ff       	jmp    1700 <.plt>

00000000000019f0 <fchmod@plt>:
19f0:	ff 25 5a a5 20 00    	jmp    QWORD PTR [rip+0x20a55a]        # 20bf50 <fchmod@GLIBC_2.2.5>
19f6:	68 2e 00 00 00       	push   0x2e
19fb:	e9 00 fd ff ff       	jmp    1700 <.plt>

0000000000001a00 <chmod@plt>:
1a00:	ff 25 52 a5 20 00    	jmp    QWORD PTR [rip+0x20a552]        # 20bf58 <chmod@GLIBC_2.2.5>
1a06:	68 2f 00 00 00       	push   0x2f
1a0b:	e9 f0 fc ff ff       	jmp    1700 <.plt>

0000000000001a10 <error@plt>:
1a10:	ff 25 4a a5 20 00    	jmp    QWORD PTR [rip+0x20a54a]        # 20bf60 <error@GLIBC_2.2.5>
1a16:	68 30 00 00 00       	push   0x30
1a1b:	e9 e0 fc ff ff       	jmp    1700 <.plt>

0000000000001a20 <waitpid@plt>:
1a20:	ff 25 42 a5 20 00    	jmp    QWORD PTR [rip+0x20a542]        # 20bf68 <waitpid@GLIBC_2.2.5>
1a26:	68 31 00 00 00       	push   0x31
1a2b:	e9 d0 fc ff ff       	jmp    1700 <.plt>

0000000000001a30 <open@plt>:
1a30:	ff 25 3a a5 20 00    	jmp    QWORD PTR [rip+0x20a53a]        # 20bf70 <open@GLIBC_2.2.5>
1a36:	68 32 00 00 00       	push   0x32
1a3b:	e9 c0 fc ff ff       	jmp    1700 <.plt>

0000000000001a40 <fseeko@plt>:
1a40:	ff 25 32 a5 20 00    	jmp    QWORD PTR [rip+0x20a532]        # 20bf78 <fseeko@GLIBC_2.2.5>
1a46:	68 33 00 00 00       	push   0x33
1a4b:	e9 b0 fc ff ff       	jmp    1700 <.plt>

0000000000001a50 <fchown@plt>:
1a50:	ff 25 2a a5 20 00    	jmp    QWORD PTR [rip+0x20a52a]        # 20bf80 <fchown@GLIBC_2.2.5>
1a56:	68 34 00 00 00       	push   0x34
1a5b:	e9 a0 fc ff ff       	jmp    1700 <.plt>

0000000000001a60 <__cxa_atexit@plt>:
1a60:	ff 25 22 a5 20 00    	jmp    QWORD PTR [rip+0x20a522]        # 20bf88 <__cxa_atexit@GLIBC_2.2.5>
1a66:	68 35 00 00 00       	push   0x35
1a6b:	e9 90 fc ff ff       	jmp    1700 <.plt>

0000000000001a70 <exit@plt>:
1a70:	ff 25 1a a5 20 00    	jmp    QWORD PTR [rip+0x20a51a]        # 20bf90 <exit@GLIBC_2.2.5>
1a76:	68 36 00 00 00       	push   0x36
1a7b:	e9 80 fc ff ff       	jmp    1700 <.plt>

0000000000001a80 <fwrite@plt>:
1a80:	ff 25 12 a5 20 00    	jmp    QWORD PTR [rip+0x20a512]        # 20bf98 <fwrite@GLIBC_2.2.5>
1a86:	68 37 00 00 00       	push   0x37
1a8b:	e9 70 fc ff ff       	jmp    1700 <.plt>

0000000000001a90 <__fprintf_chk@plt>:
1a90:	ff 25 0a a5 20 00    	jmp    QWORD PTR [rip+0x20a50a]        # 20bfa0 <__fprintf_chk@GLIBC_2.3.4>
1a96:	68 38 00 00 00       	push   0x38
1a9b:	e9 60 fc ff ff       	jmp    1700 <.plt>

0000000000001aa0 <mbsinit@plt>:
1aa0:	ff 25 02 a5 20 00    	jmp    QWORD PTR [rip+0x20a502]        # 20bfa8 <mbsinit@GLIBC_2.2.5>
1aa6:	68 39 00 00 00       	push   0x39
1aab:	e9 50 fc ff ff       	jmp    1700 <.plt>

0000000000001ab0 <iswprint@plt>:
1ab0:	ff 25 fa a4 20 00    	jmp    QWORD PTR [rip+0x20a4fa]        # 20bfb0 <iswprint@GLIBC_2.2.5>
1ab6:	68 3a 00 00 00       	push   0x3a
1abb:	e9 40 fc ff ff       	jmp    1700 <.plt>

0000000000001ac0 <fork@plt>:
1ac0:	ff 25 f2 a4 20 00    	jmp    QWORD PTR [rip+0x20a4f2]        # 20bfb8 <fork@GLIBC_2.2.5>
1ac6:	68 3b 00 00 00       	push   0x3b
1acb:	e9 30 fc ff ff       	jmp    1700 <.plt>

0000000000001ad0 <__ctype_b_loc@plt>:
1ad0:	ff 25 ea a4 20 00    	jmp    QWORD PTR [rip+0x20a4ea]        # 20bfc0 <__ctype_b_loc@GLIBC_2.3>
1ad6:	68 3c 00 00 00       	push   0x3c
1adb:	e9 20 fc ff ff       	jmp    1700 <.plt>

Disassembly of section .plt.got:

0000000000001ae0 <__cxa_finalize@plt>:
1ae0:	ff 25 02 a5 20 00    	jmp    QWORD PTR [rip+0x20a502]        # 20bfe8 <__cxa_finalize@GLIBC_2.2.5>
1ae6:	66 90                	xchg   ax,ax

Disassembly of section .text:

0000000000001af0 <main>:
1af0:	41 56                	push   r14
1af2:	41 55                	push   r13
1af4:	4c 8d 2d d5 04 00 00 	lea    r13,[rip+0x4d5]        # 1fd0 <make_ancestor>
1afb:	41 54                	push   r12
1afd:	55                   	push   rbp
1afe:	89 fd                	mov    ebp,edi
1b00:	53                   	push   rbx
1b01:	48 89 f3             	mov    rbx,rsi
1b04:	45 31 e4             	xor    r12d,r12d
1b07:	48 83 ec 30          	sub    rsp,0x30
1b0b:	48 8b 3e             	mov    rdi,QWORD PTR [rsi]
1b0e:	64 48 8b 04 25 28 00 	mov    rax,QWORD PTR fs:0x28
1b15:	00 00
1b17:	48 89 44 24 28       	mov    QWORD PTR [rsp+0x28],rax
1b1c:	31 c0                	xor    eax,eax
1b1e:	48 c7 04 24 00 00 00 	mov    QWORD PTR [rsp],0x0
1b25:	00
1b26:	48 c7 44 24 0c ff 01 	mov    QWORD PTR [rsp+0xc],0x1ff
1b2d:	00 00
1b2f:	48 c7 44 24 18 00 00 	mov    QWORD PTR [rsp+0x18],0x0
1b36:	00 00
1b38:	c6 44 24 14 00       	mov    BYTE PTR [rsp+0x14],0x0
1b3d:	e8 5e 14 00 00       	call   2fa0 <set_program_name>
1b42:	48 8d 35 bd 78 00 00 	lea    rsi,[rip+0x78bd]        # 9406 <__PRETTY_FUNCTION__.4461+0x66>
1b49:	bf 06 00 00 00       	mov    edi,0x6
1b4e:	e8 7d fe ff ff       	call   19d0 <setlocale@plt>
1b53:	48 8d 35 93 6c 00 00 	lea    rsi,[rip+0x6c93]        # 87ed <_IO_stdin_used+0xad>
1b5a:	48 8d 3d 63 6c 00 00 	lea    rdi,[rip+0x6c63]        # 87c4 <_IO_stdin_used+0x84>
1b61:	e8 7a fc ff ff       	call   17e0 <bindtextdomain@plt>
1b66:	48 8d 3d 57 6c 00 00 	lea    rdi,[rip+0x6c57]        # 87c4 <_IO_stdin_used+0x84>
1b6d:	e8 3e fc ff ff       	call   17b0 <textdomain@plt>
1b72:	48 8d 3d f7 09 00 00 	lea    rdi,[rip+0x9f7]        # 2570 <close_stdout>
1b79:	e8 92 6b 00 00       	call   8710 <atexit>
1b7e:	48 8d 0d 1b 9f 20 00 	lea    rcx,[rip+0x209f1b]        # 20baa0 <longopts>
1b85:	48 8d 15 9e 6c 00 00 	lea    rdx,[rip+0x6c9e]        # 882a <_IO_stdin_used+0xea>
1b8c:	45 31 c0             	xor    r8d,r8d
1b8f:	48 89 de             	mov    rsi,rbx
1b92:	89 ef                	mov    edi,ebp
1b94:	e8 a7 fc ff ff       	call   1840 <getopt_long@plt>
1b99:	83 f8 ff             	cmp    eax,0xffffffff
1b9c:	0f 84 df 00 00 00    	je     1c81 <main+0x191>
1ba2:	83 f8 5a             	cmp    eax,0x5a
1ba5:	74 79                	je     1c20 <main+0x130>
1ba7:	7e 37                	jle    1be0 <main+0xf0>
1ba9:	83 f8 70             	cmp    eax,0x70
1bac:	0f 84 c6 00 00 00    	je     1c78 <main+0x188>
1bb2:	83 f8 76             	cmp    eax,0x76
1bb5:	0f 84 9d 00 00 00    	je     1c58 <main+0x168>
1bbb:	83 f8 6d             	cmp    eax,0x6d
1bbe:	74 10                	je     1bd0 <main+0xe0>
1bc0:	bf 01 00 00 00       	mov    edi,0x1
1bc5:	e8 a6 04 00 00       	call   2070 <usage>
1bca:	66 0f 1f 44 00 00    	nop    WORD PTR [rax+rax*1+0x0]
1bd0:	4c 8b 25 c1 a4 20 00 	mov    r12,QWORD PTR [rip+0x20a4c1]        # 20c098 <optarg@@GLIBC_2.2.5>
1bd7:	eb a5                	jmp    1b7e <main+0x8e>
1bd9:	0f 1f 80 00 00 00 00 	nop    DWORD PTR [rax+0x0]
1be0:	3d 7d ff ff ff       	cmp    eax,0xffffff7d
1be5:	0f 85 67 01 00 00    	jne    1d52 <main+0x262>
1beb:	48 8b 3d 96 a4 20 00 	mov    rdi,QWORD PTR [rip+0x20a496]        # 20c088 <stdout@@GLIBC_2.2.5>
1bf2:	48 8b 0d 17 a4 20 00 	mov    rcx,QWORD PTR [rip+0x20a417]        # 20c010 <Version>
1bf9:	4c 8d 05 1a 6c 00 00 	lea    r8,[rip+0x6c1a]        # 881a <_IO_stdin_used+0xda>
1c00:	48 8d 15 b9 6b 00 00 	lea    rdx,[rip+0x6bb9]        # 87c0 <_IO_stdin_used+0x80>
1c07:	48 8d 35 36 6b 00 00 	lea    rsi,[rip+0x6b36]        # 8744 <_IO_stdin_used+0x4>
1c0e:	45 31 c9             	xor    r9d,r9d
1c11:	31 c0                	xor    eax,eax
1c13:	e8 c8 3b 00 00       	call   57e0 <version_etc>
1c18:	31 ff                	xor    edi,edi
1c1a:	e8 51 fe ff ff       	call   1a70 <exit@plt>
1c1f:	90                   	nop
1c20:	48 83 3d 70 a4 20 00 	cmp    QWORD PTR [rip+0x20a470],0x0        # 20c098 <optarg@@GLIBC_2.2.5>
1c27:	00
1c28:	0f 84 50 ff ff ff    	je     1b7e <main+0x8e>
1c2e:	48 8d 35 13 70 00 00 	lea    rsi,[rip+0x7013]        # 8c48 <_IO_stdin_used+0x508>
1c35:	31 ff                	xor    edi,edi
1c37:	ba 05 00 00 00       	mov    edx,0x5
1c3c:	e8 af fb ff ff       	call   17f0 <dcgettext@plt>
1c41:	31 f6                	xor    esi,esi
1c43:	48 89 c2             	mov    rdx,rax
1c46:	31 ff                	xor    edi,edi
1c48:	31 c0                	xor    eax,eax
1c4a:	e8 c1 fd ff ff       	call   1a10 <error@plt>
1c4f:	e9 2a ff ff ff       	jmp    1b7e <main+0x8e>
1c54:	0f 1f 40 00          	nop    DWORD PTR [rax+0x0]
1c58:	48 8d 35 a6 6b 00 00 	lea    rsi,[rip+0x6ba6]        # 8805 <_IO_stdin_used+0xc5>
1c5f:	ba 05 00 00 00       	mov    edx,0x5
1c64:	31 ff                	xor    edi,edi
1c66:	e8 85 fb ff ff       	call   17f0 <dcgettext@plt>
1c6b:	48 89 44 24 18       	mov    QWORD PTR [rsp+0x18],rax
1c70:	e9 09 ff ff ff       	jmp    1b7e <main+0x8e>
1c75:	0f 1f 00             	nop    DWORD PTR [rax]
1c78:	4c 89 2c 24          	mov    QWORD PTR [rsp],r13
1c7c:	e9 fd fe ff ff       	jmp    1b7e <main+0x8e>
1c81:	39 2d 09 a4 20 00    	cmp    DWORD PTR [rip+0x20a409],ebp        # 20c090 <optind@@GLIBC_2.2.5>
1c87:	0f 84 0e 01 00 00    	je     1d9b <main+0x2ab>
1c8d:	48 83 3c 24 00       	cmp    QWORD PTR [rsp],0x0
1c92:	74 65                	je     1cf9 <main+0x209>
1c94:	31 ff                	xor    edi,edi
1c96:	e8 55 fc ff ff       	call   18f0 <umask@plt>
1c9b:	89 c7                	mov    edi,eax
1c9d:	41 89 c5             	mov    r13d,eax
1ca0:	e8 4b fc ff ff       	call   18f0 <umask@plt>
1ca5:	4d 85 e4             	test   r12,r12
1ca8:	44 89 6c 24 08       	mov    DWORD PTR [rsp+0x8],r13d
1cad:	75 65                	jne    1d14 <main+0x224>
1caf:	c7 44 24 0c ff 01 00 	mov    DWORD PTR [rsp+0xc],0x1ff
1cb6:	00
1cb7:	49 89 e4             	mov    r12,rsp
1cba:	48 63 15 cf a3 20 00 	movsxd rdx,DWORD PTR [rip+0x20a3cf]        # 20c090 <optind@@GLIBC_2.2.5>
1cc1:	89 ef                	mov    edi,ebp
1cc3:	4c 89 e1             	mov    rcx,r12
1cc6:	29 d7                	sub    edi,edx
1cc8:	48 8d 34 d3          	lea    rsi,[rbx+rdx*8]
1ccc:	48 8d 15 0d 02 00 00 	lea    rdx,[rip+0x20d]        # 1ee0 <process_dir>
1cd3:	e8 b8 34 00 00       	call   5190 <savewd_process_files>
1cd8:	48 8b 4c 24 28       	mov    rcx,QWORD PTR [rsp+0x28]
1cdd:	64 48 33 0c 25 28 00 	xor    rcx,QWORD PTR fs:0x28
1ce4:	00 00
1ce6:	0f 85 aa 00 00 00    	jne    1d96 <main+0x2a6>
1cec:	48 83 c4 30          	add    rsp,0x30
1cf0:	5b                   	pop    rbx
1cf1:	5d                   	pop    rbp
1cf2:	41 5c                	pop    r12
1cf4:	41 5d                	pop    r13
1cf6:	41 5e                	pop    r14
1cf8:	c3                   	ret
1cf9:	4d 85 e4             	test   r12,r12
1cfc:	74 b9                	je     1cb7 <main+0x1c7>
1cfe:	31 ff                	xor    edi,edi
1d00:	e8 eb fb ff ff       	call   18f0 <umask@plt>
1d05:	41 89 c5             	mov    r13d,eax
1d08:	89 c7                	mov    edi,eax
1d0a:	e8 e1 fb ff ff       	call   18f0 <umask@plt>
1d0f:	44 89 6c 24 08       	mov    DWORD PTR [rsp+0x8],r13d
1d14:	4c 89 e7             	mov    rdi,r12
1d17:	e8 d4 0c 00 00       	call   29f0 <mode_compile>
1d1c:	48 85 c0             	test   rax,rax
1d1f:	49 89 c6             	mov    r14,rax
1d22:	74 40                	je     1d64 <main+0x274>
1d24:	49 89 e4             	mov    r12,rsp
1d27:	48 89 c1             	mov    rcx,rax
1d2a:	44 89 ea             	mov    edx,r13d
1d2d:	4d 8d 44 24 10       	lea    r8,[r12+0x10]
1d32:	be 01 00 00 00       	mov    esi,0x1
1d37:	bf ff 01 00 00       	mov    edi,0x1ff
1d3c:	e8 ef 10 00 00       	call   2e30 <mode_adjust>
1d41:	4c 89 f7             	mov    rdi,r14
1d44:	89 44 24 0c          	mov    DWORD PTR [rsp+0xc],eax
1d48:	e8 e3 f9 ff ff       	call   1730 <free@plt>
1d4d:	e9 68 ff ff ff       	jmp    1cba <main+0x1ca>
1d52:	3d 7e ff ff ff       	cmp    eax,0xffffff7e
1d57:	0f 85 63 fe ff ff    	jne    1bc0 <main+0xd0>
1d5d:	31 ff                	xor    edi,edi
1d5f:	e8 0c 03 00 00       	call   2070 <usage>
1d64:	4c 89 e7             	mov    rdi,r12
1d67:	e8 44 2f 00 00       	call   4cb0 <quote>
1d6c:	48 8d 35 cd 6a 00 00 	lea    rsi,[rip+0x6acd]        # 8840 <_IO_stdin_used+0x100>
1d73:	48 89 c3             	mov    rbx,rax
1d76:	ba 05 00 00 00       	mov    edx,0x5
1d7b:	31 ff                	xor    edi,edi
1d7d:	e8 6e fa ff ff       	call   17f0 <dcgettext@plt>
1d82:	48 89 d9             	mov    rcx,rbx
1d85:	48 89 c2             	mov    rdx,rax
1d88:	31 f6                	xor    esi,esi
1d8a:	bf 01 00 00 00       	mov    edi,0x1
1d8f:	31 c0                	xor    eax,eax
1d91:	e8 7a fc ff ff       	call   1a10 <error@plt>
1d96:	e8 95 fa ff ff       	call   1830 <__stack_chk_fail@plt>
1d9b:	48 8d 35 8e 6a 00 00 	lea    rsi,[rip+0x6a8e]        # 8830 <_IO_stdin_used+0xf0>
1da2:	31 ff                	xor    edi,edi
1da4:	ba 05 00 00 00       	mov    edx,0x5
1da9:	e8 42 fa ff ff       	call   17f0 <dcgettext@plt>
1dae:	31 f6                	xor    esi,esi
1db0:	48 89 c2             	mov    rdx,rax
1db3:	31 ff                	xor    edi,edi
1db5:	31 c0                	xor    eax,eax
1db7:	e8 54 fc ff ff       	call   1a10 <error@plt>
1dbc:	e9 ff fd ff ff       	jmp    1bc0 <main+0xd0>
1dc1:	66 2e 0f 1f 84 00 00 	nop    WORD PTR cs:[rax+rax*1+0x0]
1dc8:	00 00 00
1dcb:	0f 1f 44 00 00       	nop    DWORD PTR [rax+rax*1+0x0]

0000000000001dd0 <_start>:
1dd0:	31 ed                	xor    ebp,ebp
1dd2:	49 89 d1             	mov    r9,rdx
1dd5:	5e                   	pop    rsi
1dd6:	48 89 e2             	mov    rdx,rsp
1dd9:	48 83 e4 f0          	and    rsp,0xfffffffffffffff0
1ddd:	50                   	push   rax
1dde:	54                   	push   rsp
1ddf:	4c 8d 05 1a 69 00 00 	lea    r8,[rip+0x691a]        # 8700 <__libc_csu_fini>
1de6:	48 8d 0d a3 68 00 00 	lea    rcx,[rip+0x68a3]        # 8690 <__libc_csu_init>
1ded:	48 8d 3d fc fc ff ff 	lea    rdi,[rip+0xfffffffffffffcfc]        # 1af0 <main>
1df4:	ff 15 d6 a1 20 00    	call   QWORD PTR [rip+0x20a1d6]        # 20bfd0 <__libc_start_main@GLIBC_2.2.5>
1dfa:	f4                   	hlt
1dfb:	0f 1f 44 00 00       	nop    DWORD PTR [rax+rax*1+0x0]

0000000000001e00 <deregister_tm_clones>:
1e00:	48 8d 3d 79 a2 20 00 	lea    rdi,[rip+0x20a279]        # 20c080 <__progname@@GLIBC_2.2.5>
1e07:	55                   	push   rbp
1e08:	48 8d 05 71 a2 20 00 	lea    rax,[rip+0x20a271]        # 20c080 <__progname@@GLIBC_2.2.5>
1e0f:	48 39 f8             	cmp    rax,rdi
1e12:	48 89 e5             	mov    rbp,rsp
1e15:	74 19                	je     1e30 <deregister_tm_clones+0x30>
1e17:	48 8b 05 aa a1 20 00 	mov    rax,QWORD PTR [rip+0x20a1aa]        # 20bfc8 <_ITM_deregisterTMCloneTable>
1e1e:	48 85 c0             	test   rax,rax
1e21:	74 0d                	je     1e30 <deregister_tm_clones+0x30>
1e23:	5d                   	pop    rbp
1e24:	ff e0                	jmp    rax
1e26:	66 2e 0f 1f 84 00 00 	nop    WORD PTR cs:[rax+rax*1+0x0]
1e2d:	00 00 00
1e30:	5d                   	pop    rbp
1e31:	c3                   	ret
1e32:	0f 1f 40 00          	nop    DWORD PTR [rax+0x0]
1e36:	66 2e 0f 1f 84 00 00 	nop    WORD PTR cs:[rax+rax*1+0x0]
1e3d:	00 00 00

0000000000001e40 <register_tm_clones>:
1e40:	48 8d 3d 39 a2 20 00 	lea    rdi,[rip+0x20a239]        # 20c080 <__progname@@GLIBC_2.2.5>
1e47:	48 8d 35 32 a2 20 00 	lea    rsi,[rip+0x20a232]        # 20c080 <__progname@@GLIBC_2.2.5>
1e4e:	55                   	push   rbp
1e4f:	48 29 fe             	sub    rsi,rdi
1e52:	48 89 e5             	mov    rbp,rsp
1e55:	48 c1 fe 03          	sar    rsi,0x3
1e59:	48 89 f0             	mov    rax,rsi
1e5c:	48 c1 e8 3f          	shr    rax,0x3f
1e60:	48 01 c6             	add    rsi,rax
1e63:	48 d1 fe             	sar    rsi,1
1e66:	74 18                	je     1e80 <register_tm_clones+0x40>
1e68:	48 8b 05 71 a1 20 00 	mov    rax,QWORD PTR [rip+0x20a171]        # 20bfe0 <_ITM_registerTMCloneTable>
1e6f:	48 85 c0             	test   rax,rax
1e72:	74 0c                	je     1e80 <register_tm_clones+0x40>
1e74:	5d                   	pop    rbp
1e75:	ff e0                	jmp    rax
1e77:	66 0f 1f 84 00 00 00 	nop    WORD PTR [rax+rax*1+0x0]
1e7e:	00 00
1e80:	5d                   	pop    rbp
1e81:	c3                   	ret
1e82:	0f 1f 40 00          	nop    DWORD PTR [rax+0x0]
1e86:	66 2e 0f 1f 84 00 00 	nop    WORD PTR cs:[rax+rax*1+0x0]
1e8d:	00 00 00

0000000000001e90 <__do_global_dtors_aux>:
1e90:	80 3d 31 a2 20 00 00 	cmp    BYTE PTR [rip+0x20a231],0x0        # 20c0c8 <completed.7697>
1e97:	75 2f                	jne    1ec8 <__do_global_dtors_aux+0x38>
1e99:	48 83 3d 47 a1 20 00 	cmp    QWORD PTR [rip+0x20a147],0x0        # 20bfe8 <__cxa_finalize@GLIBC_2.2.5>
1ea0:	00
1ea1:	55                   	push   rbp
1ea2:	48 89 e5             	mov    rbp,rsp
1ea5:	74 0c                	je     1eb3 <__do_global_dtors_aux+0x23>
1ea7:	48 8b 3d 5a a1 20 00 	mov    rdi,QWORD PTR [rip+0x20a15a]        # 20c008 <__dso_handle>
1eae:	e8 2d fc ff ff       	call   1ae0 <__cxa_finalize@plt>
1eb3:	e8 48 ff ff ff       	call   1e00 <deregister_tm_clones>
1eb8:	c6 05 09 a2 20 00 01 	mov    BYTE PTR [rip+0x20a209],0x1        # 20c0c8 <completed.7697>
1ebf:	5d                   	pop    rbp
1ec0:	c3                   	ret
1ec1:	0f 1f 80 00 00 00 00 	nop    DWORD PTR [rax+0x0]
1ec8:	f3 c3                	repz ret
1eca:	66 0f 1f 44 00 00    	nop    WORD PTR [rax+rax*1+0x0]

0000000000001ed0 <frame_dummy>:
1ed0:	55                   	push   rbp
1ed1:	48 89 e5             	mov    rbp,rsp
1ed4:	5d                   	pop    rbp
1ed5:	e9 66 ff ff ff       	jmp    1e40 <register_tm_clones>
1eda:	66 0f 1f 44 00 00    	nop    WORD PTR [rax+rax*1+0x0]

0000000000001ee0 <process_dir>:
1ee0:	55                   	push   rbp
1ee1:	53                   	push   rbx
1ee2:	48 89 d3             	mov    rbx,rdx
1ee5:	48 83 ec 28          	sub    rsp,0x28
1ee9:	80 7b 14 00          	cmp    BYTE PTR [rbx+0x14],0x0
1eed:	48 8b 12             	mov    rdx,QWORD PTR [rdx]
1ef0:	74 05                	je     1ef7 <process_dir+0x17>
1ef2:	48 85 d2             	test   rdx,rdx
1ef5:	74 51                	je     1f48 <process_dir+0x68>
1ef7:	8b 43 10             	mov    eax,DWORD PTR [rbx+0x10]
1efa:	44 8b 43 0c          	mov    r8d,DWORD PTR [rbx+0xc]
1efe:	4c 8d 0d ab 00 00 00 	lea    r9,[rip+0xab]        # 1fb0 <announce_mkdir>
1f05:	6a 01                	push   0x1
1f07:	6a ff                	push   0xffffffffffffffff
1f09:	48 89 d9             	mov    rcx,rbx
1f0c:	6a ff                	push   0xffffffffffffffff
1f0e:	50                   	push   rax
1f0f:	e8 0c 07 00 00       	call   2620 <make_dir_parents>
1f14:	83 f0 01             	xor    eax,0x1
1f17:	48 83 c4 20          	add    rsp,0x20
1f1b:	84 c0                	test   al,al
1f1d:	0f b6 e8             	movzx  ebp,al
1f20:	75 17                	jne    1f39 <process_dir+0x59>
1f22:	80 7b 14 00          	cmp    BYTE PTR [rbx+0x14],0x0
1f26:	74 11                	je     1f39 <process_dir+0x59>
1f28:	48 83 3b 00          	cmp    QWORD PTR [rbx],0x0
1f2c:	74 0b                	je     1f39 <process_dir+0x59>
1f2e:	e8 1d f8 ff ff       	call   1750 <__errno_location@plt>
1f33:	c7 00 5f 00 00 00    	mov    DWORD PTR [rax],0x5f
1f39:	48 83 c4 28          	add    rsp,0x28
1f3d:	89 e8                	mov    eax,ebp
1f3f:	5b                   	pop    rbx
1f40:	5d                   	pop    rbp
1f41:	c3                   	ret
1f42:	66 0f 1f 44 00 00    	nop    WORD PTR [rax+rax*1+0x0]
1f48:	48 89 74 24 18       	mov    QWORD PTR [rsp+0x18],rsi
1f4d:	48 89 7c 24 10       	mov    QWORD PTR [rsp+0x10],rdi
1f52:	48 89 54 24 08       	mov    QWORD PTR [rsp+0x8],rdx
1f57:	e8 f4 f7 ff ff       	call   1750 <__errno_location@plt>
1f5c:	48 8b 74 24 18       	mov    rsi,QWORD PTR [rsp+0x18]
1f61:	c7 00 5f 00 00 00    	mov    DWORD PTR [rax],0x5f
1f67:	48 8b 7c 24 10       	mov    rdi,QWORD PTR [rsp+0x10]
1f6c:	48 8b 54 24 08       	mov    rdx,QWORD PTR [rsp+0x8]
1f71:	eb 84                	jmp    1ef7 <process_dir+0x17>
1f73:	0f 1f 00             	nop    DWORD PTR [rax]
1f76:	66 2e 0f 1f 84 00 00 	nop    WORD PTR cs:[rax+rax*1+0x0]
1f7d:	00 00 00

0000000000001f80 <announce_mkdir.part.4>:
1f80:	53                   	push   rbx
1f81:	48 89 f3             	mov    rbx,rsi
1f84:	48 89 fe             	mov    rsi,rdi
1f87:	bf 04 00 00 00       	mov    edi,0x4
1f8c:	e8 4f 2a 00 00       	call   49e0 <quotearg_style>
1f91:	48 8b 73 18          	mov    rsi,QWORD PTR [rbx+0x18]
1f95:	48 8b 3d ec a0 20 00 	mov    rdi,QWORD PTR [rip+0x20a0ec]        # 20c088 <stdout@@GLIBC_2.2.5>
1f9c:	48 89 c2             	mov    rdx,rax
1f9f:	5b                   	pop    rbx
1fa0:	31 c0                	xor    eax,eax
1fa2:	e9 89 04 00 00       	jmp    2430 <prog_fprintf>
1fa7:	66 0f 1f 84 00 00 00 	nop    WORD PTR [rax+rax*1+0x0]
1fae:	00 00

0000000000001fb0 <announce_mkdir>:
1fb0:	48 83 7e 18 00       	cmp    QWORD PTR [rsi+0x18],0x0
1fb5:	74 09                	je     1fc0 <announce_mkdir+0x10>
1fb7:	eb c7                	jmp    1f80 <announce_mkdir.part.4>
1fb9:	0f 1f 80 00 00 00 00 	nop    DWORD PTR [rax+0x0]
1fc0:	f3 c3                	repz ret
1fc2:	0f 1f 40 00          	nop    DWORD PTR [rax+0x0]
1fc6:	66 2e 0f 1f 84 00 00 	nop    WORD PTR cs:[rax+rax*1+0x0]
1fcd:	00 00 00

0000000000001fd0 <make_ancestor>:
1fd0:	80 7a 14 00          	cmp    BYTE PTR [rdx+0x14],0x0
1fd4:	41 56                	push   r14
1fd6:	41 55                	push   r13
1fd8:	41 54                	push   r12
1fda:	49 89 fc             	mov    r12,rdi
1fdd:	55                   	push   rbp
1fde:	48 89 d5             	mov    rbp,rdx
1fe1:	53                   	push   rbx
1fe2:	48 89 f3             	mov    rbx,rsi
1fe5:	74 0b                	je     1ff2 <make_ancestor+0x22>
1fe7:	e8 64 f7 ff ff       	call   1750 <__errno_location@plt>
1fec:	c7 00 5f 00 00 00    	mov    DWORD PTR [rax],0x5f
1ff2:	8b 7d 08             	mov    edi,DWORD PTR [rbp+0x8]
1ff5:	40 f6 c7 c0          	test   dil,0xc0
1ff9:	75 3d                	jne    2038 <make_ancestor+0x68>
1ffb:	48 89 df             	mov    rdi,rbx
1ffe:	be ff 01 00 00       	mov    esi,0x1ff
2003:	e8 88 f7 ff ff       	call   1790 <mkdir@plt>
2008:	89 c3                	mov    ebx,eax
200a:	85 db                	test   ebx,ebx
200c:	75 1b                	jne    2029 <make_ancestor+0x59>
200e:	8b 5d 08             	mov    ebx,DWORD PTR [rbp+0x8]
2011:	c1 eb 08             	shr    ebx,0x8
2014:	83 e3 01             	and    ebx,0x1
2017:	48 83 7d 18 00       	cmp    QWORD PTR [rbp+0x18],0x0
201c:	74 0b                	je     2029 <make_ancestor+0x59>
201e:	48 89 ee             	mov    rsi,rbp
2021:	4c 89 e7             	mov    rdi,r12
2024:	e8 57 ff ff ff       	call   1f80 <announce_mkdir.part.4>
2029:	89 d8                	mov    eax,ebx
202b:	5b                   	pop    rbx
202c:	5d                   	pop    rbp
202d:	41 5c                	pop    r12
202f:	41 5d                	pop    r13
2031:	41 5e                	pop    r14
2033:	c3                   	ret
2034:	0f 1f 40 00          	nop    DWORD PTR [rax+0x0]
2038:	40 80 e7 3f          	and    dil,0x3f
203c:	e8 af f8 ff ff       	call   18f0 <umask@plt>
2041:	48 89 df             	mov    rdi,rbx
2044:	be ff 01 00 00       	mov    esi,0x1ff
2049:	e8 42 f7 ff ff       	call   1790 <mkdir@plt>
204e:	89 c3                	mov    ebx,eax
2050:	e8 fb f6 ff ff       	call   1750 <__errno_location@plt>
2055:	8b 7d 08             	mov    edi,DWORD PTR [rbp+0x8]
2058:	44 8b 30             	mov    r14d,DWORD PTR [rax]
205b:	49 89 c5             	mov    r13,rax
205e:	e8 8d f8 ff ff       	call   18f0 <umask@plt>
2063:	45 89 75 00          	mov    DWORD PTR [r13+0x0],r14d
2067:	eb a1                	jmp    200a <make_ancestor+0x3a>
2069:	0f 1f 80 00 00 00 00 	nop    DWORD PTR [rax+0x0]

0000000000002070 <usage>:
2070:	41 55                	push   r13
2072:	41 54                	push   r12
2074:	ba 05 00 00 00       	mov    edx,0x5
2079:	55                   	push   rbp
207a:	53                   	push   rbx
207b:	89 fd                	mov    ebp,edi
207d:	48 81 ec 88 00 00 00 	sub    rsp,0x88
2084:	48 8b 1d 55 a0 20 00 	mov    rbx,QWORD PTR [rip+0x20a055]        # 20c0e0 <program_name>
208b:	64 48 8b 04 25 28 00 	mov    rax,QWORD PTR fs:0x28
2092:	00 00
2094:	48 89 44 24 78       	mov    QWORD PTR [rsp+0x78],rax
2099:	31 c0                	xor    eax,eax
209b:	85 ff                	test   edi,edi
209d:	74 2e                	je     20cd <usage+0x5d>
209f:	48 8d 35 da 67 00 00 	lea    rsi,[rip+0x67da]        # 8880 <_IO_stdin_used+0x140>
20a6:	31 ff                	xor    edi,edi
20a8:	e8 43 f7 ff ff       	call   17f0 <dcgettext@plt>
20ad:	48 8b 3d 0c a0 20 00 	mov    rdi,QWORD PTR [rip+0x20a00c]        # 20c0c0 <stderr@@GLIBC_2.2.5>
20b4:	48 89 c2             	mov    rdx,rax
20b7:	48 89 d9             	mov    rcx,rbx
20ba:	be 01 00 00 00       	mov    esi,0x1
20bf:	31 c0                	xor    eax,eax
20c1:	e8 ca f9 ff ff       	call   1a90 <__fprintf_chk@plt>
20c6:	89 ef                	mov    edi,ebp
20c8:	e8 a3 f9 ff ff       	call   1a70 <exit@plt>
20cd:	48 8d 35 d4 67 00 00 	lea    rsi,[rip+0x67d4]        # 88a8 <_IO_stdin_used+0x168>
20d4:	31 ff                	xor    edi,edi
20d6:	e8 15 f7 ff ff       	call   17f0 <dcgettext@plt>
20db:	48 89 da             	mov    rdx,rbx
20de:	48 89 c6             	mov    rsi,rax
20e1:	bf 01 00 00 00       	mov    edi,0x1
20e6:	31 c0                	xor    eax,eax
20e8:	e8 f3 f8 ff ff       	call   19e0 <__printf_chk@plt>
20ed:	48 8b 1d 94 9f 20 00 	mov    rbx,QWORD PTR [rip+0x209f94]        # 20c088 <stdout@@GLIBC_2.2.5>
20f4:	48 8d 35 d5 67 00 00 	lea    rsi,[rip+0x67d5]        # 88d0 <_IO_stdin_used+0x190>
20fb:	ba 05 00 00 00       	mov    edx,0x5
2100:	31 ff                	xor    edi,edi
2102:	e8 e9 f6 ff ff       	call   17f0 <dcgettext@plt>
2107:	48 89 de             	mov    rsi,rbx
210a:	48 89 c7             	mov    rdi,rax
210d:	e8 be f7 ff ff       	call   18d0 <fputs_unlocked@plt>
2112:	48 8b 1d 6f 9f 20 00 	mov    rbx,QWORD PTR [rip+0x209f6f]        # 20c088 <stdout@@GLIBC_2.2.5>
2119:	48 8d 35 f0 67 00 00 	lea    rsi,[rip+0x67f0]        # 8910 <_IO_stdin_used+0x1d0>
2120:	ba 05 00 00 00       	mov    edx,0x5
2125:	31 ff                	xor    edi,edi
2127:	e8 c4 f6 ff ff       	call   17f0 <dcgettext@plt>
212c:	48 89 de             	mov    rsi,rbx
212f:	48 89 c7             	mov    rdi,rax
2132:	e8 99 f7 ff ff       	call   18d0 <fputs_unlocked@plt>
2137:	48 8b 1d 4a 9f 20 00 	mov    rbx,QWORD PTR [rip+0x209f4a]        # 20c088 <stdout@@GLIBC_2.2.5>
213e:	48 8d 35 1b 68 00 00 	lea    rsi,[rip+0x681b]        # 8960 <_IO_stdin_used+0x220>
2145:	ba 05 00 00 00       	mov    edx,0x5
214a:	31 ff                	xor    edi,edi
214c:	e8 9f f6 ff ff       	call   17f0 <dcgettext@plt>
2151:	48 89 de             	mov    rsi,rbx
2154:	48 89 c7             	mov    rdi,rax
2157:	e8 74 f7 ff ff       	call   18d0 <fputs_unlocked@plt>
215c:	48 8b 1d 25 9f 20 00 	mov    rbx,QWORD PTR [rip+0x209f25]        # 20c088 <stdout@@GLIBC_2.2.5>
2163:	48 8d 35 c6 68 00 00 	lea    rsi,[rip+0x68c6]        # 8a30 <_IO_stdin_used+0x2f0>
216a:	ba 05 00 00 00       	mov    edx,0x5
216f:	31 ff                	xor    edi,edi
2171:	e8 7a f6 ff ff       	call   17f0 <dcgettext@plt>
2176:	48 89 de             	mov    rsi,rbx
2179:	48 89 c7             	mov    rdi,rax
217c:	e8 4f f7 ff ff       	call   18d0 <fputs_unlocked@plt>
2181:	48 8b 1d 00 9f 20 00 	mov    rbx,QWORD PTR [rip+0x209f00]        # 20c088 <stdout@@GLIBC_2.2.5>
2188:	48 8d 35 a9 69 00 00 	lea    rsi,[rip+0x69a9]        # 8b38 <_IO_stdin_used+0x3f8>
218f:	ba 05 00 00 00       	mov    edx,0x5
2194:	31 ff                	xor    edi,edi
2196:	e8 55 f6 ff ff       	call   17f0 <dcgettext@plt>
219b:	48 89 de             	mov    rsi,rbx
219e:	48 89 c7             	mov    rdi,rax
21a1:	e8 2a f7 ff ff       	call   18d0 <fputs_unlocked@plt>
21a6:	48 8b 1d db 9e 20 00 	mov    rbx,QWORD PTR [rip+0x209edb]        # 20c088 <stdout@@GLIBC_2.2.5>
21ad:	48 8d 35 b4 69 00 00 	lea    rsi,[rip+0x69b4]        # 8b68 <_IO_stdin_used+0x428>
21b4:	ba 05 00 00 00       	mov    edx,0x5
21b9:	31 ff                	xor    edi,edi
21bb:	e8 30 f6 ff ff       	call   17f0 <dcgettext@plt>
21c0:	48 89 de             	mov    rsi,rbx
21c3:	48 89 c7             	mov    rdi,rax
21c6:	48 8d 1d 77 65 00 00 	lea    rbx,[rip+0x6577]        # 8744 <_IO_stdin_used+0x4>
21cd:	e8 fe f6 ff ff       	call   18d0 <fputs_unlocked@plt>
21d2:	48 8d 05 71 65 00 00 	lea    rax,[rip+0x6571]        # 874a <_IO_stdin_used+0xa>
21d9:	48 8d 0d ab 65 00 00 	lea    rcx,[rip+0x65ab]        # 878b <_IO_stdin_used+0x4b>
21e0:	48 c7 44 24 60 00 00 	mov    QWORD PTR [rsp+0x60],0x0
21e7:	00 00
21e9:	48 c7 44 24 68 00 00 	mov    QWORD PTR [rsp+0x68],0x0
21f0:	00 00
21f2:	48 89 e2             	mov    rdx,rsp
21f5:	48 89 04 24          	mov    QWORD PTR [rsp],rax
21f9:	48 8d 05 4c 65 00 00 	lea    rax,[rip+0x654c]        # 874c <_IO_stdin_used+0xc>
2200:	48 89 4c 24 30       	mov    QWORD PTR [rsp+0x30],rcx
2205:	48 8d 0d 89 65 00 00 	lea    rcx,[rip+0x6589]        # 8795 <_IO_stdin_used+0x55>
220c:	48 89 44 24 08       	mov    QWORD PTR [rsp+0x8],rax
2211:	48 8d 05 ac 65 00 00 	lea    rax,[rip+0x65ac]        # 87c4 <_IO_stdin_used+0x84>
2218:	48 89 4c 24 40       	mov    QWORD PTR [rsp+0x40],rcx
221d:	48 8d 0d 7b 65 00 00 	lea    rcx,[rip+0x657b]        # 879f <_IO_stdin_used+0x5f>
2224:	48 89 44 24 10       	mov    QWORD PTR [rsp+0x10],rax
2229:	48 8d 05 2c 65 00 00 	lea    rax,[rip+0x652c]        # 875c <_IO_stdin_used+0x1c>
2230:	48 89 4c 24 50       	mov    QWORD PTR [rsp+0x50],rcx
2235:	48 89 44 24 18       	mov    QWORD PTR [rsp+0x18],rax
223a:	48 8d 05 31 65 00 00 	lea    rax,[rip+0x6531]        # 8772 <_IO_stdin_used+0x32>
2241:	48 89 44 24 20       	mov    QWORD PTR [rsp+0x20],rax
2246:	48 8d 05 2f 65 00 00 	lea    rax,[rip+0x652f]        # 877c <_IO_stdin_used+0x3c>
224d:	48 89 44 24 28       	mov    QWORD PTR [rsp+0x28],rax
2252:	48 89 44 24 38       	mov    QWORD PTR [rsp+0x38],rax
2257:	48 89 44 24 48       	mov    QWORD PTR [rsp+0x48],rax
225c:	48 89 44 24 58       	mov    QWORD PTR [rsp+0x58],rax
2261:	0f 1f 80 00 00 00 00 	nop    DWORD PTR [rax+0x0]
2268:	48 83 c2 10          	add    rdx,0x10
226c:	48 8b 3a             	mov    rdi,QWORD PTR [rdx]
226f:	48 85 ff             	test   rdi,rdi
2272:	74 13                	je     2287 <usage+0x217>
2274:	b9 06 00 00 00       	mov    ecx,0x6
2279:	48 89 de             	mov    rsi,rbx
227c:	f3 a6                	repz cmps BYTE PTR ds:[rsi],BYTE PTR es:[rdi]
227e:	0f 97 c0             	seta   al
2281:	1c 00                	sbb    al,0x0
2283:	84 c0                	test   al,al
2285:	75 e1                	jne    2268 <usage+0x1f8>
2287:	4c 8b 62 08          	mov    r12,QWORD PTR [rdx+0x8]
228b:	31 ff                	xor    edi,edi
228d:	ba 05 00 00 00       	mov    edx,0x5
2292:	48 8d 35 10 65 00 00 	lea    rsi,[rip+0x6510]        # 87a9 <_IO_stdin_used+0x69>
2299:	4d 85 e4             	test   r12,r12
229c:	0f 84 c1 00 00 00    	je     2363 <usage+0x2f3>
22a2:	e8 49 f5 ff ff       	call   17f0 <dcgettext@plt>
22a7:	48 8d 0d f2 68 00 00 	lea    rcx,[rip+0x68f2]        # 8ba0 <_IO_stdin_used+0x460>
22ae:	48 8d 15 0b 65 00 00 	lea    rdx,[rip+0x650b]        # 87c0 <_IO_stdin_used+0x80>
22b5:	48 89 c6             	mov    rsi,rax
22b8:	bf 01 00 00 00       	mov    edi,0x1
22bd:	31 c0                	xor    eax,eax
22bf:	e8 1c f7 ff ff       	call   19e0 <__printf_chk@plt>
22c4:	31 f6                	xor    esi,esi
22c6:	bf 05 00 00 00       	mov    edi,0x5
22cb:	e8 00 f7 ff ff       	call   19d0 <setlocale@plt>
22d0:	48 85 c0             	test   rax,rax
22d3:	74 1c                	je     22f1 <usage+0x281>
22d5:	48 8d 35 f2 64 00 00 	lea    rsi,[rip+0x64f2]        # 87ce <_IO_stdin_used+0x8e>
22dc:	ba 03 00 00 00       	mov    edx,0x3
22e1:	48 89 c7             	mov    rdi,rax
22e4:	e8 77 f4 ff ff       	call   1760 <strncmp@plt>
22e9:	85 c0                	test   eax,eax
22eb:	0f 85 07 01 00 00    	jne    23f8 <usage+0x388>
22f1:	48 8d 35 da 64 00 00 	lea    rsi,[rip+0x64da]        # 87d2 <_IO_stdin_used+0x92>
22f8:	31 ff                	xor    edi,edi
22fa:	ba 05 00 00 00       	mov    edx,0x5
22ff:	e8 ec f4 ff ff       	call   17f0 <dcgettext@plt>
2304:	48 8d 0d 39 64 00 00 	lea    rcx,[rip+0x6439]        # 8744 <_IO_stdin_used+0x4>
230b:	48 8d 15 8e 68 00 00 	lea    rdx,[rip+0x688e]        # 8ba0 <_IO_stdin_used+0x460>
2312:	48 89 c6             	mov    rsi,rax
2315:	bf 01 00 00 00       	mov    edi,0x1
231a:	31 c0                	xor    eax,eax
231c:	e8 bf f6 ff ff       	call   19e0 <__printf_chk@plt>
2321:	49 39 dc             	cmp    r12,rbx
2324:	48 8d 0d 3b 64 00 00 	lea    rcx,[rip+0x643b]        # 8766 <_IO_stdin_used+0x26>
232b:	48 8d 1d d4 70 00 00 	lea    rbx,[rip+0x70d4]        # 9406 <__PRETTY_FUNCTION__.4461+0x66>
2332:	48 0f 44 d9          	cmove  rbx,rcx
2336:	48 8d 35 d3 68 00 00 	lea    rsi,[rip+0x68d3]        # 8c10 <_IO_stdin_used+0x4d0>
233d:	31 ff                	xor    edi,edi
233f:	ba 05 00 00 00       	mov    edx,0x5
2344:	e8 a7 f4 ff ff       	call   17f0 <dcgettext@plt>
2349:	48 89 d9             	mov    rcx,rbx
234c:	48 89 c6             	mov    rsi,rax
234f:	4c 89 e2             	mov    rdx,r12
2352:	bf 01 00 00 00       	mov    edi,0x1
2357:	31 c0                	xor    eax,eax
2359:	e8 82 f6 ff ff       	call   19e0 <__printf_chk@plt>
235e:	e9 63 fd ff ff       	jmp    20c6 <usage+0x56>
2363:	e8 88 f4 ff ff       	call   17f0 <dcgettext@plt>
2368:	48 8d 0d 31 68 00 00 	lea    rcx,[rip+0x6831]        # 8ba0 <_IO_stdin_used+0x460>
236f:	48 8d 15 4a 64 00 00 	lea    rdx,[rip+0x644a]        # 87c0 <_IO_stdin_used+0x80>
2376:	48 89 c6             	mov    rsi,rax
2379:	bf 01 00 00 00       	mov    edi,0x1
237e:	31 c0                	xor    eax,eax
2380:	e8 5b f6 ff ff       	call   19e0 <__printf_chk@plt>
2385:	31 f6                	xor    esi,esi
2387:	bf 05 00 00 00       	mov    edi,0x5
238c:	e8 3f f6 ff ff       	call   19d0 <setlocale@plt>
2391:	48 85 c0             	test   rax,rax
2394:	74 18                	je     23ae <usage+0x33e>
2396:	48 8d 35 31 64 00 00 	lea    rsi,[rip+0x6431]        # 87ce <_IO_stdin_used+0x8e>
239d:	ba 03 00 00 00       	mov    edx,0x3
23a2:	48 89 c7             	mov    rdi,rax
23a5:	e8 b6 f3 ff ff       	call   1760 <strncmp@plt>
23aa:	85 c0                	test   eax,eax
23ac:	75 43                	jne    23f1 <usage+0x381>
23ae:	48 8d 35 1d 64 00 00 	lea    rsi,[rip+0x641d]        # 87d2 <_IO_stdin_used+0x92>
23b5:	ba 05 00 00 00       	mov    edx,0x5
23ba:	31 ff                	xor    edi,edi
23bc:	4c 8d 25 81 63 00 00 	lea    r12,[rip+0x6381]        # 8744 <_IO_stdin_used+0x4>
23c3:	48 8d 1d 9c 63 00 00 	lea    rbx,[rip+0x639c]        # 8766 <_IO_stdin_used+0x26>
23ca:	e8 21 f4 ff ff       	call   17f0 <dcgettext@plt>
23cf:	48 8d 0d 6e 63 00 00 	lea    rcx,[rip+0x636e]        # 8744 <_IO_stdin_used+0x4>
23d6:	48 8d 15 c3 67 00 00 	lea    rdx,[rip+0x67c3]        # 8ba0 <_IO_stdin_used+0x460>
23dd:	48 89 c6             	mov    rsi,rax
23e0:	bf 01 00 00 00       	mov    edi,0x1
23e5:	31 c0                	xor    eax,eax
23e7:	e8 f4 f5 ff ff       	call   19e0 <__printf_chk@plt>
23ec:	e9 45 ff ff ff       	jmp    2336 <usage+0x2c6>
23f1:	4c 8d 25 4c 63 00 00 	lea    r12,[rip+0x634c]        # 8744 <_IO_stdin_used+0x4>
23f8:	4c 8b 2d 89 9c 20 00 	mov    r13,QWORD PTR [rip+0x209c89]        # 20c088 <stdout@@GLIBC_2.2.5>
23ff:	48 8d 35 c2 67 00 00 	lea    rsi,[rip+0x67c2]        # 8bc8 <_IO_stdin_used+0x488>
2406:	31 ff                	xor    edi,edi
2408:	ba 05 00 00 00       	mov    edx,0x5
240d:	e8 de f3 ff ff       	call   17f0 <dcgettext@plt>
2412:	4c 89 ee             	mov    rsi,r13
2415:	48 89 c7             	mov    rdi,rax
2418:	e8 b3 f4 ff ff       	call   18d0 <fputs_unlocked@plt>
241d:	e9 cf fe ff ff       	jmp    22f1 <usage+0x281>
2422:	66 2e 0f 1f 84 00 00 	nop    WORD PTR cs:[rax+rax*1+0x0]
2429:	00 00 00
242c:	0f 1f 40 00          	nop    DWORD PTR [rax+0x0]

0000000000002430 <prog_fprintf>:
2430:	55                   	push   rbp
2431:	53                   	push   rbx
2432:	48 89 f5             	mov    rbp,rsi
2435:	48 89 fb             	mov    rbx,rdi
2438:	48 81 ec d8 00 00 00 	sub    rsp,0xd8
243f:	84 c0                	test   al,al
2441:	48 89 54 24 30       	mov    QWORD PTR [rsp+0x30],rdx
2446:	48 89 4c 24 38       	mov    QWORD PTR [rsp+0x38],rcx
244b:	4c 89 44 24 40       	mov    QWORD PTR [rsp+0x40],r8
2450:	4c 89 4c 24 48       	mov    QWORD PTR [rsp+0x48],r9
2455:	74 37                	je     248e <prog_fprintf+0x5e>
2457:	0f 29 44 24 50       	movaps XMMWORD PTR [rsp+0x50],xmm0
245c:	0f 29 4c 24 60       	movaps XMMWORD PTR [rsp+0x60],xmm1
2461:	0f 29 54 24 70       	movaps XMMWORD PTR [rsp+0x70],xmm2
2466:	0f 29 9c 24 80 00 00 	movaps XMMWORD PTR [rsp+0x80],xmm3
246d:	00
246e:	0f 29 a4 24 90 00 00 	movaps XMMWORD PTR [rsp+0x90],xmm4
2475:	00
2476:	0f 29 ac 24 a0 00 00 	movaps XMMWORD PTR [rsp+0xa0],xmm5
247d:	00
247e:	0f 29 b4 24 b0 00 00 	movaps XMMWORD PTR [rsp+0xb0],xmm6
2485:	00
2486:	0f 29 bc 24 c0 00 00 	movaps XMMWORD PTR [rsp+0xc0],xmm7
248d:	00
248e:	48 89 de             	mov    rsi,rbx
2491:	64 48 8b 04 25 28 00 	mov    rax,QWORD PTR fs:0x28
2498:	00 00
249a:	48 89 44 24 18       	mov    QWORD PTR [rsp+0x18],rax
249f:	31 c0                	xor    eax,eax
24a1:	48 8b 3d 38 9c 20 00 	mov    rdi,QWORD PTR [rip+0x209c38]        # 20c0e0 <program_name>
24a8:	e8 23 f4 ff ff       	call   18d0 <fputs_unlocked@plt>
24ad:	48 8d 3d dd 67 00 00 	lea    rdi,[rip+0x67dd]        # 8c91 <_IO_stdin_used+0x551>
24b4:	48 89 d9             	mov    rcx,rbx
24b7:	ba 02 00 00 00       	mov    edx,0x2
24bc:	be 01 00 00 00       	mov    esi,0x1
24c1:	e8 da f4 ff ff       	call   19a0 <fwrite_unlocked@plt>
24c6:	48 8d 84 24 f0 00 00 	lea    rax,[rsp+0xf0]
24cd:	00
24ce:	48 89 e2             	mov    rdx,rsp
24d1:	48 89 ee             	mov    rsi,rbp
24d4:	48 89 df             	mov    rdi,rbx
24d7:	c7 04 24 10 00 00 00 	mov    DWORD PTR [rsp],0x10
24de:	c7 44 24 04 30 00 00 	mov    DWORD PTR [rsp+0x4],0x30
24e5:	00
24e6:	48 89 44 24 08       	mov    QWORD PTR [rsp+0x8],rax
24eb:	48 8d 44 24 20       	lea    rax,[rsp+0x20]
24f0:	48 89 44 24 10       	mov    QWORD PTR [rsp+0x10],rax
24f5:	e8 66 37 00 00       	call   5c60 <rpl_vfprintf>
24fa:	48 8b 43 28          	mov    rax,QWORD PTR [rbx+0x28]
24fe:	48 3b 43 30          	cmp    rax,QWORD PTR [rbx+0x30]
2502:	73 2c                	jae    2530 <prog_fprintf+0x100>
2504:	48 8d 50 01          	lea    rdx,[rax+0x1]
2508:	48 89 53 28          	mov    QWORD PTR [rbx+0x28],rdx
250c:	c6 00 0a             	mov    BYTE PTR [rax],0xa
250f:	48 8b 44 24 18       	mov    rax,QWORD PTR [rsp+0x18]
2514:	64 48 33 04 25 28 00 	xor    rax,QWORD PTR fs:0x28
251b:	00 00
251d:	75 20                	jne    253f <prog_fprintf+0x10f>
251f:	48 81 c4 d8 00 00 00 	add    rsp,0xd8
2526:	5b                   	pop    rbx
2527:	5d                   	pop    rbp
2528:	c3                   	ret
2529:	0f 1f 80 00 00 00 00 	nop    DWORD PTR [rax+0x0]
2530:	be 0a 00 00 00       	mov    esi,0xa
2535:	48 89 df             	mov    rdi,rbx
2538:	e8 23 f3 ff ff       	call   1860 <__overflow@plt>
253d:	eb d0                	jmp    250f <prog_fprintf+0xdf>
253f:	e8 ec f2 ff ff       	call   1830 <__stack_chk_fail@plt>
2544:	66 2e 0f 1f 84 00 00 	nop    WORD PTR cs:[rax+rax*1+0x0]
254b:	00 00 00
254e:	66 90                	xchg   ax,ax

0000000000002550 <close_stdout_set_file_name>:
2550:	48 89 3d 81 9b 20 00 	mov    QWORD PTR [rip+0x209b81],rdi        # 20c0d8 <file_name>
2557:	c3                   	ret
2558:	0f 1f 84 00 00 00 00 	nop    DWORD PTR [rax+rax*1+0x0]
255f:	00

0000000000002560 <close_stdout_set_ignore_EPIPE>:
2560:	40 88 3d 69 9b 20 00 	mov    BYTE PTR [rip+0x209b69],dil        # 20c0d0 <ignore_EPIPE>
2567:	c3                   	ret
2568:	0f 1f 84 00 00 00 00 	nop    DWORD PTR [rax+rax*1+0x0]
256f:	00

0000000000002570 <close_stdout>:
2570:	55                   	push   rbp
2571:	53                   	push   rbx
2572:	48 83 ec 08          	sub    rsp,0x8
2576:	48 8b 3d 0b 9b 20 00 	mov    rdi,QWORD PTR [rip+0x209b0b]        # 20c088 <stdout@@GLIBC_2.2.5>
257d:	e8 de 37 00 00       	call   5d60 <close_stream>
2582:	85 c0                	test   eax,eax
2584:	74 16                	je     259c <close_stdout+0x2c>
2586:	e8 c5 f1 ff ff       	call   1750 <__errno_location@plt>
258b:	80 3d 3e 9b 20 00 00 	cmp    BYTE PTR [rip+0x209b3e],0x0        # 20c0d0 <ignore_EPIPE>
2592:	48 89 c3             	mov    rbx,rax
2595:	74 1c                	je     25b3 <close_stdout+0x43>
2597:	83 38 20             	cmp    DWORD PTR [rax],0x20
259a:	75 17                	jne    25b3 <close_stdout+0x43>
259c:	48 8b 3d 1d 9b 20 00 	mov    rdi,QWORD PTR [rip+0x209b1d]        # 20c0c0 <stderr@@GLIBC_2.2.5>
25a3:	e8 b8 37 00 00       	call   5d60 <close_stream>
25a8:	85 c0                	test   eax,eax
25aa:	75 46                	jne    25f2 <close_stdout+0x82>
25ac:	48 83 c4 08          	add    rsp,0x8
25b0:	5b                   	pop    rbx
25b1:	5d                   	pop    rbp
25b2:	c3                   	ret
25b3:	48 8d 35 df 66 00 00 	lea    rsi,[rip+0x66df]        # 8c99 <_IO_stdin_used+0x559>
25ba:	31 ff                	xor    edi,edi
25bc:	ba 05 00 00 00       	mov    edx,0x5
25c1:	e8 2a f2 ff ff       	call   17f0 <dcgettext@plt>
25c6:	48 8b 3d 0b 9b 20 00 	mov    rdi,QWORD PTR [rip+0x209b0b]        # 20c0d8 <file_name>
25cd:	48 89 c5             	mov    rbp,rax
25d0:	48 85 ff             	test   rdi,rdi
25d3:	74 28                	je     25fd <close_stdout+0x8d>
25d5:	e8 d6 24 00 00       	call   4ab0 <quotearg_colon>
25da:	8b 33                	mov    esi,DWORD PTR [rbx]
25dc:	48 8d 15 c2 66 00 00 	lea    rdx,[rip+0x66c2]        # 8ca5 <_IO_stdin_used+0x565>
25e3:	48 89 c1             	mov    rcx,rax
25e6:	49 89 e8             	mov    r8,rbp
25e9:	31 ff                	xor    edi,edi
25eb:	31 c0                	xor    eax,eax
25ed:	e8 1e f4 ff ff       	call   1a10 <error@plt>
25f2:	8b 3d 20 9a 20 00    	mov    edi,DWORD PTR [rip+0x209a20]        # 20c018 <exit_failure>
25f8:	e8 73 f1 ff ff       	call   1770 <_exit@plt>
25fd:	8b 33                	mov    esi,DWORD PTR [rbx]
25ff:	48 8d 15 a3 66 00 00 	lea    rdx,[rip+0x66a3]        # 8ca9 <_IO_stdin_used+0x569>
2606:	48 89 c1             	mov    rcx,rax
2609:	31 ff                	xor    edi,edi
260b:	31 c0                	xor    eax,eax
260d:	e8 fe f3 ff ff       	call   1a10 <error@plt>
2612:	eb de                	jmp    25f2 <close_stdout+0x82>
2614:	66 2e 0f 1f 84 00 00 	nop    WORD PTR cs:[rax+rax*1+0x0]
261b:	00 00 00
261e:	66 90                	xchg   ax,ax

0000000000002620 <make_dir_parents>:
2620:	41 57                	push   r15
2622:	41 56                	push   r14
2624:	49 89 cf             	mov    r15,rcx
2627:	41 55                	push   r13
2629:	41 54                	push   r12
262b:	49 89 f6             	mov    r14,rsi
262e:	55                   	push   rbp
262f:	53                   	push   rbx
2630:	49 89 d5             	mov    r13,rdx
2633:	48 89 fb             	mov    rbx,rdi
2636:	45 89 c4             	mov    r12d,r8d
2639:	48 81 ec c8 00 00 00 	sub    rsp,0xc8
2640:	8b 84 24 18 01 00 00 	mov    eax,DWORD PTR [rsp+0x118]
2647:	89 44 24 18          	mov    DWORD PTR [rsp+0x18],eax
264b:	64 48 8b 04 25 28 00 	mov    rax,QWORD PTR fs:0x28
2652:	00 00
2654:	48 89 84 24 b8 00 00 	mov    QWORD PTR [rsp+0xb8],rax
265b:	00
265c:	31 c0                	xor    eax,eax
265e:	80 3f 2f             	cmp    BYTE PTR [rdi],0x2f
2661:	74 09                	je     266c <make_dir_parents+0x4c>
2663:	83 3e 04             	cmp    DWORD PTR [rsi],0x4
2666:	0f 84 44 01 00 00    	je     27b0 <make_dir_parents+0x190>
266c:	4d 85 ed             	test   r13,r13
266f:	0f 84 2b 01 00 00    	je     27a0 <make_dir_parents+0x180>
2675:	4c 89 f9             	mov    rcx,r15
2678:	4c 89 ea             	mov    rdx,r13
267b:	4c 89 f6             	mov    rsi,r14
267e:	48 89 df             	mov    rdi,rbx
2681:	4c 89 4c 24 08       	mov    QWORD PTR [rsp+0x8],r9
2686:	e8 65 38 00 00       	call   5ef0 <mkancesdirs>
268b:	48 85 c0             	test   rax,rax
268e:	0f 88 dc 02 00 00    	js     2970 <make_dir_parents+0x350>
2694:	4c 8b 4c 24 08       	mov    r9,QWORD PTR [rsp+0x8]
2699:	48 01 d8             	add    rax,rbx
269c:	48 89 04 24          	mov    QWORD PTR [rsp],rax
26a0:	83 bc 24 08 01 00 00 	cmp    DWORD PTR [rsp+0x108],0xffffffff
26a7:	ff
26a8:	8b 84 24 00 01 00 00 	mov    eax,DWORD PTR [rsp+0x100]
26af:	44 89 e6             	mov    esi,r12d
26b2:	0f 94 c1             	sete   cl
26b5:	83 bc 24 10 01 00 00 	cmp    DWORD PTR [rsp+0x110],0xffffffff
26bc:	ff
26bd:	0f 94 c2             	sete   dl
26c0:	25 00 0c 00 00       	and    eax,0xc00
26c5:	81 e6 00 02 00 00    	and    esi,0x200
26cb:	09 f0                	or     eax,esi
26cd:	20 d1                	and    cl,dl
26cf:	88 4c 24 1f          	mov    BYTE PTR [rsp+0x1f],cl
26d3:	0f 85 47 01 00 00    	jne    2820 <make_dir_parents+0x200>
26d9:	44 89 e0             	mov    eax,r12d
26dc:	83 e0 c0             	and    eax,0xffffffc0
26df:	89 44 24 08          	mov    DWORD PTR [rsp+0x8],eax
26e3:	8b 74 24 08          	mov    esi,DWORD PTR [rsp+0x8]
26e7:	48 8b 3c 24          	mov    rdi,QWORD PTR [rsp]
26eb:	4c 89 4c 24 10       	mov    QWORD PTR [rsp+0x10],r9
26f0:	e8 9b f0 ff ff       	call   1790 <mkdir@plt>
26f5:	85 c0                	test   eax,eax
26f7:	89 c5                	mov    ebp,eax
26f9:	4c 8b 4c 24 10       	mov    r9,QWORD PTR [rsp+0x10]
26fe:	0f 84 8c 01 00 00    	je     2890 <make_dir_parents+0x270>
2704:	e8 47 f0 ff ff       	call   1750 <__errno_location@plt>
2709:	80 7c 24 18 00       	cmp    BYTE PTR [rsp+0x18],0x0
270e:	49 89 c7             	mov    r15,rax
2711:	8b 28                	mov    ebp,DWORD PTR [rax]
2713:	0f 84 97 02 00 00    	je     29b0 <make_dir_parents+0x390>
2719:	85 ed                	test   ebp,ebp
271b:	0f 84 4b 01 00 00    	je     286c <make_dir_parents+0x24c>
2721:	83 fd 02             	cmp    ebp,0x2
2724:	41 0f 95 c4          	setne  r12b
2728:	4d 85 ed             	test   r13,r13
272b:	0f 95 c0             	setne  al
272e:	41 20 c4             	and    r12b,al
2731:	0f 84 84 00 00 00    	je     27bb <make_dir_parents+0x19b>
2737:	48 8b 34 24          	mov    rsi,QWORD PTR [rsp]
273b:	48 8d 54 24 20       	lea    rdx,[rsp+0x20]
2740:	bf 01 00 00 00       	mov    edi,0x1
2745:	e8 d6 f1 ff ff       	call   1920 <__xstat@plt>
274a:	85 c0                	test   eax,eax
274c:	0f 84 3e 02 00 00    	je     2990 <make_dir_parents+0x370>
2752:	83 fd 11             	cmp    ebp,0x11
2755:	75 64                	jne    27bb <make_dir_parents+0x19b>
2757:	41 8b 07             	mov    eax,DWORD PTR [r15]
275a:	83 f8 14             	cmp    eax,0x14
275d:	74 5c                	je     27bb <make_dir_parents+0x19b>
275f:	83 f8 02             	cmp    eax,0x2
2762:	74 57                	je     27bb <make_dir_parents+0x19b>
2764:	48 89 df             	mov    rdi,rbx
2767:	45 31 e4             	xor    r12d,r12d
276a:	e8 41 25 00 00       	call   4cb0 <quote>
276f:	48 8d 35 38 65 00 00 	lea    rsi,[rip+0x6538]        # 8cae <_IO_stdin_used+0x56e>
2776:	ba 05 00 00 00       	mov    edx,0x5
277b:	31 ff                	xor    edi,edi
277d:	48 89 c3             	mov    rbx,rax
2780:	e8 6b f0 ff ff       	call   17f0 <dcgettext@plt>
2785:	41 8b 37             	mov    esi,DWORD PTR [r15]
2788:	48 89 c2             	mov    rdx,rax
278b:	48 89 d9             	mov    rcx,rbx
278e:	31 ff                	xor    edi,edi
2790:	31 c0                	xor    eax,eax
2792:	e8 79 f2 ff ff       	call   1a10 <error@plt>
2797:	eb 54                	jmp    27ed <make_dir_parents+0x1cd>
2799:	0f 1f 80 00 00 00 00 	nop    DWORD PTR [rax+0x0]
27a0:	48 89 1c 24          	mov    QWORD PTR [rsp],rbx
27a4:	e9 f7 fe ff ff       	jmp    26a0 <make_dir_parents+0x80>
27a9:	0f 1f 80 00 00 00 00 	nop    DWORD PTR [rax+0x0]
27b0:	8b 6e 04             	mov    ebp,DWORD PTR [rsi+0x4]
27b3:	85 ed                	test   ebp,ebp
27b5:	0f 84 b1 fe ff ff    	je     266c <make_dir_parents+0x4c>
27bb:	48 89 df             	mov    rdi,rbx
27be:	45 31 e4             	xor    r12d,r12d
27c1:	e8 ea 24 00 00       	call   4cb0 <quote>
27c6:	48 8d 35 f0 64 00 00 	lea    rsi,[rip+0x64f0]        # 8cbd <_IO_stdin_used+0x57d>
27cd:	48 89 c3             	mov    rbx,rax
27d0:	ba 05 00 00 00       	mov    edx,0x5
27d5:	31 ff                	xor    edi,edi
27d7:	e8 14 f0 ff ff       	call   17f0 <dcgettext@plt>
27dc:	48 89 d9             	mov    rcx,rbx
27df:	48 89 c2             	mov    rdx,rax
27e2:	89 ee                	mov    esi,ebp
27e4:	31 ff                	xor    edi,edi
27e6:	31 c0                	xor    eax,eax
27e8:	e8 23 f2 ff ff       	call   1a10 <error@plt>
27ed:	48 8b bc 24 b8 00 00 	mov    rdi,QWORD PTR [rsp+0xb8]
27f4:	00
27f5:	64 48 33 3c 25 28 00 	xor    rdi,QWORD PTR fs:0x28
27fc:	00 00
27fe:	44 89 e0             	mov    eax,r12d
2801:	0f 85 ce 01 00 00    	jne    29d5 <make_dir_parents+0x3b5>
2807:	48 81 c4 c8 00 00 00 	add    rsp,0xc8
280e:	5b                   	pop    rbx
280f:	5d                   	pop    rbp
2810:	41 5c                	pop    r12
2812:	41 5d                	pop    r13
2814:	41 5e                	pop    r14
2816:	41 5f                	pop    r15
2818:	c3                   	ret
2819:	0f 1f 80 00 00 00 00 	nop    DWORD PTR [rax+0x0]
2820:	85 c0                	test   eax,eax
2822:	75 5c                	jne    2880 <make_dir_parents+0x260>
2824:	48 8b 3c 24          	mov    rdi,QWORD PTR [rsp]
2828:	44 89 e6             	mov    esi,r12d
282b:	4c 89 4c 24 10       	mov    QWORD PTR [rsp+0x10],r9
2830:	e8 5b ef ff ff       	call   1790 <mkdir@plt>
2835:	85 c0                	test   eax,eax
2837:	89 c5                	mov    ebp,eax
2839:	0f 85 c5 fe ff ff    	jne    2704 <make_dir_parents+0xe4>
283f:	44 89 e0             	mov    eax,r12d
2842:	4c 89 fe             	mov    rsi,r15
2845:	48 89 df             	mov    rdi,rbx
2848:	25 ff 01 00 00       	and    eax,0x1ff
284d:	23 84 24 00 01 00 00 	and    eax,DWORD PTR [rsp+0x100]
2854:	4c 8b 4c 24 10       	mov    r9,QWORD PTR [rsp+0x10]
2859:	89 44 24 08          	mov    DWORD PTR [rsp+0x8],eax
285d:	41 ff d1             	call   r9
2860:	8b 74 24 08          	mov    esi,DWORD PTR [rsp+0x8]
2864:	85 f6                	test   esi,esi
2866:	0f 85 6e 01 00 00    	jne    29da <make_dir_parents+0x3ba>
286c:	41 bc 01 00 00 00    	mov    r12d,0x1
2872:	e9 76 ff ff ff       	jmp    27ed <make_dir_parents+0x1cd>
2877:	66 0f 1f 84 00 00 00 	nop    WORD PTR [rax+rax*1+0x0]
287e:	00 00
2880:	44 89 e0             	mov    eax,r12d
2883:	83 e0 ed             	and    eax,0xffffffed
2886:	89 44 24 08          	mov    DWORD PTR [rsp+0x8],eax
288a:	e9 54 fe ff ff       	jmp    26e3 <make_dir_parents+0xc3>
288f:	90                   	nop
2890:	4c 89 fe             	mov    rsi,r15
2893:	48 89 df             	mov    rdi,rbx
2896:	41 ff d1             	call   r9
2899:	ba 03 00 00 00       	mov    edx,0x3
289e:	4c 8b 3c 24          	mov    r15,QWORD PTR [rsp]
28a2:	48 8d 4c 24 20       	lea    rcx,[rsp+0x20]
28a7:	4c 89 f7             	mov    rdi,r14
28aa:	4c 89 fe             	mov    rsi,r15
28ad:	e8 4e 24 00 00       	call   4d00 <savewd_chdir>
28b2:	83 f8 ff             	cmp    eax,0xffffffff
28b5:	7c b5                	jl     286c <make_dir_parents+0x24c>
28b7:	85 c0                	test   eax,eax
28b9:	48 8d 05 ec 63 00 00 	lea    rax,[rip+0x63ec]        # 8cac <_IO_stdin_used+0x56c>
28c0:	45 89 e1             	mov    r9d,r12d
28c3:	49 0f 45 c7          	cmovne rax,r15
28c7:	48 83 ec 08          	sub    rsp,0x8
28cb:	8b 94 24 08 01 00 00 	mov    edx,DWORD PTR [rsp+0x108]
28d2:	48 89 c6             	mov    rsi,rax
28d5:	52                   	push   rdx
28d6:	44 8b 84 24 20 01 00 	mov    r8d,DWORD PTR [rsp+0x120]
28dd:	00
28de:	8b 8c 24 18 01 00 00 	mov    ecx,DWORD PTR [rsp+0x118]
28e5:	8b 54 24 18          	mov    edx,DWORD PTR [rsp+0x18]
28e9:	8b 7c 24 30          	mov    edi,DWORD PTR [rsp+0x30]
28ed:	e8 6e 37 00 00       	call   6060 <dirchownmod>
28f2:	85 c0                	test   eax,eax
28f4:	5a                   	pop    rdx
28f5:	59                   	pop    rcx
28f6:	0f 84 70 ff ff ff    	je     286c <make_dir_parents+0x24c>
28fc:	85 ed                	test   ebp,ebp
28fe:	0f 84 c4 00 00 00    	je     29c8 <make_dir_parents+0x3a8>
2904:	83 fd 02             	cmp    ebp,0x2
2907:	0f 84 ae fe ff ff    	je     27bb <make_dir_parents+0x19b>
290d:	4d 85 ed             	test   r13,r13
2910:	0f 84 a5 fe ff ff    	je     27bb <make_dir_parents+0x19b>
2916:	e8 35 ee ff ff       	call   1750 <__errno_location@plt>
291b:	83 38 14             	cmp    DWORD PTR [rax],0x14
291e:	49 89 c4             	mov    r12,rax
2921:	0f 84 94 fe ff ff    	je     27bb <make_dir_parents+0x19b>
2927:	48 89 df             	mov    rdi,rbx
292a:	e8 81 23 00 00       	call   4cb0 <quote>
292f:	80 7c 24 1f 00       	cmp    BYTE PTR [rsp+0x1f],0x0
2934:	48 89 c3             	mov    rbx,rax
2937:	48 8d 35 ba 63 00 00 	lea    rsi,[rip+0x63ba]        # 8cf8 <_IO_stdin_used+0x5b8>
293e:	48 8d 05 93 63 00 00 	lea    rax,[rip+0x6393]        # 8cd8 <_IO_stdin_used+0x598>
2945:	ba 05 00 00 00       	mov    edx,0x5
294a:	48 0f 45 f0          	cmovne rsi,rax
294e:	31 ff                	xor    edi,edi
2950:	e8 9b ee ff ff       	call   17f0 <dcgettext@plt>
2955:	41 8b 34 24          	mov    esi,DWORD PTR [r12]
2959:	48 89 c2             	mov    rdx,rax
295c:	48 89 d9             	mov    rcx,rbx
295f:	31 ff                	xor    edi,edi
2961:	31 c0                	xor    eax,eax
2963:	45 31 e4             	xor    r12d,r12d
2966:	e8 a5 f0 ff ff       	call   1a10 <error@plt>
296b:	e9 7d fe ff ff       	jmp    27ed <make_dir_parents+0x1cd>
2970:	48 83 f8 ff          	cmp    rax,0xffffffffffffffff
2974:	0f 85 f2 fe ff ff    	jne    286c <make_dir_parents+0x24c>
297a:	e8 d1 ed ff ff       	call   1750 <__errno_location@plt>
297f:	8b 28                	mov    ebp,DWORD PTR [rax]
2981:	e9 35 fe ff ff       	jmp    27bb <make_dir_parents+0x19b>
2986:	66 2e 0f 1f 84 00 00 	nop    WORD PTR cs:[rax+rax*1+0x0]
298d:	00 00 00
2990:	8b 44 24 38          	mov    eax,DWORD PTR [rsp+0x38]
2994:	25 00 f0 00 00       	and    eax,0xf000
2999:	3d 00 40 00 00       	cmp    eax,0x4000
299e:	0f 85 17 fe ff ff    	jne    27bb <make_dir_parents+0x19b>
29a4:	e9 44 fe ff ff       	jmp    27ed <make_dir_parents+0x1cd>
29a9:	0f 1f 80 00 00 00 00 	nop    DWORD PTR [rax+0x0]
29b0:	c7 44 24 08 ff ff ff 	mov    DWORD PTR [rsp+0x8],0xffffffff
29b7:	ff
29b8:	ba 02 00 00 00       	mov    edx,0x2
29bd:	e9 dc fe ff ff       	jmp    289e <make_dir_parents+0x27e>
29c2:	66 0f 1f 44 00 00    	nop    WORD PTR [rax+rax*1+0x0]
29c8:	e8 83 ed ff ff       	call   1750 <__errno_location@plt>
29cd:	49 89 c4             	mov    r12,rax
29d0:	e9 52 ff ff ff       	jmp    2927 <make_dir_parents+0x307>
29d5:	e8 56 ee ff ff       	call   1830 <__stack_chk_fail@plt>
29da:	44 89 64 24 08       	mov    DWORD PTR [rsp+0x8],r12d
29df:	ba 03 00 00 00       	mov    edx,0x3
29e4:	e9 b5 fe ff ff       	jmp    289e <make_dir_parents+0x27e>
29e9:	0f 1f 80 00 00 00 00 	nop    DWORD PTR [rax+0x0]

00000000000029f0 <mode_compile>:
29f0:	55                   	push   rbp
29f1:	53                   	push   rbx
29f2:	48 89 fb             	mov    rbx,rdi
29f5:	48 83 ec 08          	sub    rsp,0x8
29f9:	0f be 07             	movsx  eax,BYTE PTR [rdi]
29fc:	8d 50 d0             	lea    edx,[rax-0x30]
29ff:	80 fa 07             	cmp    dl,0x7
2a02:	0f 86 b0 00 00 00    	jbe    2ab8 <mode_compile+0xc8>
2a08:	84 c0                	test   al,al
2a0a:	48 89 f9             	mov    rcx,rdi
2a0d:	bf 01 00 00 00       	mov    edi,0x1
2a12:	74 27                	je     2a3b <mode_compile+0x4b>
2a14:	0f 1f 40 00          	nop    DWORD PTR [rax+0x0]
2a18:	89 c2                	mov    edx,eax
2a1a:	83 e2 ef             	and    edx,0xffffffef
2a1d:	80 fa 2d             	cmp    dl,0x2d
2a20:	0f 94 c2             	sete   dl
2a23:	3c 2b                	cmp    al,0x2b
2a25:	0f 94 c0             	sete   al
2a28:	48 83 c1 01          	add    rcx,0x1
2a2c:	09 d0                	or     eax,edx
2a2e:	0f b6 c0             	movzx  eax,al
2a31:	48 01 c7             	add    rdi,rax
2a34:	0f b6 01             	movzx  eax,BYTE PTR [rcx]
2a37:	84 c0                	test   al,al
2a39:	75 dd                	jne    2a18 <mode_compile+0x28>
2a3b:	ba 10 00 00 00       	mov    edx,0x10
2a40:	31 c9                	xor    ecx,ecx
2a42:	48 89 d0             	mov    rax,rdx
2a45:	48 f7 e7             	mul    rdi
2a48:	0f 80 11 03 00 00    	jo     2d5f <mode_compile+0x36f>
2a4e:	48 85 c0             	test   rax,rax
2a51:	0f 88 12 03 00 00    	js     2d69 <mode_compile+0x379>
2a57:	48 85 c9             	test   rcx,rcx
2a5a:	0f 85 09 03 00 00    	jne    2d69 <mode_compile+0x379>
2a60:	48 c1 e7 04          	shl    rdi,0x4
2a64:	48 8d 2d b9 62 00 00 	lea    rbp,[rip+0x62b9]        # 8d24 <_IO_stdin_used+0x5e4>
2a6b:	e8 d0 2e 00 00       	call   5940 <xmalloc>
2a70:	31 f6                	xor    esi,esi
2a72:	45 31 db             	xor    r11d,r11d
2a75:	44 0f b6 0b          	movzx  r9d,BYTE PTR [rbx]
2a79:	41 80 f9 61          	cmp    r9b,0x61
2a7d:	0f 84 4d 02 00 00    	je     2cd0 <mode_compile+0x2e0>
2a83:	7e 6b                	jle    2af0 <mode_compile+0x100>
2a85:	41 80 f9 6f          	cmp    r9b,0x6f
2a89:	0f 84 71 02 00 00    	je     2d00 <mode_compile+0x310>
2a8f:	41 80 f9 75          	cmp    r9b,0x75
2a93:	0f 84 57 02 00 00    	je     2cf0 <mode_compile+0x300>
2a99:	41 80 f9 67          	cmp    r9b,0x67
2a9d:	0f 84 3d 02 00 00    	je     2ce0 <mode_compile+0x2f0>
2aa3:	48 89 c7             	mov    rdi,rax
2aa6:	e8 85 ec ff ff       	call   1730 <free@plt>
2aab:	31 c0                	xor    eax,eax
2aad:	48 83 c4 08          	add    rsp,0x8
2ab1:	5b                   	pop    rbx
2ab2:	5d                   	pop    rbp
2ab3:	c3                   	ret
2ab4:	0f 1f 40 00          	nop    DWORD PTR [rax+0x0]
2ab8:	48 89 fa             	mov    rdx,rdi
2abb:	31 ed                	xor    ebp,ebp
2abd:	eb 10                	jmp    2acf <mode_compile+0xdf>
2abf:	90                   	nop
2ac0:	0f be 02             	movsx  eax,BYTE PTR [rdx]
2ac3:	8d 48 d0             	lea    ecx,[rax-0x30]
2ac6:	80 f9 07             	cmp    cl,0x7
2ac9:	0f 87 41 02 00 00    	ja     2d10 <mode_compile+0x320>
2acf:	8d 6c e8 d0          	lea    ebp,[rax+rbp*8-0x30]
2ad3:	48 83 c2 01          	add    rdx,0x1
2ad7:	81 fd ff 0f 00 00    	cmp    ebp,0xfff
2add:	76 e1                	jbe    2ac0 <mode_compile+0xd0>
2adf:	48 83 c4 08          	add    rsp,0x8
2ae3:	31 c0                	xor    eax,eax
2ae5:	5b                   	pop    rbx
2ae6:	5d                   	pop    rbp
2ae7:	c3                   	ret
2ae8:	0f 1f 84 00 00 00 00 	nop    DWORD PTR [rax+rax*1+0x0]
2aef:	00
2af0:	41 80 f9 2d          	cmp    r9b,0x2d
2af4:	74 0c                	je     2b02 <mode_compile+0x112>
2af6:	41 80 f9 3d          	cmp    r9b,0x3d
2afa:	74 06                	je     2b02 <mode_compile+0x112>
2afc:	41 80 f9 2b          	cmp    r9b,0x2b
2b00:	75 a1                	jne    2aa3 <mode_compile+0xb3>
2b02:	48 8d 7e 01          	lea    rdi,[rsi+0x1]
2b06:	48 c1 e6 04          	shl    rsi,0x4
2b0a:	48 01 c6             	add    rsi,rax
2b0d:	eb 65                	jmp    2b74 <mode_compile+0x184>
2b0f:	90                   	nop
2b10:	80 fa 6f             	cmp    dl,0x6f
2b13:	4c 8d 43 02          	lea    r8,[rbx+0x2]
2b17:	0f 84 93 01 00 00    	je     2cb0 <mode_compile+0x2c0>
2b1d:	80 fa 75             	cmp    dl,0x75
2b20:	41 ba c0 01 00 00    	mov    r10d,0x1c0
2b26:	0f 85 d4 00 00 00    	jne    2c00 <mode_compile+0x210>
2b2c:	44 88 0e             	mov    BYTE PTR [rsi],r9b
2b2f:	c6 46 01 03          	mov    BYTE PTR [rsi+0x1],0x3
2b33:	44 0f b6 4b 02       	movzx  r9d,BYTE PTR [rbx+0x2]
2b38:	44 89 5e 04          	mov    DWORD PTR [rsi+0x4],r11d
2b3c:	4c 89 c3             	mov    rbx,r8
2b3f:	44 89 56 08          	mov    DWORD PTR [rsi+0x8],r10d
2b43:	44 89 d2             	mov    edx,r10d
2b46:	44 21 da             	and    edx,r11d
2b49:	45 85 db             	test   r11d,r11d
2b4c:	44 0f 45 d2          	cmovne r10d,edx
2b50:	44 89 ca             	mov    edx,r9d
2b53:	44 89 56 0c          	mov    DWORD PTR [rsi+0xc],r10d
2b57:	48 83 c6 10          	add    rsi,0x10
2b5b:	83 e2 ef             	and    edx,0xffffffef
2b5e:	48 8d 4f 01          	lea    rcx,[rdi+0x1]
2b62:	80 fa 2d             	cmp    dl,0x2d
2b65:	74 0a                	je     2b71 <mode_compile+0x181>
2b67:	41 80 f9 2b          	cmp    r9b,0x2b
2b6b:	0f 85 ff 01 00 00    	jne    2d70 <mode_compile+0x380>
2b71:	48 89 cf             	mov    rdi,rcx
2b74:	0f be 53 01          	movsx  edx,BYTE PTR [rbx+0x1]
2b78:	48 8d 4b 01          	lea    rcx,[rbx+0x1]
2b7c:	80 fa 67             	cmp    dl,0x67
2b7f:	0f 84 3b 01 00 00    	je     2cc0 <mode_compile+0x2d0>
2b85:	7f 89                	jg     2b10 <mode_compile+0x120>
2b87:	44 8d 42 d0          	lea    r8d,[rdx-0x30]
2b8b:	41 80 f8 07          	cmp    r8b,0x7
2b8f:	77 6f                	ja     2c00 <mode_compile+0x210>
2b91:	45 31 c0             	xor    r8d,r8d
2b94:	0f 1f 40 00          	nop    DWORD PTR [rax+0x0]
2b98:	46 8d 44 c2 d0       	lea    r8d,[rdx+r8*8-0x30]
2b9d:	48 83 c1 01          	add    rcx,0x1
2ba1:	41 81 f8 ff 0f 00 00 	cmp    r8d,0xfff
2ba8:	0f 87 f5 fe ff ff    	ja     2aa3 <mode_compile+0xb3>
2bae:	0f be 11             	movsx  edx,BYTE PTR [rcx]
2bb1:	44 8d 52 d0          	lea    r10d,[rdx-0x30]
2bb5:	41 80 fa 07          	cmp    r10b,0x7
2bb9:	76 dd                	jbe    2b98 <mode_compile+0x1a8>
2bbb:	45 85 db             	test   r11d,r11d
2bbe:	0f 85 df fe ff ff    	jne    2aa3 <mode_compile+0xb3>
2bc4:	84 d2                	test   dl,dl
2bc6:	74 09                	je     2bd1 <mode_compile+0x1e1>
2bc8:	80 fa 2c             	cmp    dl,0x2c
2bcb:	0f 85 d2 fe ff ff    	jne    2aa3 <mode_compile+0xb3>
2bd1:	44 88 0e             	mov    BYTE PTR [rsi],r9b
2bd4:	c6 46 01 01          	mov    BYTE PTR [rsi+0x1],0x1
2bd8:	41 89 d1             	mov    r9d,edx
2bdb:	c7 46 04 ff 0f 00 00 	mov    DWORD PTR [rsi+0x4],0xfff
2be2:	44 89 46 08          	mov    DWORD PTR [rsi+0x8],r8d
2be6:	48 89 cb             	mov    rbx,rcx
2be9:	41 bb ff 0f 00 00    	mov    r11d,0xfff
2bef:	41 ba ff 0f 00 00    	mov    r10d,0xfff
2bf5:	e9 56 ff ff ff       	jmp    2b50 <mode_compile+0x160>
2bfa:	66 0f 1f 44 00 00    	nop    WORD PTR [rax+rax*1+0x0]
2c00:	44 8d 42 a8          	lea    r8d,[rdx-0x58]
2c04:	45 31 d2             	xor    r10d,r10d
2c07:	bb 01 00 00 00       	mov    ebx,0x1
2c0c:	41 80 f8 20          	cmp    r8b,0x20
2c10:	77 37                	ja     2c49 <mode_compile+0x259>
2c12:	66 0f 1f 44 00 00    	nop    WORD PTR [rax+rax*1+0x0]
2c18:	45 0f b6 c0          	movzx  r8d,r8b
2c1c:	4e 63 44 85 00       	movsxd r8,DWORD PTR [rbp+r8*4+0x0]
2c21:	49 01 e8             	add    r8,rbp
2c24:	41 ff e0             	jmp    r8
2c27:	66 0f 1f 84 00 00 00 	nop    WORD PTR [rax+rax*1+0x0]
2c2e:	00 00
2c30:	bb 02 00 00 00       	mov    ebx,0x2
2c35:	0f 1f 00             	nop    DWORD PTR [rax]
2c38:	48 83 c1 01          	add    rcx,0x1
2c3c:	0f b6 11             	movzx  edx,BYTE PTR [rcx]
2c3f:	44 8d 42 a8          	lea    r8d,[rdx-0x58]
2c43:	41 80 f8 20          	cmp    r8b,0x20
2c47:	76 cf                	jbe    2c18 <mode_compile+0x228>
2c49:	44 88 0e             	mov    BYTE PTR [rsi],r9b
2c4c:	88 5e 01             	mov    BYTE PTR [rsi+0x1],bl
2c4f:	41 89 d1             	mov    r9d,edx
2c52:	44 89 5e 04          	mov    DWORD PTR [rsi+0x4],r11d
2c56:	44 89 56 08          	mov    DWORD PTR [rsi+0x8],r10d
2c5a:	48 89 cb             	mov    rbx,rcx
2c5d:	e9 e1 fe ff ff       	jmp    2b43 <mode_compile+0x153>
2c62:	66 0f 1f 44 00 00    	nop    WORD PTR [rax+rax*1+0x0]
2c68:	41 83 ca 49          	or     r10d,0x49
2c6c:	eb ca                	jmp    2c38 <mode_compile+0x248>
2c6e:	66 90                	xchg   ax,ax
2c70:	41 80 ca 92          	or     r10b,0x92
2c74:	eb c2                	jmp    2c38 <mode_compile+0x248>
2c76:	66 2e 0f 1f 84 00 00 	nop    WORD PTR cs:[rax+rax*1+0x0]
2c7d:	00 00 00
2c80:	41 81 ca 00 02 00 00 	or     r10d,0x200
2c87:	eb af                	jmp    2c38 <mode_compile+0x248>
2c89:	0f 1f 80 00 00 00 00 	nop    DWORD PTR [rax+0x0]
2c90:	41 81 ca 00 0c 00 00 	or     r10d,0xc00
2c97:	eb 9f                	jmp    2c38 <mode_compile+0x248>
2c99:	0f 1f 80 00 00 00 00 	nop    DWORD PTR [rax+0x0]
2ca0:	41 81 ca 24 01 00 00 	or     r10d,0x124
2ca7:	eb 8f                	jmp    2c38 <mode_compile+0x248>
2ca9:	0f 1f 80 00 00 00 00 	nop    DWORD PTR [rax+0x0]
2cb0:	41 ba 07 00 00 00    	mov    r10d,0x7
2cb6:	e9 71 fe ff ff       	jmp    2b2c <mode_compile+0x13c>
2cbb:	0f 1f 44 00 00       	nop    DWORD PTR [rax+rax*1+0x0]
2cc0:	4c 8d 43 02          	lea    r8,[rbx+0x2]
2cc4:	41 ba 38 00 00 00    	mov    r10d,0x38
2cca:	e9 5d fe ff ff       	jmp    2b2c <mode_compile+0x13c>
2ccf:	90                   	nop
2cd0:	41 bb ff 0f 00 00    	mov    r11d,0xfff
2cd6:	48 83 c3 01          	add    rbx,0x1
2cda:	e9 96 fd ff ff       	jmp    2a75 <mode_compile+0x85>
2cdf:	90                   	nop
2ce0:	41 81 cb 38 04 00 00 	or     r11d,0x438
2ce7:	eb ed                	jmp    2cd6 <mode_compile+0x2e6>
2ce9:	0f 1f 80 00 00 00 00 	nop    DWORD PTR [rax+0x0]
2cf0:	41 81 cb c0 09 00 00 	or     r11d,0x9c0
2cf7:	eb dd                	jmp    2cd6 <mode_compile+0x2e6>
2cf9:	0f 1f 80 00 00 00 00 	nop    DWORD PTR [rax+0x0]
2d00:	41 81 cb 07 02 00 00 	or     r11d,0x207
2d07:	eb cd                	jmp    2cd6 <mode_compile+0x2e6>
2d09:	0f 1f 80 00 00 00 00 	nop    DWORD PTR [rax+0x0]
2d10:	84 c0                	test   al,al
2d12:	0f 85 c7 fd ff ff    	jne    2adf <mode_compile+0xef>
2d18:	48 29 da             	sub    rdx,rbx
2d1b:	89 eb                	mov    ebx,ebp
2d1d:	b8 ff 0f 00 00       	mov    eax,0xfff
2d22:	81 e3 00 0c 00 00    	and    ebx,0xc00
2d28:	bf 20 00 00 00       	mov    edi,0x20
2d2d:	81 cb ff 03 00 00    	or     ebx,0x3ff
2d33:	48 83 fa 05          	cmp    rdx,0x5
2d37:	0f 4d d8             	cmovge ebx,eax
2d3a:	e8 01 2c 00 00       	call   5940 <xmalloc>
2d3f:	ba 3d 01 00 00       	mov    edx,0x13d
2d44:	c7 40 04 ff 0f 00 00 	mov    DWORD PTR [rax+0x4],0xfff
2d4b:	89 68 08             	mov    DWORD PTR [rax+0x8],ebp
2d4e:	66 89 10             	mov    WORD PTR [rax],dx
2d51:	89 58 0c             	mov    DWORD PTR [rax+0xc],ebx
2d54:	c6 40 11 00          	mov    BYTE PTR [rax+0x11],0x0
2d58:	48 83 c4 08          	add    rsp,0x8
2d5c:	5b                   	pop    rbx
2d5d:	5d                   	pop    rbp
2d5e:	c3                   	ret
2d5f:	b9 01 00 00 00       	mov    ecx,0x1
2d64:	e9 e5 fc ff ff       	jmp    2a4e <mode_compile+0x5e>
2d69:	e8 22 2e 00 00       	call   5b90 <xalloc_die>
2d6e:	66 90                	xchg   ax,ax
2d70:	41 80 f9 2c          	cmp    r9b,0x2c
2d74:	75 0c                	jne    2d82 <mode_compile+0x392>
2d76:	48 83 c3 01          	add    rbx,0x1
2d7a:	48 89 fe             	mov    rsi,rdi
2d7d:	e9 f0 fc ff ff       	jmp    2a72 <mode_compile+0x82>
2d82:	45 84 c9             	test   r9b,r9b
2d85:	0f 85 18 fd ff ff    	jne    2aa3 <mode_compile+0xb3>
2d8b:	48 c1 e7 04          	shl    rdi,0x4
2d8f:	c6 44 38 01 00       	mov    BYTE PTR [rax+rdi*1+0x1],0x0
2d94:	e9 14 fd ff ff       	jmp    2aad <mode_compile+0xbd>
2d99:	0f 1f 80 00 00 00 00 	nop    DWORD PTR [rax+0x0]

0000000000002da0 <mode_create_from_ref>:
2da0:	53                   	push   rbx
2da1:	48 89 fe             	mov    rsi,rdi
2da4:	bf 01 00 00 00       	mov    edi,0x1
2da9:	48 81 ec a0 00 00 00 	sub    rsp,0xa0
2db0:	48 89 e2             	mov    rdx,rsp
2db3:	64 48 8b 04 25 28 00 	mov    rax,QWORD PTR fs:0x28
2dba:	00 00
2dbc:	48 89 84 24 98 00 00 	mov    QWORD PTR [rsp+0x98],rax
2dc3:	00
2dc4:	31 c0                	xor    eax,eax
2dc6:	e8 55 eb ff ff       	call   1920 <__xstat@plt>
2dcb:	85 c0                	test   eax,eax
2dcd:	75 51                	jne    2e20 <mode_create_from_ref+0x80>
2dcf:	8b 5c 24 18          	mov    ebx,DWORD PTR [rsp+0x18]
2dd3:	bf 20 00 00 00       	mov    edi,0x20
2dd8:	e8 63 2b 00 00       	call   5940 <xmalloc>
2ddd:	ba 3d 01 00 00       	mov    edx,0x13d
2de2:	c7 40 04 ff 0f 00 00 	mov    DWORD PTR [rax+0x4],0xfff
2de9:	c7 40 0c ff 0f 00 00 	mov    DWORD PTR [rax+0xc],0xfff
2df0:	66 89 10             	mov    WORD PTR [rax],dx
2df3:	89 58 08             	mov    DWORD PTR [rax+0x8],ebx
2df6:	c6 40 11 00          	mov    BYTE PTR [rax+0x11],0x0
2dfa:	48 8b 8c 24 98 00 00 	mov    rcx,QWORD PTR [rsp+0x98]
2e01:	00
2e02:	64 48 33 0c 25 28 00 	xor    rcx,QWORD PTR fs:0x28
2e09:	00 00
2e0b:	75 17                	jne    2e24 <mode_create_from_ref+0x84>
2e0d:	48 81 c4 a0 00 00 00 	add    rsp,0xa0
2e14:	5b                   	pop    rbx
2e15:	c3                   	ret
2e16:	66 2e 0f 1f 84 00 00 	nop    WORD PTR cs:[rax+rax*1+0x0]
2e1d:	00 00 00
2e20:	31 c0                	xor    eax,eax
2e22:	eb d6                	jmp    2dfa <mode_create_from_ref+0x5a>
2e24:	e8 07 ea ff ff       	call   1830 <__stack_chk_fail@plt>
2e29:	0f 1f 80 00 00 00 00 	nop    DWORD PTR [rax+0x0]

0000000000002e30 <mode_adjust>:
2e30:	44 0f b6 51 01       	movzx  r10d,BYTE PTR [rcx+0x1]
2e35:	89 f8                	mov    eax,edi
2e37:	25 ff 0f 00 00       	and    eax,0xfff
2e3c:	45 84 d2             	test   r10b,r10b
2e3f:	0f 84 4b 01 00 00    	je     2f90 <mode_adjust+0x160>
2e45:	40 80 fe 01          	cmp    sil,0x1
2e49:	41 54                	push   r12
2e4b:	55                   	push   rbp
2e4c:	53                   	push   rbx
2e4d:	19 db                	sbb    ebx,ebx
2e4f:	40 0f b6 ee          	movzx  ebp,sil
2e53:	f7 d3                	not    ebx
2e55:	45 31 db             	xor    r11d,r11d
2e58:	81 e3 00 0c 00 00    	and    ebx,0xc00
2e5e:	eb 3a                	jmp    2e9a <mode_adjust+0x6a>
2e60:	44 89 cf             	mov    edi,r9d
2e63:	09 d7                	or     edi,edx
2e65:	f7 d7                	not    edi
2e67:	21 fe                	and    esi,edi
2e69:	41 80 fc 2d          	cmp    r12b,0x2d
2e6d:	0f 84 0d 01 00 00    	je     2f80 <mode_adjust+0x150>
2e73:	41 80 fc 3d          	cmp    r12b,0x3d
2e77:	0f 84 ae 00 00 00    	je     2f2b <mode_adjust+0xfb>
2e7d:	41 80 fc 2b          	cmp    r12b,0x2b
2e81:	75 05                	jne    2e88 <mode_adjust+0x58>
2e83:	41 09 f3             	or     r11d,esi
2e86:	09 f0                	or     eax,esi
2e88:	48 83 c1 10          	add    rcx,0x10
2e8c:	44 0f b6 51 01       	movzx  r10d,BYTE PTR [rcx+0x1]
2e91:	45 84 d2             	test   r10b,r10b
2e94:	0f 84 b2 00 00 00    	je     2f4c <mode_adjust+0x11c>
2e9a:	44 8b 49 0c          	mov    r9d,DWORD PTR [rcx+0xc]
2e9e:	8b 79 04             	mov    edi,DWORD PTR [rcx+0x4]
2ea1:	8b 71 08             	mov    esi,DWORD PTR [rcx+0x8]
2ea4:	41 f7 d1             	not    r9d
2ea7:	41 21 d9             	and    r9d,ebx
2eaa:	41 80 fa 02          	cmp    r10b,0x2
2eae:	0f 84 ac 00 00 00    	je     2f60 <mode_adjust+0x130>
2eb4:	41 80 fa 03          	cmp    r10b,0x3
2eb8:	75 3e                	jne    2ef8 <mode_adjust+0xc8>
2eba:	21 c6                	and    esi,eax
2ebc:	41 89 f2             	mov    r10d,esi
2ebf:	41 81 e2 24 01 00 00 	and    r10d,0x124
2ec6:	41 83 fa 01          	cmp    r10d,0x1
2eca:	45 19 d2             	sbb    r10d,r10d
2ecd:	41 f7 d2             	not    r10d
2ed0:	41 81 e2 24 01 00 00 	and    r10d,0x124
2ed7:	45 89 d4             	mov    r12d,r10d
2eda:	41 80 cc 92          	or     r12b,0x92
2ede:	40 f6 c6 92          	test   sil,0x92
2ee2:	45 0f 45 d4          	cmovne r10d,r12d
2ee6:	45 89 d4             	mov    r12d,r10d
2ee9:	41 83 cc 49          	or     r12d,0x49
2eed:	40 f6 c6 49          	test   sil,0x49
2ef1:	45 0f 45 d4          	cmovne r10d,r12d
2ef5:	44 09 d6             	or     esi,r10d
2ef8:	45 89 ca             	mov    r10d,r9d
2efb:	85 ff                	test   edi,edi
2efd:	44 0f b6 21          	movzx  r12d,BYTE PTR [rcx]
2f01:	41 f7 d2             	not    r10d
2f04:	0f 84 56 ff ff ff    	je     2e60 <mode_adjust+0x30>
2f0a:	41 21 fa             	and    r10d,edi
2f0d:	44 21 d6             	and    esi,r10d
2f10:	41 80 fc 2d          	cmp    r12b,0x2d
2f14:	74 6a                	je     2f80 <mode_adjust+0x150>
2f16:	41 80 fc 3d          	cmp    r12b,0x3d
2f1a:	0f 85 5d ff ff ff    	jne    2e7d <mode_adjust+0x4d>
2f20:	f7 d7                	not    edi
2f22:	41 09 f9             	or     r9d,edi
2f25:	45 89 ca             	mov    r10d,r9d
2f28:	41 f7 d2             	not    r10d
2f2b:	41 81 e2 ff 0f 00 00 	and    r10d,0xfff
2f32:	48 83 c1 10          	add    rcx,0x10
2f36:	44 21 c8             	and    eax,r9d
2f39:	45 09 d3             	or     r11d,r10d
2f3c:	44 0f b6 51 01       	movzx  r10d,BYTE PTR [rcx+0x1]
2f41:	09 f0                	or     eax,esi
2f43:	45 84 d2             	test   r10b,r10b
2f46:	0f 85 4e ff ff ff    	jne    2e9a <mode_adjust+0x6a>
2f4c:	4d 85 c0             	test   r8,r8
2f4f:	74 03                	je     2f54 <mode_adjust+0x124>
2f51:	45 89 18             	mov    DWORD PTR [r8],r11d
2f54:	5b                   	pop    rbx
2f55:	5d                   	pop    rbp
2f56:	41 5c                	pop    r12
2f58:	c3                   	ret
2f59:	0f 1f 80 00 00 00 00 	nop    DWORD PTR [rax+0x0]
2f60:	41 89 c4             	mov    r12d,eax
2f63:	41 89 f2             	mov    r10d,esi
2f66:	41 83 e4 49          	and    r12d,0x49
2f6a:	41 83 ca 49          	or     r10d,0x49
2f6e:	41 09 ec             	or     r12d,ebp
2f71:	41 0f 45 f2          	cmovne esi,r10d
2f75:	eb 81                	jmp    2ef8 <mode_adjust+0xc8>
2f77:	66 0f 1f 84 00 00 00 	nop    WORD PTR [rax+rax*1+0x0]
2f7e:	00 00
2f80:	41 09 f3             	or     r11d,esi
2f83:	f7 d6                	not    esi
2f85:	21 f0                	and    eax,esi
2f87:	e9 fc fe ff ff       	jmp    2e88 <mode_adjust+0x58>
2f8c:	0f 1f 40 00          	nop    DWORD PTR [rax+0x0]
2f90:	45 31 db             	xor    r11d,r11d
2f93:	4d 85 c0             	test   r8,r8
2f96:	74 03                	je     2f9b <mode_adjust+0x16b>
2f98:	45 89 18             	mov    DWORD PTR [r8],r11d
2f9b:	f3 c3                	repz ret
2f9d:	0f 1f 00             	nop    DWORD PTR [rax]

0000000000002fa0 <set_program_name>:
2fa0:	48 85 ff             	test   rdi,rdi
2fa3:	53                   	push   rbx
2fa4:	74 77                	je     301d <set_program_name+0x7d>
2fa6:	be 2f 00 00 00       	mov    esi,0x2f
2fab:	48 89 fb             	mov    rbx,rdi
2fae:	e8 bd e8 ff ff       	call   1870 <strrchr@plt>
2fb3:	48 85 c0             	test   rax,rax
2fb6:	74 55                	je     300d <set_program_name+0x6d>
2fb8:	4c 8d 40 01          	lea    r8,[rax+0x1]
2fbc:	4c 89 c2             	mov    rdx,r8
2fbf:	48 29 da             	sub    rdx,rbx
2fc2:	48 83 fa 06          	cmp    rdx,0x6
2fc6:	7e 45                	jle    300d <set_program_name+0x6d>
2fc8:	48 8d 70 fa          	lea    rsi,[rax-0x6]
2fcc:	48 8d 3d 0d 5e 00 00 	lea    rdi,[rip+0x5e0d]        # 8de0 <_IO_stdin_used+0x6a0>
2fd3:	b9 07 00 00 00       	mov    ecx,0x7
2fd8:	f3 a6                	repz cmps BYTE PTR ds:[rsi],BYTE PTR es:[rdi]
2fda:	0f 97 c2             	seta   dl
2fdd:	80 da 00             	sbb    dl,0x0
2fe0:	84 d2                	test   dl,dl
2fe2:	75 29                	jne    300d <set_program_name+0x6d>
2fe4:	48 8d 3d fd 5d 00 00 	lea    rdi,[rip+0x5dfd]        # 8de8 <_IO_stdin_used+0x6a8>
2feb:	b9 03 00 00 00       	mov    ecx,0x3
2ff0:	4c 89 c6             	mov    rsi,r8
2ff3:	4c 89 c3             	mov    rbx,r8
2ff6:	f3 a6                	repz cmps BYTE PTR ds:[rsi],BYTE PTR es:[rdi]
2ff8:	0f 97 c2             	seta   dl
2ffb:	80 da 00             	sbb    dl,0x0
2ffe:	84 d2                	test   dl,dl
3000:	75 0b                	jne    300d <set_program_name+0x6d>
3002:	48 8d 58 04          	lea    rbx,[rax+0x4]
3006:	48 89 1d 73 90 20 00 	mov    QWORD PTR [rip+0x209073],rbx        # 20c080 <__progname@@GLIBC_2.2.5>
300d:	48 89 1d cc 90 20 00 	mov    QWORD PTR [rip+0x2090cc],rbx        # 20c0e0 <program_name>
3014:	48 89 1d 85 90 20 00 	mov    QWORD PTR [rip+0x209085],rbx        # 20c0a0 <__progname_full@@GLIBC_2.2.5>
301b:	5b                   	pop    rbx
301c:	c3                   	ret
301d:	48 8b 0d 9c 90 20 00 	mov    rcx,QWORD PTR [rip+0x20909c]        # 20c0c0 <stderr@@GLIBC_2.2.5>
3024:	48 8d 3d 7d 5d 00 00 	lea    rdi,[rip+0x5d7d]        # 8da8 <_IO_stdin_used+0x668>
302b:	ba 37 00 00 00       	mov    edx,0x37
3030:	be 01 00 00 00       	mov    esi,0x1
3035:	e8 46 ea ff ff       	call   1a80 <fwrite@plt>
303a:	e8 01 e7 ff ff       	call   1740 <abort@plt>
303f:	90                   	nop

0000000000003040 <gettext_quote.part.1>:
3040:	55                   	push   rbp
3041:	53                   	push   rbx
3042:	48 89 fd             	mov    rbp,rdi
3045:	89 f3                	mov    ebx,esi
3047:	48 83 ec 08          	sub    rsp,0x8
304b:	e8 60 2e 00 00       	call   5eb0 <locale_charset>
3050:	0f b6 10             	movzx  edx,BYTE PTR [rax]
3053:	83 e2 df             	and    edx,0xffffffdf
3056:	80 fa 55             	cmp    dl,0x55
3059:	74 75                	je     30d0 <gettext_quote.part.1+0x90>
305b:	80 fa 47             	cmp    dl,0x47
305e:	74 20                	je     3080 <gettext_quote.part.1+0x40>
3060:	48 8d 05 94 5d 00 00 	lea    rax,[rip+0x5d94]        # 8dfb <_IO_stdin_used+0x6bb>
3067:	48 8d 15 8f 5d 00 00 	lea    rdx,[rip+0x5d8f]        # 8dfd <_IO_stdin_used+0x6bd>
306e:	83 fb 09             	cmp    ebx,0x9
3071:	48 0f 45 c2          	cmovne rax,rdx
3075:	48 83 c4 08          	add    rsp,0x8
3079:	5b                   	pop    rbx
307a:	5d                   	pop    rbp
307b:	c3                   	ret
307c:	0f 1f 40 00          	nop    DWORD PTR [rax+0x0]
3080:	0f b6 50 01          	movzx  edx,BYTE PTR [rax+0x1]
3084:	83 e2 df             	and    edx,0xffffffdf
3087:	80 fa 42             	cmp    dl,0x42
308a:	75 d4                	jne    3060 <gettext_quote.part.1+0x20>
308c:	80 78 02 31          	cmp    BYTE PTR [rax+0x2],0x31
3090:	75 ce                	jne    3060 <gettext_quote.part.1+0x20>
3092:	80 78 03 38          	cmp    BYTE PTR [rax+0x3],0x38
3096:	75 c8                	jne    3060 <gettext_quote.part.1+0x20>
3098:	80 78 04 30          	cmp    BYTE PTR [rax+0x4],0x30
309c:	75 c2                	jne    3060 <gettext_quote.part.1+0x20>
309e:	80 78 05 33          	cmp    BYTE PTR [rax+0x5],0x33
30a2:	75 bc                	jne    3060 <gettext_quote.part.1+0x20>
30a4:	80 78 06 30          	cmp    BYTE PTR [rax+0x6],0x30
30a8:	75 b6                	jne    3060 <gettext_quote.part.1+0x20>
30aa:	80 78 07 00          	cmp    BYTE PTR [rax+0x7],0x0
30ae:	75 b0                	jne    3060 <gettext_quote.part.1+0x20>
30b0:	80 7d 00 60          	cmp    BYTE PTR [rbp+0x0],0x60
30b4:	48 8d 05 39 5d 00 00 	lea    rax,[rip+0x5d39]        # 8df4 <_IO_stdin_used+0x6b4>
30bb:	48 8d 15 36 5d 00 00 	lea    rdx,[rip+0x5d36]        # 8df8 <_IO_stdin_used+0x6b8>
30c2:	48 0f 45 c2          	cmovne rax,rdx
30c6:	48 83 c4 08          	add    rsp,0x8
30ca:	5b                   	pop    rbx
30cb:	5d                   	pop    rbp
30cc:	c3                   	ret
30cd:	0f 1f 00             	nop    DWORD PTR [rax]
30d0:	0f b6 50 01          	movzx  edx,BYTE PTR [rax+0x1]
30d4:	83 e2 df             	and    edx,0xffffffdf
30d7:	80 fa 54             	cmp    dl,0x54
30da:	75 84                	jne    3060 <gettext_quote.part.1+0x20>
30dc:	0f b6 50 02          	movzx  edx,BYTE PTR [rax+0x2]
30e0:	83 e2 df             	and    edx,0xffffffdf
30e3:	80 fa 46             	cmp    dl,0x46
30e6:	0f 85 74 ff ff ff    	jne    3060 <gettext_quote.part.1+0x20>
30ec:	80 78 03 2d          	cmp    BYTE PTR [rax+0x3],0x2d
30f0:	0f 85 6a ff ff ff    	jne    3060 <gettext_quote.part.1+0x20>
30f6:	80 78 04 38          	cmp    BYTE PTR [rax+0x4],0x38
30fa:	0f 85 60 ff ff ff    	jne    3060 <gettext_quote.part.1+0x20>
3100:	80 78 05 00          	cmp    BYTE PTR [rax+0x5],0x0
3104:	0f 85 56 ff ff ff    	jne    3060 <gettext_quote.part.1+0x20>
310a:	80 7d 00 60          	cmp    BYTE PTR [rbp+0x0],0x60
310e:	48 8d 05 d7 5c 00 00 	lea    rax,[rip+0x5cd7]        # 8dec <_IO_stdin_used+0x6ac>
3115:	48 8d 15 d4 5c 00 00 	lea    rdx,[rip+0x5cd4]        # 8df0 <_IO_stdin_used+0x6b0>
311c:	48 0f 45 c2          	cmovne rax,rdx
3120:	48 83 c4 08          	add    rsp,0x8
3124:	5b                   	pop    rbx
3125:	5d                   	pop    rbp
3126:	c3                   	ret
3127:	66 0f 1f 84 00 00 00 	nop    WORD PTR [rax+rax*1+0x0]
312e:	00 00

0000000000003130 <quotearg_buffer_restyled>:
3130:	41 57                	push   r15
3132:	41 56                	push   r14
3134:	45 89 c7             	mov    r15d,r8d
3137:	41 55                	push   r13
3139:	41 54                	push   r12
313b:	49 89 fe             	mov    r14,rdi
313e:	55                   	push   rbp
313f:	53                   	push   rbx
3140:	44 89 cb             	mov    ebx,r9d
3143:	49 89 f5             	mov    r13,rsi
3146:	48 89 cd             	mov    rbp,rcx
3149:	83 e3 02             	and    ebx,0x2
314c:	48 81 ec b8 00 00 00 	sub    rsp,0xb8
3153:	48 8b 84 24 f0 00 00 	mov    rax,QWORD PTR [rsp+0xf0]
315a:	00
315b:	48 89 54 24 10       	mov    QWORD PTR [rsp+0x10],rdx
3160:	44 89 44 24 08       	mov    DWORD PTR [rsp+0x8],r8d
3165:	44 89 4c 24 78       	mov    DWORD PTR [rsp+0x78],r9d
316a:	48 89 44 24 20       	mov    QWORD PTR [rsp+0x20],rax
316f:	48 8b 84 24 f8 00 00 	mov    rax,QWORD PTR [rsp+0xf8]
3176:	00
3177:	48 89 44 24 68       	mov    QWORD PTR [rsp+0x68],rax
317c:	48 8b 84 24 00 01 00 	mov    rax,QWORD PTR [rsp+0x100]
3183:	00
3184:	48 89 44 24 60       	mov    QWORD PTR [rsp+0x60],rax
3189:	64 48 8b 04 25 28 00 	mov    rax,QWORD PTR fs:0x28
3190:	00 00
3192:	48 89 84 24 a8 00 00 	mov    QWORD PTR [rsp+0xa8],rax
3199:	00
319a:	31 c0                	xor    eax,eax
319c:	e8 5f e6 ff ff       	call   1800 <__ctype_get_mb_cur_max@plt>
31a1:	41 83 ff 0a          	cmp    r15d,0xa
31a5:	48 89 44 24 58       	mov    QWORD PTR [rsp+0x58],rax
31aa:	0f 87 af 11 00 00    	ja     435f <quotearg_buffer_restyled+0x122f>
31b0:	48 8d 0d a9 5c 00 00 	lea    rcx,[rip+0x5ca9]        # 8e60 <_IO_stdin_used+0x720>
31b7:	44 89 fa             	mov    edx,r15d
31ba:	48 63 04 91          	movsxd rax,DWORD PTR [rcx+rdx*4]
31be:	48 01 c8             	add    rax,rcx
31c1:	ff e0                	jmp    rax
31c3:	c6 44 24 0e 01       	mov    BYTE PTR [rsp+0xe],0x1
31c8:	c6 44 24 7c 00       	mov    BYTE PTR [rsp+0x7c],0x0
31cd:	45 31 e4             	xor    r12d,r12d
31d0:	48 c7 44 24 50 00 00 	mov    QWORD PTR [rsp+0x50],0x0
31d7:	00 00
31d9:	c6 44 24 0f 01       	mov    BYTE PTR [rsp+0xf],0x1
31de:	c6 44 24 0d 00       	mov    BYTE PTR [rsp+0xd],0x0
31e3:	48 8d 05 13 5c 00 00 	lea    rax,[rip+0x5c13]        # 8dfd <_IO_stdin_used+0x6bd>
31ea:	48 c7 44 24 18 01 00 	mov    QWORD PTR [rsp+0x18],0x1
31f1:	00 00
31f3:	45 31 ff             	xor    r15d,r15d
31f6:	c7 44 24 08 02 00 00 	mov    DWORD PTR [rsp+0x8],0x2
31fd:	00
31fe:	48 89 44 24 48       	mov    QWORD PTR [rsp+0x48],rax
3203:	45 31 db             	xor    r11d,r11d
3206:	48 89 e8             	mov    rax,rbp
3209:	45 89 e0             	mov    r8d,r12d
320c:	4c 89 dd             	mov    rbp,r11
320f:	49 89 c3             	mov    r11,rax
3212:	66 0f 1f 44 00 00    	nop    WORD PTR [rax+rax*1+0x0]
3218:	49 39 eb             	cmp    r11,rbp
321b:	41 0f 95 c4          	setne  r12b
321f:	49 83 fb ff          	cmp    r11,0xffffffffffffffff
3223:	75 0d                	jne    3232 <quotearg_buffer_restyled+0x102>
3225:	48 8b 44 24 10       	mov    rax,QWORD PTR [rsp+0x10]
322a:	80 3c 28 00          	cmp    BYTE PTR [rax+rbp*1],0x0
322e:	41 0f 95 c4          	setne  r12b
3232:	45 84 e4             	test   r12b,r12b
3235:	0f 84 55 06 00 00    	je     3890 <quotearg_buffer_restyled+0x760>
323b:	83 7c 24 08 02       	cmp    DWORD PTR [rsp+0x8],0x2
3240:	48 8b 7c 24 10       	mov    rdi,QWORD PTR [rsp+0x10]
3245:	4c 8d 0c 2f          	lea    r9,[rdi+rbp*1]
3249:	0f 95 c0             	setne  al
324c:	22 44 24 0d          	and    al,BYTE PTR [rsp+0xd]
3250:	41 89 c2             	mov    r10d,eax
3253:	0f 84 a7 00 00 00    	je     3300 <quotearg_buffer_restyled+0x1d0>
3259:	48 8b 44 24 18       	mov    rax,QWORD PTR [rsp+0x18]
325e:	48 85 c0             	test   rax,rax
3261:	0f 84 29 04 00 00    	je     3690 <quotearg_buffer_restyled+0x560>
3267:	49 83 fb ff          	cmp    r11,0xffffffffffffffff
326b:	48 8d 5c 05 00       	lea    rbx,[rbp+rax*1+0x0]
3270:	75 2e                	jne    32a0 <quotearg_buffer_restyled+0x170>
3272:	48 83 f8 01          	cmp    rax,0x1
3276:	76 28                	jbe    32a0 <quotearg_buffer_restyled+0x170>
3278:	44 88 44 24 38       	mov    BYTE PTR [rsp+0x38],r8b
327d:	44 88 54 24 30       	mov    BYTE PTR [rsp+0x30],r10b
3282:	4c 89 4c 24 28       	mov    QWORD PTR [rsp+0x28],r9
3287:	e8 84 e5 ff ff       	call   1810 <strlen@plt>
328c:	44 0f b6 44 24 38    	movzx  r8d,BYTE PTR [rsp+0x38]
3292:	44 0f b6 54 24 30    	movzx  r10d,BYTE PTR [rsp+0x30]
3298:	49 89 c3             	mov    r11,rax
329b:	4c 8b 4c 24 28       	mov    r9,QWORD PTR [rsp+0x28]
32a0:	4c 39 db             	cmp    rbx,r11
32a3:	44 88 54 24 28       	mov    BYTE PTR [rsp+0x28],r10b
32a8:	0f 87 b2 05 00 00    	ja     3860 <quotearg_buffer_restyled+0x730>
32ae:	48 8b 54 24 18       	mov    rdx,QWORD PTR [rsp+0x18]
32b3:	48 8b 74 24 48       	mov    rsi,QWORD PTR [rsp+0x48]
32b8:	4c 89 cf             	mov    rdi,r9
32bb:	4c 89 5c 24 40       	mov    QWORD PTR [rsp+0x40],r11
32c0:	44 88 44 24 38       	mov    BYTE PTR [rsp+0x38],r8b
32c5:	4c 89 4c 24 30       	mov    QWORD PTR [rsp+0x30],r9
32ca:	e8 f1 e5 ff ff       	call   18c0 <memcmp@plt>
32cf:	85 c0                	test   eax,eax
32d1:	4c 8b 4c 24 30       	mov    r9,QWORD PTR [rsp+0x30]
32d6:	44 0f b6 44 24 38    	movzx  r8d,BYTE PTR [rsp+0x38]
32dc:	4c 8b 5c 24 40       	mov    r11,QWORD PTR [rsp+0x40]
32e1:	0f 85 79 05 00 00    	jne    3860 <quotearg_buffer_restyled+0x730>
32e7:	80 7c 24 0f 00       	cmp    BYTE PTR [rsp+0xf],0x0
32ec:	44 0f b6 54 24 28    	movzx  r10d,BYTE PTR [rsp+0x28]
32f2:	0f 85 7d 0f 00 00    	jne    4275 <quotearg_buffer_restyled+0x1145>
32f8:	0f 1f 84 00 00 00 00 	nop    DWORD PTR [rax+rax*1+0x0]
32ff:	00
3300:	41 0f b6 19          	movzx  ebx,BYTE PTR [r9]
3304:	80 fb 7e             	cmp    bl,0x7e
3307:	0f 87 1b 03 00 00    	ja     3628 <quotearg_buffer_restyled+0x4f8>
330d:	48 8d 0d 78 5b 00 00 	lea    rcx,[rip+0x5b78]        # 8e8c <_IO_stdin_used+0x74c>
3314:	0f b6 d3             	movzx  edx,bl
3317:	48 63 04 91          	movsxd rax,DWORD PTR [rcx+rdx*4]
331b:	48 01 c8             	add    rax,rcx
331e:	ff e0                	jmp    rax
3320:	45 31 d2             	xor    r10d,r10d
3323:	49 83 fb 01          	cmp    r11,0x1
3327:	0f 95 c0             	setne  al
332a:	49 83 fb ff          	cmp    r11,0xffffffffffffffff
332e:	75 0c                	jne    333c <quotearg_buffer_restyled+0x20c>
3330:	48 8b 44 24 10       	mov    rax,QWORD PTR [rsp+0x10]
3335:	80 78 01 00          	cmp    BYTE PTR [rax+0x1],0x0
3339:	0f 95 c0             	setne  al
333c:	83 7c 24 08 02       	cmp    DWORD PTR [rsp+0x8],0x2
3341:	0f 94 c2             	sete   dl
3344:	84 c0                	test   al,al
3346:	0f 84 4c 02 00 00    	je     3598 <quotearg_buffer_restyled+0x468>
334c:	45 31 e4             	xor    r12d,r12d
334f:	31 c0                	xor    eax,eax
3351:	0f 1f 80 00 00 00 00 	nop    DWORD PTR [rax+0x0]
3358:	80 7c 24 0d 01       	cmp    BYTE PTR [rsp+0xd],0x1
335d:	0f 85 0f 01 00 00    	jne    3472 <quotearg_buffer_restyled+0x342>
3363:	84 d2                	test   dl,dl
3365:	0f 85 07 01 00 00    	jne    3472 <quotearg_buffer_restyled+0x342>
336b:	48 8b 74 24 20       	mov    rsi,QWORD PTR [rsp+0x20]
3370:	48 85 f6             	test   rsi,rsi
3373:	74 14                	je     3389 <quotearg_buffer_restyled+0x259>
3375:	89 da                	mov    edx,ebx
3377:	c0 ea 05             	shr    dl,0x5
337a:	0f b6 d2             	movzx  edx,dl
337d:	8b 14 96             	mov    edx,DWORD PTR [rsi+rdx*4]
3380:	0f a3 da             	bt     edx,ebx
3383:	0f 82 4a 01 00 00    	jb     34d3 <quotearg_buffer_restyled+0x3a3>
3389:	45 84 d2             	test   r10b,r10b
338c:	0f 85 41 01 00 00    	jne    34d3 <quotearg_buffer_restyled+0x3a3>
3392:	83 f0 01             	xor    eax,0x1
3395:	48 83 c5 01          	add    rbp,0x1
3399:	44 21 c0             	and    eax,r8d
339c:	84 c0                	test   al,al
339e:	74 20                	je     33c0 <quotearg_buffer_restyled+0x290>
33a0:	4d 39 fd             	cmp    r13,r15
33a3:	76 05                	jbe    33aa <quotearg_buffer_restyled+0x27a>
33a5:	43 c6 04 3e 27       	mov    BYTE PTR [r14+r15*1],0x27
33aa:	49 8d 47 01          	lea    rax,[r15+0x1]
33ae:	49 39 c5             	cmp    r13,rax
33b1:	76 06                	jbe    33b9 <quotearg_buffer_restyled+0x289>
33b3:	43 c6 44 3e 01 27    	mov    BYTE PTR [r14+r15*1+0x1],0x27
33b9:	49 83 c7 02          	add    r15,0x2
33bd:	45 31 c0             	xor    r8d,r8d
33c0:	4d 39 ef             	cmp    r15,r13
33c3:	73 04                	jae    33c9 <quotearg_buffer_restyled+0x299>
33c5:	43 88 1c 3e          	mov    BYTE PTR [r14+r15*1],bl
33c9:	0f b6 7c 24 0e       	movzx  edi,BYTE PTR [rsp+0xe]
33ce:	49 83 c7 01          	add    r15,0x1
33d2:	b8 00 00 00 00       	mov    eax,0x0
33d7:	45 84 e4             	test   r12b,r12b
33da:	0f 44 f8             	cmove  edi,eax
33dd:	40 88 7c 24 0e       	mov    BYTE PTR [rsp+0xe],dil
33e2:	e9 31 fe ff ff       	jmp    3218 <quotearg_buffer_restyled+0xe8>
33e7:	66 0f 1f 84 00 00 00 	nop    WORD PTR [rax+rax*1+0x0]
33ee:	00 00
33f0:	45 31 d2             	xor    r10d,r10d
33f3:	8b 44 24 08          	mov    eax,DWORD PTR [rsp+0x8]
33f7:	83 f8 02             	cmp    eax,0x2
33fa:	0f 84 b8 05 00 00    	je     39b8 <quotearg_buffer_restyled+0x888>
3400:	83 f8 05             	cmp    eax,0x5
3403:	0f 84 6f 05 00 00    	je     3978 <quotearg_buffer_restyled+0x848>
3409:	83 f8 02             	cmp    eax,0x2
340c:	bb 3f 00 00 00       	mov    ebx,0x3f
3411:	0f 94 c2             	sete   dl
3414:	45 31 e4             	xor    r12d,r12d
3417:	31 c0                	xor    eax,eax
3419:	e9 3a ff ff ff       	jmp    3358 <quotearg_buffer_restyled+0x228>
341e:	66 90                	xchg   ax,ax
3420:	45 31 d2             	xor    r10d,r10d
3423:	83 7c 24 08 02       	cmp    DWORD PTR [rsp+0x8],0x2
3428:	0f 84 02 05 00 00    	je     3930 <quotearg_buffer_restyled+0x800>
342e:	44 88 64 24 7c       	mov    BYTE PTR [rsp+0x7c],r12b
3433:	31 d2                	xor    edx,edx
3435:	31 c0                	xor    eax,eax
3437:	bb 27 00 00 00       	mov    ebx,0x27
343c:	e9 17 ff ff ff       	jmp    3358 <quotearg_buffer_restyled+0x228>
3441:	0f 1f 80 00 00 00 00 	nop    DWORD PTR [rax+0x0]
3448:	ba 09 00 00 00       	mov    edx,0x9
344d:	bb 74 00 00 00       	mov    ebx,0x74
3452:	83 7c 24 08 02       	cmp    DWORD PTR [rsp+0x8],0x2
3457:	0f 94 c0             	sete   al
345a:	22 44 24 0f          	and    al,BYTE PTR [rsp+0xf]
345e:	0f 85 4a 01 00 00    	jne    35ae <quotearg_buffer_restyled+0x47e>
3464:	80 7c 24 0d 00       	cmp    BYTE PTR [rsp+0xd],0x0
3469:	75 65                	jne    34d0 <quotearg_buffer_restyled+0x3a0>
346b:	89 d3                	mov    ebx,edx
346d:	45 31 e4             	xor    r12d,r12d
3470:	31 c0                	xor    eax,eax
3472:	80 7c 24 0f 00       	cmp    BYTE PTR [rsp+0xf],0x0
3477:	0f 85 ee fe ff ff    	jne    336b <quotearg_buffer_restyled+0x23b>
347d:	e9 07 ff ff ff       	jmp    3389 <quotearg_buffer_restyled+0x259>
3482:	66 0f 1f 44 00 00    	nop    WORD PTR [rax+rax*1+0x0]
3488:	ba 08 00 00 00       	mov    edx,0x8
348d:	bb 62 00 00 00       	mov    ebx,0x62
3492:	eb d0                	jmp    3464 <quotearg_buffer_restyled+0x334>
3494:	0f 1f 40 00          	nop    DWORD PTR [rax+0x0]
3498:	83 7c 24 08 02       	cmp    DWORD PTR [rsp+0x8],0x2
349d:	0f 84 cd 03 00 00    	je     3870 <quotearg_buffer_restyled+0x740>
34a3:	80 7c 24 0d 00       	cmp    BYTE PTR [rsp+0xd],0x0
34a8:	0f 84 12 02 00 00    	je     36c0 <quotearg_buffer_restyled+0x590>
34ae:	80 7c 24 0f 00       	cmp    BYTE PTR [rsp+0xf],0x0
34b3:	0f 84 07 02 00 00    	je     36c0 <quotearg_buffer_restyled+0x590>
34b9:	48 83 7c 24 18 00    	cmp    QWORD PTR [rsp+0x18],0x0
34bf:	0f 85 b6 03 00 00    	jne    387b <quotearg_buffer_restyled+0x74b>
34c5:	bb 5c 00 00 00       	mov    ebx,0x5c
34ca:	66 0f 1f 44 00 00    	nop    WORD PTR [rax+rax*1+0x0]
34d0:	45 31 e4             	xor    r12d,r12d
34d3:	83 7c 24 08 02       	cmp    DWORD PTR [rsp+0x8],0x2
34d8:	0f 94 c2             	sete   dl
34db:	80 7c 24 0f 00       	cmp    BYTE PTR [rsp+0xf],0x0
34e0:	89 d0                	mov    eax,edx
34e2:	0f 85 50 08 00 00    	jne    3d38 <quotearg_buffer_restyled+0xc08>
34e8:	44 89 c0             	mov    eax,r8d
34eb:	83 f0 01             	xor    eax,0x1
34ee:	20 d0                	and    al,dl
34f0:	74 2f                	je     3521 <quotearg_buffer_restyled+0x3f1>
34f2:	4d 39 fd             	cmp    r13,r15
34f5:	76 05                	jbe    34fc <quotearg_buffer_restyled+0x3cc>
34f7:	43 c6 04 3e 27       	mov    BYTE PTR [r14+r15*1],0x27
34fc:	49 8d 57 01          	lea    rdx,[r15+0x1]
3500:	49 39 d5             	cmp    r13,rdx
3503:	76 06                	jbe    350b <quotearg_buffer_restyled+0x3db>
3505:	43 c6 44 3e 01 24    	mov    BYTE PTR [r14+r15*1+0x1],0x24
350b:	49 8d 57 02          	lea    rdx,[r15+0x2]
350f:	49 39 d5             	cmp    r13,rdx
3512:	76 06                	jbe    351a <quotearg_buffer_restyled+0x3ea>
3514:	43 c6 44 3e 02 27    	mov    BYTE PTR [r14+r15*1+0x2],0x27
351a:	49 83 c7 03          	add    r15,0x3
351e:	41 89 c0             	mov    r8d,eax
3521:	4d 39 fd             	cmp    r13,r15
3524:	76 05                	jbe    352b <quotearg_buffer_restyled+0x3fb>
3526:	43 c6 04 3e 5c       	mov    BYTE PTR [r14+r15*1],0x5c
352b:	49 83 c7 01          	add    r15,0x1
352f:	48 83 c5 01          	add    rbp,0x1
3533:	e9 88 fe ff ff       	jmp    33c0 <quotearg_buffer_restyled+0x290>
3538:	0f 1f 84 00 00 00 00 	nop    DWORD PTR [rax+rax*1+0x0]
353f:	00
3540:	80 7c 24 0d 00       	cmp    BYTE PTR [rsp+0xd],0x0
3545:	0f 85 c8 01 00 00    	jne    3713 <quotearg_buffer_restyled+0x5e3>
354b:	31 d2                	xor    edx,edx
354d:	f6 44 24 78 01       	test   BYTE PTR [rsp+0x78],0x1
3552:	0f 84 13 ff ff ff    	je     346b <quotearg_buffer_restyled+0x33b>
3558:	48 83 c5 01          	add    rbp,0x1
355c:	e9 b7 fc ff ff       	jmp    3218 <quotearg_buffer_restyled+0xe8>
3561:	0f 1f 80 00 00 00 00 	nop    DWORD PTR [rax+0x0]
3568:	83 7c 24 08 02       	cmp    DWORD PTR [rsp+0x8],0x2
356d:	0f 94 c2             	sete   dl
3570:	31 c0                	xor    eax,eax
3572:	e9 e1 fd ff ff       	jmp    3358 <quotearg_buffer_restyled+0x228>
3577:	66 0f 1f 84 00 00 00 	nop    WORD PTR [rax+rax*1+0x0]
357e:	00 00
3580:	ba 07 00 00 00       	mov    edx,0x7
3585:	bb 61 00 00 00       	mov    ebx,0x61
358a:	e9 d5 fe ff ff       	jmp    3464 <quotearg_buffer_restyled+0x334>
358f:	90                   	nop
3590:	83 7c 24 08 02       	cmp    DWORD PTR [rsp+0x8],0x2
3595:	0f 94 c2             	sete   dl
3598:	48 85 ed             	test   rbp,rbp
359b:	0f 85 ab fd ff ff    	jne    334c <quotearg_buffer_restyled+0x21c>
35a1:	0f b6 44 24 0f       	movzx  eax,BYTE PTR [rsp+0xf]
35a6:	20 d0                	and    al,dl
35a8:	0f 84 aa fd ff ff    	je     3358 <quotearg_buffer_restyled+0x228>
35ae:	4c 89 dd             	mov    rbp,r11
35b1:	c7 44 24 08 02 00 00 	mov    DWORD PTR [rsp+0x8],0x2
35b8:	00
35b9:	e9 fb 06 00 00       	jmp    3cb9 <quotearg_buffer_restyled+0xb89>
35be:	66 90                	xchg   ax,ax
35c0:	83 7c 24 08 02       	cmp    DWORD PTR [rsp+0x8],0x2
35c5:	0f 94 c2             	sete   dl
35c8:	45 31 e4             	xor    r12d,r12d
35cb:	eb d4                	jmp    35a1 <quotearg_buffer_restyled+0x471>
35cd:	0f 1f 00             	nop    DWORD PTR [rax]
35d0:	83 7c 24 08 02       	cmp    DWORD PTR [rsp+0x8],0x2
35d5:	bb 20 00 00 00       	mov    ebx,0x20
35da:	0f 94 c2             	sete   dl
35dd:	eb c2                	jmp    35a1 <quotearg_buffer_restyled+0x471>
35df:	90                   	nop
35e0:	ba 0d 00 00 00       	mov    edx,0xd
35e5:	bb 72 00 00 00       	mov    ebx,0x72
35ea:	e9 63 fe ff ff       	jmp    3452 <quotearg_buffer_restyled+0x322>
35ef:	90                   	nop
35f0:	ba 0c 00 00 00       	mov    edx,0xc
35f5:	bb 66 00 00 00       	mov    ebx,0x66
35fa:	e9 65 fe ff ff       	jmp    3464 <quotearg_buffer_restyled+0x334>
35ff:	90                   	nop
3600:	ba 0b 00 00 00       	mov    edx,0xb
3605:	bb 76 00 00 00       	mov    ebx,0x76
360a:	e9 55 fe ff ff       	jmp    3464 <quotearg_buffer_restyled+0x334>
360f:	90                   	nop
3610:	ba 0a 00 00 00       	mov    edx,0xa
3615:	bb 6e 00 00 00       	mov    ebx,0x6e
361a:	e9 33 fe ff ff       	jmp    3452 <quotearg_buffer_restyled+0x322>
361f:	90                   	nop
3620:	45 31 d2             	xor    r10d,r10d
3623:	0f 1f 44 00 00       	nop    DWORD PTR [rax+rax*1+0x0]
3628:	48 83 7c 24 58 01    	cmp    QWORD PTR [rsp+0x58],0x1
362e:	0f 85 a4 03 00 00    	jne    39d8 <quotearg_buffer_restyled+0x8a8>
3634:	4c 89 5c 24 38       	mov    QWORD PTR [rsp+0x38],r11
3639:	44 88 44 24 30       	mov    BYTE PTR [rsp+0x30],r8b
363e:	44 88 54 24 28       	mov    BYTE PTR [rsp+0x28],r10b
3643:	e8 88 e4 ff ff       	call   1ad0 <__ctype_b_loc@plt>
3648:	48 8b 08             	mov    rcx,QWORD PTR [rax]
364b:	0f b6 d3             	movzx  edx,bl
364e:	44 0f b6 54 24 28    	movzx  r10d,BYTE PTR [rsp+0x28]
3654:	44 0f b6 44 24 30    	movzx  r8d,BYTE PTR [rsp+0x30]
365a:	4c 8b 5c 24 38       	mov    r11,QWORD PTR [rsp+0x38]
365f:	bf 01 00 00 00       	mov    edi,0x1
3664:	0f b7 04 51          	movzx  eax,WORD PTR [rcx+rdx*2]
3668:	66 25 00 40          	and    ax,0x4000
366c:	41 0f 95 c4          	setne  r12b
3670:	0f 94 c0             	sete   al
3673:	22 44 24 0d          	and    al,BYTE PTR [rsp+0xd]
3677:	84 c0                	test   al,al
3679:	0f 85 92 09 00 00    	jne    4011 <quotearg_buffer_restyled+0xee1>
367f:	83 7c 24 08 02       	cmp    DWORD PTR [rsp+0x8],0x2
3684:	0f 94 c2             	sete   dl
3687:	e9 cc fc ff ff       	jmp    3358 <quotearg_buffer_restyled+0x228>
368c:	0f 1f 40 00          	nop    DWORD PTR [rax+0x0]
3690:	41 0f b6 19          	movzx  ebx,BYTE PTR [r9]
3694:	80 fb 7e             	cmp    bl,0x7e
3697:	77 87                	ja     3620 <quotearg_buffer_restyled+0x4f0>
3699:	48 8d 0d e8 59 00 00 	lea    rcx,[rip+0x59e8]        # 9088 <_IO_stdin_used+0x948>
36a0:	0f b6 d3             	movzx  edx,bl
36a3:	48 63 04 91          	movsxd rax,DWORD PTR [rcx+rdx*4]
36a7:	48 01 c8             	add    rax,rcx
36aa:	ff e0                	jmp    rax
36ac:	0f 1f 40 00          	nop    DWORD PTR [rax+0x0]
36b0:	45 31 d2             	xor    r10d,r10d
36b3:	80 7c 24 0d 00       	cmp    BYTE PTR [rsp+0xd],0x0
36b8:	0f 85 f0 fd ff ff    	jne    34ae <quotearg_buffer_restyled+0x37e>
36be:	66 90                	xchg   ax,ax
36c0:	ba 5c 00 00 00       	mov    edx,0x5c
36c5:	bb 5c 00 00 00       	mov    ebx,0x5c
36ca:	e9 95 fd ff ff       	jmp    3464 <quotearg_buffer_restyled+0x334>
36cf:	90                   	nop
36d0:	ba 0c 00 00 00       	mov    edx,0xc
36d5:	45 31 d2             	xor    r10d,r10d
36d8:	bb 66 00 00 00       	mov    ebx,0x66
36dd:	e9 82 fd ff ff       	jmp    3464 <quotearg_buffer_restyled+0x334>
36e2:	66 0f 1f 44 00 00    	nop    WORD PTR [rax+rax*1+0x0]
36e8:	ba 0a 00 00 00       	mov    edx,0xa
36ed:	45 31 d2             	xor    r10d,r10d
36f0:	bb 6e 00 00 00       	mov    ebx,0x6e
36f5:	e9 58 fd ff ff       	jmp    3452 <quotearg_buffer_restyled+0x322>
36fa:	66 0f 1f 44 00 00    	nop    WORD PTR [rax+rax*1+0x0]
3700:	bb 61 00 00 00       	mov    ebx,0x61
3705:	e9 c6 fd ff ff       	jmp    34d0 <quotearg_buffer_restyled+0x3a0>
370a:	66 0f 1f 44 00 00    	nop    WORD PTR [rax+rax*1+0x0]
3710:	45 31 d2             	xor    r10d,r10d
3713:	83 7c 24 08 02       	cmp    DWORD PTR [rsp+0x8],0x2
3718:	0f 94 c2             	sete   dl
371b:	80 7c 24 0f 00       	cmp    BYTE PTR [rsp+0xf],0x0
3720:	0f 85 94 0b 00 00    	jne    42ba <quotearg_buffer_restyled+0x118a>
3726:	44 89 c0             	mov    eax,r8d
3729:	4c 89 f9             	mov    rcx,r15
372c:	83 f0 01             	xor    eax,0x1
372f:	20 d0                	and    al,dl
3731:	74 2d                	je     3760 <quotearg_buffer_restyled+0x630>
3733:	4d 39 fd             	cmp    r13,r15
3736:	76 05                	jbe    373d <quotearg_buffer_restyled+0x60d>
3738:	43 c6 04 3e 27       	mov    BYTE PTR [r14+r15*1],0x27
373d:	49 8d 4f 01          	lea    rcx,[r15+0x1]
3741:	49 39 cd             	cmp    r13,rcx
3744:	76 06                	jbe    374c <quotearg_buffer_restyled+0x61c>
3746:	43 c6 44 3e 01 24    	mov    BYTE PTR [r14+r15*1+0x1],0x24
374c:	49 8d 4f 02          	lea    rcx,[r15+0x2]
3750:	49 39 cd             	cmp    r13,rcx
3753:	0f 87 30 06 00 00    	ja     3d89 <quotearg_buffer_restyled+0xc59>
3759:	49 8d 4f 03          	lea    rcx,[r15+0x3]
375d:	41 89 c0             	mov    r8d,eax
3760:	49 39 cd             	cmp    r13,rcx
3763:	76 05                	jbe    376a <quotearg_buffer_restyled+0x63a>
3765:	41 c6 04 0e 5c       	mov    BYTE PTR [r14+rcx*1],0x5c
376a:	83 7c 24 08 02       	cmp    DWORD PTR [rsp+0x8],0x2
376f:	4c 8d 79 01          	lea    r15,[rcx+0x1]
3773:	0f 84 00 06 00 00    	je     3d79 <quotearg_buffer_restyled+0xc49>
3779:	48 8d 45 01          	lea    rax,[rbp+0x1]
377d:	4c 39 d8             	cmp    rax,r11
3780:	73 19                	jae    379b <quotearg_buffer_restyled+0x66b>
3782:	48 8b 44 24 10       	mov    rax,QWORD PTR [rsp+0x10]
3787:	0f b6 44 28 01       	movzx  eax,BYTE PTR [rax+rbp*1+0x1]
378c:	88 44 24 28          	mov    BYTE PTR [rsp+0x28],al
3790:	83 e8 30             	sub    eax,0x30
3793:	3c 09                	cmp    al,0x9
3795:	0f 86 2e 08 00 00    	jbe    3fc9 <quotearg_buffer_restyled+0xe99>
379b:	44 89 e0             	mov    eax,r12d
379e:	bb 30 00 00 00       	mov    ebx,0x30
37a3:	45 31 e4             	xor    r12d,r12d
37a6:	e9 ad fb ff ff       	jmp    3358 <quotearg_buffer_restyled+0x228>
37ab:	0f 1f 44 00 00       	nop    DWORD PTR [rax+rax*1+0x0]
37b0:	83 7c 24 08 02       	cmp    DWORD PTR [rsp+0x8],0x2
37b5:	45 89 d4             	mov    r12d,r10d
37b8:	0f 94 c2             	sete   dl
37bb:	45 31 d2             	xor    r10d,r10d
37be:	31 c0                	xor    eax,eax
37c0:	e9 93 fb ff ff       	jmp    3358 <quotearg_buffer_restyled+0x228>
37c5:	0f 1f 00             	nop    DWORD PTR [rax]
37c8:	83 7c 24 08 02       	cmp    DWORD PTR [rsp+0x8],0x2
37cd:	0f 94 c2             	sete   dl
37d0:	45 31 d2             	xor    r10d,r10d
37d3:	e9 c0 fd ff ff       	jmp    3598 <quotearg_buffer_restyled+0x468>
37d8:	0f 1f 84 00 00 00 00 	nop    DWORD PTR [rax+rax*1+0x0]
37df:	00
37e0:	83 7c 24 08 02       	cmp    DWORD PTR [rsp+0x8],0x2
37e5:	0f 94 c2             	sete   dl
37e8:	45 31 d2             	xor    r10d,r10d
37eb:	45 31 e4             	xor    r12d,r12d
37ee:	e9 ae fd ff ff       	jmp    35a1 <quotearg_buffer_restyled+0x471>
37f3:	0f 1f 44 00 00       	nop    DWORD PTR [rax+rax*1+0x0]
37f8:	83 7c 24 08 02       	cmp    DWORD PTR [rsp+0x8],0x2
37fd:	45 89 d4             	mov    r12d,r10d
3800:	bb 20 00 00 00       	mov    ebx,0x20
3805:	0f 94 c2             	sete   dl
3808:	45 31 d2             	xor    r10d,r10d
380b:	e9 91 fd ff ff       	jmp    35a1 <quotearg_buffer_restyled+0x471>
3810:	ba 0d 00 00 00       	mov    edx,0xd
3815:	45 31 d2             	xor    r10d,r10d
3818:	bb 72 00 00 00       	mov    ebx,0x72
381d:	e9 30 fc ff ff       	jmp    3452 <quotearg_buffer_restyled+0x322>
3822:	66 0f 1f 44 00 00    	nop    WORD PTR [rax+rax*1+0x0]
3828:	bb 76 00 00 00       	mov    ebx,0x76
382d:	e9 9e fc ff ff       	jmp    34d0 <quotearg_buffer_restyled+0x3a0>
3832:	66 0f 1f 44 00 00    	nop    WORD PTR [rax+rax*1+0x0]
3838:	ba 09 00 00 00       	mov    edx,0x9
383d:	45 31 d2             	xor    r10d,r10d
3840:	bb 74 00 00 00       	mov    ebx,0x74
3845:	e9 08 fc ff ff       	jmp    3452 <quotearg_buffer_restyled+0x322>
384a:	66 0f 1f 44 00 00    	nop    WORD PTR [rax+rax*1+0x0]
3850:	bb 62 00 00 00       	mov    ebx,0x62
3855:	e9 76 fc ff ff       	jmp    34d0 <quotearg_buffer_restyled+0x3a0>
385a:	66 0f 1f 44 00 00    	nop    WORD PTR [rax+rax*1+0x0]
3860:	45 31 d2             	xor    r10d,r10d
3863:	e9 98 fa ff ff       	jmp    3300 <quotearg_buffer_restyled+0x1d0>
3868:	0f 1f 84 00 00 00 00 	nop    DWORD PTR [rax+rax*1+0x0]
386f:	00
3870:	80 7c 24 0f 00       	cmp    BYTE PTR [rsp+0xf],0x0
3875:	0f 85 65 09 00 00    	jne    41e0 <quotearg_buffer_restyled+0x10b0>
387b:	48 83 c5 01          	add    rbp,0x1
387f:	44 89 c0             	mov    eax,r8d
3882:	45 31 e4             	xor    r12d,r12d
3885:	bb 5c 00 00 00       	mov    ebx,0x5c
388a:	e9 0d fb ff ff       	jmp    339c <quotearg_buffer_restyled+0x26c>
388f:	90                   	nop
3890:	83 7c 24 08 02       	cmp    DWORD PTR [rsp+0x8],0x2
3895:	0f b6 5c 24 0f       	movzx  ebx,BYTE PTR [rsp+0xf]
389a:	45 89 c4             	mov    r12d,r8d
389d:	4c 89 dd             	mov    rbp,r11
38a0:	0f 94 c2             	sete   dl
38a3:	89 d8                	mov    eax,ebx
38a5:	4d 85 ff             	test   r15,r15
38a8:	0f 94 c1             	sete   cl
38ab:	21 d0                	and    eax,edx
38ad:	20 c8                	and    al,cl
38af:	0f 85 61 0a 00 00    	jne    4316 <quotearg_buffer_restyled+0x11e6>
38b5:	89 d8                	mov    eax,ebx
38b7:	83 f0 01             	xor    eax,0x1
38ba:	20 c2                	and    dl,al
38bc:	0f 84 6a 09 00 00    	je     422c <quotearg_buffer_restyled+0x10fc>
38c2:	80 7c 24 7c 00       	cmp    BYTE PTR [rsp+0x7c],0x0
38c7:	0f 84 5d 09 00 00    	je     422a <quotearg_buffer_restyled+0x10fa>
38cd:	80 7c 24 0e 00       	cmp    BYTE PTR [rsp+0xe],0x0
38d2:	0f 85 f5 09 00 00    	jne    42cd <quotearg_buffer_restyled+0x119d>
38d8:	4d 85 ed             	test   r13,r13
38db:	0f 94 c0             	sete   al
38de:	48 83 7c 24 50 00    	cmp    QWORD PTR [rsp+0x50],0x0
38e4:	0f 95 c2             	setne  dl
38e7:	20 d0                	and    al,dl
38e9:	0f 84 1d 0a 00 00    	je     430c <quotearg_buffer_restyled+0x11dc>
38ef:	4c 8b 6c 24 50       	mov    r13,QWORD PTR [rsp+0x50]
38f4:	48 8d 1d 02 55 00 00 	lea    rbx,[rip+0x5502]        # 8dfd <_IO_stdin_used+0x6bd>
38fb:	41 c6 06 27          	mov    BYTE PTR [r14],0x27
38ff:	c7 44 24 08 02 00 00 	mov    DWORD PTR [rsp+0x8],0x2
3906:	00
3907:	41 bf 01 00 00 00    	mov    r15d,0x1
390d:	48 c7 44 24 18 01 00 	mov    QWORD PTR [rsp+0x18],0x1
3914:	00 00
3916:	c6 44 24 0f 00       	mov    BYTE PTR [rsp+0xf],0x0
391b:	48 89 5c 24 48       	mov    QWORD PTR [rsp+0x48],rbx
3920:	88 44 24 7c          	mov    BYTE PTR [rsp+0x7c],al
3924:	e9 da f8 ff ff       	jmp    3203 <quotearg_buffer_restyled+0xd3>
3929:	0f 1f 80 00 00 00 00 	nop    DWORD PTR [rax+0x0]
3930:	80 7c 24 0f 00       	cmp    BYTE PTR [rsp+0xf],0x0
3935:	0f 85 a5 08 00 00    	jne    41e0 <quotearg_buffer_restyled+0x10b0>
393b:	4d 85 ed             	test   r13,r13
393e:	0f 84 fc 03 00 00    	je     3d40 <quotearg_buffer_restyled+0xc10>
3944:	31 d2                	xor    edx,edx
3946:	48 83 7c 24 50 00    	cmp    QWORD PTR [rsp+0x50],0x0
394c:	0f 85 ee 03 00 00    	jne    3d40 <quotearg_buffer_restyled+0xc10>
3952:	4c 89 6c 24 50       	mov    QWORD PTR [rsp+0x50],r13
3957:	49 83 c7 03          	add    r15,0x3
395b:	31 c0                	xor    eax,eax
395d:	44 88 64 24 7c       	mov    BYTE PTR [rsp+0x7c],r12b
3962:	45 31 c0             	xor    r8d,r8d
3965:	49 89 d5             	mov    r13,rdx
3968:	bb 27 00 00 00       	mov    ebx,0x27
396d:	e9 17 fa ff ff       	jmp    3389 <quotearg_buffer_restyled+0x259>
3972:	66 0f 1f 44 00 00    	nop    WORD PTR [rax+rax*1+0x0]
3978:	f6 44 24 78 04       	test   BYTE PTR [rsp+0x78],0x4
397d:	74 21                	je     39a0 <quotearg_buffer_restyled+0x870>
397f:	48 8d 4d 02          	lea    rcx,[rbp+0x2]
3983:	4c 39 d9             	cmp    rcx,r11
3986:	73 18                	jae    39a0 <quotearg_buffer_restyled+0x870>
3988:	48 8b 44 24 10       	mov    rax,QWORD PTR [rsp+0x10]
398d:	80 7c 28 01 3f       	cmp    BYTE PTR [rax+rbp*1+0x1],0x3f
3992:	0f 84 8a 07 00 00    	je     4122 <quotearg_buffer_restyled+0xff2>
3998:	0f 1f 84 00 00 00 00 	nop    DWORD PTR [rax+rax*1+0x0]
399f:	00
39a0:	31 d2                	xor    edx,edx
39a2:	45 31 e4             	xor    r12d,r12d
39a5:	31 c0                	xor    eax,eax
39a7:	bb 3f 00 00 00       	mov    ebx,0x3f
39ac:	e9 a7 f9 ff ff       	jmp    3358 <quotearg_buffer_restyled+0x228>
39b1:	0f 1f 80 00 00 00 00 	nop    DWORD PTR [rax+0x0]
39b8:	80 7c 24 0f 00       	cmp    BYTE PTR [rsp+0xf],0x0
39bd:	0f 85 1d 08 00 00    	jne    41e0 <quotearg_buffer_restyled+0x10b0>
39c3:	45 31 e4             	xor    r12d,r12d
39c6:	31 c0                	xor    eax,eax
39c8:	bb 3f 00 00 00       	mov    ebx,0x3f
39cd:	e9 b7 f9 ff ff       	jmp    3389 <quotearg_buffer_restyled+0x259>
39d2:	66 0f 1f 44 00 00    	nop    WORD PTR [rax+rax*1+0x0]
39d8:	48 8d 84 24 a0 00 00 	lea    rax,[rsp+0xa0]
39df:	00
39e0:	49 83 fb ff          	cmp    r11,0xffffffffffffffff
39e4:	48 c7 84 24 a0 00 00 	mov    QWORD PTR [rsp+0xa0],0x0
39eb:	00 00 00 00 00
39f0:	48 89 44 24 28       	mov    QWORD PTR [rsp+0x28],rax
39f5:	75 2d                	jne    3a24 <quotearg_buffer_restyled+0x8f4>
39f7:	48 8b 7c 24 10       	mov    rdi,QWORD PTR [rsp+0x10]
39fc:	44 88 44 24 40       	mov    BYTE PTR [rsp+0x40],r8b
3a01:	44 88 54 24 38       	mov    BYTE PTR [rsp+0x38],r10b
3a06:	4c 89 4c 24 30       	mov    QWORD PTR [rsp+0x30],r9
3a0b:	e8 00 de ff ff       	call   1810 <strlen@plt>
3a10:	44 0f b6 44 24 40    	movzx  r8d,BYTE PTR [rsp+0x40]
3a16:	44 0f b6 54 24 38    	movzx  r10d,BYTE PTR [rsp+0x38]
3a1c:	49 89 c3             	mov    r11,rax
3a1f:	4c 8b 4c 24 30       	mov    r9,QWORD PTR [rsp+0x30]
3a24:	48 8d 84 24 9c 00 00 	lea    rax,[rsp+0x9c]
3a2b:	00
3a2c:	31 c9                	xor    ecx,ecx
3a2e:	88 5c 24 7e          	mov    BYTE PTR [rsp+0x7e],bl
3a32:	44 88 44 24 7d       	mov    BYTE PTR [rsp+0x7d],r8b
3a37:	48 89 cb             	mov    rbx,rcx
3a3a:	4c 89 8c 24 88 00 00 	mov    QWORD PTR [rsp+0x88],r9
3a41:	00
3a42:	48 89 44 24 38       	mov    QWORD PTR [rsp+0x38],rax
3a47:	44 88 54 24 7f       	mov    BYTE PTR [rsp+0x7f],r10b
3a4c:	4c 89 bc 24 80 00 00 	mov    QWORD PTR [rsp+0x80],r15
3a53:	00
3a54:	4c 89 74 24 40       	mov    QWORD PTR [rsp+0x40],r14
3a59:	4c 89 6c 24 70       	mov    QWORD PTR [rsp+0x70],r13
3a5e:	4c 89 5c 24 30       	mov    QWORD PTR [rsp+0x30],r11
3a63:	48 8b 44 24 10       	mov    rax,QWORD PTR [rsp+0x10]
3a68:	4c 8d 74 1d 00       	lea    r14,[rbp+rbx*1+0x0]
3a6d:	48 8b 54 24 30       	mov    rdx,QWORD PTR [rsp+0x30]
3a72:	48 8b 4c 24 28       	mov    rcx,QWORD PTR [rsp+0x28]
3a77:	48 8b 7c 24 38       	mov    rdi,QWORD PTR [rsp+0x38]
3a7c:	4e 8d 2c 30          	lea    r13,[rax+r14*1]
3a80:	4c 29 f2             	sub    rdx,r14
3a83:	4c 89 ee             	mov    rsi,r13
3a86:	e8 45 21 00 00       	call   5bd0 <rpl_mbrtowc>
3a8b:	48 85 c0             	test   rax,rax
3a8e:	49 89 c7             	mov    r15,rax
3a91:	74 4e                	je     3ae1 <quotearg_buffer_restyled+0x9b1>
3a93:	48 83 f8 ff          	cmp    rax,0xffffffffffffffff
3a97:	0f 84 18 06 00 00    	je     40b5 <quotearg_buffer_restyled+0xf85>
3a9d:	48 83 f8 fe          	cmp    rax,0xfffffffffffffffe
3aa1:	0f 84 9a 05 00 00    	je     4041 <quotearg_buffer_restyled+0xf11>
3aa7:	83 7c 24 08 02       	cmp    DWORD PTR [rsp+0x8],0x2
3aac:	0f 94 c0             	sete   al
3aaf:	22 44 24 0f          	and    al,BYTE PTR [rsp+0xf]
3ab3:	0f 85 97 01 00 00    	jne    3c50 <quotearg_buffer_restyled+0xb20>
3ab9:	8b bc 24 9c 00 00 00 	mov    edi,DWORD PTR [rsp+0x9c]
3ac0:	e8 eb df ff ff       	call   1ab0 <iswprint@plt>
3ac5:	48 8b 7c 24 28       	mov    rdi,QWORD PTR [rsp+0x28]
3aca:	85 c0                	test   eax,eax
3acc:	b8 00 00 00 00       	mov    eax,0x0
3ad1:	44 0f 44 e0          	cmove  r12d,eax
3ad5:	4c 01 fb             	add    rbx,r15
3ad8:	e8 c3 df ff ff       	call   1aa0 <mbsinit@plt>
3add:	85 c0                	test   eax,eax
3adf:	74 82                	je     3a63 <quotearg_buffer_restyled+0x933>
3ae1:	44 89 e2             	mov    edx,r12d
3ae4:	48 89 df             	mov    rdi,rbx
3ae7:	44 0f b6 44 24 7d    	movzx  r8d,BYTE PTR [rsp+0x7d]
3aed:	83 f2 01             	xor    edx,0x1
3af0:	0f b6 5c 24 7e       	movzx  ebx,BYTE PTR [rsp+0x7e]
3af5:	44 0f b6 54 24 7f    	movzx  r10d,BYTE PTR [rsp+0x7f]
3afb:	22 54 24 0d          	and    dl,BYTE PTR [rsp+0xd]
3aff:	4c 8b bc 24 80 00 00 	mov    r15,QWORD PTR [rsp+0x80]
3b06:	00
3b07:	4c 8b 74 24 40       	mov    r14,QWORD PTR [rsp+0x40]
3b0c:	4c 8b 6c 24 70       	mov    r13,QWORD PTR [rsp+0x70]
3b11:	4c 8b 5c 24 30       	mov    r11,QWORD PTR [rsp+0x30]
3b16:	48 83 ff 01          	cmp    rdi,0x1
3b1a:	0f 86 fb 05 00 00    	jbe    411b <quotearg_buffer_restyled+0xfeb>
3b20:	48 89 f9             	mov    rcx,rdi
3b23:	31 f6                	xor    esi,esi
3b25:	44 0f b6 4c 24 0f    	movzx  r9d,BYTE PTR [rsp+0xf]
3b2b:	48 01 e9             	add    rcx,rbp
3b2e:	48 8b 7c 24 10       	mov    rdi,QWORD PTR [rsp+0x10]
3b33:	e9 b6 00 00 00       	jmp    3bee <quotearg_buffer_restyled+0xabe>
3b38:	0f 1f 84 00 00 00 00 	nop    DWORD PTR [rax+rax*1+0x0]
3b3f:	00
3b40:	83 7c 24 08 02       	cmp    DWORD PTR [rsp+0x8],0x2
3b45:	0f 94 c0             	sete   al
3b48:	45 84 c9             	test   r9b,r9b
3b4b:	0f 85 af 04 00 00    	jne    4000 <quotearg_buffer_restyled+0xed0>
3b51:	44 89 c6             	mov    esi,r8d
3b54:	83 f6 01             	xor    esi,0x1
3b57:	40 20 f0             	and    al,sil
3b5a:	74 2f                	je     3b8b <quotearg_buffer_restyled+0xa5b>
3b5c:	4d 39 fd             	cmp    r13,r15
3b5f:	76 05                	jbe    3b66 <quotearg_buffer_restyled+0xa36>
3b61:	43 c6 04 3e 27       	mov    BYTE PTR [r14+r15*1],0x27
3b66:	49 8d 77 01          	lea    rsi,[r15+0x1]
3b6a:	49 39 f5             	cmp    r13,rsi
3b6d:	76 06                	jbe    3b75 <quotearg_buffer_restyled+0xa45>
3b6f:	43 c6 44 3e 01 24    	mov    BYTE PTR [r14+r15*1+0x1],0x24
3b75:	49 8d 77 02          	lea    rsi,[r15+0x2]
3b79:	49 39 f5             	cmp    r13,rsi
3b7c:	76 06                	jbe    3b84 <quotearg_buffer_restyled+0xa54>
3b7e:	43 c6 44 3e 02 27    	mov    BYTE PTR [r14+r15*1+0x2],0x27
3b84:	49 83 c7 03          	add    r15,0x3
3b88:	41 89 c0             	mov    r8d,eax
3b8b:	4d 39 fd             	cmp    r13,r15
3b8e:	76 05                	jbe    3b95 <quotearg_buffer_restyled+0xa65>
3b90:	43 c6 04 3e 5c       	mov    BYTE PTR [r14+r15*1],0x5c
3b95:	49 8d 47 01          	lea    rax,[r15+0x1]
3b99:	49 39 c5             	cmp    r13,rax
3b9c:	76 0d                	jbe    3bab <quotearg_buffer_restyled+0xa7b>
3b9e:	89 d8                	mov    eax,ebx
3ba0:	c0 e8 06             	shr    al,0x6
3ba3:	83 c0 30             	add    eax,0x30
3ba6:	43 88 44 3e 01       	mov    BYTE PTR [r14+r15*1+0x1],al
3bab:	49 8d 47 02          	lea    rax,[r15+0x2]
3baf:	49 39 c5             	cmp    r13,rax
3bb2:	76 10                	jbe    3bc4 <quotearg_buffer_restyled+0xa94>
3bb4:	89 d8                	mov    eax,ebx
3bb6:	c0 e8 03             	shr    al,0x3
3bb9:	83 e0 07             	and    eax,0x7
3bbc:	83 c0 30             	add    eax,0x30
3bbf:	43 88 44 3e 02       	mov    BYTE PTR [r14+r15*1+0x2],al
3bc4:	83 e3 07             	and    ebx,0x7
3bc7:	48 83 c5 01          	add    rbp,0x1
3bcb:	49 83 c7 03          	add    r15,0x3
3bcf:	83 c3 30             	add    ebx,0x30
3bd2:	48 39 cd             	cmp    rbp,rcx
3bd5:	0f 83 e5 f7 ff ff    	jae    33c0 <quotearg_buffer_restyled+0x290>
3bdb:	89 d6                	mov    esi,edx
3bdd:	4d 39 fd             	cmp    r13,r15
3be0:	76 04                	jbe    3be6 <quotearg_buffer_restyled+0xab6>
3be2:	43 88 1c 3e          	mov    BYTE PTR [r14+r15*1],bl
3be6:	0f b6 1c 2f          	movzx  ebx,BYTE PTR [rdi+rbp*1]
3bea:	49 83 c7 01          	add    r15,0x1
3bee:	84 d2                	test   dl,dl
3bf0:	0f 85 4a ff ff ff    	jne    3b40 <quotearg_buffer_restyled+0xa10>
3bf6:	89 f0                	mov    eax,esi
3bf8:	83 f0 01             	xor    eax,0x1
3bfb:	44 21 c0             	and    eax,r8d
3bfe:	45 84 d2             	test   r10b,r10b
3c01:	74 0e                	je     3c11 <quotearg_buffer_restyled+0xae1>
3c03:	4d 39 fd             	cmp    r13,r15
3c06:	76 05                	jbe    3c0d <quotearg_buffer_restyled+0xadd>
3c08:	43 c6 04 3e 5c       	mov    BYTE PTR [r14+r15*1],0x5c
3c0d:	49 83 c7 01          	add    r15,0x1
3c11:	48 83 c5 01          	add    rbp,0x1
3c15:	48 39 cd             	cmp    rbp,rcx
3c18:	0f 83 7e f7 ff ff    	jae    339c <quotearg_buffer_restyled+0x26c>
3c1e:	84 c0                	test   al,al
3c20:	0f 84 f8 03 00 00    	je     401e <quotearg_buffer_restyled+0xeee>
3c26:	4d 39 fd             	cmp    r13,r15
3c29:	76 05                	jbe    3c30 <quotearg_buffer_restyled+0xb00>
3c2b:	43 c6 04 3e 27       	mov    BYTE PTR [r14+r15*1],0x27
3c30:	49 8d 47 01          	lea    rax,[r15+0x1]
3c34:	49 39 c5             	cmp    r13,rax
3c37:	76 06                	jbe    3c3f <quotearg_buffer_restyled+0xb0f>
3c39:	43 c6 44 3e 01 27    	mov    BYTE PTR [r14+r15*1+0x1],0x27
3c3f:	49 83 c7 02          	add    r15,0x2
3c43:	45 31 d2             	xor    r10d,r10d
3c46:	45 31 c0             	xor    r8d,r8d
3c49:	eb 92                	jmp    3bdd <quotearg_buffer_restyled+0xaad>
3c4b:	0f 1f 44 00 00       	nop    DWORD PTR [rax+rax*1+0x0]
3c50:	49 83 ff 01          	cmp    r15,0x1
3c54:	0f 84 5f fe ff ff    	je     3ab9 <quotearg_buffer_restyled+0x989>
3c5a:	48 8b 7c 24 10       	mov    rdi,QWORD PTR [rsp+0x10]
3c5f:	4a 8d 0c 3f          	lea    rcx,[rdi+r15*1]
3c63:	4a 8d 54 37 01       	lea    rdx,[rdi+r14*1+0x1]
3c68:	4e 8d 04 31          	lea    r8,[rcx+r14*1]
3c6c:	eb 0f                	jmp    3c7d <quotearg_buffer_restyled+0xb4d>
3c6e:	66 90                	xchg   ax,ax
3c70:	48 83 c2 01          	add    rdx,0x1
3c74:	49 39 d0             	cmp    r8,rdx
3c77:	0f 84 3c fe ff ff    	je     3ab9 <quotearg_buffer_restyled+0x989>
3c7d:	0f b6 0a             	movzx  ecx,BYTE PTR [rdx]
3c80:	83 e9 5b             	sub    ecx,0x5b
3c83:	80 f9 21             	cmp    cl,0x21
3c86:	77 e8                	ja     3c70 <quotearg_buffer_restyled+0xb40>
3c88:	be 01 00 00 00       	mov    esi,0x1
3c8d:	48 d3 e6             	shl    rsi,cl
3c90:	48 89 f1             	mov    rcx,rsi
3c93:	48 be 2b 00 00 00 02 	movabs rsi,0x20000002b
3c9a:	00 00 00
3c9d:	48 85 f1             	test   rcx,rsi
3ca0:	74 ce                	je     3c70 <quotearg_buffer_restyled+0xb40>
3ca2:	4c 8b 74 24 40       	mov    r14,QWORD PTR [rsp+0x40]
3ca7:	4c 8b 6c 24 70       	mov    r13,QWORD PTR [rsp+0x70]
3cac:	48 8b 6c 24 30       	mov    rbp,QWORD PTR [rsp+0x30]
3cb1:	c7 44 24 08 02 00 00 	mov    DWORD PTR [rsp+0x8],0x2
3cb8:	00
3cb9:	80 7c 24 0d 00       	cmp    BYTE PTR [rsp+0xd],0x0
3cbe:	74 10                	je     3cd0 <quotearg_buffer_restyled+0xba0>
3cc0:	84 c0                	test   al,al
3cc2:	b8 04 00 00 00       	mov    eax,0x4
3cc7:	0f 44 44 24 08       	cmove  eax,DWORD PTR [rsp+0x8]
3ccc:	89 44 24 08          	mov    DWORD PTR [rsp+0x8],eax
3cd0:	48 83 ec 08          	sub    rsp,0x8
3cd4:	48 89 e9             	mov    rcx,rbp
3cd7:	4c 89 ee             	mov    rsi,r13
3cda:	ff 74 24 68          	push   QWORD PTR [rsp+0x68]
3cde:	ff 74 24 78          	push   QWORD PTR [rsp+0x78]
3ce2:	4c 89 f7             	mov    rdi,r14
3ce5:	6a 00                	push   0x0
3ce7:	44 8b 8c 24 98 00 00 	mov    r9d,DWORD PTR [rsp+0x98]
3cee:	00
3cef:	44 8b 44 24 28       	mov    r8d,DWORD PTR [rsp+0x28]
3cf4:	48 8b 54 24 30       	mov    rdx,QWORD PTR [rsp+0x30]
3cf9:	41 83 e1 fd          	and    r9d,0xfffffffd
3cfd:	e8 2e f4 ff ff       	call   3130 <quotearg_buffer_restyled>
3d02:	48 83 c4 20          	add    rsp,0x20
3d06:	49 89 c7             	mov    r15,rax
3d09:	48 8b 9c 24 a8 00 00 	mov    rbx,QWORD PTR [rsp+0xa8]
3d10:	00
3d11:	64 48 33 1c 25 28 00 	xor    rbx,QWORD PTR fs:0x28
3d18:	00 00
3d1a:	4c 89 f8             	mov    rax,r15
3d1d:	0f 85 00 06 00 00    	jne    4323 <quotearg_buffer_restyled+0x11f3>
3d23:	48 81 c4 b8 00 00 00 	add    rsp,0xb8
3d2a:	5b                   	pop    rbx
3d2b:	5d                   	pop    rbp
3d2c:	41 5c                	pop    r12
3d2e:	41 5d                	pop    r13
3d30:	41 5e                	pop    r14
3d32:	41 5f                	pop    r15
3d34:	c3                   	ret
3d35:	0f 1f 00             	nop    DWORD PTR [rax]
3d38:	4c 89 dd             	mov    rbp,r11
3d3b:	e9 79 ff ff ff       	jmp    3cb9 <quotearg_buffer_restyled+0xb89>
3d40:	4d 39 fd             	cmp    r13,r15
3d43:	76 05                	jbe    3d4a <quotearg_buffer_restyled+0xc1a>
3d45:	43 c6 04 3e 27       	mov    BYTE PTR [r14+r15*1],0x27
3d4a:	49 8d 47 01          	lea    rax,[r15+0x1]
3d4e:	49 39 c5             	cmp    r13,rax
3d51:	76 06                	jbe    3d59 <quotearg_buffer_restyled+0xc29>
3d53:	43 c6 44 3e 01 5c    	mov    BYTE PTR [r14+r15*1+0x1],0x5c
3d59:	49 8d 47 02          	lea    rax,[r15+0x2]
3d5d:	49 39 c5             	cmp    r13,rax
3d60:	0f 86 ec 05 00 00    	jbe    4352 <quotearg_buffer_restyled+0x1222>
3d66:	4c 89 ea             	mov    rdx,r13
3d69:	43 c6 44 3e 02 27    	mov    BYTE PTR [r14+r15*1+0x2],0x27
3d6f:	4c 8b 6c 24 50       	mov    r13,QWORD PTR [rsp+0x50]
3d74:	e9 d9 fb ff ff       	jmp    3952 <quotearg_buffer_restyled+0x822>
3d79:	44 89 e0             	mov    eax,r12d
3d7c:	bb 30 00 00 00       	mov    ebx,0x30
3d81:	45 31 e4             	xor    r12d,r12d
3d84:	e9 00 f6 ff ff       	jmp    3389 <quotearg_buffer_restyled+0x259>
3d89:	43 c6 44 3e 02 27    	mov    BYTE PTR [r14+r15*1+0x2],0x27
3d8f:	e9 c5 f9 ff ff       	jmp    3759 <quotearg_buffer_restyled+0x629>
3d94:	85 db                	test   ebx,ebx
3d96:	0f 85 27 f4 ff ff    	jne    31c3 <quotearg_buffer_restyled+0x93>
3d9c:	c6 44 24 0d 01       	mov    BYTE PTR [rsp+0xd],0x1
3da1:	4d 85 ed             	test   r13,r13
3da4:	0f 85 90 05 00 00    	jne    433a <quotearg_buffer_restyled+0x120a>
3daa:	48 8d 05 4c 50 00 00 	lea    rax,[rip+0x504c]        # 8dfd <_IO_stdin_used+0x6bd>
3db1:	48 c7 44 24 50 00 00 	mov    QWORD PTR [rsp+0x50],0x0
3db8:	00 00
3dba:	c6 44 24 0e 01       	mov    BYTE PTR [rsp+0xe],0x1
3dbf:	c6 44 24 7c 00       	mov    BYTE PTR [rsp+0x7c],0x0
3dc4:	45 31 e4             	xor    r12d,r12d
3dc7:	c6 44 24 0f 00       	mov    BYTE PTR [rsp+0xf],0x0
3dcc:	48 c7 44 24 18 01 00 	mov    QWORD PTR [rsp+0x18],0x1
3dd3:	00 00
3dd5:	48 89 44 24 48       	mov    QWORD PTR [rsp+0x48],rax
3dda:	41 bf 01 00 00 00    	mov    r15d,0x1
3de0:	c7 44 24 08 02 00 00 	mov    DWORD PTR [rsp+0x8],0x2
3de7:	00
3de8:	e9 16 f4 ff ff       	jmp    3203 <quotearg_buffer_restyled+0xd3>
3ded:	0f 1f 00             	nop    DWORD PTR [rax]
3df0:	85 db                	test   ebx,ebx
3df2:	0f 85 f5 03 00 00    	jne    41ed <quotearg_buffer_restyled+0x10bd>
3df8:	4d 85 ed             	test   r13,r13
3dfb:	0f 84 25 02 00 00    	je     4026 <quotearg_buffer_restyled+0xef6>
3e01:	41 c6 06 22          	mov    BYTE PTR [r14],0x22
3e05:	c6 44 24 0e 01       	mov    BYTE PTR [rsp+0xe],0x1
3e0a:	45 31 e4             	xor    r12d,r12d
3e0d:	c6 44 24 7c 00       	mov    BYTE PTR [rsp+0x7c],0x0
3e12:	48 c7 44 24 50 00 00 	mov    QWORD PTR [rsp+0x50],0x0
3e19:	00 00
3e1b:	48 8d 05 d9 4f 00 00 	lea    rax,[rip+0x4fd9]        # 8dfb <_IO_stdin_used+0x6bb>
3e22:	c6 44 24 0f 00       	mov    BYTE PTR [rsp+0xf],0x0
3e27:	c6 44 24 0d 01       	mov    BYTE PTR [rsp+0xd],0x1
3e2c:	48 c7 44 24 18 01 00 	mov    QWORD PTR [rsp+0x18],0x1
3e33:	00 00
3e35:	41 bf 01 00 00 00    	mov    r15d,0x1
3e3b:	48 89 44 24 48       	mov    QWORD PTR [rsp+0x48],rax
3e40:	e9 be f3 ff ff       	jmp    3203 <quotearg_buffer_restyled+0xd3>
3e45:	48 8d 05 af 4f 00 00 	lea    rax,[rip+0x4faf]        # 8dfb <_IO_stdin_used+0x6bb>
3e4c:	c6 44 24 0e 01       	mov    BYTE PTR [rsp+0xe],0x1
3e51:	c6 44 24 7c 00       	mov    BYTE PTR [rsp+0x7c],0x0
3e56:	45 31 e4             	xor    r12d,r12d
3e59:	48 c7 44 24 50 00 00 	mov    QWORD PTR [rsp+0x50],0x0
3e60:	00 00
3e62:	c6 44 24 0f 01       	mov    BYTE PTR [rsp+0xf],0x1
3e67:	c6 44 24 0d 01       	mov    BYTE PTR [rsp+0xd],0x1
3e6c:	48 c7 44 24 18 01 00 	mov    QWORD PTR [rsp+0x18],0x1
3e73:	00 00
3e75:	45 31 ff             	xor    r15d,r15d
3e78:	48 89 44 24 48       	mov    QWORD PTR [rsp+0x48],rax
3e7d:	c7 44 24 08 05 00 00 	mov    DWORD PTR [rsp+0x8],0x5
3e84:	00
3e85:	e9 79 f3 ff ff       	jmp    3203 <quotearg_buffer_restyled+0xd3>
3e8a:	c6 44 24 0e 01       	mov    BYTE PTR [rsp+0xe],0x1
3e8f:	c6 44 24 7c 00       	mov    BYTE PTR [rsp+0x7c],0x0
3e94:	45 31 e4             	xor    r12d,r12d
3e97:	48 c7 44 24 50 00 00 	mov    QWORD PTR [rsp+0x50],0x0
3e9e:	00 00
3ea0:	c6 44 24 0f 00       	mov    BYTE PTR [rsp+0xf],0x0
3ea5:	45 31 ff             	xor    r15d,r15d
3ea8:	c6 44 24 0d 01       	mov    BYTE PTR [rsp+0xd],0x1
3ead:	48 c7 44 24 18 00 00 	mov    QWORD PTR [rsp+0x18],0x0
3eb4:	00 00
3eb6:	48 c7 44 24 48 00 00 	mov    QWORD PTR [rsp+0x48],0x0
3ebd:	00 00
3ebf:	e9 3f f3 ff ff       	jmp    3203 <quotearg_buffer_restyled+0xd3>
3ec4:	83 7c 24 08 0a       	cmp    DWORD PTR [rsp+0x8],0xa
3ec9:	74 56                	je     3f21 <quotearg_buffer_restyled+0xdf1>
3ecb:	48 8d 35 2d 4f 00 00 	lea    rsi,[rip+0x4f2d]        # 8dff <_IO_stdin_used+0x6bf>
3ed2:	31 ff                	xor    edi,edi
3ed4:	ba 05 00 00 00       	mov    edx,0x5
3ed9:	e8 12 d9 ff ff       	call   17f0 <dcgettext@plt>
3ede:	48 89 c1             	mov    rcx,rax
3ee1:	48 89 44 24 68       	mov    QWORD PTR [rsp+0x68],rax
3ee6:	48 8d 05 12 4f 00 00 	lea    rax,[rip+0x4f12]        # 8dff <_IO_stdin_used+0x6bf>
3eed:	48 39 c1             	cmp    rcx,rax
3ef0:	0f 84 98 03 00 00    	je     428e <quotearg_buffer_restyled+0x115e>
3ef6:	48 8d 35 00 4f 00 00 	lea    rsi,[rip+0x4f00]        # 8dfd <_IO_stdin_used+0x6bd>
3efd:	31 ff                	xor    edi,edi
3eff:	ba 05 00 00 00       	mov    edx,0x5
3f04:	e8 e7 d8 ff ff       	call   17f0 <dcgettext@plt>
3f09:	48 89 c1             	mov    rcx,rax
3f0c:	48 89 44 24 60       	mov    QWORD PTR [rsp+0x60],rax
3f11:	48 8d 05 e5 4e 00 00 	lea    rax,[rip+0x4ee5]        # 8dfd <_IO_stdin_used+0x6bd>
3f18:	48 39 c1             	cmp    rcx,rax
3f1b:	0f 84 83 03 00 00    	je     42a4 <quotearg_buffer_restyled+0x1174>
3f21:	45 31 ff             	xor    r15d,r15d
3f24:	85 db                	test   ebx,ebx
3f26:	0f 84 c1 01 00 00    	je     40ed <quotearg_buffer_restyled+0xfbd>
3f2c:	85 db                	test   ebx,ebx
3f2e:	48 8b 5c 24 60       	mov    rbx,QWORD PTR [rsp+0x60]
3f33:	0f 95 44 24 0f       	setne  BYTE PTR [rsp+0xf]
3f38:	45 31 e4             	xor    r12d,r12d
3f3b:	48 89 df             	mov    rdi,rbx
3f3e:	e8 cd d8 ff ff       	call   1810 <strlen@plt>
3f43:	48 89 5c 24 48       	mov    QWORD PTR [rsp+0x48],rbx
3f48:	48 89 44 24 18       	mov    QWORD PTR [rsp+0x18],rax
3f4d:	c6 44 24 0e 01       	mov    BYTE PTR [rsp+0xe],0x1
3f52:	c6 44 24 7c 00       	mov    BYTE PTR [rsp+0x7c],0x0
3f57:	48 c7 44 24 50 00 00 	mov    QWORD PTR [rsp+0x50],0x0
3f5e:	00 00
3f60:	c6 44 24 0d 01       	mov    BYTE PTR [rsp+0xd],0x1
3f65:	e9 99 f2 ff ff       	jmp    3203 <quotearg_buffer_restyled+0xd3>
3f6a:	c6 44 24 0e 01       	mov    BYTE PTR [rsp+0xe],0x1
3f6f:	c6 44 24 7c 00       	mov    BYTE PTR [rsp+0x7c],0x0
3f74:	45 31 e4             	xor    r12d,r12d
3f77:	48 c7 44 24 50 00 00 	mov    QWORD PTR [rsp+0x50],0x0
3f7e:	00 00
3f80:	c6 44 24 0f 00       	mov    BYTE PTR [rsp+0xf],0x0
3f85:	45 31 ff             	xor    r15d,r15d
3f88:	c6 44 24 0d 00       	mov    BYTE PTR [rsp+0xd],0x0
3f8d:	48 c7 44 24 18 00 00 	mov    QWORD PTR [rsp+0x18],0x0
3f94:	00 00
3f96:	48 c7 44 24 48 00 00 	mov    QWORD PTR [rsp+0x48],0x0
3f9d:	00 00
3f9f:	e9 5f f2 ff ff       	jmp    3203 <quotearg_buffer_restyled+0xd3>
3fa4:	c6 44 24 0e 01       	mov    BYTE PTR [rsp+0xe],0x1
3fa9:	c6 44 24 7c 00       	mov    BYTE PTR [rsp+0x7c],0x0
3fae:	45 31 e4             	xor    r12d,r12d
3fb1:	48 c7 44 24 50 00 00 	mov    QWORD PTR [rsp+0x50],0x0
3fb8:	00 00
3fba:	c6 44 24 0f 01       	mov    BYTE PTR [rsp+0xf],0x1
3fbf:	c6 44 24 0d 01       	mov    BYTE PTR [rsp+0xd],0x1
3fc4:	e9 1a f2 ff ff       	jmp    31e3 <quotearg_buffer_restyled+0xb3>
3fc9:	4d 39 fd             	cmp    r13,r15
3fcc:	76 05                	jbe    3fd3 <quotearg_buffer_restyled+0xea3>
3fce:	43 c6 04 3e 30       	mov    BYTE PTR [r14+r15*1],0x30
3fd3:	48 8d 41 02          	lea    rax,[rcx+0x2]
3fd7:	49 39 c5             	cmp    r13,rax
3fda:	76 06                	jbe    3fe2 <quotearg_buffer_restyled+0xeb2>
3fdc:	41 c6 44 0e 02 30    	mov    BYTE PTR [r14+rcx*1+0x2],0x30
3fe2:	44 89 e0             	mov    eax,r12d
3fe5:	4c 8d 79 03          	lea    r15,[rcx+0x3]
3fe9:	45 31 e4             	xor    r12d,r12d
3fec:	bb 30 00 00 00       	mov    ebx,0x30
3ff1:	e9 62 f3 ff ff       	jmp    3358 <quotearg_buffer_restyled+0x228>
3ff6:	66 2e 0f 1f 84 00 00 	nop    WORD PTR cs:[rax+rax*1+0x0]
3ffd:	00 00 00
4000:	0f b6 5c 24 0f       	movzx  ebx,BYTE PTR [rsp+0xf]
4005:	4c 89 dd             	mov    rbp,r11
4008:	88 5c 24 0d          	mov    BYTE PTR [rsp+0xd],bl
400c:	e9 a8 fc ff ff       	jmp    3cb9 <quotearg_buffer_restyled+0xb89>
4011:	0f b6 54 24 0d       	movzx  edx,BYTE PTR [rsp+0xd]
4016:	45 31 e4             	xor    r12d,r12d
4019:	e9 02 fb ff ff       	jmp    3b20 <quotearg_buffer_restyled+0x9f0>
401e:	45 31 d2             	xor    r10d,r10d
4021:	e9 b7 fb ff ff       	jmp    3bdd <quotearg_buffer_restyled+0xaad>
4026:	48 c7 44 24 50 00 00 	mov    QWORD PTR [rsp+0x50],0x0
402d:	00 00
402f:	c6 44 24 0e 01       	mov    BYTE PTR [rsp+0xe],0x1
4034:	45 31 e4             	xor    r12d,r12d
4037:	c6 44 24 7c 00       	mov    BYTE PTR [rsp+0x7c],0x0
403c:	e9 da fd ff ff       	jmp    3e1b <quotearg_buffer_restyled+0xceb>
4041:	4c 8b 5c 24 30       	mov    r11,QWORD PTR [rsp+0x30]
4046:	4c 89 f6             	mov    rsi,r14
4049:	4c 89 e9             	mov    rcx,r13
404c:	48 89 d8             	mov    rax,rbx
404f:	48 89 df             	mov    rdi,rbx
4052:	44 0f b6 44 24 7d    	movzx  r8d,BYTE PTR [rsp+0x7d]
4058:	0f b6 5c 24 7e       	movzx  ebx,BYTE PTR [rsp+0x7e]
405d:	4c 8b 8c 24 88 00 00 	mov    r9,QWORD PTR [rsp+0x88]
4064:	00
4065:	4c 39 de             	cmp    rsi,r11
4068:	44 0f b6 54 24 7f    	movzx  r10d,BYTE PTR [rsp+0x7f]
406e:	4c 8b bc 24 80 00 00 	mov    r15,QWORD PTR [rsp+0x80]
4075:	00
4076:	4c 8b 74 24 40       	mov    r14,QWORD PTR [rsp+0x40]
407b:	4c 8b 6c 24 70       	mov    r13,QWORD PTR [rsp+0x70]
4080:	73 26                	jae    40a8 <quotearg_buffer_restyled+0xf78>
4082:	80 39 00             	cmp    BYTE PTR [rcx],0x0
4085:	75 10                	jne    4097 <quotearg_buffer_restyled+0xf67>
4087:	eb 1f                	jmp    40a8 <quotearg_buffer_restyled+0xf78>
4089:	0f 1f 80 00 00 00 00 	nop    DWORD PTR [rax+0x0]
4090:	41 80 3c 01 00       	cmp    BYTE PTR [r9+rax*1],0x0
4095:	74 0e                	je     40a5 <quotearg_buffer_restyled+0xf75>
4097:	48 83 c0 01          	add    rax,0x1
409b:	48 8d 54 05 00       	lea    rdx,[rbp+rax*1+0x0]
40a0:	49 39 d3             	cmp    r11,rdx
40a3:	77 eb                	ja     4090 <quotearg_buffer_restyled+0xf60>
40a5:	48 89 c7             	mov    rdi,rax
40a8:	0f b6 54 24 0d       	movzx  edx,BYTE PTR [rsp+0xd]
40ad:	45 31 e4             	xor    r12d,r12d
40b0:	e9 61 fa ff ff       	jmp    3b16 <quotearg_buffer_restyled+0x9e6>
40b5:	48 89 df             	mov    rdi,rbx
40b8:	44 0f b6 44 24 7d    	movzx  r8d,BYTE PTR [rsp+0x7d]
40be:	0f b6 5c 24 7e       	movzx  ebx,BYTE PTR [rsp+0x7e]
40c3:	44 0f b6 54 24 7f    	movzx  r10d,BYTE PTR [rsp+0x7f]
40c9:	4c 8b bc 24 80 00 00 	mov    r15,QWORD PTR [rsp+0x80]
40d0:	00
40d1:	45 31 e4             	xor    r12d,r12d
40d4:	4c 8b 74 24 40       	mov    r14,QWORD PTR [rsp+0x40]
40d9:	4c 8b 6c 24 70       	mov    r13,QWORD PTR [rsp+0x70]
40de:	4c 8b 5c 24 30       	mov    r11,QWORD PTR [rsp+0x30]
40e3:	0f b6 54 24 0d       	movzx  edx,BYTE PTR [rsp+0xd]
40e8:	e9 29 fa ff ff       	jmp    3b16 <quotearg_buffer_restyled+0x9e6>
40ed:	48 8b 54 24 68       	mov    rdx,QWORD PTR [rsp+0x68]
40f2:	0f b6 02             	movzx  eax,BYTE PTR [rdx]
40f5:	84 c0                	test   al,al
40f7:	0f 84 2f fe ff ff    	je     3f2c <quotearg_buffer_restyled+0xdfc>
40fd:	0f 1f 00             	nop    DWORD PTR [rax]
4100:	4d 39 fd             	cmp    r13,r15
4103:	76 04                	jbe    4109 <quotearg_buffer_restyled+0xfd9>
4105:	43 88 04 3e          	mov    BYTE PTR [r14+r15*1],al
4109:	49 83 c7 01          	add    r15,0x1
410d:	42 0f b6 04 3a       	movzx  eax,BYTE PTR [rdx+r15*1]
4112:	84 c0                	test   al,al
4114:	75 ea                	jne    4100 <quotearg_buffer_restyled+0xfd0>
4116:	e9 11 fe ff ff       	jmp    3f2c <quotearg_buffer_restyled+0xdfc>
411b:	89 d0                	mov    eax,edx
411d:	e9 55 f5 ff ff       	jmp    3677 <quotearg_buffer_restyled+0x547>
4122:	0f b6 1c 08          	movzx  ebx,BYTE PTR [rax+rcx*1]
4126:	80 fb 3e             	cmp    bl,0x3e
4129:	0f 87 71 f8 ff ff    	ja     39a0 <quotearg_buffer_restyled+0x870>
412f:	48 b8 00 00 00 00 82 	movabs rax,0x7000a38200000000
4136:	a3 00 70
4139:	48 0f a3 d8          	bt     rax,rbx
413d:	0f 83 5d f8 ff ff    	jae    39a0 <quotearg_buffer_restyled+0x870>
4143:	80 7c 24 0f 00       	cmp    BYTE PTR [rsp+0xf],0x0
4148:	0f 85 e4 01 00 00    	jne    4332 <quotearg_buffer_restyled+0x1202>
414e:	4d 39 fd             	cmp    r13,r15
4151:	76 05                	jbe    4158 <quotearg_buffer_restyled+0x1028>
4153:	43 c6 04 3e 3f       	mov    BYTE PTR [r14+r15*1],0x3f
4158:	49 8d 47 01          	lea    rax,[r15+0x1]
415c:	49 39 c5             	cmp    r13,rax
415f:	76 06                	jbe    4167 <quotearg_buffer_restyled+0x1037>
4161:	43 c6 44 3e 01 22    	mov    BYTE PTR [r14+r15*1+0x1],0x22
4167:	49 8d 47 02          	lea    rax,[r15+0x2]
416b:	49 39 c5             	cmp    r13,rax
416e:	76 06                	jbe    4176 <quotearg_buffer_restyled+0x1046>
4170:	43 c6 44 3e 02 22    	mov    BYTE PTR [r14+r15*1+0x2],0x22
4176:	49 8d 47 03          	lea    rax,[r15+0x3]
417a:	49 39 c5             	cmp    r13,rax
417d:	76 06                	jbe    4185 <quotearg_buffer_restyled+0x1055>
417f:	43 c6 44 3e 03 3f    	mov    BYTE PTR [r14+r15*1+0x3],0x3f
4185:	49 83 c7 04          	add    r15,0x4
4189:	31 d2                	xor    edx,edx
418b:	45 31 e4             	xor    r12d,r12d
418e:	31 c0                	xor    eax,eax
4190:	48 89 cd             	mov    rbp,rcx
4193:	e9 c0 f1 ff ff       	jmp    3358 <quotearg_buffer_restyled+0x228>
4198:	85 db                	test   ebx,ebx
419a:	0f 84 88 01 00 00    	je     4328 <quotearg_buffer_restyled+0x11f8>
41a0:	48 8d 05 56 4c 00 00 	lea    rax,[rip+0x4c56]        # 8dfd <_IO_stdin_used+0x6bd>
41a7:	c6 44 24 0e 01       	mov    BYTE PTR [rsp+0xe],0x1
41ac:	c6 44 24 7c 00       	mov    BYTE PTR [rsp+0x7c],0x0
41b1:	45 31 e4             	xor    r12d,r12d
41b4:	48 c7 44 24 50 00 00 	mov    QWORD PTR [rsp+0x50],0x0
41bb:	00 00
41bd:	c6 44 24 0f 01       	mov    BYTE PTR [rsp+0xf],0x1
41c2:	c6 44 24 0d 00       	mov    BYTE PTR [rsp+0xd],0x0
41c7:	48 c7 44 24 18 01 00 	mov    QWORD PTR [rsp+0x18],0x1
41ce:	00 00
41d0:	45 31 ff             	xor    r15d,r15d
41d3:	48 89 44 24 48       	mov    QWORD PTR [rsp+0x48],rax
41d8:	e9 26 f0 ff ff       	jmp    3203 <quotearg_buffer_restyled+0xd3>
41dd:	0f 1f 00             	nop    DWORD PTR [rax]
41e0:	4c 89 dd             	mov    rbp,r11
41e3:	0f b6 44 24 0f       	movzx  eax,BYTE PTR [rsp+0xf]
41e8:	e9 cc fa ff ff       	jmp    3cb9 <quotearg_buffer_restyled+0xb89>
41ed:	48 8d 05 07 4c 00 00 	lea    rax,[rip+0x4c07]        # 8dfb <_IO_stdin_used+0x6bb>
41f4:	c6 44 24 0e 01       	mov    BYTE PTR [rsp+0xe],0x1
41f9:	c6 44 24 7c 00       	mov    BYTE PTR [rsp+0x7c],0x0
41fe:	45 31 e4             	xor    r12d,r12d
4201:	48 c7 44 24 50 00 00 	mov    QWORD PTR [rsp+0x50],0x0
4208:	00 00
420a:	c6 44 24 0f 01       	mov    BYTE PTR [rsp+0xf],0x1
420f:	c6 44 24 0d 01       	mov    BYTE PTR [rsp+0xd],0x1
4214:	48 c7 44 24 18 01 00 	mov    QWORD PTR [rsp+0x18],0x1
421b:	00 00
421d:	45 31 ff             	xor    r15d,r15d
4220:	48 89 44 24 48       	mov    QWORD PTR [rsp+0x48],rax
4225:	e9 d9 ef ff ff       	jmp    3203 <quotearg_buffer_restyled+0xd3>
422a:	89 d0                	mov    eax,edx
422c:	48 8b 5c 24 48       	mov    rbx,QWORD PTR [rsp+0x48]
4231:	48 85 db             	test   rbx,rbx
4234:	74 2c                	je     4262 <quotearg_buffer_restyled+0x1132>
4236:	84 c0                	test   al,al
4238:	74 28                	je     4262 <quotearg_buffer_restyled+0x1132>
423a:	0f b6 0b             	movzx  ecx,BYTE PTR [rbx]
423d:	48 89 d8             	mov    rax,rbx
4240:	84 c9                	test   cl,cl
4242:	74 1e                	je     4262 <quotearg_buffer_restyled+0x1132>
4244:	4c 89 fa             	mov    rdx,r15
4247:	4c 29 f8             	sub    rax,r15
424a:	49 39 d5             	cmp    r13,rdx
424d:	76 04                	jbe    4253 <quotearg_buffer_restyled+0x1123>
424f:	41 88 0c 16          	mov    BYTE PTR [r14+rdx*1],cl
4253:	48 83 c2 01          	add    rdx,0x1
4257:	0f b6 0c 10          	movzx  ecx,BYTE PTR [rax+rdx*1]
425b:	84 c9                	test   cl,cl
425d:	75 eb                	jne    424a <quotearg_buffer_restyled+0x111a>
425f:	49 89 d7             	mov    r15,rdx
4262:	4d 39 fd             	cmp    r13,r15
4265:	0f 86 9e fa ff ff    	jbe    3d09 <quotearg_buffer_restyled+0xbd9>
426b:	43 c6 04 3e 00       	mov    BYTE PTR [r14+r15*1],0x0
4270:	e9 94 fa ff ff       	jmp    3d09 <quotearg_buffer_restyled+0xbd9>
4275:	83 7c 24 08 02       	cmp    DWORD PTR [rsp+0x8],0x2
427a:	0f b6 5c 24 0f       	movzx  ebx,BYTE PTR [rsp+0xf]
427f:	4c 89 dd             	mov    rbp,r11
4282:	0f 94 c0             	sete   al
4285:	88 5c 24 0d          	mov    BYTE PTR [rsp+0xd],bl
4289:	e9 2b fa ff ff       	jmp    3cb9 <quotearg_buffer_restyled+0xb89>
428e:	8b 74 24 08          	mov    esi,DWORD PTR [rsp+0x8]
4292:	48 89 cf             	mov    rdi,rcx
4295:	e8 a6 ed ff ff       	call   3040 <gettext_quote.part.1>
429a:	48 89 44 24 68       	mov    QWORD PTR [rsp+0x68],rax
429f:	e9 52 fc ff ff       	jmp    3ef6 <quotearg_buffer_restyled+0xdc6>
42a4:	8b 74 24 08          	mov    esi,DWORD PTR [rsp+0x8]
42a8:	48 89 cf             	mov    rdi,rcx
42ab:	e8 90 ed ff ff       	call   3040 <gettext_quote.part.1>
42b0:	48 89 44 24 60       	mov    QWORD PTR [rsp+0x60],rax
42b5:	e9 67 fc ff ff       	jmp    3f21 <quotearg_buffer_restyled+0xdf1>
42ba:	0f b6 5c 24 0f       	movzx  ebx,BYTE PTR [rsp+0xf]
42bf:	4c 89 dd             	mov    rbp,r11
42c2:	89 d0                	mov    eax,edx
42c4:	88 5c 24 0d          	mov    BYTE PTR [rsp+0xd],bl
42c8:	e9 ec f9 ff ff       	jmp    3cb9 <quotearg_buffer_restyled+0xb89>
42cd:	48 83 ec 08          	sub    rsp,0x8
42d1:	41 b8 05 00 00 00    	mov    r8d,0x5
42d7:	4c 89 d9             	mov    rcx,r11
42da:	ff 74 24 68          	push   QWORD PTR [rsp+0x68]
42de:	ff 74 24 78          	push   QWORD PTR [rsp+0x78]
42e2:	4c 89 f7             	mov    rdi,r14
42e5:	ff 74 24 38          	push   QWORD PTR [rsp+0x38]
42e9:	44 8b 8c 24 98 00 00 	mov    r9d,DWORD PTR [rsp+0x98]
42f0:	00
42f1:	48 8b 54 24 30       	mov    rdx,QWORD PTR [rsp+0x30]
42f6:	48 8b 74 24 70       	mov    rsi,QWORD PTR [rsp+0x70]
42fb:	e8 30 ee ff ff       	call   3130 <quotearg_buffer_restyled>
4300:	48 83 c4 20          	add    rsp,0x20
4304:	49 89 c7             	mov    r15,rax
4307:	e9 fd f9 ff ff       	jmp    3d09 <quotearg_buffer_restyled+0xbd9>
430c:	0f b6 44 24 7c       	movzx  eax,BYTE PTR [rsp+0x7c]
4311:	e9 16 ff ff ff       	jmp    422c <quotearg_buffer_restyled+0x10fc>
4316:	c7 44 24 08 02 00 00 	mov    DWORD PTR [rsp+0x8],0x2
431d:	00
431e:	e9 96 f9 ff ff       	jmp    3cb9 <quotearg_buffer_restyled+0xb89>
4323:	e8 08 d5 ff ff       	call   1830 <__stack_chk_fail@plt>
4328:	c6 44 24 0d 00       	mov    BYTE PTR [rsp+0xd],0x0
432d:	e9 6f fa ff ff       	jmp    3da1 <quotearg_buffer_restyled+0xc71>
4332:	4c 89 dd             	mov    rbp,r11
4335:	e9 96 f9 ff ff       	jmp    3cd0 <quotearg_buffer_restyled+0xba0>
433a:	c6 44 24 0e 01       	mov    BYTE PTR [rsp+0xe],0x1
433f:	31 c0                	xor    eax,eax
4341:	45 31 e4             	xor    r12d,r12d
4344:	48 c7 44 24 50 00 00 	mov    QWORD PTR [rsp+0x50],0x0
434b:	00 00
434d:	e9 a2 f5 ff ff       	jmp    38f4 <quotearg_buffer_restyled+0x7c4>
4352:	4c 89 ea             	mov    rdx,r13
4355:	4c 8b 6c 24 50       	mov    r13,QWORD PTR [rsp+0x50]
435a:	e9 f3 f5 ff ff       	jmp    3952 <quotearg_buffer_restyled+0x822>
435f:	e8 dc d3 ff ff       	call   1740 <abort@plt>
4364:	66 90                	xchg   ax,ax
4366:	66 2e 0f 1f 84 00 00 	nop    WORD PTR cs:[rax+rax*1+0x0]
436d:	00 00 00

0000000000004370 <quotearg_n_options>:
4370:	41 57                	push   r15
4372:	41 56                	push   r14
4374:	4c 63 ff             	movsxd r15,edi
4377:	41 55                	push   r13
4379:	41 54                	push   r12
437b:	49 89 d6             	mov    r14,rdx
437e:	55                   	push   rbp
437f:	53                   	push   rbx
4380:	48 89 cd             	mov    rbp,rcx
4383:	48 83 ec 28          	sub    rsp,0x28
4387:	48 89 74 24 08       	mov    QWORD PTR [rsp+0x8],rsi
438c:	e8 bf d3 ff ff       	call   1750 <__errno_location@plt>
4391:	49 89 c5             	mov    r13,rax
4394:	8b 00                	mov    eax,DWORD PTR [rax]
4396:	45 85 ff             	test   r15d,r15d
4399:	48 8b 1d c0 7c 20 00 	mov    rbx,QWORD PTR [rip+0x207cc0]        # 20c060 <slotvec>
43a0:	89 44 24 18          	mov    DWORD PTR [rsp+0x18],eax
43a4:	0f 88 67 01 00 00    	js     4511 <quotearg_n_options+0x1a1>
43aa:	44 39 3d a7 7c 20 00 	cmp    DWORD PTR [rip+0x207ca7],r15d        # 20c058 <nslots>
43b1:	7f 62                	jg     4415 <quotearg_n_options+0xa5>
43b3:	41 81 ff ff ff ff 7f 	cmp    r15d,0x7fffffff
43ba:	0f 84 56 01 00 00    	je     4516 <quotearg_n_options+0x1a6>
43c0:	45 8d 67 01          	lea    r12d,[r15+0x1]
43c4:	48 8d 05 a5 7c 20 00 	lea    rax,[rip+0x207ca5]        # 20c070 <slotvec0>
43cb:	49 63 f4             	movsxd rsi,r12d
43ce:	48 c1 e6 04          	shl    rsi,0x4
43d2:	48 39 c3             	cmp    rbx,rax
43d5:	0f 84 15 01 00 00    	je     44f0 <quotearg_n_options+0x180>
43db:	48 89 df             	mov    rdi,rbx
43de:	e8 bd 15 00 00       	call   59a0 <xrealloc>
43e3:	48 89 c3             	mov    rbx,rax
43e6:	48 89 05 73 7c 20 00 	mov    QWORD PTR [rip+0x207c73],rax        # 20c060 <slotvec>
43ed:	48 63 3d 64 7c 20 00 	movsxd rdi,DWORD PTR [rip+0x207c64]        # 20c058 <nslots>
43f4:	44 89 e2             	mov    edx,r12d
43f7:	31 f6                	xor    esi,esi
43f9:	29 fa                	sub    edx,edi
43fb:	48 c1 e7 04          	shl    rdi,0x4
43ff:	48 63 d2             	movsxd rdx,edx
4402:	48 01 df             	add    rdi,rbx
4405:	48 c1 e2 04          	shl    rdx,0x4
4409:	e8 92 d4 ff ff       	call   18a0 <memset@plt>
440e:	44 89 25 43 7c 20 00 	mov    DWORD PTR [rip+0x207c43],r12d        # 20c058 <nslots>
4415:	8b 45 04             	mov    eax,DWORD PTR [rbp+0x4]
4418:	49 c1 e7 04          	shl    r15,0x4
441c:	48 83 ec 08          	sub    rsp,0x8
4420:	4c 01 fb             	add    rbx,r15
4423:	4c 8d 7d 08          	lea    r15,[rbp+0x8]
4427:	44 8b 45 00          	mov    r8d,DWORD PTR [rbp+0x0]
442b:	4c 8b 1b             	mov    r11,QWORD PTR [rbx]
442e:	4c 8b 63 08          	mov    r12,QWORD PTR [rbx+0x8]
4432:	4c 89 f1             	mov    rcx,r14
4435:	83 c8 01             	or     eax,0x1
4438:	89 44 24 24          	mov    DWORD PTR [rsp+0x24],eax
443c:	ff 75 30             	push   QWORD PTR [rbp+0x30]
443f:	41 89 c1             	mov    r9d,eax
4442:	ff 75 28             	push   QWORD PTR [rbp+0x28]
4445:	41 57                	push   r15
4447:	4c 89 de             	mov    rsi,r11
444a:	48 8b 54 24 28       	mov    rdx,QWORD PTR [rsp+0x28]
444f:	4c 89 e7             	mov    rdi,r12
4452:	4c 89 5c 24 30       	mov    QWORD PTR [rsp+0x30],r11
4457:	e8 d4 ec ff ff       	call   3130 <quotearg_buffer_restyled>
445c:	48 83 c4 20          	add    rsp,0x20
4460:	4c 8b 5c 24 10       	mov    r11,QWORD PTR [rsp+0x10]
4465:	49 39 c3             	cmp    r11,rax
4468:	77 67                	ja     44d1 <quotearg_n_options+0x161>
446a:	48 8d 70 01          	lea    rsi,[rax+0x1]
446e:	48 8d 05 8b 7c 20 00 	lea    rax,[rip+0x207c8b]        # 20c100 <slot0>
4475:	49 39 c4             	cmp    r12,rax
4478:	48 89 33             	mov    QWORD PTR [rbx],rsi
447b:	74 12                	je     448f <quotearg_n_options+0x11f>
447d:	4c 89 e7             	mov    rdi,r12
4480:	48 89 74 24 10       	mov    QWORD PTR [rsp+0x10],rsi
4485:	e8 a6 d2 ff ff       	call   1730 <free@plt>
448a:	48 8b 74 24 10       	mov    rsi,QWORD PTR [rsp+0x10]
448f:	48 89 f7             	mov    rdi,rsi
4492:	48 89 74 24 10       	mov    QWORD PTR [rsp+0x10],rsi
4497:	e8 a4 14 00 00       	call   5940 <xmalloc>
449c:	48 83 ec 08          	sub    rsp,0x8
44a0:	48 89 43 08          	mov    QWORD PTR [rbx+0x8],rax
44a4:	44 8b 45 00          	mov    r8d,DWORD PTR [rbp+0x0]
44a8:	ff 75 30             	push   QWORD PTR [rbp+0x30]
44ab:	ff 75 28             	push   QWORD PTR [rbp+0x28]
44ae:	4c 89 f1             	mov    rcx,r14
44b1:	41 57                	push   r15
44b3:	44 8b 4c 24 3c       	mov    r9d,DWORD PTR [rsp+0x3c]
44b8:	48 89 c7             	mov    rdi,rax
44bb:	48 8b 54 24 28       	mov    rdx,QWORD PTR [rsp+0x28]
44c0:	48 8b 74 24 30       	mov    rsi,QWORD PTR [rsp+0x30]
44c5:	49 89 c4             	mov    r12,rax
44c8:	e8 63 ec ff ff       	call   3130 <quotearg_buffer_restyled>
44cd:	48 83 c4 20          	add    rsp,0x20
44d1:	8b 44 24 18          	mov    eax,DWORD PTR [rsp+0x18]
44d5:	41 89 45 00          	mov    DWORD PTR [r13+0x0],eax
44d9:	48 83 c4 28          	add    rsp,0x28
44dd:	4c 89 e0             	mov    rax,r12
44e0:	5b                   	pop    rbx
44e1:	5d                   	pop    rbp
44e2:	41 5c                	pop    r12
44e4:	41 5d                	pop    r13
44e6:	41 5e                	pop    r14
44e8:	41 5f                	pop    r15
44ea:	c3                   	ret
44eb:	0f 1f 44 00 00       	nop    DWORD PTR [rax+rax*1+0x0]
44f0:	31 ff                	xor    edi,edi
44f2:	e8 a9 14 00 00       	call   59a0 <xrealloc>
44f7:	66 0f 6f 05 71 7b 20 	movdqa xmm0,XMMWORD PTR [rip+0x207b71]        # 20c070 <slotvec0>
44fe:	00
44ff:	48 89 c3             	mov    rbx,rax
4502:	48 89 05 57 7b 20 00 	mov    QWORD PTR [rip+0x207b57],rax        # 20c060 <slotvec>
4509:	0f 11 00             	movups XMMWORD PTR [rax],xmm0
450c:	e9 dc fe ff ff       	jmp    43ed <quotearg_n_options+0x7d>
4511:	e8 2a d2 ff ff       	call   1740 <abort@plt>
4516:	e8 75 16 00 00       	call   5b90 <xalloc_die>
451b:	0f 1f 44 00 00       	nop    DWORD PTR [rax+rax*1+0x0]

0000000000004520 <clone_quoting_options>:
4520:	41 54                	push   r12
4522:	55                   	push   rbp
4523:	53                   	push   rbx
4524:	48 89 fb             	mov    rbx,rdi
4527:	e8 24 d2 ff ff       	call   1750 <__errno_location@plt>
452c:	44 8b 20             	mov    r12d,DWORD PTR [rax]
452f:	48 89 c5             	mov    rbp,rax
4532:	48 8d 05 c7 7c 20 00 	lea    rax,[rip+0x207cc7]        # 20c200 <default_quoting_options>
4539:	48 85 db             	test   rbx,rbx
453c:	be 38 00 00 00       	mov    esi,0x38
4541:	48 0f 44 d8          	cmove  rbx,rax
4545:	48 89 df             	mov    rdi,rbx
4548:	e8 f3 15 00 00       	call   5b40 <xmemdup>
454d:	44 89 65 00          	mov    DWORD PTR [rbp+0x0],r12d
4551:	5b                   	pop    rbx
4552:	5d                   	pop    rbp
4553:	41 5c                	pop    r12
4555:	c3                   	ret
4556:	66 2e 0f 1f 84 00 00 	nop    WORD PTR cs:[rax+rax*1+0x0]
455d:	00 00 00

0000000000004560 <get_quoting_style>:
4560:	48 8d 05 99 7c 20 00 	lea    rax,[rip+0x207c99]        # 20c200 <default_quoting_options>
4567:	48 85 ff             	test   rdi,rdi
456a:	48 0f 44 f8          	cmove  rdi,rax
456e:	8b 07                	mov    eax,DWORD PTR [rdi]
4570:	c3                   	ret
4571:	0f 1f 44 00 00       	nop    DWORD PTR [rax+rax*1+0x0]
4576:	66 2e 0f 1f 84 00 00 	nop    WORD PTR cs:[rax+rax*1+0x0]
457d:	00 00 00

0000000000004580 <set_quoting_style>:
4580:	48 8d 05 79 7c 20 00 	lea    rax,[rip+0x207c79]        # 20c200 <default_quoting_options>
4587:	48 85 ff             	test   rdi,rdi
458a:	48 0f 44 f8          	cmove  rdi,rax
458e:	89 37                	mov    DWORD PTR [rdi],esi
4590:	c3                   	ret
4591:	0f 1f 44 00 00       	nop    DWORD PTR [rax+rax*1+0x0]
4596:	66 2e 0f 1f 84 00 00 	nop    WORD PTR cs:[rax+rax*1+0x0]
459d:	00 00 00

00000000000045a0 <set_char_quoting>:
45a0:	48 8d 05 59 7c 20 00 	lea    rax,[rip+0x207c59]        # 20c200 <default_quoting_options>
45a7:	48 85 ff             	test   rdi,rdi
45aa:	89 f1                	mov    ecx,esi
45ac:	48 0f 44 f8          	cmove  rdi,rax
45b0:	89 f0                	mov    eax,esi
45b2:	83 e1 1f             	and    ecx,0x1f
45b5:	c0 e8 05             	shr    al,0x5
45b8:	0f b6 c0             	movzx  eax,al
45bb:	48 8d 7c 87 08       	lea    rdi,[rdi+rax*4+0x8]
45c0:	8b 37                	mov    esi,DWORD PTR [rdi]
45c2:	89 f0                	mov    eax,esi
45c4:	d3 e8                	shr    eax,cl
45c6:	31 c2                	xor    edx,eax
45c8:	83 e0 01             	and    eax,0x1
45cb:	83 e2 01             	and    edx,0x1
45ce:	d3 e2                	shl    edx,cl
45d0:	31 f2                	xor    edx,esi
45d2:	89 17                	mov    DWORD PTR [rdi],edx
45d4:	c3                   	ret
45d5:	90                   	nop
45d6:	66 2e 0f 1f 84 00 00 	nop    WORD PTR cs:[rax+rax*1+0x0]
45dd:	00 00 00

00000000000045e0 <set_quoting_flags>:
45e0:	48 8d 05 19 7c 20 00 	lea    rax,[rip+0x207c19]        # 20c200 <default_quoting_options>
45e7:	48 85 ff             	test   rdi,rdi
45ea:	48 0f 44 f8          	cmove  rdi,rax
45ee:	8b 47 04             	mov    eax,DWORD PTR [rdi+0x4]
45f1:	89 77 04             	mov    DWORD PTR [rdi+0x4],esi
45f4:	c3                   	ret
45f5:	90                   	nop
45f6:	66 2e 0f 1f 84 00 00 	nop    WORD PTR cs:[rax+rax*1+0x0]
45fd:	00 00 00

0000000000004600 <set_custom_quoting>:
4600:	48 8d 05 f9 7b 20 00 	lea    rax,[rip+0x207bf9]        # 20c200 <default_quoting_options>
4607:	48 85 ff             	test   rdi,rdi
460a:	48 0f 44 f8          	cmove  rdi,rax
460e:	48 85 f6             	test   rsi,rsi
4611:	c7 07 0a 00 00 00    	mov    DWORD PTR [rdi],0xa
4617:	74 0e                	je     4627 <set_custom_quoting+0x27>
4619:	48 85 d2             	test   rdx,rdx
461c:	74 09                	je     4627 <set_custom_quoting+0x27>
461e:	48 89 77 28          	mov    QWORD PTR [rdi+0x28],rsi
4622:	48 89 57 30          	mov    QWORD PTR [rdi+0x30],rdx
4626:	c3                   	ret
4627:	48 83 ec 08          	sub    rsp,0x8
462b:	e8 10 d1 ff ff       	call   1740 <abort@plt>

0000000000004630 <quotearg_buffer>:
4630:	41 57                	push   r15
4632:	41 56                	push   r14
4634:	48 8d 05 c5 7b 20 00 	lea    rax,[rip+0x207bc5]        # 20c200 <default_quoting_options>
463b:	41 55                	push   r13
463d:	41 54                	push   r12
463f:	49 89 fd             	mov    r13,rdi
4642:	55                   	push   rbp
4643:	53                   	push   rbx
4644:	4c 89 c3             	mov    rbx,r8
4647:	49 89 f6             	mov    r14,rsi
464a:	49 89 d7             	mov    r15,rdx
464d:	48 83 ec 18          	sub    rsp,0x18
4651:	4d 85 c0             	test   r8,r8
4654:	48 0f 44 d8          	cmove  rbx,rax
4658:	48 89 4c 24 08       	mov    QWORD PTR [rsp+0x8],rcx
465d:	e8 ee d0 ff ff       	call   1750 <__errno_location@plt>
4662:	44 8b 20             	mov    r12d,DWORD PTR [rax]
4665:	48 89 c5             	mov    rbp,rax
4668:	48 8d 43 08          	lea    rax,[rbx+0x8]
466c:	48 83 ec 08          	sub    rsp,0x8
4670:	44 8b 4b 04          	mov    r9d,DWORD PTR [rbx+0x4]
4674:	ff 73 30             	push   QWORD PTR [rbx+0x30]
4677:	44 8b 03             	mov    r8d,DWORD PTR [rbx]
467a:	ff 73 28             	push   QWORD PTR [rbx+0x28]
467d:	4c 89 fa             	mov    rdx,r15
4680:	50                   	push   rax
4681:	48 8b 4c 24 28       	mov    rcx,QWORD PTR [rsp+0x28]
4686:	4c 89 f6             	mov    rsi,r14
4689:	4c 89 ef             	mov    rdi,r13
468c:	e8 9f ea ff ff       	call   3130 <quotearg_buffer_restyled>
4691:	44 89 65 00          	mov    DWORD PTR [rbp+0x0],r12d
4695:	48 83 c4 38          	add    rsp,0x38
4699:	5b                   	pop    rbx
469a:	5d                   	pop    rbp
469b:	41 5c                	pop    r12
469d:	41 5d                	pop    r13
469f:	41 5e                	pop    r14
46a1:	41 5f                	pop    r15
46a3:	c3                   	ret
46a4:	66 90                	xchg   ax,ax
46a6:	66 2e 0f 1f 84 00 00 	nop    WORD PTR cs:[rax+rax*1+0x0]
46ad:	00 00 00

00000000000046b0 <quotearg_alloc_mem>:
46b0:	41 57                	push   r15
46b2:	41 56                	push   r14
46b4:	48 8d 05 45 7b 20 00 	lea    rax,[rip+0x207b45]        # 20c200 <default_quoting_options>
46bb:	41 55                	push   r13
46bd:	41 54                	push   r12
46bf:	49 89 d4             	mov    r12,rdx
46c2:	55                   	push   rbp
46c3:	53                   	push   rbx
46c4:	48 89 cb             	mov    rbx,rcx
46c7:	49 89 fe             	mov    r14,rdi
46ca:	49 89 f7             	mov    r15,rsi
46cd:	48 83 ec 38          	sub    rsp,0x38
46d1:	48 85 c9             	test   rcx,rcx
46d4:	48 0f 44 d8          	cmove  rbx,rax
46d8:	31 ed                	xor    ebp,ebp
46da:	e8 71 d0 ff ff       	call   1750 <__errno_location@plt>
46df:	4d 85 e4             	test   r12,r12
46e2:	49 89 c5             	mov    r13,rax
46e5:	8b 00                	mov    eax,DWORD PTR [rax]
46e7:	40 0f 94 c5          	sete   bpl
46eb:	0b 6b 04             	or     ebp,DWORD PTR [rbx+0x4]
46ee:	4c 8d 53 08          	lea    r10,[rbx+0x8]
46f2:	48 83 ec 08          	sub    rsp,0x8
46f6:	44 8b 03             	mov    r8d,DWORD PTR [rbx]
46f9:	4c 89 f9             	mov    rcx,r15
46fc:	89 44 24 14          	mov    DWORD PTR [rsp+0x14],eax
4700:	ff 73 30             	push   QWORD PTR [rbx+0x30]
4703:	4c 89 f2             	mov    rdx,r14
4706:	ff 73 28             	push   QWORD PTR [rbx+0x28]
4709:	41 52                	push   r10
470b:	31 f6                	xor    esi,esi
470d:	41 89 e9             	mov    r9d,ebp
4710:	31 ff                	xor    edi,edi
4712:	4c 89 54 24 40       	mov    QWORD PTR [rsp+0x40],r10
4717:	e8 14 ea ff ff       	call   3130 <quotearg_buffer_restyled>
471c:	48 8d 70 01          	lea    rsi,[rax+0x1]
4720:	48 89 44 24 48       	mov    QWORD PTR [rsp+0x48],rax
4725:	48 83 c4 20          	add    rsp,0x20
4729:	48 89 f7             	mov    rdi,rsi
472c:	48 89 74 24 18       	mov    QWORD PTR [rsp+0x18],rsi
4731:	e8 0a 12 00 00       	call   5940 <xmalloc>
4736:	48 89 44 24 10       	mov    QWORD PTR [rsp+0x10],rax
473b:	48 83 ec 08          	sub    rsp,0x8
473f:	ff 73 30             	push   QWORD PTR [rbx+0x30]
4742:	ff 73 28             	push   QWORD PTR [rbx+0x28]
4745:	4c 8b 54 24 38       	mov    r10,QWORD PTR [rsp+0x38]
474a:	41 89 e9             	mov    r9d,ebp
474d:	44 8b 03             	mov    r8d,DWORD PTR [rbx]
4750:	4c 89 f9             	mov    rcx,r15
4753:	4c 89 f2             	mov    rdx,r14
4756:	48 89 c7             	mov    rdi,rax
4759:	41 52                	push   r10
475b:	48 8b 74 24 38       	mov    rsi,QWORD PTR [rsp+0x38]
4760:	e8 cb e9 ff ff       	call   3130 <quotearg_buffer_restyled>
4765:	8b 44 24 2c          	mov    eax,DWORD PTR [rsp+0x2c]
4769:	48 83 c4 20          	add    rsp,0x20
476d:	4d 85 e4             	test   r12,r12
4770:	41 89 45 00          	mov    DWORD PTR [r13+0x0],eax
4774:	74 09                	je     477f <quotearg_alloc_mem+0xcf>
4776:	4c 8b 5c 24 28       	mov    r11,QWORD PTR [rsp+0x28]
477b:	4d 89 1c 24          	mov    QWORD PTR [r12],r11
477f:	48 8b 44 24 10       	mov    rax,QWORD PTR [rsp+0x10]
4784:	48 83 c4 38          	add    rsp,0x38
4788:	5b                   	pop    rbx
4789:	5d                   	pop    rbp
478a:	41 5c                	pop    r12
478c:	41 5d                	pop    r13
478e:	41 5e                	pop    r14
4790:	41 5f                	pop    r15
4792:	c3                   	ret
4793:	0f 1f 00             	nop    DWORD PTR [rax]
4796:	66 2e 0f 1f 84 00 00 	nop    WORD PTR cs:[rax+rax*1+0x0]
479d:	00 00 00

00000000000047a0 <quotearg_alloc>:
47a0:	48 89 d1             	mov    rcx,rdx
47a3:	31 d2                	xor    edx,edx
47a5:	e9 06 ff ff ff       	jmp    46b0 <quotearg_alloc_mem>
47aa:	66 0f 1f 44 00 00    	nop    WORD PTR [rax+rax*1+0x0]

00000000000047b0 <quotearg_free>:
47b0:	8b 05 a2 78 20 00    	mov    eax,DWORD PTR [rip+0x2078a2]        # 20c058 <nslots>
47b6:	41 54                	push   r12
47b8:	4c 8b 25 a1 78 20 00 	mov    r12,QWORD PTR [rip+0x2078a1]        # 20c060 <slotvec>
47bf:	55                   	push   rbp
47c0:	53                   	push   rbx
47c1:	83 f8 01             	cmp    eax,0x1
47c4:	7e 2b                	jle    47f1 <quotearg_free+0x41>
47c6:	83 e8 02             	sub    eax,0x2
47c9:	49 8d 5c 24 18       	lea    rbx,[r12+0x18]
47ce:	48 c1 e0 04          	shl    rax,0x4
47d2:	49 8d 6c 04 28       	lea    rbp,[r12+rax*1+0x28]
47d7:	66 0f 1f 84 00 00 00 	nop    WORD PTR [rax+rax*1+0x0]
47de:	00 00
47e0:	48 8b 3b             	mov    rdi,QWORD PTR [rbx]
47e3:	48 83 c3 10          	add    rbx,0x10
47e7:	e8 44 cf ff ff       	call   1730 <free@plt>
47ec:	48 39 eb             	cmp    rbx,rbp
47ef:	75 ef                	jne    47e0 <quotearg_free+0x30>
47f1:	49 8b 7c 24 08       	mov    rdi,QWORD PTR [r12+0x8]
47f6:	48 8d 1d 03 79 20 00 	lea    rbx,[rip+0x207903]        # 20c100 <slot0>
47fd:	48 39 df             	cmp    rdi,rbx
4800:	74 17                	je     4819 <quotearg_free+0x69>
4802:	e8 29 cf ff ff       	call   1730 <free@plt>
4807:	48 c7 05 5e 78 20 00 	mov    QWORD PTR [rip+0x20785e],0x100        # 20c070 <slotvec0>
480e:	00 01 00 00
4812:	48 89 1d 5f 78 20 00 	mov    QWORD PTR [rip+0x20785f],rbx        # 20c078 <slotvec0+0x8>
4819:	48 8d 1d 50 78 20 00 	lea    rbx,[rip+0x207850]        # 20c070 <slotvec0>
4820:	49 39 dc             	cmp    r12,rbx
4823:	74 0f                	je     4834 <quotearg_free+0x84>
4825:	4c 89 e7             	mov    rdi,r12
4828:	e8 03 cf ff ff       	call   1730 <free@plt>
482d:	48 89 1d 2c 78 20 00 	mov    QWORD PTR [rip+0x20782c],rbx        # 20c060 <slotvec>
4834:	5b                   	pop    rbx
4835:	c7 05 19 78 20 00 01 	mov    DWORD PTR [rip+0x207819],0x1        # 20c058 <nslots>
483c:	00 00 00
483f:	5d                   	pop    rbp
4840:	41 5c                	pop    r12
4842:	c3                   	ret
4843:	0f 1f 00             	nop    DWORD PTR [rax]
4846:	66 2e 0f 1f 84 00 00 	nop    WORD PTR cs:[rax+rax*1+0x0]
484d:	00 00 00

0000000000004850 <quotearg_n>:
4850:	48 8d 0d a9 79 20 00 	lea    rcx,[rip+0x2079a9]        # 20c200 <default_quoting_options>
4857:	48 c7 c2 ff ff ff ff 	mov    rdx,0xffffffffffffffff
485e:	e9 0d fb ff ff       	jmp    4370 <quotearg_n_options>
4863:	0f 1f 00             	nop    DWORD PTR [rax]
4866:	66 2e 0f 1f 84 00 00 	nop    WORD PTR cs:[rax+rax*1+0x0]
486d:	00 00 00

0000000000004870 <quotearg_n_mem>:
4870:	48 8d 0d 89 79 20 00 	lea    rcx,[rip+0x207989]        # 20c200 <default_quoting_options>
4877:	e9 f4 fa ff ff       	jmp    4370 <quotearg_n_options>
487c:	0f 1f 40 00          	nop    DWORD PTR [rax+0x0]

0000000000004880 <quotearg>:
4880:	48 8d 0d 79 79 20 00 	lea    rcx,[rip+0x207979]        # 20c200 <default_quoting_options>
4887:	48 89 fe             	mov    rsi,rdi
488a:	48 c7 c2 ff ff ff ff 	mov    rdx,0xffffffffffffffff
4891:	31 ff                	xor    edi,edi
4893:	e9 d8 fa ff ff       	jmp    4370 <quotearg_n_options>
4898:	0f 1f 84 00 00 00 00 	nop    DWORD PTR [rax+rax*1+0x0]
489f:	00

00000000000048a0 <quotearg_mem>:
48a0:	48 8d 0d 59 79 20 00 	lea    rcx,[rip+0x207959]        # 20c200 <default_quoting_options>
48a7:	48 89 f2             	mov    rdx,rsi
48aa:	48 89 fe             	mov    rsi,rdi
48ad:	31 ff                	xor    edi,edi
48af:	e9 bc fa ff ff       	jmp    4370 <quotearg_n_options>
48b4:	66 90                	xchg   ax,ax
48b6:	66 2e 0f 1f 84 00 00 	nop    WORD PTR cs:[rax+rax*1+0x0]
48bd:	00 00 00

00000000000048c0 <quotearg_n_style>:
48c0:	48 83 ec 48          	sub    rsp,0x48
48c4:	48 89 d0             	mov    rax,rdx
48c7:	64 48 8b 14 25 28 00 	mov    rdx,QWORD PTR fs:0x28
48ce:	00 00
48d0:	48 89 54 24 38       	mov    QWORD PTR [rsp+0x38],rdx
48d5:	31 d2                	xor    edx,edx
48d7:	83 fe 0a             	cmp    esi,0xa
48da:	74 68                	je     4944 <quotearg_n_style+0x84>
48dc:	89 34 24             	mov    DWORD PTR [rsp],esi
48df:	48 89 e1             	mov    rcx,rsp
48e2:	48 c7 c2 ff ff ff ff 	mov    rdx,0xffffffffffffffff
48e9:	48 89 c6             	mov    rsi,rax
48ec:	48 c7 44 24 04 00 00 	mov    QWORD PTR [rsp+0x4],0x0
48f3:	00 00
48f5:	48 c7 44 24 0c 00 00 	mov    QWORD PTR [rsp+0xc],0x0
48fc:	00 00
48fe:	48 c7 44 24 14 00 00 	mov    QWORD PTR [rsp+0x14],0x0
4905:	00 00
4907:	48 c7 44 24 1c 00 00 	mov    QWORD PTR [rsp+0x1c],0x0
490e:	00 00
4910:	48 c7 44 24 24 00 00 	mov    QWORD PTR [rsp+0x24],0x0
4917:	00 00
4919:	48 c7 44 24 2c 00 00 	mov    QWORD PTR [rsp+0x2c],0x0
4920:	00 00
4922:	c7 44 24 34 00 00 00 	mov    DWORD PTR [rsp+0x34],0x0
4929:	00
492a:	e8 41 fa ff ff       	call   4370 <quotearg_n_options>
492f:	48 8b 4c 24 38       	mov    rcx,QWORD PTR [rsp+0x38]
4934:	64 48 33 0c 25 28 00 	xor    rcx,QWORD PTR fs:0x28
493b:	00 00
493d:	75 0a                	jne    4949 <quotearg_n_style+0x89>
493f:	48 83 c4 48          	add    rsp,0x48
4943:	c3                   	ret
4944:	e8 f7 cd ff ff       	call   1740 <abort@plt>
4949:	e8 e2 ce ff ff       	call   1830 <__stack_chk_fail@plt>
494e:	66 90                	xchg   ax,ax

0000000000004950 <quotearg_n_style_mem>:
4950:	48 83 ec 48          	sub    rsp,0x48
4954:	48 89 d0             	mov    rax,rdx
4957:	48 89 ca             	mov    rdx,rcx
495a:	64 48 8b 0c 25 28 00 	mov    rcx,QWORD PTR fs:0x28
4961:	00 00
4963:	48 89 4c 24 38       	mov    QWORD PTR [rsp+0x38],rcx
4968:	31 c9                	xor    ecx,ecx
496a:	83 fe 0a             	cmp    esi,0xa
496d:	74 61                	je     49d0 <quotearg_n_style_mem+0x80>
496f:	89 34 24             	mov    DWORD PTR [rsp],esi
4972:	48 89 e1             	mov    rcx,rsp
4975:	48 89 c6             	mov    rsi,rax
4978:	48 c7 44 24 04 00 00 	mov    QWORD PTR [rsp+0x4],0x0
497f:	00 00
4981:	48 c7 44 24 0c 00 00 	mov    QWORD PTR [rsp+0xc],0x0
4988:	00 00
498a:	48 c7 44 24 14 00 00 	mov    QWORD PTR [rsp+0x14],0x0
4991:	00 00
4993:	48 c7 44 24 1c 00 00 	mov    QWORD PTR [rsp+0x1c],0x0
499a:	00 00
499c:	48 c7 44 24 24 00 00 	mov    QWORD PTR [rsp+0x24],0x0
49a3:	00 00
49a5:	48 c7 44 24 2c 00 00 	mov    QWORD PTR [rsp+0x2c],0x0
49ac:	00 00
49ae:	c7 44 24 34 00 00 00 	mov    DWORD PTR [rsp+0x34],0x0
49b5:	00
49b6:	e8 b5 f9 ff ff       	call   4370 <quotearg_n_options>
49bb:	48 8b 54 24 38       	mov    rdx,QWORD PTR [rsp+0x38]
49c0:	64 48 33 14 25 28 00 	xor    rdx,QWORD PTR fs:0x28
49c7:	00 00
49c9:	75 0a                	jne    49d5 <quotearg_n_style_mem+0x85>
49cb:	48 83 c4 48          	add    rsp,0x48
49cf:	c3                   	ret
49d0:	e8 6b cd ff ff       	call   1740 <abort@plt>
49d5:	e8 56 ce ff ff       	call   1830 <__stack_chk_fail@plt>
49da:	66 0f 1f 44 00 00    	nop    WORD PTR [rax+rax*1+0x0]

00000000000049e0 <quotearg_style>:
49e0:	48 89 f2             	mov    rdx,rsi
49e3:	89 fe                	mov    esi,edi
49e5:	31 ff                	xor    edi,edi
49e7:	e9 d4 fe ff ff       	jmp    48c0 <quotearg_n_style>
49ec:	0f 1f 40 00          	nop    DWORD PTR [rax+0x0]

00000000000049f0 <quotearg_style_mem>:
49f0:	48 89 d1             	mov    rcx,rdx
49f3:	48 89 f2             	mov    rdx,rsi
49f6:	89 fe                	mov    esi,edi
49f8:	31 ff                	xor    edi,edi
49fa:	e9 51 ff ff ff       	jmp    4950 <quotearg_n_style_mem>
49ff:	90                   	nop

0000000000004a00 <quotearg_char_mem>:
4a00:	48 83 ec 48          	sub    rsp,0x48
4a04:	89 d1                	mov    ecx,edx
4a06:	64 48 8b 04 25 28 00 	mov    rax,QWORD PTR fs:0x28
4a0d:	00 00
4a0f:	48 89 44 24 38       	mov    QWORD PTR [rsp+0x38],rax
4a14:	31 c0                	xor    eax,eax
4a16:	48 8b 05 13 78 20 00 	mov    rax,QWORD PTR [rip+0x207813]        # 20c230 <default_quoting_options+0x30>
4a1d:	49 89 e0             	mov    r8,rsp
4a20:	83 e1 1f             	and    ecx,0x1f
4a23:	66 0f 6f 05 d5 77 20 	movdqa xmm0,XMMWORD PTR [rip+0x2077d5]        # 20c200 <default_quoting_options>
4a2a:	00
4a2b:	48 89 44 24 30       	mov    QWORD PTR [rsp+0x30],rax
4a30:	89 d0                	mov    eax,edx
4a32:	0f 29 04 24          	movaps XMMWORD PTR [rsp],xmm0
4a36:	c0 e8 05             	shr    al,0x5
4a39:	0f b6 c0             	movzx  eax,al
4a3c:	4d 8d 4c 80 08       	lea    r9,[r8+rax*4+0x8]
4a41:	66 0f 6f 05 c7 77 20 	movdqa xmm0,XMMWORD PTR [rip+0x2077c7]        # 20c210 <default_quoting_options+0x10>
4a48:	00
4a49:	0f 29 44 24 10       	movaps XMMWORD PTR [rsp+0x10],xmm0
4a4e:	66 0f 6f 05 ca 77 20 	movdqa xmm0,XMMWORD PTR [rip+0x2077ca]        # 20c220 <default_quoting_options+0x20>
4a55:	00
4a56:	0f 29 44 24 20       	movaps XMMWORD PTR [rsp+0x20],xmm0
4a5b:	41 8b 11             	mov    edx,DWORD PTR [r9]
4a5e:	89 d0                	mov    eax,edx
4a60:	d3 e8                	shr    eax,cl
4a62:	f7 d0                	not    eax
4a64:	83 e0 01             	and    eax,0x1
4a67:	d3 e0                	shl    eax,cl
4a69:	4c 89 c1             	mov    rcx,r8
4a6c:	31 d0                	xor    eax,edx
4a6e:	48 89 f2             	mov    rdx,rsi
4a71:	48 89 fe             	mov    rsi,rdi
4a74:	41 89 01             	mov    DWORD PTR [r9],eax
4a77:	31 ff                	xor    edi,edi
4a79:	e8 f2 f8 ff ff       	call   4370 <quotearg_n_options>
4a7e:	48 8b 74 24 38       	mov    rsi,QWORD PTR [rsp+0x38]
4a83:	64 48 33 34 25 28 00 	xor    rsi,QWORD PTR fs:0x28
4a8a:	00 00
4a8c:	75 05                	jne    4a93 <quotearg_char_mem+0x93>
4a8e:	48 83 c4 48          	add    rsp,0x48
4a92:	c3                   	ret
4a93:	e8 98 cd ff ff       	call   1830 <__stack_chk_fail@plt>
4a98:	0f 1f 84 00 00 00 00 	nop    DWORD PTR [rax+rax*1+0x0]
4a9f:	00

0000000000004aa0 <quotearg_char>:
4aa0:	40 0f be d6          	movsx  edx,sil
4aa4:	48 c7 c6 ff ff ff ff 	mov    rsi,0xffffffffffffffff
4aab:	e9 50 ff ff ff       	jmp    4a00 <quotearg_char_mem>

0000000000004ab0 <quotearg_colon>:
4ab0:	ba 3a 00 00 00       	mov    edx,0x3a
4ab5:	48 c7 c6 ff ff ff ff 	mov    rsi,0xffffffffffffffff
4abc:	e9 3f ff ff ff       	jmp    4a00 <quotearg_char_mem>
4ac1:	0f 1f 44 00 00       	nop    DWORD PTR [rax+rax*1+0x0]
4ac6:	66 2e 0f 1f 84 00 00 	nop    WORD PTR cs:[rax+rax*1+0x0]
4acd:	00 00 00

0000000000004ad0 <quotearg_colon_mem>:
4ad0:	ba 3a 00 00 00       	mov    edx,0x3a
4ad5:	e9 26 ff ff ff       	jmp    4a00 <quotearg_char_mem>
4ada:	66 0f 1f 44 00 00    	nop    WORD PTR [rax+rax*1+0x0]

0000000000004ae0 <quotearg_n_style_colon>:
4ae0:	48 83 ec 48          	sub    rsp,0x48
4ae4:	48 89 d0             	mov    rax,rdx
4ae7:	64 48 8b 14 25 28 00 	mov    rdx,QWORD PTR fs:0x28
4aee:	00 00
4af0:	48 89 54 24 38       	mov    QWORD PTR [rsp+0x38],rdx
4af5:	31 d2                	xor    edx,edx
4af7:	83 fe 0a             	cmp    esi,0xa
4afa:	74 68                	je     4b64 <quotearg_n_style_colon+0x84>
4afc:	89 34 24             	mov    DWORD PTR [rsp],esi
4aff:	48 89 e1             	mov    rcx,rsp
4b02:	48 c7 c2 ff ff ff ff 	mov    rdx,0xffffffffffffffff
4b09:	48 89 c6             	mov    rsi,rax
4b0c:	48 c7 44 24 04 00 00 	mov    QWORD PTR [rsp+0x4],0x0
4b13:	00 00
4b15:	48 c7 44 24 0c 00 00 	mov    QWORD PTR [rsp+0xc],0x4000000
4b1c:	00 04
4b1e:	48 c7 44 24 14 00 00 	mov    QWORD PTR [rsp+0x14],0x0
4b25:	00 00
4b27:	48 c7 44 24 1c 00 00 	mov    QWORD PTR [rsp+0x1c],0x0
4b2e:	00 00
4b30:	48 c7 44 24 24 00 00 	mov    QWORD PTR [rsp+0x24],0x0
4b37:	00 00
4b39:	48 c7 44 24 2c 00 00 	mov    QWORD PTR [rsp+0x2c],0x0
4b40:	00 00
4b42:	c7 44 24 34 00 00 00 	mov    DWORD PTR [rsp+0x34],0x0
4b49:	00
4b4a:	e8 21 f8 ff ff       	call   4370 <quotearg_n_options>
4b4f:	48 8b 4c 24 38       	mov    rcx,QWORD PTR [rsp+0x38]
4b54:	64 48 33 0c 25 28 00 	xor    rcx,QWORD PTR fs:0x28
4b5b:	00 00
4b5d:	75 0a                	jne    4b69 <quotearg_n_style_colon+0x89>
4b5f:	48 83 c4 48          	add    rsp,0x48
4b63:	c3                   	ret
4b64:	e8 d7 cb ff ff       	call   1740 <abort@plt>
4b69:	e8 c2 cc ff ff       	call   1830 <__stack_chk_fail@plt>
4b6e:	66 90                	xchg   ax,ax

0000000000004b70 <quotearg_n_custom_mem>:
4b70:	48 83 ec 48          	sub    rsp,0x48
4b74:	49 89 c9             	mov    r9,rcx
4b77:	48 8b 0d b2 76 20 00 	mov    rcx,QWORD PTR [rip+0x2076b2]        # 20c230 <default_quoting_options+0x30>
4b7e:	66 0f 6f 05 7a 76 20 	movdqa xmm0,XMMWORD PTR [rip+0x20767a]        # 20c200 <default_quoting_options>
4b85:	00
4b86:	64 48 8b 04 25 28 00 	mov    rax,QWORD PTR fs:0x28
4b8d:	00 00
4b8f:	48 89 44 24 38       	mov    QWORD PTR [rsp+0x38],rax
4b94:	31 c0                	xor    eax,eax
4b96:	0f 29 04 24          	movaps XMMWORD PTR [rsp],xmm0
4b9a:	48 85 f6             	test   rsi,rsi
4b9d:	48 89 4c 24 30       	mov    QWORD PTR [rsp+0x30],rcx
4ba2:	c7 04 24 0a 00 00 00 	mov    DWORD PTR [rsp],0xa
4ba9:	66 0f 6f 05 5f 76 20 	movdqa xmm0,XMMWORD PTR [rip+0x20765f]        # 20c210 <default_quoting_options+0x10>
4bb0:	00
4bb1:	0f 29 44 24 10       	movaps XMMWORD PTR [rsp+0x10],xmm0
4bb6:	66 0f 6f 05 62 76 20 	movdqa xmm0,XMMWORD PTR [rip+0x207662]        # 20c220 <default_quoting_options+0x20>
4bbd:	00
4bbe:	0f 29 44 24 20       	movaps XMMWORD PTR [rsp+0x20],xmm0
4bc3:	74 32                	je     4bf7 <quotearg_n_custom_mem+0x87>
4bc5:	48 85 d2             	test   rdx,rdx
4bc8:	74 2d                	je     4bf7 <quotearg_n_custom_mem+0x87>
4bca:	48 89 74 24 28       	mov    QWORD PTR [rsp+0x28],rsi
4bcf:	48 89 54 24 30       	mov    QWORD PTR [rsp+0x30],rdx
4bd4:	48 89 e1             	mov    rcx,rsp
4bd7:	4c 89 c2             	mov    rdx,r8
4bda:	4c 89 ce             	mov    rsi,r9
4bdd:	e8 8e f7 ff ff       	call   4370 <quotearg_n_options>
4be2:	48 8b 7c 24 38       	mov    rdi,QWORD PTR [rsp+0x38]
4be7:	64 48 33 3c 25 28 00 	xor    rdi,QWORD PTR fs:0x28
4bee:	00 00
4bf0:	75 0a                	jne    4bfc <quotearg_n_custom_mem+0x8c>
4bf2:	48 83 c4 48          	add    rsp,0x48
4bf6:	c3                   	ret
4bf7:	e8 44 cb ff ff       	call   1740 <abort@plt>
4bfc:	e8 2f cc ff ff       	call   1830 <__stack_chk_fail@plt>
4c01:	0f 1f 44 00 00       	nop    DWORD PTR [rax+rax*1+0x0]
4c06:	66 2e 0f 1f 84 00 00 	nop    WORD PTR cs:[rax+rax*1+0x0]
4c0d:	00 00 00

0000000000004c10 <quotearg_n_custom>:
4c10:	49 c7 c0 ff ff ff ff 	mov    r8,0xffffffffffffffff
4c17:	e9 54 ff ff ff       	jmp    4b70 <quotearg_n_custom_mem>
4c1c:	0f 1f 40 00          	nop    DWORD PTR [rax+0x0]

0000000000004c20 <quotearg_custom>:
4c20:	48 89 d1             	mov    rcx,rdx
4c23:	49 c7 c0 ff ff ff ff 	mov    r8,0xffffffffffffffff
4c2a:	48 89 f2             	mov    rdx,rsi
4c2d:	48 89 fe             	mov    rsi,rdi
4c30:	31 ff                	xor    edi,edi
4c32:	e9 39 ff ff ff       	jmp    4b70 <quotearg_n_custom_mem>
4c37:	66 0f 1f 84 00 00 00 	nop    WORD PTR [rax+rax*1+0x0]
4c3e:	00 00

0000000000004c40 <quotearg_custom_mem>:
4c40:	49 89 c8             	mov    r8,rcx
4c43:	48 89 d1             	mov    rcx,rdx
4c46:	48 89 f2             	mov    rdx,rsi
4c49:	48 89 fe             	mov    rsi,rdi
4c4c:	31 ff                	xor    edi,edi
4c4e:	e9 1d ff ff ff       	jmp    4b70 <quotearg_n_custom_mem>
4c53:	0f 1f 00             	nop    DWORD PTR [rax]
4c56:	66 2e 0f 1f 84 00 00 	nop    WORD PTR cs:[rax+rax*1+0x0]
4c5d:	00 00 00

0000000000004c60 <quote_n_mem>:
4c60:	48 8d 0d b9 73 20 00 	lea    rcx,[rip+0x2073b9]        # 20c020 <quote_quoting_options>
4c67:	e9 04 f7 ff ff       	jmp    4370 <quotearg_n_options>
4c6c:	0f 1f 40 00          	nop    DWORD PTR [rax+0x0]

0000000000004c70 <quote_mem>:
4c70:	48 8d 0d a9 73 20 00 	lea    rcx,[rip+0x2073a9]        # 20c020 <quote_quoting_options>
4c77:	48 89 f2             	mov    rdx,rsi
4c7a:	48 89 fe             	mov    rsi,rdi
4c7d:	31 ff                	xor    edi,edi
4c7f:	e9 ec f6 ff ff       	jmp    4370 <quotearg_n_options>
4c84:	66 90                	xchg   ax,ax
4c86:	66 2e 0f 1f 84 00 00 	nop    WORD PTR cs:[rax+rax*1+0x0]
4c8d:	00 00 00

0000000000004c90 <quote_n>:
4c90:	48 8d 0d 89 73 20 00 	lea    rcx,[rip+0x207389]        # 20c020 <quote_quoting_options>
4c97:	48 c7 c2 ff ff ff ff 	mov    rdx,0xffffffffffffffff
4c9e:	e9 cd f6 ff ff       	jmp    4370 <quotearg_n_options>
4ca3:	0f 1f 00             	nop    DWORD PTR [rax]
4ca6:	66 2e 0f 1f 84 00 00 	nop    WORD PTR cs:[rax+rax*1+0x0]
4cad:	00 00 00

0000000000004cb0 <quote>:
4cb0:	48 8d 0d 69 73 20 00 	lea    rcx,[rip+0x207369]        # 20c020 <quote_quoting_options>
4cb7:	48 89 fe             	mov    rsi,rdi
4cba:	48 c7 c2 ff ff ff ff 	mov    rdx,0xffffffffffffffff
4cc1:	31 ff                	xor    edi,edi
4cc3:	e9 a8 f6 ff ff       	jmp    4370 <quotearg_n_options>
4cc8:	0f 1f 84 00 00 00 00 	nop    DWORD PTR [rax+rax*1+0x0]
4ccf:	00

0000000000004cd0 <savewd_init>:
4cd0:	c7 07 00 00 00 00    	mov    DWORD PTR [rdi],0x0
4cd6:	c3                   	ret
4cd7:	66 0f 1f 84 00 00 00 	nop    WORD PTR [rax+rax*1+0x0]
4cde:	00 00

0000000000004ce0 <savewd_errno>:
4ce0:	31 c0                	xor    eax,eax
4ce2:	83 3f 04             	cmp    DWORD PTR [rdi],0x4
4ce5:	74 09                	je     4cf0 <savewd_errno+0x10>
4ce7:	f3 c3                	repz ret
4ce9:	0f 1f 80 00 00 00 00 	nop    DWORD PTR [rax+0x0]
4cf0:	8b 47 04             	mov    eax,DWORD PTR [rdi+0x4]
4cf3:	c3                   	ret
4cf4:	66 90                	xchg   ax,ax
4cf6:	66 2e 0f 1f 84 00 00 	nop    WORD PTR cs:[rax+rax*1+0x0]
4cfd:	00 00 00

0000000000004d00 <savewd_chdir>:
4d00:	48 85 c9             	test   rcx,rcx
4d03:	41 56                	push   r14
4d05:	41 89 d6             	mov    r14d,edx
4d08:	41 55                	push   r13
4d0a:	49 89 f5             	mov    r13,rsi
4d0d:	41 54                	push   r12
4d0f:	49 89 fc             	mov    r12,rdi
4d12:	55                   	push   rbp
4d13:	48 89 cd             	mov    rbp,rcx
4d16:	53                   	push   rbx
4d17:	0f 84 1b 01 00 00    	je     4e38 <savewd_chdir+0x138>
4d1d:	89 d6                	mov    esi,edx
4d1f:	4c 89 ef             	mov    rdi,r13
4d22:	c1 e6 11             	shl    esi,0x11
4d25:	81 e6 00 00 02 00    	and    esi,0x20000
4d2b:	81 ce 00 09 01 00    	or     esi,0x10900
4d31:	e8 8a ca ff ff       	call   17c0 <__open_2@plt>
4d36:	89 45 00             	mov    DWORD PTR [rbp+0x0],eax
4d39:	89 c3                	mov    ebx,eax
4d3b:	e8 10 ca ff ff       	call   1750 <__errno_location@plt>
4d40:	8b 00                	mov    eax,DWORD PTR [rax]
4d42:	89 45 04             	mov    DWORD PTR [rbp+0x4],eax
4d45:	85 db                	test   ebx,ebx
4d47:	78 3f                	js     4d88 <savewd_chdir+0x88>
4d49:	41 83 e6 02          	and    r14d,0x2
4d4d:	74 47                	je     4d96 <savewd_chdir+0x96>
4d4f:	48 85 ed             	test   rbp,rbp
4d52:	0f 94 c0             	sete   al
4d55:	45 31 f6             	xor    r14d,r14d
4d58:	85 db                	test   ebx,ebx
4d5a:	78 1a                	js     4d76 <savewd_chdir+0x76>
4d5c:	84 c0                	test   al,al
4d5e:	74 16                	je     4d76 <savewd_chdir+0x76>
4d60:	e8 eb c9 ff ff       	call   1750 <__errno_location@plt>
4d65:	44 8b 20             	mov    r12d,DWORD PTR [rax]
4d68:	48 89 c5             	mov    rbp,rax
4d6b:	89 df                	mov    edi,ebx
4d6d:	e8 3e cb ff ff       	call   18b0 <close@plt>
4d72:	44 89 65 00          	mov    DWORD PTR [rbp+0x0],r12d
4d76:	5b                   	pop    rbx
4d77:	44 89 f0             	mov    eax,r14d
4d7a:	5d                   	pop    rbp
4d7b:	41 5c                	pop    r12
4d7d:	41 5d                	pop    r13
4d7f:	41 5e                	pop    r14
4d81:	c3                   	ret
4d82:	66 0f 1f 44 00 00    	nop    WORD PTR [rax+rax*1+0x0]
4d88:	e8 c3 c9 ff ff       	call   1750 <__errno_location@plt>
4d8d:	83 38 0d             	cmp    DWORD PTR [rax],0xd
4d90:	0f 85 ca 01 00 00    	jne    4f60 <savewd_chdir+0x260>
4d96:	41 8b 0c 24          	mov    ecx,DWORD PTR [r12]
4d9a:	83 f9 05             	cmp    ecx,0x5
4d9d:	0f 87 e7 01 00 00    	ja     4f8a <savewd_chdir+0x28a>
4da3:	b8 01 00 00 00       	mov    eax,0x1
4da8:	48 d3 e0             	shl    rax,cl
4dab:	a8 36                	test   al,0x36
4dad:	75 35                	jne    4de4 <savewd_chdir+0xe4>
4daf:	a8 08                	test   al,0x8
4db1:	0f 85 c9 00 00 00    	jne    4e80 <savewd_chdir+0x180>
4db7:	85 c9                	test   ecx,ecx
4db9:	0f 85 cb 01 00 00    	jne    4f8a <savewd_chdir+0x28a>
4dbf:	48 8d 3d e6 3e 00 00 	lea    rdi,[rip+0x3ee6]        # 8cac <_IO_stdin_used+0x56c>
4dc6:	31 f6                	xor    esi,esi
4dc8:	31 c0                	xor    eax,eax
4dca:	e8 11 10 00 00       	call   5de0 <open_safer>
4dcf:	85 c0                	test   eax,eax
4dd1:	0f 88 09 01 00 00    	js     4ee0 <savewd_chdir+0x1e0>
4dd7:	41 c7 04 24 01 00 00 	mov    DWORD PTR [r12],0x1
4dde:	00
4ddf:	41 89 44 24 04       	mov    DWORD PTR [r12+0x4],eax
4de4:	85 db                	test   ebx,ebx
4de6:	78 30                	js     4e18 <savewd_chdir+0x118>
4de8:	89 df                	mov    edi,ebx
4dea:	e8 a1 cb ff ff       	call   1990 <fchdir@plt>
4def:	85 c0                	test   eax,eax
4df1:	41 89 c6             	mov    r14d,eax
4df4:	75 7a                	jne    4e70 <savewd_chdir+0x170>
4df6:	41 83 3c 24 05       	cmp    DWORD PTR [r12],0x5
4dfb:	0f 87 6a 01 00 00    	ja     4f6b <savewd_chdir+0x26b>
4e01:	41 8b 04 24          	mov    eax,DWORD PTR [r12]
4e05:	48 8d 15 24 45 00 00 	lea    rdx,[rip+0x4524]        # 9330 <quoting_style_vals+0x90>
4e0c:	48 63 04 82          	movsxd rax,DWORD PTR [rdx+rax*4]
4e10:	48 01 d0             	add    rax,rdx
4e13:	ff e0                	jmp    rax
4e15:	0f 1f 00             	nop    DWORD PTR [rax]
4e18:	4c 89 ef             	mov    rdi,r13
4e1b:	e8 00 ca ff ff       	call   1820 <chdir@plt>
4e20:	85 c0                	test   eax,eax
4e22:	41 89 c6             	mov    r14d,eax
4e25:	74 cf                	je     4df6 <savewd_chdir+0xf6>
4e27:	5b                   	pop    rbx
4e28:	44 89 f0             	mov    eax,r14d
4e2b:	5d                   	pop    rbp
4e2c:	41 5c                	pop    r12
4e2e:	41 5d                	pop    r13
4e30:	41 5e                	pop    r14
4e32:	c3                   	ret
4e33:	0f 1f 44 00 00       	nop    DWORD PTR [rax+rax*1+0x0]
4e38:	f6 c2 01             	test   dl,0x1
4e3b:	bb ff ff ff ff       	mov    ebx,0xffffffff
4e40:	0f 84 50 ff ff ff    	je     4d96 <savewd_chdir+0x96>
4e46:	89 d6                	mov    esi,edx
4e48:	4c 89 ef             	mov    rdi,r13
4e4b:	c1 e6 11             	shl    esi,0x11
4e4e:	81 e6 00 00 02 00    	and    esi,0x20000
4e54:	81 ce 00 09 01 00    	or     esi,0x10900
4e5a:	e8 61 c9 ff ff       	call   17c0 <__open_2@plt>
4e5f:	89 c3                	mov    ebx,eax
4e61:	e9 df fe ff ff       	jmp    4d45 <savewd_chdir+0x45>
4e66:	66 2e 0f 1f 84 00 00 	nop    WORD PTR cs:[rax+rax*1+0x0]
4e6d:	00 00 00
4e70:	48 85 ed             	test   rbp,rbp
4e73:	0f 94 c0             	sete   al
4e76:	e9 dd fe ff ff       	jmp    4d58 <savewd_chdir+0x58>
4e7b:	0f 1f 44 00 00       	nop    DWORD PTR [rax+rax*1+0x0]
4e80:	41 8b 54 24 04       	mov    edx,DWORD PTR [r12+0x4]
4e85:	85 d2                	test   edx,edx
4e87:	0f 88 8c 00 00 00    	js     4f19 <savewd_chdir+0x219>
4e8d:	85 db                	test   ebx,ebx
4e8f:	0f 89 53 ff ff ff    	jns    4de8 <savewd_chdir+0xe8>
4e95:	eb 81                	jmp    4e18 <savewd_chdir+0x118>
4e97:	66 0f 1f 84 00 00 00 	nop    WORD PTR [rax+rax*1+0x0]
4e9e:	00 00
4ea0:	41 c7 04 24 02 00 00 	mov    DWORD PTR [r12],0x2
4ea7:	00
4ea8:	e9 a2 fe ff ff       	jmp    4d4f <savewd_chdir+0x4f>
4ead:	0f 1f 00             	nop    DWORD PTR [rax]
4eb0:	41 8b 44 24 04       	mov    eax,DWORD PTR [r12+0x4]
4eb5:	85 c0                	test   eax,eax
4eb7:	0f 84 92 fe ff ff    	je     4d4f <savewd_chdir+0x4f>
4ebd:	48 8d 0d dc 44 00 00 	lea    rcx,[rip+0x44dc]        # 93a0 <__PRETTY_FUNCTION__.4461>
4ec4:	48 8d 35 45 44 00 00 	lea    rsi,[rip+0x4445]        # 9310 <quoting_style_vals+0x70>
4ecb:	48 8d 3d f6 43 00 00 	lea    rdi,[rip+0x43f6]        # 92c8 <quoting_style_vals+0x28>
4ed2:	ba 9b 00 00 00       	mov    edx,0x9b
4ed7:	e8 b4 c9 ff ff       	call   1890 <__assert_fail@plt>
4edc:	0f 1f 40 00          	nop    DWORD PTR [rax+0x0]
4ee0:	e8 6b c8 ff ff       	call   1750 <__errno_location@plt>
4ee5:	8b 00                	mov    eax,DWORD PTR [rax]
4ee7:	83 f8 0d             	cmp    eax,0xd
4eea:	74 1c                	je     4f08 <savewd_chdir+0x208>
4eec:	83 f8 74             	cmp    eax,0x74
4eef:	74 17                	je     4f08 <savewd_chdir+0x208>
4ef1:	41 c7 04 24 04 00 00 	mov    DWORD PTR [r12],0x4
4ef8:	00
4ef9:	41 89 44 24 04       	mov    DWORD PTR [r12+0x4],eax
4efe:	e9 e1 fe ff ff       	jmp    4de4 <savewd_chdir+0xe4>
4f03:	0f 1f 44 00 00       	nop    DWORD PTR [rax+rax*1+0x0]
4f08:	41 c7 04 24 03 00 00 	mov    DWORD PTR [r12],0x3
4f0f:	00
4f10:	41 c7 44 24 04 ff ff 	mov    DWORD PTR [r12+0x4],0xffffffff
4f17:	ff ff
4f19:	e8 a2 cb ff ff       	call   1ac0 <fork@plt>
4f1e:	83 f8 00             	cmp    eax,0x0
4f21:	41 89 44 24 04       	mov    DWORD PTR [r12+0x4],eax
4f26:	0f 84 b8 fe ff ff    	je     4de4 <savewd_chdir+0xe4>
4f2c:	b8 01 00 00 00       	mov    eax,0x1
4f31:	41 be fe ff ff ff    	mov    r14d,0xfffffffe
4f37:	0f 8f 1b fe ff ff    	jg     4d58 <savewd_chdir+0x58>
4f3d:	41 c7 04 24 04 00 00 	mov    DWORD PTR [r12],0x4
4f44:	00
4f45:	e8 06 c8 ff ff       	call   1750 <__errno_location@plt>
4f4a:	8b 00                	mov    eax,DWORD PTR [rax]
4f4c:	41 89 44 24 04       	mov    DWORD PTR [r12+0x4],eax
4f51:	e9 8e fe ff ff       	jmp    4de4 <savewd_chdir+0xe4>
4f56:	66 2e 0f 1f 84 00 00 	nop    WORD PTR cs:[rax+rax*1+0x0]
4f5d:	00 00 00
4f60:	41 be ff ff ff ff    	mov    r14d,0xffffffff
4f66:	e9 0b fe ff ff       	jmp    4d76 <savewd_chdir+0x76>
4f6b:	48 8d 0d 2e 44 00 00 	lea    rcx,[rip+0x442e]        # 93a0 <__PRETTY_FUNCTION__.4461>
4f72:	48 8d 35 97 43 00 00 	lea    rsi,[rip+0x4397]        # 9310 <quoting_style_vals+0x70>
4f79:	48 8d 3d 87 43 00 00 	lea    rdi,[rip+0x4387]        # 9307 <quoting_style_vals+0x67>
4f80:	ba 9f 00 00 00       	mov    edx,0x9f
4f85:	e8 06 c9 ff ff       	call   1890 <__assert_fail@plt>
4f8a:	48 8d 0d ff 43 00 00 	lea    rcx,[rip+0x43ff]        # 9390 <__PRETTY_FUNCTION__.4446>
4f91:	48 8d 35 78 43 00 00 	lea    rsi,[rip+0x4378]        # 9310 <quoting_style_vals+0x70>
4f98:	48 8d 3d 68 43 00 00 	lea    rdi,[rip+0x4368]        # 9307 <quoting_style_vals+0x67>
4f9f:	ba 63 00 00 00       	mov    edx,0x63
4fa4:	e8 e7 c8 ff ff       	call   1890 <__assert_fail@plt>
4fa9:	0f 1f 80 00 00 00 00 	nop    DWORD PTR [rax+0x0]

0000000000004fb0 <savewd_restore>:
4fb0:	41 54                	push   r12
4fb2:	55                   	push   rbp
4fb3:	53                   	push   rbx
4fb4:	48 83 ec 10          	sub    rsp,0x10
4fb8:	64 48 8b 04 25 28 00 	mov    rax,QWORD PTR fs:0x28
4fbf:	00 00
4fc1:	48 89 44 24 08       	mov    QWORD PTR [rsp+0x8],rax
4fc6:	31 c0                	xor    eax,eax
4fc8:	83 3f 04             	cmp    DWORD PTR [rdi],0x4
4fcb:	0f 87 0c 01 00 00    	ja     50dd <savewd_restore+0x12d>
4fd1:	8b 07                	mov    eax,DWORD PTR [rdi]
4fd3:	48 8d 15 6e 43 00 00 	lea    rdx,[rip+0x436e]        # 9348 <quoting_style_vals+0xa8>
4fda:	48 89 fb             	mov    rbx,rdi
4fdd:	48 63 04 82          	movsxd rax,DWORD PTR [rdx+rax*4]
4fe1:	48 01 d0             	add    rax,rdx
4fe4:	ff e0                	jmp    rax
4fe6:	66 2e 0f 1f 84 00 00 	nop    WORD PTR cs:[rax+rax*1+0x0]
4fed:	00 00 00
4ff0:	8b 6f 04             	mov    ebp,DWORD PTR [rdi+0x4]
4ff3:	83 fd 00             	cmp    ebp,0x0
4ff6:	0f 84 00 01 00 00    	je     50fc <savewd_restore+0x14c>
4ffc:	4c 8d 64 24 04       	lea    r12,[rsp+0x4]
5001:	7f 47                	jg     504a <savewd_restore+0x9a>
5003:	31 c0                	xor    eax,eax
5005:	48 8b 4c 24 08       	mov    rcx,QWORD PTR [rsp+0x8]
500a:	64 48 33 0c 25 28 00 	xor    rcx,QWORD PTR fs:0x28
5011:	00 00
5013:	0f 85 bf 00 00 00    	jne    50d8 <savewd_restore+0x128>
5019:	48 83 c4 10          	add    rsp,0x10
501d:	5b                   	pop    rbx
501e:	5d                   	pop    rbp
501f:	41 5c                	pop    r12
5021:	c3                   	ret
5022:	66 0f 1f 44 00 00    	nop    WORD PTR [rax+rax*1+0x0]
5028:	44 8b 67 04          	mov    r12d,DWORD PTR [rdi+0x4]
502c:	e8 1f c7 ff ff       	call   1750 <__errno_location@plt>
5031:	48 89 c5             	mov    rbp,rax
5034:	44 89 65 00          	mov    DWORD PTR [rbp+0x0],r12d
5038:	b8 ff ff ff ff       	mov    eax,0xffffffff
503d:	eb c6                	jmp    5005 <savewd_restore+0x55>
503f:	90                   	nop
5040:	e8 0b c7 ff ff       	call   1750 <__errno_location@plt>
5045:	83 38 04             	cmp    DWORD PTR [rax],0x4
5048:	75 6f                	jne    50b9 <savewd_restore+0x109>
504a:	31 d2                	xor    edx,edx
504c:	4c 89 e6             	mov    rsi,r12
504f:	89 ef                	mov    edi,ebp
5051:	e8 ca c9 ff ff       	call   1a20 <waitpid@plt>
5056:	85 c0                	test   eax,eax
5058:	78 e6                	js     5040 <savewd_restore+0x90>
505a:	8b 44 24 04          	mov    eax,DWORD PTR [rsp+0x4]
505e:	c7 43 04 ff ff ff ff 	mov    DWORD PTR [rbx+0x4],0xffffffff
5065:	89 c7                	mov    edi,eax
5067:	83 e7 7f             	and    edi,0x7f
506a:	74 09                	je     5075 <savewd_restore+0xc5>
506c:	e8 af c6 ff ff       	call   1720 <raise@plt>
5071:	8b 44 24 04          	mov    eax,DWORD PTR [rsp+0x4]
5075:	0f b6 c4             	movzx  eax,ah
5078:	eb 8b                	jmp    5005 <savewd_restore+0x55>
507a:	66 0f 1f 44 00 00    	nop    WORD PTR [rax+rax*1+0x0]
5080:	8b 7f 04             	mov    edi,DWORD PTR [rdi+0x4]
5083:	e8 08 c9 ff ff       	call   1990 <fchdir@plt>
5088:	85 c0                	test   eax,eax
508a:	75 0b                	jne    5097 <savewd_restore+0xe7>
508c:	c7 03 01 00 00 00    	mov    DWORD PTR [rbx],0x1
5092:	e9 6e ff ff ff       	jmp    5005 <savewd_restore+0x55>
5097:	e8 b4 c6 ff ff       	call   1750 <__errno_location@plt>
509c:	8b 7b 04             	mov    edi,DWORD PTR [rbx+0x4]
509f:	44 8b 20             	mov    r12d,DWORD PTR [rax]
50a2:	48 89 c5             	mov    rbp,rax
50a5:	e8 06 c8 ff ff       	call   18b0 <close@plt>
50aa:	c7 03 04 00 00 00    	mov    DWORD PTR [rbx],0x4
50b0:	44 89 63 04          	mov    DWORD PTR [rbx+0x4],r12d
50b4:	e9 7b ff ff ff       	jmp    5034 <savewd_restore+0x84>
50b9:	48 8d 0d c0 42 00 00 	lea    rcx,[rip+0x42c0]        # 9380 <__PRETTY_FUNCTION__.4477>
50c0:	48 8d 35 49 42 00 00 	lea    rsi,[rip+0x4249]        # 9310 <quoting_style_vals+0x70>
50c7:	48 8d 3d 0d 42 00 00 	lea    rdi,[rip+0x420d]        # 92db <quoting_style_vals+0x3b>
50ce:	ba d8 00 00 00       	mov    edx,0xd8
50d3:	e8 b8 c7 ff ff       	call   1890 <__assert_fail@plt>
50d8:	e8 53 c7 ff ff       	call   1830 <__stack_chk_fail@plt>
50dd:	48 8d 0d 9c 42 00 00 	lea    rcx,[rip+0x429c]        # 9380 <__PRETTY_FUNCTION__.4477>
50e4:	48 8d 35 25 42 00 00 	lea    rsi,[rip+0x4225]        # 9310 <quoting_style_vals+0x70>
50eb:	48 8d 3d 15 42 00 00 	lea    rdi,[rip+0x4215]        # 9307 <quoting_style_vals+0x67>
50f2:	ba e2 00 00 00       	mov    edx,0xe2
50f7:	e8 94 c7 ff ff       	call   1890 <__assert_fail@plt>
50fc:	89 f7                	mov    edi,esi
50fe:	e8 6d c6 ff ff       	call   1770 <_exit@plt>
5103:	0f 1f 00             	nop    DWORD PTR [rax]
5106:	66 2e 0f 1f 84 00 00 	nop    WORD PTR cs:[rax+rax*1+0x0]
510d:	00 00 00

0000000000005110 <savewd_finish>:
5110:	53                   	push   rbx
5111:	83 3f 04             	cmp    DWORD PTR [rdi],0x4
5114:	77 50                	ja     5166 <savewd_finish+0x56>
5116:	8b 07                	mov    eax,DWORD PTR [rdi]
5118:	48 8d 15 3d 42 00 00 	lea    rdx,[rip+0x423d]        # 935c <quoting_style_vals+0xbc>
511f:	48 89 fb             	mov    rbx,rdi
5122:	48 63 04 82          	movsxd rax,DWORD PTR [rdx+rax*4]
5126:	48 01 d0             	add    rax,rdx
5129:	ff e0                	jmp    rax
512b:	0f 1f 44 00 00       	nop    DWORD PTR [rax+rax*1+0x0]
5130:	8b 7f 04             	mov    edi,DWORD PTR [rdi+0x4]
5133:	e8 78 c7 ff ff       	call   18b0 <close@plt>
5138:	c7 03 05 00 00 00    	mov    DWORD PTR [rbx],0x5
513e:	5b                   	pop    rbx
513f:	c3                   	ret
5140:	8b 47 04             	mov    eax,DWORD PTR [rdi+0x4]
5143:	85 c0                	test   eax,eax
5145:	78 f1                	js     5138 <savewd_finish+0x28>
5147:	48 8d 0d 22 42 00 00 	lea    rcx,[rip+0x4222]        # 9370 <__PRETTY_FUNCTION__.4491>
514e:	48 8d 35 bb 41 00 00 	lea    rsi,[rip+0x41bb]        # 9310 <quoting_style_vals+0x70>
5155:	48 8d 3d 9b 41 00 00 	lea    rdi,[rip+0x419b]        # 92f7 <quoting_style_vals+0x57>
515c:	ba f7 00 00 00       	mov    edx,0xf7
5161:	e8 2a c7 ff ff       	call   1890 <__assert_fail@plt>
5166:	48 8d 0d 03 42 00 00 	lea    rcx,[rip+0x4203]        # 9370 <__PRETTY_FUNCTION__.4491>
516d:	48 8d 35 9c 41 00 00 	lea    rsi,[rip+0x419c]        # 9310 <quoting_style_vals+0x70>
5174:	48 8d 3d 8c 41 00 00 	lea    rdi,[rip+0x418c]        # 9307 <quoting_style_vals+0x67>
517b:	ba fb 00 00 00       	mov    edx,0xfb
5180:	e8 0b c7 ff ff       	call   1890 <__assert_fail@plt>
5185:	90                   	nop
5186:	66 2e 0f 1f 84 00 00 	nop    WORD PTR cs:[rax+rax*1+0x0]
518d:	00 00 00

0000000000005190 <savewd_process_files>:
5190:	41 57                	push   r15
5192:	41 56                	push   r14
5194:	89 f8                	mov    eax,edi
5196:	41 55                	push   r13
5198:	41 54                	push   r12
519a:	83 e8 01             	sub    eax,0x1
519d:	55                   	push   rbp
519e:	53                   	push   rbx
519f:	49 89 cc             	mov    r12,rcx
51a2:	48 89 d5             	mov    rbp,rdx
51a5:	48 83 ec 38          	sub    rsp,0x38
51a9:	64 48 8b 0c 25 28 00 	mov    rcx,QWORD PTR fs:0x28
51b0:	00 00
51b2:	48 89 4c 24 28       	mov    QWORD PTR [rsp+0x28],rcx
51b7:	31 c9                	xor    ecx,ecx
51b9:	85 c0                	test   eax,eax
51bb:	89 7c 24 18          	mov    DWORD PTR [rsp+0x18],edi
51bf:	48 89 74 24 10       	mov    QWORD PTR [rsp+0x10],rsi
51c4:	c7 44 24 20 00 00 00 	mov    DWORD PTR [rsp+0x20],0x0
51cb:	00
51cc:	89 44 24 1c          	mov    DWORD PTR [rsp+0x1c],eax
51d0:	78 40                	js     5212 <savewd_process_files+0x82>
51d2:	41 89 c5             	mov    r13d,eax
51d5:	48 98                	cdqe
51d7:	48 8d 14 c5 00 00 00 	lea    rdx,[rax*8+0x0]
51de:	00
51df:	48 8b 04 c6          	mov    rax,QWORD PTR [rsi+rax*8]
51e3:	80 38 2f             	cmp    BYTE PTR [rax],0x2f
51e6:	0f 85 ac 00 00 00    	jne    5298 <savewd_process_files+0x108>
51ec:	48 8d 44 16 f8       	lea    rax,[rsi+rdx*1-0x8]
51f1:	eb 15                	jmp    5208 <savewd_process_files+0x78>
51f3:	0f 1f 44 00 00       	nop    DWORD PTR [rax+rax*1+0x0]
51f8:	48 8b 10             	mov    rdx,QWORD PTR [rax]
51fb:	48 83 e8 08          	sub    rax,0x8
51ff:	80 3a 2f             	cmp    BYTE PTR [rdx],0x2f
5202:	0f 85 90 00 00 00    	jne    5298 <savewd_process_files+0x108>
5208:	41 83 ed 01          	sub    r13d,0x1
520c:	41 83 fd ff          	cmp    r13d,0xffffffff
5210:	75 e6                	jne    51f8 <savewd_process_files+0x68>
5212:	48 8d 5c 24 20       	lea    rbx,[rsp+0x20]
5217:	45 31 ff             	xor    r15d,r15d
521a:	45 31 ed             	xor    r13d,r13d
521d:	48 89 df             	mov    rdi,rbx
5220:	e8 eb fe ff ff       	call   5110 <savewd_finish>
5225:	44 39 6c 24 18       	cmp    DWORD PTR [rsp+0x18],r13d
522a:	7e 3f                	jle    526b <savewd_process_files+0xdb>
522c:	8b 4c 24 1c          	mov    ecx,DWORD PTR [rsp+0x1c]
5230:	48 8b 7c 24 10       	mov    rdi,QWORD PTR [rsp+0x10]
5235:	49 63 c5             	movsxd rax,r13d
5238:	44 29 e9             	sub    ecx,r13d
523b:	4c 8d 34 c7          	lea    r14,[rdi+rax*8]
523f:	49 89 cd             	mov    r13,rcx
5242:	49 01 c5             	add    r13,rax
5245:	4e 8d 6c ef 08       	lea    r13,[rdi+r13*8+0x8]
524a:	66 0f 1f 44 00 00    	nop    WORD PTR [rax+rax*1+0x0]
5250:	49 8b 3e             	mov    rdi,QWORD PTR [r14]
5253:	4c 89 e2             	mov    rdx,r12
5256:	48 89 de             	mov    rsi,rbx
5259:	ff d5                	call   rbp
525b:	41 39 c7             	cmp    r15d,eax
525e:	44 0f 4c f8          	cmovl  r15d,eax
5262:	49 83 c6 08          	add    r14,0x8
5266:	4d 39 ee             	cmp    r14,r13
5269:	75 e5                	jne    5250 <savewd_process_files+0xc0>
526b:	48 8b 4c 24 28       	mov    rcx,QWORD PTR [rsp+0x28]
5270:	64 48 33 0c 25 28 00 	xor    rcx,QWORD PTR fs:0x28
5277:	00 00
5279:	44 89 f8             	mov    eax,r15d
527c:	0f 85 95 00 00 00    	jne    5317 <savewd_process_files+0x187>
5282:	48 83 c4 38          	add    rsp,0x38
5286:	5b                   	pop    rbx
5287:	5d                   	pop    rbp
5288:	41 5c                	pop    r12
528a:	41 5d                	pop    r13
528c:	41 5e                	pop    r14
528e:	41 5f                	pop    r15
5290:	c3                   	ret
5291:	0f 1f 80 00 00 00 00 	nop    DWORD PTR [rax+0x0]
5298:	45 85 ed             	test   r13d,r13d
529b:	0f 8e 71 ff ff ff    	jle    5212 <savewd_process_files+0x82>
52a1:	48 8b 4c 24 10       	mov    rcx,QWORD PTR [rsp+0x10]
52a6:	41 8d 45 ff          	lea    eax,[r13-0x1]
52aa:	45 31 ff             	xor    r15d,r15d
52ad:	48 8d 5c 24 20       	lea    rbx,[rsp+0x20]
52b2:	48 8d 44 c1 08       	lea    rax,[rcx+rax*8+0x8]
52b7:	49 89 ce             	mov    r14,rcx
52ba:	48 89 44 24 08       	mov    QWORD PTR [rsp+0x8],rax
52bf:	31 c0                	xor    eax,eax
52c1:	eb 45                	jmp    5308 <savewd_process_files+0x178>
52c3:	0f 1f 44 00 00       	nop    DWORD PTR [rax+rax*1+0x0]
52c8:	4c 89 e2             	mov    rdx,r12
52cb:	48 89 de             	mov    rsi,rbx
52ce:	49 8b 3e             	mov    rdi,QWORD PTR [r14]
52d1:	ff d5                	call   rbp
52d3:	41 39 c7             	cmp    r15d,eax
52d6:	44 0f 4c f8          	cmovl  r15d,eax
52da:	49 8b 46 08          	mov    rax,QWORD PTR [r14+0x8]
52de:	80 38 2f             	cmp    BYTE PTR [rax],0x2f
52e1:	74 12                	je     52f5 <savewd_process_files+0x165>
52e3:	44 89 fe             	mov    esi,r15d
52e6:	48 89 df             	mov    rdi,rbx
52e9:	e8 c2 fc ff ff       	call   4fb0 <savewd_restore>
52ee:	41 39 c7             	cmp    r15d,eax
52f1:	44 0f 4c f8          	cmovl  r15d,eax
52f5:	49 83 c6 08          	add    r14,0x8
52f9:	4c 3b 74 24 08       	cmp    r14,QWORD PTR [rsp+0x8]
52fe:	0f 84 19 ff ff ff    	je     521d <savewd_process_files+0x8d>
5304:	8b 44 24 20          	mov    eax,DWORD PTR [rsp+0x20]
5308:	83 f8 03             	cmp    eax,0x3
530b:	75 bb                	jne    52c8 <savewd_process_files+0x138>
530d:	8b 44 24 24          	mov    eax,DWORD PTR [rsp+0x24]
5311:	85 c0                	test   eax,eax
5313:	7f c5                	jg     52da <savewd_process_files+0x14a>
5315:	eb b1                	jmp    52c8 <savewd_process_files+0x138>
5317:	e8 14 c5 ff ff       	call   1830 <__stack_chk_fail@plt>
531c:	0f 1f 40 00          	nop    DWORD PTR [rax+0x0]

0000000000005320 <version_etc_arn>:
5320:	41 57                	push   r15
5322:	41 56                	push   r14
5324:	41 55                	push   r13
5326:	41 54                	push   r12
5328:	4d 89 cc             	mov    r12,r9
532b:	55                   	push   rbp
532c:	53                   	push   rbx
532d:	48 89 fd             	mov    rbp,rdi
5330:	4c 89 c3             	mov    rbx,r8
5333:	48 83 ec 28          	sub    rsp,0x28
5337:	48 85 f6             	test   rsi,rsi
533a:	0f 84 18 01 00 00    	je     5458 <version_etc_arn+0x138>
5340:	49 89 d0             	mov    r8,rdx
5343:	48 8d 15 63 40 00 00 	lea    rdx,[rip+0x4063]        # 93ad <__PRETTY_FUNCTION__.4461+0xd>
534a:	49 89 c9             	mov    r9,rcx
534d:	31 c0                	xor    eax,eax
534f:	48 89 f1             	mov    rcx,rsi
5352:	be 01 00 00 00       	mov    esi,0x1
5357:	e8 34 c7 ff ff       	call   1a90 <__fprintf_chk@plt>
535c:	48 8d 35 5d 40 00 00 	lea    rsi,[rip+0x405d]        # 93c0 <__PRETTY_FUNCTION__.4461+0x20>
5363:	31 ff                	xor    edi,edi
5365:	ba 05 00 00 00       	mov    edx,0x5
536a:	e8 81 c4 ff ff       	call   17f0 <dcgettext@plt>
536f:	48 8d 15 6a 43 00 00 	lea    rdx,[rip+0x436a]        # 96e0 <version_etc_copyright>
5376:	48 89 c1             	mov    rcx,rax
5379:	41 b8 e3 07 00 00    	mov    r8d,0x7e3
537f:	be 01 00 00 00       	mov    esi,0x1
5384:	48 89 ef             	mov    rdi,rbp
5387:	31 c0                	xor    eax,eax
5389:	e8 02 c7 ff ff       	call   1a90 <__fprintf_chk@plt>
538e:	48 8d 35 b3 40 00 00 	lea    rsi,[rip+0x40b3]        # 9448 <__PRETTY_FUNCTION__.4461+0xa8>
5395:	31 ff                	xor    edi,edi
5397:	ba 05 00 00 00       	mov    edx,0x5
539c:	e8 4f c4 ff ff       	call   17f0 <dcgettext@plt>
53a1:	48 89 ee             	mov    rsi,rbp
53a4:	48 89 c7             	mov    rdi,rax
53a7:	e8 24 c5 ff ff       	call   18d0 <fputs_unlocked@plt>
53ac:	49 83 fc 09          	cmp    r12,0x9
53b0:	0f 87 3a 03 00 00    	ja     56f0 <version_etc_arn+0x3d0>
53b6:	48 8d 15 eb 42 00 00 	lea    rdx,[rip+0x42eb]        # 96a8 <__PRETTY_FUNCTION__.4461+0x308>
53bd:	4a 63 04 a2          	movsxd rax,DWORD PTR [rdx+r12*4]
53c1:	48 01 d0             	add    rax,rdx
53c4:	ff e0                	jmp    rax
53c6:	66 2e 0f 1f 84 00 00 	nop    WORD PTR cs:[rax+rax*1+0x0]
53cd:	00 00 00
53d0:	4c 8b 4b 38          	mov    r9,QWORD PTR [rbx+0x38]
53d4:	48 8b 43 10          	mov    rax,QWORD PTR [rbx+0x10]
53d8:	48 8d 35 d9 41 00 00 	lea    rsi,[rip+0x41d9]        # 95b8 <__PRETTY_FUNCTION__.4461+0x218>
53df:	4c 8b 43 08          	mov    r8,QWORD PTR [rbx+0x8]
53e3:	ba 05 00 00 00       	mov    edx,0x5
53e8:	31 ff                	xor    edi,edi
53ea:	4c 8b 6b 30          	mov    r13,QWORD PTR [rbx+0x30]
53ee:	4c 8b 63 28          	mov    r12,QWORD PTR [rbx+0x28]
53f2:	4c 89 4c 24 10       	mov    QWORD PTR [rsp+0x10],r9
53f7:	4c 8b 7b 20          	mov    r15,QWORD PTR [rbx+0x20]
53fb:	4c 8b 73 18          	mov    r14,QWORD PTR [rbx+0x18]
53ff:	48 89 04 24          	mov    QWORD PTR [rsp],rax
5403:	4c 89 44 24 08       	mov    QWORD PTR [rsp+0x8],r8
5408:	48 8b 1b             	mov    rbx,QWORD PTR [rbx]
540b:	e8 e0 c3 ff ff       	call   17f0 <dcgettext@plt>
5410:	48 83 ec 08          	sub    rsp,0x8
5414:	4c 8b 4c 24 18       	mov    r9,QWORD PTR [rsp+0x18]
5419:	48 89 c2             	mov    rdx,rax
541c:	48 89 d9             	mov    rcx,rbx
541f:	be 01 00 00 00       	mov    esi,0x1
5424:	48 89 ef             	mov    rdi,rbp
5427:	31 c0                	xor    eax,eax
5429:	41 51                	push   r9
542b:	41 55                	push   r13
542d:	41 54                	push   r12
542f:	41 57                	push   r15
5431:	41 56                	push   r14
5433:	4c 8b 4c 24 30       	mov    r9,QWORD PTR [rsp+0x30]
5438:	4c 8b 44 24 38       	mov    r8,QWORD PTR [rsp+0x38]
543d:	e8 4e c6 ff ff       	call   1a90 <__fprintf_chk@plt>
5442:	48 83 c4 30          	add    rsp,0x30
5446:	48 83 c4 28          	add    rsp,0x28
544a:	5b                   	pop    rbx
544b:	5d                   	pop    rbp
544c:	41 5c                	pop    r12
544e:	41 5d                	pop    r13
5450:	41 5e                	pop    r14
5452:	41 5f                	pop    r15
5454:	c3                   	ret
5455:	0f 1f 00             	nop    DWORD PTR [rax]
5458:	49 89 c8             	mov    r8,rcx
545b:	48 89 d1             	mov    rcx,rdx
545e:	48 8d 15 54 3f 00 00 	lea    rdx,[rip+0x3f54]        # 93b9 <__PRETTY_FUNCTION__.4461+0x19>
5465:	be 01 00 00 00       	mov    esi,0x1
546a:	31 c0                	xor    eax,eax
546c:	e8 1f c6 ff ff       	call   1a90 <__fprintf_chk@plt>
5471:	e9 e6 fe ff ff       	jmp    535c <version_etc_arn+0x3c>
5476:	66 2e 0f 1f 84 00 00 	nop    WORD PTR cs:[rax+rax*1+0x0]
547d:	00 00 00
5480:	4c 8b 53 40          	mov    r10,QWORD PTR [rbx+0x40]
5484:	4c 8b 4b 38          	mov    r9,QWORD PTR [rbx+0x38]
5488:	48 8d 35 59 41 00 00 	lea    rsi,[rip+0x4159]        # 95e8 <__PRETTY_FUNCTION__.4461+0x248>
548f:	48 8b 43 10          	mov    rax,QWORD PTR [rbx+0x10]
5493:	4c 8b 43 08          	mov    r8,QWORD PTR [rbx+0x8]
5497:	ba 05 00 00 00       	mov    edx,0x5
549c:	4c 8b 6b 30          	mov    r13,QWORD PTR [rbx+0x30]
54a0:	4c 8b 63 28          	mov    r12,QWORD PTR [rbx+0x28]
54a4:	4c 8b 7b 20          	mov    r15,QWORD PTR [rbx+0x20]
54a8:	4c 8b 73 18          	mov    r14,QWORD PTR [rbx+0x18]
54ac:	48 8b 1b             	mov    rbx,QWORD PTR [rbx]
54af:	4c 89 54 24 18       	mov    QWORD PTR [rsp+0x18],r10
54b4:	4c 89 4c 24 10       	mov    QWORD PTR [rsp+0x10],r9
54b9:	48 89 04 24          	mov    QWORD PTR [rsp],rax
54bd:	4c 89 44 24 08       	mov    QWORD PTR [rsp+0x8],r8
54c2:	31 ff                	xor    edi,edi
54c4:	e8 27 c3 ff ff       	call   17f0 <dcgettext@plt>
54c9:	4c 8b 54 24 18       	mov    r10,QWORD PTR [rsp+0x18]
54ce:	41 52                	push   r10
54d0:	e9 3f ff ff ff       	jmp    5414 <version_etc_arn+0xf4>
54d5:	0f 1f 00             	nop    DWORD PTR [rax]
54d8:	48 8b 1b             	mov    rbx,QWORD PTR [rbx]
54db:	48 8d 35 e2 3e 00 00 	lea    rsi,[rip+0x3ee2]        # 93c4 <__PRETTY_FUNCTION__.4461+0x24>
54e2:	ba 05 00 00 00       	mov    edx,0x5
54e7:	31 ff                	xor    edi,edi
54e9:	e8 02 c3 ff ff       	call   17f0 <dcgettext@plt>
54ee:	48 83 c4 28          	add    rsp,0x28
54f2:	48 89 d9             	mov    rcx,rbx
54f5:	48 89 ef             	mov    rdi,rbp
54f8:	5b                   	pop    rbx
54f9:	5d                   	pop    rbp
54fa:	41 5c                	pop    r12
54fc:	41 5d                	pop    r13
54fe:	41 5e                	pop    r14
5500:	41 5f                	pop    r15
5502:	48 89 c2             	mov    rdx,rax
5505:	be 01 00 00 00       	mov    esi,0x1
550a:	31 c0                	xor    eax,eax
550c:	e9 7f c5 ff ff       	jmp    1a90 <__fprintf_chk@plt>
5511:	0f 1f 80 00 00 00 00 	nop    DWORD PTR [rax+0x0]
5518:	4c 8b 63 08          	mov    r12,QWORD PTR [rbx+0x8]
551c:	48 8d 35 b1 3e 00 00 	lea    rsi,[rip+0x3eb1]        # 93d4 <__PRETTY_FUNCTION__.4461+0x34>
5523:	48 8b 1b             	mov    rbx,QWORD PTR [rbx]
5526:	ba 05 00 00 00       	mov    edx,0x5
552b:	31 ff                	xor    edi,edi
552d:	e8 be c2 ff ff       	call   17f0 <dcgettext@plt>
5532:	48 83 c4 28          	add    rsp,0x28
5536:	4d 89 e0             	mov    r8,r12
5539:	48 89 d9             	mov    rcx,rbx
553c:	48 89 ef             	mov    rdi,rbp
553f:	48 89 c2             	mov    rdx,rax
5542:	be 01 00 00 00       	mov    esi,0x1
5547:	5b                   	pop    rbx
5548:	5d                   	pop    rbp
5549:	41 5c                	pop    r12
554b:	41 5d                	pop    r13
554d:	41 5e                	pop    r14
554f:	41 5f                	pop    r15
5551:	31 c0                	xor    eax,eax
5553:	e9 38 c5 ff ff       	jmp    1a90 <__fprintf_chk@plt>
5558:	0f 1f 84 00 00 00 00 	nop    DWORD PTR [rax+rax*1+0x0]
555f:	00
5560:	4c 8b 6b 10          	mov    r13,QWORD PTR [rbx+0x10]
5564:	4c 8b 63 08          	mov    r12,QWORD PTR [rbx+0x8]
5568:	48 8d 35 7c 3e 00 00 	lea    rsi,[rip+0x3e7c]        # 93eb <__PRETTY_FUNCTION__.4461+0x4b>
556f:	48 8b 1b             	mov    rbx,QWORD PTR [rbx]
5572:	ba 05 00 00 00       	mov    edx,0x5
5577:	31 ff                	xor    edi,edi
5579:	e8 72 c2 ff ff       	call   17f0 <dcgettext@plt>
557e:	48 83 c4 28          	add    rsp,0x28
5582:	4d 89 e9             	mov    r9,r13
5585:	4d 89 e0             	mov    r8,r12
5588:	48 89 d9             	mov    rcx,rbx
558b:	48 89 ef             	mov    rdi,rbp
558e:	48 89 c2             	mov    rdx,rax
5591:	5b                   	pop    rbx
5592:	5d                   	pop    rbp
5593:	41 5c                	pop    r12
5595:	41 5d                	pop    r13
5597:	41 5e                	pop    r14
5599:	41 5f                	pop    r15
559b:	be 01 00 00 00       	mov    esi,0x1
55a0:	31 c0                	xor    eax,eax
55a2:	e9 e9 c4 ff ff       	jmp    1a90 <__fprintf_chk@plt>
55a7:	66 0f 1f 84 00 00 00 	nop    WORD PTR [rax+rax*1+0x0]
55ae:	00 00
55b0:	48 8d 35 61 3f 00 00 	lea    rsi,[rip+0x3f61]        # 9518 <__PRETTY_FUNCTION__.4461+0x178>
55b7:	ba 05 00 00 00       	mov    edx,0x5
55bc:	31 ff                	xor    edi,edi
55be:	4c 8b 73 18          	mov    r14,QWORD PTR [rbx+0x18]
55c2:	4c 8b 6b 10          	mov    r13,QWORD PTR [rbx+0x10]
55c6:	4c 8b 63 08          	mov    r12,QWORD PTR [rbx+0x8]
55ca:	48 8b 1b             	mov    rbx,QWORD PTR [rbx]
55cd:	e8 1e c2 ff ff       	call   17f0 <dcgettext@plt>
55d2:	48 83 ec 08          	sub    rsp,0x8
55d6:	41 56                	push   r14
55d8:	48 89 c2             	mov    rdx,rax
55db:	4d 89 e9             	mov    r9,r13
55de:	4d 89 e0             	mov    r8,r12
55e1:	48 89 d9             	mov    rcx,rbx
55e4:	48 89 ef             	mov    rdi,rbp
55e7:	be 01 00 00 00       	mov    esi,0x1
55ec:	31 c0                	xor    eax,eax
55ee:	e8 9d c4 ff ff       	call   1a90 <__fprintf_chk@plt>
55f3:	58                   	pop    rax
55f4:	5a                   	pop    rdx
55f5:	48 83 c4 28          	add    rsp,0x28
55f9:	5b                   	pop    rbx
55fa:	5d                   	pop    rbp
55fb:	41 5c                	pop    r12
55fd:	41 5d                	pop    r13
55ff:	41 5e                	pop    r14
5601:	41 5f                	pop    r15
5603:	c3                   	ret
5604:	0f 1f 40 00          	nop    DWORD PTR [rax+0x0]
5608:	4c 8b 7b 20          	mov    r15,QWORD PTR [rbx+0x20]
560c:	48 8d 35 25 3f 00 00 	lea    rsi,[rip+0x3f25]        # 9538 <__PRETTY_FUNCTION__.4461+0x198>
5613:	ba 05 00 00 00       	mov    edx,0x5
5618:	31 ff                	xor    edi,edi
561a:	4c 8b 73 18          	mov    r14,QWORD PTR [rbx+0x18]
561e:	4c 8b 6b 10          	mov    r13,QWORD PTR [rbx+0x10]
5622:	4c 8b 63 08          	mov    r12,QWORD PTR [rbx+0x8]
5626:	48 8b 1b             	mov    rbx,QWORD PTR [rbx]
5629:	e8 c2 c1 ff ff       	call   17f0 <dcgettext@plt>
562e:	41 57                	push   r15
5630:	eb a4                	jmp    55d6 <version_etc_arn+0x2b6>
5632:	66 0f 1f 44 00 00    	nop    WORD PTR [rax+rax*1+0x0]
5638:	4c 8b 43 08          	mov    r8,QWORD PTR [rbx+0x8]
563c:	4c 8b 63 28          	mov    r12,QWORD PTR [rbx+0x28]
5640:	48 8d 35 19 3f 00 00 	lea    rsi,[rip+0x3f19]        # 9560 <__PRETTY_FUNCTION__.4461+0x1c0>
5647:	4c 8b 7b 20          	mov    r15,QWORD PTR [rbx+0x20]
564b:	4c 8b 73 18          	mov    r14,QWORD PTR [rbx+0x18]
564f:	ba 05 00 00 00       	mov    edx,0x5
5654:	4c 8b 6b 10          	mov    r13,QWORD PTR [rbx+0x10]
5658:	31 ff                	xor    edi,edi
565a:	48 8b 1b             	mov    rbx,QWORD PTR [rbx]
565d:	4c 89 04 24          	mov    QWORD PTR [rsp],r8
5661:	e8 8a c1 ff ff       	call   17f0 <dcgettext@plt>
5666:	48 83 ec 08          	sub    rsp,0x8
566a:	4d 89 e9             	mov    r9,r13
566d:	41 54                	push   r12
566f:	41 57                	push   r15
5671:	41 56                	push   r14
5673:	4c 8b 44 24 20       	mov    r8,QWORD PTR [rsp+0x20]
5678:	48 89 d9             	mov    rcx,rbx
567b:	48 89 c2             	mov    rdx,rax
567e:	48 89 ef             	mov    rdi,rbp
5681:	be 01 00 00 00       	mov    esi,0x1
5686:	31 c0                	xor    eax,eax
5688:	e8 03 c4 ff ff       	call   1a90 <__fprintf_chk@plt>
568d:	48 83 c4 20          	add    rsp,0x20
5691:	48 83 c4 28          	add    rsp,0x28
5695:	5b                   	pop    rbx
5696:	5d                   	pop    rbp
5697:	41 5c                	pop    r12
5699:	41 5d                	pop    r13
569b:	41 5e                	pop    r14
569d:	41 5f                	pop    r15
569f:	c3                   	ret
56a0:	4c 8b 4b 10          	mov    r9,QWORD PTR [rbx+0x10]
56a4:	4c 8b 6b 30          	mov    r13,QWORD PTR [rbx+0x30]
56a8:	48 8d 35 d9 3e 00 00 	lea    rsi,[rip+0x3ed9]        # 9588 <__PRETTY_FUNCTION__.4461+0x1e8>
56af:	4c 8b 63 28          	mov    r12,QWORD PTR [rbx+0x28]
56b3:	4c 8b 7b 20          	mov    r15,QWORD PTR [rbx+0x20]
56b7:	ba 05 00 00 00       	mov    edx,0x5
56bc:	4c 8b 73 18          	mov    r14,QWORD PTR [rbx+0x18]
56c0:	4c 8b 43 08          	mov    r8,QWORD PTR [rbx+0x8]
56c4:	31 ff                	xor    edi,edi
56c6:	4c 89 4c 24 08       	mov    QWORD PTR [rsp+0x8],r9
56cb:	48 8b 1b             	mov    rbx,QWORD PTR [rbx]
56ce:	4c 89 04 24          	mov    QWORD PTR [rsp],r8
56d2:	e8 19 c1 ff ff       	call   17f0 <dcgettext@plt>
56d7:	41 55                	push   r13
56d9:	41 54                	push   r12
56db:	41 57                	push   r15
56dd:	41 56                	push   r14
56df:	4c 8b 4c 24 28       	mov    r9,QWORD PTR [rsp+0x28]
56e4:	eb 8d                	jmp    5673 <version_etc_arn+0x353>
56e6:	66 2e 0f 1f 84 00 00 	nop    WORD PTR cs:[rax+rax*1+0x0]
56ed:	00 00 00
56f0:	4c 8b 53 40          	mov    r10,QWORD PTR [rbx+0x40]
56f4:	4c 8b 4b 38          	mov    r9,QWORD PTR [rbx+0x38]
56f8:	ba 05 00 00 00       	mov    edx,0x5
56fd:	48 8b 43 10          	mov    rax,QWORD PTR [rbx+0x10]
5701:	4c 8b 43 08          	mov    r8,QWORD PTR [rbx+0x8]
5705:	48 8d 35 14 3f 00 00 	lea    rsi,[rip+0x3f14]        # 9620 <__PRETTY_FUNCTION__.4461+0x280>
570c:	4c 8b 6b 30          	mov    r13,QWORD PTR [rbx+0x30]
5710:	4c 8b 63 28          	mov    r12,QWORD PTR [rbx+0x28]
5714:	4c 8b 7b 20          	mov    r15,QWORD PTR [rbx+0x20]
5718:	4c 8b 73 18          	mov    r14,QWORD PTR [rbx+0x18]
571c:	4c 89 54 24 18       	mov    QWORD PTR [rsp+0x18],r10
5721:	4c 89 4c 24 10       	mov    QWORD PTR [rsp+0x10],r9
5726:	48 89 04 24          	mov    QWORD PTR [rsp],rax
572a:	4c 89 44 24 08       	mov    QWORD PTR [rsp+0x8],r8
572f:	48 8b 1b             	mov    rbx,QWORD PTR [rbx]
5732:	e9 8b fd ff ff       	jmp    54c2 <version_etc_arn+0x1a2>
5737:	66 0f 1f 84 00 00 00 	nop    WORD PTR [rax+rax*1+0x0]
573e:	00 00

0000000000005740 <version_etc_ar>:
5740:	45 31 c9             	xor    r9d,r9d
5743:	49 83 38 00          	cmp    QWORD PTR [r8],0x0
5747:	74 12                	je     575b <version_etc_ar+0x1b>
5749:	0f 1f 80 00 00 00 00 	nop    DWORD PTR [rax+0x0]
5750:	49 83 c1 01          	add    r9,0x1
5754:	4b 83 3c c8 00       	cmp    QWORD PTR [r8+r9*8],0x0
5759:	75 f5                	jne    5750 <version_etc_ar+0x10>
575b:	e9 c0 fb ff ff       	jmp    5320 <version_etc_arn>

0000000000005760 <version_etc_va>:
5760:	48 83 ec 68          	sub    rsp,0x68
5764:	4d 89 c2             	mov    r10,r8
5767:	45 31 c9             	xor    r9d,r9d
576a:	64 48 8b 04 25 28 00 	mov    rax,QWORD PTR fs:0x28
5771:	00 00
5773:	48 89 44 24 58       	mov    QWORD PTR [rsp+0x58],rax
5778:	31 c0                	xor    eax,eax
577a:	49 89 e0             	mov    r8,rsp
577d:	0f 1f 00             	nop    DWORD PTR [rax]
5780:	41 8b 02             	mov    eax,DWORD PTR [r10]
5783:	83 f8 2f             	cmp    eax,0x2f
5786:	77 42                	ja     57ca <version_etc_va+0x6a>
5788:	41 89 c3             	mov    r11d,eax
578b:	4d 03 5a 10          	add    r11,QWORD PTR [r10+0x10]
578f:	83 c0 08             	add    eax,0x8
5792:	41 89 02             	mov    DWORD PTR [r10],eax
5795:	49 8b 03             	mov    rax,QWORD PTR [r11]
5798:	48 85 c0             	test   rax,rax
579b:	4b 89 04 c8          	mov    QWORD PTR [r8+r9*8],rax
579f:	74 0a                	je     57ab <version_etc_va+0x4b>
57a1:	49 83 c1 01          	add    r9,0x1
57a5:	49 83 f9 0a          	cmp    r9,0xa
57a9:	75 d5                	jne    5780 <version_etc_va+0x20>
57ab:	e8 70 fb ff ff       	call   5320 <version_etc_arn>
57b0:	48 8b 44 24 58       	mov    rax,QWORD PTR [rsp+0x58]
57b5:	64 48 33 04 25 28 00 	xor    rax,QWORD PTR fs:0x28
57bc:	00 00
57be:	75 05                	jne    57c5 <version_etc_va+0x65>
57c0:	48 83 c4 68          	add    rsp,0x68
57c4:	c3                   	ret
57c5:	e8 66 c0 ff ff       	call   1830 <__stack_chk_fail@plt>
57ca:	4d 8b 5a 08          	mov    r11,QWORD PTR [r10+0x8]
57ce:	49 8d 43 08          	lea    rax,[r11+0x8]
57d2:	49 89 42 08          	mov    QWORD PTR [r10+0x8],rax
57d6:	eb bd                	jmp    5795 <version_etc_va+0x35>
57d8:	0f 1f 84 00 00 00 00 	nop    DWORD PTR [rax+rax*1+0x0]
57df:	00

00000000000057e0 <version_etc>:
57e0:	55                   	push   rbp
57e1:	53                   	push   rbx
57e2:	41 ba 20 00 00 00    	mov    r10d,0x20
57e8:	45 31 db             	xor    r11d,r11d
57eb:	48 81 ec b8 00 00 00 	sub    rsp,0xb8
57f2:	64 48 8b 04 25 28 00 	mov    rax,QWORD PTR fs:0x28
57f9:	00 00
57fb:	48 89 44 24 78       	mov    QWORD PTR [rsp+0x78],rax
5800:	31 c0                	xor    eax,eax
5802:	48 8d 84 24 d0 00 00 	lea    rax,[rsp+0xd0]
5809:	00
580a:	4c 89 84 24 a0 00 00 	mov    QWORD PTR [rsp+0xa0],r8
5811:	00
5812:	48 8d 9c 24 d0 00 00 	lea    rbx,[rsp+0xd0]
5819:	00
581a:	4c 8d 44 24 20       	lea    r8,[rsp+0x20]
581f:	4c 89 8c 24 a8 00 00 	mov    QWORD PTR [rsp+0xa8],r9
5826:	00
5827:	c7 44 24 08 20 00 00 	mov    DWORD PTR [rsp+0x8],0x20
582e:	00
582f:	48 89 44 24 10       	mov    QWORD PTR [rsp+0x10],rax
5834:	48 8d 84 24 80 00 00 	lea    rax,[rsp+0x80]
583b:	00
583c:	45 31 c9             	xor    r9d,r9d
583f:	48 89 44 24 18       	mov    QWORD PTR [rsp+0x18],rax
5844:	48 89 c5             	mov    rbp,rax
5847:	66 0f 1f 84 00 00 00 	nop    WORD PTR [rax+rax*1+0x0]
584e:	00 00
5850:	41 83 fa 2f          	cmp    r10d,0x2f
5854:	77 56                	ja     58ac <version_etc+0xcc>
5856:	44 89 d0             	mov    eax,r10d
5859:	41 bb 01 00 00 00    	mov    r11d,0x1
585f:	41 83 c2 08          	add    r10d,0x8
5863:	48 01 e8             	add    rax,rbp
5866:	48 8b 00             	mov    rax,QWORD PTR [rax]
5869:	48 85 c0             	test   rax,rax
586c:	4b 89 04 c8          	mov    QWORD PTR [r8+r9*8],rax
5870:	74 0a                	je     587c <version_etc+0x9c>
5872:	49 83 c1 01          	add    r9,0x1
5876:	49 83 f9 0a          	cmp    r9,0xa
587a:	75 d4                	jne    5850 <version_etc+0x70>
587c:	45 84 db             	test   r11b,r11b
587f:	75 24                	jne    58a5 <version_etc+0xc5>
5881:	e8 9a fa ff ff       	call   5320 <version_etc_arn>
5886:	48 8b 44 24 78       	mov    rax,QWORD PTR [rsp+0x78]
588b:	64 48 33 04 25 28 00 	xor    rax,QWORD PTR fs:0x28
5892:	00 00
5894:	75 0a                	jne    58a0 <version_etc+0xc0>
5896:	48 81 c4 b8 00 00 00 	add    rsp,0xb8
589d:	5b                   	pop    rbx
589e:	5d                   	pop    rbp
589f:	c3                   	ret
58a0:	e8 8b bf ff ff       	call   1830 <__stack_chk_fail@plt>
58a5:	44 89 54 24 08       	mov    DWORD PTR [rsp+0x8],r10d
58aa:	eb d5                	jmp    5881 <version_etc+0xa1>
58ac:	48 89 d8             	mov    rax,rbx
58af:	48 83 c3 08          	add    rbx,0x8
58b3:	eb b1                	jmp    5866 <version_etc+0x86>
58b5:	90                   	nop
58b6:	66 2e 0f 1f 84 00 00 	nop    WORD PTR cs:[rax+rax*1+0x0]
58bd:	00 00 00

00000000000058c0 <emit_bug_reporting_address>:
58c0:	53                   	push   rbx
58c1:	48 8d 35 3f 3b 00 00 	lea    rsi,[rip+0x3b3f]        # 9407 <__PRETTY_FUNCTION__.4461+0x67>
58c8:	ba 05 00 00 00       	mov    edx,0x5
58cd:	31 ff                	xor    edi,edi
58cf:	e8 1c bf ff ff       	call   17f0 <dcgettext@plt>
58d4:	48 8d 15 41 3b 00 00 	lea    rdx,[rip+0x3b41]        # 941c <__PRETTY_FUNCTION__.4461+0x7c>
58db:	48 89 c6             	mov    rsi,rax
58de:	bf 01 00 00 00       	mov    edi,0x1
58e3:	31 c0                	xor    eax,eax
58e5:	e8 f6 c0 ff ff       	call   19e0 <__printf_chk@plt>
58ea:	48 8d 35 41 3b 00 00 	lea    rsi,[rip+0x3b41]        # 9432 <__PRETTY_FUNCTION__.4461+0x92>
58f1:	ba 05 00 00 00       	mov    edx,0x5
58f6:	31 ff                	xor    edi,edi
58f8:	e8 f3 be ff ff       	call   17f0 <dcgettext@plt>
58fd:	48 8d 0d 9c 32 00 00 	lea    rcx,[rip+0x329c]        # 8ba0 <_IO_stdin_used+0x460>
5904:	48 8d 15 b5 2e 00 00 	lea    rdx,[rip+0x2eb5]        # 87c0 <_IO_stdin_used+0x80>
590b:	48 89 c6             	mov    rsi,rax
590e:	bf 01 00 00 00       	mov    edi,0x1
5913:	31 c0                	xor    eax,eax
5915:	e8 c6 c0 ff ff       	call   19e0 <__printf_chk@plt>
591a:	48 8b 1d 67 67 20 00 	mov    rbx,QWORD PTR [rip+0x206767]        # 20c088 <stdout@@GLIBC_2.2.5>
5921:	48 8d 35 38 3d 00 00 	lea    rsi,[rip+0x3d38]        # 9660 <__PRETTY_FUNCTION__.4461+0x2c0>
5928:	31 ff                	xor    edi,edi
592a:	ba 05 00 00 00       	mov    edx,0x5
592f:	e8 bc be ff ff       	call   17f0 <dcgettext@plt>
5934:	48 89 de             	mov    rsi,rbx
5937:	48 89 c7             	mov    rdi,rax
593a:	5b                   	pop    rbx
593b:	e9 90 bf ff ff       	jmp    18d0 <fputs_unlocked@plt>

0000000000005940 <xmalloc>:
5940:	53                   	push   rbx
5941:	48 89 fb             	mov    rbx,rdi
5944:	e8 e7 bf ff ff       	call   1930 <malloc@plt>
5949:	48 85 c0             	test   rax,rax
594c:	75 05                	jne    5953 <xmalloc+0x13>
594e:	48 85 db             	test   rbx,rbx
5951:	75 02                	jne    5955 <xmalloc+0x15>
5953:	5b                   	pop    rbx
5954:	c3                   	ret
5955:	e8 36 02 00 00       	call   5b90 <xalloc_die>
595a:	66 0f 1f 44 00 00    	nop    WORD PTR [rax+rax*1+0x0]

0000000000005960 <xnmalloc>:
5960:	48 89 f8             	mov    rax,rdi
5963:	48 f7 e6             	mul    rsi
5966:	48 89 c7             	mov    rdi,rax
5969:	0f 90 c0             	seto   al
596c:	48 85 ff             	test   rdi,rdi
596f:	78 0a                	js     597b <xnmalloc+0x1b>
5971:	0f b6 c0             	movzx  eax,al
5974:	48 85 c0             	test   rax,rax
5977:	75 02                	jne    597b <xnmalloc+0x1b>
5979:	eb c5                	jmp    5940 <xmalloc>
597b:	48 83 ec 08          	sub    rsp,0x8
597f:	e8 0c 02 00 00       	call   5b90 <xalloc_die>
5984:	66 90                	xchg   ax,ax
5986:	66 2e 0f 1f 84 00 00 	nop    WORD PTR cs:[rax+rax*1+0x0]
598d:	00 00 00

0000000000005990 <xcharalloc>:
5990:	eb ae                	jmp    5940 <xmalloc>
5992:	0f 1f 40 00          	nop    DWORD PTR [rax+0x0]
5996:	66 2e 0f 1f 84 00 00 	nop    WORD PTR cs:[rax+rax*1+0x0]
599d:	00 00 00

00000000000059a0 <xrealloc>:
59a0:	48 85 f6             	test   rsi,rsi
59a3:	53                   	push   rbx
59a4:	48 89 f3             	mov    rbx,rsi
59a7:	75 05                	jne    59ae <xrealloc+0xe>
59a9:	48 85 ff             	test   rdi,rdi
59ac:	75 1a                	jne    59c8 <xrealloc+0x28>
59ae:	48 89 de             	mov    rsi,rbx
59b1:	e8 0a c0 ff ff       	call   19c0 <realloc@plt>
59b6:	48 85 c0             	test   rax,rax
59b9:	75 05                	jne    59c0 <xrealloc+0x20>
59bb:	48 85 db             	test   rbx,rbx
59be:	75 11                	jne    59d1 <xrealloc+0x31>
59c0:	5b                   	pop    rbx
59c1:	c3                   	ret
59c2:	66 0f 1f 44 00 00    	nop    WORD PTR [rax+rax*1+0x0]
59c8:	e8 63 bd ff ff       	call   1730 <free@plt>
59cd:	31 c0                	xor    eax,eax
59cf:	5b                   	pop    rbx
59d0:	c3                   	ret
59d1:	e8 ba 01 00 00       	call   5b90 <xalloc_die>
59d6:	66 2e 0f 1f 84 00 00 	nop    WORD PTR cs:[rax+rax*1+0x0]
59dd:	00 00 00

00000000000059e0 <xnrealloc>:
59e0:	48 89 f0             	mov    rax,rsi
59e3:	48 f7 e2             	mul    rdx
59e6:	48 89 c6             	mov    rsi,rax
59e9:	0f 90 c0             	seto   al
59ec:	48 85 f6             	test   rsi,rsi
59ef:	78 0a                	js     59fb <xnrealloc+0x1b>
59f1:	0f b6 c0             	movzx  eax,al
59f4:	48 85 c0             	test   rax,rax
59f7:	75 02                	jne    59fb <xnrealloc+0x1b>
59f9:	eb a5                	jmp    59a0 <xrealloc>
59fb:	48 83 ec 08          	sub    rsp,0x8
59ff:	e8 8c 01 00 00       	call   5b90 <xalloc_die>
5a04:	66 90                	xchg   ax,ax
5a06:	66 2e 0f 1f 84 00 00 	nop    WORD PTR cs:[rax+rax*1+0x0]
5a0d:	00 00 00

0000000000005a10 <x2nrealloc>:
5a10:	48 85 ff             	test   rdi,rdi
5a13:	49 89 d1             	mov    r9,rdx
5a16:	48 8b 0e             	mov    rcx,QWORD PTR [rsi]
5a19:	74 35                	je     5a50 <x2nrealloc+0x40>
5a1b:	31 d2                	xor    edx,edx
5a1d:	48 b8 54 55 55 55 55 	movabs rax,0x5555555555555554
5a24:	55 55 55
5a27:	49 f7 f1             	div    r9
5a2a:	48 39 c8             	cmp    rax,rcx
5a2d:	76 3c                	jbe    5a6b <x2nrealloc+0x5b>
5a2f:	48 89 c8             	mov    rax,rcx
5a32:	48 d1 e8             	shr    rax,1
5a35:	48 8d 4c 08 01       	lea    rcx,[rax+rcx*1+0x1]
5a3a:	48 89 0e             	mov    QWORD PTR [rsi],rcx
5a3d:	49 0f af c9          	imul   rcx,r9
5a41:	48 89 ce             	mov    rsi,rcx
5a44:	e9 57 ff ff ff       	jmp    59a0 <xrealloc>
5a49:	0f 1f 80 00 00 00 00 	nop    DWORD PTR [rax+0x0]
5a50:	48 85 c9             	test   rcx,rcx
5a53:	74 23                	je     5a78 <x2nrealloc+0x68>
5a55:	48 89 c8             	mov    rax,rcx
5a58:	49 f7 e1             	mul    r9
5a5b:	0f 90 c2             	seto   dl
5a5e:	48 85 c0             	test   rax,rax
5a61:	0f b6 d2             	movzx  edx,dl
5a64:	78 05                	js     5a6b <x2nrealloc+0x5b>
5a66:	48 85 d2             	test   rdx,rdx
5a69:	74 cf                	je     5a3a <x2nrealloc+0x2a>
5a6b:	48 83 ec 08          	sub    rsp,0x8
5a6f:	e8 1c 01 00 00       	call   5b90 <xalloc_die>
5a74:	0f 1f 40 00          	nop    DWORD PTR [rax+0x0]
5a78:	31 d2                	xor    edx,edx
5a7a:	b8 80 00 00 00       	mov    eax,0x80
5a7f:	45 31 c0             	xor    r8d,r8d
5a82:	49 f7 f1             	div    r9
5a85:	48 85 c0             	test   rax,rax
5a88:	41 0f 94 c0          	sete   r8b
5a8c:	49 8d 0c 00          	lea    rcx,[r8+rax*1]
5a90:	eb c3                	jmp    5a55 <x2nrealloc+0x45>
5a92:	0f 1f 40 00          	nop    DWORD PTR [rax+0x0]
5a96:	66 2e 0f 1f 84 00 00 	nop    WORD PTR cs:[rax+rax*1+0x0]
5a9d:	00 00 00

0000000000005aa0 <x2realloc>:
5aa0:	48 85 ff             	test   rdi,rdi
5aa3:	48 8b 06             	mov    rax,QWORD PTR [rsi]
5aa6:	74 28                	je     5ad0 <x2realloc+0x30>
5aa8:	48 ba 53 55 55 55 55 	movabs rdx,0x5555555555555553
5aaf:	55 55 55
5ab2:	48 39 d0             	cmp    rax,rdx
5ab5:	77 2a                	ja     5ae1 <x2realloc+0x41>
5ab7:	48 89 c2             	mov    rdx,rax
5aba:	48 d1 ea             	shr    rdx,1
5abd:	48 8d 44 02 01       	lea    rax,[rdx+rax*1+0x1]
5ac2:	48 89 06             	mov    QWORD PTR [rsi],rax
5ac5:	48 89 c6             	mov    rsi,rax
5ac8:	e9 d3 fe ff ff       	jmp    59a0 <xrealloc>
5acd:	0f 1f 00             	nop    DWORD PTR [rax]
5ad0:	48 85 c0             	test   rax,rax
5ad3:	ba 80 00 00 00       	mov    edx,0x80
5ad8:	48 0f 44 c2          	cmove  rax,rdx
5adc:	48 85 c0             	test   rax,rax
5adf:	79 e1                	jns    5ac2 <x2realloc+0x22>
5ae1:	48 83 ec 08          	sub    rsp,0x8
5ae5:	e8 a6 00 00 00       	call   5b90 <xalloc_die>
5aea:	66 0f 1f 44 00 00    	nop    WORD PTR [rax+rax*1+0x0]

0000000000005af0 <xzalloc>:
5af0:	53                   	push   rbx
5af1:	48 89 fb             	mov    rbx,rdi
5af4:	e8 47 fe ff ff       	call   5940 <xmalloc>
5af9:	48 89 da             	mov    rdx,rbx
5afc:	31 f6                	xor    esi,esi
5afe:	48 89 c7             	mov    rdi,rax
5b01:	5b                   	pop    rbx
5b02:	e9 99 bd ff ff       	jmp    18a0 <memset@plt>
5b07:	66 0f 1f 84 00 00 00 	nop    WORD PTR [rax+rax*1+0x0]
5b0e:	00 00

0000000000005b10 <xcalloc>:
5b10:	48 89 f8             	mov    rax,rdi
5b13:	48 83 ec 08          	sub    rsp,0x8
5b17:	48 f7 e6             	mul    rsi
5b1a:	0f 90 c2             	seto   dl
5b1d:	48 85 c0             	test   rax,rax
5b20:	78 17                	js     5b39 <xcalloc+0x29>
5b22:	0f b6 d2             	movzx  edx,dl
5b25:	48 85 d2             	test   rdx,rdx
5b28:	75 0f                	jne    5b39 <xcalloc+0x29>
5b2a:	e8 b1 bd ff ff       	call   18e0 <calloc@plt>
5b2f:	48 85 c0             	test   rax,rax
5b32:	74 05                	je     5b39 <xcalloc+0x29>
5b34:	48 83 c4 08          	add    rsp,0x8
5b38:	c3                   	ret
5b39:	e8 52 00 00 00       	call   5b90 <xalloc_die>
5b3e:	66 90                	xchg   ax,ax

0000000000005b40 <xmemdup>:
5b40:	55                   	push   rbp
5b41:	53                   	push   rbx
5b42:	48 89 fd             	mov    rbp,rdi
5b45:	48 89 f7             	mov    rdi,rsi
5b48:	48 89 f3             	mov    rbx,rsi
5b4b:	48 83 ec 08          	sub    rsp,0x8
5b4f:	e8 ec fd ff ff       	call   5940 <xmalloc>
5b54:	48 83 c4 08          	add    rsp,0x8
5b58:	48 89 da             	mov    rdx,rbx
5b5b:	48 89 ee             	mov    rsi,rbp
5b5e:	5b                   	pop    rbx
5b5f:	5d                   	pop    rbp
5b60:	48 89 c7             	mov    rdi,rax
5b63:	e9 98 bd ff ff       	jmp    1900 <memcpy@plt>
5b68:	0f 1f 84 00 00 00 00 	nop    DWORD PTR [rax+rax*1+0x0]
5b6f:	00

0000000000005b70 <xstrdup>:
5b70:	53                   	push   rbx
5b71:	48 89 fb             	mov    rbx,rdi
5b74:	e8 97 bc ff ff       	call   1810 <strlen@plt>
5b79:	48 89 df             	mov    rdi,rbx
5b7c:	48 8d 70 01          	lea    rsi,[rax+0x1]
5b80:	5b                   	pop    rbx
5b81:	eb bd                	jmp    5b40 <xmemdup>
5b83:	66 2e 0f 1f 84 00 00 	nop    WORD PTR cs:[rax+rax*1+0x0]
5b8a:	00 00 00
5b8d:	0f 1f 00             	nop    DWORD PTR [rax]

0000000000005b90 <xalloc_die>:
5b90:	48 8d 35 78 3b 00 00 	lea    rsi,[rip+0x3b78]        # 970f <version_etc_copyright+0x2f>
5b97:	48 83 ec 08          	sub    rsp,0x8
5b9b:	ba 05 00 00 00       	mov    edx,0x5
5ba0:	31 ff                	xor    edi,edi
5ba2:	e8 49 bc ff ff       	call   17f0 <dcgettext@plt>
5ba7:	8b 3d 6b 64 20 00    	mov    edi,DWORD PTR [rip+0x20646b]        # 20c018 <exit_failure>
5bad:	48 8d 15 f5 30 00 00 	lea    rdx,[rip+0x30f5]        # 8ca9 <_IO_stdin_used+0x569>
5bb4:	48 89 c1             	mov    rcx,rax
5bb7:	31 f6                	xor    esi,esi
5bb9:	31 c0                	xor    eax,eax
5bbb:	e8 50 be ff ff       	call   1a10 <error@plt>
5bc0:	e8 7b bb ff ff       	call   1740 <abort@plt>
5bc5:	66 2e 0f 1f 84 00 00 	nop    WORD PTR cs:[rax+rax*1+0x0]
5bcc:	00 00 00
5bcf:	90                   	nop

0000000000005bd0 <rpl_mbrtowc>:
5bd0:	41 55                	push   r13
5bd2:	41 54                	push   r12
5bd4:	49 89 f5             	mov    r13,rsi
5bd7:	55                   	push   rbp
5bd8:	53                   	push   rbx
5bd9:	48 89 fb             	mov    rbx,rdi
5bdc:	49 89 d4             	mov    r12,rdx
5bdf:	48 83 ec 18          	sub    rsp,0x18
5be3:	64 48 8b 04 25 28 00 	mov    rax,QWORD PTR fs:0x28
5bea:	00 00
5bec:	48 89 44 24 08       	mov    QWORD PTR [rsp+0x8],rax
5bf1:	31 c0                	xor    eax,eax
5bf3:	48 8d 44 24 04       	lea    rax,[rsp+0x4]
5bf8:	48 85 ff             	test   rdi,rdi
5bfb:	48 0f 44 d8          	cmove  rbx,rax
5bff:	48 89 df             	mov    rdi,rbx
5c02:	e8 49 bc ff ff       	call   1850 <mbrtowc@plt>
5c07:	48 83 f8 fd          	cmp    rax,0xfffffffffffffffd
5c0b:	48 89 c5             	mov    rbp,rax
5c0e:	76 20                	jbe    5c30 <rpl_mbrtowc+0x60>
5c10:	4d 85 e4             	test   r12,r12
5c13:	74 1b                	je     5c30 <rpl_mbrtowc+0x60>
5c15:	31 ff                	xor    edi,edi
5c17:	e8 34 02 00 00       	call   5e50 <hard_locale>
5c1c:	84 c0                	test   al,al
5c1e:	75 10                	jne    5c30 <rpl_mbrtowc+0x60>
5c20:	41 0f b6 45 00       	movzx  eax,BYTE PTR [r13+0x0]
5c25:	bd 01 00 00 00       	mov    ebp,0x1
5c2a:	89 03                	mov    DWORD PTR [rbx],eax
5c2c:	0f 1f 40 00          	nop    DWORD PTR [rax+0x0]
5c30:	48 8b 54 24 08       	mov    rdx,QWORD PTR [rsp+0x8]
5c35:	64 48 33 14 25 28 00 	xor    rdx,QWORD PTR fs:0x28
5c3c:	00 00
5c3e:	48 89 e8             	mov    rax,rbp
5c41:	75 0b                	jne    5c4e <rpl_mbrtowc+0x7e>
5c43:	48 83 c4 18          	add    rsp,0x18
5c47:	5b                   	pop    rbx
5c48:	5d                   	pop    rbp
5c49:	41 5c                	pop    r12
5c4b:	41 5d                	pop    r13
5c4d:	c3                   	ret
5c4e:	e8 dd bb ff ff       	call   1830 <__stack_chk_fail@plt>
5c53:	66 2e 0f 1f 84 00 00 	nop    WORD PTR cs:[rax+rax*1+0x0]
5c5a:	00 00 00
5c5d:	0f 1f 00             	nop    DWORD PTR [rax]

0000000000005c60 <rpl_vfprintf>:
5c60:	41 55                	push   r13
5c62:	41 54                	push   r12
5c64:	48 89 f0             	mov    rax,rsi
5c67:	55                   	push   rbp
5c68:	53                   	push   rbx
5c69:	49 89 fd             	mov    r13,rdi
5c6c:	48 81 ec f8 07 00 00 	sub    rsp,0x7f8
5c73:	4c 8d 64 24 10       	lea    r12,[rsp+0x10]
5c78:	48 8d 74 24 08       	lea    rsi,[rsp+0x8]
5c7d:	48 c7 44 24 08 d0 07 	mov    QWORD PTR [rsp+0x8],0x7d0
5c84:	00 00
5c86:	64 48 8b 0c 25 28 00 	mov    rcx,QWORD PTR fs:0x28
5c8d:	00 00
5c8f:	48 89 8c 24 e8 07 00 	mov    QWORD PTR [rsp+0x7e8],rcx
5c96:	00
5c97:	31 c9                	xor    ecx,ecx
5c99:	4c 89 e7             	mov    rdi,r12
5c9c:	48 89 d1             	mov    rcx,rdx
5c9f:	48 89 c2             	mov    rdx,rax
5ca2:	e8 49 07 00 00       	call   63f0 <vasnprintf>
5ca7:	48 85 c0             	test   rax,rax
5caa:	48 8b 5c 24 08       	mov    rbx,QWORD PTR [rsp+0x8]
5caf:	0f 84 89 00 00 00    	je     5d3e <rpl_vfprintf+0xde>
5cb5:	4c 89 e9             	mov    rcx,r13
5cb8:	48 89 da             	mov    rdx,rbx
5cbb:	be 01 00 00 00       	mov    esi,0x1
5cc0:	48 89 c7             	mov    rdi,rax
5cc3:	48 89 c5             	mov    rbp,rax
5cc6:	e8 b5 bd ff ff       	call   1a80 <fwrite@plt>
5ccb:	48 39 d8             	cmp    rax,rbx
5cce:	72 40                	jb     5d10 <rpl_vfprintf+0xb0>
5cd0:	4c 39 e5             	cmp    rbp,r12
5cd3:	74 08                	je     5cdd <rpl_vfprintf+0x7d>
5cd5:	48 89 ef             	mov    rdi,rbp
5cd8:	e8 53 ba ff ff       	call   1730 <free@plt>
5cdd:	48 81 fb ff ff ff 7f 	cmp    rbx,0x7fffffff
5ce4:	77 4d                	ja     5d33 <rpl_vfprintf+0xd3>
5ce6:	48 8b 8c 24 e8 07 00 	mov    rcx,QWORD PTR [rsp+0x7e8]
5ced:	00
5cee:	64 48 33 0c 25 28 00 	xor    rcx,QWORD PTR fs:0x28
5cf5:	00 00
5cf7:	89 d8                	mov    eax,ebx
5cf9:	75 52                	jne    5d4d <rpl_vfprintf+0xed>
5cfb:	48 81 c4 f8 07 00 00 	add    rsp,0x7f8
5d02:	5b                   	pop    rbx
5d03:	5d                   	pop    rbp
5d04:	41 5c                	pop    r12
5d06:	41 5d                	pop    r13
5d08:	c3                   	ret
5d09:	0f 1f 80 00 00 00 00 	nop    DWORD PTR [rax+0x0]
5d10:	4c 39 e5             	cmp    rbp,r12
5d13:	bb ff ff ff ff       	mov    ebx,0xffffffff
5d18:	74 cc                	je     5ce6 <rpl_vfprintf+0x86>
5d1a:	e8 31 ba ff ff       	call   1750 <__errno_location@plt>
5d1f:	44 8b 28             	mov    r13d,DWORD PTR [rax]
5d22:	49 89 c4             	mov    r12,rax
5d25:	48 89 ef             	mov    rdi,rbp
5d28:	e8 03 ba ff ff       	call   1730 <free@plt>
5d2d:	45 89 2c 24          	mov    DWORD PTR [r12],r13d
5d31:	eb b3                	jmp    5ce6 <rpl_vfprintf+0x86>
5d33:	e8 18 ba ff ff       	call   1750 <__errno_location@plt>
5d38:	c7 00 4b 00 00 00    	mov    DWORD PTR [rax],0x4b
5d3e:	4c 89 ef             	mov    rdi,r13
5d41:	bb ff ff ff ff       	mov    ebx,0xffffffff
5d46:	e8 95 06 00 00       	call   63e0 <fseterr>
5d4b:	eb 99                	jmp    5ce6 <rpl_vfprintf+0x86>
5d4d:	e8 de ba ff ff       	call   1830 <__stack_chk_fail@plt>
5d52:	66 2e 0f 1f 84 00 00 	nop    WORD PTR cs:[rax+rax*1+0x0]
5d59:	00 00 00
5d5c:	0f 1f 40 00          	nop    DWORD PTR [rax+0x0]

0000000000005d60 <close_stream>:
5d60:	41 54                	push   r12
5d62:	55                   	push   rbp
5d63:	48 89 fd             	mov    rbp,rdi
5d66:	53                   	push   rbx
5d67:	e8 14 ba ff ff       	call   1780 <__fpending@plt>
5d6c:	8b 5d 00             	mov    ebx,DWORD PTR [rbp+0x0]
5d6f:	48 89 ef             	mov    rdi,rbp
5d72:	49 89 c4             	mov    r12,rax
5d75:	e8 46 05 00 00       	call   62c0 <rpl_fclose>
5d7a:	83 e3 20             	and    ebx,0x20
5d7d:	85 db                	test   ebx,ebx
5d7f:	75 17                	jne    5d98 <close_stream+0x38>
5d81:	85 c0                	test   eax,eax
5d83:	74 0a                	je     5d8f <close_stream+0x2f>
5d85:	4d 85 e4             	test   r12,r12
5d88:	b8 ff ff ff ff       	mov    eax,0xffffffff
5d8d:	74 39                	je     5dc8 <close_stream+0x68>
5d8f:	5b                   	pop    rbx
5d90:	5d                   	pop    rbp
5d91:	41 5c                	pop    r12
5d93:	c3                   	ret
5d94:	0f 1f 40 00          	nop    DWORD PTR [rax+0x0]
5d98:	85 c0                	test   eax,eax
5d9a:	75 1c                	jne    5db8 <close_stream+0x58>
5d9c:	e8 af b9 ff ff       	call   1750 <__errno_location@plt>
5da1:	c7 00 00 00 00 00    	mov    DWORD PTR [rax],0x0
5da7:	b8 ff ff ff ff       	mov    eax,0xffffffff
5dac:	5b                   	pop    rbx
5dad:	5d                   	pop    rbp
5dae:	41 5c                	pop    r12
5db0:	c3                   	ret
5db1:	0f 1f 80 00 00 00 00 	nop    DWORD PTR [rax+0x0]
5db8:	5b                   	pop    rbx
5db9:	b8 ff ff ff ff       	mov    eax,0xffffffff
5dbe:	5d                   	pop    rbp
5dbf:	41 5c                	pop    r12
5dc1:	c3                   	ret
5dc2:	66 0f 1f 44 00 00    	nop    WORD PTR [rax+rax*1+0x0]
5dc8:	e8 83 b9 ff ff       	call   1750 <__errno_location@plt>
5dcd:	83 38 09             	cmp    DWORD PTR [rax],0x9
5dd0:	5b                   	pop    rbx
5dd1:	5d                   	pop    rbp
5dd2:	41 5c                	pop    r12
5dd4:	0f 95 c0             	setne  al
5dd7:	0f b6 c0             	movzx  eax,al
5dda:	f7 d8                	neg    eax
5ddc:	c3                   	ret
5ddd:	0f 1f 00             	nop    DWORD PTR [rax]

0000000000005de0 <open_safer>:
5de0:	48 83 ec 58          	sub    rsp,0x58
5de4:	48 89 54 24 30       	mov    QWORD PTR [rsp+0x30],rdx
5de9:	31 d2                	xor    edx,edx
5deb:	64 48 8b 04 25 28 00 	mov    rax,QWORD PTR fs:0x28
5df2:	00 00
5df4:	48 89 44 24 18       	mov    QWORD PTR [rsp+0x18],rax
5df9:	31 c0                	xor    eax,eax
5dfb:	40 f6 c6 40          	test   sil,0x40
5dff:	75 27                	jne    5e28 <open_safer+0x48>
5e01:	31 c0                	xor    eax,eax
5e03:	e8 28 bc ff ff       	call   1a30 <open@plt>
5e08:	89 c7                	mov    edi,eax
5e0a:	e8 71 04 00 00       	call   6280 <fd_safer>
5e0f:	48 8b 4c 24 18       	mov    rcx,QWORD PTR [rsp+0x18]
5e14:	64 48 33 0c 25 28 00 	xor    rcx,QWORD PTR fs:0x28
5e1b:	00 00
5e1d:	75 2a                	jne    5e49 <open_safer+0x69>
5e1f:	48 83 c4 58          	add    rsp,0x58
5e23:	c3                   	ret
5e24:	0f 1f 40 00          	nop    DWORD PTR [rax+0x0]
5e28:	48 8d 44 24 60       	lea    rax,[rsp+0x60]
5e2d:	c7 04 24 10 00 00 00 	mov    DWORD PTR [rsp],0x10
5e34:	8b 54 24 30          	mov    edx,DWORD PTR [rsp+0x30]
5e38:	48 89 44 24 08       	mov    QWORD PTR [rsp+0x8],rax
5e3d:	48 8d 44 24 20       	lea    rax,[rsp+0x20]
5e42:	48 89 44 24 10       	mov    QWORD PTR [rsp+0x10],rax
5e47:	eb b8                	jmp    5e01 <open_safer+0x21>
5e49:	e8 e2 b9 ff ff       	call   1830 <__stack_chk_fail@plt>
5e4e:	66 90                	xchg   ax,ax

0000000000005e50 <hard_locale>:
5e50:	48 83 ec 08          	sub    rsp,0x8
5e54:	31 f6                	xor    esi,esi
5e56:	e8 75 bb ff ff       	call   19d0 <setlocale@plt>
5e5b:	48 89 c2             	mov    rdx,rax
5e5e:	b8 01 00 00 00       	mov    eax,0x1
5e63:	48 85 d2             	test   rdx,rdx
5e66:	74 1d                	je     5e85 <hard_locale+0x35>
5e68:	48 8d 3d b1 38 00 00 	lea    rdi,[rip+0x38b1]        # 9720 <version_etc_copyright+0x40>
5e6f:	b9 02 00 00 00       	mov    ecx,0x2
5e74:	48 89 d6             	mov    rsi,rdx
5e77:	f3 a6                	repz cmps BYTE PTR ds:[rsi],BYTE PTR es:[rdi]
5e79:	0f 97 c1             	seta   cl
5e7c:	80 d9 00             	sbb    cl,0x0
5e7f:	31 c0                	xor    eax,eax
5e81:	84 c9                	test   cl,cl
5e83:	75 0b                	jne    5e90 <hard_locale+0x40>
5e85:	48 83 c4 08          	add    rsp,0x8
5e89:	c3                   	ret
5e8a:	66 0f 1f 44 00 00    	nop    WORD PTR [rax+rax*1+0x0]
5e90:	48 8d 3d 8b 38 00 00 	lea    rdi,[rip+0x388b]        # 9722 <version_etc_copyright+0x42>
5e97:	b9 06 00 00 00       	mov    ecx,0x6
5e9c:	48 89 d6             	mov    rsi,rdx
5e9f:	f3 a6                	repz cmps BYTE PTR ds:[rsi],BYTE PTR es:[rdi]
5ea1:	0f 97 c0             	seta   al
5ea4:	1c 00                	sbb    al,0x0
5ea6:	84 c0                	test   al,al
5ea8:	0f 95 c0             	setne  al
5eab:	48 83 c4 08          	add    rsp,0x8
5eaf:	c3                   	ret

0000000000005eb0 <locale_charset>:
5eb0:	48 83 ec 08          	sub    rsp,0x8
5eb4:	bf 0e 00 00 00       	mov    edi,0xe
5eb9:	e8 92 ba ff ff       	call   1950 <nl_langinfo@plt>
5ebe:	48 85 c0             	test   rax,rax
5ec1:	74 1d                	je     5ee0 <locale_charset+0x30>
5ec3:	80 38 00             	cmp    BYTE PTR [rax],0x0
5ec6:	48 8d 15 5b 38 00 00 	lea    rdx,[rip+0x385b]        # 9728 <version_etc_copyright+0x48>
5ecd:	48 0f 44 c2          	cmove  rax,rdx
5ed1:	48 83 c4 08          	add    rsp,0x8
5ed5:	c3                   	ret
5ed6:	66 2e 0f 1f 84 00 00 	nop    WORD PTR cs:[rax+rax*1+0x0]
5edd:	00 00 00
5ee0:	48 8d 05 41 38 00 00 	lea    rax,[rip+0x3841]        # 9728 <version_etc_copyright+0x48>
5ee7:	48 83 c4 08          	add    rsp,0x8
5eeb:	c3                   	ret
5eec:	0f 1f 40 00          	nop    DWORD PTR [rax+0x0]

0000000000005ef0 <mkancesdirs>:
5ef0:	41 57                	push   r15
5ef2:	41 56                	push   r14
5ef4:	49 89 d6             	mov    r14,rdx
5ef7:	41 55                	push   r13
5ef9:	41 54                	push   r12
5efb:	49 89 fd             	mov    r13,rdi
5efe:	55                   	push   rbp
5eff:	53                   	push   rbx
5f00:	48 89 fd             	mov    rbp,rdi
5f03:	48 89 fb             	mov    rbx,rdi
5f06:	45 31 e4             	xor    r12d,r12d
5f09:	48 83 ec 28          	sub    rsp,0x28
5f0d:	48 89 74 24 08       	mov    QWORD PTR [rsp+0x8],rsi
5f12:	48 89 4c 24 18       	mov    QWORD PTR [rsp+0x18],rcx
5f17:	c6 44 24 14 00       	mov    BYTE PTR [rsp+0x14],0x0
5f1c:	0f 1f 40 00          	nop    DWORD PTR [rax+0x0]
5f20:	48 83 c3 01          	add    rbx,0x1
5f24:	0f b6 53 ff          	movzx  edx,BYTE PTR [rbx-0x1]
5f28:	84 d2                	test   dl,dl
5f2a:	0f 84 98 00 00 00    	je     5fc8 <mkancesdirs+0xd8>
5f30:	0f b6 03             	movzx  eax,BYTE PTR [rbx]
5f33:	3c 2f                	cmp    al,0x2f
5f35:	0f 84 a5 00 00 00    	je     5fe0 <mkancesdirs+0xf0>
5f3b:	84 c0                	test   al,al
5f3d:	0f 95 c0             	setne  al
5f40:	80 fa 2f             	cmp    dl,0x2f
5f43:	41 0f 94 c7          	sete   r15b
5f47:	41 20 c7             	and    r15b,al
5f4a:	74 d4                	je     5f20 <mkancesdirs+0x30>
5f4c:	4d 85 e4             	test   r12,r12
5f4f:	74 cf                	je     5f20 <mkancesdirs+0x30>
5f51:	4c 89 e0             	mov    rax,r12
5f54:	48 29 e8             	sub    rax,rbp
5f57:	48 83 f8 01          	cmp    rax,0x1
5f5b:	0f 84 8f 00 00 00    	je     5ff0 <mkancesdirs+0x100>
5f61:	48 83 f8 02          	cmp    rax,0x2
5f65:	41 c6 04 24 00       	mov    BYTE PTR [r12],0x0
5f6a:	0f 84 c5 00 00 00    	je     6035 <mkancesdirs+0x145>
5f70:	48 8b 54 24 18       	mov    rdx,QWORD PTR [rsp+0x18]
5f75:	48 89 ee             	mov    rsi,rbp
5f78:	4c 89 ef             	mov    rdi,r13
5f7b:	41 ff d6             	call   r14
5f7e:	85 c0                	test   eax,eax
5f80:	78 7e                	js     6000 <mkancesdirs+0x110>
5f82:	44 88 7c 24 14       	mov    BYTE PTR [rsp+0x14],r15b
5f87:	ba 01 00 00 00       	mov    edx,0x1
5f8c:	45 31 ff             	xor    r15d,r15d
5f8f:	48 8b 7c 24 08       	mov    rdi,QWORD PTR [rsp+0x8]
5f94:	31 c9                	xor    ecx,ecx
5f96:	48 89 ee             	mov    rsi,rbp
5f99:	e8 62 ed ff ff       	call   4d00 <savewd_chdir>
5f9e:	83 f8 ff             	cmp    eax,0xffffffff
5fa1:	89 c5                	mov    ebp,eax
5fa3:	74 73                	je     6018 <mkancesdirs+0x128>
5fa5:	85 c0                	test   eax,eax
5fa7:	41 c6 04 24 2f       	mov    BYTE PTR [r12],0x2f
5fac:	75 6a                	jne    6018 <mkancesdirs+0x128>
5fae:	48 89 dd             	mov    rbp,rbx
5fb1:	48 83 c3 01          	add    rbx,0x1
5fb5:	0f b6 53 ff          	movzx  edx,BYTE PTR [rbx-0x1]
5fb9:	84 d2                	test   dl,dl
5fbb:	0f 85 6f ff ff ff    	jne    5f30 <mkancesdirs+0x40>
5fc1:	0f 1f 80 00 00 00 00 	nop    DWORD PTR [rax+0x0]
5fc8:	48 89 e8             	mov    rax,rbp
5fcb:	4c 29 e8             	sub    rax,r13
5fce:	48 83 c4 28          	add    rsp,0x28
5fd2:	5b                   	pop    rbx
5fd3:	5d                   	pop    rbp
5fd4:	41 5c                	pop    r12
5fd6:	41 5d                	pop    r13
5fd8:	41 5e                	pop    r14
5fda:	41 5f                	pop    r15
5fdc:	c3                   	ret
5fdd:	0f 1f 00             	nop    DWORD PTR [rax]
5fe0:	80 fa 2f             	cmp    dl,0x2f
5fe3:	4c 0f 45 e3          	cmovne r12,rbx
5fe7:	e9 34 ff ff ff       	jmp    5f20 <mkancesdirs+0x30>
5fec:	0f 1f 40 00          	nop    DWORD PTR [rax+0x0]
5ff0:	80 7d 00 2e          	cmp    BYTE PTR [rbp+0x0],0x2e
5ff4:	74 b8                	je     5fae <mkancesdirs+0xbe>
5ff6:	41 c6 04 24 00       	mov    BYTE PTR [r12],0x0
5ffb:	e9 70 ff ff ff       	jmp    5f70 <mkancesdirs+0x80>
6000:	e8 4b b7 ff ff       	call   1750 <__errno_location@plt>
6005:	8b 54 24 14          	mov    edx,DWORD PTR [rsp+0x14]
6009:	44 8b 38             	mov    r15d,DWORD PTR [rax]
600c:	83 e2 01             	and    edx,0x1
600f:	e9 7b ff ff ff       	jmp    5f8f <mkancesdirs+0x9f>
6014:	0f 1f 40 00          	nop    DWORD PTR [rax+0x0]
6018:	45 85 ff             	test   r15d,r15d
601b:	74 13                	je     6030 <mkancesdirs+0x140>
601d:	e8 2e b7 ff ff       	call   1750 <__errno_location@plt>
6022:	83 38 02             	cmp    DWORD PTR [rax],0x2
6025:	75 09                	jne    6030 <mkancesdirs+0x140>
6027:	44 89 38             	mov    DWORD PTR [rax],r15d
602a:	66 0f 1f 44 00 00    	nop    WORD PTR [rax+rax*1+0x0]
6030:	48 63 c5             	movsxd rax,ebp
6033:	eb 99                	jmp    5fce <mkancesdirs+0xde>
6035:	80 7d 00 2e          	cmp    BYTE PTR [rbp+0x0],0x2e
6039:	0f 85 31 ff ff ff    	jne    5f70 <mkancesdirs+0x80>
603f:	80 7d 01 2e          	cmp    BYTE PTR [rbp+0x1],0x2e
6043:	0f 85 27 ff ff ff    	jne    5f70 <mkancesdirs+0x80>
6049:	45 31 ff             	xor    r15d,r15d
604c:	c6 44 24 14 00       	mov    BYTE PTR [rsp+0x14],0x0
6051:	31 d2                	xor    edx,edx
6053:	e9 37 ff ff ff       	jmp    5f8f <mkancesdirs+0x9f>
6058:	0f 1f 84 00 00 00 00 	nop    DWORD PTR [rax+rax*1+0x0]
605f:	00

0000000000006060 <dirchownmod>:
6060:	41 57                	push   r15
6062:	41 56                	push   r14
6064:	41 89 d7             	mov    r15d,edx
6067:	41 55                	push   r13
6069:	41 54                	push   r12
606b:	41 89 cd             	mov    r13d,ecx
606e:	55                   	push   rbp
606f:	53                   	push   rbx
6070:	89 fd                	mov    ebp,edi
6072:	49 89 f4             	mov    r12,rsi
6075:	45 89 ce             	mov    r14d,r9d
6078:	48 81 ec b8 00 00 00 	sub    rsp,0xb8
607f:	64 48 8b 04 25 28 00 	mov    rax,QWORD PTR fs:0x28
6086:	00 00
6088:	48 89 84 24 a8 00 00 	mov    QWORD PTR [rsp+0xa8],rax
608f:	00
6090:	31 c0                	xor    eax,eax
6092:	85 ff                	test   edi,edi
6094:	44 89 44 24 0c       	mov    DWORD PTR [rsp+0xc],r8d
6099:	48 8d 54 24 10       	lea    rdx,[rsp+0x10]
609e:	0f 88 cc 00 00 00    	js     6170 <dirchownmod+0x110>
60a4:	89 fe                	mov    esi,edi
60a6:	bf 01 00 00 00       	mov    edi,0x1
60ab:	e8 b0 b8 ff ff       	call   1960 <__fxstat@plt>
60b0:	85 c0                	test   eax,eax
60b2:	89 c3                	mov    ebx,eax
60b4:	44 8b 44 24 0c       	mov    r8d,DWORD PTR [rsp+0xc]
60b9:	0f 85 a1 01 00 00    	jne    6260 <dirchownmod+0x200>
60bf:	8b 4c 24 28          	mov    ecx,DWORD PTR [rsp+0x28]
60c3:	89 c8                	mov    eax,ecx
60c5:	25 00 f0 00 00       	and    eax,0xf000
60ca:	3d 00 40 00 00       	cmp    eax,0x4000
60cf:	75 4f                	jne    6120 <dirchownmod+0xc0>
60d1:	41 83 fd ff          	cmp    r13d,0xffffffff
60d5:	0f 84 d5 00 00 00    	je     61b0 <dirchownmod+0x150>
60db:	44 39 6c 24 2c       	cmp    DWORD PTR [rsp+0x2c],r13d
60e0:	0f 84 ca 00 00 00    	je     61b0 <dirchownmod+0x150>
60e6:	85 ed                	test   ebp,ebp
60e8:	89 4c 24 0c          	mov    DWORD PTR [rsp+0xc],ecx
60ec:	44 89 c2             	mov    edx,r8d
60ef:	44 89 ee             	mov    esi,r13d
60f2:	0f 89 08 01 00 00    	jns    6200 <dirchownmod+0x1a0>
60f8:	41 83 ff ff          	cmp    r15d,0xffffffff
60fc:	4c 89 e7             	mov    rdi,r12
60ff:	0f 84 3b 01 00 00    	je     6240 <dirchownmod+0x1e0>
6105:	e8 66 b8 ff ff       	call   1970 <lchown@plt>
610a:	8b 4c 24 0c          	mov    ecx,DWORD PTR [rsp+0xc]
610e:	89 c3                	mov    ebx,eax
6110:	85 db                	test   ebx,ebx
6112:	75 30                	jne    6144 <dirchownmod+0xe4>
6114:	e9 f8 00 00 00       	jmp    6211 <dirchownmod+0x1b1>
6119:	0f 1f 80 00 00 00 00 	nop    DWORD PTR [rax+0x0]
6120:	e8 2b b6 ff ff       	call   1750 <__errno_location@plt>
6125:	41 bd 14 00 00 00    	mov    r13d,0x14
612b:	49 89 c4             	mov    r12,rax
612e:	c7 00 14 00 00 00    	mov    DWORD PTR [rax],0x14
6134:	bb ff ff ff ff       	mov    ebx,0xffffffff
6139:	89 ef                	mov    edi,ebp
613b:	e8 70 b7 ff ff       	call   18b0 <close@plt>
6140:	45 89 2c 24          	mov    DWORD PTR [r12],r13d
6144:	48 8b 8c 24 a8 00 00 	mov    rcx,QWORD PTR [rsp+0xa8]
614b:	00
614c:	64 48 33 0c 25 28 00 	xor    rcx,QWORD PTR fs:0x28
6153:	00 00
6155:	89 d8                	mov    eax,ebx
6157:	0f 85 13 01 00 00    	jne    6270 <dirchownmod+0x210>
615d:	48 81 c4 b8 00 00 00 	add    rsp,0xb8
6164:	5b                   	pop    rbx
6165:	5d                   	pop    rbp
6166:	41 5c                	pop    r12
6168:	41 5d                	pop    r13
616a:	41 5e                	pop    r14
616c:	41 5f                	pop    r15
616e:	c3                   	ret
616f:	90                   	nop
6170:	bf 01 00 00 00       	mov    edi,0x1
6175:	e8 a6 b7 ff ff       	call   1920 <__xstat@plt>
617a:	85 c0                	test   eax,eax
617c:	89 c3                	mov    ebx,eax
617e:	44 8b 44 24 0c       	mov    r8d,DWORD PTR [rsp+0xc]
6183:	75 bf                	jne    6144 <dirchownmod+0xe4>
6185:	8b 4c 24 28          	mov    ecx,DWORD PTR [rsp+0x28]
6189:	89 c8                	mov    eax,ecx
618b:	25 00 f0 00 00       	and    eax,0xf000
6190:	3d 00 40 00 00       	cmp    eax,0x4000
6195:	0f 84 36 ff ff ff    	je     60d1 <dirchownmod+0x71>
619b:	e8 b0 b5 ff ff       	call   1750 <__errno_location@plt>
61a0:	83 cb ff             	or     ebx,0xffffffff
61a3:	c7 00 14 00 00 00    	mov    DWORD PTR [rax],0x14
61a9:	eb 99                	jmp    6144 <dirchownmod+0xe4>
61ab:	0f 1f 44 00 00       	nop    DWORD PTR [rax+rax*1+0x0]
61b0:	41 83 f8 ff          	cmp    r8d,0xffffffff
61b4:	74 0b                	je     61c1 <dirchownmod+0x161>
61b6:	44 39 44 24 30       	cmp    DWORD PTR [rsp+0x30],r8d
61bb:	0f 85 25 ff ff ff    	jne    60e6 <dirchownmod+0x86>
61c1:	31 d2                	xor    edx,edx
61c3:	89 c8                	mov    eax,ecx
61c5:	44 31 f0             	xor    eax,r14d
61c8:	09 d0                	or     eax,edx
61ca:	85 84 24 f0 00 00 00 	test   DWORD PTR [rsp+0xf0],eax
61d1:	74 4d                	je     6220 <dirchownmod+0x1c0>
61d3:	8b b4 24 f0 00 00 00 	mov    esi,DWORD PTR [rsp+0xf0]
61da:	81 e1 ff 0f 00 00    	and    ecx,0xfff
61e0:	f7 d6                	not    esi
61e2:	21 ce                	and    esi,ecx
61e4:	44 09 f6             	or     esi,r14d
61e7:	85 ed                	test   ebp,ebp
61e9:	79 65                	jns    6250 <dirchownmod+0x1f0>
61eb:	4c 89 e7             	mov    rdi,r12
61ee:	e8 0d b8 ff ff       	call   1a00 <chmod@plt>
61f3:	89 c3                	mov    ebx,eax
61f5:	e9 4a ff ff ff       	jmp    6144 <dirchownmod+0xe4>
61fa:	66 0f 1f 44 00 00    	nop    WORD PTR [rax+rax*1+0x0]
6200:	89 ef                	mov    edi,ebp
6202:	e8 49 b8 ff ff       	call   1a50 <fchown@plt>
6207:	85 c0                	test   eax,eax
6209:	89 c3                	mov    ebx,eax
620b:	8b 4c 24 0c          	mov    ecx,DWORD PTR [rsp+0xc]
620f:	75 4f                	jne    6260 <dirchownmod+0x200>
6211:	f6 c1 49             	test   cl,0x49
6214:	74 ab                	je     61c1 <dirchownmod+0x161>
6216:	89 ca                	mov    edx,ecx
6218:	81 e2 00 0c 00 00    	and    edx,0xc00
621e:	eb a3                	jmp    61c3 <dirchownmod+0x163>
6220:	31 db                	xor    ebx,ebx
6222:	85 ed                	test   ebp,ebp
6224:	0f 88 1a ff ff ff    	js     6144 <dirchownmod+0xe4>
622a:	66 0f 1f 44 00 00    	nop    WORD PTR [rax+rax*1+0x0]
6230:	89 ef                	mov    edi,ebp
6232:	e8 79 b6 ff ff       	call   18b0 <close@plt>
6237:	89 c3                	mov    ebx,eax
6239:	e9 06 ff ff ff       	jmp    6144 <dirchownmod+0xe4>
623e:	66 90                	xchg   ax,ax
6240:	e8 6b b7 ff ff       	call   19b0 <chown@plt>
6245:	8b 4c 24 0c          	mov    ecx,DWORD PTR [rsp+0xc]
6249:	89 c3                	mov    ebx,eax
624b:	e9 c0 fe ff ff       	jmp    6110 <dirchownmod+0xb0>
6250:	89 ef                	mov    edi,ebp
6252:	e8 99 b7 ff ff       	call   19f0 <fchmod@plt>
6257:	85 c0                	test   eax,eax
6259:	89 c3                	mov    ebx,eax
625b:	74 d3                	je     6230 <dirchownmod+0x1d0>
625d:	0f 1f 00             	nop    DWORD PTR [rax]
6260:	e8 eb b4 ff ff       	call   1750 <__errno_location@plt>
6265:	49 89 c4             	mov    r12,rax
6268:	44 8b 28             	mov    r13d,DWORD PTR [rax]
626b:	e9 c9 fe ff ff       	jmp    6139 <dirchownmod+0xd9>
6270:	e8 bb b5 ff ff       	call   1830 <__stack_chk_fail@plt>
6275:	66 2e 0f 1f 84 00 00 	nop    WORD PTR cs:[rax+rax*1+0x0]
627c:	00 00 00
627f:	90                   	nop

0000000000006280 <fd_safer>:
6280:	41 55                	push   r13
6282:	41 54                	push   r12
6284:	55                   	push   rbp
6285:	53                   	push   rbx
6286:	89 fb                	mov    ebx,edi
6288:	48 83 ec 08          	sub    rsp,0x8
628c:	83 ff 02             	cmp    edi,0x2
628f:	77 21                	ja     62b2 <fd_safer+0x32>
6291:	e8 7a 12 00 00       	call   7510 <dup_safer>
6296:	41 89 c4             	mov    r12d,eax
6299:	e8 b2 b4 ff ff       	call   1750 <__errno_location@plt>
629e:	44 8b 28             	mov    r13d,DWORD PTR [rax]
62a1:	48 89 c5             	mov    rbp,rax
62a4:	89 df                	mov    edi,ebx
62a6:	e8 05 b6 ff ff       	call   18b0 <close@plt>
62ab:	44 89 e3             	mov    ebx,r12d
62ae:	44 89 6d 00          	mov    DWORD PTR [rbp+0x0],r13d
62b2:	48 83 c4 08          	add    rsp,0x8
62b6:	89 d8                	mov    eax,ebx
62b8:	5b                   	pop    rbx
62b9:	5d                   	pop    rbp
62ba:	41 5c                	pop    r12
62bc:	41 5d                	pop    r13
62be:	c3                   	ret
62bf:	90                   	nop

00000000000062c0 <rpl_fclose>:
62c0:	41 54                	push   r12
62c2:	55                   	push   rbp
62c3:	53                   	push   rbx
62c4:	48 89 fb             	mov    rbx,rdi
62c7:	e8 44 b6 ff ff       	call   1910 <fileno@plt>
62cc:	85 c0                	test   eax,eax
62ce:	48 89 df             	mov    rdi,rbx
62d1:	78 54                	js     6327 <rpl_fclose+0x67>
62d3:	e8 a8 b6 ff ff       	call   1980 <__freading@plt>
62d8:	85 c0                	test   eax,eax
62da:	75 2c                	jne    6308 <rpl_fclose+0x48>
62dc:	48 89 df             	mov    rdi,rbx
62df:	e8 5c 00 00 00       	call   6340 <rpl_fflush>
62e4:	85 c0                	test   eax,eax
62e6:	74 3c                	je     6324 <rpl_fclose+0x64>
62e8:	e8 63 b4 ff ff       	call   1750 <__errno_location@plt>
62ed:	44 8b 20             	mov    r12d,DWORD PTR [rax]
62f0:	48 89 df             	mov    rdi,rbx
62f3:	48 89 c5             	mov    rbp,rax
62f6:	e8 d5 b4 ff ff       	call   17d0 <fclose@plt>
62fb:	45 85 e4             	test   r12d,r12d
62fe:	75 30                	jne    6330 <rpl_fclose+0x70>
6300:	5b                   	pop    rbx
6301:	5d                   	pop    rbp
6302:	41 5c                	pop    r12
6304:	c3                   	ret
6305:	0f 1f 00             	nop    DWORD PTR [rax]
6308:	48 89 df             	mov    rdi,rbx
630b:	e8 00 b6 ff ff       	call   1910 <fileno@plt>
6310:	31 f6                	xor    esi,esi
6312:	ba 01 00 00 00       	mov    edx,0x1
6317:	89 c7                	mov    edi,eax
6319:	e8 62 b5 ff ff       	call   1880 <lseek@plt>
631e:	48 83 f8 ff          	cmp    rax,0xffffffffffffffff
6322:	75 b8                	jne    62dc <rpl_fclose+0x1c>
6324:	48 89 df             	mov    rdi,rbx
6327:	5b                   	pop    rbx
6328:	5d                   	pop    rbp
6329:	41 5c                	pop    r12
632b:	e9 a0 b4 ff ff       	jmp    17d0 <fclose@plt>
6330:	44 89 65 00          	mov    DWORD PTR [rbp+0x0],r12d
6334:	b8 ff ff ff ff       	mov    eax,0xffffffff
6339:	eb c5                	jmp    6300 <rpl_fclose+0x40>
633b:	0f 1f 44 00 00       	nop    DWORD PTR [rax+rax*1+0x0]

0000000000006340 <rpl_fflush>:
6340:	48 85 ff             	test   rdi,rdi
6343:	53                   	push   rbx
6344:	48 89 fb             	mov    rbx,rdi
6347:	74 11                	je     635a <rpl_fflush+0x1a>
6349:	e8 32 b6 ff ff       	call   1980 <__freading@plt>
634e:	85 c0                	test   eax,eax
6350:	74 08                	je     635a <rpl_fflush+0x1a>
6352:	f7 03 00 01 00 00    	test   DWORD PTR [rbx],0x100
6358:	75 0e                	jne    6368 <rpl_fflush+0x28>
635a:	48 89 df             	mov    rdi,rbx
635d:	5b                   	pop    rbx
635e:	e9 dd b5 ff ff       	jmp    1940 <fflush@plt>
6363:	0f 1f 44 00 00       	nop    DWORD PTR [rax+rax*1+0x0]
6368:	48 89 df             	mov    rdi,rbx
636b:	ba 01 00 00 00       	mov    edx,0x1
6370:	31 f6                	xor    esi,esi
6372:	e8 09 00 00 00       	call   6380 <rpl_fseeko>
6377:	48 89 df             	mov    rdi,rbx
637a:	5b                   	pop    rbx
637b:	e9 c0 b5 ff ff       	jmp    1940 <fflush@plt>

0000000000006380 <rpl_fseeko>:
6380:	48 8b 47 08          	mov    rax,QWORD PTR [rdi+0x8]
6384:	48 39 47 10          	cmp    QWORD PTR [rdi+0x10],rax
6388:	74 06                	je     6390 <rpl_fseeko+0x10>
638a:	e9 b1 b6 ff ff       	jmp    1a40 <fseeko@plt>
638f:	90                   	nop
6390:	48 8b 47 20          	mov    rax,QWORD PTR [rdi+0x20]
6394:	48 39 47 28          	cmp    QWORD PTR [rdi+0x28],rax
6398:	75 f0                	jne    638a <rpl_fseeko+0xa>
639a:	48 83 7f 48 00       	cmp    QWORD PTR [rdi+0x48],0x0
639f:	75 e9                	jne    638a <rpl_fseeko+0xa>
63a1:	41 54                	push   r12
63a3:	55                   	push   rbp
63a4:	41 89 d4             	mov    r12d,edx
63a7:	53                   	push   rbx
63a8:	48 89 f5             	mov    rbp,rsi
63ab:	48 89 fb             	mov    rbx,rdi
63ae:	e8 5d b5 ff ff       	call   1910 <fileno@plt>
63b3:	44 89 e2             	mov    edx,r12d
63b6:	48 89 ee             	mov    rsi,rbp
63b9:	89 c7                	mov    edi,eax
63bb:	e8 c0 b4 ff ff       	call   1880 <lseek@plt>
63c0:	48 83 f8 ff          	cmp    rax,0xffffffffffffffff
63c4:	74 0c                	je     63d2 <rpl_fseeko+0x52>
63c6:	83 23 ef             	and    DWORD PTR [rbx],0xffffffef
63c9:	48 89 83 90 00 00 00 	mov    QWORD PTR [rbx+0x90],rax
63d0:	31 c0                	xor    eax,eax
63d2:	5b                   	pop    rbx
63d3:	5d                   	pop    rbp
63d4:	41 5c                	pop    r12
63d6:	c3                   	ret
63d7:	66 0f 1f 84 00 00 00 	nop    WORD PTR [rax+rax*1+0x0]
63de:	00 00

00000000000063e0 <fseterr>:
63e0:	83 0f 20             	or     DWORD PTR [rdi],0x20
63e3:	c3                   	ret
63e4:	66 2e 0f 1f 84 00 00 	nop    WORD PTR cs:[rax+rax*1+0x0]
63eb:	00 00 00
63ee:	66 90                	xchg   ax,ax

00000000000063f0 <vasnprintf>:
63f0:	55                   	push   rbp
63f1:	48 89 e5             	mov    rbp,rsp
63f4:	41 57                	push   r15
63f6:	41 56                	push   r14
63f8:	41 55                	push   r13
63fa:	41 54                	push   r12
63fc:	4c 8d b5 50 fc ff ff 	lea    r14,[rbp-0x3b0]
6403:	53                   	push   rbx
6404:	48 89 d3             	mov    rbx,rdx
6407:	49 89 cc             	mov    r12,rcx
640a:	4c 89 f2             	mov    rdx,r14
640d:	48 81 ec 08 04 00 00 	sub    rsp,0x408
6414:	48 89 b5 e8 fb ff ff 	mov    QWORD PTR [rbp-0x418],rsi
641b:	48 8d b5 40 fd ff ff 	lea    rsi,[rbp-0x2c0]
6422:	48 89 bd 18 fc ff ff 	mov    QWORD PTR [rbp-0x3e8],rdi
6429:	48 89 df             	mov    rdi,rbx
642c:	4c 89 b5 f0 fb ff ff 	mov    QWORD PTR [rbp-0x410],r14
6433:	64 48 8b 04 25 28 00 	mov    rax,QWORD PTR fs:0x28
643a:	00 00
643c:	48 89 45 c8          	mov    QWORD PTR [rbp-0x38],rax
6440:	31 c0                	xor    eax,eax
6442:	48 89 b5 f8 fb ff ff 	mov    QWORD PTR [rbp-0x408],rsi
6449:	e8 52 15 00 00       	call   79a0 <printf_parse>
644e:	85 c0                	test   eax,eax
6450:	0f 88 62 0e 00 00    	js     72b8 <vasnprintf+0xec8>
6456:	4c 89 f6             	mov    rsi,r14
6459:	4c 89 e7             	mov    rdi,r12
645c:	e8 3f 13 00 00       	call   77a0 <printf_fetchargs>
6461:	85 c0                	test   eax,eax
6463:	0f 88 b7 0e 00 00    	js     7320 <vasnprintf+0xf30>
6469:	48 8b 85 50 fd ff ff 	mov    rax,QWORD PTR [rbp-0x2b0]
6470:	48 c7 c2 ff ff ff ff 	mov    rdx,0xffffffffffffffff
6477:	48 83 c0 07          	add    rax,0x7
647b:	48 83 f8 06          	cmp    rax,0x6
647f:	48 0f 46 c2          	cmovbe rax,rdx
6483:	48 03 85 58 fd ff ff 	add    rax,QWORD PTR [rbp-0x2a8]
648a:	0f 82 28 0a 00 00    	jb     6eb8 <vasnprintf+0xac8>
6490:	48 89 c7             	mov    rdi,rax
6493:	45 31 c0             	xor    r8d,r8d
6496:	48 83 c7 06          	add    rdi,0x6
649a:	41 0f 92 c0          	setb   r8b
649e:	0f 82 14 0a 00 00    	jb     6eb8 <vasnprintf+0xac8>
64a4:	48 81 ff 9f 0f 00 00 	cmp    rdi,0xf9f
64ab:	0f 86 47 01 00 00    	jbe    65f8 <vasnprintf+0x208>
64b1:	48 83 ff ff          	cmp    rdi,0xffffffffffffffff
64b5:	4c 89 85 38 fc ff ff 	mov    QWORD PTR [rbp-0x3c8],r8
64bc:	0f 84 f6 09 00 00    	je     6eb8 <vasnprintf+0xac8>
64c2:	e8 69 b4 ff ff       	call   1930 <malloc@plt>
64c7:	48 85 c0             	test   rax,rax
64ca:	48 89 85 28 fc ff ff 	mov    QWORD PTR [rbp-0x3d8],rax
64d1:	0f 84 e1 09 00 00    	je     6eb8 <vasnprintf+0xac8>
64d7:	4c 8b 85 38 fc ff ff 	mov    r8,QWORD PTR [rbp-0x3c8]
64de:	48 89 85 e0 fb ff ff 	mov    QWORD PTR [rbp-0x420],rax
64e5:	45 31 e4             	xor    r12d,r12d
64e8:	48 83 bd 18 fc ff ff 	cmp    QWORD PTR [rbp-0x3e8],0x0
64ef:	00
64f0:	74 0a                	je     64fc <vasnprintf+0x10c>
64f2:	48 8b 85 e8 fb ff ff 	mov    rax,QWORD PTR [rbp-0x418]
64f9:	4c 8b 20             	mov    r12,QWORD PTR [rax]
64fc:	4c 8b ad 48 fd ff ff 	mov    r13,QWORD PTR [rbp-0x2b8]
6503:	48 8d 85 44 fc ff ff 	lea    rax,[rbp-0x3bc]
650a:	4c 8b bd 18 fc ff ff 	mov    r15,QWORD PTR [rbp-0x3e8]
6511:	48 c7 85 00 fc ff ff 	mov    QWORD PTR [rbp-0x400],0x0
6518:	00 00 00 00
651c:	48 89 85 10 fc ff ff 	mov    QWORD PTR [rbp-0x3f0],rax
6523:	48 89 d8             	mov    rax,rbx
6526:	4c 89 c3             	mov    rbx,r8
6529:	49 8b 4d 00          	mov    rcx,QWORD PTR [r13+0x0]
652d:	49 89 c0             	mov    r8,rax
6530:	4c 39 c1             	cmp    rcx,r8
6533:	0f 84 68 09 00 00    	je     6ea1 <vasnprintf+0xab1>
6539:	4c 29 c1             	sub    rcx,r8
653c:	48 89 d8             	mov    rax,rbx
653f:	48 01 c8             	add    rax,rcx
6542:	49 89 c6             	mov    r14,rax
6545:	0f 83 dd 00 00 00    	jae    6628 <vasnprintf+0x238>
654b:	49 83 fc ff          	cmp    r12,0xffffffffffffffff
654f:	0f 84 cb 0a 00 00    	je     7020 <vasnprintf+0xc30>
6555:	e8 f6 b1 ff ff       	call   1750 <__errno_location@plt>
655a:	48 89 85 38 fc ff ff 	mov    QWORD PTR [rbp-0x3c8],rax
6561:	4c 3b bd 18 fc ff ff 	cmp    r15,QWORD PTR [rbp-0x3e8]
6568:	74 09                	je     6573 <vasnprintf+0x183>
656a:	4d 85 ff             	test   r15,r15
656d:	0f 85 dd 0a 00 00    	jne    7050 <vasnprintf+0xc60>
6573:	48 8b 85 e0 fb ff ff 	mov    rax,QWORD PTR [rbp-0x420]
657a:	48 85 c0             	test   rax,rax
657d:	74 08                	je     6587 <vasnprintf+0x197>
657f:	48 89 c7             	mov    rdi,rax
6582:	e8 a9 b1 ff ff       	call   1730 <free@plt>
6587:	48 8b 85 f8 fb ff ff 	mov    rax,QWORD PTR [rbp-0x408]
658e:	48 8b bd 48 fd ff ff 	mov    rdi,QWORD PTR [rbp-0x2b8]
6595:	48 83 c0 20          	add    rax,0x20
6599:	48 39 c7             	cmp    rdi,rax
659c:	74 05                	je     65a3 <vasnprintf+0x1b3>
659e:	e8 8d b1 ff ff       	call   1730 <free@plt>
65a3:	48 8b 85 f0 fb ff ff 	mov    rax,QWORD PTR [rbp-0x410]
65aa:	48 8b bd 58 fc ff ff 	mov    rdi,QWORD PTR [rbp-0x3a8]
65b1:	48 83 c0 10          	add    rax,0x10
65b5:	48 39 c7             	cmp    rdi,rax
65b8:	74 05                	je     65bf <vasnprintf+0x1cf>
65ba:	e8 71 b1 ff ff       	call   1730 <free@plt>
65bf:	48 8b 85 38 fc ff ff 	mov    rax,QWORD PTR [rbp-0x3c8]
65c6:	45 31 ff             	xor    r15d,r15d
65c9:	c7 00 0c 00 00 00    	mov    DWORD PTR [rax],0xc
65cf:	48 8b 7d c8          	mov    rdi,QWORD PTR [rbp-0x38]
65d3:	64 48 33 3c 25 28 00 	xor    rdi,QWORD PTR fs:0x28
65da:	00 00
65dc:	4c 89 f8             	mov    rax,r15
65df:	0f 85 02 0f 00 00    	jne    74e7 <vasnprintf+0x10f7>
65e5:	48 8d 65 d8          	lea    rsp,[rbp-0x28]
65e9:	5b                   	pop    rbx
65ea:	41 5c                	pop    r12
65ec:	41 5d                	pop    r13
65ee:	41 5e                	pop    r14
65f0:	41 5f                	pop    r15
65f2:	5d                   	pop    rbp
65f3:	c3                   	ret
65f4:	0f 1f 40 00          	nop    DWORD PTR [rax+0x0]
65f8:	48 83 c0 24          	add    rax,0x24
65fc:	48 c7 85 e0 fb ff ff 	mov    QWORD PTR [rbp-0x420],0x0
6603:	00 00 00 00
6607:	48 83 e0 f0          	and    rax,0xfffffffffffffff0
660b:	48 29 c4             	sub    rsp,rax
660e:	48 8d 44 24 0f       	lea    rax,[rsp+0xf]
6613:	48 83 e0 f0          	and    rax,0xfffffffffffffff0
6617:	48 89 85 28 fc ff ff 	mov    QWORD PTR [rbp-0x3d8],rax
661e:	e9 c2 fe ff ff       	jmp    64e5 <vasnprintf+0xf5>
6623:	0f 1f 44 00 00       	nop    DWORD PTR [rax+rax*1+0x0]
6628:	49 39 c4             	cmp    r12,rax
662b:	73 67                	jae    6694 <vasnprintf+0x2a4>
662d:	4d 85 e4             	test   r12,r12
6630:	0f 85 2a 09 00 00    	jne    6f60 <vasnprintf+0xb70>
6636:	48 83 f8 0c          	cmp    rax,0xc
663a:	0f 87 32 09 00 00    	ja     6f72 <vasnprintf+0xb82>
6640:	41 bc 0c 00 00 00    	mov    r12d,0xc
6646:	4c 3b bd 18 fc ff ff 	cmp    r15,QWORD PTR [rbp-0x3e8]
664d:	0f 94 c2             	sete   dl
6650:	4d 85 ff             	test   r15,r15
6653:	0f 84 3f 09 00 00    	je     6f98 <vasnprintf+0xba8>
6659:	84 d2                	test   dl,dl
665b:	0f 85 37 09 00 00    	jne    6f98 <vasnprintf+0xba8>
6661:	4c 89 e6             	mov    rsi,r12
6664:	4c 89 ff             	mov    rdi,r15
6667:	4c 89 85 30 fc ff ff 	mov    QWORD PTR [rbp-0x3d0],r8
666e:	48 89 8d 38 fc ff ff 	mov    QWORD PTR [rbp-0x3c8],rcx
6675:	e8 46 b3 ff ff       	call   19c0 <realloc@plt>
667a:	48 85 c0             	test   rax,rax
667d:	48 8b 8d 38 fc ff ff 	mov    rcx,QWORD PTR [rbp-0x3c8]
6684:	4c 8b 85 30 fc ff ff 	mov    r8,QWORD PTR [rbp-0x3d0]
668b:	0f 84 aa 09 00 00    	je     703b <vasnprintf+0xc4b>
6691:	49 89 c7             	mov    r15,rax
6694:	49 8d 3c 1f          	lea    rdi,[r15+rbx*1]
6698:	48 89 ca             	mov    rdx,rcx
669b:	4c 89 c6             	mov    rsi,r8
669e:	e8 5d b2 ff ff       	call   1900 <memcpy@plt>
66a3:	48 8b 85 00 fc ff ff 	mov    rax,QWORD PTR [rbp-0x400]
66aa:	48 39 85 40 fd ff ff 	cmp    QWORD PTR [rbp-0x2c0],rax
66b1:	0f 84 b4 0c 00 00    	je     736b <vasnprintf+0xf7b>
66b7:	41 0f b6 55 48       	movzx  edx,BYTE PTR [r13+0x48]
66bc:	49 8b 45 50          	mov    rax,QWORD PTR [r13+0x50]
66c0:	80 fa 25             	cmp    dl,0x25
66c3:	0f 84 8f 07 00 00    	je     6e58 <vasnprintf+0xa68>
66c9:	48 83 f8 ff          	cmp    rax,0xffffffffffffffff
66cd:	0f 84 43 0c 00 00    	je     7316 <vasnprintf+0xf26>
66d3:	4c 8b 85 58 fc ff ff 	mov    r8,QWORD PTR [rbp-0x3a8]
66da:	48 c1 e0 05          	shl    rax,0x5
66de:	4c 01 c0             	add    rax,r8
66e1:	80 fa 6e             	cmp    dl,0x6e
66e4:	8b 38                	mov    edi,DWORD PTR [rax]
66e6:	89 bd 30 fc ff ff    	mov    DWORD PTR [rbp-0x3d0],edi
66ec:	0f 84 de 07 00 00    	je     6ed0 <vasnprintf+0xae0>
66f2:	41 8b 45 10          	mov    eax,DWORD PTR [r13+0x10]
66f6:	48 8b bd 28 fc ff ff 	mov    rdi,QWORD PTR [rbp-0x3d8]
66fd:	a8 01                	test   al,0x1
66ff:	c6 07 25             	mov    BYTE PTR [rdi],0x25
6702:	48 8d 5f 01          	lea    rbx,[rdi+0x1]
6706:	74 0f                	je     6717 <vasnprintf+0x327>
6708:	48 8b bd 28 fc ff ff 	mov    rdi,QWORD PTR [rbp-0x3d8]
670f:	48 8d 5f 02          	lea    rbx,[rdi+0x2]
6713:	c6 47 01 27          	mov    BYTE PTR [rdi+0x1],0x27
6717:	a8 02                	test   al,0x2
6719:	74 07                	je     6722 <vasnprintf+0x332>
671b:	c6 03 2d             	mov    BYTE PTR [rbx],0x2d
671e:	48 83 c3 01          	add    rbx,0x1
6722:	a8 04                	test   al,0x4
6724:	74 07                	je     672d <vasnprintf+0x33d>
6726:	c6 03 2b             	mov    BYTE PTR [rbx],0x2b
6729:	48 83 c3 01          	add    rbx,0x1
672d:	a8 08                	test   al,0x8
672f:	74 07                	je     6738 <vasnprintf+0x348>
6731:	c6 03 20             	mov    BYTE PTR [rbx],0x20
6734:	48 83 c3 01          	add    rbx,0x1
6738:	a8 10                	test   al,0x10
673a:	74 07                	je     6743 <vasnprintf+0x353>
673c:	c6 03 23             	mov    BYTE PTR [rbx],0x23
673f:	48 83 c3 01          	add    rbx,0x1
6743:	a8 40                	test   al,0x40
6745:	74 07                	je     674e <vasnprintf+0x35e>
6747:	c6 03 49             	mov    BYTE PTR [rbx],0x49
674a:	48 83 c3 01          	add    rbx,0x1
674e:	a8 20                	test   al,0x20
6750:	74 07                	je     6759 <vasnprintf+0x369>
6752:	c6 03 30             	mov    BYTE PTR [rbx],0x30
6755:	48 83 c3 01          	add    rbx,0x1
6759:	49 8b 75 18          	mov    rsi,QWORD PTR [r13+0x18]
675d:	49 8b 55 20          	mov    rdx,QWORD PTR [r13+0x20]
6761:	48 39 d6             	cmp    rsi,rdx
6764:	74 30                	je     6796 <vasnprintf+0x3a6>
6766:	48 89 d1             	mov    rcx,rdx
6769:	48 89 df             	mov    rdi,rbx
676c:	4c 89 85 20 fc ff ff 	mov    QWORD PTR [rbp-0x3e0],r8
6773:	48 29 f1             	sub    rcx,rsi
6776:	48 89 ca             	mov    rdx,rcx
6779:	48 89 8d 38 fc ff ff 	mov    QWORD PTR [rbp-0x3c8],rcx
6780:	e8 7b b1 ff ff       	call   1900 <memcpy@plt>
6785:	48 8b 8d 38 fc ff ff 	mov    rcx,QWORD PTR [rbp-0x3c8]
678c:	4c 8b 85 20 fc ff ff 	mov    r8,QWORD PTR [rbp-0x3e0]
6793:	48 01 cb             	add    rbx,rcx
6796:	49 8b 75 30          	mov    rsi,QWORD PTR [r13+0x30]
679a:	49 8b 55 38          	mov    rdx,QWORD PTR [r13+0x38]
679e:	48 39 d6             	cmp    rsi,rdx
67a1:	74 30                	je     67d3 <vasnprintf+0x3e3>
67a3:	48 89 d1             	mov    rcx,rdx
67a6:	48 89 df             	mov    rdi,rbx
67a9:	4c 89 85 20 fc ff ff 	mov    QWORD PTR [rbp-0x3e0],r8
67b0:	48 29 f1             	sub    rcx,rsi
67b3:	48 89 ca             	mov    rdx,rcx
67b6:	48 89 8d 38 fc ff ff 	mov    QWORD PTR [rbp-0x3c8],rcx
67bd:	e8 3e b1 ff ff       	call   1900 <memcpy@plt>
67c2:	48 8b 8d 38 fc ff ff 	mov    rcx,QWORD PTR [rbp-0x3c8]
67c9:	4c 8b 85 20 fc ff ff 	mov    r8,QWORD PTR [rbp-0x3e0]
67d0:	48 01 cb             	add    rbx,rcx
67d3:	8b bd 30 fc ff ff    	mov    edi,DWORD PTR [rbp-0x3d0]
67d9:	83 ff 10             	cmp    edi,0x10
67dc:	77 2d                	ja     680b <vasnprintf+0x41b>
67de:	b8 01 00 00 00       	mov    eax,0x1
67e3:	89 f9                	mov    ecx,edi
67e5:	48 d3 e0             	shl    rax,cl
67e8:	a9 80 41 01 00       	test   eax,0x14180
67ed:	75 15                	jne    6804 <vasnprintf+0x414>
67ef:	f6 c4 10             	test   ah,0x10
67f2:	0f 85 58 09 00 00    	jne    7150 <vasnprintf+0xd60>
67f8:	f6 c4 06             	test   ah,0x6
67fb:	74 0e                	je     680b <vasnprintf+0x41b>
67fd:	c6 03 6c             	mov    BYTE PTR [rbx],0x6c
6800:	48 83 c3 01          	add    rbx,0x1
6804:	c6 03 6c             	mov    BYTE PTR [rbx],0x6c
6807:	48 83 c3 01          	add    rbx,0x1
680b:	41 0f b6 45 48       	movzx  eax,BYTE PTR [r13+0x48]
6810:	c6 43 01 00          	mov    BYTE PTR [rbx+0x1],0x0
6814:	88 03                	mov    BYTE PTR [rbx],al
6816:	49 8b 45 28          	mov    rax,QWORD PTR [r13+0x28]
681a:	48 83 f8 ff          	cmp    rax,0xffffffffffffffff
681e:	0f 84 2c 07 00 00    	je     6f50 <vasnprintf+0xb60>
6824:	48 c1 e0 05          	shl    rax,0x5
6828:	4c 01 c0             	add    rax,r8
682b:	83 38 05             	cmp    DWORD PTR [rax],0x5
682e:	0f 85 e2 0a 00 00    	jne    7316 <vasnprintf+0xf26>
6834:	8b 40 10             	mov    eax,DWORD PTR [rax+0x10]
6837:	c7 85 20 fc ff ff 01 	mov    DWORD PTR [rbp-0x3e0],0x1
683e:	00 00 00
6841:	89 85 48 fc ff ff    	mov    DWORD PTR [rbp-0x3b8],eax
6847:	49 8b 45 40          	mov    rax,QWORD PTR [r13+0x40]
684b:	48 83 f8 ff          	cmp    rax,0xffffffffffffffff
684f:	74 2b                	je     687c <vasnprintf+0x48c>
6851:	48 c1 e0 05          	shl    rax,0x5
6855:	49 01 c0             	add    r8,rax
6858:	41 83 38 05          	cmp    DWORD PTR [r8],0x5
685c:	0f 85 b4 0a 00 00    	jne    7316 <vasnprintf+0xf26>
6862:	8b 85 20 fc ff ff    	mov    eax,DWORD PTR [rbp-0x3e0]
6868:	41 8b 50 10          	mov    edx,DWORD PTR [r8+0x10]
686c:	89 94 85 48 fc ff ff 	mov    DWORD PTR [rbp+rax*4-0x3b8],edx
6873:	8d 40 01             	lea    eax,[rax+0x1]
6876:	89 85 20 fc ff ff    	mov    DWORD PTR [rbp-0x3e0],eax
687c:	4c 89 f0             	mov    rax,r14
687f:	31 d2                	xor    edx,edx
6881:	48 83 c0 02          	add    rax,0x2
6885:	0f 82 61 0c 00 00    	jb     74ec <vasnprintf+0x10fc>
688b:	49 39 c4             	cmp    r12,rax
688e:	73 4b                	jae    68db <vasnprintf+0x4eb>
6890:	4d 85 e4             	test   r12,r12
6893:	0f 85 1f 08 00 00    	jne    70b8 <vasnprintf+0xcc8>
6899:	48 83 f8 0c          	cmp    rax,0xc
689d:	0f 87 2d 08 00 00    	ja     70d0 <vasnprintf+0xce0>
68a3:	41 bc 0c 00 00 00    	mov    r12d,0xc
68a9:	4c 3b bd 18 fc ff ff 	cmp    r15,QWORD PTR [rbp-0x3e8]
68b0:	0f 94 c2             	sete   dl
68b3:	4d 85 ff             	test   r15,r15
68b6:	0f 84 44 08 00 00    	je     7100 <vasnprintf+0xd10>
68bc:	84 d2                	test   dl,dl
68be:	0f 85 3c 08 00 00    	jne    7100 <vasnprintf+0xd10>
68c4:	4c 89 e6             	mov    rsi,r12
68c7:	4c 89 ff             	mov    rdi,r15
68ca:	e8 f1 b0 ff ff       	call   19c0 <realloc@plt>
68cf:	48 85 c0             	test   rax,rax
68d2:	0f 84 7d fc ff ff    	je     6555 <vasnprintf+0x165>
68d8:	49 89 c7             	mov    r15,rax
68db:	43 c6 04 37 00       	mov    BYTE PTR [r15+r14*1],0x0
68e0:	e8 6b ae ff ff       	call   1750 <__errno_location@plt>
68e5:	48 89 85 38 fc ff ff 	mov    QWORD PTR [rbp-0x3c8],rax
68ec:	8b 00                	mov    eax,DWORD PTR [rax]
68ee:	48 89 9d 08 fc ff ff 	mov    QWORD PTR [rbp-0x3f8],rbx
68f5:	89 85 dc fb ff ff    	mov    DWORD PTR [rbp-0x424],eax
68fb:	0f 1f 44 00 00       	nop    DWORD PTR [rax+rax*1+0x0]
6900:	48 8b 85 38 fc ff ff 	mov    rax,QWORD PTR [rbp-0x3c8]
6907:	4c 89 e3             	mov    rbx,r12
690a:	41 ba ff ff ff 7f    	mov    r10d,0x7fffffff
6910:	4c 29 f3             	sub    rbx,r14
6913:	c7 85 44 fc ff ff ff 	mov    DWORD PTR [rbp-0x3bc],0xffffffff
691a:	ff ff ff
691d:	48 81 fb ff ff ff 7f 	cmp    rbx,0x7fffffff
6924:	c7 00 00 00 00 00    	mov    DWORD PTR [rax],0x0
692a:	8b 85 30 fc ff ff    	mov    eax,DWORD PTR [rbp-0x3d0]
6930:	4c 0f 46 d3          	cmovbe r10,rbx
6934:	83 f8 11             	cmp    eax,0x11
6937:	0f 87 d9 09 00 00    	ja     7316 <vasnprintf+0xf26>
693d:	48 8d 35 ec 2d 00 00 	lea    rsi,[rip+0x2dec]        # 9730 <version_etc_copyright+0x50>
6944:	48 63 04 86          	movsxd rax,DWORD PTR [rsi+rax*4]
6948:	48 01 f0             	add    rax,rsi
694b:	ff e0                	jmp    rax
694d:	0f 1f 00             	nop    DWORD PTR [rax]
6950:	49 8b 45 50          	mov    rax,QWORD PTR [r13+0x50]
6954:	4b 8d 3c 37          	lea    rdi,[r15+r14*1]
6958:	48 c1 e0 05          	shl    rax,0x5
695c:	48 03 85 58 fc ff ff 	add    rax,QWORD PTR [rbp-0x3a8]
6963:	4c 8b 48 10          	mov    r9,QWORD PTR [rax+0x10]
6967:	8b 85 20 fc ff ff    	mov    eax,DWORD PTR [rbp-0x3e0]
696d:	83 f8 01             	cmp    eax,0x1
6970:	0f 84 c2 04 00 00    	je     6e38 <vasnprintf+0xa48>
6976:	83 f8 02             	cmp    eax,0x2
6979:	0f 84 a1 04 00 00    	je     6e20 <vasnprintf+0xa30>
697f:	48 83 ec 08          	sub    rsp,0x8
6983:	ff b5 10 fc ff ff    	push   QWORD PTR [rbp-0x3f0]
6989:	4c 8b 85 28 fc ff ff 	mov    r8,QWORD PTR [rbp-0x3d8]
6990:	4c 89 d6             	mov    rsi,r10
6993:	48 c7 c1 ff ff ff ff 	mov    rcx,0xffffffffffffffff
699a:	ba 01 00 00 00       	mov    edx,0x1
699f:	31 c0                	xor    eax,eax
69a1:	4c 89 95 d0 fb ff ff 	mov    QWORD PTR [rbp-0x430],r10
69a8:	e8 63 ad ff ff       	call   1710 <__snprintf_chk@plt>
69ad:	5e                   	pop    rsi
69ae:	5f                   	pop    rdi
69af:	4c 8b 95 d0 fb ff ff 	mov    r10,QWORD PTR [rbp-0x430]
69b6:	8b 8d 44 fc ff ff    	mov    ecx,DWORD PTR [rbp-0x3bc]
69bc:	85 c9                	test   ecx,ecx
69be:	0f 88 38 01 00 00    	js     6afc <vasnprintf+0x70c>
69c4:	48 63 d1             	movsxd rdx,ecx
69c7:	4c 39 d2             	cmp    rdx,r10
69ca:	73 0e                	jae    69da <vasnprintf+0x5ea>
69cc:	4c 01 fa             	add    rdx,r15
69cf:	42 80 3c 32 00       	cmp    BYTE PTR [rdx+r14*1],0x0
69d4:	0f 85 3c 09 00 00    	jne    7316 <vasnprintf+0xf26>
69da:	39 c1                	cmp    ecx,eax
69dc:	7d 08                	jge    69e6 <vasnprintf+0x5f6>
69de:	89 85 44 fc ff ff    	mov    DWORD PTR [rbp-0x3bc],eax
69e4:	89 c1                	mov    ecx,eax
69e6:	8d 41 01             	lea    eax,[rcx+0x1]
69e9:	4c 39 d0             	cmp    rax,r10
69ec:	0f 82 2e 08 00 00    	jb     7220 <vasnprintf+0xe30>
69f2:	48 81 fb fe ff ff 7f 	cmp    rbx,0x7ffffffe
69f9:	0f 87 41 08 00 00    	ja     7240 <vasnprintf+0xe50>
69ff:	4b 8d 34 24          	lea    rsi,[r12+r12*1]
6a03:	8d 51 02             	lea    edx,[rcx+0x2]
6a06:	4d 85 e4             	test   r12,r12
6a09:	48 c7 c0 ff ff ff ff 	mov    rax,0xffffffffffffffff
6a10:	48 0f 49 c6          	cmovns rax,rsi
6a14:	4c 01 f2             	add    rdx,r14
6a17:	0f 82 bb 0a 00 00    	jb     74d8 <vasnprintf+0x10e8>
6a1d:	48 39 d0             	cmp    rax,rdx
6a20:	48 0f 42 c2          	cmovb  rax,rdx
6a24:	49 39 c4             	cmp    r12,rax
6a27:	0f 83 d3 fe ff ff    	jae    6900 <vasnprintf+0x510>
6a2d:	4d 85 e4             	test   r12,r12
6a30:	0f 88 2b fb ff ff    	js     6561 <vasnprintf+0x171>
6a36:	48 39 c6             	cmp    rsi,rax
6a39:	49 89 f4             	mov    r12,rsi
6a3c:	73 0d                	jae    6a4b <vasnprintf+0x65b>
6a3e:	48 83 f8 ff          	cmp    rax,0xffffffffffffffff
6a42:	0f 84 19 fb ff ff    	je     6561 <vasnprintf+0x171>
6a48:	49 89 c4             	mov    r12,rax
6a4b:	4c 3b bd 18 fc ff ff 	cmp    r15,QWORD PTR [rbp-0x3e8]
6a52:	0f 94 c3             	sete   bl
6a55:	4d 85 ff             	test   r15,r15
6a58:	0f 84 82 03 00 00    	je     6de0 <vasnprintf+0x9f0>
6a5e:	84 db                	test   bl,bl
6a60:	0f 85 7a 03 00 00    	jne    6de0 <vasnprintf+0x9f0>
6a66:	4c 89 e6             	mov    rsi,r12
6a69:	4c 89 ff             	mov    rdi,r15
6a6c:	e8 4f af ff ff       	call   19c0 <realloc@plt>
6a71:	48 85 c0             	test   rax,rax
6a74:	0f 84 e7 fa ff ff    	je     6561 <vasnprintf+0x171>
6a7a:	49 89 c7             	mov    r15,rax
6a7d:	e9 7e fe ff ff       	jmp    6900 <vasnprintf+0x510>
6a82:	66 0f 1f 44 00 00    	nop    WORD PTR [rax+rax*1+0x0]
6a88:	49 8b 45 50          	mov    rax,QWORD PTR [r13+0x50]
6a8c:	4b 8d 3c 37          	lea    rdi,[r15+r14*1]
6a90:	48 c1 e0 05          	shl    rax,0x5
6a94:	48 03 85 58 fc ff ff 	add    rax,QWORD PTR [rbp-0x3a8]
6a9b:	44 8b 48 10          	mov    r9d,DWORD PTR [rax+0x10]
6a9f:	8b 85 20 fc ff ff    	mov    eax,DWORD PTR [rbp-0x3e0]
6aa5:	83 f8 01             	cmp    eax,0x1
6aa8:	0f 84 32 02 00 00    	je     6ce0 <vasnprintf+0x8f0>
6aae:	83 f8 02             	cmp    eax,0x2
6ab1:	0f 84 71 02 00 00    	je     6d28 <vasnprintf+0x938>
6ab7:	48 83 ec 08          	sub    rsp,0x8
6abb:	ff b5 10 fc ff ff    	push   QWORD PTR [rbp-0x3f0]
6ac1:	4c 8b 85 28 fc ff ff 	mov    r8,QWORD PTR [rbp-0x3d8]
6ac8:	48 c7 c1 ff ff ff ff 	mov    rcx,0xffffffffffffffff
6acf:	ba 01 00 00 00       	mov    edx,0x1
6ad4:	4c 89 d6             	mov    rsi,r10
6ad7:	31 c0                	xor    eax,eax
6ad9:	4c 89 95 d0 fb ff ff 	mov    QWORD PTR [rbp-0x430],r10
6ae0:	e8 2b ac ff ff       	call   1710 <__snprintf_chk@plt>
6ae5:	5a                   	pop    rdx
6ae6:	59                   	pop    rcx
6ae7:	8b 8d 44 fc ff ff    	mov    ecx,DWORD PTR [rbp-0x3bc]
6aed:	4c 8b 95 d0 fb ff ff 	mov    r10,QWORD PTR [rbp-0x430]
6af4:	85 c9                	test   ecx,ecx
6af6:	0f 89 c8 fe ff ff    	jns    69c4 <vasnprintf+0x5d4>
6afc:	48 8b bd 08 fc ff ff 	mov    rdi,QWORD PTR [rbp-0x3f8]
6b03:	80 7f 01 00          	cmp    BYTE PTR [rdi+0x1],0x0
6b07:	0f 85 3b 03 00 00    	jne    6e48 <vasnprintf+0xa58>
6b0d:	85 c0                	test   eax,eax
6b0f:	0f 89 c9 fe ff ff    	jns    69de <vasnprintf+0x5ee>
6b15:	48 8b 85 38 fc ff ff 	mov    rax,QWORD PTR [rbp-0x3c8]
6b1c:	8b 18                	mov    ebx,DWORD PTR [rax]
6b1e:	85 db                	test   ebx,ebx
6b20:	75 1e                	jne    6b40 <vasnprintf+0x750>
6b22:	41 0f b6 45 48       	movzx  eax,BYTE PTR [r13+0x48]
6b27:	bb 16 00 00 00       	mov    ebx,0x16
6b2c:	83 e0 ef             	and    eax,0xffffffef
6b2f:	3c 63                	cmp    al,0x63
6b31:	b8 54 00 00 00       	mov    eax,0x54
6b36:	0f 44 d8             	cmove  ebx,eax
6b39:	0f 1f 80 00 00 00 00 	nop    DWORD PTR [rax+0x0]
6b40:	4c 3b bd 18 fc ff ff 	cmp    r15,QWORD PTR [rbp-0x3e8]
6b47:	74 09                	je     6b52 <vasnprintf+0x762>
6b49:	4d 85 ff             	test   r15,r15
6b4c:	0f 85 aa 07 00 00    	jne    72fc <vasnprintf+0xf0c>
6b52:	48 8b 85 e0 fb ff ff 	mov    rax,QWORD PTR [rbp-0x420]
6b59:	48 85 c0             	test   rax,rax
6b5c:	74 08                	je     6b66 <vasnprintf+0x776>
6b5e:	48 89 c7             	mov    rdi,rax
6b61:	e8 ca ab ff ff       	call   1730 <free@plt>
6b66:	48 8b 85 f8 fb ff ff 	mov    rax,QWORD PTR [rbp-0x408]
6b6d:	48 8b bd 48 fd ff ff 	mov    rdi,QWORD PTR [rbp-0x2b8]
6b74:	48 83 c0 20          	add    rax,0x20
6b78:	48 39 c7             	cmp    rdi,rax
6b7b:	74 05                	je     6b82 <vasnprintf+0x792>
6b7d:	e8 ae ab ff ff       	call   1730 <free@plt>
6b82:	48 8b 85 f0 fb ff ff 	mov    rax,QWORD PTR [rbp-0x410]
6b89:	48 8b bd 58 fc ff ff 	mov    rdi,QWORD PTR [rbp-0x3a8]
6b90:	48 83 c0 10          	add    rax,0x10
6b94:	48 39 c7             	cmp    rdi,rax
6b97:	74 05                	je     6b9e <vasnprintf+0x7ae>
6b99:	e8 92 ab ff ff       	call   1730 <free@plt>
6b9e:	48 8b 85 38 fc ff ff 	mov    rax,QWORD PTR [rbp-0x3c8]
6ba5:	45 31 ff             	xor    r15d,r15d
6ba8:	89 18                	mov    DWORD PTR [rax],ebx
6baa:	e9 20 fa ff ff       	jmp    65cf <vasnprintf+0x1df>
6baf:	90                   	nop
6bb0:	49 8b 45 50          	mov    rax,QWORD PTR [r13+0x50]
6bb4:	4b 8d 3c 37          	lea    rdi,[r15+r14*1]
6bb8:	48 c1 e0 05          	shl    rax,0x5
6bbc:	48 03 85 58 fc ff ff 	add    rax,QWORD PTR [rbp-0x3a8]
6bc3:	db 68 10             	fld    TBYTE PTR [rax+0x10]
6bc6:	8b 85 20 fc ff ff    	mov    eax,DWORD PTR [rbp-0x3e0]
6bcc:	83 f8 01             	cmp    eax,0x1
6bcf:	0f 84 2b 06 00 00    	je     7200 <vasnprintf+0xe10>
6bd5:	83 f8 02             	cmp    eax,0x2
6bd8:	0f 85 c2 04 00 00    	jne    70a0 <vasnprintf+0xcb0>
6bde:	8b 85 4c fc ff ff    	mov    eax,DWORD PTR [rbp-0x3b4]
6be4:	48 83 ec 08          	sub    rsp,0x8
6be8:	ff b5 10 fc ff ff    	push   QWORD PTR [rbp-0x3f0]
6bee:	44 8b 8d 48 fc ff ff 	mov    r9d,DWORD PTR [rbp-0x3b8]
6bf5:	4c 8b 85 28 fc ff ff 	mov    r8,QWORD PTR [rbp-0x3d8]
6bfc:	4c 89 d6             	mov    rsi,r10
6bff:	48 83 ec 18          	sub    rsp,0x18
6c03:	48 c7 c1 ff ff ff ff 	mov    rcx,0xffffffffffffffff
6c0a:	ba 01 00 00 00       	mov    edx,0x1
6c0f:	db 7c 24 08          	fstp   TBYTE PTR [rsp+0x8]
6c13:	50                   	push   rax
6c14:	31 c0                	xor    eax,eax
6c16:	4c 89 95 d0 fb ff ff 	mov    QWORD PTR [rbp-0x430],r10
6c1d:	e8 ee aa ff ff       	call   1710 <__snprintf_chk@plt>
6c22:	48 83 c4 30          	add    rsp,0x30
6c26:	4c 8b 95 d0 fb ff ff 	mov    r10,QWORD PTR [rbp-0x430]
6c2d:	e9 84 fd ff ff       	jmp    69b6 <vasnprintf+0x5c6>
6c32:	66 0f 1f 44 00 00    	nop    WORD PTR [rax+rax*1+0x0]
6c38:	49 8b 45 50          	mov    rax,QWORD PTR [r13+0x50]
6c3c:	4b 8d 3c 37          	lea    rdi,[r15+r14*1]
6c40:	48 c1 e0 05          	shl    rax,0x5
6c44:	48 03 85 58 fc ff ff 	add    rax,QWORD PTR [rbp-0x3a8]
6c4b:	f2 0f 10 40 10       	movsd  xmm0,QWORD PTR [rax+0x10]
6c50:	8b 85 20 fc ff ff    	mov    eax,DWORD PTR [rbp-0x3e0]
6c56:	83 f8 01             	cmp    eax,0x1
6c59:	0f 84 91 05 00 00    	je     71f0 <vasnprintf+0xe00>
6c5f:	83 f8 02             	cmp    eax,0x2
6c62:	0f 85 f8 03 00 00    	jne    7060 <vasnprintf+0xc70>
6c68:	8b 85 4c fc ff ff    	mov    eax,DWORD PTR [rbp-0x3b4]
6c6e:	ff b5 10 fc ff ff    	push   QWORD PTR [rbp-0x3f0]
6c74:	50                   	push   rax
6c75:	44 8b 8d 48 fc ff ff 	mov    r9d,DWORD PTR [rbp-0x3b8]
6c7c:	4c 8b 85 28 fc ff ff 	mov    r8,QWORD PTR [rbp-0x3d8]
6c83:	4c 89 d6             	mov    rsi,r10
6c86:	48 c7 c1 ff ff ff ff 	mov    rcx,0xffffffffffffffff
6c8d:	ba 01 00 00 00       	mov    edx,0x1
6c92:	b8 01 00 00 00       	mov    eax,0x1
6c97:	4c 89 95 d0 fb ff ff 	mov    QWORD PTR [rbp-0x430],r10
6c9e:	e8 6d aa ff ff       	call   1710 <__snprintf_chk@plt>
6ca3:	41 58                	pop    r8
6ca5:	4c 8b 95 d0 fb ff ff 	mov    r10,QWORD PTR [rbp-0x430]
6cac:	41 59                	pop    r9
6cae:	e9 03 fd ff ff       	jmp    69b6 <vasnprintf+0x5c6>
6cb3:	0f 1f 44 00 00       	nop    DWORD PTR [rax+rax*1+0x0]
6cb8:	49 8b 45 50          	mov    rax,QWORD PTR [r13+0x50]
6cbc:	4b 8d 3c 37          	lea    rdi,[r15+r14*1]
6cc0:	48 c1 e0 05          	shl    rax,0x5
6cc4:	48 03 85 58 fc ff ff 	add    rax,QWORD PTR [rbp-0x3a8]
6ccb:	44 0f b7 48 10       	movzx  r9d,WORD PTR [rax+0x10]
6cd0:	8b 85 20 fc ff ff    	mov    eax,DWORD PTR [rbp-0x3e0]
6cd6:	83 f8 01             	cmp    eax,0x1
6cd9:	0f 85 cf fd ff ff    	jne    6aae <vasnprintf+0x6be>
6cdf:	90                   	nop
6ce0:	ff b5 10 fc ff ff    	push   QWORD PTR [rbp-0x3f0]
6ce6:	41 51                	push   r9
6ce8:	44 8b 8d 48 fc ff ff 	mov    r9d,DWORD PTR [rbp-0x3b8]
6cef:	e9 cd fd ff ff       	jmp    6ac1 <vasnprintf+0x6d1>
6cf4:	0f 1f 40 00          	nop    DWORD PTR [rax+0x0]
6cf8:	49 8b 45 50          	mov    rax,QWORD PTR [r13+0x50]
6cfc:	4b 8d 3c 37          	lea    rdi,[r15+r14*1]
6d00:	48 c1 e0 05          	shl    rax,0x5
6d04:	48 03 85 58 fc ff ff 	add    rax,QWORD PTR [rbp-0x3a8]
6d0b:	44 0f bf 48 10       	movsx  r9d,WORD PTR [rax+0x10]
6d10:	8b 85 20 fc ff ff    	mov    eax,DWORD PTR [rbp-0x3e0]
6d16:	83 f8 01             	cmp    eax,0x1
6d19:	74 c5                	je     6ce0 <vasnprintf+0x8f0>
6d1b:	83 f8 02             	cmp    eax,0x2
6d1e:	0f 85 93 fd ff ff    	jne    6ab7 <vasnprintf+0x6c7>
6d24:	0f 1f 40 00          	nop    DWORD PTR [rax+0x0]
6d28:	48 83 ec 08          	sub    rsp,0x8
6d2c:	ff b5 10 fc ff ff    	push   QWORD PTR [rbp-0x3f0]
6d32:	41 51                	push   r9
6d34:	8b 85 4c fc ff ff    	mov    eax,DWORD PTR [rbp-0x3b4]
6d3a:	50                   	push   rax
6d3b:	44 8b 8d 48 fc ff ff 	mov    r9d,DWORD PTR [rbp-0x3b8]
6d42:	4c 8b 85 28 fc ff ff 	mov    r8,QWORD PTR [rbp-0x3d8]
6d49:	4c 89 d6             	mov    rsi,r10
6d4c:	48 c7 c1 ff ff ff ff 	mov    rcx,0xffffffffffffffff
6d53:	ba 01 00 00 00       	mov    edx,0x1
6d58:	31 c0                	xor    eax,eax
6d5a:	4c 89 95 d0 fb ff ff 	mov    QWORD PTR [rbp-0x430],r10
6d61:	e8 aa a9 ff ff       	call   1710 <__snprintf_chk@plt>
6d66:	48 83 c4 20          	add    rsp,0x20
6d6a:	4c 8b 95 d0 fb ff ff 	mov    r10,QWORD PTR [rbp-0x430]
6d71:	e9 40 fc ff ff       	jmp    69b6 <vasnprintf+0x5c6>
6d76:	66 2e 0f 1f 84 00 00 	nop    WORD PTR cs:[rax+rax*1+0x0]
6d7d:	00 00 00
6d80:	49 8b 45 50          	mov    rax,QWORD PTR [r13+0x50]
6d84:	4b 8d 3c 37          	lea    rdi,[r15+r14*1]
6d88:	48 c1 e0 05          	shl    rax,0x5
6d8c:	48 03 85 58 fc ff ff 	add    rax,QWORD PTR [rbp-0x3a8]
6d93:	44 0f b6 48 10       	movzx  r9d,BYTE PTR [rax+0x10]
6d98:	8b 85 20 fc ff ff    	mov    eax,DWORD PTR [rbp-0x3e0]
6d9e:	83 f8 01             	cmp    eax,0x1
6da1:	0f 85 07 fd ff ff    	jne    6aae <vasnprintf+0x6be>
6da7:	e9 34 ff ff ff       	jmp    6ce0 <vasnprintf+0x8f0>
6dac:	0f 1f 40 00          	nop    DWORD PTR [rax+0x0]
6db0:	49 8b 45 50          	mov    rax,QWORD PTR [r13+0x50]
6db4:	4b 8d 3c 37          	lea    rdi,[r15+r14*1]
6db8:	48 c1 e0 05          	shl    rax,0x5
6dbc:	48 03 85 58 fc ff ff 	add    rax,QWORD PTR [rbp-0x3a8]
6dc3:	44 0f be 48 10       	movsx  r9d,BYTE PTR [rax+0x10]
6dc8:	8b 85 20 fc ff ff    	mov    eax,DWORD PTR [rbp-0x3e0]
6dce:	83 f8 01             	cmp    eax,0x1
6dd1:	0f 85 d7 fc ff ff    	jne    6aae <vasnprintf+0x6be>
6dd7:	e9 04 ff ff ff       	jmp    6ce0 <vasnprintf+0x8f0>
6ddc:	0f 1f 40 00          	nop    DWORD PTR [rax+0x0]
6de0:	4c 89 e7             	mov    rdi,r12
6de3:	e8 48 ab ff ff       	call   1930 <malloc@plt>
6de8:	48 85 c0             	test   rax,rax
6deb:	48 89 c1             	mov    rcx,rax
6dee:	0f 84 6d f7 ff ff    	je     6561 <vasnprintf+0x171>
6df4:	4d 85 f6             	test   r14,r14
6df7:	0f 84 b3 00 00 00    	je     6eb0 <vasnprintf+0xac0>
6dfd:	84 db                	test   bl,bl
6dff:	0f 84 ab 00 00 00    	je     6eb0 <vasnprintf+0xac0>
6e05:	4c 89 fe             	mov    rsi,r15
6e08:	4c 89 f2             	mov    rdx,r14
6e0b:	48 89 c7             	mov    rdi,rax
6e0e:	e8 ed aa ff ff       	call   1900 <memcpy@plt>
6e13:	49 89 c7             	mov    r15,rax
6e16:	e9 e5 fa ff ff       	jmp    6900 <vasnprintf+0x510>
6e1b:	0f 1f 44 00 00       	nop    DWORD PTR [rax+rax*1+0x0]
6e20:	48 83 ec 08          	sub    rsp,0x8
6e24:	ff b5 10 fc ff ff    	push   QWORD PTR [rbp-0x3f0]
6e2a:	41 51                	push   r9
6e2c:	e9 03 ff ff ff       	jmp    6d34 <vasnprintf+0x944>
6e31:	0f 1f 80 00 00 00 00 	nop    DWORD PTR [rax+0x0]
6e38:	ff b5 10 fc ff ff    	push   QWORD PTR [rbp-0x3f0]
6e3e:	41 51                	push   r9
6e40:	e9 a3 fe ff ff       	jmp    6ce8 <vasnprintf+0x8f8>
6e45:	0f 1f 00             	nop    DWORD PTR [rax]
6e48:	c6 47 01 00          	mov    BYTE PTR [rdi+0x1],0x0
6e4c:	e9 af fa ff ff       	jmp    6900 <vasnprintf+0x510>
6e51:	0f 1f 80 00 00 00 00 	nop    DWORD PTR [rax+0x0]
6e58:	48 83 f8 ff          	cmp    rax,0xffffffffffffffff
6e5c:	0f 85 b4 04 00 00    	jne    7316 <vasnprintf+0xf26>
6e62:	4c 89 f0             	mov    rax,r14
6e65:	48 83 c0 01          	add    rax,0x1
6e69:	48 89 c3             	mov    rbx,rax
6e6c:	0f 83 86 00 00 00    	jae    6ef8 <vasnprintf+0xb08>
6e72:	49 83 fc ff          	cmp    r12,0xffffffffffffffff
6e76:	0f 85 d9 f6 ff ff    	jne    6555 <vasnprintf+0x165>
6e7c:	4c 89 e3             	mov    rbx,r12
6e7f:	43 c6 04 37 25       	mov    BYTE PTR [r15+r14*1],0x25
6e84:	4d 8b 45 08          	mov    r8,QWORD PTR [r13+0x8]
6e88:	49 83 c5 58          	add    r13,0x58
6e8c:	49 8b 4d 00          	mov    rcx,QWORD PTR [r13+0x0]
6e90:	48 83 85 00 fc ff ff 	add    QWORD PTR [rbp-0x400],0x1
6e97:	01
6e98:	4c 39 c1             	cmp    rcx,r8
6e9b:	0f 85 98 f6 ff ff    	jne    6539 <vasnprintf+0x149>
6ea1:	49 89 de             	mov    r14,rbx
6ea4:	e9 fa f7 ff ff       	jmp    66a3 <vasnprintf+0x2b3>
6ea9:	0f 1f 80 00 00 00 00 	nop    DWORD PTR [rax+0x0]
6eb0:	49 89 cf             	mov    r15,rcx
6eb3:	e9 48 fa ff ff       	jmp    6900 <vasnprintf+0x510>
6eb8:	e8 93 a8 ff ff       	call   1750 <__errno_location@plt>
6ebd:	48 89 85 38 fc ff ff 	mov    QWORD PTR [rbp-0x3c8],rax
6ec4:	e9 be f6 ff ff       	jmp    6587 <vasnprintf+0x197>
6ec9:	0f 1f 80 00 00 00 00 	nop    DWORD PTR [rax+0x0]
6ed0:	89 fa                	mov    edx,edi
6ed2:	83 ea 12             	sub    edx,0x12
6ed5:	83 fa 04             	cmp    edx,0x4
6ed8:	0f 87 38 04 00 00    	ja     7316 <vasnprintf+0xf26>
6ede:	48 8d 3d 93 28 00 00 	lea    rdi,[rip+0x2893]        # 9778 <version_etc_copyright+0x98>
6ee5:	48 8b 40 10          	mov    rax,QWORD PTR [rax+0x10]
6ee9:	48 63 14 97          	movsxd rdx,DWORD PTR [rdi+rdx*4]
6eed:	48 01 fa             	add    rdx,rdi
6ef0:	ff e2                	jmp    rdx
6ef2:	66 0f 1f 44 00 00    	nop    WORD PTR [rax+rax*1+0x0]
6ef8:	49 39 c4             	cmp    r12,rax
6efb:	73 82                	jae    6e7f <vasnprintf+0xa8f>
6efd:	4d 85 e4             	test   r12,r12
6f00:	0f 85 ca 03 00 00    	jne    72d0 <vasnprintf+0xee0>
6f06:	48 83 f8 0c          	cmp    rax,0xc
6f0a:	0f 87 d2 03 00 00    	ja     72e2 <vasnprintf+0xef2>
6f10:	41 bc 0c 00 00 00    	mov    r12d,0xc
6f16:	4c 3b bd 18 fc ff ff 	cmp    r15,QWORD PTR [rbp-0x3e8]
6f1d:	0f 94 c2             	sete   dl
6f20:	4d 85 ff             	test   r15,r15
6f23:	0f 84 67 02 00 00    	je     7190 <vasnprintf+0xda0>
6f29:	84 d2                	test   dl,dl
6f2b:	0f 85 5f 02 00 00    	jne    7190 <vasnprintf+0xda0>
6f31:	4c 89 e6             	mov    rsi,r12
6f34:	4c 89 ff             	mov    rdi,r15
6f37:	e8 84 aa ff ff       	call   19c0 <realloc@plt>
6f3c:	48 85 c0             	test   rax,rax
6f3f:	0f 84 f6 00 00 00    	je     703b <vasnprintf+0xc4b>
6f45:	49 89 c7             	mov    r15,rax
6f48:	e9 32 ff ff ff       	jmp    6e7f <vasnprintf+0xa8f>
6f4d:	0f 1f 00             	nop    DWORD PTR [rax]
6f50:	c7 85 20 fc ff ff 00 	mov    DWORD PTR [rbp-0x3e0],0x0
6f57:	00 00 00
6f5a:	e9 e8 f8 ff ff       	jmp    6847 <vasnprintf+0x457>
6f5f:	90                   	nop
6f60:	0f 88 ef f5 ff ff    	js     6555 <vasnprintf+0x165>
6f66:	4d 01 e4             	add    r12,r12
6f69:	49 39 c4             	cmp    r12,rax
6f6c:	0f 83 d4 f6 ff ff    	jae    6646 <vasnprintf+0x256>
6f72:	48 83 f8 ff          	cmp    rax,0xffffffffffffffff
6f76:	0f 84 d9 f5 ff ff    	je     6555 <vasnprintf+0x165>
6f7c:	4c 3b bd 18 fc ff ff 	cmp    r15,QWORD PTR [rbp-0x3e8]
6f83:	49 89 c4             	mov    r12,rax
6f86:	0f 94 c2             	sete   dl
6f89:	4d 85 ff             	test   r15,r15
6f8c:	0f 85 c7 f6 ff ff    	jne    6659 <vasnprintf+0x269>
6f92:	66 0f 1f 44 00 00    	nop    WORD PTR [rax+rax*1+0x0]
6f98:	4c 89 e7             	mov    rdi,r12
6f9b:	4c 89 85 20 fc ff ff 	mov    QWORD PTR [rbp-0x3e0],r8
6fa2:	88 95 30 fc ff ff    	mov    BYTE PTR [rbp-0x3d0],dl
6fa8:	48 89 8d 38 fc ff ff 	mov    QWORD PTR [rbp-0x3c8],rcx
6faf:	e8 7c a9 ff ff       	call   1930 <malloc@plt>
6fb4:	48 85 c0             	test   rax,rax
6fb7:	49 89 c1             	mov    r9,rax
6fba:	48 8b 8d 38 fc ff ff 	mov    rcx,QWORD PTR [rbp-0x3c8]
6fc1:	0f b6 95 30 fc ff ff 	movzx  edx,BYTE PTR [rbp-0x3d0]
6fc8:	4c 8b 85 20 fc ff ff 	mov    r8,QWORD PTR [rbp-0x3e0]
6fcf:	0f 84 80 f5 ff ff    	je     6555 <vasnprintf+0x165>
6fd5:	48 85 db             	test   rbx,rbx
6fd8:	0f 84 02 02 00 00    	je     71e0 <vasnprintf+0xdf0>
6fde:	84 d2                	test   dl,dl
6fe0:	0f 84 fa 01 00 00    	je     71e0 <vasnprintf+0xdf0>
6fe6:	4c 89 fe             	mov    rsi,r15
6fe9:	48 89 da             	mov    rdx,rbx
6fec:	48 89 c7             	mov    rdi,rax
6fef:	4c 89 85 30 fc ff ff 	mov    QWORD PTR [rbp-0x3d0],r8
6ff6:	48 89 8d 38 fc ff ff 	mov    QWORD PTR [rbp-0x3c8],rcx
6ffd:	e8 fe a8 ff ff       	call   1900 <memcpy@plt>
7002:	48 8b 8d 38 fc ff ff 	mov    rcx,QWORD PTR [rbp-0x3c8]
7009:	49 89 c7             	mov    r15,rax
700c:	4c 8b 85 30 fc ff ff 	mov    r8,QWORD PTR [rbp-0x3d0]
7013:	e9 7c f6 ff ff       	jmp    6694 <vasnprintf+0x2a4>
7018:	0f 1f 84 00 00 00 00 	nop    DWORD PTR [rax+rax*1+0x0]
701f:	00
7020:	4d 89 e6             	mov    r14,r12
7023:	e9 6c f6 ff ff       	jmp    6694 <vasnprintf+0x2a4>
7028:	0f 1f 84 00 00 00 00 	nop    DWORD PTR [rax+rax*1+0x0]
702f:	00
7030:	4c 89 30             	mov    QWORD PTR [rax],r14
7033:	4c 89 f3             	mov    rbx,r14
7036:	e9 49 fe ff ff       	jmp    6e84 <vasnprintf+0xa94>
703b:	e8 10 a7 ff ff       	call   1750 <__errno_location@plt>
7040:	48 89 85 38 fc ff ff 	mov    QWORD PTR [rbp-0x3c8],rax
7047:	66 0f 1f 84 00 00 00 	nop    WORD PTR [rax+rax*1+0x0]
704e:	00 00
7050:	4c 89 ff             	mov    rdi,r15
7053:	e8 d8 a6 ff ff       	call   1730 <free@plt>
7058:	e9 16 f5 ff ff       	jmp    6573 <vasnprintf+0x183>
705d:	0f 1f 00             	nop    DWORD PTR [rax]
7060:	4c 8b 8d 10 fc ff ff 	mov    r9,QWORD PTR [rbp-0x3f0]
7067:	4c 8b 85 28 fc ff ff 	mov    r8,QWORD PTR [rbp-0x3d8]
706e:	4c 89 d6             	mov    rsi,r10
7071:	48 c7 c1 ff ff ff ff 	mov    rcx,0xffffffffffffffff
7078:	ba 01 00 00 00       	mov    edx,0x1
707d:	b8 01 00 00 00       	mov    eax,0x1
7082:	4c 89 95 d0 fb ff ff 	mov    QWORD PTR [rbp-0x430],r10
7089:	e8 82 a6 ff ff       	call   1710 <__snprintf_chk@plt>
708e:	4c 8b 95 d0 fb ff ff 	mov    r10,QWORD PTR [rbp-0x430]
7095:	e9 1c f9 ff ff       	jmp    69b6 <vasnprintf+0x5c6>
709a:	66 0f 1f 44 00 00    	nop    WORD PTR [rax+rax*1+0x0]
70a0:	48 83 ec 10          	sub    rsp,0x10
70a4:	4c 8b 8d 10 fc ff ff 	mov    r9,QWORD PTR [rbp-0x3f0]
70ab:	db 3c 24             	fstp   TBYTE PTR [rsp]
70ae:	e9 d6 f8 ff ff       	jmp    6989 <vasnprintf+0x599>
70b3:	0f 1f 44 00 00       	nop    DWORD PTR [rax+rax*1+0x0]
70b8:	0f 88 97 f4 ff ff    	js     6555 <vasnprintf+0x165>
70be:	4d 01 e4             	add    r12,r12
70c1:	49 39 c4             	cmp    r12,rax
70c4:	0f 83 df f7 ff ff    	jae    68a9 <vasnprintf+0x4b9>
70ca:	66 0f 1f 44 00 00    	nop    WORD PTR [rax+rax*1+0x0]
70d0:	48 85 d2             	test   rdx,rdx
70d3:	0f 85 7c f4 ff ff    	jne    6555 <vasnprintf+0x165>
70d9:	48 83 f8 ff          	cmp    rax,0xffffffffffffffff
70dd:	0f 84 72 f4 ff ff    	je     6555 <vasnprintf+0x165>
70e3:	4c 3b bd 18 fc ff ff 	cmp    r15,QWORD PTR [rbp-0x3e8]
70ea:	49 89 c4             	mov    r12,rax
70ed:	0f 94 c2             	sete   dl
70f0:	4d 85 ff             	test   r15,r15
70f3:	0f 85 c3 f7 ff ff    	jne    68bc <vasnprintf+0x4cc>
70f9:	0f 1f 80 00 00 00 00 	nop    DWORD PTR [rax+0x0]
7100:	4c 89 e7             	mov    rdi,r12
7103:	88 95 38 fc ff ff    	mov    BYTE PTR [rbp-0x3c8],dl
7109:	e8 22 a8 ff ff       	call   1930 <malloc@plt>
710e:	48 85 c0             	test   rax,rax
7111:	48 89 c1             	mov    rcx,rax
7114:	0f b6 95 38 fc ff ff 	movzx  edx,BYTE PTR [rbp-0x3c8]
711b:	0f 84 34 f4 ff ff    	je     6555 <vasnprintf+0x165>
7121:	4d 85 f6             	test   r14,r14
7124:	0f 84 96 01 00 00    	je     72c0 <vasnprintf+0xed0>
712a:	84 d2                	test   dl,dl
712c:	0f 84 8e 01 00 00    	je     72c0 <vasnprintf+0xed0>
7132:	4c 89 fe             	mov    rsi,r15
7135:	4c 89 f2             	mov    rdx,r14
7138:	48 89 c7             	mov    rdi,rax
713b:	e8 c0 a7 ff ff       	call   1900 <memcpy@plt>
7140:	49 89 c7             	mov    r15,rax
7143:	e9 93 f7 ff ff       	jmp    68db <vasnprintf+0x4eb>
7148:	0f 1f 84 00 00 00 00 	nop    DWORD PTR [rax+rax*1+0x0]
714f:	00
7150:	c6 03 4c             	mov    BYTE PTR [rbx],0x4c
7153:	48 83 c3 01          	add    rbx,0x1
7157:	e9 af f6 ff ff       	jmp    680b <vasnprintf+0x41b>
715c:	0f 1f 40 00          	nop    DWORD PTR [rax+0x0]
7160:	44 88 30             	mov    BYTE PTR [rax],r14b
7163:	4c 89 f3             	mov    rbx,r14
7166:	e9 19 fd ff ff       	jmp    6e84 <vasnprintf+0xa94>
716b:	0f 1f 44 00 00       	nop    DWORD PTR [rax+rax*1+0x0]
7170:	44 89 30             	mov    DWORD PTR [rax],r14d
7173:	4c 89 f3             	mov    rbx,r14
7176:	e9 09 fd ff ff       	jmp    6e84 <vasnprintf+0xa94>
717b:	0f 1f 44 00 00       	nop    DWORD PTR [rax+rax*1+0x0]
7180:	66 44 89 30          	mov    WORD PTR [rax],r14w
7184:	4c 89 f3             	mov    rbx,r14
7187:	e9 f8 fc ff ff       	jmp    6e84 <vasnprintf+0xa94>
718c:	0f 1f 40 00          	nop    DWORD PTR [rax+0x0]
7190:	4c 89 e7             	mov    rdi,r12
7193:	88 95 38 fc ff ff    	mov    BYTE PTR [rbp-0x3c8],dl
7199:	e8 92 a7 ff ff       	call   1930 <malloc@plt>
719e:	48 85 c0             	test   rax,rax
71a1:	48 89 c1             	mov    rcx,rax
71a4:	0f b6 95 38 fc ff ff 	movzx  edx,BYTE PTR [rbp-0x3c8]
71ab:	0f 84 a4 f3 ff ff    	je     6555 <vasnprintf+0x165>
71b1:	4d 85 f6             	test   r14,r14
71b4:	0f 84 3a 01 00 00    	je     72f4 <vasnprintf+0xf04>
71ba:	84 d2                	test   dl,dl
71bc:	0f 84 32 01 00 00    	je     72f4 <vasnprintf+0xf04>
71c2:	4c 89 fe             	mov    rsi,r15
71c5:	4c 89 f2             	mov    rdx,r14
71c8:	48 89 c7             	mov    rdi,rax
71cb:	e8 30 a7 ff ff       	call   1900 <memcpy@plt>
71d0:	49 89 c7             	mov    r15,rax
71d3:	e9 a7 fc ff ff       	jmp    6e7f <vasnprintf+0xa8f>
71d8:	0f 1f 84 00 00 00 00 	nop    DWORD PTR [rax+rax*1+0x0]
71df:	00
71e0:	4d 89 cf             	mov    r15,r9
71e3:	e9 ac f4 ff ff       	jmp    6694 <vasnprintf+0x2a4>
71e8:	0f 1f 84 00 00 00 00 	nop    DWORD PTR [rax+rax*1+0x0]
71ef:	00
71f0:	48 83 ec 08          	sub    rsp,0x8
71f4:	ff b5 10 fc ff ff    	push   QWORD PTR [rbp-0x3f0]
71fa:	e9 76 fa ff ff       	jmp    6c75 <vasnprintf+0x885>
71ff:	90                   	nop
7200:	48 83 ec 08          	sub    rsp,0x8
7204:	ff b5 10 fc ff ff    	push   QWORD PTR [rbp-0x3f0]
720a:	48 83 ec 10          	sub    rsp,0x10
720e:	db 3c 24             	fstp   TBYTE PTR [rsp]
7211:	e9 25 fb ff ff       	jmp    6d3b <vasnprintf+0x94b>
7216:	66 2e 0f 1f 84 00 00 	nop    WORD PTR cs:[rax+rax*1+0x0]
721d:	00 00 00
7220:	48 8b 85 38 fc ff ff 	mov    rax,QWORD PTR [rbp-0x3c8]
7227:	8b bd dc fb ff ff    	mov    edi,DWORD PTR [rbp-0x424]
722d:	48 63 d9             	movsxd rbx,ecx
7230:	4c 01 f3             	add    rbx,r14
7233:	89 38                	mov    DWORD PTR [rax],edi
7235:	e9 4a fc ff ff       	jmp    6e84 <vasnprintf+0xa94>
723a:	66 0f 1f 44 00 00    	nop    WORD PTR [rax+rax*1+0x0]
7240:	4c 3b bd 18 fc ff ff 	cmp    r15,QWORD PTR [rbp-0x3e8]
7247:	74 09                	je     7252 <vasnprintf+0xe62>
7249:	4d 85 ff             	test   r15,r15
724c:	0f 85 b7 00 00 00    	jne    7309 <vasnprintf+0xf19>
7252:	48 8b 85 e0 fb ff ff 	mov    rax,QWORD PTR [rbp-0x420]
7259:	48 85 c0             	test   rax,rax
725c:	74 08                	je     7266 <vasnprintf+0xe76>
725e:	48 89 c7             	mov    rdi,rax
7261:	e8 ca a4 ff ff       	call   1730 <free@plt>
7266:	48 8b 85 f8 fb ff ff 	mov    rax,QWORD PTR [rbp-0x408]
726d:	48 8b bd 48 fd ff ff 	mov    rdi,QWORD PTR [rbp-0x2b8]
7274:	48 83 c0 20          	add    rax,0x20
7278:	48 39 c7             	cmp    rdi,rax
727b:	74 05                	je     7282 <vasnprintf+0xe92>
727d:	e8 ae a4 ff ff       	call   1730 <free@plt>
7282:	48 8b 85 f0 fb ff ff 	mov    rax,QWORD PTR [rbp-0x410]
7289:	48 8b bd 58 fc ff ff 	mov    rdi,QWORD PTR [rbp-0x3a8]
7290:	48 83 c0 10          	add    rax,0x10
7294:	48 39 c7             	cmp    rdi,rax
7297:	74 05                	je     729e <vasnprintf+0xeae>
7299:	e8 92 a4 ff ff       	call   1730 <free@plt>
729e:	48 8b 85 38 fc ff ff 	mov    rax,QWORD PTR [rbp-0x3c8]
72a5:	45 31 ff             	xor    r15d,r15d
72a8:	c7 00 4b 00 00 00    	mov    DWORD PTR [rax],0x4b
72ae:	e9 1c f3 ff ff       	jmp    65cf <vasnprintf+0x1df>
72b3:	0f 1f 44 00 00       	nop    DWORD PTR [rax+rax*1+0x0]
72b8:	45 31 ff             	xor    r15d,r15d
72bb:	e9 0f f3 ff ff       	jmp    65cf <vasnprintf+0x1df>
72c0:	49 89 cf             	mov    r15,rcx
72c3:	e9 13 f6 ff ff       	jmp    68db <vasnprintf+0x4eb>
72c8:	0f 1f 84 00 00 00 00 	nop    DWORD PTR [rax+rax*1+0x0]
72cf:	00
72d0:	0f 88 7f f2 ff ff    	js     6555 <vasnprintf+0x165>
72d6:	4d 01 e4             	add    r12,r12
72d9:	49 39 c4             	cmp    r12,rax
72dc:	0f 83 34 fc ff ff    	jae    6f16 <vasnprintf+0xb26>
72e2:	48 83 f8 ff          	cmp    rax,0xffffffffffffffff
72e6:	0f 84 69 f2 ff ff    	je     6555 <vasnprintf+0x165>
72ec:	49 89 c4             	mov    r12,rax
72ef:	e9 22 fc ff ff       	jmp    6f16 <vasnprintf+0xb26>
72f4:	49 89 cf             	mov    r15,rcx
72f7:	e9 83 fb ff ff       	jmp    6e7f <vasnprintf+0xa8f>
72fc:	4c 89 ff             	mov    rdi,r15
72ff:	e8 2c a4 ff ff       	call   1730 <free@plt>
7304:	e9 49 f8 ff ff       	jmp    6b52 <vasnprintf+0x762>
7309:	4c 89 ff             	mov    rdi,r15
730c:	e8 1f a4 ff ff       	call   1730 <free@plt>
7311:	e9 3c ff ff ff       	jmp    7252 <vasnprintf+0xe62>
7316:	e8 25 a4 ff ff       	call   1740 <abort@plt>
731b:	0f 1f 44 00 00       	nop    DWORD PTR [rax+rax*1+0x0]
7320:	48 8b 85 f8 fb ff ff 	mov    rax,QWORD PTR [rbp-0x408]
7327:	48 8b bd 48 fd ff ff 	mov    rdi,QWORD PTR [rbp-0x2b8]
732e:	48 83 c0 20          	add    rax,0x20
7332:	48 39 c7             	cmp    rdi,rax
7335:	74 05                	je     733c <vasnprintf+0xf4c>
7337:	e8 f4 a3 ff ff       	call   1730 <free@plt>
733c:	48 8b 85 f0 fb ff ff 	mov    rax,QWORD PTR [rbp-0x410]
7343:	48 8b bd 58 fc ff ff 	mov    rdi,QWORD PTR [rbp-0x3a8]
734a:	48 83 c0 10          	add    rax,0x10
734e:	48 39 c7             	cmp    rdi,rax
7351:	74 05                	je     7358 <vasnprintf+0xf68>
7353:	e8 d8 a3 ff ff       	call   1730 <free@plt>
7358:	e8 f3 a3 ff ff       	call   1750 <__errno_location@plt>
735d:	45 31 ff             	xor    r15d,r15d
7360:	c7 00 16 00 00 00    	mov    DWORD PTR [rax],0x16
7366:	e9 64 f2 ff ff       	jmp    65cf <vasnprintf+0x1df>
736b:	4c 89 f3             	mov    rbx,r14
736e:	31 c0                	xor    eax,eax
7370:	48 83 c3 01          	add    rbx,0x1
7374:	0f 82 06 01 00 00    	jb     7480 <vasnprintf+0x1090>
737a:	49 39 dc             	cmp    r12,rbx
737d:	73 4d                	jae    73cc <vasnprintf+0xfdc>
737f:	4d 85 e4             	test   r12,r12
7382:	0f 85 31 01 00 00    	jne    74b9 <vasnprintf+0x10c9>
7388:	48 83 fb 0c          	cmp    rbx,0xc
738c:	0f 87 0c 01 00 00    	ja     749e <vasnprintf+0x10ae>
7392:	41 bc 0c 00 00 00    	mov    r12d,0xc
7398:	4c 3b bd 18 fc ff ff 	cmp    r15,QWORD PTR [rbp-0x3e8]
739f:	41 0f 94 c5          	sete   r13b
73a3:	4d 85 ff             	test   r15,r15
73a6:	0f 84 a0 00 00 00    	je     744c <vasnprintf+0x105c>
73ac:	45 84 ed             	test   r13b,r13b
73af:	0f 85 97 00 00 00    	jne    744c <vasnprintf+0x105c>
73b5:	4c 89 e6             	mov    rsi,r12
73b8:	4c 89 ff             	mov    rdi,r15
73bb:	e8 00 a6 ff ff       	call   19c0 <realloc@plt>
73c0:	48 85 c0             	test   rax,rax
73c3:	0f 84 72 fc ff ff    	je     703b <vasnprintf+0xc4b>
73c9:	49 89 c7             	mov    r15,rax
73cc:	4c 3b bd 18 fc ff ff 	cmp    r15,QWORD PTR [rbp-0x3e8]
73d3:	43 c6 04 37 00       	mov    BYTE PTR [r15+r14*1],0x0
73d8:	74 17                	je     73f1 <vasnprintf+0x1001>
73da:	49 39 dc             	cmp    r12,rbx
73dd:	76 12                	jbe    73f1 <vasnprintf+0x1001>
73df:	4c 89 ff             	mov    rdi,r15
73e2:	48 89 de             	mov    rsi,rbx
73e5:	e8 d6 a5 ff ff       	call   19c0 <realloc@plt>
73ea:	48 85 c0             	test   rax,rax
73ed:	4c 0f 45 f8          	cmovne r15,rax
73f1:	48 8b 85 e0 fb ff ff 	mov    rax,QWORD PTR [rbp-0x420]
73f8:	48 85 c0             	test   rax,rax
73fb:	74 08                	je     7405 <vasnprintf+0x1015>
73fd:	48 89 c7             	mov    rdi,rax
7400:	e8 2b a3 ff ff       	call   1730 <free@plt>
7405:	48 8b 85 f8 fb ff ff 	mov    rax,QWORD PTR [rbp-0x408]
740c:	48 8b bd 48 fd ff ff 	mov    rdi,QWORD PTR [rbp-0x2b8]
7413:	48 83 c0 20          	add    rax,0x20
7417:	48 39 c7             	cmp    rdi,rax
741a:	74 05                	je     7421 <vasnprintf+0x1031>
741c:	e8 0f a3 ff ff       	call   1730 <free@plt>
7421:	48 8b 85 f0 fb ff ff 	mov    rax,QWORD PTR [rbp-0x410]
7428:	48 8b bd 58 fc ff ff 	mov    rdi,QWORD PTR [rbp-0x3a8]
742f:	48 83 c0 10          	add    rax,0x10
7433:	48 39 c7             	cmp    rdi,rax
7436:	74 05                	je     743d <vasnprintf+0x104d>
7438:	e8 f3 a2 ff ff       	call   1730 <free@plt>
743d:	48 8b 85 e8 fb ff ff 	mov    rax,QWORD PTR [rbp-0x418]
7444:	4c 89 30             	mov    QWORD PTR [rax],r14
7447:	e9 83 f1 ff ff       	jmp    65cf <vasnprintf+0x1df>
744c:	4c 89 e7             	mov    rdi,r12
744f:	e8 dc a4 ff ff       	call   1930 <malloc@plt>
7454:	48 85 c0             	test   rax,rax
7457:	48 89 c1             	mov    rcx,rax
745a:	0f 84 f5 f0 ff ff    	je     6555 <vasnprintf+0x165>
7460:	4d 85 f6             	test   r14,r14
7463:	74 6b                	je     74d0 <vasnprintf+0x10e0>
7465:	45 84 ed             	test   r13b,r13b
7468:	74 66                	je     74d0 <vasnprintf+0x10e0>
746a:	4c 89 fe             	mov    rsi,r15
746d:	4c 89 f2             	mov    rdx,r14
7470:	48 89 c7             	mov    rdi,rax
7473:	e8 88 a4 ff ff       	call   1900 <memcpy@plt>
7478:	49 89 c7             	mov    r15,rax
747b:	e9 4c ff ff ff       	jmp    73cc <vasnprintf+0xfdc>
7480:	49 83 fc ff          	cmp    r12,0xffffffffffffffff
7484:	b8 01 00 00 00       	mov    eax,0x1
7489:	0f 84 3d ff ff ff    	je     73cc <vasnprintf+0xfdc>
748f:	4d 85 e4             	test   r12,r12
7492:	0f 84 bd f0 ff ff    	je     6555 <vasnprintf+0x165>
7498:	0f 88 b7 f0 ff ff    	js     6555 <vasnprintf+0x165>
749e:	48 85 c0             	test   rax,rax
74a1:	0f 85 ae f0 ff ff    	jne    6555 <vasnprintf+0x165>
74a7:	48 83 fb ff          	cmp    rbx,0xffffffffffffffff
74ab:	0f 84 a4 f0 ff ff    	je     6555 <vasnprintf+0x165>
74b1:	49 89 dc             	mov    r12,rbx
74b4:	e9 df fe ff ff       	jmp    7398 <vasnprintf+0xfa8>
74b9:	0f 88 96 f0 ff ff    	js     6555 <vasnprintf+0x165>
74bf:	4d 01 e4             	add    r12,r12
74c2:	49 39 dc             	cmp    r12,rbx
74c5:	0f 83 cd fe ff ff    	jae    7398 <vasnprintf+0xfa8>
74cb:	eb d1                	jmp    749e <vasnprintf+0x10ae>
74cd:	0f 1f 00             	nop    DWORD PTR [rax]
74d0:	49 89 cf             	mov    r15,rcx
74d3:	e9 f4 fe ff ff       	jmp    73cc <vasnprintf+0xfdc>
74d8:	49 83 fc ff          	cmp    r12,0xffffffffffffffff
74dc:	0f 84 1e f4 ff ff    	je     6900 <vasnprintf+0x510>
74e2:	e9 7a f0 ff ff       	jmp    6561 <vasnprintf+0x171>
74e7:	e8 44 a3 ff ff       	call   1830 <__stack_chk_fail@plt>
74ec:	49 83 fc ff          	cmp    r12,0xffffffffffffffff
74f0:	ba 01 00 00 00       	mov    edx,0x1
74f5:	0f 84 e0 f3 ff ff    	je     68db <vasnprintf+0x4eb>
74fb:	4d 85 e4             	test   r12,r12
74fe:	0f 84 51 f0 ff ff    	je     6555 <vasnprintf+0x165>
7504:	0f 89 c6 fb ff ff    	jns    70d0 <vasnprintf+0xce0>
750a:	e9 46 f0 ff ff       	jmp    6555 <vasnprintf+0x165>
750f:	90                   	nop

0000000000007510 <dup_safer>:
7510:	ba 03 00 00 00       	mov    edx,0x3
7515:	31 f6                	xor    esi,esi
7517:	31 c0                	xor    eax,eax
7519:	e9 02 00 00 00       	jmp    7520 <rpl_fcntl>
751e:	66 90                	xchg   ax,ax

0000000000007520 <rpl_fcntl>:
7520:	41 54                	push   r12
7522:	55                   	push   rbp
7523:	89 fd                	mov    ebp,edi
7525:	53                   	push   rbx
7526:	48 83 ec 50          	sub    rsp,0x50
752a:	64 48 8b 04 25 28 00 	mov    rax,QWORD PTR fs:0x28
7531:	00 00
7533:	48 89 44 24 18       	mov    QWORD PTR [rsp+0x18],rax
7538:	31 c0                	xor    eax,eax
753a:	48 8d 44 24 70       	lea    rax,[rsp+0x70]
753f:	85 f6                	test   esi,esi
7541:	48 89 54 24 30       	mov    QWORD PTR [rsp+0x30],rdx
7546:	48 89 4c 24 38       	mov    QWORD PTR [rsp+0x38],rcx
754b:	4c 89 44 24 40       	mov    QWORD PTR [rsp+0x40],r8
7550:	48 89 44 24 08       	mov    QWORD PTR [rsp+0x8],rax
7555:	48 8d 44 24 20       	lea    rax,[rsp+0x20]
755a:	4c 89 4c 24 48       	mov    QWORD PTR [rsp+0x48],r9
755f:	c7 04 24 10 00 00 00 	mov    DWORD PTR [rsp],0x10
7566:	48 89 44 24 10       	mov    QWORD PTR [rsp+0x10],rax
756b:	0f 84 01 02 00 00    	je     7772 <rpl_fcntl+0x252>
7571:	81 fe 06 04 00 00    	cmp    esi,0x406
7577:	75 47                	jne    75c0 <rpl_fcntl+0xa0>
7579:	48 8b 44 24 10       	mov    rax,QWORD PTR [rsp+0x10]
757e:	83 3d b3 4c 20 00 00 	cmp    DWORD PTR [rip+0x204cb3],0x0        # 20c238 <have_dupfd_cloexec.3326>
7585:	c7 04 24 18 00 00 00 	mov    DWORD PTR [rsp],0x18
758c:	44 8b 60 10          	mov    r12d,DWORD PTR [rax+0x10]
7590:	44 89 e2             	mov    edx,r12d
7593:	0f 88 2a 01 00 00    	js     76c3 <rpl_fcntl+0x1a3>
7599:	31 c0                	xor    eax,eax
759b:	be 06 04 00 00       	mov    esi,0x406
75a0:	e8 fb a1 ff ff       	call   17a0 <fcntl@plt>
75a5:	85 c0                	test   eax,eax
75a7:	89 c3                	mov    ebx,eax
75a9:	0f 88 89 01 00 00    	js     7738 <rpl_fcntl+0x218>
75af:	c7 05 7f 4c 20 00 01 	mov    DWORD PTR [rip+0x204c7f],0x1        # 20c238 <have_dupfd_cloexec.3326>
75b6:	00 00 00
75b9:	eb 45                	jmp    7600 <rpl_fcntl+0xe0>
75bb:	0f 1f 44 00 00       	nop    DWORD PTR [rax+rax*1+0x0]
75c0:	83 fe 0b             	cmp    esi,0xb
75c3:	74 2b                	je     75f0 <rpl_fcntl+0xd0>
75c5:	7f 59                	jg     7620 <rpl_fcntl+0x100>
75c7:	83 fe 04             	cmp    esi,0x4
75ca:	0f 84 d0 00 00 00    	je     76a0 <rpl_fcntl+0x180>
75d0:	0f 8f ba 00 00 00    	jg     7690 <rpl_fcntl+0x170>
75d6:	83 fe 02             	cmp    esi,0x2
75d9:	0f 84 c1 00 00 00    	je     76a0 <rpl_fcntl+0x180>
75df:	7f 0f                	jg     75f0 <rpl_fcntl+0xd0>
75e1:	83 fe 01             	cmp    esi,0x1
75e4:	75 62                	jne    7648 <rpl_fcntl+0x128>
75e6:	66 2e 0f 1f 84 00 00 	nop    WORD PTR cs:[rax+rax*1+0x0]
75ed:	00 00 00
75f0:	89 ef                	mov    edi,ebp
75f2:	31 c0                	xor    eax,eax
75f4:	e8 a7 a1 ff ff       	call   17a0 <fcntl@plt>
75f9:	89 c3                	mov    ebx,eax
75fb:	0f 1f 44 00 00       	nop    DWORD PTR [rax+rax*1+0x0]
7600:	48 8b 4c 24 18       	mov    rcx,QWORD PTR [rsp+0x18]
7605:	64 48 33 0c 25 28 00 	xor    rcx,QWORD PTR fs:0x28
760c:	00 00
760e:	89 d8                	mov    eax,ebx
7610:	0f 85 57 01 00 00    	jne    776d <rpl_fcntl+0x24d>
7616:	48 83 c4 50          	add    rsp,0x50
761a:	5b                   	pop    rbx
761b:	5d                   	pop    rbp
761c:	41 5c                	pop    r12
761e:	c3                   	ret
761f:	90                   	nop
7620:	81 fe 07 04 00 00    	cmp    esi,0x407
7626:	7f 48                	jg     7670 <rpl_fcntl+0x150>
7628:	81 fe 06 04 00 00    	cmp    esi,0x406
762e:	7d 70                	jge    76a0 <rpl_fcntl+0x180>
7630:	81 fe 01 04 00 00    	cmp    esi,0x401
7636:	74 b8                	je     75f0 <rpl_fcntl+0xd0>
7638:	81 fe 02 04 00 00    	cmp    esi,0x402
763e:	74 60                	je     76a0 <rpl_fcntl+0x180>
7640:	81 fe 00 04 00 00    	cmp    esi,0x400
7646:	74 58                	je     76a0 <rpl_fcntl+0x180>
7648:	8b 04 24             	mov    eax,DWORD PTR [rsp]
764b:	83 f8 2f             	cmp    eax,0x2f
764e:	0f 87 36 01 00 00    	ja     778a <rpl_fcntl+0x26a>
7654:	48 03 44 24 10       	add    rax,QWORD PTR [rsp+0x10]
7659:	48 8b 10             	mov    rdx,QWORD PTR [rax]
765c:	89 ef                	mov    edi,ebp
765e:	31 c0                	xor    eax,eax
7660:	e8 3b a1 ff ff       	call   17a0 <fcntl@plt>
7665:	89 c3                	mov    ebx,eax
7667:	eb 97                	jmp    7600 <rpl_fcntl+0xe0>
7669:	0f 1f 80 00 00 00 00 	nop    DWORD PTR [rax+0x0]
7670:	81 fe 09 04 00 00    	cmp    esi,0x409
7676:	74 28                	je     76a0 <rpl_fcntl+0x180>
7678:	0f 8c 72 ff ff ff    	jl     75f0 <rpl_fcntl+0xd0>
767e:	81 fe 0a 04 00 00    	cmp    esi,0x40a
7684:	75 c2                	jne    7648 <rpl_fcntl+0x128>
7686:	e9 65 ff ff ff       	jmp    75f0 <rpl_fcntl+0xd0>
768b:	0f 1f 44 00 00       	nop    DWORD PTR [rax+rax*1+0x0]
7690:	83 fe 09             	cmp    esi,0x9
7693:	0f 84 57 ff ff ff    	je     75f0 <rpl_fcntl+0xd0>
7699:	7f 05                	jg     76a0 <rpl_fcntl+0x180>
769b:	83 fe 08             	cmp    esi,0x8
769e:	75 a8                	jne    7648 <rpl_fcntl+0x128>
76a0:	8b 04 24             	mov    eax,DWORD PTR [rsp]
76a3:	83 f8 2f             	cmp    eax,0x2f
76a6:	0f 87 e8 00 00 00    	ja     7794 <rpl_fcntl+0x274>
76ac:	48 03 44 24 10       	add    rax,QWORD PTR [rsp+0x10]
76b1:	8b 10                	mov    edx,DWORD PTR [rax]
76b3:	89 ef                	mov    edi,ebp
76b5:	31 c0                	xor    eax,eax
76b7:	e8 e4 a0 ff ff       	call   17a0 <fcntl@plt>
76bc:	89 c3                	mov    ebx,eax
76be:	e9 3d ff ff ff       	jmp    7600 <rpl_fcntl+0xe0>
76c3:	31 f6                	xor    esi,esi
76c5:	31 c0                	xor    eax,eax
76c7:	e8 d4 a0 ff ff       	call   17a0 <fcntl@plt>
76cc:	85 c0                	test   eax,eax
76ce:	89 c3                	mov    ebx,eax
76d0:	0f 88 2a ff ff ff    	js     7600 <rpl_fcntl+0xe0>
76d6:	83 3d 5b 4b 20 00 ff 	cmp    DWORD PTR [rip+0x204b5b],0xffffffff        # 20c238 <have_dupfd_cloexec.3326>
76dd:	0f 85 1d ff ff ff    	jne    7600 <rpl_fcntl+0xe0>
76e3:	31 c0                	xor    eax,eax
76e5:	be 01 00 00 00       	mov    esi,0x1
76ea:	89 df                	mov    edi,ebx
76ec:	e8 af a0 ff ff       	call   17a0 <fcntl@plt>
76f1:	85 c0                	test   eax,eax
76f3:	78 1c                	js     7711 <rpl_fcntl+0x1f1>
76f5:	83 c8 01             	or     eax,0x1
76f8:	be 02 00 00 00       	mov    esi,0x2
76fd:	89 df                	mov    edi,ebx
76ff:	89 c2                	mov    edx,eax
7701:	31 c0                	xor    eax,eax
7703:	e8 98 a0 ff ff       	call   17a0 <fcntl@plt>
7708:	83 f8 ff             	cmp    eax,0xffffffff
770b:	0f 85 ef fe ff ff    	jne    7600 <rpl_fcntl+0xe0>
7711:	e8 3a a0 ff ff       	call   1750 <__errno_location@plt>
7716:	44 8b 20             	mov    r12d,DWORD PTR [rax]
7719:	48 89 c5             	mov    rbp,rax
771c:	89 df                	mov    edi,ebx
771e:	e8 8d a1 ff ff       	call   18b0 <close@plt>
7723:	bb ff ff ff ff       	mov    ebx,0xffffffff
7728:	44 89 65 00          	mov    DWORD PTR [rbp+0x0],r12d
772c:	e9 cf fe ff ff       	jmp    7600 <rpl_fcntl+0xe0>
7731:	0f 1f 80 00 00 00 00 	nop    DWORD PTR [rax+0x0]
7738:	e8 13 a0 ff ff       	call   1750 <__errno_location@plt>
773d:	83 38 16             	cmp    DWORD PTR [rax],0x16
7740:	0f 85 69 fe ff ff    	jne    75af <rpl_fcntl+0x8f>
7746:	31 f6                	xor    esi,esi
7748:	31 c0                	xor    eax,eax
774a:	44 89 e2             	mov    edx,r12d
774d:	89 ef                	mov    edi,ebp
774f:	e8 4c a0 ff ff       	call   17a0 <fcntl@plt>
7754:	85 c0                	test   eax,eax
7756:	89 c3                	mov    ebx,eax
7758:	0f 88 a2 fe ff ff    	js     7600 <rpl_fcntl+0xe0>
775e:	c7 05 d0 4a 20 00 ff 	mov    DWORD PTR [rip+0x204ad0],0xffffffff        # 20c238 <have_dupfd_cloexec.3326>
7765:	ff ff ff
7768:	e9 76 ff ff ff       	jmp    76e3 <rpl_fcntl+0x1c3>
776d:	e8 be a0 ff ff       	call   1830 <__stack_chk_fail@plt>
7772:	48 8b 44 24 10       	mov    rax,QWORD PTR [rsp+0x10]
7777:	31 f6                	xor    esi,esi
7779:	8b 50 10             	mov    edx,DWORD PTR [rax+0x10]
777c:	31 c0                	xor    eax,eax
777e:	e8 1d a0 ff ff       	call   17a0 <fcntl@plt>
7783:	89 c3                	mov    ebx,eax
7785:	e9 76 fe ff ff       	jmp    7600 <rpl_fcntl+0xe0>
778a:	48 8b 44 24 08       	mov    rax,QWORD PTR [rsp+0x8]
778f:	e9 c5 fe ff ff       	jmp    7659 <rpl_fcntl+0x139>
7794:	48 8b 44 24 08       	mov    rax,QWORD PTR [rsp+0x8]
7799:	e9 13 ff ff ff       	jmp    76b1 <rpl_fcntl+0x191>
779e:	66 90                	xchg   ax,ax

00000000000077a0 <printf_fetchargs>:
77a0:	48 83 3e 00          	cmp    QWORD PTR [rsi],0x0
77a4:	48 8b 46 08          	mov    rax,QWORD PTR [rsi+0x8]
77a8:	74 63                	je     780d <printf_fetchargs+0x6d>
77aa:	4c 8d 05 ef 1f 00 00 	lea    r8,[rip+0x1fef]        # 97a0 <version_etc_copyright+0xc0>
77b1:	4c 8d 15 48 20 00 00 	lea    r10,[rip+0x2048]        # 9800 <wide_null_string.2696>
77b8:	4c 8d 0d cd 1f 00 00 	lea    r9,[rip+0x1fcd]        # 978c <version_etc_copyright+0xac>
77bf:	31 c9                	xor    ecx,ecx
77c1:	0f 1f 80 00 00 00 00 	nop    DWORD PTR [rax+0x0]
77c8:	83 38 16             	cmp    DWORD PTR [rax],0x16
77cb:	77 43                	ja     7810 <printf_fetchargs+0x70>
77cd:	8b 10                	mov    edx,DWORD PTR [rax]
77cf:	49 63 14 90          	movsxd rdx,DWORD PTR [r8+rdx*4]
77d3:	4c 01 c2             	add    rdx,r8
77d6:	ff e2                	jmp    rdx
77d8:	0f 1f 84 00 00 00 00 	nop    DWORD PTR [rax+rax*1+0x0]
77df:	00
77e0:	48 8b 57 08          	mov    rdx,QWORD PTR [rdi+0x8]
77e4:	48 83 c2 0f          	add    rdx,0xf
77e8:	48 83 e2 f0          	and    rdx,0xfffffffffffffff0
77ec:	4c 8d 5a 10          	lea    r11,[rdx+0x10]
77f0:	4c 89 5f 08          	mov    QWORD PTR [rdi+0x8],r11
77f4:	db 2a                	fld    TBYTE PTR [rdx]
77f6:	db 78 10             	fstp   TBYTE PTR [rax+0x10]
77f9:	0f 1f 80 00 00 00 00 	nop    DWORD PTR [rax+0x0]
7800:	48 83 c1 01          	add    rcx,0x1
7804:	48 83 c0 20          	add    rax,0x20
7808:	48 39 0e             	cmp    QWORD PTR [rsi],rcx
780b:	77 bb                	ja     77c8 <printf_fetchargs+0x28>
780d:	31 c0                	xor    eax,eax
780f:	c3                   	ret
7810:	b8 ff ff ff ff       	mov    eax,0xffffffff
7815:	c3                   	ret
7816:	44 8b 1f             	mov    r11d,DWORD PTR [rdi]
7819:	41 83 fb 2f          	cmp    r11d,0x2f
781d:	0f 87 37 01 00 00    	ja     795a <printf_fetchargs+0x1ba>
7823:	44 89 da             	mov    edx,r11d
7826:	48 03 57 10          	add    rdx,QWORD PTR [rdi+0x10]
782a:	41 83 c3 08          	add    r11d,0x8
782e:	44 89 1f             	mov    DWORD PTR [rdi],r11d
7831:	48 8b 12             	mov    rdx,QWORD PTR [rdx]
7834:	48 89 50 10          	mov    QWORD PTR [rax+0x10],rdx
7838:	eb c6                	jmp    7800 <printf_fetchargs+0x60>
783a:	44 8b 1f             	mov    r11d,DWORD PTR [rdi]
783d:	41 83 fb 2f          	cmp    r11d,0x2f
7841:	0f 87 35 01 00 00    	ja     797c <printf_fetchargs+0x1dc>
7847:	44 89 da             	mov    edx,r11d
784a:	48 03 57 10          	add    rdx,QWORD PTR [rdi+0x10]
784e:	41 83 c3 08          	add    r11d,0x8
7852:	44 89 1f             	mov    DWORD PTR [rdi],r11d
7855:	8b 12                	mov    edx,DWORD PTR [rdx]
7857:	89 50 10             	mov    DWORD PTR [rax+0x10],edx
785a:	eb a4                	jmp    7800 <printf_fetchargs+0x60>
785c:	44 8b 1f             	mov    r11d,DWORD PTR [rdi]
785f:	41 83 fb 2f          	cmp    r11d,0x2f
7863:	0f 87 02 01 00 00    	ja     796b <printf_fetchargs+0x1cb>
7869:	44 89 da             	mov    edx,r11d
786c:	48 03 57 10          	add    rdx,QWORD PTR [rdi+0x10]
7870:	41 83 c3 08          	add    r11d,0x8
7874:	44 89 1f             	mov    DWORD PTR [rdi],r11d
7877:	8b 12                	mov    edx,DWORD PTR [rdx]
7879:	88 50 10             	mov    BYTE PTR [rax+0x10],dl
787c:	eb 82                	jmp    7800 <printf_fetchargs+0x60>
787e:	44 8b 1f             	mov    r11d,DWORD PTR [rdi]
7881:	41 83 fb 2f          	cmp    r11d,0x2f
7885:	0f 87 9f 00 00 00    	ja     792a <printf_fetchargs+0x18a>
788b:	44 89 da             	mov    edx,r11d
788e:	48 03 57 10          	add    rdx,QWORD PTR [rdi+0x10]
7892:	41 83 c3 08          	add    r11d,0x8
7896:	44 89 1f             	mov    DWORD PTR [rdi],r11d
7899:	8b 12                	mov    edx,DWORD PTR [rdx]
789b:	66 89 50 10          	mov    WORD PTR [rax+0x10],dx
789f:	e9 5c ff ff ff       	jmp    7800 <printf_fetchargs+0x60>
78a4:	44 8b 1f             	mov    r11d,DWORD PTR [rdi]
78a7:	41 83 fb 2f          	cmp    r11d,0x2f
78ab:	0f 87 8a 00 00 00    	ja     793b <printf_fetchargs+0x19b>
78b1:	44 89 da             	mov    edx,r11d
78b4:	48 03 57 10          	add    rdx,QWORD PTR [rdi+0x10]
78b8:	41 83 c3 08          	add    r11d,0x8
78bc:	44 89 1f             	mov    DWORD PTR [rdi],r11d
78bf:	48 8b 12             	mov    rdx,QWORD PTR [rdx]
78c2:	48 85 d2             	test   rdx,rdx
78c5:	49 0f 44 d1          	cmove  rdx,r9
78c9:	48 89 50 10          	mov    QWORD PTR [rax+0x10],rdx
78cd:	e9 2e ff ff ff       	jmp    7800 <printf_fetchargs+0x60>
78d2:	44 8b 5f 04          	mov    r11d,DWORD PTR [rdi+0x4]
78d6:	41 81 fb af 00 00 00 	cmp    r11d,0xaf
78dd:	0f 87 aa 00 00 00    	ja     798d <printf_fetchargs+0x1ed>
78e3:	44 89 da             	mov    edx,r11d
78e6:	48 03 57 10          	add    rdx,QWORD PTR [rdi+0x10]
78ea:	41 83 c3 10          	add    r11d,0x10
78ee:	44 89 5f 04          	mov    DWORD PTR [rdi+0x4],r11d
78f2:	f2 0f 10 02          	movsd  xmm0,QWORD PTR [rdx]
78f6:	f2 0f 11 40 10       	movsd  QWORD PTR [rax+0x10],xmm0
78fb:	e9 00 ff ff ff       	jmp    7800 <printf_fetchargs+0x60>
7900:	44 8b 1f             	mov    r11d,DWORD PTR [rdi]
7903:	41 83 fb 2f          	cmp    r11d,0x2f
7907:	77 43                	ja     794c <printf_fetchargs+0x1ac>
7909:	44 89 da             	mov    edx,r11d
790c:	48 03 57 10          	add    rdx,QWORD PTR [rdi+0x10]
7910:	41 83 c3 08          	add    r11d,0x8
7914:	44 89 1f             	mov    DWORD PTR [rdi],r11d
7917:	48 8b 12             	mov    rdx,QWORD PTR [rdx]
791a:	48 85 d2             	test   rdx,rdx
791d:	49 0f 44 d2          	cmove  rdx,r10
7921:	48 89 50 10          	mov    QWORD PTR [rax+0x10],rdx
7925:	e9 d6 fe ff ff       	jmp    7800 <printf_fetchargs+0x60>
792a:	48 8b 57 08          	mov    rdx,QWORD PTR [rdi+0x8]
792e:	4c 8d 5a 08          	lea    r11,[rdx+0x8]
7932:	4c 89 5f 08          	mov    QWORD PTR [rdi+0x8],r11
7936:	e9 5e ff ff ff       	jmp    7899 <printf_fetchargs+0xf9>
793b:	48 8b 57 08          	mov    rdx,QWORD PTR [rdi+0x8]
793f:	4c 8d 5a 08          	lea    r11,[rdx+0x8]
7943:	4c 89 5f 08          	mov    QWORD PTR [rdi+0x8],r11
7947:	e9 73 ff ff ff       	jmp    78bf <printf_fetchargs+0x11f>
794c:	48 8b 57 08          	mov    rdx,QWORD PTR [rdi+0x8]
7950:	4c 8d 5a 08          	lea    r11,[rdx+0x8]
7954:	4c 89 5f 08          	mov    QWORD PTR [rdi+0x8],r11
7958:	eb bd                	jmp    7917 <printf_fetchargs+0x177>
795a:	48 8b 57 08          	mov    rdx,QWORD PTR [rdi+0x8]
795e:	4c 8d 5a 08          	lea    r11,[rdx+0x8]
7962:	4c 89 5f 08          	mov    QWORD PTR [rdi+0x8],r11
7966:	e9 c6 fe ff ff       	jmp    7831 <printf_fetchargs+0x91>
796b:	48 8b 57 08          	mov    rdx,QWORD PTR [rdi+0x8]
796f:	4c 8d 5a 08          	lea    r11,[rdx+0x8]
7973:	4c 89 5f 08          	mov    QWORD PTR [rdi+0x8],r11
7977:	e9 fb fe ff ff       	jmp    7877 <printf_fetchargs+0xd7>
797c:	48 8b 57 08          	mov    rdx,QWORD PTR [rdi+0x8]
7980:	4c 8d 5a 08          	lea    r11,[rdx+0x8]
7984:	4c 89 5f 08          	mov    QWORD PTR [rdi+0x8],r11
7988:	e9 c8 fe ff ff       	jmp    7855 <printf_fetchargs+0xb5>
798d:	48 8b 57 08          	mov    rdx,QWORD PTR [rdi+0x8]
7991:	4c 8d 5a 08          	lea    r11,[rdx+0x8]
7995:	4c 89 5f 08          	mov    QWORD PTR [rdi+0x8],r11
7999:	e9 54 ff ff ff       	jmp    78f2 <printf_fetchargs+0x152>
799e:	66 90                	xchg   ax,ax

00000000000079a0 <printf_parse>:
79a0:	41 57                	push   r15
79a2:	41 56                	push   r14
79a4:	48 8d 4e 20          	lea    rcx,[rsi+0x20]
79a8:	41 55                	push   r13
79aa:	41 54                	push   r12
79ac:	48 8d 42 10          	lea    rax,[rdx+0x10]
79b0:	55                   	push   rbp
79b1:	53                   	push   rbx
79b2:	49 89 f6             	mov    r14,rsi
79b5:	49 89 d7             	mov    r15,rdx
79b8:	31 db                	xor    ebx,ebx
79ba:	41 b9 07 00 00 00    	mov    r9d,0x7
79c0:	48 83 ec 58          	sub    rsp,0x58
79c4:	41 ba 07 00 00 00    	mov    r10d,0x7
79ca:	48 c7 06 00 00 00 00 	mov    QWORD PTR [rsi],0x0
79d1:	48 89 4e 08          	mov    QWORD PTR [rsi+0x8],rcx
79d5:	48 89 4c 24 28       	mov    QWORD PTR [rsp+0x28],rcx
79da:	49 c7 c0 ff ff ff ff 	mov    r8,0xffffffffffffffff
79e1:	48 c7 02 00 00 00 00 	mov    QWORD PTR [rdx],0x0
79e8:	48 89 44 24 08       	mov    QWORD PTR [rsp+0x8],rax
79ed:	48 89 42 08          	mov    QWORD PTR [rdx+0x8],rax
79f1:	48 c7 44 24 18 00 00 	mov    QWORD PTR [rsp+0x18],0x0
79f8:	00 00
79fa:	48 c7 44 24 10 00 00 	mov    QWORD PTR [rsp+0x10],0x0
7a01:	00 00
7a03:	48 c7 44 24 20 00 00 	mov    QWORD PTR [rsp+0x20],0x0
7a0a:	00 00
7a0c:	eb 0d                	jmp    7a1b <printf_parse+0x7b>
7a0e:	66 90                	xchg   ax,ax
7a10:	3c 25                	cmp    al,0x25
7a12:	48 8d 6f 01          	lea    rbp,[rdi+0x1]
7a16:	74 40                	je     7a58 <printf_parse+0xb8>
7a18:	48 89 ef             	mov    rdi,rbp
7a1b:	0f b6 07             	movzx  eax,BYTE PTR [rdi]
7a1e:	84 c0                	test   al,al
7a20:	75 ee                	jne    7a10 <printf_parse+0x70>
7a22:	48 8d 04 9b          	lea    rax,[rbx+rbx*4]
7a26:	48 8d 04 43          	lea    rax,[rbx+rax*2]
7a2a:	48 89 3c c1          	mov    QWORD PTR [rcx+rax*8],rdi
7a2e:	48 8b 44 24 10       	mov    rax,QWORD PTR [rsp+0x10]
7a33:	49 89 46 10          	mov    QWORD PTR [r14+0x10],rax
7a37:	48 8b 44 24 18       	mov    rax,QWORD PTR [rsp+0x18]
7a3c:	49 89 46 18          	mov    QWORD PTR [r14+0x18],rax
7a40:	31 c0                	xor    eax,eax
7a42:	48 83 c4 58          	add    rsp,0x58
7a46:	5b                   	pop    rbx
7a47:	5d                   	pop    rbp
7a48:	41 5c                	pop    r12
7a4a:	41 5d                	pop    r13
7a4c:	41 5e                	pop    r14
7a4e:	41 5f                	pop    r15
7a50:	c3                   	ret
7a51:	0f 1f 80 00 00 00 00 	nop    DWORD PTR [rax+0x0]
7a58:	48 8d 04 9b          	lea    rax,[rbx+rbx*4]
7a5c:	4d 89 c5             	mov    r13,r8
7a5f:	48 8d 04 43          	lea    rax,[rbx+rax*2]
7a63:	4c 8d 24 c1          	lea    r12,[rcx+rax*8]
7a67:	49 89 3c 24          	mov    QWORD PTR [r12],rdi
7a6b:	41 c7 44 24 10 00 00 	mov    DWORD PTR [r12+0x10],0x0
7a72:	00 00
7a74:	49 c7 44 24 18 00 00 	mov    QWORD PTR [r12+0x18],0x0
7a7b:	00 00
7a7d:	49 c7 44 24 20 00 00 	mov    QWORD PTR [r12+0x20],0x0
7a84:	00 00
7a86:	4d 89 44 24 28       	mov    QWORD PTR [r12+0x28],r8
7a8b:	49 c7 44 24 30 00 00 	mov    QWORD PTR [r12+0x30],0x0
7a92:	00 00
7a94:	49 c7 44 24 38 00 00 	mov    QWORD PTR [r12+0x38],0x0
7a9b:	00 00
7a9d:	4d 89 44 24 40       	mov    QWORD PTR [r12+0x40],r8
7aa2:	4d 89 44 24 50       	mov    QWORD PTR [r12+0x50],r8
7aa7:	0f b6 5f 01          	movzx  ebx,BYTE PTR [rdi+0x1]
7aab:	8d 43 d0             	lea    eax,[rbx-0x30]
7aae:	3c 09                	cmp    al,0x9
7ab0:	77 3c                	ja     7aee <printf_parse+0x14e>
7ab2:	e9 33 04 00 00       	jmp    7eea <printf_parse+0x54a>
7ab7:	66 0f 1f 84 00 00 00 	nop    WORD PTR [rax+rax*1+0x0]
7abe:	00 00
7ac0:	80 fb 2d             	cmp    bl,0x2d
7ac3:	74 43                	je     7b08 <printf_parse+0x168>
7ac5:	80 fb 2b             	cmp    bl,0x2b
7ac8:	74 46                	je     7b10 <printf_parse+0x170>
7aca:	80 fb 20             	cmp    bl,0x20
7acd:	74 51                	je     7b20 <printf_parse+0x180>
7acf:	80 fb 23             	cmp    bl,0x23
7ad2:	74 5c                	je     7b30 <printf_parse+0x190>
7ad4:	80 fb 30             	cmp    bl,0x30
7ad7:	74 67                	je     7b40 <printf_parse+0x1a0>
7ad9:	80 fb 49             	cmp    bl,0x49
7adc:	75 72                	jne    7b50 <printf_parse+0x1b0>
7ade:	41 83 4c 24 10 40    	or     DWORD PTR [r12+0x10],0x40
7ae4:	0f 1f 40 00          	nop    DWORD PTR [rax+0x0]
7ae8:	0f b6 18             	movzx  ebx,BYTE PTR [rax]
7aeb:	48 89 c5             	mov    rbp,rax
7aee:	48 8d 45 01          	lea    rax,[rbp+0x1]
7af2:	80 fb 27             	cmp    bl,0x27
7af5:	48 89 c2             	mov    rdx,rax
7af8:	75 c6                	jne    7ac0 <printf_parse+0x120>
7afa:	41 83 4c 24 10 01    	or     DWORD PTR [r12+0x10],0x1
7b00:	eb e6                	jmp    7ae8 <printf_parse+0x148>
7b02:	66 0f 1f 44 00 00    	nop    WORD PTR [rax+rax*1+0x0]
7b08:	41 83 4c 24 10 02    	or     DWORD PTR [r12+0x10],0x2
7b0e:	eb d8                	jmp    7ae8 <printf_parse+0x148>
7b10:	41 83 4c 24 10 04    	or     DWORD PTR [r12+0x10],0x4
7b16:	eb d0                	jmp    7ae8 <printf_parse+0x148>
7b18:	0f 1f 84 00 00 00 00 	nop    DWORD PTR [rax+rax*1+0x0]
7b1f:	00
7b20:	41 83 4c 24 10 08    	or     DWORD PTR [r12+0x10],0x8
7b26:	eb c0                	jmp    7ae8 <printf_parse+0x148>
7b28:	0f 1f 84 00 00 00 00 	nop    DWORD PTR [rax+rax*1+0x0]
7b2f:	00
7b30:	41 83 4c 24 10 10    	or     DWORD PTR [r12+0x10],0x10
7b36:	eb b0                	jmp    7ae8 <printf_parse+0x148>
7b38:	0f 1f 84 00 00 00 00 	nop    DWORD PTR [rax+rax*1+0x0]
7b3f:	00
7b40:	41 83 4c 24 10 20    	or     DWORD PTR [r12+0x10],0x20
7b46:	eb a0                	jmp    7ae8 <printf_parse+0x148>
7b48:	0f 1f 84 00 00 00 00 	nop    DWORD PTR [rax+rax*1+0x0]
7b4f:	00
7b50:	80 fb 2a             	cmp    bl,0x2a
7b53:	0f 84 b0 01 00 00    	je     7d09 <printf_parse+0x369>
7b59:	8d 4b d0             	lea    ecx,[rbx-0x30]
7b5c:	80 f9 09             	cmp    cl,0x9
7b5f:	0f 86 12 04 00 00    	jbe    7f77 <printf_parse+0x5d7>
7b65:	80 fb 2e             	cmp    bl,0x2e
7b68:	0f 84 d1 02 00 00    	je     7e3f <printf_parse+0x49f>
7b6e:	31 c0                	xor    eax,eax
7b70:	be 01 00 00 00       	mov    esi,0x1
7b75:	eb 30                	jmp    7ba7 <printf_parse+0x207>
7b77:	66 0f 1f 84 00 00 00 	nop    WORD PTR [rax+rax*1+0x0]
7b7e:	00 00
7b80:	80 fb 4c             	cmp    bl,0x4c
7b83:	74 3b                	je     7bc0 <printf_parse+0x220>
7b85:	80 fb 6c             	cmp    bl,0x6c
7b88:	74 16                	je     7ba0 <printf_parse+0x200>
7b8a:	80 fb 6a             	cmp    bl,0x6a
7b8d:	74 11                	je     7ba0 <printf_parse+0x200>
7b8f:	89 da                	mov    edx,ebx
7b91:	83 e2 df             	and    edx,0xffffffdf
7b94:	80 fa 5a             	cmp    dl,0x5a
7b97:	74 07                	je     7ba0 <printf_parse+0x200>
7b99:	80 fb 74             	cmp    bl,0x74
7b9c:	75 2a                	jne    7bc8 <printf_parse+0x228>
7b9e:	66 90                	xchg   ax,ax
7ba0:	83 c0 08             	add    eax,0x8
7ba3:	0f b6 5d 00          	movzx  ebx,BYTE PTR [rbp+0x0]
7ba7:	48 83 c5 01          	add    rbp,0x1
7bab:	80 fb 68             	cmp    bl,0x68
7bae:	75 d0                	jne    7b80 <printf_parse+0x1e0>
7bb0:	89 c1                	mov    ecx,eax
7bb2:	89 f2                	mov    edx,esi
7bb4:	83 e1 01             	and    ecx,0x1
7bb7:	d3 e2                	shl    edx,cl
7bb9:	09 d0                	or     eax,edx
7bbb:	eb e6                	jmp    7ba3 <printf_parse+0x203>
7bbd:	0f 1f 00             	nop    DWORD PTR [rax]
7bc0:	83 c8 04             	or     eax,0x4
7bc3:	eb de                	jmp    7ba3 <printf_parse+0x203>
7bc5:	0f 1f 00             	nop    DWORD PTR [rax]
7bc8:	8d 53 db             	lea    edx,[rbx-0x25]
7bcb:	80 fa 53             	cmp    dl,0x53
7bce:	0f 87 17 06 00 00    	ja     81eb <printf_parse+0x84b>
7bd4:	48 8d 0d 41 1c 00 00 	lea    rcx,[rip+0x1c41]        # 981c <wide_null_string.2696+0x1c>
7bdb:	0f b6 d2             	movzx  edx,dl
7bde:	48 63 14 91          	movsxd rdx,DWORD PTR [rcx+rdx*4]
7be2:	48 01 ca             	add    rdx,rcx
7be5:	ff e2                	jmp    rdx
7be7:	41 bb 10 00 00 00    	mov    r11d,0x10
7bed:	bb 73 00 00 00       	mov    ebx,0x73
7bf2:	66 0f 1f 44 00 00    	nop    WORD PTR [rax+rax*1+0x0]
7bf8:	49 83 fd ff          	cmp    r13,0xffffffffffffffff
7bfc:	0f 84 b5 06 00 00    	je     82b7 <printf_parse+0x917>
7c02:	4d 89 6c 24 50       	mov    QWORD PTR [r12+0x50],r13
7c07:	4d 39 e9             	cmp    r9,r13
7c0a:	49 8b 4f 08          	mov    rcx,QWORD PTR [r15+0x8]
7c0e:	0f 86 1c 06 00 00    	jbe    8230 <printf_parse+0x890>
7c14:	49 8b 07             	mov    rax,QWORD PTR [r15]
7c17:	48 89 c2             	mov    rdx,rax
7c1a:	48 c1 e2 05          	shl    rdx,0x5
7c1e:	48 01 ca             	add    rdx,rcx
7c21:	4c 39 e8             	cmp    rax,r13
7c24:	77 20                	ja     7c46 <printf_parse+0x2a6>
7c26:	66 2e 0f 1f 84 00 00 	nop    WORD PTR cs:[rax+rax*1+0x0]
7c2d:	00 00 00
7c30:	48 83 c0 01          	add    rax,0x1
7c34:	c7 02 00 00 00 00    	mov    DWORD PTR [rdx],0x0
7c3a:	48 83 c2 20          	add    rdx,0x20
7c3e:	4c 39 e8             	cmp    rax,r13
7c41:	76 ed                	jbe    7c30 <printf_parse+0x290>
7c43:	49 89 07             	mov    QWORD PTR [r15],rax
7c46:	49 c1 e5 05          	shl    r13,0x5
7c4a:	4a 8d 04 29          	lea    rax,[rcx+r13*1]
7c4e:	8b 10                	mov    edx,DWORD PTR [rax]
7c50:	85 d2                	test   edx,edx
7c52:	0f 85 cb 05 00 00    	jne    8223 <printf_parse+0x883>
7c58:	44 89 18             	mov    DWORD PTR [rax],r11d
7c5b:	41 88 5c 24 48       	mov    BYTE PTR [r12+0x48],bl
7c60:	49 8b 06             	mov    rax,QWORD PTR [r14]
7c63:	49 89 6c 24 08       	mov    QWORD PTR [r12+0x8],rbp
7c68:	48 8d 58 01          	lea    rbx,[rax+0x1]
7c6c:	49 39 da             	cmp    r10,rbx
7c6f:	49 89 1e             	mov    QWORD PTR [r14],rbx
7c72:	0f 87 88 00 00 00    	ja     7d00 <printf_parse+0x360>
7c78:	4d 85 d2             	test   r10,r10
7c7b:	0f 88 a6 09 00 00    	js     8627 <printf_parse+0xc87>
7c81:	4d 01 d2             	add    r10,r10
7c84:	48 b8 ba e8 a2 8b 2e 	movabs rax,0x2e8ba2e8ba2e8ba
7c8b:	ba e8 02
7c8e:	49 39 c2             	cmp    r10,rax
7c91:	0f 87 90 09 00 00    	ja     8627 <printf_parse+0xc87>
7c97:	4b 8d 04 92          	lea    rax,[r10+r10*4]
7c9b:	49 8b 7e 08          	mov    rdi,QWORD PTR [r14+0x8]
7c9f:	48 39 7c 24 28       	cmp    QWORD PTR [rsp+0x28],rdi
7ca4:	4c 89 4c 24 40       	mov    QWORD PTR [rsp+0x40],r9
7ca9:	4c 89 54 24 38       	mov    QWORD PTR [rsp+0x38],r10
7cae:	49 8d 04 42          	lea    rax,[r10+rax*2]
7cb2:	4c 89 44 24 30       	mov    QWORD PTR [rsp+0x30],r8
7cb7:	48 8d 34 c5 00 00 00 	lea    rsi,[rax*8+0x0]
7cbe:	00
7cbf:	0f 84 b8 06 00 00    	je     837d <printf_parse+0x9dd>
7cc5:	e8 f6 9c ff ff       	call   19c0 <realloc@plt>
7cca:	48 85 c0             	test   rax,rax
7ccd:	48 89 c1             	mov    rcx,rax
7cd0:	4c 8b 44 24 30       	mov    r8,QWORD PTR [rsp+0x30]
7cd5:	4c 8b 54 24 38       	mov    r10,QWORD PTR [rsp+0x38]
7cda:	4c 8b 4c 24 40       	mov    r9,QWORD PTR [rsp+0x40]
7cdf:	0f 84 42 09 00 00    	je     8627 <printf_parse+0xc87>
7ce5:	48 8b 44 24 28       	mov    rax,QWORD PTR [rsp+0x28]
7cea:	49 3b 46 08          	cmp    rax,QWORD PTR [r14+0x8]
7cee:	49 8b 1e             	mov    rbx,QWORD PTR [r14]
7cf1:	0f 84 a9 06 00 00    	je     83a0 <printf_parse+0xa00>
7cf7:	49 89 4e 08          	mov    QWORD PTR [r14+0x8],rcx
7cfb:	e9 18 fd ff ff       	jmp    7a18 <printf_parse+0x78>
7d00:	49 8b 4e 08          	mov    rcx,QWORD PTR [r14+0x8]
7d04:	e9 0f fd ff ff       	jmp    7a18 <printf_parse+0x78>
7d09:	48 8b 74 24 10       	mov    rsi,QWORD PTR [rsp+0x10]
7d0e:	b9 01 00 00 00       	mov    ecx,0x1
7d13:	49 89 6c 24 18       	mov    QWORD PTR [r12+0x18],rbp
7d18:	49 89 44 24 20       	mov    QWORD PTR [r12+0x20],rax
7d1d:	48 85 f6             	test   rsi,rsi
7d20:	48 0f 45 ce          	cmovne rcx,rsi
7d24:	48 89 4c 24 10       	mov    QWORD PTR [rsp+0x10],rcx
7d29:	0f b6 4d 01          	movzx  ecx,BYTE PTR [rbp+0x1]
7d2d:	8d 71 d0             	lea    esi,[rcx-0x30]
7d30:	40 80 fe 09          	cmp    sil,0x9
7d34:	0f 86 db 02 00 00    	jbe    8015 <printf_parse+0x675>
7d3a:	48 8b 74 24 20       	mov    rsi,QWORD PTR [rsp+0x20]
7d3f:	48 83 fe ff          	cmp    rsi,0xffffffffffffffff
7d43:	48 8d 56 01          	lea    rdx,[rsi+0x1]
7d47:	49 89 74 24 28       	mov    QWORD PTR [r12+0x28],rsi
7d4c:	0f 84 99 04 00 00    	je     81eb <printf_parse+0x84b>
7d52:	48 8b 5c 24 20       	mov    rbx,QWORD PTR [rsp+0x20]
7d57:	48 89 c5             	mov    rbp,rax
7d5a:	48 89 54 24 20       	mov    QWORD PTR [rsp+0x20],rdx
7d5f:	49 39 d9             	cmp    r9,rbx
7d62:	49 8b 4f 08          	mov    rcx,QWORD PTR [r15+0x8]
7d66:	0f 87 76 06 00 00    	ja     83e2 <printf_parse+0xa42>
7d6c:	4d 01 c9             	add    r9,r9
7d6f:	48 8d 43 01          	lea    rax,[rbx+0x1]
7d73:	49 39 d9             	cmp    r9,rbx
7d76:	4c 0f 46 c8          	cmovbe r9,rax
7d7a:	48 b8 ff ff ff ff ff 	movabs rax,0x7ffffffffffffff
7d81:	ff ff 07
7d84:	49 39 c1             	cmp    r9,rax
7d87:	0f 87 9e 08 00 00    	ja     862b <printf_parse+0xc8b>
7d8d:	4c 89 ce             	mov    rsi,r9
7d90:	4c 89 4c 24 40       	mov    QWORD PTR [rsp+0x40],r9
7d95:	4c 89 54 24 38       	mov    QWORD PTR [rsp+0x38],r10
7d9a:	48 c1 e6 05          	shl    rsi,0x5
7d9e:	48 39 4c 24 08       	cmp    QWORD PTR [rsp+0x8],rcx
7da3:	4c 89 44 24 30       	mov    QWORD PTR [rsp+0x30],r8
7da8:	0f 84 13 07 00 00    	je     84c1 <printf_parse+0xb21>
7dae:	48 89 cf             	mov    rdi,rcx
7db1:	e8 0a 9c ff ff       	call   19c0 <realloc@plt>
7db6:	49 8b 57 08          	mov    rdx,QWORD PTR [r15+0x8]
7dba:	4c 8b 44 24 30       	mov    r8,QWORD PTR [rsp+0x30]
7dbf:	48 89 c1             	mov    rcx,rax
7dc2:	4c 8b 54 24 38       	mov    r10,QWORD PTR [rsp+0x38]
7dc7:	4c 8b 4c 24 40       	mov    r9,QWORD PTR [rsp+0x40]
7dcc:	48 85 c9             	test   rcx,rcx
7dcf:	0f 84 b2 08 00 00    	je     8687 <printf_parse+0xce7>
7dd5:	48 39 54 24 08       	cmp    QWORD PTR [rsp+0x8],rdx
7dda:	49 8b 07             	mov    rax,QWORD PTR [r15]
7ddd:	0f 84 b8 07 00 00    	je     859b <printf_parse+0xbfb>
7de3:	49 89 4f 08          	mov    QWORD PTR [r15+0x8],rcx
7de7:	48 89 c2             	mov    rdx,rax
7dea:	48 c1 e2 05          	shl    rdx,0x5
7dee:	48 01 ca             	add    rdx,rcx
7df1:	48 39 d8             	cmp    rax,rbx
7df4:	77 20                	ja     7e16 <printf_parse+0x476>
7df6:	66 2e 0f 1f 84 00 00 	nop    WORD PTR cs:[rax+rax*1+0x0]
7dfd:	00 00 00
7e00:	48 83 c0 01          	add    rax,0x1
7e04:	c7 02 00 00 00 00    	mov    DWORD PTR [rdx],0x0
7e0a:	48 83 c2 20          	add    rdx,0x20
7e0e:	48 39 d8             	cmp    rax,rbx
7e11:	76 ed                	jbe    7e00 <printf_parse+0x460>
7e13:	49 89 07             	mov    QWORD PTR [r15],rax
7e16:	48 c1 e3 05          	shl    rbx,0x5
7e1a:	48 8d 04 19          	lea    rax,[rcx+rbx*1]
7e1e:	8b 10                	mov    edx,DWORD PTR [rax]
7e20:	85 d2                	test   edx,edx
7e22:	0f 85 d3 04 00 00    	jne    82fb <printf_parse+0x95b>
7e28:	c7 00 05 00 00 00    	mov    DWORD PTR [rax],0x5
7e2e:	0f b6 5d 00          	movzx  ebx,BYTE PTR [rbp+0x0]
7e32:	48 8d 55 01          	lea    rdx,[rbp+0x1]
7e36:	80 fb 2e             	cmp    bl,0x2e
7e39:	0f 85 2f fd ff ff    	jne    7b6e <printf_parse+0x1ce>
7e3f:	80 7d 01 2a          	cmp    BYTE PTR [rbp+0x1],0x2a
7e43:	49 89 6c 24 30       	mov    QWORD PTR [r12+0x30],rbp
7e48:	0f 85 80 01 00 00    	jne    7fce <printf_parse+0x62e>
7e4e:	48 8b 74 24 18       	mov    rsi,QWORD PTR [rsp+0x18]
7e53:	4c 8d 5d 02          	lea    r11,[rbp+0x2]
7e57:	b8 02 00 00 00       	mov    eax,0x2
7e5c:	4d 89 5c 24 38       	mov    QWORD PTR [r12+0x38],r11
7e61:	48 83 fe 02          	cmp    rsi,0x2
7e65:	48 0f 43 c6          	cmovae rax,rsi
7e69:	48 89 44 24 18       	mov    QWORD PTR [rsp+0x18],rax
7e6e:	0f be 45 02          	movsx  eax,BYTE PTR [rbp+0x2]
7e72:	8d 50 d0             	lea    edx,[rax-0x30]
7e75:	80 fa 09             	cmp    dl,0x9
7e78:	0f 86 8e 06 00 00    	jbe    850c <printf_parse+0xb6c>
7e7e:	49 8b 5c 24 40       	mov    rbx,QWORD PTR [r12+0x40]
7e83:	48 83 fb ff          	cmp    rbx,0xffffffffffffffff
7e87:	0f 84 58 06 00 00    	je     84e5 <printf_parse+0xb45>
7e8d:	49 39 d9             	cmp    r9,rbx
7e90:	49 8b 4f 08          	mov    rcx,QWORD PTR [r15+0x8]
7e94:	0f 86 65 05 00 00    	jbe    83ff <printf_parse+0xa5f>
7e9a:	49 8b 07             	mov    rax,QWORD PTR [r15]
7e9d:	48 89 c2             	mov    rdx,rax
7ea0:	48 c1 e2 05          	shl    rdx,0x5
7ea4:	48 01 ca             	add    rdx,rcx
7ea7:	48 39 d8             	cmp    rax,rbx
7eaa:	77 1a                	ja     7ec6 <printf_parse+0x526>
7eac:	0f 1f 40 00          	nop    DWORD PTR [rax+0x0]
7eb0:	48 83 c0 01          	add    rax,0x1
7eb4:	c7 02 00 00 00 00    	mov    DWORD PTR [rdx],0x0
7eba:	48 83 c2 20          	add    rdx,0x20
7ebe:	48 39 d8             	cmp    rax,rbx
7ec1:	76 ed                	jbe    7eb0 <printf_parse+0x510>
7ec3:	49 89 07             	mov    QWORD PTR [r15],rax
7ec6:	48 c1 e3 05          	shl    rbx,0x5
7eca:	48 8d 04 19          	lea    rax,[rcx+rbx*1]
7ece:	8b 10                	mov    edx,DWORD PTR [rax]
7ed0:	85 d2                	test   edx,edx
7ed2:	0f 85 12 05 00 00    	jne    83ea <printf_parse+0xa4a>
7ed8:	c7 00 05 00 00 00    	mov    DWORD PTR [rax],0x5
7ede:	4c 89 dd             	mov    rbp,r11
7ee1:	41 0f b6 1b          	movzx  ebx,BYTE PTR [r11]
7ee5:	e9 84 fc ff ff       	jmp    7b6e <printf_parse+0x1ce>
7eea:	48 89 e8             	mov    rax,rbp
7eed:	0f 1f 00             	nop    DWORD PTR [rax]
7ef0:	48 83 c0 01          	add    rax,0x1
7ef4:	0f b6 10             	movzx  edx,BYTE PTR [rax]
7ef7:	8d 4a d0             	lea    ecx,[rdx-0x30]
7efa:	80 f9 09             	cmp    cl,0x9
7efd:	76 f1                	jbe    7ef0 <printf_parse+0x550>
7eff:	80 fa 24             	cmp    dl,0x24
7f02:	4d 89 c5             	mov    r13,r8
7f05:	0f 85 e3 fb ff ff    	jne    7aee <printf_parse+0x14e>
7f0b:	31 d2                	xor    edx,edx
7f0d:	0f be c3             	movsx  eax,bl
7f10:	48 bf 99 99 99 99 99 	movabs rdi,0x1999999999999999
7f17:	99 99 19
7f1a:	4c 89 c6             	mov    rsi,r8
7f1d:	83 e8 30             	sub    eax,0x30
7f20:	48 39 fa             	cmp    rdx,rdi
7f23:	48 98                	cdqe
7f25:	77 07                	ja     7f2e <printf_parse+0x58e>
7f27:	48 8d 34 92          	lea    rsi,[rdx+rdx*4]
7f2b:	48 01 f6             	add    rsi,rsi
7f2e:	48 89 e9             	mov    rcx,rbp
7f31:	48 01 f0             	add    rax,rsi
7f34:	0f b6 5d 01          	movzx  ebx,BYTE PTR [rbp+0x1]
7f38:	40 0f 92 c6          	setb   sil
7f3c:	48 83 c5 01          	add    rbp,0x1
7f40:	48 89 c2             	mov    rdx,rax
7f43:	40 0f b6 f6          	movzx  esi,sil
7f47:	48 85 f6             	test   rsi,rsi
7f4a:	8d 7b d0             	lea    edi,[rbx-0x30]
7f4d:	0f 85 8b 03 00 00    	jne    82de <printf_parse+0x93e>
7f53:	40 80 ff 09          	cmp    dil,0x9
7f57:	76 b4                	jbe    7f0d <printf_parse+0x56d>
7f59:	49 89 c5             	mov    r13,rax
7f5c:	49 83 ed 01          	sub    r13,0x1
7f60:	49 83 fd fd          	cmp    r13,0xfffffffffffffffd
7f64:	0f 87 81 02 00 00    	ja     81eb <printf_parse+0x84b>
7f6a:	48 8d 69 02          	lea    rbp,[rcx+0x2]
7f6e:	0f b6 59 02          	movzx  ebx,BYTE PTR [rcx+0x2]
7f72:	e9 77 fb ff ff       	jmp    7aee <printf_parse+0x14e>
7f77:	49 89 6c 24 18       	mov    QWORD PTR [r12+0x18],rbp
7f7c:	0f b6 7d 00          	movzx  edi,BYTE PTR [rbp+0x0]
7f80:	48 89 ee             	mov    rsi,rbp
7f83:	8d 4f d0             	lea    ecx,[rdi-0x30]
7f86:	80 f9 09             	cmp    cl,0x9
7f89:	76 0c                	jbe    7f97 <printf_parse+0x5f7>
7f8b:	eb 33                	jmp    7fc0 <printf_parse+0x620>
7f8d:	0f 1f 00             	nop    DWORD PTR [rax]
7f90:	48 89 c5             	mov    rbp,rax
7f93:	48 83 c0 01          	add    rax,0x1
7f97:	0f b6 38             	movzx  edi,BYTE PTR [rax]
7f9a:	8d 57 d0             	lea    edx,[rdi-0x30]
7f9d:	80 fa 09             	cmp    dl,0x9
7fa0:	76 ee                	jbe    7f90 <printf_parse+0x5f0>
7fa2:	48 89 c1             	mov    rcx,rax
7fa5:	48 8d 55 02          	lea    rdx,[rbp+0x2]
7fa9:	48 89 c5             	mov    rbp,rax
7fac:	48 29 f1             	sub    rcx,rsi
7faf:	48 8b 74 24 10       	mov    rsi,QWORD PTR [rsp+0x10]
7fb4:	48 39 ce             	cmp    rsi,rcx
7fb7:	48 0f 43 ce          	cmovae rcx,rsi
7fbb:	48 89 4c 24 10       	mov    QWORD PTR [rsp+0x10],rcx
7fc0:	49 89 6c 24 20       	mov    QWORD PTR [r12+0x20],rbp
7fc5:	0f b6 5d 00          	movzx  ebx,BYTE PTR [rbp+0x0]
7fc9:	e9 97 fb ff ff       	jmp    7b65 <printf_parse+0x1c5>
7fce:	0f b6 45 01          	movzx  eax,BYTE PTR [rbp+0x1]
7fd2:	83 e8 30             	sub    eax,0x30
7fd5:	3c 09                	cmp    al,0x9
7fd7:	77 15                	ja     7fee <printf_parse+0x64e>
7fd9:	0f 1f 80 00 00 00 00 	nop    DWORD PTR [rax+0x0]
7fe0:	48 83 c2 01          	add    rdx,0x1
7fe4:	0f b6 02             	movzx  eax,BYTE PTR [rdx]
7fe7:	83 e8 30             	sub    eax,0x30
7fea:	3c 09                	cmp    al,0x9
7fec:	76 f2                	jbe    7fe0 <printf_parse+0x640>
7fee:	48 8b 74 24 18       	mov    rsi,QWORD PTR [rsp+0x18]
7ff3:	48 89 d0             	mov    rax,rdx
7ff6:	49 89 54 24 38       	mov    QWORD PTR [r12+0x38],rdx
7ffb:	48 29 e8             	sub    rax,rbp
7ffe:	0f b6 1a             	movzx  ebx,BYTE PTR [rdx]
8001:	48 89 d5             	mov    rbp,rdx
8004:	48 39 c6             	cmp    rsi,rax
8007:	48 0f 43 c6          	cmovae rax,rsi
800b:	48 89 44 24 18       	mov    QWORD PTR [rsp+0x18],rax
8010:	e9 59 fb ff ff       	jmp    7b6e <printf_parse+0x1ce>
8015:	48 89 c6             	mov    rsi,rax
8018:	48 83 c6 01          	add    rsi,0x1
801c:	0f b6 3e             	movzx  edi,BYTE PTR [rsi]
801f:	44 8d 5f d0          	lea    r11d,[rdi-0x30]
8023:	41 80 fb 09          	cmp    r11b,0x9
8027:	76 ef                	jbe    8018 <printf_parse+0x678>
8029:	40 80 ff 24          	cmp    dil,0x24
802d:	0f 85 07 fd ff ff    	jne    7d3a <printf_parse+0x39a>
8033:	31 f6                	xor    esi,esi
8035:	0f be c1             	movsx  eax,cl
8038:	48 bf 99 99 99 99 99 	movabs rdi,0x1999999999999999
803f:	99 99 19
8042:	4c 89 c1             	mov    rcx,r8
8045:	83 e8 30             	sub    eax,0x30
8048:	48 39 fe             	cmp    rsi,rdi
804b:	48 98                	cdqe
804d:	77 07                	ja     8056 <printf_parse+0x6b6>
804f:	48 8d 0c b6          	lea    rcx,[rsi+rsi*4]
8053:	48 01 c9             	add    rcx,rcx
8056:	48 89 d5             	mov    rbp,rdx
8059:	45 31 db             	xor    r11d,r11d
805c:	48 01 c8             	add    rax,rcx
805f:	0f b6 4a 01          	movzx  ecx,BYTE PTR [rdx+0x1]
8063:	41 0f 92 c3          	setb   r11b
8067:	48 83 c2 01          	add    rdx,0x1
806b:	48 89 c6             	mov    rsi,rax
806e:	4d 85 db             	test   r11,r11
8071:	8d 79 d0             	lea    edi,[rcx-0x30]
8074:	0f 85 04 05 00 00    	jne    857e <printf_parse+0xbde>
807a:	40 80 ff 09          	cmp    dil,0x9
807e:	76 b5                	jbe    8035 <printf_parse+0x695>
8080:	48 8d 58 ff          	lea    rbx,[rax-0x1]
8084:	48 83 fb fd          	cmp    rbx,0xfffffffffffffffd
8088:	0f 87 5d 01 00 00    	ja     81eb <printf_parse+0x84b>
808e:	49 89 5c 24 28       	mov    QWORD PTR [r12+0x28],rbx
8093:	48 83 c5 02          	add    rbp,0x2
8097:	e9 c3 fc ff ff       	jmp    7d5f <printf_parse+0x3bf>
809c:	83 f8 0f             	cmp    eax,0xf
809f:	41 bb 16 00 00 00    	mov    r11d,0x16
80a5:	0f 8f 4d fb ff ff    	jg     7bf8 <printf_parse+0x258>
80ab:	a8 04                	test   al,0x4
80ad:	0f 85 45 fb ff ff    	jne    7bf8 <printf_parse+0x258>
80b3:	83 f8 07             	cmp    eax,0x7
80b6:	41 bb 15 00 00 00    	mov    r11d,0x15
80bc:	0f 8f 36 fb ff ff    	jg     7bf8 <printf_parse+0x258>
80c2:	a8 02                	test   al,0x2
80c4:	41 bb 12 00 00 00    	mov    r11d,0x12
80ca:	0f 85 28 fb ff ff    	jne    7bf8 <printf_parse+0x258>
80d0:	45 31 db             	xor    r11d,r11d
80d3:	a8 01                	test   al,0x1
80d5:	41 0f 94 c3          	sete   r11b
80d9:	41 83 c3 13          	add    r11d,0x13
80dd:	e9 16 fb ff ff       	jmp    7bf8 <printf_parse+0x258>
80e2:	66 0f 1f 44 00 00    	nop    WORD PTR [rax+rax*1+0x0]
80e8:	45 31 db             	xor    r11d,r11d
80eb:	83 f8 07             	cmp    eax,0x7
80ee:	41 0f 9f c3          	setg   r11b
80f2:	41 83 c3 0d          	add    r11d,0xd
80f6:	e9 fd fa ff ff       	jmp    7bf8 <printf_parse+0x258>
80fb:	83 f8 0f             	cmp    eax,0xf
80fe:	41 bb 09 00 00 00    	mov    r11d,0x9
8104:	0f 8f ee fa ff ff    	jg     7bf8 <printf_parse+0x258>
810a:	a8 04                	test   al,0x4
810c:	0f 85 e6 fa ff ff    	jne    7bf8 <printf_parse+0x258>
8112:	83 f8 07             	cmp    eax,0x7
8115:	41 bb 07 00 00 00    	mov    r11d,0x7
811b:	0f 8f d7 fa ff ff    	jg     7bf8 <printf_parse+0x258>
8121:	a8 02                	test   al,0x2
8123:	41 bb 01 00 00 00    	mov    r11d,0x1
8129:	0f 85 c9 fa ff ff    	jne    7bf8 <printf_parse+0x258>
812f:	83 e0 01             	and    eax,0x1
8132:	83 f8 01             	cmp    eax,0x1
8135:	45 19 db             	sbb    r11d,r11d
8138:	41 83 e3 02          	and    r11d,0x2
813c:	41 83 c3 03          	add    r11d,0x3
8140:	e9 b3 fa ff ff       	jmp    7bf8 <printf_parse+0x258>
8145:	0f 1f 00             	nop    DWORD PTR [rax]
8148:	45 31 db             	xor    r11d,r11d
814b:	83 f8 07             	cmp    eax,0x7
814e:	41 0f 9f c3          	setg   r11b
8152:	41 83 c3 0f          	add    r11d,0xf
8156:	e9 9d fa ff ff       	jmp    7bf8 <printf_parse+0x258>
815b:	83 f8 0f             	cmp    eax,0xf
815e:	41 bb 0c 00 00 00    	mov    r11d,0xc
8164:	0f 8f 8e fa ff ff    	jg     7bf8 <printf_parse+0x258>
816a:	45 31 db             	xor    r11d,r11d
816d:	a8 04                	test   al,0x4
816f:	41 0f 95 c3          	setne  r11b
8173:	41 83 c3 0b          	add    r11d,0xb
8177:	e9 7c fa ff ff       	jmp    7bf8 <printf_parse+0x258>
817c:	41 bb 0e 00 00 00    	mov    r11d,0xe
8182:	bb 63 00 00 00       	mov    ebx,0x63
8187:	e9 6c fa ff ff       	jmp    7bf8 <printf_parse+0x258>
818c:	83 f8 0f             	cmp    eax,0xf
818f:	41 bb 0a 00 00 00    	mov    r11d,0xa
8195:	0f 8f 5d fa ff ff    	jg     7bf8 <printf_parse+0x258>
819b:	a8 04                	test   al,0x4
819d:	0f 85 55 fa ff ff    	jne    7bf8 <printf_parse+0x258>
81a3:	83 f8 07             	cmp    eax,0x7
81a6:	41 bb 08 00 00 00    	mov    r11d,0x8
81ac:	0f 8f 46 fa ff ff    	jg     7bf8 <printf_parse+0x258>
81b2:	a8 02                	test   al,0x2
81b4:	41 bb 02 00 00 00    	mov    r11d,0x2
81ba:	0f 85 38 fa ff ff    	jne    7bf8 <printf_parse+0x258>
81c0:	83 e0 01             	and    eax,0x1
81c3:	83 f8 01             	cmp    eax,0x1
81c6:	45 19 db             	sbb    r11d,r11d
81c9:	41 83 e3 02          	and    r11d,0x2
81cd:	41 83 c3 04          	add    r11d,0x4
81d1:	e9 22 fa ff ff       	jmp    7bf8 <printf_parse+0x258>
81d6:	66 2e 0f 1f 84 00 00 	nop    WORD PTR cs:[rax+rax*1+0x0]
81dd:	00 00 00
81e0:	41 bb 11 00 00 00    	mov    r11d,0x11
81e6:	e9 0d fa ff ff       	jmp    7bf8 <printf_parse+0x258>
81eb:	49 8b 4f 08          	mov    rcx,QWORD PTR [r15+0x8]
81ef:	48 39 4c 24 08       	cmp    QWORD PTR [rsp+0x8],rcx
81f4:	74 08                	je     81fe <printf_parse+0x85e>
81f6:	48 89 cf             	mov    rdi,rcx
81f9:	e8 32 95 ff ff       	call   1730 <free@plt>
81fe:	49 8b 7e 08          	mov    rdi,QWORD PTR [r14+0x8]
8202:	48 39 7c 24 28       	cmp    QWORD PTR [rsp+0x28],rdi
8207:	74 05                	je     820e <printf_parse+0x86e>
8209:	e8 22 95 ff ff       	call   1730 <free@plt>
820e:	e8 3d 95 ff ff       	call   1750 <__errno_location@plt>
8213:	c7 00 16 00 00 00    	mov    DWORD PTR [rax],0x16
8219:	b8 ff ff ff ff       	mov    eax,0xffffffff
821e:	e9 1f f8 ff ff       	jmp    7a42 <printf_parse+0xa2>
8223:	44 39 da             	cmp    edx,r11d
8226:	0f 84 2f fa ff ff    	je     7c5b <printf_parse+0x2bb>
822c:	eb c1                	jmp    81ef <printf_parse+0x84f>
822e:	66 90                	xchg   ax,ax
8230:	4d 01 c9             	add    r9,r9
8233:	49 8d 45 01          	lea    rax,[r13+0x1]
8237:	4d 39 e9             	cmp    r9,r13
823a:	4c 0f 46 c8          	cmovbe r9,rax
823e:	48 b8 ff ff ff ff ff 	movabs rax,0x7ffffffffffffff
8245:	ff ff 07
8248:	49 39 c1             	cmp    r9,rax
824b:	0f 87 da 03 00 00    	ja     862b <printf_parse+0xc8b>
8251:	4c 89 ce             	mov    rsi,r9
8254:	4c 89 4c 24 48       	mov    QWORD PTR [rsp+0x48],r9
8259:	4c 89 54 24 40       	mov    QWORD PTR [rsp+0x40],r10
825e:	48 c1 e6 05          	shl    rsi,0x5
8262:	48 39 4c 24 08       	cmp    QWORD PTR [rsp+0x8],rcx
8267:	4c 89 44 24 38       	mov    QWORD PTR [rsp+0x38],r8
826c:	44 89 5c 24 30       	mov    DWORD PTR [rsp+0x30],r11d
8271:	0f 84 9a 00 00 00    	je     8311 <printf_parse+0x971>
8277:	48 89 cf             	mov    rdi,rcx
827a:	e8 41 97 ff ff       	call   19c0 <realloc@plt>
827f:	48 85 c0             	test   rax,rax
8282:	48 89 c1             	mov    rcx,rax
8285:	44 8b 5c 24 30       	mov    r11d,DWORD PTR [rsp+0x30]
828a:	4c 8b 44 24 38       	mov    r8,QWORD PTR [rsp+0x38]
828f:	4c 8b 54 24 40       	mov    r10,QWORD PTR [rsp+0x40]
8294:	4c 8b 4c 24 48       	mov    r9,QWORD PTR [rsp+0x48]
8299:	0f 84 88 03 00 00    	je     8627 <printf_parse+0xc87>
829f:	48 8b 44 24 08       	mov    rax,QWORD PTR [rsp+0x8]
82a4:	49 3b 47 08          	cmp    rax,QWORD PTR [r15+0x8]
82a8:	0f 84 8b 00 00 00    	je     8339 <printf_parse+0x999>
82ae:	49 89 4f 08          	mov    QWORD PTR [r15+0x8],rcx
82b2:	e9 5d f9 ff ff       	jmp    7c14 <printf_parse+0x274>
82b7:	48 8b 74 24 20       	mov    rsi,QWORD PTR [rsp+0x20]
82bc:	48 83 fe ff          	cmp    rsi,0xffffffffffffffff
82c0:	48 8d 46 01          	lea    rax,[rsi+0x1]
82c4:	49 89 74 24 50       	mov    QWORD PTR [r12+0x50],rsi
82c9:	0f 84 1c ff ff ff    	je     81eb <printf_parse+0x84b>
82cf:	4c 8b 6c 24 20       	mov    r13,QWORD PTR [rsp+0x20]
82d4:	48 89 44 24 20       	mov    QWORD PTR [rsp+0x20],rax
82d9:	e9 29 f9 ff ff       	jmp    7c07 <printf_parse+0x267>
82de:	40 80 ff 09          	cmp    dil,0x9
82e2:	0f 87 03 ff ff ff    	ja     81eb <printf_parse+0x84b>
82e8:	0f be c3             	movsx  eax,bl
82eb:	4c 89 c6             	mov    rsi,r8
82ee:	48 89 e9             	mov    rcx,rbp
82f1:	83 e8 30             	sub    eax,0x30
82f4:	48 98                	cdqe
82f6:	e9 36 fc ff ff       	jmp    7f31 <printf_parse+0x591>
82fb:	83 fa 05             	cmp    edx,0x5
82fe:	0f 85 eb fe ff ff    	jne    81ef <printf_parse+0x84f>
8304:	0f b6 5d 00          	movzx  ebx,BYTE PTR [rbp+0x0]
8308:	48 8d 55 01          	lea    rdx,[rbp+0x1]
830c:	e9 54 f8 ff ff       	jmp    7b65 <printf_parse+0x1c5>
8311:	48 89 f7             	mov    rdi,rsi
8314:	e8 17 96 ff ff       	call   1930 <malloc@plt>
8319:	48 85 c0             	test   rax,rax
831c:	48 89 c1             	mov    rcx,rax
831f:	44 8b 5c 24 30       	mov    r11d,DWORD PTR [rsp+0x30]
8324:	4c 8b 44 24 38       	mov    r8,QWORD PTR [rsp+0x38]
8329:	4c 8b 54 24 40       	mov    r10,QWORD PTR [rsp+0x40]
832e:	4c 8b 4c 24 48       	mov    r9,QWORD PTR [rsp+0x48]
8333:	0f 84 63 01 00 00    	je     849c <printf_parse+0xafc>
8339:	49 8b 17             	mov    rdx,QWORD PTR [r15]
833c:	48 8b 74 24 08       	mov    rsi,QWORD PTR [rsp+0x8]
8341:	48 89 cf             	mov    rdi,rcx
8344:	4c 89 4c 24 48       	mov    QWORD PTR [rsp+0x48],r9
8349:	4c 89 54 24 40       	mov    QWORD PTR [rsp+0x40],r10
834e:	4c 89 44 24 38       	mov    QWORD PTR [rsp+0x38],r8
8353:	44 89 5c 24 30       	mov    DWORD PTR [rsp+0x30],r11d
8358:	48 c1 e2 05          	shl    rdx,0x5
835c:	e8 9f 95 ff ff       	call   1900 <memcpy@plt>
8361:	4c 8b 4c 24 48       	mov    r9,QWORD PTR [rsp+0x48]
8366:	4c 8b 54 24 40       	mov    r10,QWORD PTR [rsp+0x40]
836b:	48 89 c1             	mov    rcx,rax
836e:	4c 8b 44 24 38       	mov    r8,QWORD PTR [rsp+0x38]
8373:	44 8b 5c 24 30       	mov    r11d,DWORD PTR [rsp+0x30]
8378:	e9 31 ff ff ff       	jmp    82ae <printf_parse+0x90e>
837d:	48 89 f7             	mov    rdi,rsi
8380:	e8 ab 95 ff ff       	call   1930 <malloc@plt>
8385:	48 85 c0             	test   rax,rax
8388:	48 89 c1             	mov    rcx,rax
838b:	4c 8b 44 24 30       	mov    r8,QWORD PTR [rsp+0x30]
8390:	4c 8b 54 24 38       	mov    r10,QWORD PTR [rsp+0x38]
8395:	4c 8b 4c 24 40       	mov    r9,QWORD PTR [rsp+0x40]
839a:	0f 84 e9 00 00 00    	je     8489 <printf_parse+0xae9>
83a0:	48 8d 04 9b          	lea    rax,[rbx+rbx*4]
83a4:	48 8b 74 24 28       	mov    rsi,QWORD PTR [rsp+0x28]
83a9:	48 89 cf             	mov    rdi,rcx
83ac:	4c 89 4c 24 40       	mov    QWORD PTR [rsp+0x40],r9
83b1:	4c 89 54 24 38       	mov    QWORD PTR [rsp+0x38],r10
83b6:	48 8d 14 43          	lea    rdx,[rbx+rax*2]
83ba:	4c 89 44 24 30       	mov    QWORD PTR [rsp+0x30],r8
83bf:	48 c1 e2 03          	shl    rdx,0x3
83c3:	e8 38 95 ff ff       	call   1900 <memcpy@plt>
83c8:	49 8b 1e             	mov    rbx,QWORD PTR [r14]
83cb:	48 89 c1             	mov    rcx,rax
83ce:	4c 8b 4c 24 40       	mov    r9,QWORD PTR [rsp+0x40]
83d3:	4c 8b 54 24 38       	mov    r10,QWORD PTR [rsp+0x38]
83d8:	4c 8b 44 24 30       	mov    r8,QWORD PTR [rsp+0x30]
83dd:	e9 15 f9 ff ff       	jmp    7cf7 <printf_parse+0x357>
83e2:	49 8b 07             	mov    rax,QWORD PTR [r15]
83e5:	e9 fd f9 ff ff       	jmp    7de7 <printf_parse+0x447>
83ea:	83 fa 05             	cmp    edx,0x5
83ed:	0f 85 fc fd ff ff    	jne    81ef <printf_parse+0x84f>
83f3:	41 0f b6 1b          	movzx  ebx,BYTE PTR [r11]
83f7:	4c 89 dd             	mov    rbp,r11
83fa:	e9 6f f7 ff ff       	jmp    7b6e <printf_parse+0x1ce>
83ff:	4d 01 c9             	add    r9,r9
8402:	48 8d 43 01          	lea    rax,[rbx+0x1]
8406:	49 39 d9             	cmp    r9,rbx
8409:	4c 0f 46 c8          	cmovbe r9,rax
840d:	48 b8 ff ff ff ff ff 	movabs rax,0x7ffffffffffffff
8414:	ff ff 07
8417:	49 39 c1             	cmp    r9,rax
841a:	0f 87 0b 02 00 00    	ja     862b <printf_parse+0xc8b>
8420:	4c 89 ce             	mov    rsi,r9
8423:	4c 89 4c 24 48       	mov    QWORD PTR [rsp+0x48],r9
8428:	4c 89 54 24 40       	mov    QWORD PTR [rsp+0x40],r10
842d:	48 c1 e6 05          	shl    rsi,0x5
8431:	48 39 4c 24 08       	cmp    QWORD PTR [rsp+0x8],rcx
8436:	4c 89 44 24 38       	mov    QWORD PTR [rsp+0x38],r8
843b:	4c 89 5c 24 30       	mov    QWORD PTR [rsp+0x30],r11
8440:	0f 84 b8 01 00 00    	je     85fe <printf_parse+0xc5e>
8446:	48 89 cf             	mov    rdi,rcx
8449:	e8 72 95 ff ff       	call   19c0 <realloc@plt>
844e:	49 8b 57 08          	mov    rdx,QWORD PTR [r15+0x8]
8452:	4c 8b 5c 24 30       	mov    r11,QWORD PTR [rsp+0x30]
8457:	48 89 c1             	mov    rcx,rax
845a:	4c 8b 44 24 38       	mov    r8,QWORD PTR [rsp+0x38]
845f:	4c 8b 54 24 40       	mov    r10,QWORD PTR [rsp+0x40]
8464:	4c 8b 4c 24 48       	mov    r9,QWORD PTR [rsp+0x48]
8469:	48 85 c9             	test   rcx,rcx
846c:	0f 84 15 02 00 00    	je     8687 <printf_parse+0xce7>
8472:	48 39 54 24 08       	cmp    QWORD PTR [rsp+0x8],rdx
8477:	49 8b 07             	mov    rax,QWORD PTR [r15]
847a:	0f 84 c0 01 00 00    	je     8640 <printf_parse+0xca0>
8480:	49 89 4f 08          	mov    QWORD PTR [r15+0x8],rcx
8484:	e9 14 fa ff ff       	jmp    7e9d <printf_parse+0x4fd>
8489:	49 8b 4f 08          	mov    rcx,QWORD PTR [r15+0x8]
848d:	48 39 4c 24 08       	cmp    QWORD PTR [rsp+0x8],rcx
8492:	74 18                	je     84ac <printf_parse+0xb0c>
8494:	48 89 cf             	mov    rdi,rcx
8497:	e8 94 92 ff ff       	call   1730 <free@plt>
849c:	49 8b 7e 08          	mov    rdi,QWORD PTR [r14+0x8]
84a0:	48 39 7c 24 28       	cmp    QWORD PTR [rsp+0x28],rdi
84a5:	74 05                	je     84ac <printf_parse+0xb0c>
84a7:	e8 84 92 ff ff       	call   1730 <free@plt>
84ac:	e8 9f 92 ff ff       	call   1750 <__errno_location@plt>
84b1:	c7 00 0c 00 00 00    	mov    DWORD PTR [rax],0xc
84b7:	b8 ff ff ff ff       	mov    eax,0xffffffff
84bc:	e9 81 f5 ff ff       	jmp    7a42 <printf_parse+0xa2>
84c1:	48 89 f7             	mov    rdi,rsi
84c4:	e8 67 94 ff ff       	call   1930 <malloc@plt>
84c9:	48 8b 54 24 08       	mov    rdx,QWORD PTR [rsp+0x8]
84ce:	48 89 c1             	mov    rcx,rax
84d1:	4c 8b 4c 24 40       	mov    r9,QWORD PTR [rsp+0x40]
84d6:	4c 8b 54 24 38       	mov    r10,QWORD PTR [rsp+0x38]
84db:	4c 8b 44 24 30       	mov    r8,QWORD PTR [rsp+0x30]
84e0:	e9 e7 f8 ff ff       	jmp    7dcc <printf_parse+0x42c>
84e5:	48 8b 74 24 20       	mov    rsi,QWORD PTR [rsp+0x20]
84ea:	48 83 fe ff          	cmp    rsi,0xffffffffffffffff
84ee:	48 8d 46 01          	lea    rax,[rsi+0x1]
84f2:	49 89 74 24 40       	mov    QWORD PTR [r12+0x40],rsi
84f7:	0f 84 ee fc ff ff    	je     81eb <printf_parse+0x84b>
84fd:	48 8b 5c 24 20       	mov    rbx,QWORD PTR [rsp+0x20]
8502:	48 89 44 24 20       	mov    QWORD PTR [rsp+0x20],rax
8507:	e9 81 f9 ff ff       	jmp    7e8d <printf_parse+0x4ed>
850c:	4c 89 da             	mov    rdx,r11
850f:	48 83 c2 01          	add    rdx,0x1
8513:	0f b6 0a             	movzx  ecx,BYTE PTR [rdx]
8516:	8d 71 d0             	lea    esi,[rcx-0x30]
8519:	40 80 fe 09          	cmp    sil,0x9
851d:	76 f0                	jbe    850f <printf_parse+0xb6f>
851f:	80 f9 24             	cmp    cl,0x24
8522:	0f 85 56 f9 ff ff    	jne    7e7e <printf_parse+0x4de>
8528:	31 c9                	xor    ecx,ecx
852a:	48 be 99 99 99 99 99 	movabs rsi,0x1999999999999999
8531:	99 99 19
8534:	83 e8 30             	sub    eax,0x30
8537:	4c 89 c2             	mov    rdx,r8
853a:	48 39 f1             	cmp    rcx,rsi
853d:	48 98                	cdqe
853f:	77 07                	ja     8548 <printf_parse+0xba8>
8541:	48 8d 14 89          	lea    rdx,[rcx+rcx*4]
8545:	48 01 d2             	add    rdx,rdx
8548:	4c 89 de             	mov    rsi,r11
854b:	31 db                	xor    ebx,ebx
854d:	48 01 c2             	add    rdx,rax
8550:	41 0f be 43 01       	movsx  eax,BYTE PTR [r11+0x1]
8555:	0f 92 c3             	setb   bl
8558:	49 83 c3 01          	add    r11,0x1
855c:	48 89 d1             	mov    rcx,rdx
855f:	48 85 db             	test   rbx,rbx
8562:	8d 78 d0             	lea    edi,[rax-0x30]
8565:	74 71                	je     85d8 <printf_parse+0xc38>
8567:	40 80 ff 09          	cmp    dil,0x9
856b:	0f 87 7a fc ff ff    	ja     81eb <printf_parse+0x84b>
8571:	83 e8 30             	sub    eax,0x30
8574:	4c 89 c2             	mov    rdx,r8
8577:	4c 89 de             	mov    rsi,r11
857a:	48 98                	cdqe
857c:	eb cd                	jmp    854b <printf_parse+0xbab>
857e:	40 80 ff 09          	cmp    dil,0x9
8582:	0f 87 63 fc ff ff    	ja     81eb <printf_parse+0x84b>
8588:	0f be c1             	movsx  eax,cl
858b:	48 89 d5             	mov    rbp,rdx
858e:	4c 89 c1             	mov    rcx,r8
8591:	83 e8 30             	sub    eax,0x30
8594:	48 98                	cdqe
8596:	e9 be fa ff ff       	jmp    8059 <printf_parse+0x6b9>
859b:	48 8b 74 24 08       	mov    rsi,QWORD PTR [rsp+0x8]
85a0:	48 c1 e0 05          	shl    rax,0x5
85a4:	48 89 cf             	mov    rdi,rcx
85a7:	48 89 c2             	mov    rdx,rax
85aa:	4c 89 4c 24 40       	mov    QWORD PTR [rsp+0x40],r9
85af:	4c 89 54 24 38       	mov    QWORD PTR [rsp+0x38],r10
85b4:	4c 89 44 24 30       	mov    QWORD PTR [rsp+0x30],r8
85b9:	e8 42 93 ff ff       	call   1900 <memcpy@plt>
85be:	4c 8b 4c 24 40       	mov    r9,QWORD PTR [rsp+0x40]
85c3:	48 89 c1             	mov    rcx,rax
85c6:	4c 8b 54 24 38       	mov    r10,QWORD PTR [rsp+0x38]
85cb:	49 8b 07             	mov    rax,QWORD PTR [r15]
85ce:	4c 8b 44 24 30       	mov    r8,QWORD PTR [rsp+0x30]
85d3:	e9 0b f8 ff ff       	jmp    7de3 <printf_parse+0x443>
85d8:	40 80 ff 09          	cmp    dil,0x9
85dc:	0f 86 48 ff ff ff    	jbe    852a <printf_parse+0xb8a>
85e2:	48 8d 5a ff          	lea    rbx,[rdx-0x1]
85e6:	48 83 fb fd          	cmp    rbx,0xfffffffffffffffd
85ea:	0f 87 fb fb ff ff    	ja     81eb <printf_parse+0x84b>
85f0:	49 89 5c 24 40       	mov    QWORD PTR [r12+0x40],rbx
85f5:	4c 8d 5e 02          	lea    r11,[rsi+0x2]
85f9:	e9 8f f8 ff ff       	jmp    7e8d <printf_parse+0x4ed>
85fe:	48 89 f7             	mov    rdi,rsi
8601:	e8 2a 93 ff ff       	call   1930 <malloc@plt>
8606:	48 8b 54 24 08       	mov    rdx,QWORD PTR [rsp+0x8]
860b:	48 89 c1             	mov    rcx,rax
860e:	4c 8b 4c 24 48       	mov    r9,QWORD PTR [rsp+0x48]
8613:	4c 8b 54 24 40       	mov    r10,QWORD PTR [rsp+0x40]
8618:	4c 8b 44 24 38       	mov    r8,QWORD PTR [rsp+0x38]
861d:	4c 8b 5c 24 30       	mov    r11,QWORD PTR [rsp+0x30]
8622:	e9 42 fe ff ff       	jmp    8469 <printf_parse+0xac9>
8627:	49 8b 4f 08          	mov    rcx,QWORD PTR [r15+0x8]
862b:	48 39 4c 24 08       	cmp    QWORD PTR [rsp+0x8],rcx
8630:	0f 85 5e fe ff ff    	jne    8494 <printf_parse+0xaf4>
8636:	e9 61 fe ff ff       	jmp    849c <printf_parse+0xafc>
863b:	0f 1f 44 00 00       	nop    DWORD PTR [rax+rax*1+0x0]
8640:	48 8b 74 24 08       	mov    rsi,QWORD PTR [rsp+0x8]
8645:	48 c1 e0 05          	shl    rax,0x5
8649:	48 89 cf             	mov    rdi,rcx
864c:	48 89 c2             	mov    rdx,rax
864f:	4c 89 4c 24 48       	mov    QWORD PTR [rsp+0x48],r9
8654:	4c 89 54 24 40       	mov    QWORD PTR [rsp+0x40],r10
8659:	4c 89 44 24 38       	mov    QWORD PTR [rsp+0x38],r8
865e:	4c 89 5c 24 30       	mov    QWORD PTR [rsp+0x30],r11
8663:	e8 98 92 ff ff       	call   1900 <memcpy@plt>
8668:	4c 8b 4c 24 48       	mov    r9,QWORD PTR [rsp+0x48]
866d:	48 89 c1             	mov    rcx,rax
8670:	4c 8b 54 24 40       	mov    r10,QWORD PTR [rsp+0x40]
8675:	49 8b 07             	mov    rax,QWORD PTR [r15]
8678:	4c 8b 44 24 38       	mov    r8,QWORD PTR [rsp+0x38]
867d:	4c 8b 5c 24 30       	mov    r11,QWORD PTR [rsp+0x30]
8682:	e9 f9 fd ff ff       	jmp    8480 <printf_parse+0xae0>
8687:	48 89 d1             	mov    rcx,rdx
868a:	eb 9f                	jmp    862b <printf_parse+0xc8b>
868c:	0f 1f 40 00          	nop    DWORD PTR [rax+0x0]

0000000000008690 <__libc_csu_init>:
8690:	41 57                	push   r15
8692:	41 56                	push   r14
8694:	49 89 d7             	mov    r15,rdx
8697:	41 55                	push   r13
8699:	41 54                	push   r12
869b:	4c 8d 25 ee 33 20 00 	lea    r12,[rip+0x2033ee]        # 20ba90 <__frame_dummy_init_array_entry>
86a2:	55                   	push   rbp
86a3:	48 8d 2d ee 33 20 00 	lea    rbp,[rip+0x2033ee]        # 20ba98 <__init_array_end>
86aa:	53                   	push   rbx
86ab:	41 89 fd             	mov    r13d,edi
86ae:	49 89 f6             	mov    r14,rsi
86b1:	4c 29 e5             	sub    rbp,r12
86b4:	48 83 ec 08          	sub    rsp,0x8
86b8:	48 c1 fd 03          	sar    rbp,0x3
86bc:	e8 1f 90 ff ff       	call   16e0 <_init>
86c1:	48 85 ed             	test   rbp,rbp
86c4:	74 20                	je     86e6 <__libc_csu_init+0x56>
86c6:	31 db                	xor    ebx,ebx
86c8:	0f 1f 84 00 00 00 00 	nop    DWORD PTR [rax+rax*1+0x0]
86cf:	00
86d0:	4c 89 fa             	mov    rdx,r15
86d3:	4c 89 f6             	mov    rsi,r14
86d6:	44 89 ef             	mov    edi,r13d
86d9:	41 ff 14 dc          	call   QWORD PTR [r12+rbx*8]
86dd:	48 83 c3 01          	add    rbx,0x1
86e1:	48 39 dd             	cmp    rbp,rbx
86e4:	75 ea                	jne    86d0 <__libc_csu_init+0x40>
86e6:	48 83 c4 08          	add    rsp,0x8
86ea:	5b                   	pop    rbx
86eb:	5d                   	pop    rbp
86ec:	41 5c                	pop    r12
86ee:	41 5d                	pop    r13
86f0:	41 5e                	pop    r14
86f2:	41 5f                	pop    r15
86f4:	c3                   	ret
86f5:	90                   	nop
86f6:	66 2e 0f 1f 84 00 00 	nop    WORD PTR cs:[rax+rax*1+0x0]
86fd:	00 00 00

0000000000008700 <__libc_csu_fini>:
8700:	f3 c3                	repz ret
8702:	66 2e 0f 1f 84 00 00 	nop    WORD PTR cs:[rax+rax*1+0x0]
8709:	00 00 00
870c:	0f 1f 40 00          	nop    DWORD PTR [rax+0x0]

0000000000008710 <atexit>:
8710:	48 8b 15 f1 38 20 00 	mov    rdx,QWORD PTR [rip+0x2038f1]        # 20c008 <__dso_handle>
8717:	31 f6                	xor    esi,esi
8719:	e9 42 93 ff ff       	jmp    1a60 <__cxa_atexit@plt>

Disassembly of section .fini:

0000000000008720 <_fini>:
8720:	48 83 ec 08          	sub    rsp,0x8
8724:	48 83 c4 08          	add    rsp,0x8
8728:	c3                   	ret
