


Disassembly of section .init:

0000000000001790 <_init>:
1790:	48 83 ec 08          	sub    rsp,0x8
1794:	48 8b 05 45 e8 20 00 	mov    rax,QWORD PTR [rip+0x20e845]        # 20ffe0 <__gmon_start__>
179b:	48 85 c0             	test   rax,rax
179e:	74 02                	je     17a2 <_init+0x12>
17a0:	ff d0                	call   rax
17a2:	48 83 c4 08          	add    rsp,0x8
17a6:	c3                   	ret

Disassembly of section .plt:

00000000000017b0 <.plt>:
17b0:	ff 35 3a e6 20 00    	push   QWORD PTR [rip+0x20e63a]        # 20fdf0 <_GLOBAL_OFFSET_TABLE_+0x8>
17b6:	ff 25 3c e6 20 00    	jmp    QWORD PTR [rip+0x20e63c]        # 20fdf8 <_GLOBAL_OFFSET_TABLE_+0x10>
17bc:	0f 1f 40 00          	nop    DWORD PTR [rax+0x0]

00000000000017c0 <__snprintf_chk@plt>:
17c0:	ff 25 3a e6 20 00    	jmp    QWORD PTR [rip+0x20e63a]        # 20fe00 <__snprintf_chk@GLIBC_2.3.4>
17c6:	68 00 00 00 00       	push   0x0
17cb:	e9 e0 ff ff ff       	jmp    17b0 <.plt>

00000000000017d0 <free@plt>:
17d0:	ff 25 32 e6 20 00    	jmp    QWORD PTR [rip+0x20e632]        # 20fe08 <free@GLIBC_2.2.5>
17d6:	68 01 00 00 00       	push   0x1
17db:	e9 d0 ff ff ff       	jmp    17b0 <.plt>

00000000000017e0 <abort@plt>:
17e0:	ff 25 2a e6 20 00    	jmp    QWORD PTR [rip+0x20e62a]        # 20fe10 <abort@GLIBC_2.2.5>
17e6:	68 02 00 00 00       	push   0x2
17eb:	e9 c0 ff ff ff       	jmp    17b0 <.plt>

00000000000017f0 <__errno_location@plt>:
17f0:	ff 25 22 e6 20 00    	jmp    QWORD PTR [rip+0x20e622]        # 20fe18 <__errno_location@GLIBC_2.2.5>
17f6:	68 03 00 00 00       	push   0x3
17fb:	e9 b0 ff ff ff       	jmp    17b0 <.plt>

0000000000001800 <strncmp@plt>:
1800:	ff 25 1a e6 20 00    	jmp    QWORD PTR [rip+0x20e61a]        # 20fe20 <strncmp@GLIBC_2.2.5>
1806:	68 04 00 00 00       	push   0x4
180b:	e9 a0 ff ff ff       	jmp    17b0 <.plt>

0000000000001810 <_exit@plt>:
1810:	ff 25 12 e6 20 00    	jmp    QWORD PTR [rip+0x20e612]        # 20fe28 <_exit@GLIBC_2.2.5>
1816:	68 05 00 00 00       	push   0x5
181b:	e9 90 ff ff ff       	jmp    17b0 <.plt>

0000000000001820 <__fpending@plt>:
1820:	ff 25 0a e6 20 00    	jmp    QWORD PTR [rip+0x20e60a]        # 20fe30 <__fpending@GLIBC_2.2.5>
1826:	68 06 00 00 00       	push   0x6
182b:	e9 80 ff ff ff       	jmp    17b0 <.plt>

0000000000001830 <puts@plt>:
1830:	ff 25 02 e6 20 00    	jmp    QWORD PTR [rip+0x20e602]        # 20fe38 <puts@GLIBC_2.2.5>
1836:	68 07 00 00 00       	push   0x7
183b:	e9 70 ff ff ff       	jmp    17b0 <.plt>

0000000000001840 <ferror@plt>:
1840:	ff 25 fa e5 20 00    	jmp    QWORD PTR [rip+0x20e5fa]        # 20fe40 <ferror@GLIBC_2.2.5>
1846:	68 08 00 00 00       	push   0x8
184b:	e9 60 ff ff ff       	jmp    17b0 <.plt>

0000000000001850 <strtod@plt>:
1850:	ff 25 f2 e5 20 00    	jmp    QWORD PTR [rip+0x20e5f2]        # 20fe48 <strtod@GLIBC_2.2.5>
1856:	68 09 00 00 00       	push   0x9
185b:	e9 50 ff ff ff       	jmp    17b0 <.plt>

0000000000001860 <localeconv@plt>:
1860:	ff 25 ea e5 20 00    	jmp    QWORD PTR [rip+0x20e5ea]        # 20fe50 <localeconv@GLIBC_2.2.5>
1866:	68 0a 00 00 00       	push   0xa
186b:	e9 40 ff ff ff       	jmp    17b0 <.plt>

0000000000001870 <fread_unlocked@plt>:
1870:	ff 25 e2 e5 20 00    	jmp    QWORD PTR [rip+0x20e5e2]        # 20fe58 <fread_unlocked@GLIBC_2.2.5>
1876:	68 0b 00 00 00       	push   0xb
187b:	e9 30 ff ff ff       	jmp    17b0 <.plt>

0000000000001880 <textdomain@plt>:
1880:	ff 25 da e5 20 00    	jmp    QWORD PTR [rip+0x20e5da]        # 20fe60 <textdomain@GLIBC_2.2.5>
1886:	68 0c 00 00 00       	push   0xc
188b:	e9 20 ff ff ff       	jmp    17b0 <.plt>

0000000000001890 <fclose@plt>:
1890:	ff 25 d2 e5 20 00    	jmp    QWORD PTR [rip+0x20e5d2]        # 20fe68 <fclose@GLIBC_2.2.5>
1896:	68 0d 00 00 00       	push   0xd
189b:	e9 10 ff ff ff       	jmp    17b0 <.plt>

00000000000018a0 <bindtextdomain@plt>:
18a0:	ff 25 ca e5 20 00    	jmp    QWORD PTR [rip+0x20e5ca]        # 20fe70 <bindtextdomain@GLIBC_2.2.5>
18a6:	68 0e 00 00 00       	push   0xe
18ab:	e9 00 ff ff ff       	jmp    17b0 <.plt>

00000000000018b0 <dcgettext@plt>:
18b0:	ff 25 c2 e5 20 00    	jmp    QWORD PTR [rip+0x20e5c2]        # 20fe78 <dcgettext@GLIBC_2.2.5>
18b6:	68 0f 00 00 00       	push   0xf
18bb:	e9 f0 fe ff ff       	jmp    17b0 <.plt>

00000000000018c0 <__ctype_get_mb_cur_max@plt>:
18c0:	ff 25 ba e5 20 00    	jmp    QWORD PTR [rip+0x20e5ba]        # 20fe80 <__ctype_get_mb_cur_max@GLIBC_2.2.5>
18c6:	68 10 00 00 00       	push   0x10
18cb:	e9 e0 fe ff ff       	jmp    17b0 <.plt>

00000000000018d0 <strlen@plt>:
18d0:	ff 25 b2 e5 20 00    	jmp    QWORD PTR [rip+0x20e5b2]        # 20fe88 <strlen@GLIBC_2.2.5>
18d6:	68 11 00 00 00       	push   0x11
18db:	e9 d0 fe ff ff       	jmp    17b0 <.plt>

00000000000018e0 <__stack_chk_fail@plt>:
18e0:	ff 25 aa e5 20 00    	jmp    QWORD PTR [rip+0x20e5aa]        # 20fe90 <__stack_chk_fail@GLIBC_2.4>
18e6:	68 12 00 00 00       	push   0x12
18eb:	e9 c0 fe ff ff       	jmp    17b0 <.plt>

00000000000018f0 <getopt_long@plt>:
18f0:	ff 25 a2 e5 20 00    	jmp    QWORD PTR [rip+0x20e5a2]        # 20fe98 <getopt_long@GLIBC_2.2.5>
18f6:	68 13 00 00 00       	push   0x13
18fb:	e9 b0 fe ff ff       	jmp    17b0 <.plt>

0000000000001900 <mbrtowc@plt>:
1900:	ff 25 9a e5 20 00    	jmp    QWORD PTR [rip+0x20e59a]        # 20fea0 <mbrtowc@GLIBC_2.2.5>
1906:	68 14 00 00 00       	push   0x14
190b:	e9 a0 fe ff ff       	jmp    17b0 <.plt>

0000000000001910 <strchr@plt>:
1910:	ff 25 92 e5 20 00    	jmp    QWORD PTR [rip+0x20e592]        # 20fea8 <strchr@GLIBC_2.2.5>
1916:	68 15 00 00 00       	push   0x15
191b:	e9 90 fe ff ff       	jmp    17b0 <.plt>

0000000000001920 <__overflow@plt>:
1920:	ff 25 8a e5 20 00    	jmp    QWORD PTR [rip+0x20e58a]        # 20feb0 <__overflow@GLIBC_2.2.5>
1926:	68 16 00 00 00       	push   0x16
192b:	e9 80 fe ff ff       	jmp    17b0 <.plt>

0000000000001930 <strrchr@plt>:
1930:	ff 25 82 e5 20 00    	jmp    QWORD PTR [rip+0x20e582]        # 20feb8 <strrchr@GLIBC_2.2.5>
1936:	68 17 00 00 00       	push   0x17
193b:	e9 70 fe ff ff       	jmp    17b0 <.plt>

0000000000001940 <lseek@plt>:
1940:	ff 25 7a e5 20 00    	jmp    QWORD PTR [rip+0x20e57a]        # 20fec0 <lseek@GLIBC_2.2.5>
1946:	68 18 00 00 00       	push   0x18
194b:	e9 60 fe ff ff       	jmp    17b0 <.plt>

0000000000001950 <__assert_fail@plt>:
1950:	ff 25 72 e5 20 00    	jmp    QWORD PTR [rip+0x20e572]        # 20fec8 <__assert_fail@GLIBC_2.2.5>
1956:	68 19 00 00 00       	push   0x19
195b:	e9 50 fe ff ff       	jmp    17b0 <.plt>

0000000000001960 <__strtoul_internal@plt>:
1960:	ff 25 6a e5 20 00    	jmp    QWORD PTR [rip+0x20e56a]        # 20fed0 <__strtoul_internal@GLIBC_2.2.5>
1966:	68 1a 00 00 00       	push   0x1a
196b:	e9 40 fe ff ff       	jmp    17b0 <.plt>

0000000000001970 <strtof@plt>:
1970:	ff 25 62 e5 20 00    	jmp    QWORD PTR [rip+0x20e562]        # 20fed8 <strtof@GLIBC_2.2.5>
1976:	68 1b 00 00 00       	push   0x1b
197b:	e9 30 fe ff ff       	jmp    17b0 <.plt>

0000000000001980 <memset@plt>:
1980:	ff 25 5a e5 20 00    	jmp    QWORD PTR [rip+0x20e55a]        # 20fee0 <memset@GLIBC_2.2.5>
1986:	68 1c 00 00 00       	push   0x1c
198b:	e9 20 fe ff ff       	jmp    17b0 <.plt>

0000000000001990 <fgetc@plt>:
1990:	ff 25 52 e5 20 00    	jmp    QWORD PTR [rip+0x20e552]        # 20fee8 <fgetc@GLIBC_2.2.5>
1996:	68 1d 00 00 00       	push   0x1d
199b:	e9 10 fe ff ff       	jmp    17b0 <.plt>

00000000000019a0 <memcmp@plt>:
19a0:	ff 25 4a e5 20 00    	jmp    QWORD PTR [rip+0x20e54a]        # 20fef0 <memcmp@GLIBC_2.2.5>
19a6:	68 1e 00 00 00       	push   0x1e
19ab:	e9 00 fe ff ff       	jmp    17b0 <.plt>

00000000000019b0 <fputs_unlocked@plt>:
19b0:	ff 25 42 e5 20 00    	jmp    QWORD PTR [rip+0x20e542]        # 20fef8 <fputs_unlocked@GLIBC_2.2.5>
19b6:	68 1f 00 00 00       	push   0x1f
19bb:	e9 f0 fd ff ff       	jmp    17b0 <.plt>

00000000000019c0 <calloc@plt>:
19c0:	ff 25 3a e5 20 00    	jmp    QWORD PTR [rip+0x20e53a]        # 20ff00 <calloc@GLIBC_2.2.5>
19c6:	68 20 00 00 00       	push   0x20
19cb:	e9 e0 fd ff ff       	jmp    17b0 <.plt>

00000000000019d0 <memcpy@plt>:
19d0:	ff 25 32 e5 20 00    	jmp    QWORD PTR [rip+0x20e532]        # 20ff08 <memcpy@GLIBC_2.14>
19d6:	68 21 00 00 00       	push   0x21
19db:	e9 d0 fd ff ff       	jmp    17b0 <.plt>

00000000000019e0 <fileno@plt>:
19e0:	ff 25 2a e5 20 00    	jmp    QWORD PTR [rip+0x20e52a]        # 20ff10 <fileno@GLIBC_2.2.5>
19e6:	68 22 00 00 00       	push   0x22
19eb:	e9 c0 fd ff ff       	jmp    17b0 <.plt>

00000000000019f0 <malloc@plt>:
19f0:	ff 25 22 e5 20 00    	jmp    QWORD PTR [rip+0x20e522]        # 20ff18 <malloc@GLIBC_2.2.5>
19f6:	68 23 00 00 00       	push   0x23
19fb:	e9 b0 fd ff ff       	jmp    17b0 <.plt>

0000000000001a00 <fflush@plt>:
1a00:	ff 25 1a e5 20 00    	jmp    QWORD PTR [rip+0x20e51a]        # 20ff20 <fflush@GLIBC_2.2.5>
1a06:	68 24 00 00 00       	push   0x24
1a0b:	e9 a0 fd ff ff       	jmp    17b0 <.plt>

0000000000001a10 <nl_langinfo@plt>:
1a10:	ff 25 12 e5 20 00    	jmp    QWORD PTR [rip+0x20e512]        # 20ff28 <nl_langinfo@GLIBC_2.2.5>
1a16:	68 25 00 00 00       	push   0x25
1a1b:	e9 90 fd ff ff       	jmp    17b0 <.plt>

0000000000001a20 <__fxstat@plt>:
1a20:	ff 25 0a e5 20 00    	jmp    QWORD PTR [rip+0x20e50a]        # 20ff30 <__fxstat@GLIBC_2.2.5>
1a26:	68 26 00 00 00       	push   0x26
1a2b:	e9 80 fd ff ff       	jmp    17b0 <.plt>

0000000000001a30 <__freading@plt>:
1a30:	ff 25 02 e5 20 00    	jmp    QWORD PTR [rip+0x20e502]        # 20ff38 <__freading@GLIBC_2.2.5>
1a36:	68 27 00 00 00       	push   0x27
1a3b:	e9 70 fd ff ff       	jmp    17b0 <.plt>

0000000000001a40 <fwrite_unlocked@plt>:
1a40:	ff 25 fa e4 20 00    	jmp    QWORD PTR [rip+0x20e4fa]        # 20ff40 <fwrite_unlocked@GLIBC_2.2.5>
1a46:	68 28 00 00 00       	push   0x28
1a4b:	e9 60 fd ff ff       	jmp    17b0 <.plt>

0000000000001a50 <realloc@plt>:
1a50:	ff 25 f2 e4 20 00    	jmp    QWORD PTR [rip+0x20e4f2]        # 20ff48 <realloc@GLIBC_2.2.5>
1a56:	68 29 00 00 00       	push   0x29
1a5b:	e9 50 fd ff ff       	jmp    17b0 <.plt>

0000000000001a60 <setlocale@plt>:
1a60:	ff 25 ea e4 20 00    	jmp    QWORD PTR [rip+0x20e4ea]        # 20ff50 <setlocale@GLIBC_2.2.5>
1a66:	68 2a 00 00 00       	push   0x2a
1a6b:	e9 40 fd ff ff       	jmp    17b0 <.plt>

0000000000001a70 <__printf_chk@plt>:
1a70:	ff 25 e2 e4 20 00    	jmp    QWORD PTR [rip+0x20e4e2]        # 20ff58 <__printf_chk@GLIBC_2.3.4>
1a76:	68 2b 00 00 00       	push   0x2b
1a7b:	e9 30 fd ff ff       	jmp    17b0 <.plt>

0000000000001a80 <setvbuf@plt>:
1a80:	ff 25 da e4 20 00    	jmp    QWORD PTR [rip+0x20e4da]        # 20ff60 <setvbuf@GLIBC_2.2.5>
1a86:	68 2c 00 00 00       	push   0x2c
1a8b:	e9 20 fd ff ff       	jmp    17b0 <.plt>

0000000000001a90 <strtold@plt>:
1a90:	ff 25 d2 e4 20 00    	jmp    QWORD PTR [rip+0x20e4d2]        # 20ff68 <strtold@GLIBC_2.2.5>
1a96:	68 2d 00 00 00       	push   0x2d
1a9b:	e9 10 fd ff ff       	jmp    17b0 <.plt>

0000000000001aa0 <error@plt>:
1aa0:	ff 25 ca e4 20 00    	jmp    QWORD PTR [rip+0x20e4ca]        # 20ff70 <error@GLIBC_2.2.5>
1aa6:	68 2e 00 00 00       	push   0x2e
1aab:	e9 00 fd ff ff       	jmp    17b0 <.plt>

0000000000001ab0 <fseeko@plt>:
1ab0:	ff 25 c2 e4 20 00    	jmp    QWORD PTR [rip+0x20e4c2]        # 20ff78 <fseeko@GLIBC_2.2.5>
1ab6:	68 2f 00 00 00       	push   0x2f
1abb:	e9 f0 fc ff ff       	jmp    17b0 <.plt>

0000000000001ac0 <fopen@plt>:
1ac0:	ff 25 ba e4 20 00    	jmp    QWORD PTR [rip+0x20e4ba]        # 20ff80 <fopen@GLIBC_2.2.5>
1ac6:	68 30 00 00 00       	push   0x30
1acb:	e9 e0 fc ff ff       	jmp    17b0 <.plt>

0000000000001ad0 <__fread_unlocked_chk@plt>:
1ad0:	ff 25 b2 e4 20 00    	jmp    QWORD PTR [rip+0x20e4b2]        # 20ff88 <__fread_unlocked_chk@GLIBC_2.7>
1ad6:	68 31 00 00 00       	push   0x31
1adb:	e9 d0 fc ff ff       	jmp    17b0 <.plt>

0000000000001ae0 <__cxa_atexit@plt>:
1ae0:	ff 25 aa e4 20 00    	jmp    QWORD PTR [rip+0x20e4aa]        # 20ff90 <__cxa_atexit@GLIBC_2.2.5>
1ae6:	68 32 00 00 00       	push   0x32
1aeb:	e9 c0 fc ff ff       	jmp    17b0 <.plt>

0000000000001af0 <exit@plt>:
1af0:	ff 25 a2 e4 20 00    	jmp    QWORD PTR [rip+0x20e4a2]        # 20ff98 <exit@GLIBC_2.2.5>
1af6:	68 33 00 00 00       	push   0x33
1afb:	e9 b0 fc ff ff       	jmp    17b0 <.plt>

0000000000001b00 <fwrite@plt>:
1b00:	ff 25 9a e4 20 00    	jmp    QWORD PTR [rip+0x20e49a]        # 20ffa0 <fwrite@GLIBC_2.2.5>
1b06:	68 34 00 00 00       	push   0x34
1b0b:	e9 a0 fc ff ff       	jmp    17b0 <.plt>

0000000000001b10 <__fprintf_chk@plt>:
1b10:	ff 25 92 e4 20 00    	jmp    QWORD PTR [rip+0x20e492]        # 20ffa8 <__fprintf_chk@GLIBC_2.3.4>
1b16:	68 35 00 00 00       	push   0x35
1b1b:	e9 90 fc ff ff       	jmp    17b0 <.plt>

0000000000001b20 <mbsinit@plt>:
1b20:	ff 25 8a e4 20 00    	jmp    QWORD PTR [rip+0x20e48a]        # 20ffb0 <mbsinit@GLIBC_2.2.5>
1b26:	68 36 00 00 00       	push   0x36
1b2b:	e9 80 fc ff ff       	jmp    17b0 <.plt>

0000000000001b30 <iswprint@plt>:
1b30:	ff 25 82 e4 20 00    	jmp    QWORD PTR [rip+0x20e482]        # 20ffb8 <iswprint@GLIBC_2.2.5>
1b36:	68 37 00 00 00       	push   0x37
1b3b:	e9 70 fc ff ff       	jmp    17b0 <.plt>

0000000000001b40 <__ctype_b_loc@plt>:
1b40:	ff 25 7a e4 20 00    	jmp    QWORD PTR [rip+0x20e47a]        # 20ffc0 <__ctype_b_loc@GLIBC_2.3>
1b46:	68 38 00 00 00       	push   0x38
1b4b:	e9 60 fc ff ff       	jmp    17b0 <.plt>

0000000000001b50 <__sprintf_chk@plt>:
1b50:	ff 25 72 e4 20 00    	jmp    QWORD PTR [rip+0x20e472]        # 20ffc8 <__sprintf_chk@GLIBC_2.3.4>
1b56:	68 39 00 00 00       	push   0x39
1b5b:	e9 50 fc ff ff       	jmp    17b0 <.plt>

Disassembly of section .plt.got:

0000000000001b60 <__cxa_finalize@plt>:
1b60:	ff 25 8a e4 20 00    	jmp    QWORD PTR [rip+0x20e48a]        # 20fff0 <__cxa_finalize@GLIBC_2.2.5>
1b66:	66 90                	xchg   ax,ax

Disassembly of section .text:

0000000000001b70 <main>:
1b70:	41 57                	push   r15
1b72:	41 56                	push   r14
1b74:	41 89 fe             	mov    r14d,edi
1b77:	41 55                	push   r13
1b79:	41 54                	push   r12
1b7b:	49 89 f5             	mov    r13,rsi
1b7e:	55                   	push   rbp
1b7f:	53                   	push   rbx
1b80:	48 83 ec 58          	sub    rsp,0x58
1b84:	48 8b 3e             	mov    rdi,QWORD PTR [rsi]
1b87:	64 48 8b 04 25 28 00 	mov    rax,QWORD PTR fs:0x28
1b8e:	00 00
1b90:	48 89 44 24 48       	mov    QWORD PTR [rsp+0x48],rax
1b95:	31 c0                	xor    eax,eax
1b97:	e8 74 3f 00 00       	call   5b10 <set_program_name>
1b9c:	48 8d 35 1e b2 00 00 	lea    rsi,[rip+0xb21e]        # cdc1 <quoting_style_vals+0x81>
1ba3:	bf 06 00 00 00       	mov    edi,0x6
1ba8:	e8 b3 fe ff ff       	call   1a60 <setlocale@plt>
1bad:	48 8d 35 af 92 00 00 	lea    rsi,[rip+0x92af]        # ae63 <_IO_stdin_used+0x1a3>
1bb4:	48 8d 3d 7f 92 00 00 	lea    rdi,[rip+0x927f]        # ae3a <_IO_stdin_used+0x17a>
1bbb:	e8 e0 fc ff ff       	call   18a0 <bindtextdomain@plt>
1bc0:	48 8d 3d 73 92 00 00 	lea    rdi,[rip+0x9273]        # ae3a <_IO_stdin_used+0x17a>
1bc7:	e8 b4 fc ff ff       	call   1880 <textdomain@plt>
1bcc:	48 8d 3d 5d 3a 00 00 	lea    rdi,[rip+0x3a5d]        # 5630 <close_stdout>
1bd3:	e8 b8 90 00 00       	call   ac90 <atexit>
1bd8:	48 8d 05 a1 e5 20 00 	lea    rax,[rip+0x20e5a1]        # 210180 <integral_type_size>
1bdf:	48 8d 50 24          	lea    rdx,[rax+0x24]
1be3:	0f 1f 44 00 00       	nop    DWORD PTR [rax+rax*1+0x0]
1be8:	c7 00 00 00 00 00    	mov    DWORD PTR [rax],0x0
1bee:	48 83 c0 04          	add    rax,0x4
1bf2:	48 39 d0             	cmp    rax,rdx
1bf5:	75 f1                	jne    1be8 <main+0x78>
1bf7:	48 8d 05 22 e5 20 00 	lea    rax,[rip+0x20e522]        # 210120 <fp_type_size>
1bfe:	c7 05 7c e5 20 00 01 	mov    DWORD PTR [rip+0x20e57c],0x1        # 210184 <integral_type_size+0x4>
1c05:	00 00 00
1c08:	c7 05 76 e5 20 00 02 	mov    DWORD PTR [rip+0x20e576],0x2        # 210188 <integral_type_size+0x8>
1c0f:	00 00 00
1c12:	c7 05 74 e5 20 00 03 	mov    DWORD PTR [rip+0x20e574],0x3        # 210190 <integral_type_size+0x10>
1c19:	00 00 00
1c1c:	c7 05 7a e5 20 00 05 	mov    DWORD PTR [rip+0x20e57a],0x5        # 2101a0 <integral_type_size+0x20>
1c23:	00 00 00
1c26:	48 8d 50 44          	lea    rdx,[rax+0x44]
1c2a:	66 0f 1f 44 00 00    	nop    WORD PTR [rax+rax*1+0x0]
1c30:	c7 00 00 00 00 00    	mov    DWORD PTR [rax],0x0
1c36:	48 83 c0 04          	add    rax,0x4
1c3a:	48 39 c2             	cmp    rdx,rax
1c3d:	75 f1                	jne    1c30 <main+0xc0>
1c3f:	48 8d 05 4a 12 00 00 	lea    rax,[rip+0x124a]        # 2e90 <format_address_std>
1c46:	48 8d 5c 24 20       	lea    rbx,[rsp+0x20]
1c4b:	48 8d 2d 1e a4 00 00 	lea    rbp,[rip+0xa41e]        # c070 <_IO_stdin_used+0x13b0>
1c52:	c7 05 d4 e4 20 00 06 	mov    DWORD PTR [rip+0x20e4d4],0x6        # 210130 <fp_type_size+0x10>
1c59:	00 00 00
1c5c:	c7 05 fa e4 20 00 08 	mov    DWORD PTR [rip+0x20e4fa],0x8        # 210160 <fp_type_size+0x40>
1c63:	00 00 00
1c66:	41 bc 01 00 00 00    	mov    r12d,0x1
1c6c:	48 89 05 8d e5 20 00 	mov    QWORD PTR [rip+0x20e58d],rax        # 210200 <format_address>
1c73:	48 8d 44 24 28       	lea    rax,[rsp+0x28]
1c78:	c7 05 be e4 20 00 07 	mov    DWORD PTR [rip+0x20e4be],0x7        # 210140 <fp_type_size+0x20>
1c7f:	00 00 00
1c82:	48 c7 05 43 e5 20 00 	mov    QWORD PTR [rip+0x20e543],0x0        # 2101d0 <n_specs>
1c89:	00 00 00 00
1c8d:	48 c7 05 30 e5 20 00 	mov    QWORD PTR [rip+0x20e530],0x0        # 2101c8 <n_specs_allocated>
1c94:	00 00 00 00
1c98:	45 31 ff             	xor    r15d,r15d
1c9b:	48 c7 05 32 e5 20 00 	mov    QWORD PTR [rip+0x20e532],0x0        # 2101d8 <spec>
1ca2:	00 00 00 00
1ca6:	c7 05 74 e5 20 00 08 	mov    DWORD PTR [rip+0x20e574],0x8        # 210224 <address_base>
1cad:	00 00 00
1cb0:	c7 05 66 e5 20 00 07 	mov    DWORD PTR [rip+0x20e566],0x7        # 210220 <address_pad_len>
1cb7:	00 00 00
1cba:	c6 05 51 e5 20 00 00 	mov    BYTE PTR [rip+0x20e551],0x0        # 210212 <flag_dump_strings>
1cc1:	c6 04 24 00          	mov    BYTE PTR [rsp],0x0
1cc5:	48 89 44 24 08       	mov    QWORD PTR [rsp+0x8],rax
1cca:	66 0f 1f 44 00 00    	nop    WORD PTR [rax+rax*1+0x0]
1cd0:	48 8d 0d 09 dd 20 00 	lea    rcx,[rip+0x20dd09]        # 20f9e0 <long_options>
1cd7:	48 8d 15 22 a8 00 00 	lea    rdx,[rip+0xa822]        # c500 <short_options>
1cde:	49 89 d8             	mov    r8,rbx
1ce1:	4c 89 ee             	mov    rsi,r13
1ce4:	44 89 f7             	mov    edi,r14d
1ce7:	c7 44 24 20 ff ff ff 	mov    DWORD PTR [rsp+0x20],0xffffffff
1cee:	ff
1cef:	e8 fc fb ff ff       	call   18f0 <getopt_long@plt>
1cf4:	83 f8 ff             	cmp    eax,0xffffffff
1cf7:	0f 84 03 04 00 00    	je     2100 <main+0x590>
1cfd:	05 83 00 00 00       	add    eax,0x83
1d02:	3d 04 01 00 00       	cmp    eax,0x104
1d07:	0f 87 cb 07 00 00    	ja     24d8 <main+0x968>
1d0d:	48 63 44 85 00       	movsxd rax,DWORD PTR [rbp+rax*4+0x0]
1d12:	48 01 e8             	add    rax,rbp
1d15:	ff e0                	jmp    rax
1d17:	66 0f 1f 84 00 00 00 	nop    WORD PTR [rax+rax*1+0x0]
1d1e:	00 00
1d20:	4c 8b 0d f9 e2 20 00 	mov    r9,QWORD PTR [rip+0x20e2f9]        # 210020 <argmatch_die>
1d27:	48 8b 35 92 e3 20 00 	mov    rsi,QWORD PTR [rip+0x20e392]        # 2100c0 <optarg@@GLIBC_2.2.5>
1d2e:	48 8d 15 2b de 20 00 	lea    rdx,[rip+0x20de2b]        # 20fb60 <endian_args>
1d35:	48 8d 0d bc a7 00 00 	lea    rcx,[rip+0xa7bc]        # c4f8 <endian_types>
1d3c:	48 8d 3d 38 91 00 00 	lea    rdi,[rip+0x9138]        # ae7b <_IO_stdin_used+0x1bb>
1d43:	41 b8 04 00 00 00    	mov    r8d,0x4
1d49:	e8 02 38 00 00       	call   5550 <__xargmatch_internal>
1d4e:	48 8d 15 a3 a7 00 00 	lea    rdx,[rip+0xa7a3]        # c4f8 <endian_types>
1d55:	8b 04 82             	mov    eax,DWORD PTR [rdx+rax*4]
1d58:	85 c0                	test   eax,eax
1d5a:	0f 84 94 03 00 00    	je     20f4 <main+0x584>
1d60:	83 e8 01             	sub    eax,0x1
1d63:	0f 85 67 ff ff ff    	jne    1cd0 <main+0x160>
1d69:	c6 05 91 e3 20 00 01 	mov    BYTE PTR [rip+0x20e391],0x1        # 210101 <input_swap>
1d70:	e9 5b ff ff ff       	jmp    1cd0 <main+0x160>
1d75:	0f 1f 00             	nop    DWORD PTR [rax]
1d78:	c6 05 92 e4 20 00 01 	mov    BYTE PTR [rip+0x20e492],0x1        # 210211 <traditional>
1d7f:	e9 4c ff ff ff       	jmp    1cd0 <main+0x160>
1d84:	0f 1f 40 00          	nop    DWORD PTR [rax+0x0]
1d88:	48 8b 3d 31 e3 20 00 	mov    rdi,QWORD PTR [rip+0x20e331]        # 2100c0 <optarg@@GLIBC_2.2.5>
1d8f:	48 85 ff             	test   rdi,rdi
1d92:	0f 84 44 03 00 00    	je     20dc <main+0x56c>
1d98:	48 8b 4c 24 08       	mov    rcx,QWORD PTR [rsp+0x8]
1d9d:	4c 8d 05 1d b0 00 00 	lea    r8,[rip+0xb01d]        # cdc1 <quoting_style_vals+0x81>
1da4:	31 f6                	xor    esi,esi
1da6:	ba 0a 00 00 00       	mov    edx,0xa
1dab:	e8 30 66 00 00       	call   83e0 <xstrtoumax>
1db0:	85 c0                	test   eax,eax
1db2:	0f 85 2c 0f 00 00    	jne    2ce4 <main+0x1174>
1db8:	48 8b 44 24 28       	mov    rax,QWORD PTR [rsp+0x28]
1dbd:	c6 04 24 01          	mov    BYTE PTR [rsp],0x1
1dc1:	41 bf 01 00 00 00    	mov    r15d,0x1
1dc7:	48 89 44 24 10       	mov    QWORD PTR [rsp+0x10],rax
1dcc:	e9 ff fe ff ff       	jmp    1cd0 <main+0x160>
1dd1:	0f 1f 80 00 00 00 00 	nop    DWORD PTR [rax+0x0]
1dd8:	c6 05 32 e2 20 00 00 	mov    BYTE PTR [rip+0x20e232],0x0        # 210011 <abbreviate_duplicate_blocks>
1ddf:	41 bf 01 00 00 00    	mov    r15d,0x1
1de5:	e9 e6 fe ff ff       	jmp    1cd0 <main+0x160>
1dea:	66 0f 1f 44 00 00    	nop    WORD PTR [rax+rax*1+0x0]
1df0:	48 8b 3d c9 e2 20 00 	mov    rdi,QWORD PTR [rip+0x20e2c9]        # 2100c0 <optarg@@GLIBC_2.2.5>
1df7:	41 bf 01 00 00 00    	mov    r15d,0x1
1dfd:	e8 9e 1c 00 00       	call   3aa0 <decode_format_string>
1e02:	41 21 c4             	and    r12d,eax
1e05:	e9 c6 fe ff ff       	jmp    1cd0 <main+0x160>
1e0a:	66 0f 1f 44 00 00    	nop    WORD PTR [rax+rax*1+0x0]
1e10:	48 8d 3d 8b 90 00 00 	lea    rdi,[rip+0x908b]        # aea2 <_IO_stdin_used+0x1e2>
1e17:	e8 84 1c 00 00       	call   3aa0 <decode_format_string>
1e1c:	41 21 c4             	and    r12d,eax
1e1f:	e9 ac fe ff ff       	jmp    1cd0 <main+0x160>
1e24:	0f 1f 40 00          	nop    DWORD PTR [rax+0x0]
1e28:	48 8b 3d 91 e2 20 00 	mov    rdi,QWORD PTR [rip+0x20e291]        # 2100c0 <optarg@@GLIBC_2.2.5>
1e2f:	4c 8d 05 b2 a6 00 00 	lea    r8,[rip+0xa6b2]        # c4e8 <multipliers.7627>
1e36:	48 8d 0d bb e3 20 00 	lea    rcx,[rip+0x20e3bb]        # 2101f8 <n_bytes_to_skip>
1e3d:	31 d2                	xor    edx,edx
1e3f:	31 f6                	xor    esi,esi
1e41:	e8 9a 65 00 00       	call   83e0 <xstrtoumax>
1e46:	85 c0                	test   eax,eax
1e48:	0f 85 d8 0e 00 00    	jne    2d26 <main+0x11b6>
1e4e:	41 bf 01 00 00 00    	mov    r15d,0x1
1e54:	e9 77 fe ff ff       	jmp    1cd0 <main+0x160>
1e59:	0f 1f 80 00 00 00 00 	nop    DWORD PTR [rax+0x0]
1e60:	48 8d 3d 2f 90 00 00 	lea    rdi,[rip+0x902f]        # ae96 <_IO_stdin_used+0x1d6>
1e67:	e8 34 1c 00 00       	call   3aa0 <decode_format_string>
1e6c:	41 21 c4             	and    r12d,eax
1e6f:	e9 5c fe ff ff       	jmp    1cd0 <main+0x160>
1e74:	0f 1f 40 00          	nop    DWORD PTR [rax+0x0]
1e78:	48 8d 3d 26 90 00 00 	lea    rdi,[rip+0x9026]        # aea5 <_IO_stdin_used+0x1e5>
1e7f:	e8 1c 1c 00 00       	call   3aa0 <decode_format_string>
1e84:	41 21 c4             	and    r12d,eax
1e87:	e9 44 fe ff ff       	jmp    1cd0 <main+0x160>
1e8c:	0f 1f 40 00          	nop    DWORD PTR [rax+0x0]
1e90:	48 8d 3d f9 8f 00 00 	lea    rdi,[rip+0x8ff9]        # ae90 <_IO_stdin_used+0x1d0>
1e97:	e8 04 1c 00 00       	call   3aa0 <decode_format_string>
1e9c:	41 21 c4             	and    r12d,eax
1e9f:	e9 2c fe ff ff       	jmp    1cd0 <main+0x160>
1ea4:	0f 1f 40 00          	nop    DWORD PTR [rax+0x0]
1ea8:	48 8d 3d db 8f 00 00 	lea    rdi,[rip+0x8fdb]        # ae8a <_IO_stdin_used+0x1ca>
1eaf:	e8 ec 1b 00 00       	call   3aa0 <decode_format_string>
1eb4:	41 21 c4             	and    r12d,eax
1eb7:	e9 14 fe ff ff       	jmp    1cd0 <main+0x160>
1ebc:	0f 1f 40 00          	nop    DWORD PTR [rax+0x0]
1ec0:	48 8d 3d 89 8e 00 00 	lea    rdi,[rip+0x8e89]        # ad50 <_IO_stdin_used+0x90>
1ec7:	e8 d4 1b 00 00       	call   3aa0 <decode_format_string>
1ecc:	41 21 c4             	and    r12d,eax
1ecf:	e9 fc fd ff ff       	jmp    1cd0 <main+0x160>
1ed4:	0f 1f 40 00          	nop    DWORD PTR [rax+0x0]
1ed8:	48 8d 3d a5 8f 00 00 	lea    rdi,[rip+0x8fa5]        # ae84 <_IO_stdin_used+0x1c4>
1edf:	e8 bc 1b 00 00       	call   3aa0 <decode_format_string>
1ee4:	41 21 c4             	and    r12d,eax
1ee7:	e9 e4 fd ff ff       	jmp    1cd0 <main+0x160>
1eec:	0f 1f 40 00          	nop    DWORD PTR [rax+0x0]
1ef0:	48 8d 3d 64 8e 00 00 	lea    rdi,[rip+0x8e64]        # ad5b <_IO_stdin_used+0x9b>
1ef7:	e8 a4 1b 00 00       	call   3aa0 <decode_format_string>
1efc:	41 21 c4             	and    r12d,eax
1eff:	e9 cc fd ff ff       	jmp    1cd0 <main+0x160>
1f04:	0f 1f 40 00          	nop    DWORD PTR [rax+0x0]
1f08:	48 8b 3d b1 e1 20 00 	mov    rdi,QWORD PTR [rip+0x20e1b1]        # 2100c0 <optarg@@GLIBC_2.2.5>
1f0f:	48 85 ff             	test   rdi,rdi
1f12:	0f 84 b4 01 00 00    	je     20cc <main+0x55c>
1f18:	48 8b 4c 24 08       	mov    rcx,QWORD PTR [rsp+0x8]
1f1d:	4c 8d 05 c4 a5 00 00 	lea    r8,[rip+0xa5c4]        # c4e8 <multipliers.7627>
1f24:	31 d2                	xor    edx,edx
1f26:	31 f6                	xor    esi,esi
1f28:	e8 b3 64 00 00       	call   83e0 <xstrtoumax>
1f2d:	85 c0                	test   eax,eax
1f2f:	0f 85 0f 0e 00 00    	jne    2d44 <main+0x11d4>
1f35:	48 8b 44 24 28       	mov    rax,QWORD PTR [rsp+0x28]
1f3a:	48 89 05 d7 e2 20 00 	mov    QWORD PTR [rip+0x20e2d7],rax        # 210218 <string_min>
1f41:	c6 05 ca e2 20 00 01 	mov    BYTE PTR [rip+0x20e2ca],0x1        # 210212 <flag_dump_strings>
1f48:	41 bf 01 00 00 00    	mov    r15d,0x1
1f4e:	e9 7d fd ff ff       	jmp    1cd0 <main+0x160>
1f53:	0f 1f 44 00 00       	nop    DWORD PTR [rax+rax*1+0x0]
1f58:	48 8d 3d 3d 8f 00 00 	lea    rdi,[rip+0x8f3d]        # ae9c <_IO_stdin_used+0x1dc>
1f5f:	e8 3c 1b 00 00       	call   3aa0 <decode_format_string>
1f64:	41 21 c4             	and    r12d,eax
1f67:	e9 64 fd ff ff       	jmp    1cd0 <main+0x160>
1f6c:	0f 1f 40 00          	nop    DWORD PTR [rax+0x0]
1f70:	48 8b 3d 49 e1 20 00 	mov    rdi,QWORD PTR [rip+0x20e149]        # 2100c0 <optarg@@GLIBC_2.2.5>
1f77:	4c 8d 05 6a a5 00 00 	lea    r8,[rip+0xa56a]        # c4e8 <multipliers.7627>
1f7e:	48 8d 0d 63 e2 20 00 	lea    rcx,[rip+0x20e263]        # 2101e8 <max_bytes_to_format>
1f85:	31 d2                	xor    edx,edx
1f87:	31 f6                	xor    esi,esi
1f89:	c6 05 60 e2 20 00 01 	mov    BYTE PTR [rip+0x20e260],0x1        # 2101f0 <limit_bytes_to_format>
1f90:	e8 4b 64 00 00       	call   83e0 <xstrtoumax>
1f95:	85 c0                	test   eax,eax
1f97:	0f 84 b1 fe ff ff    	je     1e4e <main+0x2de>
1f9d:	4c 8b 05 1c e1 20 00 	mov    r8,QWORD PTR [rip+0x20e11c]        # 2100c0 <optarg@@GLIBC_2.2.5>
1fa4:	8b 74 24 20          	mov    esi,DWORD PTR [rsp+0x20]
1fa8:	48 8d 0d 31 da 20 00 	lea    rcx,[rip+0x20da31]        # 20f9e0 <long_options>
1faf:	ba 4e 00 00 00       	mov    edx,0x4e
1fb4:	89 c7                	mov    edi,eax
1fb6:	e8 75 63 00 00       	call   8330 <xstrtol_fatal>
1fbb:	0f 1f 44 00 00       	nop    DWORD PTR [rax+rax*1+0x0]
1fc0:	48 8d 3d d2 8e 00 00 	lea    rdi,[rip+0x8ed2]        # ae99 <_IO_stdin_used+0x1d9>
1fc7:	e8 d4 1a 00 00       	call   3aa0 <decode_format_string>
1fcc:	41 21 c4             	and    r12d,eax
1fcf:	e9 fc fc ff ff       	jmp    1cd0 <main+0x160>
1fd4:	0f 1f 40 00          	nop    DWORD PTR [rax+0x0]
1fd8:	48 8d 3d b4 8e 00 00 	lea    rdi,[rip+0x8eb4]        # ae93 <_IO_stdin_used+0x1d3>
1fdf:	e8 bc 1a 00 00       	call   3aa0 <decode_format_string>
1fe4:	41 21 c4             	and    r12d,eax
1fe7:	e9 e4 fc ff ff       	jmp    1cd0 <main+0x160>
1fec:	0f 1f 40 00          	nop    DWORD PTR [rax+0x0]
1ff0:	48 8d 3d 96 8e 00 00 	lea    rdi,[rip+0x8e96]        # ae8d <_IO_stdin_used+0x1cd>
1ff7:	e8 a4 1a 00 00       	call   3aa0 <decode_format_string>
1ffc:	41 21 c4             	and    r12d,eax
1fff:	e9 cc fc ff ff       	jmp    1cd0 <main+0x160>
2004:	0f 1f 40 00          	nop    DWORD PTR [rax+0x0]
2008:	48 8d 3d 78 8e 00 00 	lea    rdi,[rip+0x8e78]        # ae87 <_IO_stdin_used+0x1c7>
200f:	e8 8c 1a 00 00       	call   3aa0 <decode_format_string>
2014:	41 21 c4             	and    r12d,eax
2017:	e9 b4 fc ff ff       	jmp    1cd0 <main+0x160>
201c:	0f 1f 40 00          	nop    DWORD PTR [rax+0x0]
2020:	48 8d 3d 78 8e 00 00 	lea    rdi,[rip+0x8e78]        # ae9f <_IO_stdin_used+0x1df>
2027:	e8 74 1a 00 00       	call   3aa0 <decode_format_string>
202c:	41 21 c4             	and    r12d,eax
202f:	e9 9c fc ff ff       	jmp    1cd0 <main+0x160>
2034:	0f 1f 40 00          	nop    DWORD PTR [rax+0x0]
2038:	48 8b 05 81 e0 20 00 	mov    rax,QWORD PTR [rip+0x20e081]        # 2100c0 <optarg@@GLIBC_2.2.5>
203f:	44 0f b6 38          	movzx  r15d,BYTE PTR [rax]
2043:	41 80 ff 6e          	cmp    r15b,0x6e
2047:	0f 84 df 03 00 00    	je     242c <main+0x8bc>
204d:	0f 8e 1f 02 00 00    	jle    2272 <main+0x702>
2053:	41 80 ff 6f          	cmp    r15b,0x6f
2057:	0f 84 4c 02 00 00    	je     22a9 <main+0x739>
205d:	41 80 ff 78          	cmp    r15b,0x78
2061:	0f 85 55 0c 00 00    	jne    2cbc <main+0x114c>
2067:	48 8d 05 22 0e 00 00 	lea    rax,[rip+0xe22]        # 2e90 <format_address_std>
206e:	c7 05 ac e1 20 00 10 	mov    DWORD PTR [rip+0x20e1ac],0x10        # 210224 <address_base>
2075:	00 00 00
2078:	c7 05 9e e1 20 00 06 	mov    DWORD PTR [rip+0x20e19e],0x6        # 210220 <address_pad_len>
207f:	00 00 00
2082:	41 bf 01 00 00 00    	mov    r15d,0x1
2088:	48 89 05 71 e1 20 00 	mov    QWORD PTR [rip+0x20e171],rax        # 210200 <format_address>
208f:	e9 3c fc ff ff       	jmp    1cd0 <main+0x160>
2094:	0f 1f 40 00          	nop    DWORD PTR [rax+0x0]
2098:	48 8b 3d 09 e0 20 00 	mov    rdi,QWORD PTR [rip+0x20e009]        # 2100a8 <stdout@@GLIBC_2.2.5>
209f:	48 8b 0d 72 df 20 00 	mov    rcx,QWORD PTR [rip+0x20df72]        # 210018 <Version>
20a6:	4c 8d 05 fb 8d 00 00 	lea    r8,[rip+0x8dfb]        # aea8 <_IO_stdin_used+0x1e8>
20ad:	48 8d 15 82 8d 00 00 	lea    rdx,[rip+0x8d82]        # ae36 <_IO_stdin_used+0x176>
20b4:	48 8d 35 02 8d 00 00 	lea    rsi,[rip+0x8d02]        # adbd <_IO_stdin_used+0xfd>
20bb:	45 31 c9             	xor    r9d,r9d
20be:	31 c0                	xor    eax,eax
20c0:	e8 3b 5c 00 00       	call   7d00 <version_etc>
20c5:	31 ff                	xor    edi,edi
20c7:	e8 24 fa ff ff       	call   1af0 <exit@plt>
20cc:	48 c7 05 41 e1 20 00 	mov    QWORD PTR [rip+0x20e141],0x3        # 210218 <string_min>
20d3:	03 00 00 00
20d7:	e9 65 fe ff ff       	jmp    1f41 <main+0x3d1>
20dc:	c6 04 24 01          	mov    BYTE PTR [rsp],0x1
20e0:	41 bf 01 00 00 00    	mov    r15d,0x1
20e6:	48 c7 44 24 10 20 00 	mov    QWORD PTR [rsp+0x10],0x20
20ed:	00 00
20ef:	e9 dc fb ff ff       	jmp    1cd0 <main+0x160>
20f4:	c6 05 06 e0 20 00 00 	mov    BYTE PTR [rip+0x20e006],0x0        # 210101 <input_swap>
20fb:	e9 d0 fb ff ff       	jmp    1cd0 <main+0x160>
2100:	45 84 e4             	test   r12b,r12b
2103:	0f 84 cd 01 00 00    	je     22d6 <main+0x766>
2109:	80 3d 02 e1 20 00 00 	cmp    BYTE PTR [rip+0x20e102],0x0        # 210212 <flag_dump_strings>
2110:	74 0e                	je     2120 <main+0x5b0>
2112:	48 83 3d b6 e0 20 00 	cmp    QWORD PTR [rip+0x20e0b6],0x0        # 2101d0 <n_specs>
2119:	00
211a:	0f 85 e2 0b 00 00    	jne    2d02 <main+0x1192>
2120:	48 63 05 91 df 20 00 	movsxd rax,DWORD PTR [rip+0x20df91]        # 2100b8 <optind@@GLIBC_2.2.5>
2127:	0f b6 15 e3 e0 20 00 	movzx  edx,BYTE PTR [rip+0x20e0e3]        # 210211 <traditional>
212e:	41 29 c6             	sub    r14d,eax
2131:	45 84 ff             	test   r15b,r15b
2134:	0f 84 15 03 00 00    	je     244f <main+0x8df>
213a:	84 d2                	test   dl,dl
213c:	0f 85 73 05 00 00    	jne    26b5 <main+0xb45>
2142:	80 3d c7 e0 20 00 00 	cmp    BYTE PTR [rip+0x20e0c7],0x0        # 210210 <flag_pseudo_start>
2149:	74 22                	je     216d <main+0x5fd>
214b:	48 8d 05 2e 0d 00 00 	lea    rax,[rip+0xd2e]        # 2e80 <format_address_none>
2152:	48 39 05 a7 e0 20 00 	cmp    QWORD PTR [rip+0x20e0a7],rax        # 210200 <format_address>
2159:	0f 84 4a 07 00 00    	je     28a9 <main+0xd39>
215f:	48 8d 05 0a 2b 00 00 	lea    rax,[rip+0x2b0a]        # 4c70 <format_address_label>
2166:	48 89 05 93 e0 20 00 	mov    QWORD PTR [rip+0x20e093],rax        # 210200 <format_address>
216d:	80 3d 7c e0 20 00 00 	cmp    BYTE PTR [rip+0x20e07c],0x0        # 2101f0 <limit_bytes_to_format>
2174:	74 26                	je     219c <main+0x62c>
2176:	31 d2                	xor    edx,edx
2178:	48 8b 05 69 e0 20 00 	mov    rax,QWORD PTR [rip+0x20e069]        # 2101e8 <max_bytes_to_format>
217f:	48 03 05 72 e0 20 00 	add    rax,QWORD PTR [rip+0x20e072]        # 2101f8 <n_bytes_to_skip>
2186:	0f 82 d4 0a 00 00    	jb     2c60 <main+0x10f0>
218c:	48 85 d2             	test   rdx,rdx
218f:	48 89 05 4a e0 20 00 	mov    QWORD PTR [rip+0x20e04a],rax        # 2101e0 <end_offset>
2196:	0f 85 a0 0a 00 00    	jne    2c3c <main+0x10cc>
219c:	48 83 3d 2c e0 20 00 	cmp    QWORD PTR [rip+0x20e02c],0x0        # 2101d0 <n_specs>
21a3:	00
21a4:	0f 84 b9 04 00 00    	je     2663 <main+0xaf3>
21aa:	45 85 f6             	test   r14d,r14d
21ad:	0f 8e 9d 04 00 00    	jle    2650 <main+0xae0>
21b3:	48 63 05 fe de 20 00 	movsxd rax,DWORD PTR [rip+0x20defe]        # 2100b8 <optind@@GLIBC_2.2.5>
21ba:	49 8d 44 c5 00       	lea    rax,[r13+rax*8+0x0]
21bf:	48 89 05 ea df 20 00 	mov    QWORD PTR [rip+0x20dfea],rax        # 2101b0 <file_list>
21c6:	e8 15 24 00 00       	call   45e0 <open_next_file>
21cb:	48 83 3d d5 df 20 00 	cmp    QWORD PTR [rip+0x20dfd5],0x0        # 2101a8 <in_stream>
21d2:	00
21d3:	41 89 c5             	mov    r13d,eax
21d6:	0f 84 36 02 00 00    	je     2412 <main+0x8a2>
21dc:	48 8b 3d 15 e0 20 00 	mov    rdi,QWORD PTR [rip+0x20e015]        # 2101f8 <n_bytes_to_skip>
21e3:	e8 18 25 00 00       	call   4700 <skip>
21e8:	41 21 c5             	and    r13d,eax
21eb:	48 83 3d b5 df 20 00 	cmp    QWORD PTR [rip+0x20dfb5],0x0        # 2101a8 <in_stream>
21f2:	00
21f3:	0f 84 19 02 00 00    	je     2412 <main+0x8a2>
21f9:	31 c0                	xor    eax,eax
21fb:	80 3d 0e e0 20 00 00 	cmp    BYTE PTR [rip+0x20e00e],0x0        # 210210 <flag_pseudo_start>
2202:	0f 85 f8 04 00 00    	jne    2700 <main+0xb90>
2208:	4c 8b 0d c1 df 20 00 	mov    r9,QWORD PTR [rip+0x20dfc1]        # 2101d0 <n_specs>
220f:	4c 8b 15 c2 df 20 00 	mov    r10,QWORD PTR [rip+0x20dfc2]        # 2101d8 <spec>
2216:	4c 8d 1d c3 a3 00 00 	lea    r11,[rip+0xa3c3]        # c5e0 <width_bytes>
221d:	48 89 05 e4 df 20 00 	mov    QWORD PTR [rip+0x20dfe4],rax        # 210208 <pseudo_offset>
2224:	31 ff                	xor    edi,edi
2226:	41 b8 01 00 00 00    	mov    r8d,0x1
222c:	4c 39 cf             	cmp    rdi,r9
222f:	0f 84 ad 02 00 00    	je     24e2 <main+0x972>
2235:	48 6b c7 28          	imul   rax,rdi,0x28
2239:	4d 63 c0             	movsxd r8,r8d
223c:	41 8b 44 02 04       	mov    eax,DWORD PTR [r10+rax*1+0x4]
2241:	49 63 34 83          	movsxd rsi,DWORD PTR [r11+rax*4]
2245:	4c 89 c0             	mov    rax,r8
2248:	48 89 f1             	mov    rcx,rsi
224b:	eb 06                	jmp    2253 <main+0x6e3>
224d:	0f 1f 00             	nop    DWORD PTR [rax]
2250:	48 89 d1             	mov    rcx,rdx
2253:	31 d2                	xor    edx,edx
2255:	48 f7 f1             	div    rcx
2258:	48 89 c8             	mov    rax,rcx
225b:	48 85 d2             	test   rdx,rdx
225e:	75 f0                	jne    2250 <main+0x6e0>
2260:	48 89 f0             	mov    rax,rsi
2263:	31 d2                	xor    edx,edx
2265:	48 83 c7 01          	add    rdi,0x1
2269:	48 f7 f1             	div    rcx
226c:	44 0f af c0          	imul   r8d,eax
2270:	eb ba                	jmp    222c <main+0x6bc>
2272:	41 80 ff 64          	cmp    r15b,0x64
2276:	0f 85 40 0a 00 00    	jne    2cbc <main+0x114c>
227c:	48 8d 05 0d 0c 00 00 	lea    rax,[rip+0xc0d]        # 2e90 <format_address_std>
2283:	c7 05 97 df 20 00 0a 	mov    DWORD PTR [rip+0x20df97],0xa        # 210224 <address_base>
228a:	00 00 00
228d:	c7 05 89 df 20 00 07 	mov    DWORD PTR [rip+0x20df89],0x7        # 210220 <address_pad_len>
2294:	00 00 00
2297:	41 bf 01 00 00 00    	mov    r15d,0x1
229d:	48 89 05 5c df 20 00 	mov    QWORD PTR [rip+0x20df5c],rax        # 210200 <format_address>
22a4:	e9 27 fa ff ff       	jmp    1cd0 <main+0x160>
22a9:	48 8d 05 e0 0b 00 00 	lea    rax,[rip+0xbe0]        # 2e90 <format_address_std>
22b0:	c7 05 6a df 20 00 08 	mov    DWORD PTR [rip+0x20df6a],0x8        # 210224 <address_base>
22b7:	00 00 00
22ba:	c7 05 5c df 20 00 07 	mov    DWORD PTR [rip+0x20df5c],0x7        # 210220 <address_pad_len>
22c1:	00 00 00
22c4:	41 bf 01 00 00 00    	mov    r15d,0x1
22ca:	48 89 05 2f df 20 00 	mov    QWORD PTR [rip+0x20df2f],rax        # 210200 <format_address>
22d1:	e9 fa f9 ff ff       	jmp    1cd0 <main+0x160>
22d6:	b8 01 00 00 00       	mov    eax,0x1
22db:	48 8b 5c 24 48       	mov    rbx,QWORD PTR [rsp+0x48]
22e0:	64 48 33 1c 25 28 00 	xor    rbx,QWORD PTR fs:0x28
22e7:	00 00
22e9:	0f 85 c8 09 00 00    	jne    2cb7 <main+0x1147>
22ef:	48 83 c4 58          	add    rsp,0x58
22f3:	5b                   	pop    rbx
22f4:	5d                   	pop    rbp
22f5:	41 5c                	pop    r12
22f7:	41 5d                	pop    r13
22f9:	41 5e                	pop    r14
22fb:	41 5f                	pop    r15
22fd:	c3                   	ret
22fe:	b8 02 00 00 00       	mov    eax,0x2
2303:	31 c9                	xor    ecx,ecx
2305:	48 f7 e7             	mul    rdi
2308:	0f 80 61 09 00 00    	jo     2c6f <main+0x10ff>
230e:	48 85 c0             	test   rax,rax
2311:	0f 88 53 09 00 00    	js     2c6a <main+0x10fa>
2317:	48 85 c9             	test   rcx,rcx
231a:	0f 85 4a 09 00 00    	jne    2c6a <main+0x10fa>
2320:	48 01 ff             	add    rdi,rdi
2323:	e8 38 5b 00 00       	call   7e60 <xmalloc>
2328:	0f b6 1d c1 de 20 00 	movzx  ebx,BYTE PTR [rip+0x20dec1]        # 2101f0 <limit_bytes_to_format>
232f:	48 8b 3d 8a de 20 00 	mov    rdi,QWORD PTR [rip+0x20de8a]        # 2101c0 <bytes_per_block>
2336:	48 89 44 24 30       	mov    QWORD PTR [rsp+0x30],rax
233b:	4c 8b 35 b6 de 20 00 	mov    r14,QWORD PTR [rip+0x20deb6]        # 2101f8 <n_bytes_to_skip>
2342:	48 01 f8             	add    rax,rdi
2345:	84 db                	test   bl,bl
2347:	48 89 44 24 38       	mov    QWORD PTR [rsp+0x38],rax
234c:	0f 84 7e 05 00 00    	je     28d0 <main+0xd60>
2352:	4c 8d 64 24 28       	lea    r12,[rsp+0x28]
2357:	44 88 2c 24          	mov    BYTE PTR [rsp],r13b
235b:	eb 5e                	jmp    23bb <main+0x84b>
235d:	40 0f b6 d5          	movzx  edx,bpl
2361:	48 8b 3d 58 de 20 00 	mov    rdi,QWORD PTR [rip+0x20de58]        # 2101c0 <bytes_per_block>
2368:	4c 29 f0             	sub    rax,r14
236b:	4c 8b 6c d4 30       	mov    r13,QWORD PTR [rsp+rdx*8+0x30]
2370:	49 89 d7             	mov    r15,rdx
2373:	4c 89 e2             	mov    rdx,r12
2376:	48 39 f8             	cmp    rax,rdi
2379:	48 0f 46 f8          	cmovbe rdi,rax
237d:	4c 89 ee             	mov    rsi,r13
2380:	e8 1b 29 00 00       	call   4ca0 <read_block>
2385:	48 8b 74 24 28       	mov    rsi,QWORD PTR [rsp+0x28]
238a:	21 c3                	and    ebx,eax
238c:	48 3b 35 2d de 20 00 	cmp    rsi,QWORD PTR [rip+0x20de2d]        # 2101c0 <bytes_per_block>
2393:	0f 82 9c 05 00 00    	jb     2935 <main+0xdc5>
2399:	0f 85 da 08 00 00    	jne    2c79 <main+0x1109>
239f:	83 f5 01             	xor    ebp,0x1
23a2:	4c 89 f7             	mov    rdi,r14
23a5:	4c 89 e9             	mov    rcx,r13
23a8:	40 0f b6 c5          	movzx  eax,bpl
23ac:	48 8b 54 c4 30       	mov    rdx,QWORD PTR [rsp+rax*8+0x30]
23b1:	e8 8a 25 00 00       	call   4940 <write_block>
23b6:	4c 03 74 24 28       	add    r14,QWORD PTR [rsp+0x28]
23bb:	48 8b 05 1e de 20 00 	mov    rax,QWORD PTR [rip+0x20de1e]        # 2101e0 <end_offset>
23c2:	4c 39 f0             	cmp    rax,r14
23c5:	77 96                	ja     235d <main+0x7ed>
23c7:	44 0f b6 2c 24       	movzx  r13d,BYTE PTR [rsp]
23cc:	48 c7 44 24 28 00 00 	mov    QWORD PTR [rsp+0x28],0x0
23d3:	00 00
23d5:	be 0a 00 00 00       	mov    esi,0xa
23da:	4c 89 f7             	mov    rdi,r14
23dd:	ff 15 1d de 20 00    	call   QWORD PTR [rip+0x20de1d]        # 210200 <format_address>
23e3:	80 3d 06 de 20 00 00 	cmp    BYTE PTR [rip+0x20de06],0x0        # 2101f0 <limit_bytes_to_format>
23ea:	74 12                	je     23fe <main+0x88e>
23ec:	4c 3b 35 ed dd 20 00 	cmp    r14,QWORD PTR [rip+0x20dded]        # 2101e0 <end_offset>
23f3:	72 09                	jb     23fe <main+0x88e>
23f5:	31 ff                	xor    edi,edi
23f7:	e8 94 20 00 00       	call   4490 <check_and_close>
23fc:	21 c3                	and    ebx,eax
23fe:	48 8b 7c 24 30       	mov    rdi,QWORD PTR [rsp+0x30]
2403:	0f b6 db             	movzx  ebx,bl
2406:	e8 c5 f3 ff ff       	call   17d0 <free@plt>
240b:	41 21 dd             	and    r13d,ebx
240e:	41 83 e5 01          	and    r13d,0x1
2412:	80 3d 8b dd 20 00 00 	cmp    BYTE PTR [rip+0x20dd8b],0x0        # 2101a4 <have_read_stdin>
2419:	0f 85 55 02 00 00    	jne    2674 <main+0xb04>
241f:	41 83 f5 01          	xor    r13d,0x1
2423:	41 0f b6 c5          	movzx  eax,r13b
2427:	e9 af fe ff ff       	jmp    22db <main+0x76b>
242c:	48 8d 05 4d 0a 00 00 	lea    rax,[rip+0xa4d]        # 2e80 <format_address_none>
2433:	c7 05 e3 dd 20 00 00 	mov    DWORD PTR [rip+0x20dde3],0x0        # 210220 <address_pad_len>
243a:	00 00 00
243d:	41 bf 01 00 00 00    	mov    r15d,0x1
2443:	48 89 05 b6 dd 20 00 	mov    QWORD PTR [rip+0x20ddb6],rax        # 210200 <format_address>
244a:	e9 81 f8 ff ff       	jmp    1cd0 <main+0x160>
244f:	41 83 fe 02          	cmp    r14d,0x2
2453:	0f 84 c7 03 00 00    	je     2820 <main+0xcb0>
2459:	41 83 fe 03          	cmp    r14d,0x3
245d:	0f 84 53 03 00 00    	je     27b6 <main+0xc46>
2463:	41 83 fe 01          	cmp    r14d,0x1
2467:	0f 84 38 05 00 00    	je     29a5 <main+0xe35>
246d:	41 83 fe 01          	cmp    r14d,0x1
2471:	0f 8e cb fc ff ff    	jle    2142 <main+0x5d2>
2477:	84 d2                	test   dl,dl
2479:	0f 84 c3 fc ff ff    	je     2142 <main+0x5d2>
247f:	49 8b 7c c5 08       	mov    rdi,QWORD PTR [r13+rax*8+0x8]
2484:	e8 97 53 00 00       	call   7820 <quote>
2489:	48 8d 35 25 8a 00 00 	lea    rsi,[rip+0x8a25]        # aeb5 <_IO_stdin_used+0x1f5>
2490:	48 89 c3             	mov    rbx,rax
2493:	ba 05 00 00 00       	mov    edx,0x5
2498:	31 ff                	xor    edi,edi
249a:	e8 11 f4 ff ff       	call   18b0 <dcgettext@plt>
249f:	48 89 d9             	mov    rcx,rbx
24a2:	48 89 c2             	mov    rdx,rax
24a5:	31 f6                	xor    esi,esi
24a7:	31 ff                	xor    edi,edi
24a9:	31 c0                	xor    eax,eax
24ab:	e8 f0 f5 ff ff       	call   1aa0 <error@plt>
24b0:	48 8d 35 61 9a 00 00 	lea    rsi,[rip+0x9a61]        # bf18 <_IO_stdin_used+0x1258>
24b7:	ba 05 00 00 00       	mov    edx,0x5
24bc:	31 ff                	xor    edi,edi
24be:	e8 ed f3 ff ff       	call   18b0 <dcgettext@plt>
24c3:	48 8d 15 16 a3 00 00 	lea    rdx,[rip+0xa316]        # c7e0 <bytes_to_oct_digits+0xa0>
24ca:	48 89 c1             	mov    rcx,rax
24cd:	31 f6                	xor    esi,esi
24cf:	31 ff                	xor    edi,edi
24d1:	31 c0                	xor    eax,eax
24d3:	e8 c8 f5 ff ff       	call   1aa0 <error@plt>
24d8:	bf 01 00 00 00       	mov    edi,0x1
24dd:	e8 8e 28 00 00       	call   4d70 <usage>
24e2:	80 3c 24 00          	cmp    BYTE PTR [rsp],0x0
24e6:	0f 85 9c 02 00 00    	jne    2788 <main+0xc18>
24ec:	41 83 f8 0f          	cmp    r8d,0xf
24f0:	0f 8f 69 05 00 00    	jg     2a5f <main+0xeef>
24f6:	b8 10 00 00 00       	mov    eax,0x10
24fb:	99                   	cdq
24fc:	41 f7 f8             	idiv   r8d
24ff:	41 0f af c0          	imul   eax,r8d
2503:	48 98                	cdqe
2505:	48 89 05 b4 dc 20 00 	mov    QWORD PTR [rip+0x20dcb4],rax        # 2101c0 <bytes_per_block>
250c:	4d 6b c9 28          	imul   r9,r9,0x28
2510:	49 8d 4a 04          	lea    rcx,[r10+0x4]
2514:	48 8b 3d a5 dc 20 00 	mov    rdi,QWORD PTR [rip+0x20dca5]        # 2101c0 <bytes_per_block>
251b:	45 31 c0             	xor    r8d,r8d
251e:	48 89 ce             	mov    rsi,rcx
2521:	4f 8d 4c 0a 04       	lea    r9,[r10+r9*1+0x4]
2526:	4c 8d 15 b3 a0 00 00 	lea    r10,[rip+0xa0b3]        # c5e0 <width_bytes>
252d:	eb 24                	jmp    2553 <main+0x9e3>
252f:	8b 06                	mov    eax,DWORD PTR [rsi]
2531:	31 d2                	xor    edx,edx
2533:	4d 63 1c 82          	movsxd r11,DWORD PTR [r10+rax*4]
2537:	48 89 f8             	mov    rax,rdi
253a:	49 f7 f3             	div    r11
253d:	8b 56 18             	mov    edx,DWORD PTR [rsi+0x18]
2540:	83 c2 01             	add    edx,0x1
2543:	0f af c2             	imul   eax,edx
2546:	48 98                	cdqe
2548:	49 39 c0             	cmp    r8,rax
254b:	4c 0f 42 c0          	cmovb  r8,rax
254f:	48 83 c6 28          	add    rsi,0x28
2553:	49 39 f1             	cmp    r9,rsi
2556:	75 d7                	jne    252f <main+0x9bf>
2558:	4c 8d 15 81 a0 00 00 	lea    r10,[rip+0xa081]        # c5e0 <width_bytes>
255f:	eb 1e                	jmp    257f <main+0xa0f>
2561:	8b 01                	mov    eax,DWORD PTR [rcx]
2563:	31 d2                	xor    edx,edx
2565:	48 83 c1 28          	add    rcx,0x28
2569:	4d 63 0c 82          	movsxd r9,DWORD PTR [r10+rax*4]
256d:	48 89 f8             	mov    rax,rdi
2570:	49 f7 f1             	div    r9
2573:	44 89 c2             	mov    edx,r8d
2576:	0f af 41 f0          	imul   eax,DWORD PTR [rcx-0x10]
257a:	29 c2                	sub    edx,eax
257c:	89 51 f4             	mov    DWORD PTR [rcx-0xc],edx
257f:	48 39 ce             	cmp    rsi,rcx
2582:	75 dd                	jne    2561 <main+0x9f1>
2584:	0f b6 2d 87 dc 20 00 	movzx  ebp,BYTE PTR [rip+0x20dc87]        # 210212 <flag_dump_strings>
258b:	40 84 ed             	test   bpl,bpl
258e:	0f 84 6a fd ff ff    	je     22fe <main+0x78e>
2594:	48 83 3d 7c dc 20 00 	cmp    QWORD PTR [rip+0x20dc7c],0x64        # 210218 <string_min>
259b:	64
259c:	bf 64 00 00 00       	mov    edi,0x64
25a1:	48 0f 43 3d 6f dc 20 	cmovae rdi,QWORD PTR [rip+0x20dc6f]        # 210218 <string_min>
25a8:	00
25a9:	48 89 7c 24 28       	mov    QWORD PTR [rsp+0x28],rdi
25ae:	e8 ad 58 00 00       	call   7e60 <xmalloc>
25b3:	4c 8b 35 3e dc 20 00 	mov    r14,QWORD PTR [rip+0x20dc3e]        # 2101f8 <n_bytes_to_skip>
25ba:	48 89 04 24          	mov    QWORD PTR [rsp],rax
25be:	48 8d 44 24 28       	lea    rax,[rsp+0x28]
25c3:	44 88 6c 24 08       	mov    BYTE PTR [rsp+0x8],r13b
25c8:	48 89 44 24 10       	mov    QWORD PTR [rsp+0x10],rax
25cd:	80 3d 1c dc 20 00 00 	cmp    BYTE PTR [rip+0x20dc1c],0x0        # 2101f0 <limit_bytes_to_format>
25d4:	74 23                	je     25f9 <main+0xa89>
25d6:	48 8b 15 3b dc 20 00 	mov    rdx,QWORD PTR [rip+0x20dc3b]        # 210218 <string_min>
25dd:	48 8b 05 fc db 20 00 	mov    rax,QWORD PTR [rip+0x20dbfc]        # 2101e0 <end_offset>
25e4:	48 39 d0             	cmp    rax,rdx
25e7:	0f 82 b5 05 00 00    	jb     2ba2 <main+0x1032>
25ed:	48 29 d0             	sub    rax,rdx
25f0:	4c 39 f0             	cmp    rax,r14
25f3:	0f 86 a9 05 00 00    	jbe    2ba2 <main+0x1032>
25f9:	4c 8b 2c 24          	mov    r13,QWORD PTR [rsp]
25fd:	4d 89 f4             	mov    r12,r14
2600:	4d 29 f5             	sub    r13,r14
2603:	eb 37                	jmp    263c <main+0xacc>
2605:	48 89 df             	mov    rdi,rbx
2608:	49 83 c4 01          	add    r12,0x1
260c:	e8 cf 22 00 00       	call   48e0 <read_char>
2611:	44 8b 7c 24 20       	mov    r15d,DWORD PTR [rsp+0x20]
2616:	21 c5                	and    ebp,eax
2618:	45 85 ff             	test   r15d,r15d
261b:	0f 88 22 02 00 00    	js     2843 <main+0xcd3>
2621:	e8 1a f5 ff ff       	call   1b40 <__ctype_b_loc@plt>
2626:	48 8b 30             	mov    rsi,QWORD PTR [rax]
2629:	49 63 cf             	movsxd rcx,r15d
262c:	f6 44 4e 01 40       	test   BYTE PTR [rsi+rcx*2+0x1],0x40
2631:	0f 84 e1 01 00 00    	je     2818 <main+0xca8>
2637:	47 88 7c 25 ff       	mov    BYTE PTR [r13+r12*1-0x1],r15b
263c:	4c 89 e0             	mov    rax,r12
263f:	4c 29 f0             	sub    rax,r14
2642:	48 39 05 cf db 20 00 	cmp    QWORD PTR [rip+0x20dbcf],rax        # 210218 <string_min>
2649:	77 ba                	ja     2605 <main+0xa95>
264b:	e9 13 01 00 00       	jmp    2763 <main+0xbf3>
2650:	48 8d 05 29 d5 20 00 	lea    rax,[rip+0x20d529]        # 20fb80 <default_file_list>
2657:	48 89 05 52 db 20 00 	mov    QWORD PTR [rip+0x20db52],rax        # 2101b0 <file_list>
265e:	e9 63 fb ff ff       	jmp    21c6 <main+0x656>
2663:	48 8d 3d 5c 88 00 00 	lea    rdi,[rip+0x885c]        # aec6 <_IO_stdin_used+0x206>
266a:	e8 31 14 00 00       	call   3aa0 <decode_format_string>
266f:	e9 36 fb ff ff       	jmp    21aa <main+0x63a>
2674:	48 8b 3d 35 da 20 00 	mov    rdi,QWORD PTR [rip+0x20da35]        # 2100b0 <stdin@@GLIBC_2.2.5>
267b:	e8 80 61 00 00       	call   8800 <rpl_fclose>
2680:	83 c0 01             	add    eax,0x1
2683:	0f 85 96 fd ff ff    	jne    241f <main+0x8af>
2689:	48 8d 35 fa 86 00 00 	lea    rsi,[rip+0x86fa]        # ad8a <_IO_stdin_used+0xca>
2690:	ba 05 00 00 00       	mov    edx,0x5
2695:	31 ff                	xor    edi,edi
2697:	e8 14 f2 ff ff       	call   18b0 <dcgettext@plt>
269c:	48 89 c3             	mov    rbx,rax
269f:	e8 4c f1 ff ff       	call   17f0 <__errno_location@plt>
26a4:	8b 30                	mov    esi,DWORD PTR [rax]
26a6:	48 89 da             	mov    rdx,rbx
26a9:	bf 01 00 00 00       	mov    edi,0x1
26ae:	31 c0                	xor    eax,eax
26b0:	e8 eb f3 ff ff       	call   1aa0 <error@plt>
26b5:	41 83 fe 02          	cmp    r14d,0x2
26b9:	0f 84 61 01 00 00    	je     2820 <main+0xcb0>
26bf:	41 83 fe 03          	cmp    r14d,0x3
26c3:	0f 84 ed 00 00 00    	je     27b6 <main+0xc46>
26c9:	41 83 fe 01          	cmp    r14d,0x1
26cd:	0f 85 9a fd ff ff    	jne    246d <main+0x8fd>
26d3:	49 8b 7c c5 00       	mov    rdi,QWORD PTR [r13+rax*8+0x0]
26d8:	48 89 de             	mov    rsi,rbx
26db:	e8 e0 08 00 00       	call   2fc0 <parse_old_offset>
26e0:	84 c0                	test   al,al
26e2:	0f 84 d3 02 00 00    	je     29bb <main+0xe4b>
26e8:	48 8b 44 24 20       	mov    rax,QWORD PTR [rsp+0x20]
26ed:	49 83 c5 08          	add    r13,0x8
26f1:	45 31 f6             	xor    r14d,r14d
26f4:	48 89 05 fd da 20 00 	mov    QWORD PTR [rip+0x20dafd],rax        # 2101f8 <n_bytes_to_skip>
26fb:	e9 42 fa ff ff       	jmp    2142 <main+0x5d2>
2700:	48 8b 44 24 18       	mov    rax,QWORD PTR [rsp+0x18]
2705:	48 2b 05 ec da 20 00 	sub    rax,QWORD PTR [rip+0x20daec]        # 2101f8 <n_bytes_to_skip>
270c:	e9 f7 fa ff ff       	jmp    2208 <main+0x698>
2711:	48 8b 74 24 10       	mov    rsi,QWORD PTR [rsp+0x10]
2716:	48 8b 3c 24          	mov    rdi,QWORD PTR [rsp]
271a:	e8 a1 58 00 00       	call   7fc0 <x2realloc>
271f:	48 89 04 24          	mov    QWORD PTR [rsp],rax
2723:	48 89 df             	mov    rdi,rbx
2726:	49 83 c4 01          	add    r12,0x1
272a:	e8 b1 21 00 00       	call   48e0 <read_char>
272f:	44 8b 7c 24 20       	mov    r15d,DWORD PTR [rsp+0x20]
2734:	21 c5                	and    ebp,eax
2736:	45 85 ff             	test   r15d,r15d
2739:	0f 88 04 01 00 00    	js     2843 <main+0xcd3>
273f:	0f 84 34 03 00 00    	je     2a79 <main+0xf09>
2745:	e8 f6 f3 ff ff       	call   1b40 <__ctype_b_loc@plt>
274a:	48 8b 30             	mov    rsi,QWORD PTR [rax]
274d:	49 63 d7             	movsxd rdx,r15d
2750:	f6 44 56 01 40       	test   BYTE PTR [rsi+rdx*2+0x1],0x40
2755:	0f 84 bd 00 00 00    	je     2818 <main+0xca8>
275b:	48 8b 04 24          	mov    rax,QWORD PTR [rsp]
275f:	46 88 3c 28          	mov    BYTE PTR [rax+r13*1],r15b
2763:	4d 89 e5             	mov    r13,r12
2766:	4d 29 f5             	sub    r13,r14
2769:	80 3d 80 da 20 00 00 	cmp    BYTE PTR [rip+0x20da80],0x0        # 2101f0 <limit_bytes_to_format>
2770:	74 0d                	je     277f <main+0xc0f>
2772:	4c 3b 25 67 da 20 00 	cmp    r12,QWORD PTR [rip+0x20da67]        # 2101e0 <end_offset>
2779:	0f 83 fa 02 00 00    	jae    2a79 <main+0xf09>
277f:	4c 3b 6c 24 28       	cmp    r13,QWORD PTR [rsp+0x28]
2784:	75 9d                	jne    2723 <main+0xbb3>
2786:	eb 89                	jmp    2711 <main+0xba1>
2788:	48 8b 74 24 10       	mov    rsi,QWORD PTR [rsp+0x10]
278d:	49 63 e8             	movsxd rbp,r8d
2790:	48 85 f6             	test   rsi,rsi
2793:	48 89 f0             	mov    rax,rsi
2796:	0f 84 2a 02 00 00    	je     29c6 <main+0xe56>
279c:	31 d2                	xor    edx,edx
279e:	48 f7 f5             	div    rbp
27a1:	48 85 d2             	test   rdx,rdx
27a4:	0f 85 1c 02 00 00    	jne    29c6 <main+0xe56>
27aa:	48 89 35 0f da 20 00 	mov    QWORD PTR [rip+0x20da0f],rsi        # 2101c0 <bytes_per_block>
27b1:	e9 56 fd ff ff       	jmp    250c <main+0x99c>
27b6:	84 d2                	test   dl,dl
27b8:	41 be 03 00 00 00    	mov    r14d,0x3
27be:	0f 84 7e f9 ff ff    	je     2142 <main+0x5d2>
27c4:	49 8b 7c c5 08       	mov    rdi,QWORD PTR [r13+rax*8+0x8]
27c9:	48 89 de             	mov    rsi,rbx
27cc:	e8 ef 07 00 00       	call   2fc0 <parse_old_offset>
27d1:	84 c0                	test   al,al
27d3:	0f 85 e6 03 00 00    	jne    2bbf <main+0x104f>
27d9:	41 be 03 00 00 00    	mov    r14d,0x3
27df:	80 3d 2b da 20 00 00 	cmp    BYTE PTR [rip+0x20da2b],0x0        # 210211 <traditional>
27e6:	0f 84 56 f9 ff ff    	je     2142 <main+0x5d2>
27ec:	48 63 05 c5 d8 20 00 	movsxd rax,DWORD PTR [rip+0x20d8c5]        # 2100b8 <optind@@GLIBC_2.2.5>
27f3:	e9 87 fc ff ff       	jmp    247f <main+0x90f>
27f8:	31 ff                	xor    edi,edi
27fa:	e8 71 25 00 00       	call   4d70 <usage>
27ff:	48 8b 41 28          	mov    rax,QWORD PTR [rcx+0x28]
2803:	48 3b 41 30          	cmp    rax,QWORD PTR [rcx+0x30]
2807:	0f 83 0d 04 00 00    	jae    2c1a <main+0x10aa>
280d:	48 8d 50 01          	lea    rdx,[rax+0x1]
2811:	48 89 51 28          	mov    QWORD PTR [rcx+0x28],rdx
2815:	c6 00 0a             	mov    BYTE PTR [rax],0xa
2818:	4d 89 e6             	mov    r14,r12
281b:	e9 ad fd ff ff       	jmp    25cd <main+0xa5d>
2820:	84 d2                	test   dl,dl
2822:	49 8b 7c c5 08       	mov    rdi,QWORD PTR [r13+rax*8+0x8]
2827:	75 32                	jne    285b <main+0xceb>
2829:	0f be 07             	movsx  eax,BYTE PTR [rdi]
282c:	3c 2b                	cmp    al,0x2b
282e:	74 2b                	je     285b <main+0xceb>
2830:	83 e8 30             	sub    eax,0x30
2833:	83 f8 09             	cmp    eax,0x9
2836:	76 23                	jbe    285b <main+0xceb>
2838:	41 be 02 00 00 00    	mov    r14d,0x2
283e:	e9 ff f8 ff ff       	jmp    2142 <main+0x5d2>
2843:	48 8b 3c 24          	mov    rdi,QWORD PTR [rsp]
2847:	44 0f b6 6c 24 08    	movzx  r13d,BYTE PTR [rsp+0x8]
284d:	e8 7e ef ff ff       	call   17d0 <free@plt>
2852:	40 0f b6 dd          	movzx  ebx,bpl
2856:	e9 b0 fb ff ff       	jmp    240b <main+0x89b>
285b:	48 8d 44 24 28       	lea    rax,[rsp+0x28]
2860:	48 89 c6             	mov    rsi,rax
2863:	e8 58 07 00 00       	call   2fc0 <parse_old_offset>
2868:	84 c0                	test   al,al
286a:	0f 84 fe 01 00 00    	je     2a6e <main+0xefe>
2870:	80 3d 9a d9 20 00 00 	cmp    BYTE PTR [rip+0x20d99a],0x0        # 210211 <traditional>
2877:	0f 85 e0 02 00 00    	jne    2b5d <main+0xfed>
287d:	48 8b 44 24 28       	mov    rax,QWORD PTR [rsp+0x28]
2882:	41 be 01 00 00 00    	mov    r14d,0x1
2888:	48 89 05 69 d9 20 00 	mov    QWORD PTR [rip+0x20d969],rax        # 2101f8 <n_bytes_to_skip>
288f:	48 63 05 22 d8 20 00 	movsxd rax,DWORD PTR [rip+0x20d822]        # 2100b8 <optind@@GLIBC_2.2.5>
2896:	49 8b 54 c5 00       	mov    rdx,QWORD PTR [r13+rax*8+0x0]
289b:	49 89 54 c5 08       	mov    QWORD PTR [r13+rax*8+0x8],rdx
28a0:	49 83 c5 08          	add    r13,0x8
28a4:	e9 99 f8 ff ff       	jmp    2142 <main+0x5d2>
28a9:	48 8d 05 40 23 00 00 	lea    rax,[rip+0x2340]        # 4bf0 <format_address_paren>
28b0:	c7 05 6a d9 20 00 08 	mov    DWORD PTR [rip+0x20d96a],0x8        # 210224 <address_base>
28b7:	00 00 00
28ba:	c7 05 5c d9 20 00 07 	mov    DWORD PTR [rip+0x20d95c],0x7        # 210220 <address_pad_len>
28c1:	00 00 00
28c4:	48 89 05 35 d9 20 00 	mov    QWORD PTR [rip+0x20d935],rax        # 210200 <format_address>
28cb:	e9 9d f8 ff ff       	jmp    216d <main+0x5fd>
28d0:	48 8d 44 24 28       	lea    rax,[rsp+0x28]
28d5:	44 89 e3             	mov    ebx,r12d
28d8:	31 ed                	xor    ebp,ebp
28da:	45 31 ff             	xor    r15d,r15d
28dd:	44 88 2c 24          	mov    BYTE PTR [rsp],r13b
28e1:	49 89 c4             	mov    r12,rax
28e4:	eb 2c                	jmp    2912 <main+0xda2>
28e6:	0f 85 ac 03 00 00    	jne    2c98 <main+0x1128>
28ec:	83 f5 01             	xor    ebp,0x1
28ef:	4c 89 f7             	mov    rdi,r14
28f2:	4c 89 e9             	mov    rcx,r13
28f5:	40 0f b6 c5          	movzx  eax,bpl
28f9:	48 8b 54 c4 30       	mov    rdx,QWORD PTR [rsp+rax*8+0x30]
28fe:	49 89 c7             	mov    r15,rax
2901:	e8 3a 20 00 00       	call   4940 <write_block>
2906:	4c 03 74 24 28       	add    r14,QWORD PTR [rsp+0x28]
290b:	48 8b 3d ae d8 20 00 	mov    rdi,QWORD PTR [rip+0x20d8ae]        # 2101c0 <bytes_per_block>
2912:	49 63 c7             	movsxd rax,r15d
2915:	4c 89 e2             	mov    rdx,r12
2918:	4c 8b 6c c4 30       	mov    r13,QWORD PTR [rsp+rax*8+0x30]
291d:	4c 89 ee             	mov    rsi,r13
2920:	e8 7b 23 00 00       	call   4ca0 <read_block>
2925:	48 8b 74 24 28       	mov    rsi,QWORD PTR [rsp+0x28]
292a:	21 c3                	and    ebx,eax
292c:	48 3b 35 8d d8 20 00 	cmp    rsi,QWORD PTR [rip+0x20d88d]        # 2101c0 <bytes_per_block>
2933:	73 b1                	jae    28e6 <main+0xd76>
2935:	48 85 f6             	test   rsi,rsi
2938:	44 0f b6 2c 24       	movzx  r13d,BYTE PTR [rsp]
293d:	49 89 f0             	mov    r8,rsi
2940:	0f 84 8f fa ff ff    	je     23d5 <main+0x865>
2946:	4c 8b 15 83 d8 20 00 	mov    r10,QWORD PTR [rip+0x20d883]        # 2101d0 <n_specs>
294d:	4c 8b 25 84 d8 20 00 	mov    r12,QWORD PTR [rip+0x20d884]        # 2101d8 <spec>
2954:	4c 8d 1d 85 9c 00 00 	lea    r11,[rip+0x9c85]        # c5e0 <width_bytes>
295b:	45 31 c9             	xor    r9d,r9d
295e:	be 01 00 00 00       	mov    esi,0x1
2963:	4d 39 d1             	cmp    r9,r10
2966:	48 63 f6             	movsxd rsi,esi
2969:	0f 84 9f 00 00 00    	je     2a0e <main+0xe9e>
296f:	49 6b c1 28          	imul   rax,r9,0x28
2973:	41 8b 44 04 04       	mov    eax,DWORD PTR [r12+rax*1+0x4]
2978:	49 63 3c 83          	movsxd rdi,DWORD PTR [r11+rax*4]
297c:	48 89 f0             	mov    rax,rsi
297f:	48 89 f9             	mov    rcx,rdi
2982:	eb 03                	jmp    2987 <main+0xe17>
2984:	48 89 d1             	mov    rcx,rdx
2987:	31 d2                	xor    edx,edx
2989:	48 f7 f1             	div    rcx
298c:	48 89 c8             	mov    rax,rcx
298f:	48 85 d2             	test   rdx,rdx
2992:	75 f0                	jne    2984 <main+0xe14>
2994:	48 89 f8             	mov    rax,rdi
2997:	31 d2                	xor    edx,edx
2999:	49 83 c1 01          	add    r9,0x1
299d:	48 f7 f1             	div    rcx
29a0:	0f af f0             	imul   esi,eax
29a3:	eb be                	jmp    2963 <main+0xdf3>
29a5:	84 d2                	test   dl,dl
29a7:	49 8b 4c c5 00       	mov    rcx,QWORD PTR [r13+rax*8+0x0]
29ac:	0f 85 21 fd ff ff    	jne    26d3 <main+0xb63>
29b2:	80 39 2b             	cmp    BYTE PTR [rcx],0x2b
29b5:	0f 84 18 fd ff ff    	je     26d3 <main+0xb63>
29bb:	41 be 01 00 00 00    	mov    r14d,0x1
29c1:	e9 7c f7 ff ff       	jmp    2142 <main+0x5d2>
29c6:	48 8d 35 a3 95 00 00 	lea    rsi,[rip+0x95a3]        # bf70 <_IO_stdin_used+0x12b0>
29cd:	ba 05 00 00 00       	mov    edx,0x5
29d2:	31 ff                	xor    edi,edi
29d4:	44 89 04 24          	mov    DWORD PTR [rsp],r8d
29d8:	e8 d3 ee ff ff       	call   18b0 <dcgettext@plt>
29dd:	44 8b 04 24          	mov    r8d,DWORD PTR [rsp]
29e1:	48 8b 4c 24 10       	mov    rcx,QWORD PTR [rsp+0x10]
29e6:	48 89 c2             	mov    rdx,rax
29e9:	31 f6                	xor    esi,esi
29eb:	31 ff                	xor    edi,edi
29ed:	31 c0                	xor    eax,eax
29ef:	e8 ac f0 ff ff       	call   1aa0 <error@plt>
29f4:	48 89 2d c5 d7 20 00 	mov    QWORD PTR [rip+0x20d7c5],rbp        # 2101c0 <bytes_per_block>
29fb:	4c 8b 0d ce d7 20 00 	mov    r9,QWORD PTR [rip+0x20d7ce]        # 2101d0 <n_specs>
2a02:	4c 8b 15 cf d7 20 00 	mov    r10,QWORD PTR [rip+0x20d7cf]        # 2101d8 <spec>
2a09:	e9 fe fa ff ff       	jmp    250c <main+0x99c>
2a0e:	4a 8d 44 06 ff       	lea    rax,[rsi+r8*1-0x1]
2a13:	31 d2                	xor    edx,edx
2a15:	4e 8b 64 fc 30       	mov    r12,QWORD PTR [rsp+r15*8+0x30]
2a1a:	4c 89 04 24          	mov    QWORD PTR [rsp],r8
2a1e:	48 f7 f6             	div    rsi
2a21:	4b 8d 3c 04          	lea    rdi,[r12+r8*1]
2a25:	48 0f af c6          	imul   rax,rsi
2a29:	31 f6                	xor    esi,esi
2a2b:	4c 29 c0             	sub    rax,r8
2a2e:	48 89 c2             	mov    rdx,rax
2a31:	e8 4a ef ff ff       	call   1980 <memset@plt>
2a36:	89 e8                	mov    eax,ebp
2a38:	4c 8b 04 24          	mov    r8,QWORD PTR [rsp]
2a3c:	4c 89 f7             	mov    rdi,r14
2a3f:	83 f0 01             	xor    eax,0x1
2a42:	4c 89 e1             	mov    rcx,r12
2a45:	0f b6 c0             	movzx  eax,al
2a48:	48 8b 54 c4 30       	mov    rdx,QWORD PTR [rsp+rax*8+0x30]
2a4d:	4c 89 c6             	mov    rsi,r8
2a50:	e8 eb 1e 00 00       	call   4940 <write_block>
2a55:	4c 03 74 24 28       	add    r14,QWORD PTR [rsp+0x28]
2a5a:	e9 76 f9 ff ff       	jmp    23d5 <main+0x865>
2a5f:	4d 63 c0             	movsxd r8,r8d
2a62:	4c 89 05 57 d7 20 00 	mov    QWORD PTR [rip+0x20d757],r8        # 2101c0 <bytes_per_block>
2a69:	e9 9e fa ff ff       	jmp    250c <main+0x99c>
2a6e:	41 be 02 00 00 00    	mov    r14d,0x2
2a74:	e9 66 fd ff ff       	jmp    27df <main+0xc6f>
2a79:	4c 8b 3c 24          	mov    r15,QWORD PTR [rsp]
2a7d:	4c 89 ef             	mov    rdi,r13
2a80:	be 20 00 00 00       	mov    esi,0x20
2a85:	48 f7 d7             	not    rdi
2a88:	4c 01 e7             	add    rdi,r12
2a8b:	43 c6 04 2f 00       	mov    BYTE PTR [r15+r13*1],0x0
2a90:	4d 89 fd             	mov    r13,r15
2a93:	ff 15 67 d7 20 00    	call   QWORD PTR [rip+0x20d767]        # 210200 <format_address>
2a99:	41 0f b6 45 00       	movzx  eax,BYTE PTR [r13+0x0]
2a9e:	48 8b 0d 03 d6 20 00 	mov    rcx,QWORD PTR [rip+0x20d603]        # 2100a8 <stdout@@GLIBC_2.2.5>
2aa5:	0f be d0             	movsx  edx,al
2aa8:	85 d2                	test   edx,edx
2aaa:	89 54 24 20          	mov    DWORD PTR [rsp+0x20],edx
2aae:	0f 84 4b fd ff ff    	je     27ff <main+0xc8f>
2ab4:	8d 50 f9             	lea    edx,[rax-0x7]
2ab7:	80 fa 06             	cmp    dl,0x6
2aba:	0f 87 83 00 00 00    	ja     2b43 <main+0xfd3>
2ac0:	48 8d 35 bd 99 00 00 	lea    rsi,[rip+0x99bd]        # c484 <_IO_stdin_used+0x17c4>
2ac7:	0f b6 d2             	movzx  edx,dl
2aca:	48 63 04 96          	movsxd rax,DWORD PTR [rsi+rdx*4]
2ace:	ba 02 00 00 00       	mov    edx,0x2
2ad3:	48 01 f0             	add    rax,rsi
2ad6:	be 01 00 00 00       	mov    esi,0x1
2adb:	ff e0                	jmp    rax
2add:	48 8d 3d 7c 82 00 00 	lea    rdi,[rip+0x827c]        # ad60 <_IO_stdin_used+0xa0>
2ae4:	e8 57 ef ff ff       	call   1a40 <fwrite_unlocked@plt>
2ae9:	49 83 c5 01          	add    r13,0x1
2aed:	eb aa                	jmp    2a99 <main+0xf29>
2aef:	48 8d 3d 76 82 00 00 	lea    rdi,[rip+0x8276]        # ad6c <_IO_stdin_used+0xac>
2af6:	e8 45 ef ff ff       	call   1a40 <fwrite_unlocked@plt>
2afb:	eb ec                	jmp    2ae9 <main+0xf79>
2afd:	48 8d 3d 5f 82 00 00 	lea    rdi,[rip+0x825f]        # ad63 <_IO_stdin_used+0xa3>
2b04:	e8 37 ef ff ff       	call   1a40 <fwrite_unlocked@plt>
2b09:	eb de                	jmp    2ae9 <main+0xf79>
2b0b:	48 8d 3d 57 82 00 00 	lea    rdi,[rip+0x8257]        # ad69 <_IO_stdin_used+0xa9>
2b12:	e8 29 ef ff ff       	call   1a40 <fwrite_unlocked@plt>
2b17:	eb d0                	jmp    2ae9 <main+0xf79>
2b19:	48 8d 3d 3d 82 00 00 	lea    rdi,[rip+0x823d]        # ad5d <_IO_stdin_used+0x9d>
2b20:	e8 1b ef ff ff       	call   1a40 <fwrite_unlocked@plt>
2b25:	eb c2                	jmp    2ae9 <main+0xf79>
2b27:	48 8d 3d 2c 82 00 00 	lea    rdi,[rip+0x822c]        # ad5a <_IO_stdin_used+0x9a>
2b2e:	e8 0d ef ff ff       	call   1a40 <fwrite_unlocked@plt>
2b33:	eb b4                	jmp    2ae9 <main+0xf79>
2b35:	48 8d 3d 2a 82 00 00 	lea    rdi,[rip+0x822a]        # ad66 <_IO_stdin_used+0xa6>
2b3c:	e8 ff ee ff ff       	call   1a40 <fwrite_unlocked@plt>
2b41:	eb a6                	jmp    2ae9 <main+0xf79>
2b43:	48 8b 51 28          	mov    rdx,QWORD PTR [rcx+0x28]
2b47:	48 3b 51 30          	cmp    rdx,QWORD PTR [rcx+0x30]
2b4b:	0f 83 db 00 00 00    	jae    2c2c <main+0x10bc>
2b51:	48 8d 72 01          	lea    rsi,[rdx+0x1]
2b55:	48 89 71 28          	mov    QWORD PTR [rcx+0x28],rsi
2b59:	88 02                	mov    BYTE PTR [rdx],al
2b5b:	eb 8c                	jmp    2ae9 <main+0xf79>
2b5d:	48 63 05 54 d5 20 00 	movsxd rax,DWORD PTR [rip+0x20d554]        # 2100b8 <optind@@GLIBC_2.2.5>
2b64:	48 89 de             	mov    rsi,rbx
2b67:	49 8b 7c c5 00       	mov    rdi,QWORD PTR [r13+rax*8+0x0]
2b6c:	e8 4f 04 00 00       	call   2fc0 <parse_old_offset>
2b71:	84 c0                	test   al,al
2b73:	0f 84 04 fd ff ff    	je     287d <main+0xd0d>
2b79:	48 8b 44 24 20       	mov    rax,QWORD PTR [rsp+0x20]
2b7e:	c6 05 8b d6 20 00 01 	mov    BYTE PTR [rip+0x20d68b],0x1        # 210210 <flag_pseudo_start>
2b85:	49 83 c5 10          	add    r13,0x10
2b89:	45 31 f6             	xor    r14d,r14d
2b8c:	48 89 05 65 d6 20 00 	mov    QWORD PTR [rip+0x20d665],rax        # 2101f8 <n_bytes_to_skip>
2b93:	48 8b 44 24 28       	mov    rax,QWORD PTR [rsp+0x28]
2b98:	48 89 44 24 18       	mov    QWORD PTR [rsp+0x18],rax
2b9d:	e9 a0 f5 ff ff       	jmp    2142 <main+0x5d2>
2ba2:	48 8b 3c 24          	mov    rdi,QWORD PTR [rsp]
2ba6:	44 0f b6 6c 24 08    	movzx  r13d,BYTE PTR [rsp+0x8]
2bac:	e8 1f ec ff ff       	call   17d0 <free@plt>
2bb1:	31 ff                	xor    edi,edi
2bb3:	e8 d8 18 00 00       	call   4490 <check_and_close>
2bb8:	21 c5                	and    ebp,eax
2bba:	e9 93 fc ff ff       	jmp    2852 <main+0xce2>
2bbf:	48 63 05 f2 d4 20 00 	movsxd rax,DWORD PTR [rip+0x20d4f2]        # 2100b8 <optind@@GLIBC_2.2.5>
2bc6:	48 8d 74 24 28       	lea    rsi,[rsp+0x28]
2bcb:	49 8b 7c c5 10       	mov    rdi,QWORD PTR [r13+rax*8+0x10]
2bd0:	e8 eb 03 00 00       	call   2fc0 <parse_old_offset>
2bd5:	84 c0                	test   al,al
2bd7:	0f 84 fc fb ff ff    	je     27d9 <main+0xc69>
2bdd:	48 8b 44 24 20       	mov    rax,QWORD PTR [rsp+0x20]
2be2:	c6 05 27 d6 20 00 01 	mov    BYTE PTR [rip+0x20d627],0x1        # 210210 <flag_pseudo_start>
2be9:	41 be 01 00 00 00    	mov    r14d,0x1
2bef:	48 89 05 02 d6 20 00 	mov    QWORD PTR [rip+0x20d602],rax        # 2101f8 <n_bytes_to_skip>
2bf6:	48 8b 44 24 28       	mov    rax,QWORD PTR [rsp+0x28]
2bfb:	48 89 44 24 18       	mov    QWORD PTR [rsp+0x18],rax
2c00:	48 63 05 b1 d4 20 00 	movsxd rax,DWORD PTR [rip+0x20d4b1]        # 2100b8 <optind@@GLIBC_2.2.5>
2c07:	49 8b 54 c5 00       	mov    rdx,QWORD PTR [r13+rax*8+0x0]
2c0c:	49 89 54 c5 10       	mov    QWORD PTR [r13+rax*8+0x10],rdx
2c11:	49 83 c5 10          	add    r13,0x10
2c15:	e9 28 f5 ff ff       	jmp    2142 <main+0x5d2>
2c1a:	be 0a 00 00 00       	mov    esi,0xa
2c1f:	48 89 cf             	mov    rdi,rcx
2c22:	e8 f9 ec ff ff       	call   1920 <__overflow@plt>
2c27:	e9 ec fb ff ff       	jmp    2818 <main+0xca8>
2c2c:	0f b6 f0             	movzx  esi,al
2c2f:	48 89 cf             	mov    rdi,rcx
2c32:	e8 e9 ec ff ff       	call   1920 <__overflow@plt>
2c37:	e9 ad fe ff ff       	jmp    2ae9 <main+0xf79>
2c3c:	48 8d 35 05 93 00 00 	lea    rsi,[rip+0x9305]        # bf48 <_IO_stdin_used+0x1288>
2c43:	ba 05 00 00 00       	mov    edx,0x5
2c48:	31 ff                	xor    edi,edi
2c4a:	e8 61 ec ff ff       	call   18b0 <dcgettext@plt>
2c4f:	31 f6                	xor    esi,esi
2c51:	48 89 c2             	mov    rdx,rax
2c54:	bf 01 00 00 00       	mov    edi,0x1
2c59:	31 c0                	xor    eax,eax
2c5b:	e8 40 ee ff ff       	call   1aa0 <error@plt>
2c60:	ba 01 00 00 00       	mov    edx,0x1
2c65:	e9 22 f5 ff ff       	jmp    218c <main+0x61c>
2c6a:	e8 41 54 00 00       	call   80b0 <xalloc_die>
2c6f:	b9 01 00 00 00       	mov    ecx,0x1
2c74:	e9 95 f6 ff ff       	jmp    230e <main+0x79e>
2c79:	48 8d 0d 2b 98 00 00 	lea    rcx,[rip+0x982b]        # c4ab <__PRETTY_FUNCTION__.7577>
2c80:	48 8d 35 65 80 00 00 	lea    rsi,[rip+0x8065]        # acec <_IO_stdin_used+0x2c>
2c87:	48 8d 3d 12 93 00 00 	lea    rdi,[rip+0x9312]        # bfa0 <_IO_stdin_used+0x12e0>
2c8e:	ba 76 05 00 00       	mov    edx,0x576
2c93:	e8 b8 ec ff ff       	call   1950 <__assert_fail@plt>
2c98:	48 8d 0d 0c 98 00 00 	lea    rcx,[rip+0x980c]        # c4ab <__PRETTY_FUNCTION__.7577>
2c9f:	48 8d 35 46 80 00 00 	lea    rsi,[rip+0x8046]        # acec <_IO_stdin_used+0x2c>
2ca6:	48 8d 3d f3 92 00 00 	lea    rdi,[rip+0x92f3]        # bfa0 <_IO_stdin_used+0x12e0>
2cad:	ba 84 05 00 00       	mov    edx,0x584
2cb2:	e8 99 ec ff ff       	call   1950 <__assert_fail@plt>
2cb7:	e8 24 ec ff ff       	call   18e0 <__stack_chk_fail@plt>
2cbc:	48 8d 35 dd 91 00 00 	lea    rsi,[rip+0x91dd]        # bea0 <_IO_stdin_used+0x11e0>
2cc3:	ba 05 00 00 00       	mov    edx,0x5
2cc8:	31 ff                	xor    edi,edi
2cca:	e8 e1 eb ff ff       	call   18b0 <dcgettext@plt>
2ccf:	41 0f be cf          	movsx  ecx,r15b
2cd3:	48 89 c2             	mov    rdx,rax
2cd6:	31 f6                	xor    esi,esi
2cd8:	bf 01 00 00 00       	mov    edi,0x1
2cdd:	31 c0                	xor    eax,eax
2cdf:	e8 bc ed ff ff       	call   1aa0 <error@plt>
2ce4:	4c 8b 05 d5 d3 20 00 	mov    r8,QWORD PTR [rip+0x20d3d5]        # 2100c0 <optarg@@GLIBC_2.2.5>
2ceb:	8b 74 24 20          	mov    esi,DWORD PTR [rsp+0x20]
2cef:	48 8d 0d ea cc 20 00 	lea    rcx,[rip+0x20ccea]        # 20f9e0 <long_options>
2cf6:	ba 77 00 00 00       	mov    edx,0x77
2cfb:	89 c7                	mov    edi,eax
2cfd:	e8 2e 56 00 00       	call   8330 <xstrtol_fatal>
2d02:	48 8d 35 df 91 00 00 	lea    rsi,[rip+0x91df]        # bee8 <_IO_stdin_used+0x1228>
2d09:	ba 05 00 00 00       	mov    edx,0x5
2d0e:	31 ff                	xor    edi,edi
2d10:	e8 9b eb ff ff       	call   18b0 <dcgettext@plt>
2d15:	31 f6                	xor    esi,esi
2d17:	48 89 c2             	mov    rdx,rax
2d1a:	bf 01 00 00 00       	mov    edi,0x1
2d1f:	31 c0                	xor    eax,eax
2d21:	e8 7a ed ff ff       	call   1aa0 <error@plt>
2d26:	4c 8b 05 93 d3 20 00 	mov    r8,QWORD PTR [rip+0x20d393]        # 2100c0 <optarg@@GLIBC_2.2.5>
2d2d:	8b 74 24 20          	mov    esi,DWORD PTR [rsp+0x20]
2d31:	48 8d 0d a8 cc 20 00 	lea    rcx,[rip+0x20cca8]        # 20f9e0 <long_options>
2d38:	ba 6a 00 00 00       	mov    edx,0x6a
2d3d:	89 c7                	mov    edi,eax
2d3f:	e8 ec 55 00 00       	call   8330 <xstrtol_fatal>
2d44:	4c 8b 05 75 d3 20 00 	mov    r8,QWORD PTR [rip+0x20d375]        # 2100c0 <optarg@@GLIBC_2.2.5>
2d4b:	8b 74 24 20          	mov    esi,DWORD PTR [rsp+0x20]
2d4f:	48 8d 0d 8a cc 20 00 	lea    rcx,[rip+0x20cc8a]        # 20f9e0 <long_options>
2d56:	ba 53 00 00 00       	mov    edx,0x53
2d5b:	89 c7                	mov    edi,eax
2d5d:	e8 ce 55 00 00       	call   8330 <xstrtol_fatal>
2d62:	66 2e 0f 1f 84 00 00 	nop    WORD PTR cs:[rax+rax*1+0x0]
2d69:	00 00 00
2d6c:	0f 1f 40 00          	nop    DWORD PTR [rax+0x0]

0000000000002d70 <_start>:
2d70:	31 ed                	xor    ebp,ebp
2d72:	49 89 d1             	mov    r9,rdx
2d75:	5e                   	pop    rsi
2d76:	48 89 e2             	mov    rdx,rsp
2d79:	48 83 e4 f0          	and    rsp,0xfffffffffffffff0
2d7d:	50                   	push   rax
2d7e:	54                   	push   rsp
2d7f:	4c 8d 05 fa 7e 00 00 	lea    r8,[rip+0x7efa]        # ac80 <__libc_csu_fini>
2d86:	48 8d 0d 83 7e 00 00 	lea    rcx,[rip+0x7e83]        # ac10 <__libc_csu_init>
2d8d:	48 8d 3d dc ed ff ff 	lea    rdi,[rip+0xffffffffffffeddc]        # 1b70 <main>
2d94:	ff 15 3e d2 20 00    	call   QWORD PTR [rip+0x20d23e]        # 20ffd8 <__libc_start_main@GLIBC_2.2.5>
2d9a:	f4                   	hlt
2d9b:	0f 1f 44 00 00       	nop    DWORD PTR [rax+rax*1+0x0]

0000000000002da0 <deregister_tm_clones>:
2da0:	48 8d 3d f9 d2 20 00 	lea    rdi,[rip+0x20d2f9]        # 2100a0 <__progname@@GLIBC_2.2.5>
2da7:	55                   	push   rbp
2da8:	48 8d 05 f1 d2 20 00 	lea    rax,[rip+0x20d2f1]        # 2100a0 <__progname@@GLIBC_2.2.5>
2daf:	48 39 f8             	cmp    rax,rdi
2db2:	48 89 e5             	mov    rbp,rsp
2db5:	74 19                	je     2dd0 <deregister_tm_clones+0x30>
2db7:	48 8b 05 12 d2 20 00 	mov    rax,QWORD PTR [rip+0x20d212]        # 20ffd0 <_ITM_deregisterTMCloneTable>
2dbe:	48 85 c0             	test   rax,rax
2dc1:	74 0d                	je     2dd0 <deregister_tm_clones+0x30>
2dc3:	5d                   	pop    rbp
2dc4:	ff e0                	jmp    rax
2dc6:	66 2e 0f 1f 84 00 00 	nop    WORD PTR cs:[rax+rax*1+0x0]
2dcd:	00 00 00
2dd0:	5d                   	pop    rbp
2dd1:	c3                   	ret
2dd2:	0f 1f 40 00          	nop    DWORD PTR [rax+0x0]
2dd6:	66 2e 0f 1f 84 00 00 	nop    WORD PTR cs:[rax+rax*1+0x0]
2ddd:	00 00 00

0000000000002de0 <register_tm_clones>:
2de0:	48 8d 3d b9 d2 20 00 	lea    rdi,[rip+0x20d2b9]        # 2100a0 <__progname@@GLIBC_2.2.5>
2de7:	48 8d 35 b2 d2 20 00 	lea    rsi,[rip+0x20d2b2]        # 2100a0 <__progname@@GLIBC_2.2.5>
2dee:	55                   	push   rbp
2def:	48 29 fe             	sub    rsi,rdi
2df2:	48 89 e5             	mov    rbp,rsp
2df5:	48 c1 fe 03          	sar    rsi,0x3
2df9:	48 89 f0             	mov    rax,rsi
2dfc:	48 c1 e8 3f          	shr    rax,0x3f
2e00:	48 01 c6             	add    rsi,rax
2e03:	48 d1 fe             	sar    rsi,1
2e06:	74 18                	je     2e20 <register_tm_clones+0x40>
2e08:	48 8b 05 d9 d1 20 00 	mov    rax,QWORD PTR [rip+0x20d1d9]        # 20ffe8 <_ITM_registerTMCloneTable>
2e0f:	48 85 c0             	test   rax,rax
2e12:	74 0c                	je     2e20 <register_tm_clones+0x40>
2e14:	5d                   	pop    rbp
2e15:	ff e0                	jmp    rax
2e17:	66 0f 1f 84 00 00 00 	nop    WORD PTR [rax+rax*1+0x0]
2e1e:	00 00
2e20:	5d                   	pop    rbp
2e21:	c3                   	ret
2e22:	0f 1f 40 00          	nop    DWORD PTR [rax+0x0]
2e26:	66 2e 0f 1f 84 00 00 	nop    WORD PTR cs:[rax+rax*1+0x0]
2e2d:	00 00 00

0000000000002e30 <__do_global_dtors_aux>:
2e30:	80 3d b1 d2 20 00 00 	cmp    BYTE PTR [rip+0x20d2b1],0x0        # 2100e8 <completed.7697>
2e37:	75 2f                	jne    2e68 <__do_global_dtors_aux+0x38>
2e39:	48 83 3d af d1 20 00 	cmp    QWORD PTR [rip+0x20d1af],0x0        # 20fff0 <__cxa_finalize@GLIBC_2.2.5>
2e40:	00
2e41:	55                   	push   rbp
2e42:	48 89 e5             	mov    rbp,rsp
2e45:	74 0c                	je     2e53 <__do_global_dtors_aux+0x23>
2e47:	48 8b 3d ba d1 20 00 	mov    rdi,QWORD PTR [rip+0x20d1ba]        # 210008 <__dso_handle>
2e4e:	e8 0d ed ff ff       	call   1b60 <__cxa_finalize@plt>
2e53:	e8 48 ff ff ff       	call   2da0 <deregister_tm_clones>
2e58:	c6 05 89 d2 20 00 01 	mov    BYTE PTR [rip+0x20d289],0x1        # 2100e8 <completed.7697>
2e5f:	5d                   	pop    rbp
2e60:	c3                   	ret
2e61:	0f 1f 80 00 00 00 00 	nop    DWORD PTR [rax+0x0]
2e68:	f3 c3                	repz ret
2e6a:	66 0f 1f 44 00 00    	nop    WORD PTR [rax+rax*1+0x0]

0000000000002e70 <frame_dummy>:
2e70:	55                   	push   rbp
2e71:	48 89 e5             	mov    rbp,rsp
2e74:	5d                   	pop    rbp
2e75:	e9 66 ff ff ff       	jmp    2de0 <register_tm_clones>
2e7a:	66 0f 1f 44 00 00    	nop    WORD PTR [rax+rax*1+0x0]

0000000000002e80 <format_address_none>:
2e80:	f3 c3                	repz ret
2e82:	0f 1f 40 00          	nop    DWORD PTR [rax+0x0]
2e86:	66 2e 0f 1f 84 00 00 	nop    WORD PTR cs:[rax+rax*1+0x0]
2e8d:	00 00 00

0000000000002e90 <format_address_std>:
2e90:	48 83 ec 38          	sub    rsp,0x38
2e94:	48 89 f9             	mov    rcx,rdi
2e97:	64 48 8b 04 25 28 00 	mov    rax,QWORD PTR fs:0x28
2e9e:	00 00
2ea0:	48 89 44 24 28       	mov    QWORD PTR [rsp+0x28],rax
2ea5:	31 c0                	xor    eax,eax
2ea7:	48 63 05 72 d3 20 00 	movsxd rax,DWORD PTR [rip+0x20d372]        # 210220 <address_pad_len>
2eae:	48 8d 7c 24 17       	lea    rdi,[rsp+0x17]
2eb3:	40 88 74 24 17       	mov    BYTE PTR [rsp+0x17],sil
2eb8:	c6 44 24 18 00       	mov    BYTE PTR [rsp+0x18],0x0
2ebd:	48 89 fe             	mov    rsi,rdi
2ec0:	48 29 c6             	sub    rsi,rax
2ec3:	8b 05 5b d3 20 00    	mov    eax,DWORD PTR [rip+0x20d35b]        # 210224 <address_base>
2ec9:	83 f8 0a             	cmp    eax,0xa
2ecc:	74 72                	je     2f40 <format_address_std+0xb0>
2ece:	83 f8 10             	cmp    eax,0x10
2ed1:	0f 84 a9 00 00 00    	je     2f80 <format_address_std+0xf0>
2ed7:	83 f8 08             	cmp    eax,0x8
2eda:	74 44                	je     2f20 <format_address_std+0x90>
2edc:	48 39 fe             	cmp    rsi,rdi
2edf:	48 89 f8             	mov    rax,rdi
2ee2:	73 13                	jae    2ef7 <format_address_std+0x67>
2ee4:	0f 1f 40 00          	nop    DWORD PTR [rax+0x0]
2ee8:	48 83 e8 01          	sub    rax,0x1
2eec:	c6 00 30             	mov    BYTE PTR [rax],0x30
2eef:	48 39 c6             	cmp    rsi,rax
2ef2:	75 f4                	jne    2ee8 <format_address_std+0x58>
2ef4:	48 89 f7             	mov    rdi,rsi
2ef7:	48 8b 35 aa d1 20 00 	mov    rsi,QWORD PTR [rip+0x20d1aa]        # 2100a8 <stdout@@GLIBC_2.2.5>
2efe:	e8 ad ea ff ff       	call   19b0 <fputs_unlocked@plt>
2f03:	48 8b 44 24 28       	mov    rax,QWORD PTR [rsp+0x28]
2f08:	64 48 33 04 25 28 00 	xor    rax,QWORD PTR fs:0x28
2f0f:	00 00
2f11:	0f 85 97 00 00 00    	jne    2fae <format_address_std+0x11e>
2f17:	48 83 c4 38          	add    rsp,0x38
2f1b:	c3                   	ret
2f1c:	0f 1f 40 00          	nop    DWORD PTR [rax+0x0]
2f20:	89 c8                	mov    eax,ecx
2f22:	48 c1 e9 03          	shr    rcx,0x3
2f26:	48 83 ef 01          	sub    rdi,0x1
2f2a:	83 e0 07             	and    eax,0x7
2f2d:	83 c0 30             	add    eax,0x30
2f30:	48 85 c9             	test   rcx,rcx
2f33:	88 07                	mov    BYTE PTR [rdi],al
2f35:	75 e9                	jne    2f20 <format_address_std+0x90>
2f37:	eb a3                	jmp    2edc <format_address_std+0x4c>
2f39:	0f 1f 80 00 00 00 00 	nop    DWORD PTR [rax+0x0]
2f40:	49 b8 cd cc cc cc cc 	movabs r8,0xcccccccccccccccd
2f47:	cc cc cc
2f4a:	66 0f 1f 44 00 00    	nop    WORD PTR [rax+rax*1+0x0]
2f50:	48 89 c8             	mov    rax,rcx
2f53:	48 83 ef 01          	sub    rdi,0x1
2f57:	49 f7 e0             	mul    r8
2f5a:	48 c1 ea 03          	shr    rdx,0x3
2f5e:	48 8d 04 92          	lea    rax,[rdx+rdx*4]
2f62:	48 01 c0             	add    rax,rax
2f65:	48 29 c1             	sub    rcx,rax
2f68:	83 c1 30             	add    ecx,0x30
2f6b:	48 85 d2             	test   rdx,rdx
2f6e:	88 0f                	mov    BYTE PTR [rdi],cl
2f70:	48 89 d1             	mov    rcx,rdx
2f73:	75 db                	jne    2f50 <format_address_std+0xc0>
2f75:	e9 62 ff ff ff       	jmp    2edc <format_address_std+0x4c>
2f7a:	66 0f 1f 44 00 00    	nop    WORD PTR [rax+rax*1+0x0]
2f80:	48 8d 15 3d 7d 00 00 	lea    rdx,[rip+0x7d3d]        # acc4 <_IO_stdin_used+0x4>
2f87:	66 0f 1f 84 00 00 00 	nop    WORD PTR [rax+rax*1+0x0]
2f8e:	00 00
2f90:	48 89 c8             	mov    rax,rcx
2f93:	48 c1 e9 04          	shr    rcx,0x4
2f97:	48 83 ef 01          	sub    rdi,0x1
2f9b:	83 e0 0f             	and    eax,0xf
2f9e:	48 85 c9             	test   rcx,rcx
2fa1:	0f b6 04 02          	movzx  eax,BYTE PTR [rdx+rax*1]
2fa5:	88 07                	mov    BYTE PTR [rdi],al
2fa7:	75 e7                	jne    2f90 <format_address_std+0x100>
2fa9:	e9 2e ff ff ff       	jmp    2edc <format_address_std+0x4c>
2fae:	e8 2d e9 ff ff       	call   18e0 <__stack_chk_fail@plt>
2fb3:	0f 1f 00             	nop    DWORD PTR [rax]
2fb6:	66 2e 0f 1f 84 00 00 	nop    WORD PTR cs:[rax+rax*1+0x0]
2fbd:	00 00 00

0000000000002fc0 <parse_old_offset>:
2fc0:	0f b6 17             	movzx  edx,BYTE PTR [rdi]
2fc3:	84 d2                	test   dl,dl
2fc5:	74 45                	je     300c <parse_old_offset+0x4c>
2fc7:	55                   	push   rbp
2fc8:	53                   	push   rbx
2fc9:	48 89 f5             	mov    rbp,rsi
2fcc:	48 89 fb             	mov    rbx,rdi
2fcf:	48 83 ec 08          	sub    rsp,0x8
2fd3:	80 fa 2b             	cmp    dl,0x2b
2fd6:	74 37                	je     300f <parse_old_offset+0x4f>
2fd8:	be 2e 00 00 00       	mov    esi,0x2e
2fdd:	48 89 df             	mov    rdi,rbx
2fe0:	e8 2b e9 ff ff       	call   1910 <strchr@plt>
2fe5:	48 85 c0             	test   rax,rax
2fe8:	ba 0a 00 00 00       	mov    edx,0xa
2fed:	74 26                	je     3015 <parse_old_offset+0x55>
2fef:	4c 8d 05 df 7c 00 00 	lea    r8,[rip+0x7cdf]        # acd5 <_IO_stdin_used+0x15>
2ff6:	48 89 e9             	mov    rcx,rbp
2ff9:	31 f6                	xor    esi,esi
2ffb:	48 89 df             	mov    rdi,rbx
2ffe:	e8 dd 53 00 00       	call   83e0 <xstrtoumax>
3003:	85 c0                	test   eax,eax
3005:	5a                   	pop    rdx
3006:	0f 94 c0             	sete   al
3009:	5b                   	pop    rbx
300a:	5d                   	pop    rbp
300b:	c3                   	ret
300c:	31 c0                	xor    eax,eax
300e:	c3                   	ret
300f:	48 83 c3 01          	add    rbx,0x1
3013:	eb c3                	jmp    2fd8 <parse_old_offset+0x18>
3015:	80 3b 30             	cmp    BYTE PTR [rbx],0x30
3018:	ba 08 00 00 00       	mov    edx,0x8
301d:	75 d0                	jne    2fef <parse_old_offset+0x2f>
301f:	0f b6 43 01          	movzx  eax,BYTE PTR [rbx+0x1]
3023:	31 d2                	xor    edx,edx
3025:	83 e0 df             	and    eax,0xffffffdf
3028:	3c 58                	cmp    al,0x58
302a:	0f 94 c2             	sete   dl
302d:	8d 14 d5 08 00 00 00 	lea    edx,[rdx*8+0x8]
3034:	eb b9                	jmp    2fef <parse_old_offset+0x2f>
3036:	66 2e 0f 1f 84 00 00 	nop    WORD PTR cs:[rax+rax*1+0x0]
303d:	00 00 00

0000000000003040 <print_named_ascii>:
3040:	41 57                	push   r15
3042:	41 56                	push   r14
3044:	41 55                	push   r13
3046:	41 54                	push   r12
3048:	55                   	push   rbp
3049:	53                   	push   rbx
304a:	48 83 ec 28          	sub    rsp,0x28
304e:	64 48 8b 04 25 28 00 	mov    rax,QWORD PTR fs:0x28
3055:	00 00
3057:	48 89 44 24 18       	mov    QWORD PTR [rsp+0x18],rax
305c:	31 c0                	xor    eax,eax
305e:	48 39 f7             	cmp    rdi,rsi
3061:	0f 86 a1 00 00 00    	jbe    3108 <print_named_ascii+0xc8>
3067:	45 89 c5             	mov    r13d,r8d
306a:	48 89 fd             	mov    rbp,rdi
306d:	4c 8d 47 ff          	lea    r8,[rdi-0x1]
3071:	4d 63 e1             	movsxd r12,r9d
3074:	48 29 f5             	sub    rbp,rsi
3077:	48 89 fb             	mov    rbx,rdi
307a:	48 8d 04 2a          	lea    rax,[rdx+rbp*1]
307e:	49 89 d6             	mov    r14,rdx
3081:	4d 0f af c4          	imul   r8,r12
3085:	48 89 04 24          	mov    QWORD PTR [rsp],rax
3089:	48 8d 44 24 16       	lea    rax,[rsp+0x16]
308e:	48 89 44 24 08       	mov    QWORD PTR [rsp+0x8],rax
3093:	4d 89 c7             	mov    r15,r8
3096:	eb 37                	jmp    30cf <print_named_ascii+0x8f>
3098:	0f 1f 84 00 00 00 00 	nop    DWORD PTR [rax+rax*1+0x0]
309f:	00
30a0:	48 8d 0d 99 94 00 00 	lea    rcx,[rip+0x9499]        # c540 <charname>
30a7:	0f b6 c0             	movzx  eax,al
30aa:	48 8d 14 81          	lea    rdx,[rcx+rax*4]
30ae:	41 29 e9             	sub    r9d,ebp
30b1:	48 8d 3d 24 7c 00 00 	lea    rdi,[rip+0x7c24]        # acdc <_IO_stdin_used+0x1c>
30b8:	31 c0                	xor    eax,eax
30ba:	43 8d 34 29          	lea    esi,[r9+r13*1]
30be:	4d 29 e7             	sub    r15,r12
30c1:	e8 8a 50 00 00       	call   8150 <xprintf>
30c6:	4c 3b 34 24          	cmp    r14,QWORD PTR [rsp]
30ca:	41 89 e9             	mov    r9d,ebp
30cd:	74 39                	je     3108 <print_named_ascii+0xc8>
30cf:	31 d2                	xor    edx,edx
30d1:	4c 89 f8             	mov    rax,r15
30d4:	49 83 c6 01          	add    r14,0x1
30d8:	48 f7 f3             	div    rbx
30db:	48 8d 15 f6 7b 00 00 	lea    rdx,[rip+0x7bf6]        # acd8 <_IO_stdin_used+0x18>
30e2:	48 89 c5             	mov    rbp,rax
30e5:	41 0f b6 46 ff       	movzx  eax,BYTE PTR [r14-0x1]
30ea:	83 e0 7f             	and    eax,0x7f
30ed:	3c 7f                	cmp    al,0x7f
30ef:	74 bd                	je     30ae <print_named_ascii+0x6e>
30f1:	3c 20                	cmp    al,0x20
30f3:	76 ab                	jbe    30a0 <print_named_ascii+0x60>
30f5:	88 44 24 16          	mov    BYTE PTR [rsp+0x16],al
30f9:	c6 44 24 17 00       	mov    BYTE PTR [rsp+0x17],0x0
30fe:	48 8b 54 24 08       	mov    rdx,QWORD PTR [rsp+0x8]
3103:	eb a9                	jmp    30ae <print_named_ascii+0x6e>
3105:	0f 1f 00             	nop    DWORD PTR [rax]
3108:	48 8b 44 24 18       	mov    rax,QWORD PTR [rsp+0x18]
310d:	64 48 33 04 25 28 00 	xor    rax,QWORD PTR fs:0x28
3114:	00 00
3116:	75 0f                	jne    3127 <print_named_ascii+0xe7>
3118:	48 83 c4 28          	add    rsp,0x28
311c:	5b                   	pop    rbx
311d:	5d                   	pop    rbp
311e:	41 5c                	pop    r12
3120:	41 5d                	pop    r13
3122:	41 5e                	pop    r14
3124:	41 5f                	pop    r15
3126:	c3                   	ret
3127:	e8 b4 e7 ff ff       	call   18e0 <__stack_chk_fail@plt>
312c:	0f 1f 40 00          	nop    DWORD PTR [rax+0x0]

0000000000003130 <print_long_long>:
3130:	41 57                	push   r15
3132:	41 56                	push   r14
3134:	41 55                	push   r13
3136:	41 54                	push   r12
3138:	55                   	push   rbp
3139:	53                   	push   rbx
313a:	48 83 ec 38          	sub    rsp,0x38
313e:	64 48 8b 04 25 28 00 	mov    rax,QWORD PTR fs:0x28
3145:	00 00
3147:	48 89 44 24 28       	mov    QWORD PTR [rsp+0x28],rax
314c:	31 c0                	xor    eax,eax
314e:	48 39 f7             	cmp    rdi,rsi
3151:	48 89 4c 24 08       	mov    QWORD PTR [rsp+0x8],rcx
3156:	44 89 44 24 14       	mov    DWORD PTR [rsp+0x14],r8d
315b:	0f 86 9f 00 00 00    	jbe    3200 <print_long_long+0xd0>
3161:	48 8d 4f ff          	lea    rcx,[rdi-0x1]
3165:	49 63 c1             	movsxd rax,r9d
3168:	48 89 fb             	mov    rbx,rdi
316b:	48 89 f5             	mov    rbp,rsi
316e:	49 89 d7             	mov    r15,rdx
3171:	48 89 44 24 18       	mov    QWORD PTR [rsp+0x18],rax
3176:	48 0f af c8          	imul   rcx,rax
317a:	49 89 fd             	mov    r13,rdi
317d:	49 89 ce             	mov    r14,rcx
3180:	eb 26                	jmp    31a8 <print_long_long+0x78>
3182:	66 0f 1f 44 00 00    	nop    WORD PTR [rax+rax*1+0x0]
3188:	49 8b 17             	mov    rdx,QWORD PTR [r15]
318b:	48 8b 7c 24 08       	mov    rdi,QWORD PTR [rsp+0x8]
3190:	31 c0                	xor    eax,eax
3192:	49 83 c7 08          	add    r15,0x8
3196:	e8 b5 4f 00 00       	call   8150 <xprintf>
319b:	4c 2b 74 24 18       	sub    r14,QWORD PTR [rsp+0x18]
31a0:	49 39 ed             	cmp    r13,rbp
31a3:	45 89 e1             	mov    r9d,r12d
31a6:	74 58                	je     3200 <print_long_long+0xd0>
31a8:	31 d2                	xor    edx,edx
31aa:	4c 89 f0             	mov    rax,r14
31ad:	49 83 ed 01          	sub    r13,0x1
31b1:	48 f7 f3             	div    rbx
31b4:	41 29 c1             	sub    r9d,eax
31b7:	80 3d 43 cf 20 00 00 	cmp    BYTE PTR [rip+0x20cf43],0x0        # 210101 <input_swap>
31be:	49 89 c4             	mov    r12,rax
31c1:	8b 44 24 14          	mov    eax,DWORD PTR [rsp+0x14]
31c5:	41 8d 34 01          	lea    esi,[r9+rax*1]
31c9:	74 bd                	je     3188 <print_long_long+0x58>
31cb:	49 8d 57 07          	lea    rdx,[r15+0x7]
31cf:	4c 8d 4c 24 20       	lea    r9,[rsp+0x20]
31d4:	31 c0                	xor    eax,eax
31d6:	66 2e 0f 1f 84 00 00 	nop    WORD PTR cs:[rax+rax*1+0x0]
31dd:	00 00 00
31e0:	0f b6 3a             	movzx  edi,BYTE PTR [rdx]
31e3:	48 83 ea 01          	sub    rdx,0x1
31e7:	41 88 3c 01          	mov    BYTE PTR [r9+rax*1],dil
31eb:	48 83 c0 01          	add    rax,0x1
31ef:	48 83 f8 08          	cmp    rax,0x8
31f3:	75 eb                	jne    31e0 <print_long_long+0xb0>
31f5:	48 8b 54 24 20       	mov    rdx,QWORD PTR [rsp+0x20]
31fa:	eb 8f                	jmp    318b <print_long_long+0x5b>
31fc:	0f 1f 40 00          	nop    DWORD PTR [rax+0x0]
3200:	48 8b 44 24 28       	mov    rax,QWORD PTR [rsp+0x28]
3205:	64 48 33 04 25 28 00 	xor    rax,QWORD PTR fs:0x28
320c:	00 00
320e:	75 0f                	jne    321f <print_long_long+0xef>
3210:	48 83 c4 38          	add    rsp,0x38
3214:	5b                   	pop    rbx
3215:	5d                   	pop    rbp
3216:	41 5c                	pop    r12
3218:	41 5d                	pop    r13
321a:	41 5e                	pop    r14
321c:	41 5f                	pop    r15
321e:	c3                   	ret
321f:	e8 bc e6 ff ff       	call   18e0 <__stack_chk_fail@plt>
3224:	66 90                	xchg   ax,ax
3226:	66 2e 0f 1f 84 00 00 	nop    WORD PTR cs:[rax+rax*1+0x0]
322d:	00 00 00

0000000000003230 <print_long>:
3230:	41 57                	push   r15
3232:	41 56                	push   r14
3234:	41 55                	push   r13
3236:	41 54                	push   r12
3238:	55                   	push   rbp
3239:	53                   	push   rbx
323a:	48 83 ec 38          	sub    rsp,0x38
323e:	64 48 8b 04 25 28 00 	mov    rax,QWORD PTR fs:0x28
3245:	00 00
3247:	48 89 44 24 28       	mov    QWORD PTR [rsp+0x28],rax
324c:	31 c0                	xor    eax,eax
324e:	48 39 f7             	cmp    rdi,rsi
3251:	48 89 4c 24 08       	mov    QWORD PTR [rsp+0x8],rcx
3256:	44 89 44 24 14       	mov    DWORD PTR [rsp+0x14],r8d
325b:	0f 86 9f 00 00 00    	jbe    3300 <print_long+0xd0>
3261:	48 8d 4f ff          	lea    rcx,[rdi-0x1]
3265:	49 63 c1             	movsxd rax,r9d
3268:	48 89 fb             	mov    rbx,rdi
326b:	48 89 f5             	mov    rbp,rsi
326e:	49 89 d7             	mov    r15,rdx
3271:	48 89 44 24 18       	mov    QWORD PTR [rsp+0x18],rax
3276:	48 0f af c8          	imul   rcx,rax
327a:	49 89 fd             	mov    r13,rdi
327d:	49 89 ce             	mov    r14,rcx
3280:	eb 26                	jmp    32a8 <print_long+0x78>
3282:	66 0f 1f 44 00 00    	nop    WORD PTR [rax+rax*1+0x0]
3288:	49 8b 17             	mov    rdx,QWORD PTR [r15]
328b:	48 8b 7c 24 08       	mov    rdi,QWORD PTR [rsp+0x8]
3290:	31 c0                	xor    eax,eax
3292:	49 83 c7 08          	add    r15,0x8
3296:	e8 b5 4e 00 00       	call   8150 <xprintf>
329b:	4c 2b 74 24 18       	sub    r14,QWORD PTR [rsp+0x18]
32a0:	49 39 ed             	cmp    r13,rbp
32a3:	45 89 e1             	mov    r9d,r12d
32a6:	74 58                	je     3300 <print_long+0xd0>
32a8:	31 d2                	xor    edx,edx
32aa:	4c 89 f0             	mov    rax,r14
32ad:	49 83 ed 01          	sub    r13,0x1
32b1:	48 f7 f3             	div    rbx
32b4:	41 29 c1             	sub    r9d,eax
32b7:	80 3d 43 ce 20 00 00 	cmp    BYTE PTR [rip+0x20ce43],0x0        # 210101 <input_swap>
32be:	49 89 c4             	mov    r12,rax
32c1:	8b 44 24 14          	mov    eax,DWORD PTR [rsp+0x14]
32c5:	41 8d 34 01          	lea    esi,[r9+rax*1]
32c9:	74 bd                	je     3288 <print_long+0x58>
32cb:	49 8d 57 07          	lea    rdx,[r15+0x7]
32cf:	4c 8d 4c 24 20       	lea    r9,[rsp+0x20]
32d4:	31 c0                	xor    eax,eax
32d6:	66 2e 0f 1f 84 00 00 	nop    WORD PTR cs:[rax+rax*1+0x0]
32dd:	00 00 00
32e0:	0f b6 3a             	movzx  edi,BYTE PTR [rdx]
32e3:	48 83 ea 01          	sub    rdx,0x1
32e7:	41 88 3c 01          	mov    BYTE PTR [r9+rax*1],dil
32eb:	48 83 c0 01          	add    rax,0x1
32ef:	48 83 f8 08          	cmp    rax,0x8
32f3:	75 eb                	jne    32e0 <print_long+0xb0>
32f5:	48 8b 54 24 20       	mov    rdx,QWORD PTR [rsp+0x20]
32fa:	eb 8f                	jmp    328b <print_long+0x5b>
32fc:	0f 1f 40 00          	nop    DWORD PTR [rax+0x0]
3300:	48 8b 44 24 28       	mov    rax,QWORD PTR [rsp+0x28]
3305:	64 48 33 04 25 28 00 	xor    rax,QWORD PTR fs:0x28
330c:	00 00
330e:	75 0f                	jne    331f <print_long+0xef>
3310:	48 83 c4 38          	add    rsp,0x38
3314:	5b                   	pop    rbx
3315:	5d                   	pop    rbp
3316:	41 5c                	pop    r12
3318:	41 5d                	pop    r13
331a:	41 5e                	pop    r14
331c:	41 5f                	pop    r15
331e:	c3                   	ret
331f:	e8 bc e5 ff ff       	call   18e0 <__stack_chk_fail@plt>
3324:	66 90                	xchg   ax,ax
3326:	66 2e 0f 1f 84 00 00 	nop    WORD PTR cs:[rax+rax*1+0x0]
332d:	00 00 00

0000000000003330 <print_int>:
3330:	41 57                	push   r15
3332:	41 56                	push   r14
3334:	41 55                	push   r13
3336:	41 54                	push   r12
3338:	55                   	push   rbp
3339:	53                   	push   rbx
333a:	48 89 fb             	mov    rbx,rdi
333d:	48 83 ec 38          	sub    rsp,0x38
3341:	64 48 8b 3c 25 28 00 	mov    rdi,QWORD PTR fs:0x28
3348:	00 00
334a:	48 89 7c 24 28       	mov    QWORD PTR [rsp+0x28],rdi
334f:	31 ff                	xor    edi,edi
3351:	48 39 f3             	cmp    rbx,rsi
3354:	48 89 34 24          	mov    QWORD PTR [rsp],rsi
3358:	48 89 4c 24 08       	mov    QWORD PTR [rsp+0x8],rcx
335d:	44 89 44 24 14       	mov    DWORD PTR [rsp+0x14],r8d
3362:	0f 86 98 00 00 00    	jbe    3400 <print_int+0xd0>
3368:	48 8d 4b ff          	lea    rcx,[rbx-0x1]
336c:	49 63 c1             	movsxd rax,r9d
336f:	49 89 d7             	mov    r15,rdx
3372:	48 89 44 24 18       	mov    QWORD PTR [rsp+0x18],rax
3377:	49 89 dd             	mov    r13,rbx
337a:	48 0f af c8          	imul   rcx,rax
337e:	49 89 ce             	mov    r14,rcx
3381:	eb 26                	jmp    33a9 <print_int+0x79>
3383:	0f 1f 44 00 00       	nop    DWORD PTR [rax+rax*1+0x0]
3388:	41 8b 17             	mov    edx,DWORD PTR [r15]
338b:	48 8b 7c 24 08       	mov    rdi,QWORD PTR [rsp+0x8]
3390:	31 c0                	xor    eax,eax
3392:	49 83 c7 04          	add    r15,0x4
3396:	e8 b5 4d 00 00       	call   8150 <xprintf>
339b:	4c 2b 74 24 18       	sub    r14,QWORD PTR [rsp+0x18]
33a0:	4c 3b 2c 24          	cmp    r13,QWORD PTR [rsp]
33a4:	41 89 e9             	mov    r9d,ebp
33a7:	74 57                	je     3400 <print_int+0xd0>
33a9:	31 d2                	xor    edx,edx
33ab:	4c 89 f0             	mov    rax,r14
33ae:	49 83 ed 01          	sub    r13,0x1
33b2:	48 f7 f3             	div    rbx
33b5:	41 29 c1             	sub    r9d,eax
33b8:	80 3d 42 cd 20 00 00 	cmp    BYTE PTR [rip+0x20cd42],0x0        # 210101 <input_swap>
33bf:	48 89 c5             	mov    rbp,rax
33c2:	8b 44 24 14          	mov    eax,DWORD PTR [rsp+0x14]
33c6:	41 8d 34 01          	lea    esi,[r9+rax*1]
33ca:	74 bc                	je     3388 <print_int+0x58>
33cc:	45 8a 67 03          	mov    r12b,BYTE PTR [r15+0x3]
33d0:	41 0f b6 4f 02       	movzx  ecx,BYTE PTR [r15+0x2]
33d5:	41 0f b6 57 01       	movzx  edx,BYTE PTR [r15+0x1]
33da:	44 89 e0             	mov    eax,r12d
33dd:	88 cc                	mov    ah,cl
33df:	44 0f b7 d0          	movzx  r10d,ax
33e3:	41 0f b6 07          	movzx  eax,BYTE PTR [r15]
33e7:	c1 e2 10             	shl    edx,0x10
33ea:	41 09 d2             	or     r10d,edx
33ed:	c1 e0 18             	shl    eax,0x18
33f0:	41 09 c2             	or     r10d,eax
33f3:	45 89 d4             	mov    r12d,r10d
33f6:	44 89 d2             	mov    edx,r10d
33f9:	eb 90                	jmp    338b <print_int+0x5b>
33fb:	0f 1f 44 00 00       	nop    DWORD PTR [rax+rax*1+0x0]
3400:	48 8b 44 24 28       	mov    rax,QWORD PTR [rsp+0x28]
3405:	64 48 33 04 25 28 00 	xor    rax,QWORD PTR fs:0x28
340c:	00 00
340e:	75 0f                	jne    341f <print_int+0xef>
3410:	48 83 c4 38          	add    rsp,0x38
3414:	5b                   	pop    rbx
3415:	5d                   	pop    rbp
3416:	41 5c                	pop    r12
3418:	41 5d                	pop    r13
341a:	41 5e                	pop    r14
341c:	41 5f                	pop    r15
341e:	c3                   	ret
341f:	e8 bc e4 ff ff       	call   18e0 <__stack_chk_fail@plt>
3424:	66 90                	xchg   ax,ax
3426:	66 2e 0f 1f 84 00 00 	nop    WORD PTR cs:[rax+rax*1+0x0]
342d:	00 00 00

0000000000003430 <print_short>:
3430:	41 57                	push   r15
3432:	41 56                	push   r14
3434:	41 55                	push   r13
3436:	41 54                	push   r12
3438:	55                   	push   rbp
3439:	53                   	push   rbx
343a:	48 83 ec 38          	sub    rsp,0x38
343e:	64 48 8b 04 25 28 00 	mov    rax,QWORD PTR fs:0x28
3445:	00 00
3447:	48 89 44 24 28       	mov    QWORD PTR [rsp+0x28],rax
344c:	31 c0                	xor    eax,eax
344e:	48 39 f7             	cmp    rdi,rsi
3451:	48 89 0c 24          	mov    QWORD PTR [rsp],rcx
3455:	44 89 44 24 0c       	mov    DWORD PTR [rsp+0xc],r8d
345a:	0f 86 90 00 00 00    	jbe    34f0 <print_short+0xc0>
3460:	4c 8d 47 ff          	lea    r8,[rdi-0x1]
3464:	49 63 c1             	movsxd rax,r9d
3467:	48 89 fb             	mov    rbx,rdi
346a:	48 89 44 24 18       	mov    QWORD PTR [rsp+0x18],rax
346f:	48 89 d5             	mov    rbp,rdx
3472:	45 31 ff             	xor    r15d,r15d
3475:	4c 0f af c0          	imul   r8,rax
3479:	48 89 f8             	mov    rax,rdi
347c:	48 29 f0             	sub    rax,rsi
347f:	48 89 44 24 10       	mov    QWORD PTR [rsp+0x10],rax
3484:	4d 89 c5             	mov    r13,r8
3487:	eb 2b                	jmp    34b4 <print_short+0x84>
3489:	0f 1f 80 00 00 00 00 	nop    DWORD PTR [rax+0x0]
3490:	42 0f b7 54 7d 00    	movzx  edx,WORD PTR [rbp+r15*2+0x0]
3496:	48 8b 3c 24          	mov    rdi,QWORD PTR [rsp]
349a:	31 c0                	xor    eax,eax
349c:	49 83 c7 01          	add    r15,0x1
34a0:	e8 ab 4c 00 00       	call   8150 <xprintf>
34a5:	4c 2b 6c 24 18       	sub    r13,QWORD PTR [rsp+0x18]
34aa:	4c 39 7c 24 10       	cmp    QWORD PTR [rsp+0x10],r15
34af:	45 89 e1             	mov    r9d,r12d
34b2:	74 3c                	je     34f0 <print_short+0xc0>
34b4:	31 d2                	xor    edx,edx
34b6:	4c 89 e8             	mov    rax,r13
34b9:	48 f7 f3             	div    rbx
34bc:	41 29 c1             	sub    r9d,eax
34bf:	80 3d 3b cc 20 00 00 	cmp    BYTE PTR [rip+0x20cc3b],0x0        # 210101 <input_swap>
34c6:	49 89 c4             	mov    r12,rax
34c9:	8b 44 24 0c          	mov    eax,DWORD PTR [rsp+0xc]
34cd:	41 8d 34 01          	lea    esi,[r9+rax*1]
34d1:	74 bd                	je     3490 <print_short+0x60>
34d3:	46 8a 74 7d 01       	mov    r14b,BYTE PTR [rbp+r15*2+0x1]
34d8:	42 0f b6 44 7d 00    	movzx  eax,BYTE PTR [rbp+r15*2+0x0]
34de:	44 89 f1             	mov    ecx,r14d
34e1:	88 c5                	mov    ch,al
34e3:	41 89 ce             	mov    r14d,ecx
34e6:	0f b7 d1             	movzx  edx,cx
34e9:	eb ab                	jmp    3496 <print_short+0x66>
34eb:	0f 1f 44 00 00       	nop    DWORD PTR [rax+rax*1+0x0]
34f0:	48 8b 44 24 28       	mov    rax,QWORD PTR [rsp+0x28]
34f5:	64 48 33 04 25 28 00 	xor    rax,QWORD PTR fs:0x28
34fc:	00 00
34fe:	75 0f                	jne    350f <print_short+0xdf>
3500:	48 83 c4 38          	add    rsp,0x38
3504:	5b                   	pop    rbx
3505:	5d                   	pop    rbp
3506:	41 5c                	pop    r12
3508:	41 5d                	pop    r13
350a:	41 5e                	pop    r14
350c:	41 5f                	pop    r15
350e:	c3                   	ret
350f:	e8 cc e3 ff ff       	call   18e0 <__stack_chk_fail@plt>
3514:	66 90                	xchg   ax,ax
3516:	66 2e 0f 1f 84 00 00 	nop    WORD PTR cs:[rax+rax*1+0x0]
351d:	00 00 00

0000000000003520 <print_s_short>:
3520:	41 57                	push   r15
3522:	41 56                	push   r14
3524:	41 55                	push   r13
3526:	41 54                	push   r12
3528:	55                   	push   rbp
3529:	53                   	push   rbx
352a:	48 83 ec 38          	sub    rsp,0x38
352e:	64 48 8b 04 25 28 00 	mov    rax,QWORD PTR fs:0x28
3535:	00 00
3537:	48 89 44 24 28       	mov    QWORD PTR [rsp+0x28],rax
353c:	31 c0                	xor    eax,eax
353e:	48 39 f7             	cmp    rdi,rsi
3541:	48 89 0c 24          	mov    QWORD PTR [rsp],rcx
3545:	44 89 44 24 0c       	mov    DWORD PTR [rsp+0xc],r8d
354a:	0f 86 90 00 00 00    	jbe    35e0 <print_s_short+0xc0>
3550:	4c 8d 47 ff          	lea    r8,[rdi-0x1]
3554:	49 63 c1             	movsxd rax,r9d
3557:	48 89 fb             	mov    rbx,rdi
355a:	48 89 44 24 18       	mov    QWORD PTR [rsp+0x18],rax
355f:	48 89 d5             	mov    rbp,rdx
3562:	45 31 ff             	xor    r15d,r15d
3565:	4c 0f af c0          	imul   r8,rax
3569:	48 89 f8             	mov    rax,rdi
356c:	48 29 f0             	sub    rax,rsi
356f:	48 89 44 24 10       	mov    QWORD PTR [rsp+0x10],rax
3574:	4d 89 c5             	mov    r13,r8
3577:	eb 2b                	jmp    35a4 <print_s_short+0x84>
3579:	0f 1f 80 00 00 00 00 	nop    DWORD PTR [rax+0x0]
3580:	42 0f bf 54 7d 00    	movsx  edx,WORD PTR [rbp+r15*2+0x0]
3586:	48 8b 3c 24          	mov    rdi,QWORD PTR [rsp]
358a:	31 c0                	xor    eax,eax
358c:	49 83 c7 01          	add    r15,0x1
3590:	e8 bb 4b 00 00       	call   8150 <xprintf>
3595:	4c 2b 6c 24 18       	sub    r13,QWORD PTR [rsp+0x18]
359a:	4c 39 7c 24 10       	cmp    QWORD PTR [rsp+0x10],r15
359f:	45 89 e1             	mov    r9d,r12d
35a2:	74 3c                	je     35e0 <print_s_short+0xc0>
35a4:	31 d2                	xor    edx,edx
35a6:	4c 89 e8             	mov    rax,r13
35a9:	48 f7 f3             	div    rbx
35ac:	41 29 c1             	sub    r9d,eax
35af:	80 3d 4b cb 20 00 00 	cmp    BYTE PTR [rip+0x20cb4b],0x0        # 210101 <input_swap>
35b6:	49 89 c4             	mov    r12,rax
35b9:	8b 44 24 0c          	mov    eax,DWORD PTR [rsp+0xc]
35bd:	41 8d 34 01          	lea    esi,[r9+rax*1]
35c1:	74 bd                	je     3580 <print_s_short+0x60>
35c3:	46 8a 74 7d 01       	mov    r14b,BYTE PTR [rbp+r15*2+0x1]
35c8:	42 0f b6 44 7d 00    	movzx  eax,BYTE PTR [rbp+r15*2+0x0]
35ce:	44 89 f1             	mov    ecx,r14d
35d1:	88 c5                	mov    ch,al
35d3:	41 89 ce             	mov    r14d,ecx
35d6:	0f bf d1             	movsx  edx,cx
35d9:	eb ab                	jmp    3586 <print_s_short+0x66>
35db:	0f 1f 44 00 00       	nop    DWORD PTR [rax+rax*1+0x0]
35e0:	48 8b 44 24 28       	mov    rax,QWORD PTR [rsp+0x28]
35e5:	64 48 33 04 25 28 00 	xor    rax,QWORD PTR fs:0x28
35ec:	00 00
35ee:	75 0f                	jne    35ff <print_s_short+0xdf>
35f0:	48 83 c4 38          	add    rsp,0x38
35f4:	5b                   	pop    rbx
35f5:	5d                   	pop    rbp
35f6:	41 5c                	pop    r12
35f8:	41 5d                	pop    r13
35fa:	41 5e                	pop    r14
35fc:	41 5f                	pop    r15
35fe:	c3                   	ret
35ff:	e8 dc e2 ff ff       	call   18e0 <__stack_chk_fail@plt>
3604:	66 90                	xchg   ax,ax
3606:	66 2e 0f 1f 84 00 00 	nop    WORD PTR cs:[rax+rax*1+0x0]
360d:	00 00 00

0000000000003610 <print_char>:
3610:	41 57                	push   r15
3612:	41 56                	push   r14
3614:	41 55                	push   r13
3616:	41 54                	push   r12
3618:	55                   	push   rbp
3619:	53                   	push   rbx
361a:	48 83 ec 18          	sub    rsp,0x18
361e:	48 39 f7             	cmp    rdi,rsi
3621:	48 89 0c 24          	mov    QWORD PTR [rsp],rcx
3625:	76 5b                	jbe    3682 <print_char+0x72>
3627:	48 8d 4f ff          	lea    rcx,[rdi-0x1]
362b:	4d 63 e1             	movsxd r12,r9d
362e:	48 89 fd             	mov    rbp,rdi
3631:	48 29 f5             	sub    rbp,rsi
3634:	48 89 fb             	mov    rbx,rdi
3637:	49 89 d7             	mov    r15,rdx
363a:	49 0f af cc          	imul   rcx,r12
363e:	48 8d 04 2a          	lea    rax,[rdx+rbp*1]
3642:	45 89 c6             	mov    r14d,r8d
3645:	48 89 44 24 08       	mov    QWORD PTR [rsp+0x8],rax
364a:	49 89 cd             	mov    r13,rcx
364d:	0f 1f 00             	nop    DWORD PTR [rax]
3650:	4c 89 e8             	mov    rax,r13
3653:	31 d2                	xor    edx,edx
3655:	48 8b 3c 24          	mov    rdi,QWORD PTR [rsp]
3659:	48 f7 f3             	div    rbx
365c:	41 0f b6 17          	movzx  edx,BYTE PTR [r15]
3660:	4d 29 e5             	sub    r13,r12
3663:	49 83 c7 01          	add    r15,0x1
3667:	41 29 c1             	sub    r9d,eax
366a:	48 89 c5             	mov    rbp,rax
366d:	31 c0                	xor    eax,eax
366f:	43 8d 34 31          	lea    esi,[r9+r14*1]
3673:	e8 d8 4a 00 00       	call   8150 <xprintf>
3678:	4c 3b 7c 24 08       	cmp    r15,QWORD PTR [rsp+0x8]
367d:	41 89 e9             	mov    r9d,ebp
3680:	75 ce                	jne    3650 <print_char+0x40>
3682:	48 83 c4 18          	add    rsp,0x18
3686:	5b                   	pop    rbx
3687:	5d                   	pop    rbp
3688:	41 5c                	pop    r12
368a:	41 5d                	pop    r13
368c:	41 5e                	pop    r14
368e:	41 5f                	pop    r15
3690:	c3                   	ret
3691:	0f 1f 44 00 00       	nop    DWORD PTR [rax+rax*1+0x0]
3696:	66 2e 0f 1f 84 00 00 	nop    WORD PTR cs:[rax+rax*1+0x0]
369d:	00 00 00

00000000000036a0 <print_s_char>:
36a0:	41 57                	push   r15
36a2:	41 56                	push   r14
36a4:	41 55                	push   r13
36a6:	41 54                	push   r12
36a8:	55                   	push   rbp
36a9:	53                   	push   rbx
36aa:	48 83 ec 18          	sub    rsp,0x18
36ae:	48 39 f7             	cmp    rdi,rsi
36b1:	48 89 0c 24          	mov    QWORD PTR [rsp],rcx
36b5:	76 5b                	jbe    3712 <print_s_char+0x72>
36b7:	48 8d 4f ff          	lea    rcx,[rdi-0x1]
36bb:	4d 63 e1             	movsxd r12,r9d
36be:	48 89 fd             	mov    rbp,rdi
36c1:	48 29 f5             	sub    rbp,rsi
36c4:	48 89 fb             	mov    rbx,rdi
36c7:	49 89 d7             	mov    r15,rdx
36ca:	49 0f af cc          	imul   rcx,r12
36ce:	48 8d 04 2a          	lea    rax,[rdx+rbp*1]
36d2:	45 89 c6             	mov    r14d,r8d
36d5:	48 89 44 24 08       	mov    QWORD PTR [rsp+0x8],rax
36da:	49 89 cd             	mov    r13,rcx
36dd:	0f 1f 00             	nop    DWORD PTR [rax]
36e0:	4c 89 e8             	mov    rax,r13
36e3:	31 d2                	xor    edx,edx
36e5:	48 8b 3c 24          	mov    rdi,QWORD PTR [rsp]
36e9:	48 f7 f3             	div    rbx
36ec:	41 0f be 17          	movsx  edx,BYTE PTR [r15]
36f0:	4d 29 e5             	sub    r13,r12
36f3:	49 83 c7 01          	add    r15,0x1
36f7:	41 29 c1             	sub    r9d,eax
36fa:	48 89 c5             	mov    rbp,rax
36fd:	31 c0                	xor    eax,eax
36ff:	43 8d 34 31          	lea    esi,[r9+r14*1]
3703:	e8 48 4a 00 00       	call   8150 <xprintf>
3708:	4c 3b 7c 24 08       	cmp    r15,QWORD PTR [rsp+0x8]
370d:	41 89 e9             	mov    r9d,ebp
3710:	75 ce                	jne    36e0 <print_s_char+0x40>
3712:	48 83 c4 18          	add    rsp,0x18
3716:	5b                   	pop    rbx
3717:	5d                   	pop    rbp
3718:	41 5c                	pop    r12
371a:	41 5d                	pop    r13
371c:	41 5e                	pop    r14
371e:	41 5f                	pop    r15
3720:	c3                   	ret
3721:	0f 1f 44 00 00       	nop    DWORD PTR [rax+rax*1+0x0]
3726:	66 2e 0f 1f 84 00 00 	nop    WORD PTR cs:[rax+rax*1+0x0]
372d:	00 00 00

0000000000003730 <print_long_double>:
3730:	41 57                	push   r15
3732:	41 56                	push   r14
3734:	41 55                	push   r13
3736:	41 54                	push   r12
3738:	49 89 fc             	mov    r12,rdi
373b:	55                   	push   rbp
373c:	53                   	push   rbx
373d:	48 83 ec 78          	sub    rsp,0x78
3741:	64 48 8b 3c 25 28 00 	mov    rdi,QWORD PTR fs:0x28
3748:	00 00
374a:	48 89 7c 24 68       	mov    QWORD PTR [rsp+0x68],rdi
374f:	31 ff                	xor    edi,edi
3751:	49 39 f4             	cmp    r12,rsi
3754:	48 89 74 24 08       	mov    QWORD PTR [rsp+0x8],rsi
3759:	44 89 44 24 14       	mov    DWORD PTR [rsp+0x14],r8d
375e:	0f 86 bc 00 00 00    	jbe    3820 <print_long_double+0xf0>
3764:	4d 8d 44 24 ff       	lea    r8,[r12-0x1]
3769:	49 63 c1             	movsxd rax,r9d
376c:	48 89 d3             	mov    rbx,rdx
376f:	48 89 44 24 18       	mov    QWORD PTR [rsp+0x18],rax
3774:	4d 89 e7             	mov    r15,r12
3777:	4c 8d 6c 24 30       	lea    r13,[rsp+0x30]
377c:	4c 0f af c0          	imul   r8,rax
3780:	4d 89 c6             	mov    r14,r8
3783:	eb 47                	jmp    37cc <print_long_double+0x9c>
3785:	0f 1f 00             	nop    DWORD PTR [rax]
3788:	db 2b                	fld    TBYTE PTR [rbx]
378a:	48 83 ec 10          	sub    rsp,0x10
378e:	31 c9                	xor    ecx,ecx
3790:	31 d2                	xor    edx,edx
3792:	be 2d 00 00 00       	mov    esi,0x2d
3797:	4c 89 ef             	mov    rdi,r13
379a:	48 83 c3 10          	add    rbx,0x10
379e:	db 3c 24             	fstp   TBYTE PTR [rsp]
37a1:	e8 1a 22 00 00       	call   59c0 <ldtoastr>
37a6:	48 8d 3d 2f 75 00 00 	lea    rdi,[rip+0x752f]        # acdc <_IO_stdin_used+0x1c>
37ad:	4c 89 ea             	mov    rdx,r13
37b0:	31 c0                	xor    eax,eax
37b2:	8b 74 24 20          	mov    esi,DWORD PTR [rsp+0x20]
37b6:	e8 95 49 00 00       	call   8150 <xprintf>
37bb:	4c 2b 74 24 28       	sub    r14,QWORD PTR [rsp+0x28]
37c0:	41 89 e9             	mov    r9d,ebp
37c3:	58                   	pop    rax
37c4:	5a                   	pop    rdx
37c5:	4c 3b 7c 24 08       	cmp    r15,QWORD PTR [rsp+0x8]
37ca:	74 54                	je     3820 <print_long_double+0xf0>
37cc:	31 d2                	xor    edx,edx
37ce:	4c 89 f0             	mov    rax,r14
37d1:	49 83 ef 01          	sub    r15,0x1
37d5:	49 f7 f4             	div    r12
37d8:	41 29 c1             	sub    r9d,eax
37db:	44 03 4c 24 14       	add    r9d,DWORD PTR [rsp+0x14]
37e0:	80 3d 1a c9 20 00 00 	cmp    BYTE PTR [rip+0x20c91a],0x0        # 210101 <input_swap>
37e7:	48 89 c5             	mov    rbp,rax
37ea:	44 89 4c 24 10       	mov    DWORD PTR [rsp+0x10],r9d
37ef:	74 97                	je     3788 <print_long_double+0x58>
37f1:	48 8d 53 0f          	lea    rdx,[rbx+0xf]
37f5:	48 8d 44 24 20       	lea    rax,[rsp+0x20]
37fa:	48 8d 74 24 30       	lea    rsi,[rsp+0x30]
37ff:	90                   	nop
3800:	0f b6 0a             	movzx  ecx,BYTE PTR [rdx]
3803:	48 83 c0 01          	add    rax,0x1
3807:	48 83 ea 01          	sub    rdx,0x1
380b:	88 48 ff             	mov    BYTE PTR [rax-0x1],cl
380e:	48 39 c6             	cmp    rsi,rax
3811:	75 ed                	jne    3800 <print_long_double+0xd0>
3813:	db 6c 24 20          	fld    TBYTE PTR [rsp+0x20]
3817:	e9 6e ff ff ff       	jmp    378a <print_long_double+0x5a>
381c:	0f 1f 40 00          	nop    DWORD PTR [rax+0x0]
3820:	48 8b 44 24 68       	mov    rax,QWORD PTR [rsp+0x68]
3825:	64 48 33 04 25 28 00 	xor    rax,QWORD PTR fs:0x28
382c:	00 00
382e:	75 0f                	jne    383f <print_long_double+0x10f>
3830:	48 83 c4 78          	add    rsp,0x78
3834:	5b                   	pop    rbx
3835:	5d                   	pop    rbp
3836:	41 5c                	pop    r12
3838:	41 5d                	pop    r13
383a:	41 5e                	pop    r14
383c:	41 5f                	pop    r15
383e:	c3                   	ret
383f:	e8 9c e0 ff ff       	call   18e0 <__stack_chk_fail@plt>
3844:	66 90                	xchg   ax,ax
3846:	66 2e 0f 1f 84 00 00 	nop    WORD PTR cs:[rax+rax*1+0x0]
384d:	00 00 00

0000000000003850 <print_double>:
3850:	41 57                	push   r15
3852:	41 56                	push   r14
3854:	41 55                	push   r13
3856:	41 54                	push   r12
3858:	55                   	push   rbp
3859:	53                   	push   rbx
385a:	48 89 fd             	mov    rbp,rdi
385d:	48 83 ec 68          	sub    rsp,0x68
3861:	64 48 8b 3c 25 28 00 	mov    rdi,QWORD PTR fs:0x28
3868:	00 00
386a:	48 89 7c 24 58       	mov    QWORD PTR [rsp+0x58],rdi
386f:	31 ff                	xor    edi,edi
3871:	48 39 f5             	cmp    rbp,rsi
3874:	48 89 74 24 08       	mov    QWORD PTR [rsp+0x8],rsi
3879:	44 89 44 24 14       	mov    DWORD PTR [rsp+0x14],r8d
387e:	0f 86 bc 00 00 00    	jbe    3940 <print_double+0xf0>
3884:	4c 8d 45 ff          	lea    r8,[rbp-0x1]
3888:	49 63 c1             	movsxd rax,r9d
388b:	49 89 d5             	mov    r13,rdx
388e:	48 89 44 24 18       	mov    QWORD PTR [rsp+0x18],rax
3893:	49 89 ef             	mov    r15,rbp
3896:	4c 8d 64 24 30       	lea    r12,[rsp+0x30]
389b:	4c 0f af c0          	imul   r8,rax
389f:	4d 89 c6             	mov    r14,r8
38a2:	eb 43                	jmp    38e7 <print_double+0x97>
38a4:	0f 1f 40 00          	nop    DWORD PTR [rax+0x0]
38a8:	f2 41 0f 10 45 00    	movsd  xmm0,QWORD PTR [r13+0x0]
38ae:	31 c9                	xor    ecx,ecx
38b0:	31 d2                	xor    edx,edx
38b2:	be 28 00 00 00       	mov    esi,0x28
38b7:	4c 89 e7             	mov    rdi,r12
38ba:	49 83 c5 08          	add    r13,0x8
38be:	e8 1d 1e 00 00       	call   56e0 <dtoastr>
38c3:	8b 74 24 10          	mov    esi,DWORD PTR [rsp+0x10]
38c7:	48 8d 3d 0e 74 00 00 	lea    rdi,[rip+0x740e]        # acdc <_IO_stdin_used+0x1c>
38ce:	31 c0                	xor    eax,eax
38d0:	4c 89 e2             	mov    rdx,r12
38d3:	e8 78 48 00 00       	call   8150 <xprintf>
38d8:	4c 2b 74 24 18       	sub    r14,QWORD PTR [rsp+0x18]
38dd:	4c 3b 7c 24 08       	cmp    r15,QWORD PTR [rsp+0x8]
38e2:	41 89 d9             	mov    r9d,ebx
38e5:	74 59                	je     3940 <print_double+0xf0>
38e7:	31 d2                	xor    edx,edx
38e9:	4c 89 f0             	mov    rax,r14
38ec:	49 83 ef 01          	sub    r15,0x1
38f0:	48 f7 f5             	div    rbp
38f3:	41 29 c1             	sub    r9d,eax
38f6:	44 03 4c 24 14       	add    r9d,DWORD PTR [rsp+0x14]
38fb:	80 3d ff c7 20 00 00 	cmp    BYTE PTR [rip+0x20c7ff],0x0        # 210101 <input_swap>
3902:	48 89 c3             	mov    rbx,rax
3905:	44 89 4c 24 10       	mov    DWORD PTR [rsp+0x10],r9d
390a:	74 9c                	je     38a8 <print_double+0x58>
390c:	49 8d 55 07          	lea    rdx,[r13+0x7]
3910:	48 8d 74 24 28       	lea    rsi,[rsp+0x28]
3915:	31 c0                	xor    eax,eax
3917:	66 0f 1f 84 00 00 00 	nop    WORD PTR [rax+rax*1+0x0]
391e:	00 00
3920:	0f b6 0a             	movzx  ecx,BYTE PTR [rdx]
3923:	48 83 ea 01          	sub    rdx,0x1
3927:	88 0c 06             	mov    BYTE PTR [rsi+rax*1],cl
392a:	48 83 c0 01          	add    rax,0x1
392e:	48 83 f8 08          	cmp    rax,0x8
3932:	75 ec                	jne    3920 <print_double+0xd0>
3934:	f2 0f 10 44 24 28    	movsd  xmm0,QWORD PTR [rsp+0x28]
393a:	e9 6f ff ff ff       	jmp    38ae <print_double+0x5e>
393f:	90                   	nop
3940:	48 8b 44 24 58       	mov    rax,QWORD PTR [rsp+0x58]
3945:	64 48 33 04 25 28 00 	xor    rax,QWORD PTR fs:0x28
394c:	00 00
394e:	75 0f                	jne    395f <print_double+0x10f>
3950:	48 83 c4 68          	add    rsp,0x68
3954:	5b                   	pop    rbx
3955:	5d                   	pop    rbp
3956:	41 5c                	pop    r12
3958:	41 5d                	pop    r13
395a:	41 5e                	pop    r14
395c:	41 5f                	pop    r15
395e:	c3                   	ret
395f:	e8 7c df ff ff       	call   18e0 <__stack_chk_fail@plt>
3964:	66 90                	xchg   ax,ax
3966:	66 2e 0f 1f 84 00 00 	nop    WORD PTR cs:[rax+rax*1+0x0]
396d:	00 00 00

0000000000003970 <print_float>:
3970:	41 57                	push   r15
3972:	41 56                	push   r14
3974:	48 89 f0             	mov    rax,rsi
3977:	41 55                	push   r13
3979:	41 54                	push   r12
397b:	55                   	push   rbp
397c:	53                   	push   rbx
397d:	48 83 ec 68          	sub    rsp,0x68
3981:	48 89 74 24 10       	mov    QWORD PTR [rsp+0x10],rsi
3986:	44 89 44 24 28       	mov    DWORD PTR [rsp+0x28],r8d
398b:	64 48 8b 34 25 28 00 	mov    rsi,QWORD PTR fs:0x28
3992:	00 00
3994:	48 89 74 24 58       	mov    QWORD PTR [rsp+0x58],rsi
3999:	31 f6                	xor    esi,esi
399b:	48 39 c7             	cmp    rdi,rax
399e:	0f 86 cc 00 00 00    	jbe    3a70 <print_float+0x100>
39a4:	4c 8d 47 ff          	lea    r8,[rdi-0x1]
39a8:	49 63 c1             	movsxd rax,r9d
39ab:	41 89 ec             	mov    r12d,ebp
39ae:	48 89 44 24 18       	mov    QWORD PTR [rsp+0x18],rax
39b3:	48 89 d3             	mov    rbx,rdx
39b6:	48 89 7c 24 20       	mov    QWORD PTR [rsp+0x20],rdi
39bb:	4c 0f af c0          	imul   r8,rax
39bf:	48 8d 44 24 30       	lea    rax,[rsp+0x30]
39c4:	48 89 fd             	mov    rbp,rdi
39c7:	45 89 cd             	mov    r13d,r9d
39ca:	48 89 44 24 08       	mov    QWORD PTR [rsp+0x8],rax
39cf:	4d 89 c7             	mov    r15,r8
39d2:	eb 44                	jmp    3a18 <print_float+0xa8>
39d4:	0f 1f 40 00          	nop    DWORD PTR [rax+0x0]
39d8:	f3 0f 10 03          	movss  xmm0,DWORD PTR [rbx]
39dc:	48 8b 7c 24 08       	mov    rdi,QWORD PTR [rsp+0x8]
39e1:	31 c9                	xor    ecx,ecx
39e3:	31 d2                	xor    edx,edx
39e5:	be 1f 00 00 00       	mov    esi,0x1f
39ea:	48 83 c3 04          	add    rbx,0x4
39ee:	e8 5d 1e 00 00       	call   5850 <ftoastr>
39f3:	48 8b 54 24 08       	mov    rdx,QWORD PTR [rsp+0x8]
39f8:	48 8d 3d dd 72 00 00 	lea    rdi,[rip+0x72dd]        # acdc <_IO_stdin_used+0x1c>
39ff:	44 89 ee             	mov    esi,r13d
3a02:	31 c0                	xor    eax,eax
3a04:	45 89 f5             	mov    r13d,r14d
3a07:	e8 44 47 00 00       	call   8150 <xprintf>
3a0c:	4c 2b 7c 24 18       	sub    r15,QWORD PTR [rsp+0x18]
3a11:	48 3b 6c 24 10       	cmp    rbp,QWORD PTR [rsp+0x10]
3a16:	74 58                	je     3a70 <print_float+0x100>
3a18:	31 d2                	xor    edx,edx
3a1a:	4c 89 f8             	mov    rax,r15
3a1d:	48 83 ed 01          	sub    rbp,0x1
3a21:	48 f7 74 24 20       	div    QWORD PTR [rsp+0x20]
3a26:	41 29 c5             	sub    r13d,eax
3a29:	44 03 6c 24 28       	add    r13d,DWORD PTR [rsp+0x28]
3a2e:	80 3d cc c6 20 00 00 	cmp    BYTE PTR [rip+0x20c6cc],0x0        # 210101 <input_swap>
3a35:	49 89 c6             	mov    r14,rax
3a38:	74 9e                	je     39d8 <print_float+0x68>
3a3a:	44 8a 63 03          	mov    r12b,BYTE PTR [rbx+0x3]
3a3e:	0f b6 53 01          	movzx  edx,BYTE PTR [rbx+0x1]
3a42:	44 89 e0             	mov    eax,r12d
3a45:	8a 63 02             	mov    ah,BYTE PTR [rbx+0x2]
3a48:	c1 e2 10             	shl    edx,0x10
3a4b:	44 0f b7 d0          	movzx  r10d,ax
3a4f:	0f b6 03             	movzx  eax,BYTE PTR [rbx]
3a52:	41 09 d2             	or     r10d,edx
3a55:	c1 e0 18             	shl    eax,0x18
3a58:	41 09 c2             	or     r10d,eax
3a5b:	44 89 54 24 2c       	mov    DWORD PTR [rsp+0x2c],r10d
3a60:	45 89 d4             	mov    r12d,r10d
3a63:	f3 0f 10 44 24 2c    	movss  xmm0,DWORD PTR [rsp+0x2c]
3a69:	e9 6e ff ff ff       	jmp    39dc <print_float+0x6c>
3a6e:	66 90                	xchg   ax,ax
3a70:	48 8b 44 24 58       	mov    rax,QWORD PTR [rsp+0x58]
3a75:	64 48 33 04 25 28 00 	xor    rax,QWORD PTR fs:0x28
3a7c:	00 00
3a7e:	75 0f                	jne    3a8f <print_float+0x11f>
3a80:	48 83 c4 68          	add    rsp,0x68
3a84:	5b                   	pop    rbx
3a85:	5d                   	pop    rbp
3a86:	41 5c                	pop    r12
3a88:	41 5d                	pop    r13
3a8a:	41 5e                	pop    r14
3a8c:	41 5f                	pop    r15
3a8e:	c3                   	ret
3a8f:	e8 4c de ff ff       	call   18e0 <__stack_chk_fail@plt>
3a94:	66 90                	xchg   ax,ax
3a96:	66 2e 0f 1f 84 00 00 	nop    WORD PTR cs:[rax+rax*1+0x0]
3a9d:	00 00 00

0000000000003aa0 <decode_format_string>:
3aa0:	41 57                	push   r15
3aa2:	41 56                	push   r14
3aa4:	41 55                	push   r13
3aa6:	41 54                	push   r12
3aa8:	55                   	push   rbp
3aa9:	53                   	push   rbx
3aaa:	48 83 ec 18          	sub    rsp,0x18
3aae:	48 85 ff             	test   rdi,rdi
3ab1:	48 89 3c 24          	mov    QWORD PTR [rsp],rdi
3ab5:	0f 84 ea 07 00 00    	je     42a5 <decode_format_string+0x805>
3abb:	80 3f 00             	cmp    BYTE PTR [rdi],0x0
3abe:	48 8b 05 0b c7 20 00 	mov    rax,QWORD PTR [rip+0x20c70b]        # 2101d0 <n_specs>
3ac5:	49 89 fc             	mov    r12,rdi
3ac8:	4c 8d 35 f1 84 00 00 	lea    r14,[rip+0x84f1]        # bfc0 <_IO_stdin_used+0x1300>
3acf:	0f 84 1d 02 00 00    	je     3cf2 <decode_format_string+0x252>
3ad5:	0f 1f 00             	nop    DWORD PTR [rax]
3ad8:	48 8b 0d e9 c6 20 00 	mov    rcx,QWORD PTR [rip+0x20c6e9]        # 2101c8 <n_specs_allocated>
3adf:	48 8b 3d f2 c6 20 00 	mov    rdi,QWORD PTR [rip+0x20c6f2]        # 2101d8 <spec>
3ae6:	48 39 c1             	cmp    rcx,rax
3ae9:	0f 86 91 02 00 00    	jbe    3d80 <decode_format_string+0x2e0>
3aef:	48 8d 04 80          	lea    rax,[rax+rax*4]
3af3:	48 8d 2c c7          	lea    rbp,[rdi+rax*8]
3af7:	48 85 ed             	test   rbp,rbp
3afa:	0f 84 5d 07 00 00    	je     425d <decode_format_string+0x7bd>
3b00:	41 0f b6 34 24       	movzx  esi,BYTE PTR [r12]
3b05:	8d 46 9f             	lea    eax,[rsi-0x61]
3b08:	3c 17                	cmp    al,0x17
3b0a:	0f 87 28 02 00 00    	ja     3d38 <decode_format_string+0x298>
3b10:	0f b6 c0             	movzx  eax,al
3b13:	49 63 04 86          	movsxd rax,DWORD PTR [r14+rax*4]
3b17:	4c 01 f0             	add    rax,r14
3b1a:	ff e0                	jmp    rax
3b1c:	0f 1f 40 00          	nop    DWORD PTR [rax+0x0]
3b20:	41 0f b6 44 24 01    	movzx  eax,BYTE PTR [r12+0x1]
3b26:	3c 46                	cmp    al,0x46
3b28:	0f 84 9a 05 00 00    	je     40c8 <decode_format_string+0x628>
3b2e:	3c 4c                	cmp    al,0x4c
3b30:	0f 84 7a 05 00 00    	je     40b0 <decode_format_string+0x610>
3b36:	3c 44                	cmp    al,0x44
3b38:	0f 84 5a 05 00 00    	je     4098 <decode_format_string+0x5f8>
3b3e:	0f be c8             	movsx  ecx,al
3b41:	49 8d 74 24 01       	lea    rsi,[r12+0x1]
3b46:	83 e9 30             	sub    ecx,0x30
3b49:	83 f9 09             	cmp    ecx,0x9
3b4c:	0f 87 be 04 00 00    	ja     4010 <decode_format_string+0x570>
3b52:	49 8d 5c 24 02       	lea    rbx,[r12+0x2]
3b57:	48 63 c9             	movsxd rcx,ecx
3b5a:	45 31 c0             	xor    r8d,r8d
3b5d:	eb 28                	jmp    3b87 <decode_format_string+0xe7>
3b5f:	90                   	nop
3b60:	48 63 c8             	movsxd rcx,eax
3b63:	48 b8 cd cc cc cc cc 	movabs rax,0xcccccccccccccccd
3b6a:	cc cc cc
3b6d:	48 83 c3 01          	add    rbx,0x1
3b71:	48 89 ca             	mov    rdx,rcx
3b74:	48 f7 d2             	not    rdx
3b77:	48 f7 e2             	mul    rdx
3b7a:	48 c1 ea 03          	shr    rdx,0x3
3b7e:	4c 39 c2             	cmp    rdx,r8
3b81:	0f 82 19 06 00 00    	jb     41a0 <decode_format_string+0x700>
3b87:	4b 8d 04 80          	lea    rax,[r8+r8*4]
3b8b:	4c 8d 04 41          	lea    r8,[rcx+rax*2]
3b8f:	0f be 03             	movsx  eax,BYTE PTR [rbx]
3b92:	83 e8 30             	sub    eax,0x30
3b95:	83 f8 09             	cmp    eax,0x9
3b98:	76 c6                	jbe    3b60 <decode_format_string+0xc0>
3b9a:	48 39 de             	cmp    rsi,rbx
3b9d:	44 8b 2d 9c c5 20 00 	mov    r13d,DWORD PTR [rip+0x20c59c]        # 210140 <fp_type_size+0x20>
3ba4:	0f 84 76 04 00 00    	je     4020 <decode_format_string+0x580>
3baa:	49 83 f8 10          	cmp    r8,0x10
3bae:	77 14                	ja     3bc4 <decode_format_string+0x124>
3bb0:	48 8d 05 69 c5 20 00 	lea    rax,[rip+0x20c569]        # 210120 <fp_type_size>
3bb7:	46 8b 2c 80          	mov    r13d,DWORD PTR [rax+r8*4]
3bbb:	45 85 ed             	test   r13d,r13d
3bbe:	0f 85 5c 04 00 00    	jne    4020 <decode_format_string+0x580>
3bc4:	48 8b 3c 24          	mov    rdi,QWORD PTR [rsp]
3bc8:	4c 89 44 24 08       	mov    QWORD PTR [rsp+0x8],r8
3bcd:	e8 4e 3c 00 00       	call   7820 <quote>
3bd2:	ba 05 00 00 00       	mov    edx,0x5
3bd7:	48 89 c3             	mov    rbx,rax
3bda:	48 8d 35 df 73 00 00 	lea    rsi,[rip+0x73df]        # afc0 <_IO_stdin_used+0x300>
3be1:	e9 fc 03 00 00       	jmp    3fe2 <decode_format_string+0x542>
3be6:	66 2e 0f 1f 84 00 00 	nop    WORD PTR cs:[rax+rax*1+0x0]
3bed:	00 00 00
3bf0:	41 0f b6 44 24 01    	movzx  eax,BYTE PTR [r12+0x1]
3bf6:	3c 49                	cmp    al,0x49
3bf8:	0f 84 02 06 00 00    	je     4200 <decode_format_string+0x760>
3bfe:	0f 8e fc 01 00 00    	jle    3e00 <decode_format_string+0x360>
3c04:	3c 4c                	cmp    al,0x4c
3c06:	0f 84 dc 05 00 00    	je     41e8 <decode_format_string+0x748>
3c0c:	3c 53                	cmp    al,0x53
3c0e:	0f 85 2c 03 00 00    	jne    3f40 <decode_format_string+0x4a0>
3c14:	40 80 fe 6f          	cmp    sil,0x6f
3c18:	49 8d 5c 24 02       	lea    rbx,[r12+0x2]
3c1d:	44 8b 2d 64 c5 20 00 	mov    r13d,DWORD PTR [rip+0x20c564]        # 210188 <integral_type_size+0x8>
3c24:	41 b8 02 00 00 00    	mov    r8d,0x2
3c2a:	0f 85 f4 01 00 00    	jne    3e24 <decode_format_string+0x384>
3c30:	41 8d 45 fc          	lea    eax,[r13-0x4]
3c34:	4c 8d 0d 1a 71 00 00 	lea    r9,[rip+0x711a]        # ad55 <_IO_stdin_used+0x95>
3c3b:	4c 8d 55 10          	lea    r10,[rbp+0x10]
3c3f:	48 8d 0d df 70 00 00 	lea    rcx,[rip+0x70df]        # ad25 <_IO_stdin_used+0x65>
3c46:	ba 08 00 00 00       	mov    edx,0x8
3c4b:	be 01 00 00 00       	mov    esi,0x1
3c50:	83 f8 01             	cmp    eax,0x1
3c53:	48 8d 05 89 70 00 00 	lea    rax,[rip+0x7089]        # ace3 <_IO_stdin_used+0x23>
3c5a:	4c 89 d7             	mov    rdi,r10
3c5d:	4c 89 54 24 08       	mov    QWORD PTR [rsp+0x8],r10
3c62:	4c 0f 46 c8          	cmovbe r9,rax
3c66:	48 8d 05 d3 8a 00 00 	lea    rax,[rip+0x8ad3]        # c740 <bytes_to_oct_digits>
3c6d:	46 8b 3c 80          	mov    r15d,DWORD PTR [rax+r8*4]
3c71:	31 c0                	xor    eax,eax
3c73:	45 89 f8             	mov    r8d,r15d
3c76:	e8 d5 de ff ff       	call   1b50 <__sprintf_chk@plt>
3c7b:	ba 02 00 00 00       	mov    edx,0x2
3c80:	4c 8b 54 24 08       	mov    r10,QWORD PTR [rsp+0x8]
3c85:	e9 09 02 00 00       	jmp    3e93 <decode_format_string+0x3f3>
3c8a:	66 0f 1f 44 00 00    	nop    WORD PTR [rax+rax*1+0x0]
3c90:	49 8d 5c 24 01       	lea    rbx,[r12+0x1]
3c95:	48 8d 05 34 06 00 00 	lea    rax,[rip+0x634]        # 42d0 <print_ascii>
3c9c:	41 bf 03 00 00 00    	mov    r15d,0x3
3ca2:	ba 06 00 00 00       	mov    edx,0x6
3ca7:	41 bd 01 00 00 00    	mov    r13d,0x1
3cad:	48 89 45 08          	mov    QWORD PTR [rbp+0x8],rax
3cb1:	44 89 6d 04          	mov    DWORD PTR [rbp+0x4],r13d
3cb5:	89 55 00             	mov    DWORD PTR [rbp+0x0],edx
3cb8:	44 89 7d 1c          	mov    DWORD PTR [rbp+0x1c],r15d
3cbc:	80 3b 7a             	cmp    BYTE PTR [rbx],0x7a
3cbf:	0f 94 c0             	sete   al
3cc2:	88 45 18             	mov    BYTE PTR [rbp+0x18],al
3cc5:	0f b6 c0             	movzx  eax,al
3cc8:	48 01 c3             	add    rbx,rax
3ccb:	49 39 dc             	cmp    r12,rbx
3cce:	0f 84 6a 05 00 00    	je     423e <decode_format_string+0x79e>
3cd4:	48 8b 05 f5 c4 20 00 	mov    rax,QWORD PTR [rip+0x20c4f5]        # 2101d0 <n_specs>
3cdb:	49 89 dc             	mov    r12,rbx
3cde:	48 83 c0 01          	add    rax,0x1
3ce2:	80 3b 00             	cmp    BYTE PTR [rbx],0x0
3ce5:	48 89 05 e4 c4 20 00 	mov    QWORD PTR [rip+0x20c4e4],rax        # 2101d0 <n_specs>
3cec:	0f 85 e6 fd ff ff    	jne    3ad8 <decode_format_string+0x38>
3cf2:	48 83 c4 18          	add    rsp,0x18
3cf6:	b8 01 00 00 00       	mov    eax,0x1
3cfb:	5b                   	pop    rbx
3cfc:	5d                   	pop    rbp
3cfd:	41 5c                	pop    r12
3cff:	41 5d                	pop    r13
3d01:	41 5e                	pop    r14
3d03:	41 5f                	pop    r15
3d05:	c3                   	ret
3d06:	66 2e 0f 1f 84 00 00 	nop    WORD PTR cs:[rax+rax*1+0x0]
3d0d:	00 00 00
3d10:	49 8d 5c 24 01       	lea    rbx,[r12+0x1]
3d15:	41 bf 03 00 00 00    	mov    r15d,0x3
3d1b:	48 8d 05 1e f3 ff ff 	lea    rax,[rip+0xfffffffffffff31e]        # 3040 <print_named_ascii>
3d22:	ba 05 00 00 00       	mov    edx,0x5
3d27:	41 bd 01 00 00 00    	mov    r13d,0x1
3d2d:	e9 7b ff ff ff       	jmp    3cad <decode_format_string+0x20d>
3d32:	66 0f 1f 44 00 00    	nop    WORD PTR [rax+rax*1+0x0]
3d38:	48 8b 3c 24          	mov    rdi,QWORD PTR [rsp]
3d3c:	e8 df 3a 00 00       	call   7820 <quote>
3d41:	41 0f be 1c 24       	movsx  ebx,BYTE PTR [r12]
3d46:	48 8d 35 cb 72 00 00 	lea    rsi,[rip+0x72cb]        # b018 <_IO_stdin_used+0x358>
3d4d:	48 89 c5             	mov    rbp,rax
3d50:	ba 05 00 00 00       	mov    edx,0x5
3d55:	31 ff                	xor    edi,edi
3d57:	e8 54 db ff ff       	call   18b0 <dcgettext@plt>
3d5c:	49 89 e8             	mov    r8,rbp
3d5f:	48 89 c2             	mov    rdx,rax
3d62:	31 f6                	xor    esi,esi
3d64:	89 d9                	mov    ecx,ebx
3d66:	31 c0                	xor    eax,eax
3d68:	31 ff                	xor    edi,edi
3d6a:	e8 31 dd ff ff       	call   1aa0 <error@plt>
3d6f:	48 83 c4 18          	add    rsp,0x18
3d73:	31 c0                	xor    eax,eax
3d75:	5b                   	pop    rbx
3d76:	5d                   	pop    rbp
3d77:	41 5c                	pop    r12
3d79:	41 5d                	pop    r13
3d7b:	41 5e                	pop    r14
3d7d:	41 5f                	pop    r15
3d7f:	c3                   	ret
3d80:	48 85 ff             	test   rdi,rdi
3d83:	74 4b                	je     3dd0 <decode_format_string+0x330>
3d85:	48 b8 21 22 22 22 22 	movabs rax,0x222222222222221
3d8c:	22 22 02
3d8f:	48 39 c1             	cmp    rcx,rax
3d92:	77 65                	ja     3df9 <decode_format_string+0x359>
3d94:	48 89 c8             	mov    rax,rcx
3d97:	48 d1 e8             	shr    rax,1
3d9a:	48 8d 4c 01 01       	lea    rcx,[rcx+rax*1+0x1]
3d9f:	48 8d 34 89          	lea    rsi,[rcx+rcx*4]
3da3:	48 89 0d 1e c4 20 00 	mov    QWORD PTR [rip+0x20c41e],rcx        # 2101c8 <n_specs_allocated>
3daa:	48 c1 e6 03          	shl    rsi,0x3
3dae:	e8 0d 41 00 00       	call   7ec0 <xrealloc>
3db3:	48 89 c7             	mov    rdi,rax
3db6:	48 89 05 1b c4 20 00 	mov    QWORD PTR [rip+0x20c41b],rax        # 2101d8 <spec>
3dbd:	48 8b 05 0c c4 20 00 	mov    rax,QWORD PTR [rip+0x20c40c]        # 2101d0 <n_specs>
3dc4:	e9 26 fd ff ff       	jmp    3aef <decode_format_string+0x4f>
3dc9:	0f 1f 80 00 00 00 00 	nop    DWORD PTR [rax+0x0]
3dd0:	48 85 c9             	test   rcx,rcx
3dd3:	b8 03 00 00 00       	mov    eax,0x3
3dd8:	ba 28 00 00 00       	mov    edx,0x28
3ddd:	48 0f 44 c8          	cmove  rcx,rax
3de1:	48 89 d0             	mov    rax,rdx
3de4:	31 f6                	xor    esi,esi
3de6:	48 f7 e1             	mul    rcx
3de9:	0f 80 ac 04 00 00    	jo     429b <decode_format_string+0x7fb>
3def:	48 85 c0             	test   rax,rax
3df2:	78 05                	js     3df9 <decode_format_string+0x359>
3df4:	48 85 f6             	test   rsi,rsi
3df7:	74 a6                	je     3d9f <decode_format_string+0x2ff>
3df9:	e8 b2 42 00 00       	call   80b0 <xalloc_die>
3dfe:	66 90                	xchg   ax,ax
3e00:	3c 43                	cmp    al,0x43
3e02:	0f 85 38 01 00 00    	jne    3f40 <decode_format_string+0x4a0>
3e08:	44 8b 2d 75 c3 20 00 	mov    r13d,DWORD PTR [rip+0x20c375]        # 210184 <integral_type_size+0x4>
3e0f:	49 8d 5c 24 02       	lea    rbx,[r12+0x2]
3e14:	41 b8 01 00 00 00    	mov    r8d,0x1
3e1a:	40 80 fe 6f          	cmp    sil,0x6f
3e1e:	0f 84 0c fe ff ff    	je     3c30 <decode_format_string+0x190>
3e24:	0f 8e b6 02 00 00    	jle    40e0 <decode_format_string+0x640>
3e2a:	40 80 fe 75          	cmp    sil,0x75
3e2e:	0f 84 0c 03 00 00    	je     4140 <decode_format_string+0x6a0>
3e34:	40 80 fe 78          	cmp    sil,0x78
3e38:	0f 85 0b 02 00 00    	jne    4049 <decode_format_string+0x5a9>
3e3e:	41 8d 45 fc          	lea    eax,[r13-0x4]
3e42:	4c 8d 0d 97 70 00 00 	lea    r9,[rip+0x7097]        # aee0 <_IO_stdin_used+0x220>
3e49:	4c 8d 55 10          	lea    r10,[rbp+0x10]
3e4d:	48 8d 0d d1 6e 00 00 	lea    rcx,[rip+0x6ed1]        # ad25 <_IO_stdin_used+0x65>
3e54:	ba 08 00 00 00       	mov    edx,0x8
3e59:	be 01 00 00 00       	mov    esi,0x1
3e5e:	83 f8 01             	cmp    eax,0x1
3e61:	48 8d 05 81 6e 00 00 	lea    rax,[rip+0x6e81]        # ace9 <_IO_stdin_used+0x29>
3e68:	4c 89 d7             	mov    rdi,r10
3e6b:	4c 89 54 24 08       	mov    QWORD PTR [rsp+0x8],r10
3e70:	4c 0f 46 c8          	cmovbe r9,rax
3e74:	48 8d 05 a5 87 00 00 	lea    rax,[rip+0x87a5]        # c620 <bytes_to_hex_digits>
3e7b:	46 8b 3c 80          	mov    r15d,DWORD PTR [rax+r8*4]
3e7f:	31 c0                	xor    eax,eax
3e81:	45 89 f8             	mov    r8d,r15d
3e84:	e8 c7 dc ff ff       	call   1b50 <__sprintf_chk@plt>
3e89:	4c 8b 54 24 08       	mov    r10,QWORD PTR [rsp+0x8]
3e8e:	ba 03 00 00 00       	mov    edx,0x3
3e93:	4c 89 d7             	mov    rdi,r10
3e96:	89 54 24 08          	mov    DWORD PTR [rsp+0x8],edx
3e9a:	e8 31 da ff ff       	call   18d0 <strlen@plt>
3e9f:	48 83 f8 07          	cmp    rax,0x7
3ea3:	8b 54 24 08          	mov    edx,DWORD PTR [rsp+0x8]
3ea7:	0f 87 cf 03 00 00    	ja     427c <decode_format_string+0x7dc>
3ead:	41 83 fd 05          	cmp    r13d,0x5
3eb1:	0f 87 92 01 00 00    	ja     4049 <decode_format_string+0x5a9>
3eb7:	48 8d 35 62 81 00 00 	lea    rsi,[rip+0x8162]        # c020 <_IO_stdin_used+0x1360>
3ebe:	44 89 e9             	mov    ecx,r13d
3ec1:	48 63 04 8e          	movsxd rax,DWORD PTR [rsi+rcx*4]
3ec5:	48 01 f0             	add    rax,rsi
3ec8:	ff e0                	jmp    rax
3eca:	66 0f 1f 44 00 00    	nop    WORD PTR [rax+rax*1+0x0]
3ed0:	48 8d 05 59 f2 ff ff 	lea    rax,[rip+0xfffffffffffff259]        # 3130 <print_long_long>
3ed7:	e9 d1 fd ff ff       	jmp    3cad <decode_format_string+0x20d>
3edc:	0f 1f 40 00          	nop    DWORD PTR [rax+0x0]
3ee0:	48 8d 05 49 f3 ff ff 	lea    rax,[rip+0xfffffffffffff349]        # 3230 <print_long>
3ee7:	e9 c1 fd ff ff       	jmp    3cad <decode_format_string+0x20d>
3eec:	0f 1f 40 00          	nop    DWORD PTR [rax+0x0]
3ef0:	48 8d 05 39 f4 ff ff 	lea    rax,[rip+0xfffffffffffff439]        # 3330 <print_int>
3ef7:	e9 b1 fd ff ff       	jmp    3cad <decode_format_string+0x20d>
3efc:	0f 1f 40 00          	nop    DWORD PTR [rax+0x0]
3f00:	48 8d 05 29 f5 ff ff 	lea    rax,[rip+0xfffffffffffff529]        # 3430 <print_short>
3f07:	48 8d 0d 12 f6 ff ff 	lea    rcx,[rip+0xfffffffffffff612]        # 3520 <print_s_short>
3f0e:	85 d2                	test   edx,edx
3f10:	48 0f 44 c1          	cmove  rax,rcx
3f14:	e9 94 fd ff ff       	jmp    3cad <decode_format_string+0x20d>
3f19:	0f 1f 80 00 00 00 00 	nop    DWORD PTR [rax+0x0]
3f20:	48 8d 05 e9 f6 ff ff 	lea    rax,[rip+0xfffffffffffff6e9]        # 3610 <print_char>
3f27:	48 8d 0d 72 f7 ff ff 	lea    rcx,[rip+0xfffffffffffff772]        # 36a0 <print_s_char>
3f2e:	85 d2                	test   edx,edx
3f30:	48 0f 44 c1          	cmove  rax,rcx
3f34:	e9 74 fd ff ff       	jmp    3cad <decode_format_string+0x20d>
3f39:	0f 1f 80 00 00 00 00 	nop    DWORD PTR [rax+0x0]
3f40:	0f be c8             	movsx  ecx,al
3f43:	49 8d 7c 24 01       	lea    rdi,[r12+0x1]
3f48:	83 e9 30             	sub    ecx,0x30
3f4b:	83 f9 09             	cmp    ecx,0x9
3f4e:	0f 87 d5 02 00 00    	ja     4229 <decode_format_string+0x789>
3f54:	49 8d 5c 24 02       	lea    rbx,[r12+0x2]
3f59:	48 63 c9             	movsxd rcx,ecx
3f5c:	45 31 c0             	xor    r8d,r8d
3f5f:	eb 2e                	jmp    3f8f <decode_format_string+0x4ef>
3f61:	0f 1f 80 00 00 00 00 	nop    DWORD PTR [rax+0x0]
3f68:	48 63 c8             	movsxd rcx,eax
3f6b:	48 b8 cd cc cc cc cc 	movabs rax,0xcccccccccccccccd
3f72:	cc cc cc
3f75:	48 83 c3 01          	add    rbx,0x1
3f79:	48 89 ca             	mov    rdx,rcx
3f7c:	48 f7 d2             	not    rdx
3f7f:	48 f7 e2             	mul    rdx
3f82:	48 c1 ea 03          	shr    rdx,0x3
3f86:	4c 39 c2             	cmp    rdx,r8
3f89:	0f 82 11 02 00 00    	jb     41a0 <decode_format_string+0x700>
3f8f:	4b 8d 04 80          	lea    rax,[r8+r8*4]
3f93:	4c 8d 04 41          	lea    r8,[rcx+rax*2]
3f97:	0f be 03             	movsx  eax,BYTE PTR [rbx]
3f9a:	83 e8 30             	sub    eax,0x30
3f9d:	83 f8 09             	cmp    eax,0x9
3fa0:	76 c6                	jbe    3f68 <decode_format_string+0x4c8>
3fa2:	48 39 df             	cmp    rdi,rbx
3fa5:	0f 84 6c 02 00 00    	je     4217 <decode_format_string+0x777>
3fab:	49 83 f8 08          	cmp    r8,0x8
3faf:	77 14                	ja     3fc5 <decode_format_string+0x525>
3fb1:	48 8d 05 c8 c1 20 00 	lea    rax,[rip+0x20c1c8]        # 210180 <integral_type_size>
3fb8:	46 8b 2c 80          	mov    r13d,DWORD PTR [rax+r8*4]
3fbc:	45 85 ed             	test   r13d,r13d
3fbf:	0f 85 55 fe ff ff    	jne    3e1a <decode_format_string+0x37a>
3fc5:	48 8b 3c 24          	mov    rdi,QWORD PTR [rsp]
3fc9:	4c 89 44 24 08       	mov    QWORD PTR [rsp+0x8],r8
3fce:	e8 4d 38 00 00       	call   7820 <quote>
3fd3:	48 8d 35 5e 6f 00 00 	lea    rsi,[rip+0x6f5e]        # af38 <_IO_stdin_used+0x278>
3fda:	48 89 c3             	mov    rbx,rax
3fdd:	ba 05 00 00 00       	mov    edx,0x5
3fe2:	31 ff                	xor    edi,edi
3fe4:	e8 c7 d8 ff ff       	call   18b0 <dcgettext@plt>
3fe9:	4c 8b 44 24 08       	mov    r8,QWORD PTR [rsp+0x8]
3fee:	48 89 d9             	mov    rcx,rbx
3ff1:	48 89 c2             	mov    rdx,rax
3ff4:	31 f6                	xor    esi,esi
3ff6:	31 c0                	xor    eax,eax
3ff8:	31 ff                	xor    edi,edi
3ffa:	e8 a1 da ff ff       	call   1aa0 <error@plt>
3fff:	48 83 c4 18          	add    rsp,0x18
4003:	31 c0                	xor    eax,eax
4005:	5b                   	pop    rbx
4006:	5d                   	pop    rbp
4007:	41 5c                	pop    r12
4009:	41 5d                	pop    r13
400b:	41 5e                	pop    r14
400d:	41 5f                	pop    r15
400f:	c3                   	ret
4010:	44 8b 2d 29 c1 20 00 	mov    r13d,DWORD PTR [rip+0x20c129]        # 210140 <fp_type_size+0x20>
4017:	48 89 f3             	mov    rbx,rsi
401a:	66 0f 1f 44 00 00    	nop    WORD PTR [rax+rax*1+0x0]
4020:	e8 3b d8 ff ff       	call   1860 <localeconv@plt>
4025:	48 8b 38             	mov    rdi,QWORD PTR [rax]
4028:	b8 01 00 00 00       	mov    eax,0x1
402d:	80 3f 00             	cmp    BYTE PTR [rdi],0x0
4030:	74 05                	je     4037 <decode_format_string+0x597>
4032:	e8 99 d8 ff ff       	call   18d0 <strlen@plt>
4037:	41 83 fd 07          	cmp    r13d,0x7
403b:	74 13                	je     4050 <decode_format_string+0x5b0>
403d:	41 83 fd 08          	cmp    r13d,0x8
4041:	74 3d                	je     4080 <decode_format_string+0x5e0>
4043:	41 83 fd 06          	cmp    r13d,0x6
4047:	74 1f                	je     4068 <decode_format_string+0x5c8>
4049:	e8 92 d7 ff ff       	call   17e0 <abort@plt>
404e:	66 90                	xchg   ax,ax
4050:	44 8d 78 17          	lea    r15d,[rax+0x17]
4054:	ba 04 00 00 00       	mov    edx,0x4
4059:	48 8d 05 f0 f7 ff ff 	lea    rax,[rip+0xfffffffffffff7f0]        # 3850 <print_double>
4060:	e9 48 fc ff ff       	jmp    3cad <decode_format_string+0x20d>
4065:	0f 1f 00             	nop    DWORD PTR [rax]
4068:	44 8d 78 0e          	lea    r15d,[rax+0xe]
406c:	ba 04 00 00 00       	mov    edx,0x4
4071:	48 8d 05 f8 f8 ff ff 	lea    rax,[rip+0xfffffffffffff8f8]        # 3970 <print_float>
4078:	e9 30 fc ff ff       	jmp    3cad <decode_format_string+0x20d>
407d:	0f 1f 00             	nop    DWORD PTR [rax]
4080:	44 8d 78 1c          	lea    r15d,[rax+0x1c]
4084:	ba 04 00 00 00       	mov    edx,0x4
4089:	48 8d 05 a0 f6 ff ff 	lea    rax,[rip+0xfffffffffffff6a0]        # 3730 <print_long_double>
4090:	e9 18 fc ff ff       	jmp    3cad <decode_format_string+0x20d>
4095:	0f 1f 00             	nop    DWORD PTR [rax]
4098:	49 8d 5c 24 02       	lea    rbx,[r12+0x2]
409d:	44 8b 2d 9c c0 20 00 	mov    r13d,DWORD PTR [rip+0x20c09c]        # 210140 <fp_type_size+0x20>
40a4:	e9 77 ff ff ff       	jmp    4020 <decode_format_string+0x580>
40a9:	0f 1f 80 00 00 00 00 	nop    DWORD PTR [rax+0x0]
40b0:	49 8d 5c 24 02       	lea    rbx,[r12+0x2]
40b5:	44 8b 2d a4 c0 20 00 	mov    r13d,DWORD PTR [rip+0x20c0a4]        # 210160 <fp_type_size+0x40>
40bc:	e9 5f ff ff ff       	jmp    4020 <decode_format_string+0x580>
40c1:	0f 1f 80 00 00 00 00 	nop    DWORD PTR [rax+0x0]
40c8:	49 8d 5c 24 02       	lea    rbx,[r12+0x2]
40cd:	44 8b 2d 5c c0 20 00 	mov    r13d,DWORD PTR [rip+0x20c05c]        # 210130 <fp_type_size+0x10>
40d4:	e9 47 ff ff ff       	jmp    4020 <decode_format_string+0x580>
40d9:	0f 1f 80 00 00 00 00 	nop    DWORD PTR [rax+0x0]
40e0:	40 80 fe 64          	cmp    sil,0x64
40e4:	0f 85 5f ff ff ff    	jne    4049 <decode_format_string+0x5a9>
40ea:	48 8d 05 ef 85 00 00 	lea    rax,[rip+0x85ef]        # c6e0 <bytes_to_signed_dec_digits>
40f1:	4c 8d 55 10          	lea    r10,[rbp+0x10]
40f5:	48 8d 0d 23 6c 00 00 	lea    rcx,[rip+0x6c23]        # ad1f <_IO_stdin_used+0x5f>
40fc:	ba 08 00 00 00       	mov    edx,0x8
4101:	be 01 00 00 00       	mov    esi,0x1
4106:	46 8b 3c 80          	mov    r15d,DWORD PTR [rax+r8*4]
410a:	41 8d 45 fc          	lea    eax,[r13-0x4]
410e:	4c 8d 05 c9 8f 00 00 	lea    r8,[rip+0x8fc9]        # d0de <version_etc_copyright+0x3e>
4115:	4c 89 d7             	mov    rdi,r10
4118:	4c 89 54 24 08       	mov    QWORD PTR [rsp+0x8],r10
411d:	83 f8 01             	cmp    eax,0x1
4120:	48 8d 05 b9 6b 00 00 	lea    rax,[rip+0x6bb9]        # ace0 <_IO_stdin_used+0x20>
4127:	4c 0f 46 c0          	cmovbe r8,rax
412b:	31 c0                	xor    eax,eax
412d:	e8 1e da ff ff       	call   1b50 <__sprintf_chk@plt>
4132:	31 d2                	xor    edx,edx
4134:	4c 8b 54 24 08       	mov    r10,QWORD PTR [rsp+0x8]
4139:	e9 55 fd ff ff       	jmp    3e93 <decode_format_string+0x3f3>
413e:	66 90                	xchg   ax,ax
4140:	48 8d 05 39 85 00 00 	lea    rax,[rip+0x8539]        # c680 <bytes_to_unsigned_dec_digits>
4147:	4c 8d 55 10          	lea    r10,[rbp+0x10]
414b:	48 8d 0d cd 6b 00 00 	lea    rcx,[rip+0x6bcd]        # ad1f <_IO_stdin_used+0x5f>
4152:	ba 08 00 00 00       	mov    edx,0x8
4157:	be 01 00 00 00       	mov    esi,0x1
415c:	46 8b 3c 80          	mov    r15d,DWORD PTR [rax+r8*4]
4160:	41 8d 45 fc          	lea    eax,[r13-0x4]
4164:	4c 8d 05 7c 6b 00 00 	lea    r8,[rip+0x6b7c]        # ace7 <_IO_stdin_used+0x27>
416b:	4c 89 d7             	mov    rdi,r10
416e:	4c 89 54 24 08       	mov    QWORD PTR [rsp+0x8],r10
4173:	83 f8 01             	cmp    eax,0x1
4176:	48 8d 05 69 6b 00 00 	lea    rax,[rip+0x6b69]        # ace6 <_IO_stdin_used+0x26>
417d:	4c 0f 46 c0          	cmovbe r8,rax
4181:	31 c0                	xor    eax,eax
4183:	e8 c8 d9 ff ff       	call   1b50 <__sprintf_chk@plt>
4188:	ba 01 00 00 00       	mov    edx,0x1
418d:	4c 8b 54 24 08       	mov    r10,QWORD PTR [rsp+0x8]
4192:	e9 fc fc ff ff       	jmp    3e93 <decode_format_string+0x3f3>
4197:	66 0f 1f 84 00 00 00 	nop    WORD PTR [rax+rax*1+0x0]
419e:	00 00
41a0:	48 8b 3c 24          	mov    rdi,QWORD PTR [rsp]
41a4:	e8 77 36 00 00       	call   7820 <quote>
41a9:	48 8d 35 88 6b 00 00 	lea    rsi,[rip+0x6b88]        # ad38 <_IO_stdin_used+0x78>
41b0:	48 89 c3             	mov    rbx,rax
41b3:	ba 05 00 00 00       	mov    edx,0x5
41b8:	31 ff                	xor    edi,edi
41ba:	e8 f1 d6 ff ff       	call   18b0 <dcgettext@plt>
41bf:	48 89 d9             	mov    rcx,rbx
41c2:	48 89 c2             	mov    rdx,rax
41c5:	31 f6                	xor    esi,esi
41c7:	31 c0                	xor    eax,eax
41c9:	31 ff                	xor    edi,edi
41cb:	e8 d0 d8 ff ff       	call   1aa0 <error@plt>
41d0:	48 83 c4 18          	add    rsp,0x18
41d4:	31 c0                	xor    eax,eax
41d6:	5b                   	pop    rbx
41d7:	5d                   	pop    rbp
41d8:	41 5c                	pop    r12
41da:	41 5d                	pop    r13
41dc:	41 5e                	pop    r14
41de:	41 5f                	pop    r15
41e0:	c3                   	ret
41e1:	0f 1f 80 00 00 00 00 	nop    DWORD PTR [rax+0x0]
41e8:	49 8d 5c 24 02       	lea    rbx,[r12+0x2]
41ed:	44 8b 2d ac bf 20 00 	mov    r13d,DWORD PTR [rip+0x20bfac]        # 2101a0 <integral_type_size+0x20>
41f4:	41 b8 08 00 00 00    	mov    r8d,0x8
41fa:	e9 1b fc ff ff       	jmp    3e1a <decode_format_string+0x37a>
41ff:	90                   	nop
4200:	49 8d 5c 24 02       	lea    rbx,[r12+0x2]
4205:	44 8b 2d 84 bf 20 00 	mov    r13d,DWORD PTR [rip+0x20bf84]        # 210190 <integral_type_size+0x10>
420c:	41 b8 04 00 00 00    	mov    r8d,0x4
4212:	e9 03 fc ff ff       	jmp    3e1a <decode_format_string+0x37a>
4217:	44 8b 2d 72 bf 20 00 	mov    r13d,DWORD PTR [rip+0x20bf72]        # 210190 <integral_type_size+0x10>
421e:	41 b8 04 00 00 00    	mov    r8d,0x4
4224:	e9 f1 fb ff ff       	jmp    3e1a <decode_format_string+0x37a>
4229:	44 8b 2d 60 bf 20 00 	mov    r13d,DWORD PTR [rip+0x20bf60]        # 210190 <integral_type_size+0x10>
4230:	48 89 fb             	mov    rbx,rdi
4233:	41 b8 04 00 00 00    	mov    r8d,0x4
4239:	e9 dc fb ff ff       	jmp    3e1a <decode_format_string+0x37a>
423e:	48 8d 0d 8b 82 00 00 	lea    rcx,[rip+0x828b]        # c4d0 <__PRETTY_FUNCTION__.7462>
4245:	48 8d 35 a0 6a 00 00 	lea    rsi,[rip+0x6aa0]        # acec <_IO_stdin_used+0x2c>
424c:	48 8d 3d db 6a 00 00 	lea    rdi,[rip+0x6adb]        # ad2e <_IO_stdin_used+0x6e>
4253:	ba e4 03 00 00       	mov    edx,0x3e4
4258:	e8 f3 d6 ff ff       	call   1950 <__assert_fail@plt>
425d:	48 8d 0d 4c 82 00 00 	lea    rcx,[rip+0x824c]        # c4b0 <__PRETTY_FUNCTION__.7407>
4264:	48 8d 35 81 6a 00 00 	lea    rsi,[rip+0x6a81]        # acec <_IO_stdin_used+0x2c>
426b:	48 8d 3d 9f 6a 00 00 	lea    rdi,[rip+0x6a9f]        # ad11 <_IO_stdin_used+0x51>
4272:	ba 86 02 00 00       	mov    edx,0x286
4277:	e8 d4 d6 ff ff       	call   1950 <__assert_fail@plt>
427c:	48 8d 0d 2d 82 00 00 	lea    rcx,[rip+0x822d]        # c4b0 <__PRETTY_FUNCTION__.7407>
4283:	48 8d 35 62 6a 00 00 	lea    rsi,[rip+0x6a62]        # acec <_IO_stdin_used+0x2c>
428a:	48 8d 3d f7 6c 00 00 	lea    rdi,[rip+0x6cf7]        # af88 <_IO_stdin_used+0x2c8>
4291:	ba e9 02 00 00       	mov    edx,0x2e9
4296:	e8 b5 d6 ff ff       	call   1950 <__assert_fail@plt>
429b:	be 01 00 00 00       	mov    esi,0x1
42a0:	e9 4a fb ff ff       	jmp    3def <decode_format_string+0x34f>
42a5:	48 8d 0d 24 82 00 00 	lea    rcx,[rip+0x8224]        # c4d0 <__PRETTY_FUNCTION__.7462>
42ac:	48 8d 35 39 6a 00 00 	lea    rsi,[rip+0x6a39]        # acec <_IO_stdin_used+0x2c>
42b3:	48 8d 3d 4d 6a 00 00 	lea    rdi,[rip+0x6a4d]        # ad07 <_IO_stdin_used+0x47>
42ba:	ba d8 03 00 00       	mov    edx,0x3d8
42bf:	e8 8c d6 ff ff       	call   1950 <__assert_fail@plt>
42c4:	66 90                	xchg   ax,ax
42c6:	66 2e 0f 1f 84 00 00 	nop    WORD PTR cs:[rax+rax*1+0x0]
42cd:	00 00 00

00000000000042d0 <print_ascii>:
42d0:	41 57                	push   r15
42d2:	41 56                	push   r14
42d4:	41 55                	push   r13
42d6:	41 54                	push   r12
42d8:	55                   	push   rbp
42d9:	53                   	push   rbx
42da:	48 83 ec 38          	sub    rsp,0x38
42de:	64 48 8b 04 25 28 00 	mov    rax,QWORD PTR fs:0x28
42e5:	00 00
42e7:	48 89 44 24 28       	mov    QWORD PTR [rsp+0x28],rax
42ec:	31 c0                	xor    eax,eax
42ee:	48 39 f7             	cmp    rdi,rsi
42f1:	44 89 44 24 18       	mov    DWORD PTR [rsp+0x18],r8d
42f6:	0f 86 89 00 00 00    	jbe    4385 <print_ascii+0xb5>
42fc:	48 8d 5f ff          	lea    rbx,[rdi-0x1]
4300:	4d 63 f1             	movsxd r14,r9d
4303:	48 89 f8             	mov    rax,rdi
4306:	48 29 f0             	sub    rax,rsi
4309:	4c 8d 2d 28 7d 00 00 	lea    r13,[rip+0x7d28]        # c038 <_IO_stdin_used+0x1378>
4310:	49 89 fc             	mov    r12,rdi
4313:	49 0f af de          	imul   rbx,r14
4317:	48 01 d0             	add    rax,rdx
431a:	49 89 d7             	mov    r15,rdx
431d:	48 89 04 24          	mov    QWORD PTR [rsp],rax
4321:	0f 1f 80 00 00 00 00 	nop    DWORD PTR [rax+0x0]
4328:	31 d2                	xor    edx,edx
432a:	48 89 d8             	mov    rax,rbx
432d:	49 83 c7 01          	add    r15,0x1
4331:	45 0f b6 47 ff       	movzx  r8d,BYTE PTR [r15-0x1]
4336:	49 f7 f4             	div    r12
4339:	41 80 f8 0d          	cmp    r8b,0xd
433d:	41 0f b6 d0          	movzx  edx,r8b
4341:	48 89 c5             	mov    rbp,rax
4344:	0f 87 d6 00 00 00    	ja     4420 <print_ascii+0x150>
434a:	49 63 44 95 00       	movsxd rax,DWORD PTR [r13+rdx*4+0x0]
434f:	4c 01 e8             	add    rax,r13
4352:	ff e0                	jmp    rax
4354:	0f 1f 40 00          	nop    DWORD PTR [rax+0x0]
4358:	48 8d 15 fb 69 00 00 	lea    rdx,[rip+0x69fb]        # ad5a <_IO_stdin_used+0x9a>
435f:	90                   	nop
4360:	8b 44 24 18          	mov    eax,DWORD PTR [rsp+0x18]
4364:	41 29 e9             	sub    r9d,ebp
4367:	48 8d 3d 6e 69 00 00 	lea    rdi,[rip+0x696e]        # acdc <_IO_stdin_used+0x1c>
436e:	4c 29 f3             	sub    rbx,r14
4371:	41 8d 34 01          	lea    esi,[r9+rax*1]
4375:	31 c0                	xor    eax,eax
4377:	e8 d4 3d 00 00       	call   8150 <xprintf>
437c:	4c 3b 3c 24          	cmp    r15,QWORD PTR [rsp]
4380:	41 89 e9             	mov    r9d,ebp
4383:	75 a3                	jne    4328 <print_ascii+0x58>
4385:	48 8b 44 24 28       	mov    rax,QWORD PTR [rsp+0x28]
438a:	64 48 33 04 25 28 00 	xor    rax,QWORD PTR fs:0x28
4391:	00 00
4393:	0f 85 f0 00 00 00    	jne    4489 <print_ascii+0x1b9>
4399:	48 83 c4 38          	add    rsp,0x38
439d:	5b                   	pop    rbx
439e:	5d                   	pop    rbp
439f:	41 5c                	pop    r12
43a1:	41 5d                	pop    r13
43a3:	41 5e                	pop    r14
43a5:	41 5f                	pop    r15
43a7:	c3                   	ret
43a8:	0f 1f 84 00 00 00 00 	nop    DWORD PTR [rax+rax*1+0x0]
43af:	00
43b0:	48 8d 15 a0 69 00 00 	lea    rdx,[rip+0x69a0]        # ad57 <_IO_stdin_used+0x97>
43b7:	eb a7                	jmp    4360 <print_ascii+0x90>
43b9:	0f 1f 80 00 00 00 00 	nop    DWORD PTR [rax+0x0]
43c0:	48 8d 15 9f 69 00 00 	lea    rdx,[rip+0x699f]        # ad66 <_IO_stdin_used+0xa6>
43c7:	eb 97                	jmp    4360 <print_ascii+0x90>
43c9:	0f 1f 80 00 00 00 00 	nop    DWORD PTR [rax+0x0]
43d0:	48 8d 15 89 69 00 00 	lea    rdx,[rip+0x6989]        # ad60 <_IO_stdin_used+0xa0>
43d7:	eb 87                	jmp    4360 <print_ascii+0x90>
43d9:	0f 1f 80 00 00 00 00 	nop    DWORD PTR [rax+0x0]
43e0:	48 8d 15 85 69 00 00 	lea    rdx,[rip+0x6985]        # ad6c <_IO_stdin_used+0xac>
43e7:	e9 74 ff ff ff       	jmp    4360 <print_ascii+0x90>
43ec:	0f 1f 40 00          	nop    DWORD PTR [rax+0x0]
43f0:	48 8d 15 6c 69 00 00 	lea    rdx,[rip+0x696c]        # ad63 <_IO_stdin_used+0xa3>
43f7:	e9 64 ff ff ff       	jmp    4360 <print_ascii+0x90>
43fc:	0f 1f 40 00          	nop    DWORD PTR [rax+0x0]
4400:	48 8d 15 62 69 00 00 	lea    rdx,[rip+0x6962]        # ad69 <_IO_stdin_used+0xa9>
4407:	e9 54 ff ff ff       	jmp    4360 <print_ascii+0x90>
440c:	0f 1f 40 00          	nop    DWORD PTR [rax+0x0]
4410:	48 8d 15 46 69 00 00 	lea    rdx,[rip+0x6946]        # ad5d <_IO_stdin_used+0x9d>
4417:	e9 44 ff ff ff       	jmp    4360 <print_ascii+0x90>
441c:	0f 1f 40 00          	nop    DWORD PTR [rax+0x0]
4420:	44 89 4c 24 1c       	mov    DWORD PTR [rsp+0x1c],r9d
4425:	48 89 54 24 10       	mov    QWORD PTR [rsp+0x10],rdx
442a:	44 88 44 24 08       	mov    BYTE PTR [rsp+0x8],r8b
442f:	e8 0c d7 ff ff       	call   1b40 <__ctype_b_loc@plt>
4434:	48 8b 54 24 10       	mov    rdx,QWORD PTR [rsp+0x10]
4439:	48 8b 00             	mov    rax,QWORD PTR [rax]
443c:	4c 8d 5c 24 24       	lea    r11,[rsp+0x24]
4441:	44 0f b6 44 24 08    	movzx  r8d,BYTE PTR [rsp+0x8]
4447:	48 8d 0d 01 69 00 00 	lea    rcx,[rip+0x6901]        # ad4f <_IO_stdin_used+0x8f>
444e:	be 01 00 00 00       	mov    esi,0x1
4453:	4c 89 df             	mov    rdi,r11
4456:	4c 89 5c 24 08       	mov    QWORD PTR [rsp+0x8],r11
445b:	f6 44 50 01 40       	test   BYTE PTR [rax+rdx*2+0x1],0x40
4460:	48 8d 05 eb 68 00 00 	lea    rax,[rip+0x68eb]        # ad52 <_IO_stdin_used+0x92>
4467:	ba 04 00 00 00       	mov    edx,0x4
446c:	48 0f 44 c8          	cmove  rcx,rax
4470:	31 c0                	xor    eax,eax
4472:	e8 d9 d6 ff ff       	call   1b50 <__sprintf_chk@plt>
4477:	4c 8b 5c 24 08       	mov    r11,QWORD PTR [rsp+0x8]
447c:	44 8b 4c 24 1c       	mov    r9d,DWORD PTR [rsp+0x1c]
4481:	4c 89 da             	mov    rdx,r11
4484:	e9 d7 fe ff ff       	jmp    4360 <print_ascii+0x90>
4489:	e8 52 d4 ff ff       	call   18e0 <__stack_chk_fail@plt>
448e:	66 90                	xchg   ax,ax

0000000000004490 <check_and_close>:
4490:	55                   	push   rbp
4491:	53                   	push   rbx
4492:	bb 01 00 00 00       	mov    ebx,0x1
4497:	48 83 ec 08          	sub    rsp,0x8
449b:	48 8b 05 06 bd 20 00 	mov    rax,QWORD PTR [rip+0x20bd06]        # 2101a8 <in_stream>
44a2:	48 85 c0             	test   rax,rax
44a5:	74 3e                	je     44e5 <check_and_close+0x55>
44a7:	f6 00 20             	test   BYTE PTR [rax],0x20
44aa:	89 fd                	mov    ebp,edi
44ac:	75 72                	jne    4520 <check_and_close+0x90>
44ae:	48 8b 15 fb bc 20 00 	mov    rdx,QWORD PTR [rip+0x20bcfb]        # 2101b0 <file_list>
44b5:	48 8d 3d 7d 8c 00 00 	lea    rdi,[rip+0x8c7d]        # d139 <version_etc_copyright+0x99>
44bc:	b9 02 00 00 00       	mov    ecx,0x2
44c1:	48 8b 72 f8          	mov    rsi,QWORD PTR [rdx-0x8]
44c5:	f3 a6                	repz cmps BYTE PTR ds:[rsi],BYTE PTR es:[rdi]
44c7:	0f 97 c2             	seta   dl
44ca:	80 da 00             	sbb    dl,0x0
44cd:	84 d2                	test   dl,dl
44cf:	0f 85 c3 00 00 00    	jne    4598 <check_and_close+0x108>
44d5:	bb 01 00 00 00       	mov    ebx,0x1
44da:	48 c7 05 c3 bc 20 00 	mov    QWORD PTR [rip+0x20bcc3],0x0        # 2101a8 <in_stream>
44e1:	00 00 00 00
44e5:	48 8b 05 bc bb 20 00 	mov    rax,QWORD PTR [rip+0x20bbbc]        # 2100a8 <stdout@@GLIBC_2.2.5>
44ec:	f6 00 20             	test   BYTE PTR [rax],0x20
44ef:	74 23                	je     4514 <check_and_close+0x84>
44f1:	48 8d 35 86 68 00 00 	lea    rsi,[rip+0x6886]        # ad7e <_IO_stdin_used+0xbe>
44f8:	ba 05 00 00 00       	mov    edx,0x5
44fd:	31 ff                	xor    edi,edi
44ff:	31 db                	xor    ebx,ebx
4501:	e8 aa d3 ff ff       	call   18b0 <dcgettext@plt>
4506:	31 f6                	xor    esi,esi
4508:	48 89 c2             	mov    rdx,rax
450b:	31 ff                	xor    edi,edi
450d:	31 c0                	xor    eax,eax
450f:	e8 8c d5 ff ff       	call   1aa0 <error@plt>
4514:	48 83 c4 08          	add    rsp,0x8
4518:	89 d8                	mov    eax,ebx
451a:	5b                   	pop    rbx
451b:	5d                   	pop    rbp
451c:	c3                   	ret
451d:	0f 1f 00             	nop    DWORD PTR [rax]
4520:	48 8b 15 91 bc 20 00 	mov    rdx,QWORD PTR [rip+0x20bc91]        # 2101b8 <input_filename>
4527:	31 ff                	xor    edi,edi
4529:	be 03 00 00 00       	mov    esi,0x3
452e:	e8 1d 31 00 00       	call   7650 <quotearg_n_style_colon>
4533:	48 8d 35 35 68 00 00 	lea    rsi,[rip+0x6835]        # ad6f <_IO_stdin_used+0xaf>
453a:	48 89 c3             	mov    rbx,rax
453d:	31 ff                	xor    edi,edi
453f:	ba 05 00 00 00       	mov    edx,0x5
4544:	e8 67 d3 ff ff       	call   18b0 <dcgettext@plt>
4549:	48 89 d9             	mov    rcx,rbx
454c:	31 ff                	xor    edi,edi
454e:	48 89 c2             	mov    rdx,rax
4551:	89 ee                	mov    esi,ebp
4553:	31 c0                	xor    eax,eax
4555:	e8 46 d5 ff ff       	call   1aa0 <error@plt>
455a:	48 8b 05 4f bc 20 00 	mov    rax,QWORD PTR [rip+0x20bc4f]        # 2101b0 <file_list>
4561:	48 8d 3d d1 8b 00 00 	lea    rdi,[rip+0x8bd1]        # d139 <version_etc_copyright+0x99>
4568:	b9 02 00 00 00       	mov    ecx,0x2
456d:	48 8b 70 f8          	mov    rsi,QWORD PTR [rax-0x8]
4571:	f3 a6                	repz cmps BYTE PTR ds:[rsi],BYTE PTR es:[rdi]
4573:	0f 97 c0             	seta   al
4576:	1c 00                	sbb    al,0x0
4578:	31 db                	xor    ebx,ebx
457a:	84 c0                	test   al,al
457c:	0f 84 58 ff ff ff    	je     44da <check_and_close+0x4a>
4582:	48 8b 3d 1f bc 20 00 	mov    rdi,QWORD PTR [rip+0x20bc1f]        # 2101a8 <in_stream>
4589:	e8 72 42 00 00       	call   8800 <rpl_fclose>
458e:	e9 47 ff ff ff       	jmp    44da <check_and_close+0x4a>
4593:	0f 1f 44 00 00       	nop    DWORD PTR [rax+rax*1+0x0]
4598:	48 89 c7             	mov    rdi,rax
459b:	e8 60 42 00 00       	call   8800 <rpl_fclose>
45a0:	85 c0                	test   eax,eax
45a2:	0f 84 2d ff ff ff    	je     44d5 <check_and_close+0x45>
45a8:	48 8b 15 09 bc 20 00 	mov    rdx,QWORD PTR [rip+0x20bc09]        # 2101b8 <input_filename>
45af:	be 03 00 00 00       	mov    esi,0x3
45b4:	31 ff                	xor    edi,edi
45b6:	e8 95 30 00 00       	call   7650 <quotearg_n_style_colon>
45bb:	48 89 c3             	mov    rbx,rax
45be:	e8 2d d2 ff ff       	call   17f0 <__errno_location@plt>
45c3:	8b 30                	mov    esi,DWORD PTR [rax]
45c5:	48 8d 15 14 82 00 00 	lea    rdx,[rip+0x8214]        # c7e0 <bytes_to_oct_digits+0xa0>
45cc:	48 89 d9             	mov    rcx,rbx
45cf:	31 ff                	xor    edi,edi
45d1:	31 c0                	xor    eax,eax
45d3:	31 db                	xor    ebx,ebx
45d5:	e8 c6 d4 ff ff       	call   1aa0 <error@plt>
45da:	e9 fb fe ff ff       	jmp    44da <check_and_close+0x4a>
45df:	90                   	nop

00000000000045e0 <open_next_file>:
45e0:	55                   	push   rbp
45e1:	53                   	push   rbx
45e2:	48 8d 1d 50 8b 00 00 	lea    rbx,[rip+0x8b50]        # d139 <version_etc_copyright+0x99>
45e9:	bd 01 00 00 00       	mov    ebp,0x1
45ee:	48 83 ec 08          	sub    rsp,0x8
45f2:	48 8b 05 b7 bb 20 00 	mov    rax,QWORD PTR [rip+0x20bbb7]        # 2101b0 <file_list>
45f9:	48 8b 10             	mov    rdx,QWORD PTR [rax]
45fc:	48 85 d2             	test   rdx,rdx
45ff:	48 89 15 b2 bb 20 00 	mov    QWORD PTR [rip+0x20bbb2],rdx        # 2101b8 <input_filename>
4606:	0f 84 89 00 00 00    	je     4695 <open_next_file+0xb5>
460c:	b9 02 00 00 00       	mov    ecx,0x2
4611:	48 89 d6             	mov    rsi,rdx
4614:	48 89 df             	mov    rdi,rbx
4617:	48 83 c0 08          	add    rax,0x8
461b:	f3 a6                	repz cmps BYTE PTR ds:[rsi],BYTE PTR es:[rdi]
461d:	48 89 05 8c bb 20 00 	mov    QWORD PTR [rip+0x20bb8c],rax        # 2101b0 <file_list>
4624:	0f 97 c0             	seta   al
4627:	1c 00                	sbb    al,0x0
4629:	84 c0                	test   al,al
462b:	75 3b                	jne    4668 <open_next_file+0x88>
462d:	48 8d 35 56 67 00 00 	lea    rsi,[rip+0x6756]        # ad8a <_IO_stdin_used+0xca>
4634:	ba 05 00 00 00       	mov    edx,0x5
4639:	31 ff                	xor    edi,edi
463b:	e8 70 d2 ff ff       	call   18b0 <dcgettext@plt>
4640:	48 89 05 71 bb 20 00 	mov    QWORD PTR [rip+0x20bb71],rax        # 2101b8 <input_filename>
4647:	48 8b 05 62 ba 20 00 	mov    rax,QWORD PTR [rip+0x20ba62]        # 2100b0 <stdin@@GLIBC_2.2.5>
464e:	c6 05 4f bb 20 00 01 	mov    BYTE PTR [rip+0x20bb4f],0x1        # 2101a4 <have_read_stdin>
4655:	48 89 05 4c bb 20 00 	mov    QWORD PTR [rip+0x20bb4c],rax        # 2101a8 <in_stream>
465c:	48 85 c0             	test   rax,rax
465f:	74 91                	je     45f2 <open_next_file+0x12>
4661:	eb 20                	jmp    4683 <open_next_file+0xa3>
4663:	0f 1f 44 00 00       	nop    DWORD PTR [rax+rax*1+0x0]
4668:	48 8d 35 f8 66 00 00 	lea    rsi,[rip+0x66f8]        # ad67 <_IO_stdin_used+0xa7>
466f:	48 89 d7             	mov    rdi,rdx
4672:	e8 49 d4 ff ff       	call   1ac0 <fopen@plt>
4677:	48 85 c0             	test   rax,rax
467a:	48 89 05 27 bb 20 00 	mov    QWORD PTR [rip+0x20bb27],rax        # 2101a8 <in_stream>
4681:	74 1d                	je     46a0 <open_next_file+0xc0>
4683:	80 3d 66 bb 20 00 00 	cmp    BYTE PTR [rip+0x20bb66],0x0        # 2101f0 <limit_bytes_to_format>
468a:	74 09                	je     4695 <open_next_file+0xb5>
468c:	80 3d 7f bb 20 00 00 	cmp    BYTE PTR [rip+0x20bb7f],0x0        # 210212 <flag_dump_strings>
4693:	74 4b                	je     46e0 <open_next_file+0x100>
4695:	48 83 c4 08          	add    rsp,0x8
4699:	89 e8                	mov    eax,ebp
469b:	5b                   	pop    rbx
469c:	5d                   	pop    rbp
469d:	c3                   	ret
469e:	66 90                	xchg   ax,ax
46a0:	48 8b 15 11 bb 20 00 	mov    rdx,QWORD PTR [rip+0x20bb11]        # 2101b8 <input_filename>
46a7:	be 03 00 00 00       	mov    esi,0x3
46ac:	31 ff                	xor    edi,edi
46ae:	e8 9d 2f 00 00       	call   7650 <quotearg_n_style_colon>
46b3:	48 89 c5             	mov    rbp,rax
46b6:	e8 35 d1 ff ff       	call   17f0 <__errno_location@plt>
46bb:	8b 30                	mov    esi,DWORD PTR [rax]
46bd:	48 8d 15 1c 81 00 00 	lea    rdx,[rip+0x811c]        # c7e0 <bytes_to_oct_digits+0xa0>
46c4:	48 89 e9             	mov    rcx,rbp
46c7:	31 c0                	xor    eax,eax
46c9:	31 ff                	xor    edi,edi
46cb:	31 ed                	xor    ebp,ebp
46cd:	e8 ce d3 ff ff       	call   1aa0 <error@plt>
46d2:	48 8b 05 cf ba 20 00 	mov    rax,QWORD PTR [rip+0x20bacf]        # 2101a8 <in_stream>
46d9:	e9 7e ff ff ff       	jmp    465c <open_next_file+0x7c>
46de:	66 90                	xchg   ax,ax
46e0:	31 c9                	xor    ecx,ecx
46e2:	ba 02 00 00 00       	mov    edx,0x2
46e7:	31 f6                	xor    esi,esi
46e9:	48 89 c7             	mov    rdi,rax
46ec:	e8 8f d3 ff ff       	call   1a80 <setvbuf@plt>
46f1:	eb a2                	jmp    4695 <open_next_file+0xb5>
46f3:	0f 1f 00             	nop    DWORD PTR [rax]
46f6:	66 2e 0f 1f 84 00 00 	nop    WORD PTR cs:[rax+rax*1+0x0]
46fd:	00 00 00

0000000000004700 <skip>:
4700:	41 57                	push   r15
4702:	41 56                	push   r14
4704:	41 55                	push   r13
4706:	41 54                	push   r12
4708:	55                   	push   rbp
4709:	53                   	push   rbx
470a:	48 81 ec a8 20 00 00 	sub    rsp,0x20a8
4711:	64 48 8b 04 25 28 00 	mov    rax,QWORD PTR fs:0x28
4718:	00 00
471a:	48 89 84 24 98 20 00 	mov    QWORD PTR [rsp+0x2098],rax
4721:	00
4722:	31 c0                	xor    eax,eax
4724:	48 85 ff             	test   rdi,rdi
4727:	0f 84 7b 01 00 00    	je     48a8 <skip+0x1a8>
472d:	4c 8b 3d 74 ba 20 00 	mov    r15,QWORD PTR [rip+0x20ba74]        # 2101a8 <in_stream>
4734:	4d 85 ff             	test   r15,r15
4737:	0f 84 d1 00 00 00    	je     480e <skip+0x10e>
473d:	49 89 fd             	mov    r13,rdi
4740:	bb 01 00 00 00       	mov    ebx,0x1
4745:	49 89 e4             	mov    r12,rsp
4748:	48 8d ac 24 90 00 00 	lea    rbp,[rsp+0x90]
474f:	00
4750:	49 be ff ff ff ff ff 	movabs r14,0x1fffffffffffffff
4757:	ff ff 1f
475a:	eb 63                	jmp    47bf <skip+0xbf>
475c:	0f 1f 40 00          	nop    DWORD PTR [rax+0x0]
4760:	8b 44 24 18          	mov    eax,DWORD PTR [rsp+0x18]
4764:	25 00 d0 00 00       	and    eax,0xd000
4769:	3d 00 80 00 00       	cmp    eax,0x8000
476e:	0f 85 c4 00 00 00    	jne    4838 <skip+0x138>
4774:	48 8b 44 24 38       	mov    rax,QWORD PTR [rsp+0x38]
4779:	b9 00 02 00 00       	mov    ecx,0x200
477e:	48 8d 50 ff          	lea    rdx,[rax-0x1]
4782:	4c 39 f2             	cmp    rdx,r14
4785:	48 8b 54 24 30       	mov    rdx,QWORD PTR [rsp+0x30]
478a:	48 0f 47 c1          	cmova  rax,rcx
478e:	48 39 c2             	cmp    rdx,rax
4791:	0f 8e a1 00 00 00    	jle    4838 <skip+0x138>
4797:	4c 39 ea             	cmp    rdx,r13
479a:	0f 83 1e 01 00 00    	jae    48be <skip+0x1be>
47a0:	49 29 d5             	sub    r13,rdx
47a3:	31 ff                	xor    edi,edi
47a5:	e8 e6 fc ff ff       	call   4490 <check_and_close>
47aa:	21 c3                	and    ebx,eax
47ac:	e8 2f fe ff ff       	call   45e0 <open_next_file>
47b1:	4c 8b 3d f0 b9 20 00 	mov    r15,QWORD PTR [rip+0x20b9f0]        # 2101a8 <in_stream>
47b8:	21 c3                	and    ebx,eax
47ba:	4d 85 ff             	test   r15,r15
47bd:	74 4f                	je     480e <skip+0x10e>
47bf:	4c 89 ff             	mov    rdi,r15
47c2:	e8 19 d2 ff ff       	call   19e0 <fileno@plt>
47c7:	4c 89 e2             	mov    rdx,r12
47ca:	89 c6                	mov    esi,eax
47cc:	bf 01 00 00 00       	mov    edi,0x1
47d1:	e8 4a d2 ff ff       	call   1a20 <__fxstat@plt>
47d6:	85 c0                	test   eax,eax
47d8:	74 86                	je     4760 <skip+0x60>
47da:	48 8b 15 d7 b9 20 00 	mov    rdx,QWORD PTR [rip+0x20b9d7]        # 2101b8 <input_filename>
47e1:	be 03 00 00 00       	mov    esi,0x3
47e6:	31 ff                	xor    edi,edi
47e8:	e8 63 2e 00 00       	call   7650 <quotearg_n_style_colon>
47ed:	48 89 c3             	mov    rbx,rax
47f0:	e8 fb cf ff ff       	call   17f0 <__errno_location@plt>
47f5:	8b 30                	mov    esi,DWORD PTR [rax]
47f7:	48 8d 15 e2 7f 00 00 	lea    rdx,[rip+0x7fe2]        # c7e0 <bytes_to_oct_digits+0xa0>
47fe:	48 89 d9             	mov    rcx,rbx
4801:	31 ff                	xor    edi,edi
4803:	31 c0                	xor    eax,eax
4805:	31 db                	xor    ebx,ebx
4807:	e8 94 d2 ff ff       	call   1aa0 <error@plt>
480c:	eb 95                	jmp    47a3 <skip+0xa3>
480e:	48 8d 35 33 68 00 00 	lea    rsi,[rip+0x6833]        # b048 <_IO_stdin_used+0x388>
4815:	ba 05 00 00 00       	mov    edx,0x5
481a:	31 ff                	xor    edi,edi
481c:	e8 8f d0 ff ff       	call   18b0 <dcgettext@plt>
4821:	31 f6                	xor    esi,esi
4823:	48 89 c2             	mov    rdx,rax
4826:	bf 01 00 00 00       	mov    edi,0x1
482b:	31 c0                	xor    eax,eax
482d:	e8 6e d2 ff ff       	call   1aa0 <error@plt>
4832:	66 0f 1f 44 00 00    	nop    WORD PTR [rax+rax*1+0x0]
4838:	41 bf 00 20 00 00    	mov    r15d,0x2000
483e:	66 90                	xchg   ax,ax
4840:	4d 39 ef             	cmp    r15,r13
4843:	4c 8b 05 5e b9 20 00 	mov    r8,QWORD PTR [rip+0x20b95e]        # 2101a8 <in_stream>
484a:	ba 01 00 00 00       	mov    edx,0x1
484f:	4d 0f 47 fd          	cmova  r15,r13
4853:	be 00 20 00 00       	mov    esi,0x2000
4858:	48 89 ef             	mov    rdi,rbp
485b:	4c 89 f9             	mov    rcx,r15
485e:	e8 6d d2 ff ff       	call   1ad0 <__fread_unlocked_chk@plt>
4863:	49 29 c5             	sub    r13,rax
4866:	4c 39 f8             	cmp    rax,r15
4869:	74 11                	je     487c <skip+0x17c>
486b:	48 8b 05 36 b9 20 00 	mov    rax,QWORD PTR [rip+0x20b936]        # 2101a8 <in_stream>
4872:	8b 00                	mov    eax,DWORD PTR [rax]
4874:	a8 20                	test   al,0x20
4876:	75 37                	jne    48af <skip+0x1af>
4878:	a8 10                	test   al,0x10
487a:	75 37                	jne    48b3 <skip+0x1b3>
487c:	4d 85 ed             	test   r13,r13
487f:	75 bf                	jne    4840 <skip+0x140>
4881:	48 8b 8c 24 98 20 00 	mov    rcx,QWORD PTR [rsp+0x2098]
4888:	00
4889:	64 48 33 0c 25 28 00 	xor    rcx,QWORD PTR fs:0x28
4890:	00 00
4892:	89 d8                	mov    eax,ebx
4894:	75 44                	jne    48da <skip+0x1da>
4896:	48 81 c4 a8 20 00 00 	add    rsp,0x20a8
489d:	5b                   	pop    rbx
489e:	5d                   	pop    rbp
489f:	41 5c                	pop    r12
48a1:	41 5d                	pop    r13
48a3:	41 5e                	pop    r14
48a5:	41 5f                	pop    r15
48a7:	c3                   	ret
48a8:	bb 01 00 00 00       	mov    ebx,0x1
48ad:	eb d2                	jmp    4881 <skip+0x181>
48af:	31 db                	xor    ebx,ebx
48b1:	eb ce                	jmp    4881 <skip+0x181>
48b3:	4d 85 ed             	test   r13,r13
48b6:	0f 85 e7 fe ff ff    	jne    47a3 <skip+0xa3>
48bc:	eb c3                	jmp    4881 <skip+0x181>
48be:	ba 01 00 00 00       	mov    edx,0x1
48c3:	4c 89 ee             	mov    rsi,r13
48c6:	4c 89 ff             	mov    rdi,r15
48c9:	e8 f2 3f 00 00       	call   88c0 <rpl_fseeko>
48ce:	85 c0                	test   eax,eax
48d0:	b8 00 00 00 00       	mov    eax,0x0
48d5:	0f 45 d8             	cmovne ebx,eax
48d8:	eb a7                	jmp    4881 <skip+0x181>
48da:	e8 01 d0 ff ff       	call   18e0 <__stack_chk_fail@plt>
48df:	90                   	nop

00000000000048e0 <read_char>:
48e0:	41 54                	push   r12
48e2:	49 89 fc             	mov    r12,rdi
48e5:	55                   	push   rbp
48e6:	53                   	push   rbx
48e7:	c7 07 ff ff ff ff    	mov    DWORD PTR [rdi],0xffffffff
48ed:	bd 01 00 00 00       	mov    ebp,0x1
48f2:	48 8b 3d af b8 20 00 	mov    rdi,QWORD PTR [rip+0x20b8af]        # 2101a8 <in_stream>
48f9:	48 85 ff             	test   rdi,rdi
48fc:	75 25                	jne    4923 <read_char+0x43>
48fe:	eb 31                	jmp    4931 <read_char+0x51>
4900:	e8 eb ce ff ff       	call   17f0 <__errno_location@plt>
4905:	8b 38                	mov    edi,DWORD PTR [rax]
4907:	e8 84 fb ff ff       	call   4490 <check_and_close>
490c:	89 c3                	mov    ebx,eax
490e:	e8 cd fc ff ff       	call   45e0 <open_next_file>
4913:	48 8b 3d 8e b8 20 00 	mov    rdi,QWORD PTR [rip+0x20b88e]        # 2101a8 <in_stream>
491a:	21 c3                	and    ebx,eax
491c:	21 dd                	and    ebp,ebx
491e:	48 85 ff             	test   rdi,rdi
4921:	74 0e                	je     4931 <read_char+0x51>
4923:	e8 68 d0 ff ff       	call   1990 <fgetc@plt>
4928:	83 f8 ff             	cmp    eax,0xffffffff
492b:	41 89 04 24          	mov    DWORD PTR [r12],eax
492f:	74 cf                	je     4900 <read_char+0x20>
4931:	89 e8                	mov    eax,ebp
4933:	5b                   	pop    rbx
4934:	5d                   	pop    rbp
4935:	41 5c                	pop    r12
4937:	c3                   	ret
4938:	0f 1f 84 00 00 00 00 	nop    DWORD PTR [rax+rax*1+0x0]
493f:	00

0000000000004940 <write_block>:
4940:	41 57                	push   r15
4942:	41 56                	push   r14
4944:	49 89 f6             	mov    r14,rsi
4947:	41 55                	push   r13
4949:	41 54                	push   r12
494b:	55                   	push   rbp
494c:	53                   	push   rbx
494d:	48 83 ec 28          	sub    rsp,0x28
4951:	80 3d b9 b6 20 00 00 	cmp    BYTE PTR [rip+0x20b6b9],0x0        # 210011 <abbreviate_duplicate_blocks>
4958:	48 89 7c 24 18       	mov    QWORD PTR [rsp+0x18],rdi
495d:	48 89 4c 24 08       	mov    QWORD PTR [rsp+0x8],rcx
4962:	74 0d                	je     4971 <write_block+0x31>
4964:	80 3d a5 b6 20 00 00 	cmp    BYTE PTR [rip+0x20b6a5],0x0        # 210010 <first.7524>
496b:	0f 84 cf 01 00 00    	je     4b40 <write_block+0x200>
4971:	48 83 3d 57 b8 20 00 	cmp    QWORD PTR [rip+0x20b857],0x0        # 2101d0 <n_specs>
4978:	00
4979:	c6 05 80 b7 20 00 00 	mov    BYTE PTR [rip+0x20b780],0x0        # 210100 <prev_pair_equal.7525>
4980:	0f 84 f9 01 00 00    	je     4b7f <write_block+0x23f>
4986:	48 8b 44 24 08       	mov    rax,QWORD PTR [rsp+0x8]
498b:	31 ed                	xor    ebp,ebp
498d:	45 31 e4             	xor    r12d,r12d
4990:	4c 89 74 24 10       	mov    QWORD PTR [rsp+0x10],r14
4995:	4e 8d 2c 30          	lea    r13,[rax+r14*1]
4999:	eb 3a                	jmp    49d5 <write_block+0x95>
499b:	0f 1f 44 00 00       	nop    DWORD PTR [rax+rax*1+0x0]
49a0:	48 8b 3d 01 b7 20 00 	mov    rdi,QWORD PTR [rip+0x20b701]        # 2100a8 <stdout@@GLIBC_2.2.5>
49a7:	48 8b 47 28          	mov    rax,QWORD PTR [rdi+0x28]
49ab:	48 3b 47 30          	cmp    rax,QWORD PTR [rdi+0x30]
49af:	0f 83 e3 01 00 00    	jae    4b98 <write_block+0x258>
49b5:	48 8d 50 01          	lea    rdx,[rax+0x1]
49b9:	48 89 57 28          	mov    QWORD PTR [rdi+0x28],rdx
49bd:	c6 00 0a             	mov    BYTE PTR [rax],0xa
49c0:	49 83 c4 01          	add    r12,0x1
49c4:	48 83 c5 28          	add    rbp,0x28
49c8:	4c 39 25 01 b8 20 00 	cmp    QWORD PTR [rip+0x20b801],r12        # 2101d0 <n_specs>
49cf:	0f 86 aa 01 00 00    	jbe    4b7f <write_block+0x23f>
49d5:	48 8b 05 fc b7 20 00 	mov    rax,QWORD PTR [rip+0x20b7fc]        # 2101d8 <spec>
49dc:	48 8d 35 fd 7b 00 00 	lea    rsi,[rip+0x7bfd]        # c5e0 <width_bytes>
49e3:	48 8b 1d d6 b7 20 00 	mov    rbx,QWORD PTR [rip+0x20b7d6]        # 2101c0 <bytes_per_block>
49ea:	31 d2                	xor    edx,edx
49ec:	8b 44 28 04          	mov    eax,DWORD PTR [rax+rbp*1+0x4]
49f0:	48 63 0c 86          	movsxd rcx,DWORD PTR [rsi+rax*4]
49f4:	48 89 d8             	mov    rax,rbx
49f7:	48 2b 5c 24 10       	sub    rbx,QWORD PTR [rsp+0x10]
49fc:	48 f7 f1             	div    rcx
49ff:	31 d2                	xor    edx,edx
4a01:	49 89 c6             	mov    r14,rax
4a04:	41 89 c7             	mov    r15d,eax
4a07:	48 89 d8             	mov    rax,rbx
4a0a:	48 f7 f1             	div    rcx
4a0d:	4d 85 e4             	test   r12,r12
4a10:	48 89 c3             	mov    rbx,rax
4a13:	0f 85 97 01 00 00    	jne    4bb0 <write_block+0x270>
4a19:	31 f6                	xor    esi,esi
4a1b:	48 8b 7c 24 18       	mov    rdi,QWORD PTR [rsp+0x18]
4a20:	ff 15 da b7 20 00    	call   QWORD PTR [rip+0x20b7da]        # 210200 <format_address>
4a26:	48 8b 05 ab b7 20 00 	mov    rax,QWORD PTR [rip+0x20b7ab]        # 2101d8 <spec>
4a2d:	48 63 f3             	movsxd rsi,ebx
4a30:	49 63 fe             	movsxd rdi,r14d
4a33:	48 8b 54 24 08       	mov    rdx,QWORD PTR [rsp+0x8]
4a38:	48 01 e8             	add    rax,rbp
4a3b:	48 8d 48 10          	lea    rcx,[rax+0x10]
4a3f:	44 8b 48 20          	mov    r9d,DWORD PTR [rax+0x20]
4a43:	44 8b 40 1c          	mov    r8d,DWORD PTR [rax+0x1c]
4a47:	ff 50 08             	call   QWORD PTR [rax+0x8]
4a4a:	48 8b 0d 87 b7 20 00 	mov    rcx,QWORD PTR [rip+0x20b787]        # 2101d8 <spec>
4a51:	48 01 e9             	add    rcx,rbp
4a54:	80 79 18 00          	cmp    BYTE PTR [rcx+0x18],0x0
4a58:	0f 84 42 ff ff ff    	je     49a0 <write_block+0x60>
4a5e:	8b 41 20             	mov    eax,DWORD PTR [rcx+0x20]
4a61:	48 8d 35 74 62 00 00 	lea    rsi,[rip+0x6274]        # acdc <_IO_stdin_used+0x1c>
4a68:	bf 01 00 00 00       	mov    edi,0x1
4a6d:	0f af c3             	imul   eax,ebx
4a70:	0f af 59 1c          	imul   ebx,DWORD PTR [rcx+0x1c]
4a74:	48 8d 0d 46 83 00 00 	lea    rcx,[rip+0x8346]        # cdc1 <quoting_style_vals+0x81>
4a7b:	99                   	cdq
4a7c:	41 f7 ff             	idiv   r15d
4a7f:	8d 14 18             	lea    edx,[rax+rbx*1]
4a82:	31 c0                	xor    eax,eax
4a84:	e8 e7 cf ff ff       	call   1a70 <__printf_chk@plt>
4a89:	48 8b 0d 18 b6 20 00 	mov    rcx,QWORD PTR [rip+0x20b618]        # 2100a8 <stdout@@GLIBC_2.2.5>
4a90:	48 8d 3d 04 63 00 00 	lea    rdi,[rip+0x6304]        # ad9b <_IO_stdin_used+0xdb>
4a97:	ba 03 00 00 00       	mov    edx,0x3
4a9c:	be 01 00 00 00       	mov    esi,0x1
4aa1:	e8 9a cf ff ff       	call   1a40 <fwrite_unlocked@plt>
4aa6:	48 83 7c 24 10 00    	cmp    QWORD PTR [rsp+0x10],0x0
4aac:	74 54                	je     4b02 <write_block+0x1c2>
4aae:	e8 8d d0 ff ff       	call   1b40 <__ctype_b_loc@plt>
4ab3:	48 8b 5c 24 08       	mov    rbx,QWORD PTR [rsp+0x8]
4ab8:	49 89 c7             	mov    r15,rax
4abb:	0f 1f 44 00 00       	nop    DWORD PTR [rax+rax*1+0x0]
4ac0:	48 83 c3 01          	add    rbx,0x1
4ac4:	0f b6 4b ff          	movzx  ecx,BYTE PTR [rbx-0x1]
4ac8:	49 8b 17             	mov    rdx,QWORD PTR [r15]
4acb:	f6 44 4a 01 40       	test   BYTE PTR [rdx+rcx*2+0x1],0x40
4ad0:	48 89 c8             	mov    rax,rcx
4ad3:	0f b6 f1             	movzx  esi,cl
4ad6:	75 0a                	jne    4ae2 <write_block+0x1a2>
4ad8:	be 2e 00 00 00       	mov    esi,0x2e
4add:	b8 2e 00 00 00       	mov    eax,0x2e
4ae2:	48 8b 3d bf b5 20 00 	mov    rdi,QWORD PTR [rip+0x20b5bf]        # 2100a8 <stdout@@GLIBC_2.2.5>
4ae9:	48 8b 57 28          	mov    rdx,QWORD PTR [rdi+0x28]
4aed:	48 3b 57 30          	cmp    rdx,QWORD PTR [rdi+0x30]
4af1:	73 3d                	jae    4b30 <write_block+0x1f0>
4af3:	48 8d 4a 01          	lea    rcx,[rdx+0x1]
4af7:	48 89 4f 28          	mov    QWORD PTR [rdi+0x28],rcx
4afb:	88 02                	mov    BYTE PTR [rdx],al
4afd:	4c 39 eb             	cmp    rbx,r13
4b00:	75 be                	jne    4ac0 <write_block+0x180>
4b02:	48 8b 3d 9f b5 20 00 	mov    rdi,QWORD PTR [rip+0x20b59f]        # 2100a8 <stdout@@GLIBC_2.2.5>
4b09:	48 8b 47 28          	mov    rax,QWORD PTR [rdi+0x28]
4b0d:	48 3b 47 30          	cmp    rax,QWORD PTR [rdi+0x30]
4b11:	0f 83 c1 00 00 00    	jae    4bd8 <write_block+0x298>
4b17:	48 8d 50 01          	lea    rdx,[rax+0x1]
4b1b:	48 89 57 28          	mov    QWORD PTR [rdi+0x28],rdx
4b1f:	c6 00 3c             	mov    BYTE PTR [rax],0x3c
4b22:	e9 79 fe ff ff       	jmp    49a0 <write_block+0x60>
4b27:	66 0f 1f 84 00 00 00 	nop    WORD PTR [rax+rax*1+0x0]
4b2e:	00 00
4b30:	e8 eb cd ff ff       	call   1920 <__overflow@plt>
4b35:	eb c6                	jmp    4afd <write_block+0x1bd>
4b37:	66 0f 1f 84 00 00 00 	nop    WORD PTR [rax+rax*1+0x0]
4b3e:	00 00
4b40:	48 89 d7             	mov    rdi,rdx
4b43:	48 8b 15 76 b6 20 00 	mov    rdx,QWORD PTR [rip+0x20b676]        # 2101c0 <bytes_per_block>
4b4a:	48 39 f2             	cmp    rdx,rsi
4b4d:	0f 85 1e fe ff ff    	jne    4971 <write_block+0x31>
4b53:	48 89 ce             	mov    rsi,rcx
4b56:	e8 45 ce ff ff       	call   19a0 <memcmp@plt>
4b5b:	85 c0                	test   eax,eax
4b5d:	0f 85 0e fe ff ff    	jne    4971 <write_block+0x31>
4b63:	80 3d 96 b5 20 00 00 	cmp    BYTE PTR [rip+0x20b596],0x0        # 210100 <prev_pair_equal.7525>
4b6a:	75 13                	jne    4b7f <write_block+0x23f>
4b6c:	48 8d 3d 26 62 00 00 	lea    rdi,[rip+0x6226]        # ad99 <_IO_stdin_used+0xd9>
4b73:	e8 b8 cc ff ff       	call   1830 <puts@plt>
4b78:	c6 05 81 b5 20 00 01 	mov    BYTE PTR [rip+0x20b581],0x1        # 210100 <prev_pair_equal.7525>
4b7f:	c6 05 8a b4 20 00 00 	mov    BYTE PTR [rip+0x20b48a],0x0        # 210010 <first.7524>
4b86:	48 83 c4 28          	add    rsp,0x28
4b8a:	5b                   	pop    rbx
4b8b:	5d                   	pop    rbp
4b8c:	41 5c                	pop    r12
4b8e:	41 5d                	pop    r13
4b90:	41 5e                	pop    r14
4b92:	41 5f                	pop    r15
4b94:	c3                   	ret
4b95:	0f 1f 00             	nop    DWORD PTR [rax]
4b98:	be 0a 00 00 00       	mov    esi,0xa
4b9d:	e8 7e cd ff ff       	call   1920 <__overflow@plt>
4ba2:	e9 19 fe ff ff       	jmp    49c0 <write_block+0x80>
4ba7:	66 0f 1f 84 00 00 00 	nop    WORD PTR [rax+rax*1+0x0]
4bae:	00 00
4bb0:	8b 15 6a b6 20 00    	mov    edx,DWORD PTR [rip+0x20b66a]        # 210220 <address_pad_len>
4bb6:	48 8d 0d 04 82 00 00 	lea    rcx,[rip+0x8204]        # cdc1 <quoting_style_vals+0x81>
4bbd:	48 8d 35 18 61 00 00 	lea    rsi,[rip+0x6118]        # acdc <_IO_stdin_used+0x1c>
4bc4:	bf 01 00 00 00       	mov    edi,0x1
4bc9:	31 c0                	xor    eax,eax
4bcb:	e8 a0 ce ff ff       	call   1a70 <__printf_chk@plt>
4bd0:	e9 51 fe ff ff       	jmp    4a26 <write_block+0xe6>
4bd5:	0f 1f 00             	nop    DWORD PTR [rax]
4bd8:	be 3c 00 00 00       	mov    esi,0x3c
4bdd:	e8 3e cd ff ff       	call   1920 <__overflow@plt>
4be2:	e9 b9 fd ff ff       	jmp    49a0 <write_block+0x60>
4be7:	66 0f 1f 84 00 00 00 	nop    WORD PTR [rax+rax*1+0x0]
4bee:	00 00

0000000000004bf0 <format_address_paren>:
4bf0:	55                   	push   rbp
4bf1:	53                   	push   rbx
4bf2:	48 89 fd             	mov    rbp,rdi
4bf5:	89 f3                	mov    ebx,esi
4bf7:	48 83 ec 08          	sub    rsp,0x8
4bfb:	48 8b 3d a6 b4 20 00 	mov    rdi,QWORD PTR [rip+0x20b4a6]        # 2100a8 <stdout@@GLIBC_2.2.5>
4c02:	48 8b 47 28          	mov    rax,QWORD PTR [rdi+0x28]
4c06:	48 3b 47 30          	cmp    rax,QWORD PTR [rdi+0x30]
4c0a:	73 54                	jae    4c60 <format_address_paren+0x70>
4c0c:	48 8d 50 01          	lea    rdx,[rax+0x1]
4c10:	48 89 57 28          	mov    QWORD PTR [rdi+0x28],rdx
4c14:	c6 00 28             	mov    BYTE PTR [rax],0x28
4c17:	be 29 00 00 00       	mov    esi,0x29
4c1c:	48 89 ef             	mov    rdi,rbp
4c1f:	e8 6c e2 ff ff       	call   2e90 <format_address_std>
4c24:	84 db                	test   bl,bl
4c26:	74 1b                	je     4c43 <format_address_paren+0x53>
4c28:	48 8b 3d 79 b4 20 00 	mov    rdi,QWORD PTR [rip+0x20b479]        # 2100a8 <stdout@@GLIBC_2.2.5>
4c2f:	48 8b 47 28          	mov    rax,QWORD PTR [rdi+0x28]
4c33:	48 3b 47 30          	cmp    rax,QWORD PTR [rdi+0x30]
4c37:	73 17                	jae    4c50 <format_address_paren+0x60>
4c39:	48 8d 50 01          	lea    rdx,[rax+0x1]
4c3d:	48 89 57 28          	mov    QWORD PTR [rdi+0x28],rdx
4c41:	88 18                	mov    BYTE PTR [rax],bl
4c43:	48 83 c4 08          	add    rsp,0x8
4c47:	5b                   	pop    rbx
4c48:	5d                   	pop    rbp
4c49:	c3                   	ret
4c4a:	66 0f 1f 44 00 00    	nop    WORD PTR [rax+rax*1+0x0]
4c50:	48 83 c4 08          	add    rsp,0x8
4c54:	0f b6 f3             	movzx  esi,bl
4c57:	5b                   	pop    rbx
4c58:	5d                   	pop    rbp
4c59:	e9 c2 cc ff ff       	jmp    1920 <__overflow@plt>
4c5e:	66 90                	xchg   ax,ax
4c60:	be 28 00 00 00       	mov    esi,0x28
4c65:	e8 b6 cc ff ff       	call   1920 <__overflow@plt>
4c6a:	eb ab                	jmp    4c17 <format_address_paren+0x27>
4c6c:	0f 1f 40 00          	nop    DWORD PTR [rax+0x0]

0000000000004c70 <format_address_label>:
4c70:	55                   	push   rbp
4c71:	53                   	push   rbx
4c72:	89 f5                	mov    ebp,esi
4c74:	be 20 00 00 00       	mov    esi,0x20
4c79:	48 89 fb             	mov    rbx,rdi
4c7c:	48 83 ec 08          	sub    rsp,0x8
4c80:	e8 0b e2 ff ff       	call   2e90 <format_address_std>
4c85:	48 03 1d 7c b5 20 00 	add    rbx,QWORD PTR [rip+0x20b57c]        # 210208 <pseudo_offset>
4c8c:	48 83 c4 08          	add    rsp,0x8
4c90:	40 0f be f5          	movsx  esi,bpl
4c94:	48 89 df             	mov    rdi,rbx
4c97:	5b                   	pop    rbx
4c98:	5d                   	pop    rbp
4c99:	e9 52 ff ff ff       	jmp    4bf0 <format_address_paren>
4c9e:	66 90                	xchg   ax,ax

0000000000004ca0 <read_block>:
4ca0:	48 85 ff             	test   rdi,rdi
4ca3:	41 56                	push   r14
4ca5:	41 55                	push   r13
4ca7:	41 54                	push   r12
4ca9:	55                   	push   rbp
4caa:	53                   	push   rbx
4cab:	0f 84 96 00 00 00    	je     4d47 <read_block+0xa7>
4cb1:	48 39 3d 08 b5 20 00 	cmp    QWORD PTR [rip+0x20b508],rdi        # 2101c0 <bytes_per_block>
4cb8:	49 89 fc             	mov    r12,rdi
4cbb:	0f 82 86 00 00 00    	jb     4d47 <read_block+0xa7>
4cc1:	48 8b 0d e0 b4 20 00 	mov    rcx,QWORD PTR [rip+0x20b4e0]        # 2101a8 <in_stream>
4cc8:	48 89 d3             	mov    rbx,rdx
4ccb:	48 c7 02 00 00 00 00 	mov    QWORD PTR [rdx],0x0
4cd2:	48 85 c9             	test   rcx,rcx
4cd5:	74 69                	je     4d40 <read_block+0xa0>
4cd7:	49 89 f5             	mov    r13,rsi
4cda:	31 ff                	xor    edi,edi
4cdc:	bd 01 00 00 00       	mov    ebp,0x1
4ce1:	eb 2e                	jmp    4d11 <read_block+0x71>
4ce3:	0f 1f 44 00 00       	nop    DWORD PTR [rax+rax*1+0x0]
4ce8:	e8 03 cb ff ff       	call   17f0 <__errno_location@plt>
4ced:	8b 38                	mov    edi,DWORD PTR [rax]
4cef:	e8 9c f7 ff ff       	call   4490 <check_and_close>
4cf4:	41 89 c6             	mov    r14d,eax
4cf7:	e8 e4 f8 ff ff       	call   45e0 <open_next_file>
4cfc:	48 8b 0d a5 b4 20 00 	mov    rcx,QWORD PTR [rip+0x20b4a5]        # 2101a8 <in_stream>
4d03:	41 21 c6             	and    r14d,eax
4d06:	44 21 f5             	and    ebp,r14d
4d09:	48 85 c9             	test   rcx,rcx
4d0c:	74 21                	je     4d2f <read_block+0x8f>
4d0e:	48 8b 3b             	mov    rdi,QWORD PTR [rbx]
4d11:	4d 89 e6             	mov    r14,r12
4d14:	be 01 00 00 00       	mov    esi,0x1
4d19:	49 29 fe             	sub    r14,rdi
4d1c:	4c 01 ef             	add    rdi,r13
4d1f:	4c 89 f2             	mov    rdx,r14
4d22:	e8 49 cb ff ff       	call   1870 <fread_unlocked@plt>
4d27:	48 01 03             	add    QWORD PTR [rbx],rax
4d2a:	49 39 c6             	cmp    r14,rax
4d2d:	75 b9                	jne    4ce8 <read_block+0x48>
4d2f:	5b                   	pop    rbx
4d30:	89 e8                	mov    eax,ebp
4d32:	5d                   	pop    rbp
4d33:	41 5c                	pop    r12
4d35:	41 5d                	pop    r13
4d37:	41 5e                	pop    r14
4d39:	c3                   	ret
4d3a:	66 0f 1f 44 00 00    	nop    WORD PTR [rax+rax*1+0x0]
4d40:	bd 01 00 00 00       	mov    ebp,0x1
4d45:	eb e8                	jmp    4d2f <read_block+0x8f>
4d47:	48 8d 0d 52 77 00 00 	lea    rcx,[rip+0x7752]        # c4a0 <__PRETTY_FUNCTION__.7548>
4d4e:	48 8d 35 97 5f 00 00 	lea    rsi,[rip+0x5f97]        # acec <_IO_stdin_used+0x2c>
4d55:	48 8d 3d 43 60 00 00 	lea    rdi,[rip+0x6043]        # ad9f <_IO_stdin_used+0xdf>
4d5c:	ba 08 05 00 00       	mov    edx,0x508
4d61:	e8 ea cb ff ff       	call   1950 <__assert_fail@plt>
4d66:	66 2e 0f 1f 84 00 00 	nop    WORD PTR cs:[rax+rax*1+0x0]
4d6d:	00 00 00

0000000000004d70 <usage>:
4d70:	41 55                	push   r13
4d72:	41 54                	push   r12
4d74:	ba 05 00 00 00       	mov    edx,0x5
4d79:	55                   	push   rbp
4d7a:	53                   	push   rbx
4d7b:	89 fd                	mov    ebp,edi
4d7d:	48 81 ec 88 00 00 00 	sub    rsp,0x88
4d84:	48 8b 1d ad b4 20 00 	mov    rbx,QWORD PTR [rip+0x20b4ad]        # 210238 <program_name>
4d8b:	64 48 8b 04 25 28 00 	mov    rax,QWORD PTR fs:0x28
4d92:	00 00
4d94:	48 89 44 24 78       	mov    QWORD PTR [rsp+0x78],rax
4d99:	31 c0                	xor    eax,eax
4d9b:	85 ff                	test   edi,edi
4d9d:	74 2e                	je     4dcd <usage+0x5d>
4d9f:	48 8d 35 ca 62 00 00 	lea    rsi,[rip+0x62ca]        # b070 <_IO_stdin_used+0x3b0>
4da6:	31 ff                	xor    edi,edi
4da8:	e8 03 cb ff ff       	call   18b0 <dcgettext@plt>
4dad:	48 8b 3d 2c b3 20 00 	mov    rdi,QWORD PTR [rip+0x20b32c]        # 2100e0 <stderr@@GLIBC_2.2.5>
4db4:	48 89 c2             	mov    rdx,rax
4db7:	48 89 d9             	mov    rcx,rbx
4dba:	be 01 00 00 00       	mov    esi,0x1
4dbf:	31 c0                	xor    eax,eax
4dc1:	e8 4a cd ff ff       	call   1b10 <__fprintf_chk@plt>
4dc6:	89 ef                	mov    edi,ebp
4dc8:	e8 23 cd ff ff       	call   1af0 <exit@plt>
4dcd:	48 8d 35 c4 62 00 00 	lea    rsi,[rip+0x62c4]        # b098 <_IO_stdin_used+0x3d8>
4dd4:	31 ff                	xor    edi,edi
4dd6:	e8 d5 ca ff ff       	call   18b0 <dcgettext@plt>
4ddb:	48 89 d9             	mov    rcx,rbx
4dde:	49 89 d8             	mov    r8,rbx
4de1:	48 89 da             	mov    rdx,rbx
4de4:	48 89 c6             	mov    rsi,rax
4de7:	bf 01 00 00 00       	mov    edi,0x1
4dec:	31 c0                	xor    eax,eax
4dee:	e8 7d cc ff ff       	call   1a70 <__printf_chk@plt>
4df3:	48 8b 1d ae b2 20 00 	mov    rbx,QWORD PTR [rip+0x20b2ae]        # 2100a8 <stdout@@GLIBC_2.2.5>
4dfa:	48 8d 35 3f 63 00 00 	lea    rsi,[rip+0x633f]        # b140 <_IO_stdin_used+0x480>
4e01:	ba 05 00 00 00       	mov    edx,0x5
4e06:	31 ff                	xor    edi,edi
4e08:	e8 a3 ca ff ff       	call   18b0 <dcgettext@plt>
4e0d:	48 89 de             	mov    rsi,rbx
4e10:	48 89 c7             	mov    rdi,rax
4e13:	e8 98 cb ff ff       	call   19b0 <fputs_unlocked@plt>
4e18:	48 8b 1d 89 b2 20 00 	mov    rbx,QWORD PTR [rip+0x20b289]        # 2100a8 <stdout@@GLIBC_2.2.5>
4e1f:	48 8d 35 d2 63 00 00 	lea    rsi,[rip+0x63d2]        # b1f8 <_IO_stdin_used+0x538>
4e26:	ba 05 00 00 00       	mov    edx,0x5
4e2b:	31 ff                	xor    edi,edi
4e2d:	e8 7e ca ff ff       	call   18b0 <dcgettext@plt>
4e32:	48 89 de             	mov    rsi,rbx
4e35:	48 89 c7             	mov    rdi,rax
4e38:	e8 73 cb ff ff       	call   19b0 <fputs_unlocked@plt>
4e3d:	48 8b 1d 64 b2 20 00 	mov    rbx,QWORD PTR [rip+0x20b264]        # 2100a8 <stdout@@GLIBC_2.2.5>
4e44:	48 8d 35 e5 63 00 00 	lea    rsi,[rip+0x63e5]        # b230 <_IO_stdin_used+0x570>
4e4b:	ba 05 00 00 00       	mov    edx,0x5
4e50:	31 ff                	xor    edi,edi
4e52:	e8 59 ca ff ff       	call   18b0 <dcgettext@plt>
4e57:	48 89 de             	mov    rsi,rbx
4e5a:	48 89 c7             	mov    rdi,rax
4e5d:	e8 4e cb ff ff       	call   19b0 <fputs_unlocked@plt>
4e62:	48 8b 1d 3f b2 20 00 	mov    rbx,QWORD PTR [rip+0x20b23f]        # 2100a8 <stdout@@GLIBC_2.2.5>
4e69:	48 8d 35 48 65 00 00 	lea    rsi,[rip+0x6548]        # b3b8 <_IO_stdin_used+0x6f8>
4e70:	ba 05 00 00 00       	mov    edx,0x5
4e75:	31 ff                	xor    edi,edi
4e77:	e8 34 ca ff ff       	call   18b0 <dcgettext@plt>
4e7c:	48 89 de             	mov    rsi,rbx
4e7f:	48 89 c7             	mov    rdi,rax
4e82:	e8 29 cb ff ff       	call   19b0 <fputs_unlocked@plt>
4e87:	48 8b 1d 1a b2 20 00 	mov    rbx,QWORD PTR [rip+0x20b21a]        # 2100a8 <stdout@@GLIBC_2.2.5>
4e8e:	48 8d 35 73 65 00 00 	lea    rsi,[rip+0x6573]        # b408 <_IO_stdin_used+0x748>
4e95:	ba 05 00 00 00       	mov    edx,0x5
4e9a:	31 ff                	xor    edi,edi
4e9c:	e8 0f ca ff ff       	call   18b0 <dcgettext@plt>
4ea1:	48 89 de             	mov    rsi,rbx
4ea4:	48 89 c7             	mov    rdi,rax
4ea7:	e8 04 cb ff ff       	call   19b0 <fputs_unlocked@plt>
4eac:	48 8b 1d f5 b1 20 00 	mov    rbx,QWORD PTR [rip+0x20b1f5]        # 2100a8 <stdout@@GLIBC_2.2.5>
4eb3:	48 8d 35 6e 66 00 00 	lea    rsi,[rip+0x666e]        # b528 <_IO_stdin_used+0x868>
4eba:	ba 05 00 00 00       	mov    edx,0x5
4ebf:	31 ff                	xor    edi,edi
4ec1:	e8 ea c9 ff ff       	call   18b0 <dcgettext@plt>
4ec6:	48 89 de             	mov    rsi,rbx
4ec9:	48 89 c7             	mov    rdi,rax
4ecc:	e8 df ca ff ff       	call   19b0 <fputs_unlocked@plt>
4ed1:	48 8b 1d d0 b1 20 00 	mov    rbx,QWORD PTR [rip+0x20b1d0]        # 2100a8 <stdout@@GLIBC_2.2.5>
4ed8:	48 8d 35 71 68 00 00 	lea    rsi,[rip+0x6871]        # b750 <_IO_stdin_used+0xa90>
4edf:	ba 05 00 00 00       	mov    edx,0x5
4ee4:	31 ff                	xor    edi,edi
4ee6:	e8 c5 c9 ff ff       	call   18b0 <dcgettext@plt>
4eeb:	48 89 de             	mov    rsi,rbx
4eee:	48 89 c7             	mov    rdi,rax
4ef1:	e8 ba ca ff ff       	call   19b0 <fputs_unlocked@plt>
4ef6:	48 8b 1d ab b1 20 00 	mov    rbx,QWORD PTR [rip+0x20b1ab]        # 2100a8 <stdout@@GLIBC_2.2.5>
4efd:	48 8d 35 7c 68 00 00 	lea    rsi,[rip+0x687c]        # b780 <_IO_stdin_used+0xac0>
4f04:	ba 05 00 00 00       	mov    edx,0x5
4f09:	31 ff                	xor    edi,edi
4f0b:	e8 a0 c9 ff ff       	call   18b0 <dcgettext@plt>
4f10:	48 89 de             	mov    rsi,rbx
4f13:	48 89 c7             	mov    rdi,rax
4f16:	e8 95 ca ff ff       	call   19b0 <fputs_unlocked@plt>
4f1b:	48 8b 1d 86 b1 20 00 	mov    rbx,QWORD PTR [rip+0x20b186]        # 2100a8 <stdout@@GLIBC_2.2.5>
4f22:	48 8d 35 8f 68 00 00 	lea    rsi,[rip+0x688f]        # b7b8 <_IO_stdin_used+0xaf8>
4f29:	ba 05 00 00 00       	mov    edx,0x5
4f2e:	31 ff                	xor    edi,edi
4f30:	e8 7b c9 ff ff       	call   18b0 <dcgettext@plt>
4f35:	48 89 de             	mov    rsi,rbx
4f38:	48 89 c7             	mov    rdi,rax
4f3b:	e8 70 ca ff ff       	call   19b0 <fputs_unlocked@plt>
4f40:	48 8b 1d 61 b1 20 00 	mov    rbx,QWORD PTR [rip+0x20b161]        # 2100a8 <stdout@@GLIBC_2.2.5>
4f47:	48 8d 35 aa 69 00 00 	lea    rsi,[rip+0x69aa]        # b8f8 <_IO_stdin_used+0xc38>
4f4e:	ba 05 00 00 00       	mov    edx,0x5
4f53:	31 ff                	xor    edi,edi
4f55:	e8 56 c9 ff ff       	call   18b0 <dcgettext@plt>
4f5a:	48 89 de             	mov    rsi,rbx
4f5d:	48 89 c7             	mov    rdi,rax
4f60:	e8 4b ca ff ff       	call   19b0 <fputs_unlocked@plt>
4f65:	48 8b 1d 3c b1 20 00 	mov    rbx,QWORD PTR [rip+0x20b13c]        # 2100a8 <stdout@@GLIBC_2.2.5>
4f6c:	48 8d 35 9d 6a 00 00 	lea    rsi,[rip+0x6a9d]        # ba10 <_IO_stdin_used+0xd50>
4f73:	ba 05 00 00 00       	mov    edx,0x5
4f78:	31 ff                	xor    edi,edi
4f7a:	e8 31 c9 ff ff       	call   18b0 <dcgettext@plt>
4f7f:	48 89 de             	mov    rsi,rbx
4f82:	48 89 c7             	mov    rdi,rax
4f85:	e8 26 ca ff ff       	call   19b0 <fputs_unlocked@plt>
4f8a:	48 8b 1d 17 b1 20 00 	mov    rbx,QWORD PTR [rip+0x20b117]        # 2100a8 <stdout@@GLIBC_2.2.5>
4f91:	48 8d 35 20 6b 00 00 	lea    rsi,[rip+0x6b20]        # bab8 <_IO_stdin_used+0xdf8>
4f98:	ba 05 00 00 00       	mov    edx,0x5
4f9d:	31 ff                	xor    edi,edi
4f9f:	e8 0c c9 ff ff       	call   18b0 <dcgettext@plt>
4fa4:	48 89 de             	mov    rsi,rbx
4fa7:	48 89 c7             	mov    rdi,rax
4faa:	e8 01 ca ff ff       	call   19b0 <fputs_unlocked@plt>
4faf:	48 8b 1d f2 b0 20 00 	mov    rbx,QWORD PTR [rip+0x20b0f2]        # 2100a8 <stdout@@GLIBC_2.2.5>
4fb6:	48 8d 35 fb 6b 00 00 	lea    rsi,[rip+0x6bfb]        # bbb8 <_IO_stdin_used+0xef8>
4fbd:	ba 05 00 00 00       	mov    edx,0x5
4fc2:	31 ff                	xor    edi,edi
4fc4:	e8 e7 c8 ff ff       	call   18b0 <dcgettext@plt>
4fc9:	48 89 de             	mov    rsi,rbx
4fcc:	48 89 c7             	mov    rdi,rax
4fcf:	e8 dc c9 ff ff       	call   19b0 <fputs_unlocked@plt>
4fd4:	48 8b 1d cd b0 20 00 	mov    rbx,QWORD PTR [rip+0x20b0cd]        # 2100a8 <stdout@@GLIBC_2.2.5>
4fdb:	48 8d 35 ce 6c 00 00 	lea    rsi,[rip+0x6cce]        # bcb0 <_IO_stdin_used+0xff0>
4fe2:	ba 05 00 00 00       	mov    edx,0x5
4fe7:	31 ff                	xor    edi,edi
4fe9:	e8 c2 c8 ff ff       	call   18b0 <dcgettext@plt>
4fee:	48 89 de             	mov    rsi,rbx
4ff1:	48 89 c7             	mov    rdi,rax
4ff4:	e8 b7 c9 ff ff       	call   19b0 <fputs_unlocked@plt>
4ff9:	48 8b 1d a8 b0 20 00 	mov    rbx,QWORD PTR [rip+0x20b0a8]        # 2100a8 <stdout@@GLIBC_2.2.5>
5000:	48 8d 35 09 6d 00 00 	lea    rsi,[rip+0x6d09]        # bd10 <_IO_stdin_used+0x1050>
5007:	ba 05 00 00 00       	mov    edx,0x5
500c:	31 ff                	xor    edi,edi
500e:	e8 9d c8 ff ff       	call   18b0 <dcgettext@plt>
5013:	48 89 de             	mov    rsi,rbx
5016:	48 89 c7             	mov    rdi,rax
5019:	48 8d 1d 9d 5d 00 00 	lea    rbx,[rip+0x5d9d]        # adbd <_IO_stdin_used+0xfd>
5020:	e8 8b c9 ff ff       	call   19b0 <fputs_unlocked@plt>
5025:	48 8d 05 94 5d 00 00 	lea    rax,[rip+0x5d94]        # adc0 <_IO_stdin_used+0x100>
502c:	48 8d 0d ce 5d 00 00 	lea    rcx,[rip+0x5dce]        # ae01 <_IO_stdin_used+0x141>
5033:	48 c7 44 24 60 00 00 	mov    QWORD PTR [rsp+0x60],0x0
503a:	00 00
503c:	48 c7 44 24 68 00 00 	mov    QWORD PTR [rsp+0x68],0x0
5043:	00 00
5045:	48 89 e2             	mov    rdx,rsp
5048:	48 89 04 24          	mov    QWORD PTR [rsp],rax
504c:	48 8d 05 6f 5d 00 00 	lea    rax,[rip+0x5d6f]        # adc2 <_IO_stdin_used+0x102>
5053:	48 89 4c 24 30       	mov    QWORD PTR [rsp+0x30],rcx
5058:	48 8d 0d ac 5d 00 00 	lea    rcx,[rip+0x5dac]        # ae0b <_IO_stdin_used+0x14b>
505f:	48 89 44 24 08       	mov    QWORD PTR [rsp+0x8],rax
5064:	48 8d 05 cf 5d 00 00 	lea    rax,[rip+0x5dcf]        # ae3a <_IO_stdin_used+0x17a>
506b:	48 89 4c 24 40       	mov    QWORD PTR [rsp+0x40],rcx
5070:	48 8d 0d 9e 5d 00 00 	lea    rcx,[rip+0x5d9e]        # ae15 <_IO_stdin_used+0x155>
5077:	48 89 44 24 10       	mov    QWORD PTR [rsp+0x10],rax
507c:	48 8d 05 4f 5d 00 00 	lea    rax,[rip+0x5d4f]        # add2 <_IO_stdin_used+0x112>
5083:	48 89 4c 24 50       	mov    QWORD PTR [rsp+0x50],rcx
5088:	48 89 44 24 18       	mov    QWORD PTR [rsp+0x18],rax
508d:	48 8d 05 54 5d 00 00 	lea    rax,[rip+0x5d54]        # ade8 <_IO_stdin_used+0x128>
5094:	48 89 44 24 20       	mov    QWORD PTR [rsp+0x20],rax
5099:	48 8d 05 52 5d 00 00 	lea    rax,[rip+0x5d52]        # adf2 <_IO_stdin_used+0x132>
50a0:	48 89 44 24 28       	mov    QWORD PTR [rsp+0x28],rax
50a5:	48 89 44 24 38       	mov    QWORD PTR [rsp+0x38],rax
50aa:	48 89 44 24 48       	mov    QWORD PTR [rsp+0x48],rax
50af:	48 89 44 24 58       	mov    QWORD PTR [rsp+0x58],rax
50b4:	0f 1f 40 00          	nop    DWORD PTR [rax+0x0]
50b8:	48 83 c2 10          	add    rdx,0x10
50bc:	48 8b 3a             	mov    rdi,QWORD PTR [rdx]
50bf:	48 85 ff             	test   rdi,rdi
50c2:	74 13                	je     50d7 <usage+0x367>
50c4:	b9 03 00 00 00       	mov    ecx,0x3
50c9:	48 89 de             	mov    rsi,rbx
50cc:	f3 a6                	repz cmps BYTE PTR ds:[rsi],BYTE PTR es:[rdi]
50ce:	0f 97 c0             	seta   al
50d1:	1c 00                	sbb    al,0x0
50d3:	84 c0                	test   al,al
50d5:	75 e1                	jne    50b8 <usage+0x348>
50d7:	4c 8b 62 08          	mov    r12,QWORD PTR [rdx+0x8]
50db:	31 ff                	xor    edi,edi
50dd:	ba 05 00 00 00       	mov    edx,0x5
50e2:	48 8d 35 36 5d 00 00 	lea    rsi,[rip+0x5d36]        # ae1f <_IO_stdin_used+0x15f>
50e9:	4d 85 e4             	test   r12,r12
50ec:	0f 84 c1 00 00 00    	je     51b3 <usage+0x443>
50f2:	e8 b9 c7 ff ff       	call   18b0 <dcgettext@plt>
50f7:	48 8d 0d fa 6c 00 00 	lea    rcx,[rip+0x6cfa]        # bdf8 <_IO_stdin_used+0x1138>
50fe:	48 8d 15 31 5d 00 00 	lea    rdx,[rip+0x5d31]        # ae36 <_IO_stdin_used+0x176>
5105:	48 89 c6             	mov    rsi,rax
5108:	bf 01 00 00 00       	mov    edi,0x1
510d:	31 c0                	xor    eax,eax
510f:	e8 5c c9 ff ff       	call   1a70 <__printf_chk@plt>
5114:	31 f6                	xor    esi,esi
5116:	bf 05 00 00 00       	mov    edi,0x5
511b:	e8 40 c9 ff ff       	call   1a60 <setlocale@plt>
5120:	48 85 c0             	test   rax,rax
5123:	74 1c                	je     5141 <usage+0x3d1>
5125:	48 8d 35 18 5d 00 00 	lea    rsi,[rip+0x5d18]        # ae44 <_IO_stdin_used+0x184>
512c:	ba 03 00 00 00       	mov    edx,0x3
5131:	48 89 c7             	mov    rdi,rax
5134:	e8 c7 c6 ff ff       	call   1800 <strncmp@plt>
5139:	85 c0                	test   eax,eax
513b:	0f 85 07 01 00 00    	jne    5248 <usage+0x4d8>
5141:	48 8d 35 00 5d 00 00 	lea    rsi,[rip+0x5d00]        # ae48 <_IO_stdin_used+0x188>
5148:	31 ff                	xor    edi,edi
514a:	ba 05 00 00 00       	mov    edx,0x5
514f:	e8 5c c7 ff ff       	call   18b0 <dcgettext@plt>
5154:	48 8d 0d 62 5c 00 00 	lea    rcx,[rip+0x5c62]        # adbd <_IO_stdin_used+0xfd>
515b:	48 8d 15 96 6c 00 00 	lea    rdx,[rip+0x6c96]        # bdf8 <_IO_stdin_used+0x1138>
5162:	48 89 c6             	mov    rsi,rax
5165:	bf 01 00 00 00       	mov    edi,0x1
516a:	31 c0                	xor    eax,eax
516c:	e8 ff c8 ff ff       	call   1a70 <__printf_chk@plt>
5171:	49 39 dc             	cmp    r12,rbx
5174:	48 8d 0d 61 5c 00 00 	lea    rcx,[rip+0x5c61]        # addc <_IO_stdin_used+0x11c>
517b:	48 8d 1d 3f 7c 00 00 	lea    rbx,[rip+0x7c3f]        # cdc1 <quoting_style_vals+0x81>
5182:	48 0f 44 d9          	cmove  rbx,rcx
5186:	48 8d 35 db 6c 00 00 	lea    rsi,[rip+0x6cdb]        # be68 <_IO_stdin_used+0x11a8>
518d:	31 ff                	xor    edi,edi
518f:	ba 05 00 00 00       	mov    edx,0x5
5194:	e8 17 c7 ff ff       	call   18b0 <dcgettext@plt>
5199:	48 89 d9             	mov    rcx,rbx
519c:	48 89 c6             	mov    rsi,rax
519f:	4c 89 e2             	mov    rdx,r12
51a2:	bf 01 00 00 00       	mov    edi,0x1
51a7:	31 c0                	xor    eax,eax
51a9:	e8 c2 c8 ff ff       	call   1a70 <__printf_chk@plt>
51ae:	e9 13 fc ff ff       	jmp    4dc6 <usage+0x56>
51b3:	e8 f8 c6 ff ff       	call   18b0 <dcgettext@plt>
51b8:	48 8d 0d 39 6c 00 00 	lea    rcx,[rip+0x6c39]        # bdf8 <_IO_stdin_used+0x1138>
51bf:	48 8d 15 70 5c 00 00 	lea    rdx,[rip+0x5c70]        # ae36 <_IO_stdin_used+0x176>
51c6:	48 89 c6             	mov    rsi,rax
51c9:	bf 01 00 00 00       	mov    edi,0x1
51ce:	31 c0                	xor    eax,eax
51d0:	e8 9b c8 ff ff       	call   1a70 <__printf_chk@plt>
51d5:	31 f6                	xor    esi,esi
51d7:	bf 05 00 00 00       	mov    edi,0x5
51dc:	e8 7f c8 ff ff       	call   1a60 <setlocale@plt>
51e1:	48 85 c0             	test   rax,rax
51e4:	74 18                	je     51fe <usage+0x48e>
51e6:	48 8d 35 57 5c 00 00 	lea    rsi,[rip+0x5c57]        # ae44 <_IO_stdin_used+0x184>
51ed:	ba 03 00 00 00       	mov    edx,0x3
51f2:	48 89 c7             	mov    rdi,rax
51f5:	e8 06 c6 ff ff       	call   1800 <strncmp@plt>
51fa:	85 c0                	test   eax,eax
51fc:	75 43                	jne    5241 <usage+0x4d1>
51fe:	48 8d 35 43 5c 00 00 	lea    rsi,[rip+0x5c43]        # ae48 <_IO_stdin_used+0x188>
5205:	ba 05 00 00 00       	mov    edx,0x5
520a:	31 ff                	xor    edi,edi
520c:	4c 8d 25 aa 5b 00 00 	lea    r12,[rip+0x5baa]        # adbd <_IO_stdin_used+0xfd>
5213:	48 8d 1d c2 5b 00 00 	lea    rbx,[rip+0x5bc2]        # addc <_IO_stdin_used+0x11c>
521a:	e8 91 c6 ff ff       	call   18b0 <dcgettext@plt>
521f:	48 8d 0d 97 5b 00 00 	lea    rcx,[rip+0x5b97]        # adbd <_IO_stdin_used+0xfd>
5226:	48 8d 15 cb 6b 00 00 	lea    rdx,[rip+0x6bcb]        # bdf8 <_IO_stdin_used+0x1138>
522d:	48 89 c6             	mov    rsi,rax
5230:	bf 01 00 00 00       	mov    edi,0x1
5235:	31 c0                	xor    eax,eax
5237:	e8 34 c8 ff ff       	call   1a70 <__printf_chk@plt>
523c:	e9 45 ff ff ff       	jmp    5186 <usage+0x416>
5241:	4c 8d 25 75 5b 00 00 	lea    r12,[rip+0x5b75]        # adbd <_IO_stdin_used+0xfd>
5248:	4c 8b 2d 59 ae 20 00 	mov    r13,QWORD PTR [rip+0x20ae59]        # 2100a8 <stdout@@GLIBC_2.2.5>
524f:	48 8d 35 ca 6b 00 00 	lea    rsi,[rip+0x6bca]        # be20 <_IO_stdin_used+0x1160>
5256:	31 ff                	xor    edi,edi
5258:	ba 05 00 00 00       	mov    edx,0x5
525d:	e8 4e c6 ff ff       	call   18b0 <dcgettext@plt>
5262:	4c 89 ee             	mov    rsi,r13
5265:	48 89 c7             	mov    rdi,rax
5268:	e8 43 c7 ff ff       	call   19b0 <fputs_unlocked@plt>
526d:	e9 cf fe ff ff       	jmp    5141 <usage+0x3d1>
5272:	66 2e 0f 1f 84 00 00 	nop    WORD PTR cs:[rax+rax*1+0x0]
5279:	00 00 00
527c:	0f 1f 40 00          	nop    DWORD PTR [rax+0x0]

0000000000005280 <__argmatch_die>:
5280:	bf 01 00 00 00       	mov    edi,0x1
5285:	e9 e6 fa ff ff       	jmp    4d70 <usage>
528a:	66 0f 1f 44 00 00    	nop    WORD PTR [rax+rax*1+0x0]

0000000000005290 <argmatch>:
5290:	41 57                	push   r15
5292:	41 56                	push   r14
5294:	49 89 f7             	mov    r15,rsi
5297:	41 55                	push   r13
5299:	41 54                	push   r12
529b:	49 89 cd             	mov    r13,rcx
529e:	55                   	push   rbp
529f:	53                   	push   rbx
52a0:	48 89 d5             	mov    rbp,rdx
52a3:	48 83 ec 28          	sub    rsp,0x28
52a7:	48 89 7c 24 08       	mov    QWORD PTR [rsp+0x8],rdi
52ac:	48 89 54 24 18       	mov    QWORD PTR [rsp+0x18],rdx
52b1:	e8 1a c6 ff ff       	call   18d0 <strlen@plt>
52b6:	4d 8b 37             	mov    r14,QWORD PTR [r15]
52b9:	48 c7 04 24 ff ff ff 	mov    QWORD PTR [rsp],0xffffffffffffffff
52c0:	ff
52c1:	4d 85 f6             	test   r14,r14
52c4:	0f 84 b3 00 00 00    	je     537d <argmatch+0xed>
52ca:	49 89 c4             	mov    r12,rax
52cd:	c6 44 24 17 00       	mov    BYTE PTR [rsp+0x17],0x0
52d2:	31 db                	xor    ebx,ebx
52d4:	eb 51                	jmp    5327 <argmatch+0x97>
52d6:	66 2e 0f 1f 84 00 00 	nop    WORD PTR cs:[rax+rax*1+0x0]
52dd:	00 00 00
52e0:	48 8b 44 24 18       	mov    rax,QWORD PTR [rsp+0x18]
52e5:	48 85 c0             	test   rax,rax
52e8:	0f 84 a2 00 00 00    	je     5390 <argmatch+0x100>
52ee:	48 8b 3c 24          	mov    rdi,QWORD PTR [rsp]
52f2:	4c 89 ea             	mov    rdx,r13
52f5:	48 89 ee             	mov    rsi,rbp
52f8:	49 0f af fd          	imul   rdi,r13
52fc:	48 01 c7             	add    rdi,rax
52ff:	e8 9c c6 ff ff       	call   19a0 <memcmp@plt>
5304:	85 c0                	test   eax,eax
5306:	0f b6 44 24 17       	movzx  eax,BYTE PTR [rsp+0x17]
530b:	b9 01 00 00 00       	mov    ecx,0x1
5310:	0f 45 c1             	cmovne eax,ecx
5313:	88 44 24 17          	mov    BYTE PTR [rsp+0x17],al
5317:	48 83 c3 01          	add    rbx,0x1
531b:	4c 01 ed             	add    rbp,r13
531e:	4d 8b 34 df          	mov    r14,QWORD PTR [r15+rbx*8]
5322:	4d 85 f6             	test   r14,r14
5325:	74 41                	je     5368 <argmatch+0xd8>
5327:	48 8b 74 24 08       	mov    rsi,QWORD PTR [rsp+0x8]
532c:	4c 89 e2             	mov    rdx,r12
532f:	4c 89 f7             	mov    rdi,r14
5332:	e8 c9 c4 ff ff       	call   1800 <strncmp@plt>
5337:	85 c0                	test   eax,eax
5339:	75 dc                	jne    5317 <argmatch+0x87>
533b:	4c 89 f7             	mov    rdi,r14
533e:	e8 8d c5 ff ff       	call   18d0 <strlen@plt>
5343:	4c 39 e0             	cmp    rax,r12
5346:	74 58                	je     53a0 <argmatch+0x110>
5348:	48 83 3c 24 ff       	cmp    QWORD PTR [rsp],0xffffffffffffffff
534d:	75 91                	jne    52e0 <argmatch+0x50>
534f:	48 89 1c 24          	mov    QWORD PTR [rsp],rbx
5353:	48 83 c3 01          	add    rbx,0x1
5357:	4c 01 ed             	add    rbp,r13
535a:	4d 8b 34 df          	mov    r14,QWORD PTR [r15+rbx*8]
535e:	4d 85 f6             	test   r14,r14
5361:	75 c4                	jne    5327 <argmatch+0x97>
5363:	0f 1f 44 00 00       	nop    DWORD PTR [rax+rax*1+0x0]
5368:	80 7c 24 17 00       	cmp    BYTE PTR [rsp+0x17],0x0
536d:	48 c7 c0 fe ff ff ff 	mov    rax,0xfffffffffffffffe
5374:	48 0f 44 04 24       	cmove  rax,QWORD PTR [rsp]
5379:	48 89 04 24          	mov    QWORD PTR [rsp],rax
537d:	48 8b 04 24          	mov    rax,QWORD PTR [rsp]
5381:	48 83 c4 28          	add    rsp,0x28
5385:	5b                   	pop    rbx
5386:	5d                   	pop    rbp
5387:	41 5c                	pop    r12
5389:	41 5d                	pop    r13
538b:	41 5e                	pop    r14
538d:	41 5f                	pop    r15
538f:	c3                   	ret
5390:	c6 44 24 17 01       	mov    BYTE PTR [rsp+0x17],0x1
5395:	eb 80                	jmp    5317 <argmatch+0x87>
5397:	66 0f 1f 84 00 00 00 	nop    WORD PTR [rax+rax*1+0x0]
539e:	00 00
53a0:	48 89 1c 24          	mov    QWORD PTR [rsp],rbx
53a4:	eb d7                	jmp    537d <argmatch+0xed>
53a6:	66 2e 0f 1f 84 00 00 	nop    WORD PTR cs:[rax+rax*1+0x0]
53ad:	00 00 00

00000000000053b0 <argmatch_invalid>:
53b0:	48 83 fa ff          	cmp    rdx,0xffffffffffffffff
53b4:	41 54                	push   r12
53b6:	ba 05 00 00 00       	mov    edx,0x5
53bb:	55                   	push   rbp
53bc:	49 89 f4             	mov    r12,rsi
53bf:	53                   	push   rbx
53c0:	48 89 fd             	mov    rbp,rdi
53c3:	74 4b                	je     5410 <argmatch_invalid+0x60>
53c5:	48 8d 35 d8 73 00 00 	lea    rsi,[rip+0x73d8]        # c7a4 <bytes_to_oct_digits+0x64>
53cc:	31 ff                	xor    edi,edi
53ce:	e8 dd c4 ff ff       	call   18b0 <dcgettext@plt>
53d3:	48 89 c3             	mov    rbx,rax
53d6:	48 89 ee             	mov    rsi,rbp
53d9:	bf 01 00 00 00       	mov    edi,0x1
53de:	e8 1d 24 00 00       	call   7800 <quote_n>
53e3:	4c 89 e2             	mov    rdx,r12
53e6:	48 89 c5             	mov    rbp,rax
53e9:	be 08 00 00 00       	mov    esi,0x8
53ee:	31 ff                	xor    edi,edi
53f0:	e8 3b 20 00 00       	call   7430 <quotearg_n_style>
53f5:	49 89 e8             	mov    r8,rbp
53f8:	48 89 da             	mov    rdx,rbx
53fb:	48 89 c1             	mov    rcx,rax
53fe:	5b                   	pop    rbx
53ff:	5d                   	pop    rbp
5400:	41 5c                	pop    r12
5402:	31 f6                	xor    esi,esi
5404:	31 ff                	xor    edi,edi
5406:	31 c0                	xor    eax,eax
5408:	e9 93 c6 ff ff       	jmp    1aa0 <error@plt>
540d:	0f 1f 00             	nop    DWORD PTR [rax]
5410:	48 8d 35 72 73 00 00 	lea    rsi,[rip+0x7372]        # c789 <bytes_to_oct_digits+0x49>
5417:	31 ff                	xor    edi,edi
5419:	e8 92 c4 ff ff       	call   18b0 <dcgettext@plt>
541e:	48 89 c3             	mov    rbx,rax
5421:	eb b3                	jmp    53d6 <argmatch_invalid+0x26>
5423:	0f 1f 00             	nop    DWORD PTR [rax]
5426:	66 2e 0f 1f 84 00 00 	nop    WORD PTR cs:[rax+rax*1+0x0]
542d:	00 00 00

0000000000005430 <argmatch_valid>:
5430:	41 57                	push   r15
5432:	41 56                	push   r14
5434:	49 89 fe             	mov    r14,rdi
5437:	41 55                	push   r13
5439:	41 54                	push   r12
543b:	31 ff                	xor    edi,edi
543d:	55                   	push   rbp
543e:	53                   	push   rbx
543f:	48 89 f5             	mov    rbp,rsi
5442:	48 8d 35 78 73 00 00 	lea    rsi,[rip+0x7378]        # c7c1 <bytes_to_oct_digits+0x81>
5449:	49 89 d4             	mov    r12,rdx
544c:	ba 05 00 00 00       	mov    edx,0x5
5451:	48 83 ec 08          	sub    rsp,0x8
5455:	48 8b 1d 84 ac 20 00 	mov    rbx,QWORD PTR [rip+0x20ac84]        # 2100e0 <stderr@@GLIBC_2.2.5>
545c:	e8 4f c4 ff ff       	call   18b0 <dcgettext@plt>
5461:	48 89 c7             	mov    rdi,rax
5464:	48 89 de             	mov    rsi,rbx
5467:	e8 44 c5 ff ff       	call   19b0 <fputs_unlocked@plt>
546c:	4d 8b 3e             	mov    r15,QWORD PTR [r14]
546f:	4d 85 ff             	test   r15,r15
5472:	0f 84 90 00 00 00    	je     5508 <argmatch_valid+0xd8>
5478:	45 31 ed             	xor    r13d,r13d
547b:	31 db                	xor    ebx,ebx
547d:	eb 39                	jmp    54b8 <argmatch_valid+0x88>
547f:	90                   	nop
5480:	4c 89 ff             	mov    rdi,r15
5483:	48 83 c3 01          	add    rbx,0x1
5487:	49 89 ed             	mov    r13,rbp
548a:	e8 91 23 00 00       	call   7820 <quote>
548f:	48 8b 3d 4a ac 20 00 	mov    rdi,QWORD PTR [rip+0x20ac4a]        # 2100e0 <stderr@@GLIBC_2.2.5>
5496:	48 8d 15 39 73 00 00 	lea    rdx,[rip+0x7339]        # c7d6 <bytes_to_oct_digits+0x96>
549d:	48 89 c1             	mov    rcx,rax
54a0:	be 01 00 00 00       	mov    esi,0x1
54a5:	31 c0                	xor    eax,eax
54a7:	4c 01 e5             	add    rbp,r12
54aa:	e8 61 c6 ff ff       	call   1b10 <__fprintf_chk@plt>
54af:	4d 8b 3c de          	mov    r15,QWORD PTR [r14+rbx*8]
54b3:	4d 85 ff             	test   r15,r15
54b6:	74 50                	je     5508 <argmatch_valid+0xd8>
54b8:	48 85 db             	test   rbx,rbx
54bb:	74 c3                	je     5480 <argmatch_valid+0x50>
54bd:	4c 89 e2             	mov    rdx,r12
54c0:	48 89 ee             	mov    rsi,rbp
54c3:	4c 89 ef             	mov    rdi,r13
54c6:	e8 d5 c4 ff ff       	call   19a0 <memcmp@plt>
54cb:	85 c0                	test   eax,eax
54cd:	75 b1                	jne    5480 <argmatch_valid+0x50>
54cf:	4c 89 ff             	mov    rdi,r15
54d2:	48 83 c3 01          	add    rbx,0x1
54d6:	4c 01 e5             	add    rbp,r12
54d9:	e8 42 23 00 00       	call   7820 <quote>
54de:	48 8b 3d fb ab 20 00 	mov    rdi,QWORD PTR [rip+0x20abfb]        # 2100e0 <stderr@@GLIBC_2.2.5>
54e5:	48 8d 15 f2 72 00 00 	lea    rdx,[rip+0x72f2]        # c7de <bytes_to_oct_digits+0x9e>
54ec:	48 89 c1             	mov    rcx,rax
54ef:	be 01 00 00 00       	mov    esi,0x1
54f4:	31 c0                	xor    eax,eax
54f6:	e8 15 c6 ff ff       	call   1b10 <__fprintf_chk@plt>
54fb:	4d 8b 3c de          	mov    r15,QWORD PTR [r14+rbx*8]
54ff:	4d 85 ff             	test   r15,r15
5502:	75 b4                	jne    54b8 <argmatch_valid+0x88>
5504:	0f 1f 40 00          	nop    DWORD PTR [rax+0x0]
5508:	48 8b 3d d1 ab 20 00 	mov    rdi,QWORD PTR [rip+0x20abd1]        # 2100e0 <stderr@@GLIBC_2.2.5>
550f:	48 8b 47 28          	mov    rax,QWORD PTR [rdi+0x28]
5513:	48 3b 47 30          	cmp    rax,QWORD PTR [rdi+0x30]
5517:	73 1f                	jae    5538 <argmatch_valid+0x108>
5519:	48 8d 50 01          	lea    rdx,[rax+0x1]
551d:	48 89 57 28          	mov    QWORD PTR [rdi+0x28],rdx
5521:	c6 00 0a             	mov    BYTE PTR [rax],0xa
5524:	48 83 c4 08          	add    rsp,0x8
5528:	5b                   	pop    rbx
5529:	5d                   	pop    rbp
552a:	41 5c                	pop    r12
552c:	41 5d                	pop    r13
552e:	41 5e                	pop    r14
5530:	41 5f                	pop    r15
5532:	c3                   	ret
5533:	0f 1f 44 00 00       	nop    DWORD PTR [rax+rax*1+0x0]
5538:	48 83 c4 08          	add    rsp,0x8
553c:	be 0a 00 00 00       	mov    esi,0xa
5541:	5b                   	pop    rbx
5542:	5d                   	pop    rbp
5543:	41 5c                	pop    r12
5545:	41 5d                	pop    r13
5547:	41 5e                	pop    r14
5549:	41 5f                	pop    r15
554b:	e9 d0 c3 ff ff       	jmp    1920 <__overflow@plt>

0000000000005550 <__xargmatch_internal>:
5550:	41 57                	push   r15
5552:	41 56                	push   r14
5554:	49 89 fe             	mov    r14,rdi
5557:	41 55                	push   r13
5559:	41 54                	push   r12
555b:	49 89 f4             	mov    r12,rsi
555e:	55                   	push   rbp
555f:	53                   	push   rbx
5560:	48 89 cd             	mov    rbp,rcx
5563:	48 89 d3             	mov    rbx,rdx
5566:	4c 89 c1             	mov    rcx,r8
5569:	48 89 ea             	mov    rdx,rbp
556c:	48 83 ec 08          	sub    rsp,0x8
5570:	48 89 de             	mov    rsi,rbx
5573:	4c 89 e7             	mov    rdi,r12
5576:	4d 89 c7             	mov    r15,r8
5579:	4d 89 cd             	mov    r13,r9
557c:	e8 0f fd ff ff       	call   5290 <argmatch>
5581:	48 85 c0             	test   rax,rax
5584:	78 0f                	js     5595 <__xargmatch_internal+0x45>
5586:	48 83 c4 08          	add    rsp,0x8
558a:	5b                   	pop    rbx
558b:	5d                   	pop    rbp
558c:	41 5c                	pop    r12
558e:	41 5d                	pop    r13
5590:	41 5e                	pop    r14
5592:	41 5f                	pop    r15
5594:	c3                   	ret
5595:	48 89 c2             	mov    rdx,rax
5598:	4c 89 e6             	mov    rsi,r12
559b:	4c 89 f7             	mov    rdi,r14
559e:	e8 0d fe ff ff       	call   53b0 <argmatch_invalid>
55a3:	4c 89 fa             	mov    rdx,r15
55a6:	48 89 ee             	mov    rsi,rbp
55a9:	48 89 df             	mov    rdi,rbx
55ac:	e8 7f fe ff ff       	call   5430 <argmatch_valid>
55b1:	41 ff d5             	call   r13
55b4:	48 c7 c0 ff ff ff ff 	mov    rax,0xffffffffffffffff
55bb:	eb c9                	jmp    5586 <__xargmatch_internal+0x36>
55bd:	0f 1f 00             	nop    DWORD PTR [rax]

00000000000055c0 <argmatch_to_argument>:
55c0:	41 56                	push   r14
55c2:	41 55                	push   r13
55c4:	41 54                	push   r12
55c6:	55                   	push   rbp
55c7:	53                   	push   rbx
55c8:	4c 8b 36             	mov    r14,QWORD PTR [rsi]
55cb:	4d 85 f6             	test   r14,r14
55ce:	74 31                	je     5601 <argmatch_to_argument+0x41>
55d0:	49 89 cc             	mov    r12,rcx
55d3:	49 89 fd             	mov    r13,rdi
55d6:	48 89 d5             	mov    rbp,rdx
55d9:	48 8d 5e 08          	lea    rbx,[rsi+0x8]
55dd:	eb 10                	jmp    55ef <argmatch_to_argument+0x2f>
55df:	90                   	nop
55e0:	4c 8b 33             	mov    r14,QWORD PTR [rbx]
55e3:	4c 01 e5             	add    rbp,r12
55e6:	48 83 c3 08          	add    rbx,0x8
55ea:	4d 85 f6             	test   r14,r14
55ed:	74 12                	je     5601 <argmatch_to_argument+0x41>
55ef:	4c 89 e2             	mov    rdx,r12
55f2:	48 89 ee             	mov    rsi,rbp
55f5:	4c 89 ef             	mov    rdi,r13
55f8:	e8 a3 c3 ff ff       	call   19a0 <memcmp@plt>
55fd:	85 c0                	test   eax,eax
55ff:	75 df                	jne    55e0 <argmatch_to_argument+0x20>
5601:	5b                   	pop    rbx
5602:	4c 89 f0             	mov    rax,r14
5605:	5d                   	pop    rbp
5606:	41 5c                	pop    r12
5608:	41 5d                	pop    r13
560a:	41 5e                	pop    r14
560c:	c3                   	ret
560d:	0f 1f 00             	nop    DWORD PTR [rax]

0000000000005610 <close_stdout_set_file_name>:
5610:	48 89 3d 19 ac 20 00 	mov    QWORD PTR [rip+0x20ac19],rdi        # 210230 <file_name>
5617:	c3                   	ret
5618:	0f 1f 84 00 00 00 00 	nop    DWORD PTR [rax+rax*1+0x0]
561f:	00

0000000000005620 <close_stdout_set_ignore_EPIPE>:
5620:	40 88 3d 01 ac 20 00 	mov    BYTE PTR [rip+0x20ac01],dil        # 210228 <ignore_EPIPE>
5627:	c3                   	ret
5628:	0f 1f 84 00 00 00 00 	nop    DWORD PTR [rax+rax*1+0x0]
562f:	00

0000000000005630 <close_stdout>:
5630:	55                   	push   rbp
5631:	53                   	push   rbx
5632:	48 83 ec 08          	sub    rsp,0x8
5636:	48 8b 3d 6b aa 20 00 	mov    rdi,QWORD PTR [rip+0x20aa6b]        # 2100a8 <stdout@@GLIBC_2.2.5>
563d:	e8 8e 34 00 00       	call   8ad0 <close_stream>
5642:	85 c0                	test   eax,eax
5644:	74 16                	je     565c <close_stdout+0x2c>
5646:	e8 a5 c1 ff ff       	call   17f0 <__errno_location@plt>
564b:	80 3d d6 ab 20 00 00 	cmp    BYTE PTR [rip+0x20abd6],0x0        # 210228 <ignore_EPIPE>
5652:	48 89 c3             	mov    rbx,rax
5655:	74 1c                	je     5673 <close_stdout+0x43>
5657:	83 38 20             	cmp    DWORD PTR [rax],0x20
565a:	75 17                	jne    5673 <close_stdout+0x43>
565c:	48 8b 3d 7d aa 20 00 	mov    rdi,QWORD PTR [rip+0x20aa7d]        # 2100e0 <stderr@@GLIBC_2.2.5>
5663:	e8 68 34 00 00       	call   8ad0 <close_stream>
5668:	85 c0                	test   eax,eax
566a:	75 46                	jne    56b2 <close_stdout+0x82>
566c:	48 83 c4 08          	add    rsp,0x8
5670:	5b                   	pop    rbx
5671:	5d                   	pop    rbp
5672:	c3                   	ret
5673:	48 8d 35 04 57 00 00 	lea    rsi,[rip+0x5704]        # ad7e <_IO_stdin_used+0xbe>
567a:	31 ff                	xor    edi,edi
567c:	ba 05 00 00 00       	mov    edx,0x5
5681:	e8 2a c2 ff ff       	call   18b0 <dcgettext@plt>
5686:	48 8b 3d a3 ab 20 00 	mov    rdi,QWORD PTR [rip+0x20aba3]        # 210230 <file_name>
568d:	48 89 c5             	mov    rbp,rax
5690:	48 85 ff             	test   rdi,rdi
5693:	74 28                	je     56bd <close_stdout+0x8d>
5695:	e8 86 1f 00 00       	call   7620 <quotearg_colon>
569a:	8b 33                	mov    esi,DWORD PTR [rbx]
569c:	48 8d 15 40 71 00 00 	lea    rdx,[rip+0x7140]        # c7e3 <bytes_to_oct_digits+0xa3>
56a3:	48 89 c1             	mov    rcx,rax
56a6:	49 89 e8             	mov    r8,rbp
56a9:	31 ff                	xor    edi,edi
56ab:	31 c0                	xor    eax,eax
56ad:	e8 ee c3 ff ff       	call   1aa0 <error@plt>
56b2:	8b 3d 70 a9 20 00    	mov    edi,DWORD PTR [rip+0x20a970]        # 210028 <exit_failure>
56b8:	e8 53 c1 ff ff       	call   1810 <_exit@plt>
56bd:	8b 33                	mov    esi,DWORD PTR [rbx]
56bf:	48 8d 15 1a 71 00 00 	lea    rdx,[rip+0x711a]        # c7e0 <bytes_to_oct_digits+0xa0>
56c6:	48 89 c1             	mov    rcx,rax
56c9:	31 ff                	xor    edi,edi
56cb:	31 c0                	xor    eax,eax
56cd:	e8 ce c3 ff ff       	call   1aa0 <error@plt>
56d2:	eb de                	jmp    56b2 <close_stdout+0x82>
56d4:	66 2e 0f 1f 84 00 00 	nop    WORD PTR cs:[rax+rax*1+0x0]
56db:	00 00 00
56de:	66 90                	xchg   ax,ax

00000000000056e0 <dtoastr>:
56e0:	41 57                	push   r15
56e2:	41 56                	push   r14
56e4:	41 89 ce             	mov    r14d,ecx
56e7:	41 55                	push   r13
56e9:	41 54                	push   r12
56eb:	49 89 fc             	mov    r12,rdi
56ee:	55                   	push   rbp
56ef:	53                   	push   rbx
56f0:	48 89 f5             	mov    rbp,rsi
56f3:	66 0f 28 d8          	movapd xmm3,xmm0
56f7:	48 83 ec 38          	sub    rsp,0x38
56fb:	f2 0f 11 04 24       	movsd  QWORD PTR [rsp],xmm0
5700:	66 0f ef c0          	pxor   xmm0,xmm0
5704:	64 48 8b 04 25 28 00 	mov    rax,QWORD PTR fs:0x28
570b:	00 00
570d:	48 89 44 24 28       	mov    QWORD PTR [rsp+0x28],rax
5712:	31 c0                	xor    eax,eax
5714:	66 0f 2e c3          	ucomisd xmm0,xmm3
5718:	0f 87 12 01 00 00    	ja     5830 <dtoastr+0x150>
571e:	f2 0f 10 04 24       	movsd  xmm0,QWORD PTR [rsp]
5723:	89 d0                	mov    eax,edx
5725:	4c 8d 6c 24 1d       	lea    r13,[rsp+0x1d]
572a:	89 d1                	mov    ecx,edx
572c:	83 e0 01             	and    eax,0x1
572f:	d1 e9                	shr    ecx,1
5731:	be 25 2d 00 00       	mov    esi,0x2d25
5736:	49 8d 7c 05 01       	lea    rdi,[r13+rax*1+0x1]
573b:	83 e1 01             	and    ecx,0x1
573e:	89 d0                	mov    eax,edx
5740:	66 89 74 24 1d       	mov    WORD PTR [rsp+0x1d],si
5745:	c1 e8 02             	shr    eax,0x2
5748:	bb 01 00 00 00       	mov    ebx,0x1
574d:	48 8d 34 0f          	lea    rsi,[rdi+rcx*1]
5751:	83 e0 01             	and    eax,0x1
5754:	c6 07 2b             	mov    BYTE PTR [rdi],0x2b
5757:	f2 0f 10 0d a1 70 00 	movsd  xmm1,QWORD PTR [rip+0x70a1]        # c800 <bytes_to_oct_digits+0xc0>
575e:	00
575f:	bf 2a 2e 00 00       	mov    edi,0x2e2a
5764:	48 8d 0c 06          	lea    rcx,[rsi+rax*1]
5768:	89 d0                	mov    eax,edx
576a:	83 e2 10             	and    edx,0x10
576d:	c1 e8 03             	shr    eax,0x3
5770:	c6 06 20             	mov    BYTE PTR [rsi],0x20
5773:	49 c7 c7 ff ff ff ff 	mov    r15,0xffffffffffffffff
577a:	83 e0 01             	and    eax,0x1
577d:	c6 01 30             	mov    BYTE PTR [rcx],0x30
5780:	48 01 c8             	add    rax,rcx
5783:	83 fa 01             	cmp    edx,0x1
5786:	19 d2                	sbb    edx,edx
5788:	66 89 38             	mov    WORD PTR [rax],di
578b:	c6 40 02 2a          	mov    BYTE PTR [rax+0x2],0x2a
578f:	83 e2 20             	and    edx,0x20
5792:	c6 40 04 00          	mov    BYTE PTR [rax+0x4],0x0
5796:	83 c2 47             	add    edx,0x47
5799:	66 0f 2e c8          	ucomisd xmm1,xmm0
579d:	88 50 03             	mov    BYTE PTR [rax+0x3],dl
57a0:	b8 0f 00 00 00       	mov    eax,0xf
57a5:	0f 46 d8             	cmovbe ebx,eax
57a8:	eb 09                	jmp    57b3 <dtoastr+0xd3>
57aa:	66 0f 1f 44 00 00    	nop    WORD PTR [rax+rax*1+0x0]
57b0:	83 c3 01             	add    ebx,0x1
57b3:	48 83 ec 08          	sub    rsp,0x8
57b7:	4c 89 f9             	mov    rcx,r15
57ba:	ba 01 00 00 00       	mov    edx,0x1
57bf:	53                   	push   rbx
57c0:	45 89 f1             	mov    r9d,r14d
57c3:	4d 89 e8             	mov    r8,r13
57c6:	48 89 ee             	mov    rsi,rbp
57c9:	4c 89 e7             	mov    rdi,r12
57cc:	b8 01 00 00 00       	mov    eax,0x1
57d1:	f2 0f 10 44 24 10    	movsd  xmm0,QWORD PTR [rsp+0x10]
57d7:	e8 e4 bf ff ff       	call   17c0 <__snprintf_chk@plt>
57dc:	85 c0                	test   eax,eax
57de:	5a                   	pop    rdx
57df:	59                   	pop    rcx
57e0:	78 28                	js     580a <dtoastr+0x12a>
57e2:	83 fb 10             	cmp    ebx,0x10
57e5:	7f 23                	jg     580a <dtoastr+0x12a>
57e7:	48 63 d0             	movsxd rdx,eax
57ea:	48 39 ea             	cmp    rdx,rbp
57ed:	73 c1                	jae    57b0 <dtoastr+0xd0>
57ef:	31 f6                	xor    esi,esi
57f1:	4c 89 e7             	mov    rdi,r12
57f4:	89 44 24 0c          	mov    DWORD PTR [rsp+0xc],eax
57f8:	e8 53 c0 ff ff       	call   1850 <strtod@plt>
57fd:	66 0f 2e 04 24       	ucomisd xmm0,QWORD PTR [rsp]
5802:	7a ac                	jp     57b0 <dtoastr+0xd0>
5804:	8b 44 24 0c          	mov    eax,DWORD PTR [rsp+0xc]
5808:	75 a6                	jne    57b0 <dtoastr+0xd0>
580a:	48 8b 74 24 28       	mov    rsi,QWORD PTR [rsp+0x28]
580f:	64 48 33 34 25 28 00 	xor    rsi,QWORD PTR fs:0x28
5816:	00 00
5818:	75 27                	jne    5841 <dtoastr+0x161>
581a:	48 83 c4 38          	add    rsp,0x38
581e:	5b                   	pop    rbx
581f:	5d                   	pop    rbp
5820:	41 5c                	pop    r12
5822:	41 5d                	pop    r13
5824:	41 5e                	pop    r14
5826:	41 5f                	pop    r15
5828:	c3                   	ret
5829:	0f 1f 80 00 00 00 00 	nop    DWORD PTR [rax+0x0]
5830:	66 0f 28 c3          	movapd xmm0,xmm3
5834:	66 0f 57 05 b4 6f 00 	xorpd  xmm0,XMMWORD PTR [rip+0x6fb4]        # c7f0 <bytes_to_oct_digits+0xb0>
583b:	00
583c:	e9 e2 fe ff ff       	jmp    5723 <dtoastr+0x43>
5841:	e8 9a c0 ff ff       	call   18e0 <__stack_chk_fail@plt>
5846:	66 2e 0f 1f 84 00 00 	nop    WORD PTR cs:[rax+rax*1+0x0]
584d:	00 00 00

0000000000005850 <ftoastr>:
5850:	41 57                	push   r15
5852:	66 0f ef e4          	pxor   xmm4,xmm4
5856:	41 56                	push   r14
5858:	41 55                	push   r13
585a:	41 89 cf             	mov    r15d,ecx
585d:	41 54                	push   r12
585f:	55                   	push   rbp
5860:	49 89 fc             	mov    r12,rdi
5863:	53                   	push   rbx
5864:	0f 28 d8             	movaps xmm3,xmm0
5867:	f3 0f 5a e0          	cvtss2sd xmm4,xmm0
586b:	48 89 f5             	mov    rbp,rsi
586e:	48 83 ec 38          	sub    rsp,0x38
5872:	f3 0f 11 44 24 0c    	movss  DWORD PTR [rsp+0xc],xmm0
5878:	66 0f ef c0          	pxor   xmm0,xmm0
587c:	64 48 8b 04 25 28 00 	mov    rax,QWORD PTR fs:0x28
5883:	00 00
5885:	48 89 44 24 28       	mov    QWORD PTR [rsp+0x28],rax
588a:	31 c0                	xor    eax,eax
588c:	f2 0f 11 24 24       	movsd  QWORD PTR [rsp],xmm4
5891:	0f 2e c3             	ucomiss xmm0,xmm3
5894:	0f 87 0e 01 00 00    	ja     59a8 <ftoastr+0x158>
589a:	f3 0f 10 44 24 0c    	movss  xmm0,DWORD PTR [rsp+0xc]
58a0:	89 d0                	mov    eax,edx
58a2:	4c 8d 6c 24 1d       	lea    r13,[rsp+0x1d]
58a7:	89 d1                	mov    ecx,edx
58a9:	83 e0 01             	and    eax,0x1
58ac:	d1 e9                	shr    ecx,1
58ae:	be 25 2d 00 00       	mov    esi,0x2d25
58b3:	49 8d 7c 05 01       	lea    rdi,[r13+rax*1+0x1]
58b8:	83 e1 01             	and    ecx,0x1
58bb:	89 d0                	mov    eax,edx
58bd:	66 89 74 24 1d       	mov    WORD PTR [rsp+0x1d],si
58c2:	c1 e8 02             	shr    eax,0x2
58c5:	49 c7 c6 ff ff ff ff 	mov    r14,0xffffffffffffffff
58cc:	48 8d 34 0f          	lea    rsi,[rdi+rcx*1]
58d0:	83 e0 01             	and    eax,0x1
58d3:	c6 07 2b             	mov    BYTE PTR [rdi],0x2b
58d6:	f3 0f 10 0d 42 6f 00 	movss  xmm1,DWORD PTR [rip+0x6f42]        # c820 <bytes_to_oct_digits+0xe0>
58dd:	00
58de:	bf 2a 2e 00 00       	mov    edi,0x2e2a
58e3:	48 8d 0c 06          	lea    rcx,[rsi+rax*1]
58e7:	89 d0                	mov    eax,edx
58e9:	83 e2 10             	and    edx,0x10
58ec:	c1 e8 03             	shr    eax,0x3
58ef:	c6 06 20             	mov    BYTE PTR [rsi],0x20
58f2:	83 e0 01             	and    eax,0x1
58f5:	c6 01 30             	mov    BYTE PTR [rcx],0x30
58f8:	48 01 c8             	add    rax,rcx
58fb:	83 fa 01             	cmp    edx,0x1
58fe:	19 d2                	sbb    edx,edx
5900:	31 db                	xor    ebx,ebx
5902:	66 89 38             	mov    WORD PTR [rax],di
5905:	83 e2 20             	and    edx,0x20
5908:	c6 40 02 2a          	mov    BYTE PTR [rax+0x2],0x2a
590c:	c6 40 04 00          	mov    BYTE PTR [rax+0x4],0x0
5910:	83 c2 47             	add    edx,0x47
5913:	0f 2e c8             	ucomiss xmm1,xmm0
5916:	88 50 03             	mov    BYTE PTR [rax+0x3],dl
5919:	0f 96 c3             	setbe  bl
591c:	8d 5c 9b 01          	lea    ebx,[rbx+rbx*4+0x1]
5920:	eb 09                	jmp    592b <ftoastr+0xdb>
5922:	66 0f 1f 44 00 00    	nop    WORD PTR [rax+rax*1+0x0]
5928:	83 c3 01             	add    ebx,0x1
592b:	48 83 ec 08          	sub    rsp,0x8
592f:	4c 89 f1             	mov    rcx,r14
5932:	ba 01 00 00 00       	mov    edx,0x1
5937:	53                   	push   rbx
5938:	45 89 f9             	mov    r9d,r15d
593b:	4d 89 e8             	mov    r8,r13
593e:	48 89 ee             	mov    rsi,rbp
5941:	4c 89 e7             	mov    rdi,r12
5944:	b8 01 00 00 00       	mov    eax,0x1
5949:	f2 0f 10 44 24 10    	movsd  xmm0,QWORD PTR [rsp+0x10]
594f:	e8 6c be ff ff       	call   17c0 <__snprintf_chk@plt>
5954:	85 c0                	test   eax,eax
5956:	5a                   	pop    rdx
5957:	59                   	pop    rcx
5958:	78 28                	js     5982 <ftoastr+0x132>
595a:	83 fb 08             	cmp    ebx,0x8
595d:	7f 23                	jg     5982 <ftoastr+0x132>
595f:	48 63 d0             	movsxd rdx,eax
5962:	48 39 ea             	cmp    rdx,rbp
5965:	73 c1                	jae    5928 <ftoastr+0xd8>
5967:	31 f6                	xor    esi,esi
5969:	4c 89 e7             	mov    rdi,r12
596c:	89 44 24 08          	mov    DWORD PTR [rsp+0x8],eax
5970:	e8 fb bf ff ff       	call   1970 <strtof@plt>
5975:	0f 2e 44 24 0c       	ucomiss xmm0,DWORD PTR [rsp+0xc]
597a:	7a ac                	jp     5928 <ftoastr+0xd8>
597c:	8b 44 24 08          	mov    eax,DWORD PTR [rsp+0x8]
5980:	75 a6                	jne    5928 <ftoastr+0xd8>
5982:	48 8b 74 24 28       	mov    rsi,QWORD PTR [rsp+0x28]
5987:	64 48 33 34 25 28 00 	xor    rsi,QWORD PTR fs:0x28
598e:	00 00
5990:	75 25                	jne    59b7 <ftoastr+0x167>
5992:	48 83 c4 38          	add    rsp,0x38
5996:	5b                   	pop    rbx
5997:	5d                   	pop    rbp
5998:	41 5c                	pop    r12
599a:	41 5d                	pop    r13
599c:	41 5e                	pop    r14
599e:	41 5f                	pop    r15
59a0:	c3                   	ret
59a1:	0f 1f 80 00 00 00 00 	nop    DWORD PTR [rax+0x0]
59a8:	0f 28 c3             	movaps xmm0,xmm3
59ab:	0f 57 05 5e 6e 00 00 	xorps  xmm0,XMMWORD PTR [rip+0x6e5e]        # c810 <bytes_to_oct_digits+0xd0>
59b2:	e9 e9 fe ff ff       	jmp    58a0 <ftoastr+0x50>
59b7:	e8 24 bf ff ff       	call   18e0 <__stack_chk_fail@plt>
59bc:	0f 1f 40 00          	nop    DWORD PTR [rax+0x0]

00000000000059c0 <ldtoastr>:
59c0:	41 57                	push   r15
59c2:	41 56                	push   r14
59c4:	d9 ee                	fldz
59c6:	41 55                	push   r13
59c8:	41 54                	push   r12
59ca:	41 89 ce             	mov    r14d,ecx
59cd:	55                   	push   rbp
59ce:	53                   	push   rbx
59cf:	49 89 fc             	mov    r12,rdi
59d2:	48 89 f5             	mov    rbp,rsi
59d5:	48 83 ec 38          	sub    rsp,0x38
59d9:	db 6c 24 70          	fld    TBYTE PTR [rsp+0x70]
59dd:	d9 c9                	fxch   st(1)
59df:	64 48 8b 04 25 28 00 	mov    rax,QWORD PTR fs:0x28
59e6:	00 00
59e8:	48 89 44 24 28       	mov    QWORD PTR [rsp+0x28],rax
59ed:	31 c0                	xor    eax,eax
59ef:	df e9                	fucomip st,st(1)
59f1:	0f 87 09 01 00 00    	ja     5b00 <ldtoastr+0x140>
59f7:	dd d8                	fstp   st(0)
59f9:	db 6c 24 70          	fld    TBYTE PTR [rsp+0x70]
59fd:	b8 25 2d 00 00       	mov    eax,0x2d25
5a02:	4c 8d 6c 24 1d       	lea    r13,[rsp+0x1d]
5a07:	89 d1                	mov    ecx,edx
5a09:	66 89 44 24 1d       	mov    WORD PTR [rsp+0x1d],ax
5a0e:	89 d0                	mov    eax,edx
5a10:	d1 e9                	shr    ecx,1
5a12:	83 e0 01             	and    eax,0x1
5a15:	83 e1 01             	and    ecx,0x1
5a18:	bb 01 00 00 00       	mov    ebx,0x1
5a1d:	49 8d 7c 05 01       	lea    rdi,[r13+rax*1+0x1]
5a22:	89 d0                	mov    eax,edx
5a24:	49 c7 c7 ff ff ff ff 	mov    r15,0xffffffffffffffff
5a2b:	c1 e8 02             	shr    eax,0x2
5a2e:	48 8d 34 0f          	lea    rsi,[rdi+rcx*1]
5a32:	83 e0 01             	and    eax,0x1
5a35:	c6 07 2b             	mov    BYTE PTR [rdi],0x2b
5a38:	48 8d 0c 06          	lea    rcx,[rsi+rax*1]
5a3c:	89 d0                	mov    eax,edx
5a3e:	83 e2 10             	and    edx,0x10
5a41:	db 2d e9 6d 00 00    	fld    TBYTE PTR [rip+0x6de9]        # c830 <bytes_to_oct_digits+0xf0>
5a47:	c1 e8 03             	shr    eax,0x3
5a4a:	c6 06 20             	mov    BYTE PTR [rsi],0x20
5a4d:	c6 01 30             	mov    BYTE PTR [rcx],0x30
5a50:	83 e0 01             	and    eax,0x1
5a53:	48 01 c8             	add    rax,rcx
5a56:	83 fa 01             	cmp    edx,0x1
5a59:	19 d2                	sbb    edx,edx
5a5b:	c7 00 2a 2e 2a 4c    	mov    DWORD PTR [rax],0x4c2a2e2a
5a61:	c6 40 05 00          	mov    BYTE PTR [rax+0x5],0x0
5a65:	83 e2 20             	and    edx,0x20
5a68:	83 c2 47             	add    edx,0x47
5a6b:	88 50 04             	mov    BYTE PTR [rax+0x4],dl
5a6e:	b8 12 00 00 00       	mov    eax,0x12
5a73:	df e9                	fucomip st,st(1)
5a75:	dd d8                	fstp   st(0)
5a77:	0f 46 d8             	cmovbe ebx,eax
5a7a:	eb 07                	jmp    5a83 <ldtoastr+0xc3>
5a7c:	0f 1f 40 00          	nop    DWORD PTR [rax+0x0]
5a80:	83 c3 01             	add    ebx,0x1
5a83:	ff 74 24 78          	push   QWORD PTR [rsp+0x78]
5a87:	ff 74 24 78          	push   QWORD PTR [rsp+0x78]
5a8b:	31 c0                	xor    eax,eax
5a8d:	45 89 f1             	mov    r9d,r14d
5a90:	4d 89 e8             	mov    r8,r13
5a93:	4c 89 f9             	mov    rcx,r15
5a96:	48 83 ec 08          	sub    rsp,0x8
5a9a:	ba 01 00 00 00       	mov    edx,0x1
5a9f:	48 89 ee             	mov    rsi,rbp
5aa2:	53                   	push   rbx
5aa3:	4c 89 e7             	mov    rdi,r12
5aa6:	e8 15 bd ff ff       	call   17c0 <__snprintf_chk@plt>
5aab:	48 83 c4 20          	add    rsp,0x20
5aaf:	85 c0                	test   eax,eax
5ab1:	78 2d                	js     5ae0 <ldtoastr+0x120>
5ab3:	83 fb 14             	cmp    ebx,0x14
5ab6:	7f 28                	jg     5ae0 <ldtoastr+0x120>
5ab8:	48 63 d0             	movsxd rdx,eax
5abb:	48 39 ea             	cmp    rdx,rbp
5abe:	73 c0                	jae    5a80 <ldtoastr+0xc0>
5ac0:	31 f6                	xor    esi,esi
5ac2:	4c 89 e7             	mov    rdi,r12
5ac5:	89 44 24 0c          	mov    DWORD PTR [rsp+0xc],eax
5ac9:	e8 c2 bf ff ff       	call   1a90 <strtold@plt>
5ace:	db 6c 24 70          	fld    TBYTE PTR [rsp+0x70]
5ad2:	d9 c9                	fxch   st(1)
5ad4:	df e9                	fucomip st,st(1)
5ad6:	dd d8                	fstp   st(0)
5ad8:	7a a6                	jp     5a80 <ldtoastr+0xc0>
5ada:	8b 44 24 0c          	mov    eax,DWORD PTR [rsp+0xc]
5ade:	75 a0                	jne    5a80 <ldtoastr+0xc0>
5ae0:	48 8b 74 24 28       	mov    rsi,QWORD PTR [rsp+0x28]
5ae5:	64 48 33 34 25 28 00 	xor    rsi,QWORD PTR fs:0x28
5aec:	00 00
5aee:	75 17                	jne    5b07 <ldtoastr+0x147>
5af0:	48 83 c4 38          	add    rsp,0x38
5af4:	5b                   	pop    rbx
5af5:	5d                   	pop    rbp
5af6:	41 5c                	pop    r12
5af8:	41 5d                	pop    r13
5afa:	41 5e                	pop    r14
5afc:	41 5f                	pop    r15
5afe:	c3                   	ret
5aff:	90                   	nop
5b00:	d9 e0                	fchs
5b02:	e9 f6 fe ff ff       	jmp    59fd <ldtoastr+0x3d>
5b07:	e8 d4 bd ff ff       	call   18e0 <__stack_chk_fail@plt>
5b0c:	0f 1f 40 00          	nop    DWORD PTR [rax+0x0]

0000000000005b10 <set_program_name>:
5b10:	48 85 ff             	test   rdi,rdi
5b13:	53                   	push   rbx
5b14:	74 77                	je     5b8d <set_program_name+0x7d>
5b16:	be 2f 00 00 00       	mov    esi,0x2f
5b1b:	48 89 fb             	mov    rbx,rdi
5b1e:	e8 0d be ff ff       	call   1930 <strrchr@plt>
5b23:	48 85 c0             	test   rax,rax
5b26:	74 55                	je     5b7d <set_program_name+0x6d>
5b28:	4c 8d 40 01          	lea    r8,[rax+0x1]
5b2c:	4c 89 c2             	mov    rdx,r8
5b2f:	48 29 da             	sub    rdx,rbx
5b32:	48 83 fa 06          	cmp    rdx,0x6
5b36:	7e 45                	jle    5b7d <set_program_name+0x6d>
5b38:	48 8d 70 fa          	lea    rsi,[rax-0x6]
5b3c:	48 8d 3d 35 6d 00 00 	lea    rdi,[rip+0x6d35]        # c878 <bytes_to_oct_digits+0x138>
5b43:	b9 07 00 00 00       	mov    ecx,0x7
5b48:	f3 a6                	repz cmps BYTE PTR ds:[rsi],BYTE PTR es:[rdi]
5b4a:	0f 97 c2             	seta   dl
5b4d:	80 da 00             	sbb    dl,0x0
5b50:	84 d2                	test   dl,dl
5b52:	75 29                	jne    5b7d <set_program_name+0x6d>
5b54:	48 8d 3d 25 6d 00 00 	lea    rdi,[rip+0x6d25]        # c880 <bytes_to_oct_digits+0x140>
5b5b:	b9 03 00 00 00       	mov    ecx,0x3
5b60:	4c 89 c6             	mov    rsi,r8
5b63:	4c 89 c3             	mov    rbx,r8
5b66:	f3 a6                	repz cmps BYTE PTR ds:[rsi],BYTE PTR es:[rdi]
5b68:	0f 97 c2             	seta   dl
5b6b:	80 da 00             	sbb    dl,0x0
5b6e:	84 d2                	test   dl,dl
5b70:	75 0b                	jne    5b7d <set_program_name+0x6d>
5b72:	48 8d 58 04          	lea    rbx,[rax+0x4]
5b76:	48 89 1d 23 a5 20 00 	mov    QWORD PTR [rip+0x20a523],rbx        # 2100a0 <__progname@@GLIBC_2.2.5>
5b7d:	48 89 1d b4 a6 20 00 	mov    QWORD PTR [rip+0x20a6b4],rbx        # 210238 <program_name>
5b84:	48 89 1d 3d a5 20 00 	mov    QWORD PTR [rip+0x20a53d],rbx        # 2100c8 <__progname_full@@GLIBC_2.2.5>
5b8b:	5b                   	pop    rbx
5b8c:	c3                   	ret
5b8d:	48 8b 0d 4c a5 20 00 	mov    rcx,QWORD PTR [rip+0x20a54c]        # 2100e0 <stderr@@GLIBC_2.2.5>
5b94:	48 8d 3d a5 6c 00 00 	lea    rdi,[rip+0x6ca5]        # c840 <bytes_to_oct_digits+0x100>
5b9b:	ba 37 00 00 00       	mov    edx,0x37
5ba0:	be 01 00 00 00       	mov    esi,0x1
5ba5:	e8 56 bf ff ff       	call   1b00 <fwrite@plt>
5baa:	e8 31 bc ff ff       	call   17e0 <abort@plt>
5baf:	90                   	nop

0000000000005bb0 <gettext_quote.part.1>:
5bb0:	55                   	push   rbp
5bb1:	53                   	push   rbx
5bb2:	48 89 fd             	mov    rbp,rdi
5bb5:	89 f3                	mov    ebx,esi
5bb7:	48 83 ec 08          	sub    rsp,0x8
5bbb:	e8 f0 2f 00 00       	call   8bb0 <locale_charset>
5bc0:	0f b6 10             	movzx  edx,BYTE PTR [rax]
5bc3:	83 e2 df             	and    edx,0xffffffdf
5bc6:	80 fa 55             	cmp    dl,0x55
5bc9:	74 75                	je     5c40 <gettext_quote.part.1+0x90>
5bcb:	80 fa 47             	cmp    dl,0x47
5bce:	74 20                	je     5bf0 <gettext_quote.part.1+0x40>
5bd0:	48 8d 05 bc 6c 00 00 	lea    rax,[rip+0x6cbc]        # c893 <bytes_to_oct_digits+0x153>
5bd7:	48 8d 15 3b 75 00 00 	lea    rdx,[rip+0x753b]        # d119 <version_etc_copyright+0x79>
5bde:	83 fb 09             	cmp    ebx,0x9
5be1:	48 0f 45 c2          	cmovne rax,rdx
5be5:	48 83 c4 08          	add    rsp,0x8
5be9:	5b                   	pop    rbx
5bea:	5d                   	pop    rbp
5beb:	c3                   	ret
5bec:	0f 1f 40 00          	nop    DWORD PTR [rax+0x0]
5bf0:	0f b6 50 01          	movzx  edx,BYTE PTR [rax+0x1]
5bf4:	83 e2 df             	and    edx,0xffffffdf
5bf7:	80 fa 42             	cmp    dl,0x42
5bfa:	75 d4                	jne    5bd0 <gettext_quote.part.1+0x20>
5bfc:	80 78 02 31          	cmp    BYTE PTR [rax+0x2],0x31
5c00:	75 ce                	jne    5bd0 <gettext_quote.part.1+0x20>
5c02:	80 78 03 38          	cmp    BYTE PTR [rax+0x3],0x38
5c06:	75 c8                	jne    5bd0 <gettext_quote.part.1+0x20>
5c08:	80 78 04 30          	cmp    BYTE PTR [rax+0x4],0x30
5c0c:	75 c2                	jne    5bd0 <gettext_quote.part.1+0x20>
5c0e:	80 78 05 33          	cmp    BYTE PTR [rax+0x5],0x33
5c12:	75 bc                	jne    5bd0 <gettext_quote.part.1+0x20>
5c14:	80 78 06 30          	cmp    BYTE PTR [rax+0x6],0x30
5c18:	75 b6                	jne    5bd0 <gettext_quote.part.1+0x20>
5c1a:	80 78 07 00          	cmp    BYTE PTR [rax+0x7],0x0
5c1e:	75 b0                	jne    5bd0 <gettext_quote.part.1+0x20>
5c20:	80 7d 00 60          	cmp    BYTE PTR [rbp+0x0],0x60
5c24:	48 8d 05 61 6c 00 00 	lea    rax,[rip+0x6c61]        # c88c <bytes_to_oct_digits+0x14c>
5c2b:	48 8d 15 5e 6c 00 00 	lea    rdx,[rip+0x6c5e]        # c890 <bytes_to_oct_digits+0x150>
5c32:	48 0f 45 c2          	cmovne rax,rdx
5c36:	48 83 c4 08          	add    rsp,0x8
5c3a:	5b                   	pop    rbx
5c3b:	5d                   	pop    rbp
5c3c:	c3                   	ret
5c3d:	0f 1f 00             	nop    DWORD PTR [rax]
5c40:	0f b6 50 01          	movzx  edx,BYTE PTR [rax+0x1]
5c44:	83 e2 df             	and    edx,0xffffffdf
5c47:	80 fa 54             	cmp    dl,0x54
5c4a:	75 84                	jne    5bd0 <gettext_quote.part.1+0x20>
5c4c:	0f b6 50 02          	movzx  edx,BYTE PTR [rax+0x2]
5c50:	83 e2 df             	and    edx,0xffffffdf
5c53:	80 fa 46             	cmp    dl,0x46
5c56:	0f 85 74 ff ff ff    	jne    5bd0 <gettext_quote.part.1+0x20>
5c5c:	80 78 03 2d          	cmp    BYTE PTR [rax+0x3],0x2d
5c60:	0f 85 6a ff ff ff    	jne    5bd0 <gettext_quote.part.1+0x20>
5c66:	80 78 04 38          	cmp    BYTE PTR [rax+0x4],0x38
5c6a:	0f 85 60 ff ff ff    	jne    5bd0 <gettext_quote.part.1+0x20>
5c70:	80 78 05 00          	cmp    BYTE PTR [rax+0x5],0x0
5c74:	0f 85 56 ff ff ff    	jne    5bd0 <gettext_quote.part.1+0x20>
5c7a:	80 7d 00 60          	cmp    BYTE PTR [rbp+0x0],0x60
5c7e:	48 8d 05 ff 6b 00 00 	lea    rax,[rip+0x6bff]        # c884 <bytes_to_oct_digits+0x144>
5c85:	48 8d 15 fc 6b 00 00 	lea    rdx,[rip+0x6bfc]        # c888 <bytes_to_oct_digits+0x148>
5c8c:	48 0f 45 c2          	cmovne rax,rdx
5c90:	48 83 c4 08          	add    rsp,0x8
5c94:	5b                   	pop    rbx
5c95:	5d                   	pop    rbp
5c96:	c3                   	ret
5c97:	66 0f 1f 84 00 00 00 	nop    WORD PTR [rax+rax*1+0x0]
5c9e:	00 00

0000000000005ca0 <quotearg_buffer_restyled>:
5ca0:	41 57                	push   r15
5ca2:	41 56                	push   r14
5ca4:	45 89 c7             	mov    r15d,r8d
5ca7:	41 55                	push   r13
5ca9:	41 54                	push   r12
5cab:	49 89 fe             	mov    r14,rdi
5cae:	55                   	push   rbp
5caf:	53                   	push   rbx
5cb0:	44 89 cb             	mov    ebx,r9d
5cb3:	49 89 f5             	mov    r13,rsi
5cb6:	48 89 cd             	mov    rbp,rcx
5cb9:	83 e3 02             	and    ebx,0x2
5cbc:	48 81 ec b8 00 00 00 	sub    rsp,0xb8
5cc3:	48 8b 84 24 f0 00 00 	mov    rax,QWORD PTR [rsp+0xf0]
5cca:	00
5ccb:	48 89 54 24 10       	mov    QWORD PTR [rsp+0x10],rdx
5cd0:	44 89 44 24 08       	mov    DWORD PTR [rsp+0x8],r8d
5cd5:	44 89 4c 24 78       	mov    DWORD PTR [rsp+0x78],r9d
5cda:	48 89 44 24 20       	mov    QWORD PTR [rsp+0x20],rax
5cdf:	48 8b 84 24 f8 00 00 	mov    rax,QWORD PTR [rsp+0xf8]
5ce6:	00
5ce7:	48 89 44 24 68       	mov    QWORD PTR [rsp+0x68],rax
5cec:	48 8b 84 24 00 01 00 	mov    rax,QWORD PTR [rsp+0x100]
5cf3:	00
5cf4:	48 89 44 24 60       	mov    QWORD PTR [rsp+0x60],rax
5cf9:	64 48 8b 04 25 28 00 	mov    rax,QWORD PTR fs:0x28
5d00:	00 00
5d02:	48 89 84 24 a8 00 00 	mov    QWORD PTR [rsp+0xa8],rax
5d09:	00
5d0a:	31 c0                	xor    eax,eax
5d0c:	e8 af bb ff ff       	call   18c0 <__ctype_get_mb_cur_max@plt>
5d11:	41 83 ff 0a          	cmp    r15d,0xa
5d15:	48 89 44 24 58       	mov    QWORD PTR [rsp+0x58],rax
5d1a:	0f 87 af 11 00 00    	ja     6ecf <quotearg_buffer_restyled+0x122f>
5d20:	48 8d 0d d9 6b 00 00 	lea    rcx,[rip+0x6bd9]        # c900 <bytes_to_oct_digits+0x1c0>
5d27:	44 89 fa             	mov    edx,r15d
5d2a:	48 63 04 91          	movsxd rax,DWORD PTR [rcx+rdx*4]
5d2e:	48 01 c8             	add    rax,rcx
5d31:	ff e0                	jmp    rax
5d33:	c6 44 24 0e 01       	mov    BYTE PTR [rsp+0xe],0x1
5d38:	c6 44 24 7c 00       	mov    BYTE PTR [rsp+0x7c],0x0
5d3d:	45 31 e4             	xor    r12d,r12d
5d40:	48 c7 44 24 50 00 00 	mov    QWORD PTR [rsp+0x50],0x0
5d47:	00 00
5d49:	c6 44 24 0f 01       	mov    BYTE PTR [rsp+0xf],0x1
5d4e:	c6 44 24 0d 00       	mov    BYTE PTR [rsp+0xd],0x0
5d53:	48 8d 05 bf 73 00 00 	lea    rax,[rip+0x73bf]        # d119 <version_etc_copyright+0x79>
5d5a:	48 c7 44 24 18 01 00 	mov    QWORD PTR [rsp+0x18],0x1
5d61:	00 00
5d63:	45 31 ff             	xor    r15d,r15d
5d66:	c7 44 24 08 02 00 00 	mov    DWORD PTR [rsp+0x8],0x2
5d6d:	00
5d6e:	48 89 44 24 48       	mov    QWORD PTR [rsp+0x48],rax
5d73:	45 31 db             	xor    r11d,r11d
5d76:	48 89 e8             	mov    rax,rbp
5d79:	45 89 e0             	mov    r8d,r12d
5d7c:	4c 89 dd             	mov    rbp,r11
5d7f:	49 89 c3             	mov    r11,rax
5d82:	66 0f 1f 44 00 00    	nop    WORD PTR [rax+rax*1+0x0]
5d88:	49 39 eb             	cmp    r11,rbp
5d8b:	41 0f 95 c4          	setne  r12b
5d8f:	49 83 fb ff          	cmp    r11,0xffffffffffffffff
5d93:	75 0d                	jne    5da2 <quotearg_buffer_restyled+0x102>
5d95:	48 8b 44 24 10       	mov    rax,QWORD PTR [rsp+0x10]
5d9a:	80 3c 28 00          	cmp    BYTE PTR [rax+rbp*1],0x0
5d9e:	41 0f 95 c4          	setne  r12b
5da2:	45 84 e4             	test   r12b,r12b
5da5:	0f 84 55 06 00 00    	je     6400 <quotearg_buffer_restyled+0x760>
5dab:	83 7c 24 08 02       	cmp    DWORD PTR [rsp+0x8],0x2
5db0:	48 8b 7c 24 10       	mov    rdi,QWORD PTR [rsp+0x10]
5db5:	4c 8d 0c 2f          	lea    r9,[rdi+rbp*1]
5db9:	0f 95 c0             	setne  al
5dbc:	22 44 24 0d          	and    al,BYTE PTR [rsp+0xd]
5dc0:	41 89 c2             	mov    r10d,eax
5dc3:	0f 84 a7 00 00 00    	je     5e70 <quotearg_buffer_restyled+0x1d0>
5dc9:	48 8b 44 24 18       	mov    rax,QWORD PTR [rsp+0x18]
5dce:	48 85 c0             	test   rax,rax
5dd1:	0f 84 29 04 00 00    	je     6200 <quotearg_buffer_restyled+0x560>
5dd7:	49 83 fb ff          	cmp    r11,0xffffffffffffffff
5ddb:	48 8d 5c 05 00       	lea    rbx,[rbp+rax*1+0x0]
5de0:	75 2e                	jne    5e10 <quotearg_buffer_restyled+0x170>
5de2:	48 83 f8 01          	cmp    rax,0x1
5de6:	76 28                	jbe    5e10 <quotearg_buffer_restyled+0x170>
5de8:	44 88 44 24 38       	mov    BYTE PTR [rsp+0x38],r8b
5ded:	44 88 54 24 30       	mov    BYTE PTR [rsp+0x30],r10b
5df2:	4c 89 4c 24 28       	mov    QWORD PTR [rsp+0x28],r9
5df7:	e8 d4 ba ff ff       	call   18d0 <strlen@plt>
5dfc:	44 0f b6 44 24 38    	movzx  r8d,BYTE PTR [rsp+0x38]
5e02:	44 0f b6 54 24 30    	movzx  r10d,BYTE PTR [rsp+0x30]
5e08:	49 89 c3             	mov    r11,rax
5e0b:	4c 8b 4c 24 28       	mov    r9,QWORD PTR [rsp+0x28]
5e10:	4c 39 db             	cmp    rbx,r11
5e13:	44 88 54 24 28       	mov    BYTE PTR [rsp+0x28],r10b
5e18:	0f 87 b2 05 00 00    	ja     63d0 <quotearg_buffer_restyled+0x730>
5e1e:	48 8b 54 24 18       	mov    rdx,QWORD PTR [rsp+0x18]
5e23:	48 8b 74 24 48       	mov    rsi,QWORD PTR [rsp+0x48]
5e28:	4c 89 cf             	mov    rdi,r9
5e2b:	4c 89 5c 24 40       	mov    QWORD PTR [rsp+0x40],r11
5e30:	44 88 44 24 38       	mov    BYTE PTR [rsp+0x38],r8b
5e35:	4c 89 4c 24 30       	mov    QWORD PTR [rsp+0x30],r9
5e3a:	e8 61 bb ff ff       	call   19a0 <memcmp@plt>
5e3f:	85 c0                	test   eax,eax
5e41:	4c 8b 4c 24 30       	mov    r9,QWORD PTR [rsp+0x30]
5e46:	44 0f b6 44 24 38    	movzx  r8d,BYTE PTR [rsp+0x38]
5e4c:	4c 8b 5c 24 40       	mov    r11,QWORD PTR [rsp+0x40]
5e51:	0f 85 79 05 00 00    	jne    63d0 <quotearg_buffer_restyled+0x730>
5e57:	80 7c 24 0f 00       	cmp    BYTE PTR [rsp+0xf],0x0
5e5c:	44 0f b6 54 24 28    	movzx  r10d,BYTE PTR [rsp+0x28]
5e62:	0f 85 7d 0f 00 00    	jne    6de5 <quotearg_buffer_restyled+0x1145>
5e68:	0f 1f 84 00 00 00 00 	nop    DWORD PTR [rax+rax*1+0x0]
5e6f:	00
5e70:	41 0f b6 19          	movzx  ebx,BYTE PTR [r9]
5e74:	80 fb 7e             	cmp    bl,0x7e
5e77:	0f 87 1b 03 00 00    	ja     6198 <quotearg_buffer_restyled+0x4f8>
5e7d:	48 8d 0d a8 6a 00 00 	lea    rcx,[rip+0x6aa8]        # c92c <bytes_to_oct_digits+0x1ec>
5e84:	0f b6 d3             	movzx  edx,bl
5e87:	48 63 04 91          	movsxd rax,DWORD PTR [rcx+rdx*4]
5e8b:	48 01 c8             	add    rax,rcx
5e8e:	ff e0                	jmp    rax
5e90:	45 31 d2             	xor    r10d,r10d
5e93:	49 83 fb 01          	cmp    r11,0x1
5e97:	0f 95 c0             	setne  al
5e9a:	49 83 fb ff          	cmp    r11,0xffffffffffffffff
5e9e:	75 0c                	jne    5eac <quotearg_buffer_restyled+0x20c>
5ea0:	48 8b 44 24 10       	mov    rax,QWORD PTR [rsp+0x10]
5ea5:	80 78 01 00          	cmp    BYTE PTR [rax+0x1],0x0
5ea9:	0f 95 c0             	setne  al
5eac:	83 7c 24 08 02       	cmp    DWORD PTR [rsp+0x8],0x2
5eb1:	0f 94 c2             	sete   dl
5eb4:	84 c0                	test   al,al
5eb6:	0f 84 4c 02 00 00    	je     6108 <quotearg_buffer_restyled+0x468>
5ebc:	45 31 e4             	xor    r12d,r12d
5ebf:	31 c0                	xor    eax,eax
5ec1:	0f 1f 80 00 00 00 00 	nop    DWORD PTR [rax+0x0]
5ec8:	80 7c 24 0d 01       	cmp    BYTE PTR [rsp+0xd],0x1
5ecd:	0f 85 0f 01 00 00    	jne    5fe2 <quotearg_buffer_restyled+0x342>
5ed3:	84 d2                	test   dl,dl
5ed5:	0f 85 07 01 00 00    	jne    5fe2 <quotearg_buffer_restyled+0x342>
5edb:	48 8b 74 24 20       	mov    rsi,QWORD PTR [rsp+0x20]
5ee0:	48 85 f6             	test   rsi,rsi
5ee3:	74 14                	je     5ef9 <quotearg_buffer_restyled+0x259>
5ee5:	89 da                	mov    edx,ebx
5ee7:	c0 ea 05             	shr    dl,0x5
5eea:	0f b6 d2             	movzx  edx,dl
5eed:	8b 14 96             	mov    edx,DWORD PTR [rsi+rdx*4]
5ef0:	0f a3 da             	bt     edx,ebx
5ef3:	0f 82 4a 01 00 00    	jb     6043 <quotearg_buffer_restyled+0x3a3>
5ef9:	45 84 d2             	test   r10b,r10b
5efc:	0f 85 41 01 00 00    	jne    6043 <quotearg_buffer_restyled+0x3a3>
5f02:	83 f0 01             	xor    eax,0x1
5f05:	48 83 c5 01          	add    rbp,0x1
5f09:	44 21 c0             	and    eax,r8d
5f0c:	84 c0                	test   al,al
5f0e:	74 20                	je     5f30 <quotearg_buffer_restyled+0x290>
5f10:	4d 39 fd             	cmp    r13,r15
5f13:	76 05                	jbe    5f1a <quotearg_buffer_restyled+0x27a>
5f15:	43 c6 04 3e 27       	mov    BYTE PTR [r14+r15*1],0x27
5f1a:	49 8d 47 01          	lea    rax,[r15+0x1]
5f1e:	49 39 c5             	cmp    r13,rax
5f21:	76 06                	jbe    5f29 <quotearg_buffer_restyled+0x289>
5f23:	43 c6 44 3e 01 27    	mov    BYTE PTR [r14+r15*1+0x1],0x27
5f29:	49 83 c7 02          	add    r15,0x2
5f2d:	45 31 c0             	xor    r8d,r8d
5f30:	4d 39 ef             	cmp    r15,r13
5f33:	73 04                	jae    5f39 <quotearg_buffer_restyled+0x299>
5f35:	43 88 1c 3e          	mov    BYTE PTR [r14+r15*1],bl
5f39:	0f b6 7c 24 0e       	movzx  edi,BYTE PTR [rsp+0xe]
5f3e:	49 83 c7 01          	add    r15,0x1
5f42:	b8 00 00 00 00       	mov    eax,0x0
5f47:	45 84 e4             	test   r12b,r12b
5f4a:	0f 44 f8             	cmove  edi,eax
5f4d:	40 88 7c 24 0e       	mov    BYTE PTR [rsp+0xe],dil
5f52:	e9 31 fe ff ff       	jmp    5d88 <quotearg_buffer_restyled+0xe8>
5f57:	66 0f 1f 84 00 00 00 	nop    WORD PTR [rax+rax*1+0x0]
5f5e:	00 00
5f60:	45 31 d2             	xor    r10d,r10d
5f63:	8b 44 24 08          	mov    eax,DWORD PTR [rsp+0x8]
5f67:	83 f8 02             	cmp    eax,0x2
5f6a:	0f 84 b8 05 00 00    	je     6528 <quotearg_buffer_restyled+0x888>
5f70:	83 f8 05             	cmp    eax,0x5
5f73:	0f 84 6f 05 00 00    	je     64e8 <quotearg_buffer_restyled+0x848>
5f79:	83 f8 02             	cmp    eax,0x2
5f7c:	bb 3f 00 00 00       	mov    ebx,0x3f
5f81:	0f 94 c2             	sete   dl
5f84:	45 31 e4             	xor    r12d,r12d
5f87:	31 c0                	xor    eax,eax
5f89:	e9 3a ff ff ff       	jmp    5ec8 <quotearg_buffer_restyled+0x228>
5f8e:	66 90                	xchg   ax,ax
5f90:	45 31 d2             	xor    r10d,r10d
5f93:	83 7c 24 08 02       	cmp    DWORD PTR [rsp+0x8],0x2
5f98:	0f 84 02 05 00 00    	je     64a0 <quotearg_buffer_restyled+0x800>
5f9e:	44 88 64 24 7c       	mov    BYTE PTR [rsp+0x7c],r12b
5fa3:	31 d2                	xor    edx,edx
5fa5:	31 c0                	xor    eax,eax
5fa7:	bb 27 00 00 00       	mov    ebx,0x27
5fac:	e9 17 ff ff ff       	jmp    5ec8 <quotearg_buffer_restyled+0x228>
5fb1:	0f 1f 80 00 00 00 00 	nop    DWORD PTR [rax+0x0]
5fb8:	ba 09 00 00 00       	mov    edx,0x9
5fbd:	bb 74 00 00 00       	mov    ebx,0x74
5fc2:	83 7c 24 08 02       	cmp    DWORD PTR [rsp+0x8],0x2
5fc7:	0f 94 c0             	sete   al
5fca:	22 44 24 0f          	and    al,BYTE PTR [rsp+0xf]
5fce:	0f 85 4a 01 00 00    	jne    611e <quotearg_buffer_restyled+0x47e>
5fd4:	80 7c 24 0d 00       	cmp    BYTE PTR [rsp+0xd],0x0
5fd9:	75 65                	jne    6040 <quotearg_buffer_restyled+0x3a0>
5fdb:	89 d3                	mov    ebx,edx
5fdd:	45 31 e4             	xor    r12d,r12d
5fe0:	31 c0                	xor    eax,eax
5fe2:	80 7c 24 0f 00       	cmp    BYTE PTR [rsp+0xf],0x0
5fe7:	0f 85 ee fe ff ff    	jne    5edb <quotearg_buffer_restyled+0x23b>
5fed:	e9 07 ff ff ff       	jmp    5ef9 <quotearg_buffer_restyled+0x259>
5ff2:	66 0f 1f 44 00 00    	nop    WORD PTR [rax+rax*1+0x0]
5ff8:	ba 08 00 00 00       	mov    edx,0x8
5ffd:	bb 62 00 00 00       	mov    ebx,0x62
6002:	eb d0                	jmp    5fd4 <quotearg_buffer_restyled+0x334>
6004:	0f 1f 40 00          	nop    DWORD PTR [rax+0x0]
6008:	83 7c 24 08 02       	cmp    DWORD PTR [rsp+0x8],0x2
600d:	0f 84 cd 03 00 00    	je     63e0 <quotearg_buffer_restyled+0x740>
6013:	80 7c 24 0d 00       	cmp    BYTE PTR [rsp+0xd],0x0
6018:	0f 84 12 02 00 00    	je     6230 <quotearg_buffer_restyled+0x590>
601e:	80 7c 24 0f 00       	cmp    BYTE PTR [rsp+0xf],0x0
6023:	0f 84 07 02 00 00    	je     6230 <quotearg_buffer_restyled+0x590>
6029:	48 83 7c 24 18 00    	cmp    QWORD PTR [rsp+0x18],0x0
602f:	0f 85 b6 03 00 00    	jne    63eb <quotearg_buffer_restyled+0x74b>
6035:	bb 5c 00 00 00       	mov    ebx,0x5c
603a:	66 0f 1f 44 00 00    	nop    WORD PTR [rax+rax*1+0x0]
6040:	45 31 e4             	xor    r12d,r12d
6043:	83 7c 24 08 02       	cmp    DWORD PTR [rsp+0x8],0x2
6048:	0f 94 c2             	sete   dl
604b:	80 7c 24 0f 00       	cmp    BYTE PTR [rsp+0xf],0x0
6050:	89 d0                	mov    eax,edx
6052:	0f 85 50 08 00 00    	jne    68a8 <quotearg_buffer_restyled+0xc08>
6058:	44 89 c0             	mov    eax,r8d
605b:	83 f0 01             	xor    eax,0x1
605e:	20 d0                	and    al,dl
6060:	74 2f                	je     6091 <quotearg_buffer_restyled+0x3f1>
6062:	4d 39 fd             	cmp    r13,r15
6065:	76 05                	jbe    606c <quotearg_buffer_restyled+0x3cc>
6067:	43 c6 04 3e 27       	mov    BYTE PTR [r14+r15*1],0x27
606c:	49 8d 57 01          	lea    rdx,[r15+0x1]
6070:	49 39 d5             	cmp    r13,rdx
6073:	76 06                	jbe    607b <quotearg_buffer_restyled+0x3db>
6075:	43 c6 44 3e 01 24    	mov    BYTE PTR [r14+r15*1+0x1],0x24
607b:	49 8d 57 02          	lea    rdx,[r15+0x2]
607f:	49 39 d5             	cmp    r13,rdx
6082:	76 06                	jbe    608a <quotearg_buffer_restyled+0x3ea>
6084:	43 c6 44 3e 02 27    	mov    BYTE PTR [r14+r15*1+0x2],0x27
608a:	49 83 c7 03          	add    r15,0x3
608e:	41 89 c0             	mov    r8d,eax
6091:	4d 39 fd             	cmp    r13,r15
6094:	76 05                	jbe    609b <quotearg_buffer_restyled+0x3fb>
6096:	43 c6 04 3e 5c       	mov    BYTE PTR [r14+r15*1],0x5c
609b:	49 83 c7 01          	add    r15,0x1
609f:	48 83 c5 01          	add    rbp,0x1
60a3:	e9 88 fe ff ff       	jmp    5f30 <quotearg_buffer_restyled+0x290>
60a8:	0f 1f 84 00 00 00 00 	nop    DWORD PTR [rax+rax*1+0x0]
60af:	00
60b0:	80 7c 24 0d 00       	cmp    BYTE PTR [rsp+0xd],0x0
60b5:	0f 85 c8 01 00 00    	jne    6283 <quotearg_buffer_restyled+0x5e3>
60bb:	31 d2                	xor    edx,edx
60bd:	f6 44 24 78 01       	test   BYTE PTR [rsp+0x78],0x1
60c2:	0f 84 13 ff ff ff    	je     5fdb <quotearg_buffer_restyled+0x33b>
60c8:	48 83 c5 01          	add    rbp,0x1
60cc:	e9 b7 fc ff ff       	jmp    5d88 <quotearg_buffer_restyled+0xe8>
60d1:	0f 1f 80 00 00 00 00 	nop    DWORD PTR [rax+0x0]
60d8:	83 7c 24 08 02       	cmp    DWORD PTR [rsp+0x8],0x2
60dd:	0f 94 c2             	sete   dl
60e0:	31 c0                	xor    eax,eax
60e2:	e9 e1 fd ff ff       	jmp    5ec8 <quotearg_buffer_restyled+0x228>
60e7:	66 0f 1f 84 00 00 00 	nop    WORD PTR [rax+rax*1+0x0]
60ee:	00 00
60f0:	ba 07 00 00 00       	mov    edx,0x7
60f5:	bb 61 00 00 00       	mov    ebx,0x61
60fa:	e9 d5 fe ff ff       	jmp    5fd4 <quotearg_buffer_restyled+0x334>
60ff:	90                   	nop
6100:	83 7c 24 08 02       	cmp    DWORD PTR [rsp+0x8],0x2
6105:	0f 94 c2             	sete   dl
6108:	48 85 ed             	test   rbp,rbp
610b:	0f 85 ab fd ff ff    	jne    5ebc <quotearg_buffer_restyled+0x21c>
6111:	0f b6 44 24 0f       	movzx  eax,BYTE PTR [rsp+0xf]
6116:	20 d0                	and    al,dl
6118:	0f 84 aa fd ff ff    	je     5ec8 <quotearg_buffer_restyled+0x228>
611e:	4c 89 dd             	mov    rbp,r11
6121:	c7 44 24 08 02 00 00 	mov    DWORD PTR [rsp+0x8],0x2
6128:	00
6129:	e9 fb 06 00 00       	jmp    6829 <quotearg_buffer_restyled+0xb89>
612e:	66 90                	xchg   ax,ax
6130:	83 7c 24 08 02       	cmp    DWORD PTR [rsp+0x8],0x2
6135:	0f 94 c2             	sete   dl
6138:	45 31 e4             	xor    r12d,r12d
613b:	eb d4                	jmp    6111 <quotearg_buffer_restyled+0x471>
613d:	0f 1f 00             	nop    DWORD PTR [rax]
6140:	83 7c 24 08 02       	cmp    DWORD PTR [rsp+0x8],0x2
6145:	bb 20 00 00 00       	mov    ebx,0x20
614a:	0f 94 c2             	sete   dl
614d:	eb c2                	jmp    6111 <quotearg_buffer_restyled+0x471>
614f:	90                   	nop
6150:	ba 0d 00 00 00       	mov    edx,0xd
6155:	bb 72 00 00 00       	mov    ebx,0x72
615a:	e9 63 fe ff ff       	jmp    5fc2 <quotearg_buffer_restyled+0x322>
615f:	90                   	nop
6160:	ba 0c 00 00 00       	mov    edx,0xc
6165:	bb 66 00 00 00       	mov    ebx,0x66
616a:	e9 65 fe ff ff       	jmp    5fd4 <quotearg_buffer_restyled+0x334>
616f:	90                   	nop
6170:	ba 0b 00 00 00       	mov    edx,0xb
6175:	bb 76 00 00 00       	mov    ebx,0x76
617a:	e9 55 fe ff ff       	jmp    5fd4 <quotearg_buffer_restyled+0x334>
617f:	90                   	nop
6180:	ba 0a 00 00 00       	mov    edx,0xa
6185:	bb 6e 00 00 00       	mov    ebx,0x6e
618a:	e9 33 fe ff ff       	jmp    5fc2 <quotearg_buffer_restyled+0x322>
618f:	90                   	nop
6190:	45 31 d2             	xor    r10d,r10d
6193:	0f 1f 44 00 00       	nop    DWORD PTR [rax+rax*1+0x0]
6198:	48 83 7c 24 58 01    	cmp    QWORD PTR [rsp+0x58],0x1
619e:	0f 85 a4 03 00 00    	jne    6548 <quotearg_buffer_restyled+0x8a8>
61a4:	4c 89 5c 24 38       	mov    QWORD PTR [rsp+0x38],r11
61a9:	44 88 44 24 30       	mov    BYTE PTR [rsp+0x30],r8b
61ae:	44 88 54 24 28       	mov    BYTE PTR [rsp+0x28],r10b
61b3:	e8 88 b9 ff ff       	call   1b40 <__ctype_b_loc@plt>
61b8:	48 8b 08             	mov    rcx,QWORD PTR [rax]
61bb:	0f b6 d3             	movzx  edx,bl
61be:	44 0f b6 54 24 28    	movzx  r10d,BYTE PTR [rsp+0x28]
61c4:	44 0f b6 44 24 30    	movzx  r8d,BYTE PTR [rsp+0x30]
61ca:	4c 8b 5c 24 38       	mov    r11,QWORD PTR [rsp+0x38]
61cf:	bf 01 00 00 00       	mov    edi,0x1
61d4:	0f b7 04 51          	movzx  eax,WORD PTR [rcx+rdx*2]
61d8:	66 25 00 40          	and    ax,0x4000
61dc:	41 0f 95 c4          	setne  r12b
61e0:	0f 94 c0             	sete   al
61e3:	22 44 24 0d          	and    al,BYTE PTR [rsp+0xd]
61e7:	84 c0                	test   al,al
61e9:	0f 85 92 09 00 00    	jne    6b81 <quotearg_buffer_restyled+0xee1>
61ef:	83 7c 24 08 02       	cmp    DWORD PTR [rsp+0x8],0x2
61f4:	0f 94 c2             	sete   dl
61f7:	e9 cc fc ff ff       	jmp    5ec8 <quotearg_buffer_restyled+0x228>
61fc:	0f 1f 40 00          	nop    DWORD PTR [rax+0x0]
6200:	41 0f b6 19          	movzx  ebx,BYTE PTR [r9]
6204:	80 fb 7e             	cmp    bl,0x7e
6207:	77 87                	ja     6190 <quotearg_buffer_restyled+0x4f0>
6209:	48 8d 0d 18 69 00 00 	lea    rcx,[rip+0x6918]        # cb28 <bytes_to_oct_digits+0x3e8>
6210:	0f b6 d3             	movzx  edx,bl
6213:	48 63 04 91          	movsxd rax,DWORD PTR [rcx+rdx*4]
6217:	48 01 c8             	add    rax,rcx
621a:	ff e0                	jmp    rax
621c:	0f 1f 40 00          	nop    DWORD PTR [rax+0x0]
6220:	45 31 d2             	xor    r10d,r10d
6223:	80 7c 24 0d 00       	cmp    BYTE PTR [rsp+0xd],0x0
6228:	0f 85 f0 fd ff ff    	jne    601e <quotearg_buffer_restyled+0x37e>
622e:	66 90                	xchg   ax,ax
6230:	ba 5c 00 00 00       	mov    edx,0x5c
6235:	bb 5c 00 00 00       	mov    ebx,0x5c
623a:	e9 95 fd ff ff       	jmp    5fd4 <quotearg_buffer_restyled+0x334>
623f:	90                   	nop
6240:	ba 0c 00 00 00       	mov    edx,0xc
6245:	45 31 d2             	xor    r10d,r10d
6248:	bb 66 00 00 00       	mov    ebx,0x66
624d:	e9 82 fd ff ff       	jmp    5fd4 <quotearg_buffer_restyled+0x334>
6252:	66 0f 1f 44 00 00    	nop    WORD PTR [rax+rax*1+0x0]
6258:	ba 0a 00 00 00       	mov    edx,0xa
625d:	45 31 d2             	xor    r10d,r10d
6260:	bb 6e 00 00 00       	mov    ebx,0x6e
6265:	e9 58 fd ff ff       	jmp    5fc2 <quotearg_buffer_restyled+0x322>
626a:	66 0f 1f 44 00 00    	nop    WORD PTR [rax+rax*1+0x0]
6270:	bb 61 00 00 00       	mov    ebx,0x61
6275:	e9 c6 fd ff ff       	jmp    6040 <quotearg_buffer_restyled+0x3a0>
627a:	66 0f 1f 44 00 00    	nop    WORD PTR [rax+rax*1+0x0]
6280:	45 31 d2             	xor    r10d,r10d
6283:	83 7c 24 08 02       	cmp    DWORD PTR [rsp+0x8],0x2
6288:	0f 94 c2             	sete   dl
628b:	80 7c 24 0f 00       	cmp    BYTE PTR [rsp+0xf],0x0
6290:	0f 85 94 0b 00 00    	jne    6e2a <quotearg_buffer_restyled+0x118a>
6296:	44 89 c0             	mov    eax,r8d
6299:	4c 89 f9             	mov    rcx,r15
629c:	83 f0 01             	xor    eax,0x1
629f:	20 d0                	and    al,dl
62a1:	74 2d                	je     62d0 <quotearg_buffer_restyled+0x630>
62a3:	4d 39 fd             	cmp    r13,r15
62a6:	76 05                	jbe    62ad <quotearg_buffer_restyled+0x60d>
62a8:	43 c6 04 3e 27       	mov    BYTE PTR [r14+r15*1],0x27
62ad:	49 8d 4f 01          	lea    rcx,[r15+0x1]
62b1:	49 39 cd             	cmp    r13,rcx
62b4:	76 06                	jbe    62bc <quotearg_buffer_restyled+0x61c>
62b6:	43 c6 44 3e 01 24    	mov    BYTE PTR [r14+r15*1+0x1],0x24
62bc:	49 8d 4f 02          	lea    rcx,[r15+0x2]
62c0:	49 39 cd             	cmp    r13,rcx
62c3:	0f 87 30 06 00 00    	ja     68f9 <quotearg_buffer_restyled+0xc59>
62c9:	49 8d 4f 03          	lea    rcx,[r15+0x3]
62cd:	41 89 c0             	mov    r8d,eax
62d0:	49 39 cd             	cmp    r13,rcx
62d3:	76 05                	jbe    62da <quotearg_buffer_restyled+0x63a>
62d5:	41 c6 04 0e 5c       	mov    BYTE PTR [r14+rcx*1],0x5c
62da:	83 7c 24 08 02       	cmp    DWORD PTR [rsp+0x8],0x2
62df:	4c 8d 79 01          	lea    r15,[rcx+0x1]
62e3:	0f 84 00 06 00 00    	je     68e9 <quotearg_buffer_restyled+0xc49>
62e9:	48 8d 45 01          	lea    rax,[rbp+0x1]
62ed:	4c 39 d8             	cmp    rax,r11
62f0:	73 19                	jae    630b <quotearg_buffer_restyled+0x66b>
62f2:	48 8b 44 24 10       	mov    rax,QWORD PTR [rsp+0x10]
62f7:	0f b6 44 28 01       	movzx  eax,BYTE PTR [rax+rbp*1+0x1]
62fc:	88 44 24 28          	mov    BYTE PTR [rsp+0x28],al
6300:	83 e8 30             	sub    eax,0x30
6303:	3c 09                	cmp    al,0x9
6305:	0f 86 2e 08 00 00    	jbe    6b39 <quotearg_buffer_restyled+0xe99>
630b:	44 89 e0             	mov    eax,r12d
630e:	bb 30 00 00 00       	mov    ebx,0x30
6313:	45 31 e4             	xor    r12d,r12d
6316:	e9 ad fb ff ff       	jmp    5ec8 <quotearg_buffer_restyled+0x228>
631b:	0f 1f 44 00 00       	nop    DWORD PTR [rax+rax*1+0x0]
6320:	83 7c 24 08 02       	cmp    DWORD PTR [rsp+0x8],0x2
6325:	45 89 d4             	mov    r12d,r10d
6328:	0f 94 c2             	sete   dl
632b:	45 31 d2             	xor    r10d,r10d
632e:	31 c0                	xor    eax,eax
6330:	e9 93 fb ff ff       	jmp    5ec8 <quotearg_buffer_restyled+0x228>
6335:	0f 1f 00             	nop    DWORD PTR [rax]
6338:	83 7c 24 08 02       	cmp    DWORD PTR [rsp+0x8],0x2
633d:	0f 94 c2             	sete   dl
6340:	45 31 d2             	xor    r10d,r10d
6343:	e9 c0 fd ff ff       	jmp    6108 <quotearg_buffer_restyled+0x468>
6348:	0f 1f 84 00 00 00 00 	nop    DWORD PTR [rax+rax*1+0x0]
634f:	00
6350:	83 7c 24 08 02       	cmp    DWORD PTR [rsp+0x8],0x2
6355:	0f 94 c2             	sete   dl
6358:	45 31 d2             	xor    r10d,r10d
635b:	45 31 e4             	xor    r12d,r12d
635e:	e9 ae fd ff ff       	jmp    6111 <quotearg_buffer_restyled+0x471>
6363:	0f 1f 44 00 00       	nop    DWORD PTR [rax+rax*1+0x0]
6368:	83 7c 24 08 02       	cmp    DWORD PTR [rsp+0x8],0x2
636d:	45 89 d4             	mov    r12d,r10d
6370:	bb 20 00 00 00       	mov    ebx,0x20
6375:	0f 94 c2             	sete   dl
6378:	45 31 d2             	xor    r10d,r10d
637b:	e9 91 fd ff ff       	jmp    6111 <quotearg_buffer_restyled+0x471>
6380:	ba 0d 00 00 00       	mov    edx,0xd
6385:	45 31 d2             	xor    r10d,r10d
6388:	bb 72 00 00 00       	mov    ebx,0x72
638d:	e9 30 fc ff ff       	jmp    5fc2 <quotearg_buffer_restyled+0x322>
6392:	66 0f 1f 44 00 00    	nop    WORD PTR [rax+rax*1+0x0]
6398:	bb 76 00 00 00       	mov    ebx,0x76
639d:	e9 9e fc ff ff       	jmp    6040 <quotearg_buffer_restyled+0x3a0>
63a2:	66 0f 1f 44 00 00    	nop    WORD PTR [rax+rax*1+0x0]
63a8:	ba 09 00 00 00       	mov    edx,0x9
63ad:	45 31 d2             	xor    r10d,r10d
63b0:	bb 74 00 00 00       	mov    ebx,0x74
63b5:	e9 08 fc ff ff       	jmp    5fc2 <quotearg_buffer_restyled+0x322>
63ba:	66 0f 1f 44 00 00    	nop    WORD PTR [rax+rax*1+0x0]
63c0:	bb 62 00 00 00       	mov    ebx,0x62
63c5:	e9 76 fc ff ff       	jmp    6040 <quotearg_buffer_restyled+0x3a0>
63ca:	66 0f 1f 44 00 00    	nop    WORD PTR [rax+rax*1+0x0]
63d0:	45 31 d2             	xor    r10d,r10d
63d3:	e9 98 fa ff ff       	jmp    5e70 <quotearg_buffer_restyled+0x1d0>
63d8:	0f 1f 84 00 00 00 00 	nop    DWORD PTR [rax+rax*1+0x0]
63df:	00
63e0:	80 7c 24 0f 00       	cmp    BYTE PTR [rsp+0xf],0x0
63e5:	0f 85 65 09 00 00    	jne    6d50 <quotearg_buffer_restyled+0x10b0>
63eb:	48 83 c5 01          	add    rbp,0x1
63ef:	44 89 c0             	mov    eax,r8d
63f2:	45 31 e4             	xor    r12d,r12d
63f5:	bb 5c 00 00 00       	mov    ebx,0x5c
63fa:	e9 0d fb ff ff       	jmp    5f0c <quotearg_buffer_restyled+0x26c>
63ff:	90                   	nop
6400:	83 7c 24 08 02       	cmp    DWORD PTR [rsp+0x8],0x2
6405:	0f b6 5c 24 0f       	movzx  ebx,BYTE PTR [rsp+0xf]
640a:	45 89 c4             	mov    r12d,r8d
640d:	4c 89 dd             	mov    rbp,r11
6410:	0f 94 c2             	sete   dl
6413:	89 d8                	mov    eax,ebx
6415:	4d 85 ff             	test   r15,r15
6418:	0f 94 c1             	sete   cl
641b:	21 d0                	and    eax,edx
641d:	20 c8                	and    al,cl
641f:	0f 85 61 0a 00 00    	jne    6e86 <quotearg_buffer_restyled+0x11e6>
6425:	89 d8                	mov    eax,ebx
6427:	83 f0 01             	xor    eax,0x1
642a:	20 c2                	and    dl,al
642c:	0f 84 6a 09 00 00    	je     6d9c <quotearg_buffer_restyled+0x10fc>
6432:	80 7c 24 7c 00       	cmp    BYTE PTR [rsp+0x7c],0x0
6437:	0f 84 5d 09 00 00    	je     6d9a <quotearg_buffer_restyled+0x10fa>
643d:	80 7c 24 0e 00       	cmp    BYTE PTR [rsp+0xe],0x0
6442:	0f 85 f5 09 00 00    	jne    6e3d <quotearg_buffer_restyled+0x119d>
6448:	4d 85 ed             	test   r13,r13
644b:	0f 94 c0             	sete   al
644e:	48 83 7c 24 50 00    	cmp    QWORD PTR [rsp+0x50],0x0
6454:	0f 95 c2             	setne  dl
6457:	20 d0                	and    al,dl
6459:	0f 84 1d 0a 00 00    	je     6e7c <quotearg_buffer_restyled+0x11dc>
645f:	4c 8b 6c 24 50       	mov    r13,QWORD PTR [rsp+0x50]
6464:	48 8d 1d ae 6c 00 00 	lea    rbx,[rip+0x6cae]        # d119 <version_etc_copyright+0x79>
646b:	41 c6 06 27          	mov    BYTE PTR [r14],0x27
646f:	c7 44 24 08 02 00 00 	mov    DWORD PTR [rsp+0x8],0x2
6476:	00
6477:	41 bf 01 00 00 00    	mov    r15d,0x1
647d:	48 c7 44 24 18 01 00 	mov    QWORD PTR [rsp+0x18],0x1
6484:	00 00
6486:	c6 44 24 0f 00       	mov    BYTE PTR [rsp+0xf],0x0
648b:	48 89 5c 24 48       	mov    QWORD PTR [rsp+0x48],rbx
6490:	88 44 24 7c          	mov    BYTE PTR [rsp+0x7c],al
6494:	e9 da f8 ff ff       	jmp    5d73 <quotearg_buffer_restyled+0xd3>
6499:	0f 1f 80 00 00 00 00 	nop    DWORD PTR [rax+0x0]
64a0:	80 7c 24 0f 00       	cmp    BYTE PTR [rsp+0xf],0x0
64a5:	0f 85 a5 08 00 00    	jne    6d50 <quotearg_buffer_restyled+0x10b0>
64ab:	4d 85 ed             	test   r13,r13
64ae:	0f 84 fc 03 00 00    	je     68b0 <quotearg_buffer_restyled+0xc10>
64b4:	31 d2                	xor    edx,edx
64b6:	48 83 7c 24 50 00    	cmp    QWORD PTR [rsp+0x50],0x0
64bc:	0f 85 ee 03 00 00    	jne    68b0 <quotearg_buffer_restyled+0xc10>
64c2:	4c 89 6c 24 50       	mov    QWORD PTR [rsp+0x50],r13
64c7:	49 83 c7 03          	add    r15,0x3
64cb:	31 c0                	xor    eax,eax
64cd:	44 88 64 24 7c       	mov    BYTE PTR [rsp+0x7c],r12b
64d2:	45 31 c0             	xor    r8d,r8d
64d5:	49 89 d5             	mov    r13,rdx
64d8:	bb 27 00 00 00       	mov    ebx,0x27
64dd:	e9 17 fa ff ff       	jmp    5ef9 <quotearg_buffer_restyled+0x259>
64e2:	66 0f 1f 44 00 00    	nop    WORD PTR [rax+rax*1+0x0]
64e8:	f6 44 24 78 04       	test   BYTE PTR [rsp+0x78],0x4
64ed:	74 21                	je     6510 <quotearg_buffer_restyled+0x870>
64ef:	48 8d 4d 02          	lea    rcx,[rbp+0x2]
64f3:	4c 39 d9             	cmp    rcx,r11
64f6:	73 18                	jae    6510 <quotearg_buffer_restyled+0x870>
64f8:	48 8b 44 24 10       	mov    rax,QWORD PTR [rsp+0x10]
64fd:	80 7c 28 01 3f       	cmp    BYTE PTR [rax+rbp*1+0x1],0x3f
6502:	0f 84 8a 07 00 00    	je     6c92 <quotearg_buffer_restyled+0xff2>
6508:	0f 1f 84 00 00 00 00 	nop    DWORD PTR [rax+rax*1+0x0]
650f:	00
6510:	31 d2                	xor    edx,edx
6512:	45 31 e4             	xor    r12d,r12d
6515:	31 c0                	xor    eax,eax
6517:	bb 3f 00 00 00       	mov    ebx,0x3f
651c:	e9 a7 f9 ff ff       	jmp    5ec8 <quotearg_buffer_restyled+0x228>
6521:	0f 1f 80 00 00 00 00 	nop    DWORD PTR [rax+0x0]
6528:	80 7c 24 0f 00       	cmp    BYTE PTR [rsp+0xf],0x0
652d:	0f 85 1d 08 00 00    	jne    6d50 <quotearg_buffer_restyled+0x10b0>
6533:	45 31 e4             	xor    r12d,r12d
6536:	31 c0                	xor    eax,eax
6538:	bb 3f 00 00 00       	mov    ebx,0x3f
653d:	e9 b7 f9 ff ff       	jmp    5ef9 <quotearg_buffer_restyled+0x259>
6542:	66 0f 1f 44 00 00    	nop    WORD PTR [rax+rax*1+0x0]
6548:	48 8d 84 24 a0 00 00 	lea    rax,[rsp+0xa0]
654f:	00
6550:	49 83 fb ff          	cmp    r11,0xffffffffffffffff
6554:	48 c7 84 24 a0 00 00 	mov    QWORD PTR [rsp+0xa0],0x0
655b:	00 00 00 00 00
6560:	48 89 44 24 28       	mov    QWORD PTR [rsp+0x28],rax
6565:	75 2d                	jne    6594 <quotearg_buffer_restyled+0x8f4>
6567:	48 8b 7c 24 10       	mov    rdi,QWORD PTR [rsp+0x10]
656c:	44 88 44 24 40       	mov    BYTE PTR [rsp+0x40],r8b
6571:	44 88 54 24 38       	mov    BYTE PTR [rsp+0x38],r10b
6576:	4c 89 4c 24 30       	mov    QWORD PTR [rsp+0x30],r9
657b:	e8 50 b3 ff ff       	call   18d0 <strlen@plt>
6580:	44 0f b6 44 24 40    	movzx  r8d,BYTE PTR [rsp+0x40]
6586:	44 0f b6 54 24 38    	movzx  r10d,BYTE PTR [rsp+0x38]
658c:	49 89 c3             	mov    r11,rax
658f:	4c 8b 4c 24 30       	mov    r9,QWORD PTR [rsp+0x30]
6594:	48 8d 84 24 9c 00 00 	lea    rax,[rsp+0x9c]
659b:	00
659c:	31 c9                	xor    ecx,ecx
659e:	88 5c 24 7e          	mov    BYTE PTR [rsp+0x7e],bl
65a2:	44 88 44 24 7d       	mov    BYTE PTR [rsp+0x7d],r8b
65a7:	48 89 cb             	mov    rbx,rcx
65aa:	4c 89 8c 24 88 00 00 	mov    QWORD PTR [rsp+0x88],r9
65b1:	00
65b2:	48 89 44 24 38       	mov    QWORD PTR [rsp+0x38],rax
65b7:	44 88 54 24 7f       	mov    BYTE PTR [rsp+0x7f],r10b
65bc:	4c 89 bc 24 80 00 00 	mov    QWORD PTR [rsp+0x80],r15
65c3:	00
65c4:	4c 89 74 24 40       	mov    QWORD PTR [rsp+0x40],r14
65c9:	4c 89 6c 24 70       	mov    QWORD PTR [rsp+0x70],r13
65ce:	4c 89 5c 24 30       	mov    QWORD PTR [rsp+0x30],r11
65d3:	48 8b 44 24 10       	mov    rax,QWORD PTR [rsp+0x10]
65d8:	4c 8d 74 1d 00       	lea    r14,[rbp+rbx*1+0x0]
65dd:	48 8b 54 24 30       	mov    rdx,QWORD PTR [rsp+0x30]
65e2:	48 8b 4c 24 28       	mov    rcx,QWORD PTR [rsp+0x28]
65e7:	48 8b 7c 24 38       	mov    rdi,QWORD PTR [rsp+0x38]
65ec:	4e 8d 2c 30          	lea    r13,[rax+r14*1]
65f0:	4c 29 f2             	sub    rdx,r14
65f3:	4c 89 ee             	mov    rsi,r13
65f6:	e8 25 23 00 00       	call   8920 <rpl_mbrtowc>
65fb:	48 85 c0             	test   rax,rax
65fe:	49 89 c7             	mov    r15,rax
6601:	74 4e                	je     6651 <quotearg_buffer_restyled+0x9b1>
6603:	48 83 f8 ff          	cmp    rax,0xffffffffffffffff
6607:	0f 84 18 06 00 00    	je     6c25 <quotearg_buffer_restyled+0xf85>
660d:	48 83 f8 fe          	cmp    rax,0xfffffffffffffffe
6611:	0f 84 9a 05 00 00    	je     6bb1 <quotearg_buffer_restyled+0xf11>
6617:	83 7c 24 08 02       	cmp    DWORD PTR [rsp+0x8],0x2
661c:	0f 94 c0             	sete   al
661f:	22 44 24 0f          	and    al,BYTE PTR [rsp+0xf]
6623:	0f 85 97 01 00 00    	jne    67c0 <quotearg_buffer_restyled+0xb20>
6629:	8b bc 24 9c 00 00 00 	mov    edi,DWORD PTR [rsp+0x9c]
6630:	e8 fb b4 ff ff       	call   1b30 <iswprint@plt>
6635:	48 8b 7c 24 28       	mov    rdi,QWORD PTR [rsp+0x28]
663a:	85 c0                	test   eax,eax
663c:	b8 00 00 00 00       	mov    eax,0x0
6641:	44 0f 44 e0          	cmove  r12d,eax
6645:	4c 01 fb             	add    rbx,r15
6648:	e8 d3 b4 ff ff       	call   1b20 <mbsinit@plt>
664d:	85 c0                	test   eax,eax
664f:	74 82                	je     65d3 <quotearg_buffer_restyled+0x933>
6651:	44 89 e2             	mov    edx,r12d
6654:	48 89 df             	mov    rdi,rbx
6657:	44 0f b6 44 24 7d    	movzx  r8d,BYTE PTR [rsp+0x7d]
665d:	83 f2 01             	xor    edx,0x1
6660:	0f b6 5c 24 7e       	movzx  ebx,BYTE PTR [rsp+0x7e]
6665:	44 0f b6 54 24 7f    	movzx  r10d,BYTE PTR [rsp+0x7f]
666b:	22 54 24 0d          	and    dl,BYTE PTR [rsp+0xd]
666f:	4c 8b bc 24 80 00 00 	mov    r15,QWORD PTR [rsp+0x80]
6676:	00
6677:	4c 8b 74 24 40       	mov    r14,QWORD PTR [rsp+0x40]
667c:	4c 8b 6c 24 70       	mov    r13,QWORD PTR [rsp+0x70]
6681:	4c 8b 5c 24 30       	mov    r11,QWORD PTR [rsp+0x30]
6686:	48 83 ff 01          	cmp    rdi,0x1
668a:	0f 86 fb 05 00 00    	jbe    6c8b <quotearg_buffer_restyled+0xfeb>
6690:	48 89 f9             	mov    rcx,rdi
6693:	31 f6                	xor    esi,esi
6695:	44 0f b6 4c 24 0f    	movzx  r9d,BYTE PTR [rsp+0xf]
669b:	48 01 e9             	add    rcx,rbp
669e:	48 8b 7c 24 10       	mov    rdi,QWORD PTR [rsp+0x10]
66a3:	e9 b6 00 00 00       	jmp    675e <quotearg_buffer_restyled+0xabe>
66a8:	0f 1f 84 00 00 00 00 	nop    DWORD PTR [rax+rax*1+0x0]
66af:	00
66b0:	83 7c 24 08 02       	cmp    DWORD PTR [rsp+0x8],0x2
66b5:	0f 94 c0             	sete   al
66b8:	45 84 c9             	test   r9b,r9b
66bb:	0f 85 af 04 00 00    	jne    6b70 <quotearg_buffer_restyled+0xed0>
66c1:	44 89 c6             	mov    esi,r8d
66c4:	83 f6 01             	xor    esi,0x1
66c7:	40 20 f0             	and    al,sil
66ca:	74 2f                	je     66fb <quotearg_buffer_restyled+0xa5b>
66cc:	4d 39 fd             	cmp    r13,r15
66cf:	76 05                	jbe    66d6 <quotearg_buffer_restyled+0xa36>
66d1:	43 c6 04 3e 27       	mov    BYTE PTR [r14+r15*1],0x27
66d6:	49 8d 77 01          	lea    rsi,[r15+0x1]
66da:	49 39 f5             	cmp    r13,rsi
66dd:	76 06                	jbe    66e5 <quotearg_buffer_restyled+0xa45>
66df:	43 c6 44 3e 01 24    	mov    BYTE PTR [r14+r15*1+0x1],0x24
66e5:	49 8d 77 02          	lea    rsi,[r15+0x2]
66e9:	49 39 f5             	cmp    r13,rsi
66ec:	76 06                	jbe    66f4 <quotearg_buffer_restyled+0xa54>
66ee:	43 c6 44 3e 02 27    	mov    BYTE PTR [r14+r15*1+0x2],0x27
66f4:	49 83 c7 03          	add    r15,0x3
66f8:	41 89 c0             	mov    r8d,eax
66fb:	4d 39 fd             	cmp    r13,r15
66fe:	76 05                	jbe    6705 <quotearg_buffer_restyled+0xa65>
6700:	43 c6 04 3e 5c       	mov    BYTE PTR [r14+r15*1],0x5c
6705:	49 8d 47 01          	lea    rax,[r15+0x1]
6709:	49 39 c5             	cmp    r13,rax
670c:	76 0d                	jbe    671b <quotearg_buffer_restyled+0xa7b>
670e:	89 d8                	mov    eax,ebx
6710:	c0 e8 06             	shr    al,0x6
6713:	83 c0 30             	add    eax,0x30
6716:	43 88 44 3e 01       	mov    BYTE PTR [r14+r15*1+0x1],al
671b:	49 8d 47 02          	lea    rax,[r15+0x2]
671f:	49 39 c5             	cmp    r13,rax
6722:	76 10                	jbe    6734 <quotearg_buffer_restyled+0xa94>
6724:	89 d8                	mov    eax,ebx
6726:	c0 e8 03             	shr    al,0x3
6729:	83 e0 07             	and    eax,0x7
672c:	83 c0 30             	add    eax,0x30
672f:	43 88 44 3e 02       	mov    BYTE PTR [r14+r15*1+0x2],al
6734:	83 e3 07             	and    ebx,0x7
6737:	48 83 c5 01          	add    rbp,0x1
673b:	49 83 c7 03          	add    r15,0x3
673f:	83 c3 30             	add    ebx,0x30
6742:	48 39 cd             	cmp    rbp,rcx
6745:	0f 83 e5 f7 ff ff    	jae    5f30 <quotearg_buffer_restyled+0x290>
674b:	89 d6                	mov    esi,edx
674d:	4d 39 fd             	cmp    r13,r15
6750:	76 04                	jbe    6756 <quotearg_buffer_restyled+0xab6>
6752:	43 88 1c 3e          	mov    BYTE PTR [r14+r15*1],bl
6756:	0f b6 1c 2f          	movzx  ebx,BYTE PTR [rdi+rbp*1]
675a:	49 83 c7 01          	add    r15,0x1
675e:	84 d2                	test   dl,dl
6760:	0f 85 4a ff ff ff    	jne    66b0 <quotearg_buffer_restyled+0xa10>
6766:	89 f0                	mov    eax,esi
6768:	83 f0 01             	xor    eax,0x1
676b:	44 21 c0             	and    eax,r8d
676e:	45 84 d2             	test   r10b,r10b
6771:	74 0e                	je     6781 <quotearg_buffer_restyled+0xae1>
6773:	4d 39 fd             	cmp    r13,r15
6776:	76 05                	jbe    677d <quotearg_buffer_restyled+0xadd>
6778:	43 c6 04 3e 5c       	mov    BYTE PTR [r14+r15*1],0x5c
677d:	49 83 c7 01          	add    r15,0x1
6781:	48 83 c5 01          	add    rbp,0x1
6785:	48 39 cd             	cmp    rbp,rcx
6788:	0f 83 7e f7 ff ff    	jae    5f0c <quotearg_buffer_restyled+0x26c>
678e:	84 c0                	test   al,al
6790:	0f 84 f8 03 00 00    	je     6b8e <quotearg_buffer_restyled+0xeee>
6796:	4d 39 fd             	cmp    r13,r15
6799:	76 05                	jbe    67a0 <quotearg_buffer_restyled+0xb00>
679b:	43 c6 04 3e 27       	mov    BYTE PTR [r14+r15*1],0x27
67a0:	49 8d 47 01          	lea    rax,[r15+0x1]
67a4:	49 39 c5             	cmp    r13,rax
67a7:	76 06                	jbe    67af <quotearg_buffer_restyled+0xb0f>
67a9:	43 c6 44 3e 01 27    	mov    BYTE PTR [r14+r15*1+0x1],0x27
67af:	49 83 c7 02          	add    r15,0x2
67b3:	45 31 d2             	xor    r10d,r10d
67b6:	45 31 c0             	xor    r8d,r8d
67b9:	eb 92                	jmp    674d <quotearg_buffer_restyled+0xaad>
67bb:	0f 1f 44 00 00       	nop    DWORD PTR [rax+rax*1+0x0]
67c0:	49 83 ff 01          	cmp    r15,0x1
67c4:	0f 84 5f fe ff ff    	je     6629 <quotearg_buffer_restyled+0x989>
67ca:	48 8b 7c 24 10       	mov    rdi,QWORD PTR [rsp+0x10]
67cf:	4a 8d 0c 3f          	lea    rcx,[rdi+r15*1]
67d3:	4a 8d 54 37 01       	lea    rdx,[rdi+r14*1+0x1]
67d8:	4e 8d 04 31          	lea    r8,[rcx+r14*1]
67dc:	eb 0f                	jmp    67ed <quotearg_buffer_restyled+0xb4d>
67de:	66 90                	xchg   ax,ax
67e0:	48 83 c2 01          	add    rdx,0x1
67e4:	49 39 d0             	cmp    r8,rdx
67e7:	0f 84 3c fe ff ff    	je     6629 <quotearg_buffer_restyled+0x989>
67ed:	0f b6 0a             	movzx  ecx,BYTE PTR [rdx]
67f0:	83 e9 5b             	sub    ecx,0x5b
67f3:	80 f9 21             	cmp    cl,0x21
67f6:	77 e8                	ja     67e0 <quotearg_buffer_restyled+0xb40>
67f8:	be 01 00 00 00       	mov    esi,0x1
67fd:	48 d3 e6             	shl    rsi,cl
6800:	48 89 f1             	mov    rcx,rsi
6803:	48 be 2b 00 00 00 02 	movabs rsi,0x20000002b
680a:	00 00 00
680d:	48 85 f1             	test   rcx,rsi
6810:	74 ce                	je     67e0 <quotearg_buffer_restyled+0xb40>
6812:	4c 8b 74 24 40       	mov    r14,QWORD PTR [rsp+0x40]
6817:	4c 8b 6c 24 70       	mov    r13,QWORD PTR [rsp+0x70]
681c:	48 8b 6c 24 30       	mov    rbp,QWORD PTR [rsp+0x30]
6821:	c7 44 24 08 02 00 00 	mov    DWORD PTR [rsp+0x8],0x2
6828:	00
6829:	80 7c 24 0d 00       	cmp    BYTE PTR [rsp+0xd],0x0
682e:	74 10                	je     6840 <quotearg_buffer_restyled+0xba0>
6830:	84 c0                	test   al,al
6832:	b8 04 00 00 00       	mov    eax,0x4
6837:	0f 44 44 24 08       	cmove  eax,DWORD PTR [rsp+0x8]
683c:	89 44 24 08          	mov    DWORD PTR [rsp+0x8],eax
6840:	48 83 ec 08          	sub    rsp,0x8
6844:	48 89 e9             	mov    rcx,rbp
6847:	4c 89 ee             	mov    rsi,r13
684a:	ff 74 24 68          	push   QWORD PTR [rsp+0x68]
684e:	ff 74 24 78          	push   QWORD PTR [rsp+0x78]
6852:	4c 89 f7             	mov    rdi,r14
6855:	6a 00                	push   0x0
6857:	44 8b 8c 24 98 00 00 	mov    r9d,DWORD PTR [rsp+0x98]
685e:	00
685f:	44 8b 44 24 28       	mov    r8d,DWORD PTR [rsp+0x28]
6864:	48 8b 54 24 30       	mov    rdx,QWORD PTR [rsp+0x30]
6869:	41 83 e1 fd          	and    r9d,0xfffffffd
686d:	e8 2e f4 ff ff       	call   5ca0 <quotearg_buffer_restyled>
6872:	48 83 c4 20          	add    rsp,0x20
6876:	49 89 c7             	mov    r15,rax
6879:	48 8b 9c 24 a8 00 00 	mov    rbx,QWORD PTR [rsp+0xa8]
6880:	00
6881:	64 48 33 1c 25 28 00 	xor    rbx,QWORD PTR fs:0x28
6888:	00 00
688a:	4c 89 f8             	mov    rax,r15
688d:	0f 85 00 06 00 00    	jne    6e93 <quotearg_buffer_restyled+0x11f3>
6893:	48 81 c4 b8 00 00 00 	add    rsp,0xb8
689a:	5b                   	pop    rbx
689b:	5d                   	pop    rbp
689c:	41 5c                	pop    r12
689e:	41 5d                	pop    r13
68a0:	41 5e                	pop    r14
68a2:	41 5f                	pop    r15
68a4:	c3                   	ret
68a5:	0f 1f 00             	nop    DWORD PTR [rax]
68a8:	4c 89 dd             	mov    rbp,r11
68ab:	e9 79 ff ff ff       	jmp    6829 <quotearg_buffer_restyled+0xb89>
68b0:	4d 39 fd             	cmp    r13,r15
68b3:	76 05                	jbe    68ba <quotearg_buffer_restyled+0xc1a>
68b5:	43 c6 04 3e 27       	mov    BYTE PTR [r14+r15*1],0x27
68ba:	49 8d 47 01          	lea    rax,[r15+0x1]
68be:	49 39 c5             	cmp    r13,rax
68c1:	76 06                	jbe    68c9 <quotearg_buffer_restyled+0xc29>
68c3:	43 c6 44 3e 01 5c    	mov    BYTE PTR [r14+r15*1+0x1],0x5c
68c9:	49 8d 47 02          	lea    rax,[r15+0x2]
68cd:	49 39 c5             	cmp    r13,rax
68d0:	0f 86 ec 05 00 00    	jbe    6ec2 <quotearg_buffer_restyled+0x1222>
68d6:	4c 89 ea             	mov    rdx,r13
68d9:	43 c6 44 3e 02 27    	mov    BYTE PTR [r14+r15*1+0x2],0x27
68df:	4c 8b 6c 24 50       	mov    r13,QWORD PTR [rsp+0x50]
68e4:	e9 d9 fb ff ff       	jmp    64c2 <quotearg_buffer_restyled+0x822>
68e9:	44 89 e0             	mov    eax,r12d
68ec:	bb 30 00 00 00       	mov    ebx,0x30
68f1:	45 31 e4             	xor    r12d,r12d
68f4:	e9 00 f6 ff ff       	jmp    5ef9 <quotearg_buffer_restyled+0x259>
68f9:	43 c6 44 3e 02 27    	mov    BYTE PTR [r14+r15*1+0x2],0x27
68ff:	e9 c5 f9 ff ff       	jmp    62c9 <quotearg_buffer_restyled+0x629>
6904:	85 db                	test   ebx,ebx
6906:	0f 85 27 f4 ff ff    	jne    5d33 <quotearg_buffer_restyled+0x93>
690c:	c6 44 24 0d 01       	mov    BYTE PTR [rsp+0xd],0x1
6911:	4d 85 ed             	test   r13,r13
6914:	0f 85 90 05 00 00    	jne    6eaa <quotearg_buffer_restyled+0x120a>
691a:	48 8d 05 f8 67 00 00 	lea    rax,[rip+0x67f8]        # d119 <version_etc_copyright+0x79>
6921:	48 c7 44 24 50 00 00 	mov    QWORD PTR [rsp+0x50],0x0
6928:	00 00
692a:	c6 44 24 0e 01       	mov    BYTE PTR [rsp+0xe],0x1
692f:	c6 44 24 7c 00       	mov    BYTE PTR [rsp+0x7c],0x0
6934:	45 31 e4             	xor    r12d,r12d
6937:	c6 44 24 0f 00       	mov    BYTE PTR [rsp+0xf],0x0
693c:	48 c7 44 24 18 01 00 	mov    QWORD PTR [rsp+0x18],0x1
6943:	00 00
6945:	48 89 44 24 48       	mov    QWORD PTR [rsp+0x48],rax
694a:	41 bf 01 00 00 00    	mov    r15d,0x1
6950:	c7 44 24 08 02 00 00 	mov    DWORD PTR [rsp+0x8],0x2
6957:	00
6958:	e9 16 f4 ff ff       	jmp    5d73 <quotearg_buffer_restyled+0xd3>
695d:	0f 1f 00             	nop    DWORD PTR [rax]
6960:	85 db                	test   ebx,ebx
6962:	0f 85 f5 03 00 00    	jne    6d5d <quotearg_buffer_restyled+0x10bd>
6968:	4d 85 ed             	test   r13,r13
696b:	0f 84 25 02 00 00    	je     6b96 <quotearg_buffer_restyled+0xef6>
6971:	41 c6 06 22          	mov    BYTE PTR [r14],0x22
6975:	c6 44 24 0e 01       	mov    BYTE PTR [rsp+0xe],0x1
697a:	45 31 e4             	xor    r12d,r12d
697d:	c6 44 24 7c 00       	mov    BYTE PTR [rsp+0x7c],0x0
6982:	48 c7 44 24 50 00 00 	mov    QWORD PTR [rsp+0x50],0x0
6989:	00 00
698b:	48 8d 05 01 5f 00 00 	lea    rax,[rip+0x5f01]        # c893 <bytes_to_oct_digits+0x153>
6992:	c6 44 24 0f 00       	mov    BYTE PTR [rsp+0xf],0x0
6997:	c6 44 24 0d 01       	mov    BYTE PTR [rsp+0xd],0x1
699c:	48 c7 44 24 18 01 00 	mov    QWORD PTR [rsp+0x18],0x1
69a3:	00 00
69a5:	41 bf 01 00 00 00    	mov    r15d,0x1
69ab:	48 89 44 24 48       	mov    QWORD PTR [rsp+0x48],rax
69b0:	e9 be f3 ff ff       	jmp    5d73 <quotearg_buffer_restyled+0xd3>
69b5:	48 8d 05 d7 5e 00 00 	lea    rax,[rip+0x5ed7]        # c893 <bytes_to_oct_digits+0x153>
69bc:	c6 44 24 0e 01       	mov    BYTE PTR [rsp+0xe],0x1
69c1:	c6 44 24 7c 00       	mov    BYTE PTR [rsp+0x7c],0x0
69c6:	45 31 e4             	xor    r12d,r12d
69c9:	48 c7 44 24 50 00 00 	mov    QWORD PTR [rsp+0x50],0x0
69d0:	00 00
69d2:	c6 44 24 0f 01       	mov    BYTE PTR [rsp+0xf],0x1
69d7:	c6 44 24 0d 01       	mov    BYTE PTR [rsp+0xd],0x1
69dc:	48 c7 44 24 18 01 00 	mov    QWORD PTR [rsp+0x18],0x1
69e3:	00 00
69e5:	45 31 ff             	xor    r15d,r15d
69e8:	48 89 44 24 48       	mov    QWORD PTR [rsp+0x48],rax
69ed:	c7 44 24 08 05 00 00 	mov    DWORD PTR [rsp+0x8],0x5
69f4:	00
69f5:	e9 79 f3 ff ff       	jmp    5d73 <quotearg_buffer_restyled+0xd3>
69fa:	c6 44 24 0e 01       	mov    BYTE PTR [rsp+0xe],0x1
69ff:	c6 44 24 7c 00       	mov    BYTE PTR [rsp+0x7c],0x0
6a04:	45 31 e4             	xor    r12d,r12d
6a07:	48 c7 44 24 50 00 00 	mov    QWORD PTR [rsp+0x50],0x0
6a0e:	00 00
6a10:	c6 44 24 0f 00       	mov    BYTE PTR [rsp+0xf],0x0
6a15:	45 31 ff             	xor    r15d,r15d
6a18:	c6 44 24 0d 01       	mov    BYTE PTR [rsp+0xd],0x1
6a1d:	48 c7 44 24 18 00 00 	mov    QWORD PTR [rsp+0x18],0x0
6a24:	00 00
6a26:	48 c7 44 24 48 00 00 	mov    QWORD PTR [rsp+0x48],0x0
6a2d:	00 00
6a2f:	e9 3f f3 ff ff       	jmp    5d73 <quotearg_buffer_restyled+0xd3>
6a34:	83 7c 24 08 0a       	cmp    DWORD PTR [rsp+0x8],0xa
6a39:	74 56                	je     6a91 <quotearg_buffer_restyled+0xdf1>
6a3b:	48 8d 35 53 5e 00 00 	lea    rsi,[rip+0x5e53]        # c895 <bytes_to_oct_digits+0x155>
6a42:	31 ff                	xor    edi,edi
6a44:	ba 05 00 00 00       	mov    edx,0x5
6a49:	e8 62 ae ff ff       	call   18b0 <dcgettext@plt>
6a4e:	48 89 c1             	mov    rcx,rax
6a51:	48 89 44 24 68       	mov    QWORD PTR [rsp+0x68],rax
6a56:	48 8d 05 38 5e 00 00 	lea    rax,[rip+0x5e38]        # c895 <bytes_to_oct_digits+0x155>
6a5d:	48 39 c1             	cmp    rcx,rax
6a60:	0f 84 98 03 00 00    	je     6dfe <quotearg_buffer_restyled+0x115e>
6a66:	48 8d 35 ac 66 00 00 	lea    rsi,[rip+0x66ac]        # d119 <version_etc_copyright+0x79>
6a6d:	31 ff                	xor    edi,edi
6a6f:	ba 05 00 00 00       	mov    edx,0x5
6a74:	e8 37 ae ff ff       	call   18b0 <dcgettext@plt>
6a79:	48 89 c1             	mov    rcx,rax
6a7c:	48 89 44 24 60       	mov    QWORD PTR [rsp+0x60],rax
6a81:	48 8d 05 91 66 00 00 	lea    rax,[rip+0x6691]        # d119 <version_etc_copyright+0x79>
6a88:	48 39 c1             	cmp    rcx,rax
6a8b:	0f 84 83 03 00 00    	je     6e14 <quotearg_buffer_restyled+0x1174>
6a91:	45 31 ff             	xor    r15d,r15d
6a94:	85 db                	test   ebx,ebx
6a96:	0f 84 c1 01 00 00    	je     6c5d <quotearg_buffer_restyled+0xfbd>
6a9c:	85 db                	test   ebx,ebx
6a9e:	48 8b 5c 24 60       	mov    rbx,QWORD PTR [rsp+0x60]
6aa3:	0f 95 44 24 0f       	setne  BYTE PTR [rsp+0xf]
6aa8:	45 31 e4             	xor    r12d,r12d
6aab:	48 89 df             	mov    rdi,rbx
6aae:	e8 1d ae ff ff       	call   18d0 <strlen@plt>
6ab3:	48 89 5c 24 48       	mov    QWORD PTR [rsp+0x48],rbx
6ab8:	48 89 44 24 18       	mov    QWORD PTR [rsp+0x18],rax
6abd:	c6 44 24 0e 01       	mov    BYTE PTR [rsp+0xe],0x1
6ac2:	c6 44 24 7c 00       	mov    BYTE PTR [rsp+0x7c],0x0
6ac7:	48 c7 44 24 50 00 00 	mov    QWORD PTR [rsp+0x50],0x0
6ace:	00 00
6ad0:	c6 44 24 0d 01       	mov    BYTE PTR [rsp+0xd],0x1
6ad5:	e9 99 f2 ff ff       	jmp    5d73 <quotearg_buffer_restyled+0xd3>
6ada:	c6 44 24 0e 01       	mov    BYTE PTR [rsp+0xe],0x1
6adf:	c6 44 24 7c 00       	mov    BYTE PTR [rsp+0x7c],0x0
6ae4:	45 31 e4             	xor    r12d,r12d
6ae7:	48 c7 44 24 50 00 00 	mov    QWORD PTR [rsp+0x50],0x0
6aee:	00 00
6af0:	c6 44 24 0f 00       	mov    BYTE PTR [rsp+0xf],0x0
6af5:	45 31 ff             	xor    r15d,r15d
6af8:	c6 44 24 0d 00       	mov    BYTE PTR [rsp+0xd],0x0
6afd:	48 c7 44 24 18 00 00 	mov    QWORD PTR [rsp+0x18],0x0
6b04:	00 00
6b06:	48 c7 44 24 48 00 00 	mov    QWORD PTR [rsp+0x48],0x0
6b0d:	00 00
6b0f:	e9 5f f2 ff ff       	jmp    5d73 <quotearg_buffer_restyled+0xd3>
6b14:	c6 44 24 0e 01       	mov    BYTE PTR [rsp+0xe],0x1
6b19:	c6 44 24 7c 00       	mov    BYTE PTR [rsp+0x7c],0x0
6b1e:	45 31 e4             	xor    r12d,r12d
6b21:	48 c7 44 24 50 00 00 	mov    QWORD PTR [rsp+0x50],0x0
6b28:	00 00
6b2a:	c6 44 24 0f 01       	mov    BYTE PTR [rsp+0xf],0x1
6b2f:	c6 44 24 0d 01       	mov    BYTE PTR [rsp+0xd],0x1
6b34:	e9 1a f2 ff ff       	jmp    5d53 <quotearg_buffer_restyled+0xb3>
6b39:	4d 39 fd             	cmp    r13,r15
6b3c:	76 05                	jbe    6b43 <quotearg_buffer_restyled+0xea3>
6b3e:	43 c6 04 3e 30       	mov    BYTE PTR [r14+r15*1],0x30
6b43:	48 8d 41 02          	lea    rax,[rcx+0x2]
6b47:	49 39 c5             	cmp    r13,rax
6b4a:	76 06                	jbe    6b52 <quotearg_buffer_restyled+0xeb2>
6b4c:	41 c6 44 0e 02 30    	mov    BYTE PTR [r14+rcx*1+0x2],0x30
6b52:	44 89 e0             	mov    eax,r12d
6b55:	4c 8d 79 03          	lea    r15,[rcx+0x3]
6b59:	45 31 e4             	xor    r12d,r12d
6b5c:	bb 30 00 00 00       	mov    ebx,0x30
6b61:	e9 62 f3 ff ff       	jmp    5ec8 <quotearg_buffer_restyled+0x228>
6b66:	66 2e 0f 1f 84 00 00 	nop    WORD PTR cs:[rax+rax*1+0x0]
6b6d:	00 00 00
6b70:	0f b6 5c 24 0f       	movzx  ebx,BYTE PTR [rsp+0xf]
6b75:	4c 89 dd             	mov    rbp,r11
6b78:	88 5c 24 0d          	mov    BYTE PTR [rsp+0xd],bl
6b7c:	e9 a8 fc ff ff       	jmp    6829 <quotearg_buffer_restyled+0xb89>
6b81:	0f b6 54 24 0d       	movzx  edx,BYTE PTR [rsp+0xd]
6b86:	45 31 e4             	xor    r12d,r12d
6b89:	e9 02 fb ff ff       	jmp    6690 <quotearg_buffer_restyled+0x9f0>
6b8e:	45 31 d2             	xor    r10d,r10d
6b91:	e9 b7 fb ff ff       	jmp    674d <quotearg_buffer_restyled+0xaad>
6b96:	48 c7 44 24 50 00 00 	mov    QWORD PTR [rsp+0x50],0x0
6b9d:	00 00
6b9f:	c6 44 24 0e 01       	mov    BYTE PTR [rsp+0xe],0x1
6ba4:	45 31 e4             	xor    r12d,r12d
6ba7:	c6 44 24 7c 00       	mov    BYTE PTR [rsp+0x7c],0x0
6bac:	e9 da fd ff ff       	jmp    698b <quotearg_buffer_restyled+0xceb>
6bb1:	4c 8b 5c 24 30       	mov    r11,QWORD PTR [rsp+0x30]
6bb6:	4c 89 f6             	mov    rsi,r14
6bb9:	4c 89 e9             	mov    rcx,r13
6bbc:	48 89 d8             	mov    rax,rbx
6bbf:	48 89 df             	mov    rdi,rbx
6bc2:	44 0f b6 44 24 7d    	movzx  r8d,BYTE PTR [rsp+0x7d]
6bc8:	0f b6 5c 24 7e       	movzx  ebx,BYTE PTR [rsp+0x7e]
6bcd:	4c 8b 8c 24 88 00 00 	mov    r9,QWORD PTR [rsp+0x88]
6bd4:	00
6bd5:	4c 39 de             	cmp    rsi,r11
6bd8:	44 0f b6 54 24 7f    	movzx  r10d,BYTE PTR [rsp+0x7f]
6bde:	4c 8b bc 24 80 00 00 	mov    r15,QWORD PTR [rsp+0x80]
6be5:	00
6be6:	4c 8b 74 24 40       	mov    r14,QWORD PTR [rsp+0x40]
6beb:	4c 8b 6c 24 70       	mov    r13,QWORD PTR [rsp+0x70]
6bf0:	73 26                	jae    6c18 <quotearg_buffer_restyled+0xf78>
6bf2:	80 39 00             	cmp    BYTE PTR [rcx],0x0
6bf5:	75 10                	jne    6c07 <quotearg_buffer_restyled+0xf67>
6bf7:	eb 1f                	jmp    6c18 <quotearg_buffer_restyled+0xf78>
6bf9:	0f 1f 80 00 00 00 00 	nop    DWORD PTR [rax+0x0]
6c00:	41 80 3c 01 00       	cmp    BYTE PTR [r9+rax*1],0x0
6c05:	74 0e                	je     6c15 <quotearg_buffer_restyled+0xf75>
6c07:	48 83 c0 01          	add    rax,0x1
6c0b:	48 8d 54 05 00       	lea    rdx,[rbp+rax*1+0x0]
6c10:	49 39 d3             	cmp    r11,rdx
6c13:	77 eb                	ja     6c00 <quotearg_buffer_restyled+0xf60>
6c15:	48 89 c7             	mov    rdi,rax
6c18:	0f b6 54 24 0d       	movzx  edx,BYTE PTR [rsp+0xd]
6c1d:	45 31 e4             	xor    r12d,r12d
6c20:	e9 61 fa ff ff       	jmp    6686 <quotearg_buffer_restyled+0x9e6>
6c25:	48 89 df             	mov    rdi,rbx
6c28:	44 0f b6 44 24 7d    	movzx  r8d,BYTE PTR [rsp+0x7d]
6c2e:	0f b6 5c 24 7e       	movzx  ebx,BYTE PTR [rsp+0x7e]
6c33:	44 0f b6 54 24 7f    	movzx  r10d,BYTE PTR [rsp+0x7f]
6c39:	4c 8b bc 24 80 00 00 	mov    r15,QWORD PTR [rsp+0x80]
6c40:	00
6c41:	45 31 e4             	xor    r12d,r12d
6c44:	4c 8b 74 24 40       	mov    r14,QWORD PTR [rsp+0x40]
6c49:	4c 8b 6c 24 70       	mov    r13,QWORD PTR [rsp+0x70]
6c4e:	4c 8b 5c 24 30       	mov    r11,QWORD PTR [rsp+0x30]
6c53:	0f b6 54 24 0d       	movzx  edx,BYTE PTR [rsp+0xd]
6c58:	e9 29 fa ff ff       	jmp    6686 <quotearg_buffer_restyled+0x9e6>
6c5d:	48 8b 54 24 68       	mov    rdx,QWORD PTR [rsp+0x68]
6c62:	0f b6 02             	movzx  eax,BYTE PTR [rdx]
6c65:	84 c0                	test   al,al
6c67:	0f 84 2f fe ff ff    	je     6a9c <quotearg_buffer_restyled+0xdfc>
6c6d:	0f 1f 00             	nop    DWORD PTR [rax]
6c70:	4d 39 fd             	cmp    r13,r15
6c73:	76 04                	jbe    6c79 <quotearg_buffer_restyled+0xfd9>
6c75:	43 88 04 3e          	mov    BYTE PTR [r14+r15*1],al
6c79:	49 83 c7 01          	add    r15,0x1
6c7d:	42 0f b6 04 3a       	movzx  eax,BYTE PTR [rdx+r15*1]
6c82:	84 c0                	test   al,al
6c84:	75 ea                	jne    6c70 <quotearg_buffer_restyled+0xfd0>
6c86:	e9 11 fe ff ff       	jmp    6a9c <quotearg_buffer_restyled+0xdfc>
6c8b:	89 d0                	mov    eax,edx
6c8d:	e9 55 f5 ff ff       	jmp    61e7 <quotearg_buffer_restyled+0x547>
6c92:	0f b6 1c 08          	movzx  ebx,BYTE PTR [rax+rcx*1]
6c96:	80 fb 3e             	cmp    bl,0x3e
6c99:	0f 87 71 f8 ff ff    	ja     6510 <quotearg_buffer_restyled+0x870>
6c9f:	48 b8 00 00 00 00 82 	movabs rax,0x7000a38200000000
6ca6:	a3 00 70
6ca9:	48 0f a3 d8          	bt     rax,rbx
6cad:	0f 83 5d f8 ff ff    	jae    6510 <quotearg_buffer_restyled+0x870>
6cb3:	80 7c 24 0f 00       	cmp    BYTE PTR [rsp+0xf],0x0
6cb8:	0f 85 e4 01 00 00    	jne    6ea2 <quotearg_buffer_restyled+0x1202>
6cbe:	4d 39 fd             	cmp    r13,r15
6cc1:	76 05                	jbe    6cc8 <quotearg_buffer_restyled+0x1028>
6cc3:	43 c6 04 3e 3f       	mov    BYTE PTR [r14+r15*1],0x3f
6cc8:	49 8d 47 01          	lea    rax,[r15+0x1]
6ccc:	49 39 c5             	cmp    r13,rax
6ccf:	76 06                	jbe    6cd7 <quotearg_buffer_restyled+0x1037>
6cd1:	43 c6 44 3e 01 22    	mov    BYTE PTR [r14+r15*1+0x1],0x22
6cd7:	49 8d 47 02          	lea    rax,[r15+0x2]
6cdb:	49 39 c5             	cmp    r13,rax
6cde:	76 06                	jbe    6ce6 <quotearg_buffer_restyled+0x1046>
6ce0:	43 c6 44 3e 02 22    	mov    BYTE PTR [r14+r15*1+0x2],0x22
6ce6:	49 8d 47 03          	lea    rax,[r15+0x3]
6cea:	49 39 c5             	cmp    r13,rax
6ced:	76 06                	jbe    6cf5 <quotearg_buffer_restyled+0x1055>
6cef:	43 c6 44 3e 03 3f    	mov    BYTE PTR [r14+r15*1+0x3],0x3f
6cf5:	49 83 c7 04          	add    r15,0x4
6cf9:	31 d2                	xor    edx,edx
6cfb:	45 31 e4             	xor    r12d,r12d
6cfe:	31 c0                	xor    eax,eax
6d00:	48 89 cd             	mov    rbp,rcx
6d03:	e9 c0 f1 ff ff       	jmp    5ec8 <quotearg_buffer_restyled+0x228>
6d08:	85 db                	test   ebx,ebx
6d0a:	0f 84 88 01 00 00    	je     6e98 <quotearg_buffer_restyled+0x11f8>
6d10:	48 8d 05 02 64 00 00 	lea    rax,[rip+0x6402]        # d119 <version_etc_copyright+0x79>
6d17:	c6 44 24 0e 01       	mov    BYTE PTR [rsp+0xe],0x1
6d1c:	c6 44 24 7c 00       	mov    BYTE PTR [rsp+0x7c],0x0
6d21:	45 31 e4             	xor    r12d,r12d
6d24:	48 c7 44 24 50 00 00 	mov    QWORD PTR [rsp+0x50],0x0
6d2b:	00 00
6d2d:	c6 44 24 0f 01       	mov    BYTE PTR [rsp+0xf],0x1
6d32:	c6 44 24 0d 00       	mov    BYTE PTR [rsp+0xd],0x0
6d37:	48 c7 44 24 18 01 00 	mov    QWORD PTR [rsp+0x18],0x1
6d3e:	00 00
6d40:	45 31 ff             	xor    r15d,r15d
6d43:	48 89 44 24 48       	mov    QWORD PTR [rsp+0x48],rax
6d48:	e9 26 f0 ff ff       	jmp    5d73 <quotearg_buffer_restyled+0xd3>
6d4d:	0f 1f 00             	nop    DWORD PTR [rax]
6d50:	4c 89 dd             	mov    rbp,r11
6d53:	0f b6 44 24 0f       	movzx  eax,BYTE PTR [rsp+0xf]
6d58:	e9 cc fa ff ff       	jmp    6829 <quotearg_buffer_restyled+0xb89>
6d5d:	48 8d 05 2f 5b 00 00 	lea    rax,[rip+0x5b2f]        # c893 <bytes_to_oct_digits+0x153>
6d64:	c6 44 24 0e 01       	mov    BYTE PTR [rsp+0xe],0x1
6d69:	c6 44 24 7c 00       	mov    BYTE PTR [rsp+0x7c],0x0
6d6e:	45 31 e4             	xor    r12d,r12d
6d71:	48 c7 44 24 50 00 00 	mov    QWORD PTR [rsp+0x50],0x0
6d78:	00 00
6d7a:	c6 44 24 0f 01       	mov    BYTE PTR [rsp+0xf],0x1
6d7f:	c6 44 24 0d 01       	mov    BYTE PTR [rsp+0xd],0x1
6d84:	48 c7 44 24 18 01 00 	mov    QWORD PTR [rsp+0x18],0x1
6d8b:	00 00
6d8d:	45 31 ff             	xor    r15d,r15d
6d90:	48 89 44 24 48       	mov    QWORD PTR [rsp+0x48],rax
6d95:	e9 d9 ef ff ff       	jmp    5d73 <quotearg_buffer_restyled+0xd3>
6d9a:	89 d0                	mov    eax,edx
6d9c:	48 8b 5c 24 48       	mov    rbx,QWORD PTR [rsp+0x48]
6da1:	48 85 db             	test   rbx,rbx
6da4:	74 2c                	je     6dd2 <quotearg_buffer_restyled+0x1132>
6da6:	84 c0                	test   al,al
6da8:	74 28                	je     6dd2 <quotearg_buffer_restyled+0x1132>
6daa:	0f b6 0b             	movzx  ecx,BYTE PTR [rbx]
6dad:	48 89 d8             	mov    rax,rbx
6db0:	84 c9                	test   cl,cl
6db2:	74 1e                	je     6dd2 <quotearg_buffer_restyled+0x1132>
6db4:	4c 89 fa             	mov    rdx,r15
6db7:	4c 29 f8             	sub    rax,r15
6dba:	49 39 d5             	cmp    r13,rdx
6dbd:	76 04                	jbe    6dc3 <quotearg_buffer_restyled+0x1123>
6dbf:	41 88 0c 16          	mov    BYTE PTR [r14+rdx*1],cl
6dc3:	48 83 c2 01          	add    rdx,0x1
6dc7:	0f b6 0c 10          	movzx  ecx,BYTE PTR [rax+rdx*1]
6dcb:	84 c9                	test   cl,cl
6dcd:	75 eb                	jne    6dba <quotearg_buffer_restyled+0x111a>
6dcf:	49 89 d7             	mov    r15,rdx
6dd2:	4d 39 fd             	cmp    r13,r15
6dd5:	0f 86 9e fa ff ff    	jbe    6879 <quotearg_buffer_restyled+0xbd9>
6ddb:	43 c6 04 3e 00       	mov    BYTE PTR [r14+r15*1],0x0
6de0:	e9 94 fa ff ff       	jmp    6879 <quotearg_buffer_restyled+0xbd9>
6de5:	83 7c 24 08 02       	cmp    DWORD PTR [rsp+0x8],0x2
6dea:	0f b6 5c 24 0f       	movzx  ebx,BYTE PTR [rsp+0xf]
6def:	4c 89 dd             	mov    rbp,r11
6df2:	0f 94 c0             	sete   al
6df5:	88 5c 24 0d          	mov    BYTE PTR [rsp+0xd],bl
6df9:	e9 2b fa ff ff       	jmp    6829 <quotearg_buffer_restyled+0xb89>
6dfe:	8b 74 24 08          	mov    esi,DWORD PTR [rsp+0x8]
6e02:	48 89 cf             	mov    rdi,rcx
6e05:	e8 a6 ed ff ff       	call   5bb0 <gettext_quote.part.1>
6e0a:	48 89 44 24 68       	mov    QWORD PTR [rsp+0x68],rax
6e0f:	e9 52 fc ff ff       	jmp    6a66 <quotearg_buffer_restyled+0xdc6>
6e14:	8b 74 24 08          	mov    esi,DWORD PTR [rsp+0x8]
6e18:	48 89 cf             	mov    rdi,rcx
6e1b:	e8 90 ed ff ff       	call   5bb0 <gettext_quote.part.1>
6e20:	48 89 44 24 60       	mov    QWORD PTR [rsp+0x60],rax
6e25:	e9 67 fc ff ff       	jmp    6a91 <quotearg_buffer_restyled+0xdf1>
6e2a:	0f b6 5c 24 0f       	movzx  ebx,BYTE PTR [rsp+0xf]
6e2f:	4c 89 dd             	mov    rbp,r11
6e32:	89 d0                	mov    eax,edx
6e34:	88 5c 24 0d          	mov    BYTE PTR [rsp+0xd],bl
6e38:	e9 ec f9 ff ff       	jmp    6829 <quotearg_buffer_restyled+0xb89>
6e3d:	48 83 ec 08          	sub    rsp,0x8
6e41:	41 b8 05 00 00 00    	mov    r8d,0x5
6e47:	4c 89 d9             	mov    rcx,r11
6e4a:	ff 74 24 68          	push   QWORD PTR [rsp+0x68]
6e4e:	ff 74 24 78          	push   QWORD PTR [rsp+0x78]
6e52:	4c 89 f7             	mov    rdi,r14
6e55:	ff 74 24 38          	push   QWORD PTR [rsp+0x38]
6e59:	44 8b 8c 24 98 00 00 	mov    r9d,DWORD PTR [rsp+0x98]
6e60:	00
6e61:	48 8b 54 24 30       	mov    rdx,QWORD PTR [rsp+0x30]
6e66:	48 8b 74 24 70       	mov    rsi,QWORD PTR [rsp+0x70]
6e6b:	e8 30 ee ff ff       	call   5ca0 <quotearg_buffer_restyled>
6e70:	48 83 c4 20          	add    rsp,0x20
6e74:	49 89 c7             	mov    r15,rax
6e77:	e9 fd f9 ff ff       	jmp    6879 <quotearg_buffer_restyled+0xbd9>
6e7c:	0f b6 44 24 7c       	movzx  eax,BYTE PTR [rsp+0x7c]
6e81:	e9 16 ff ff ff       	jmp    6d9c <quotearg_buffer_restyled+0x10fc>
6e86:	c7 44 24 08 02 00 00 	mov    DWORD PTR [rsp+0x8],0x2
6e8d:	00
6e8e:	e9 96 f9 ff ff       	jmp    6829 <quotearg_buffer_restyled+0xb89>
6e93:	e8 48 aa ff ff       	call   18e0 <__stack_chk_fail@plt>
6e98:	c6 44 24 0d 00       	mov    BYTE PTR [rsp+0xd],0x0
6e9d:	e9 6f fa ff ff       	jmp    6911 <quotearg_buffer_restyled+0xc71>
6ea2:	4c 89 dd             	mov    rbp,r11
6ea5:	e9 96 f9 ff ff       	jmp    6840 <quotearg_buffer_restyled+0xba0>
6eaa:	c6 44 24 0e 01       	mov    BYTE PTR [rsp+0xe],0x1
6eaf:	31 c0                	xor    eax,eax
6eb1:	45 31 e4             	xor    r12d,r12d
6eb4:	48 c7 44 24 50 00 00 	mov    QWORD PTR [rsp+0x50],0x0
6ebb:	00 00
6ebd:	e9 a2 f5 ff ff       	jmp    6464 <quotearg_buffer_restyled+0x7c4>
6ec2:	4c 89 ea             	mov    rdx,r13
6ec5:	4c 8b 6c 24 50       	mov    r13,QWORD PTR [rsp+0x50]
6eca:	e9 f3 f5 ff ff       	jmp    64c2 <quotearg_buffer_restyled+0x822>
6ecf:	e8 0c a9 ff ff       	call   17e0 <abort@plt>
6ed4:	66 90                	xchg   ax,ax
6ed6:	66 2e 0f 1f 84 00 00 	nop    WORD PTR cs:[rax+rax*1+0x0]
6edd:	00 00 00

0000000000006ee0 <quotearg_n_options>:
6ee0:	41 57                	push   r15
6ee2:	41 56                	push   r14
6ee4:	4c 63 ff             	movsxd r15,edi
6ee7:	41 55                	push   r13
6ee9:	41 54                	push   r12
6eeb:	49 89 d6             	mov    r14,rdx
6eee:	55                   	push   rbp
6eef:	53                   	push   rbx
6ef0:	48 89 cd             	mov    rbp,rcx
6ef3:	48 83 ec 28          	sub    rsp,0x28
6ef7:	48 89 74 24 08       	mov    QWORD PTR [rsp+0x8],rsi
6efc:	e8 ef a8 ff ff       	call   17f0 <__errno_location@plt>
6f01:	49 89 c5             	mov    r13,rax
6f04:	8b 00                	mov    eax,DWORD PTR [rax]
6f06:	45 85 ff             	test   r15d,r15d
6f09:	48 8b 1d 70 91 20 00 	mov    rbx,QWORD PTR [rip+0x209170]        # 210080 <slotvec>
6f10:	89 44 24 18          	mov    DWORD PTR [rsp+0x18],eax
6f14:	0f 88 67 01 00 00    	js     7081 <quotearg_n_options+0x1a1>
6f1a:	44 39 3d 57 91 20 00 	cmp    DWORD PTR [rip+0x209157],r15d        # 210078 <nslots>
6f21:	7f 62                	jg     6f85 <quotearg_n_options+0xa5>
6f23:	41 81 ff ff ff ff 7f 	cmp    r15d,0x7fffffff
6f2a:	0f 84 56 01 00 00    	je     7086 <quotearg_n_options+0x1a6>
6f30:	45 8d 67 01          	lea    r12d,[r15+0x1]
6f34:	48 8d 05 55 91 20 00 	lea    rax,[rip+0x209155]        # 210090 <slotvec0>
6f3b:	49 63 f4             	movsxd rsi,r12d
6f3e:	48 c1 e6 04          	shl    rsi,0x4
6f42:	48 39 c3             	cmp    rbx,rax
6f45:	0f 84 15 01 00 00    	je     7060 <quotearg_n_options+0x180>
6f4b:	48 89 df             	mov    rdi,rbx
6f4e:	e8 6d 0f 00 00       	call   7ec0 <xrealloc>
6f53:	48 89 c3             	mov    rbx,rax
6f56:	48 89 05 23 91 20 00 	mov    QWORD PTR [rip+0x209123],rax        # 210080 <slotvec>
6f5d:	48 63 3d 14 91 20 00 	movsxd rdi,DWORD PTR [rip+0x209114]        # 210078 <nslots>
6f64:	44 89 e2             	mov    edx,r12d
6f67:	31 f6                	xor    esi,esi
6f69:	29 fa                	sub    edx,edi
6f6b:	48 c1 e7 04          	shl    rdi,0x4
6f6f:	48 63 d2             	movsxd rdx,edx
6f72:	48 01 df             	add    rdi,rbx
6f75:	48 c1 e2 04          	shl    rdx,0x4
6f79:	e8 02 aa ff ff       	call   1980 <memset@plt>
6f7e:	44 89 25 f3 90 20 00 	mov    DWORD PTR [rip+0x2090f3],r12d        # 210078 <nslots>
6f85:	8b 45 04             	mov    eax,DWORD PTR [rbp+0x4]
6f88:	49 c1 e7 04          	shl    r15,0x4
6f8c:	48 83 ec 08          	sub    rsp,0x8
6f90:	4c 01 fb             	add    rbx,r15
6f93:	4c 8d 7d 08          	lea    r15,[rbp+0x8]
6f97:	44 8b 45 00          	mov    r8d,DWORD PTR [rbp+0x0]
6f9b:	4c 8b 1b             	mov    r11,QWORD PTR [rbx]
6f9e:	4c 8b 63 08          	mov    r12,QWORD PTR [rbx+0x8]
6fa2:	4c 89 f1             	mov    rcx,r14
6fa5:	83 c8 01             	or     eax,0x1
6fa8:	89 44 24 24          	mov    DWORD PTR [rsp+0x24],eax
6fac:	ff 75 30             	push   QWORD PTR [rbp+0x30]
6faf:	41 89 c1             	mov    r9d,eax
6fb2:	ff 75 28             	push   QWORD PTR [rbp+0x28]
6fb5:	41 57                	push   r15
6fb7:	4c 89 de             	mov    rsi,r11
6fba:	48 8b 54 24 28       	mov    rdx,QWORD PTR [rsp+0x28]
6fbf:	4c 89 e7             	mov    rdi,r12
6fc2:	4c 89 5c 24 30       	mov    QWORD PTR [rsp+0x30],r11
6fc7:	e8 d4 ec ff ff       	call   5ca0 <quotearg_buffer_restyled>
6fcc:	48 83 c4 20          	add    rsp,0x20
6fd0:	4c 8b 5c 24 10       	mov    r11,QWORD PTR [rsp+0x10]
6fd5:	49 39 c3             	cmp    r11,rax
6fd8:	77 67                	ja     7041 <quotearg_n_options+0x161>
6fda:	48 8d 70 01          	lea    rsi,[rax+0x1]
6fde:	48 8d 05 5b 92 20 00 	lea    rax,[rip+0x20925b]        # 210240 <slot0>
6fe5:	49 39 c4             	cmp    r12,rax
6fe8:	48 89 33             	mov    QWORD PTR [rbx],rsi
6feb:	74 12                	je     6fff <quotearg_n_options+0x11f>
6fed:	4c 89 e7             	mov    rdi,r12
6ff0:	48 89 74 24 10       	mov    QWORD PTR [rsp+0x10],rsi
6ff5:	e8 d6 a7 ff ff       	call   17d0 <free@plt>
6ffa:	48 8b 74 24 10       	mov    rsi,QWORD PTR [rsp+0x10]
6fff:	48 89 f7             	mov    rdi,rsi
7002:	48 89 74 24 10       	mov    QWORD PTR [rsp+0x10],rsi
7007:	e8 54 0e 00 00       	call   7e60 <xmalloc>
700c:	48 83 ec 08          	sub    rsp,0x8
7010:	48 89 43 08          	mov    QWORD PTR [rbx+0x8],rax
7014:	44 8b 45 00          	mov    r8d,DWORD PTR [rbp+0x0]
7018:	ff 75 30             	push   QWORD PTR [rbp+0x30]
701b:	ff 75 28             	push   QWORD PTR [rbp+0x28]
701e:	4c 89 f1             	mov    rcx,r14
7021:	41 57                	push   r15
7023:	44 8b 4c 24 3c       	mov    r9d,DWORD PTR [rsp+0x3c]
7028:	48 89 c7             	mov    rdi,rax
702b:	48 8b 54 24 28       	mov    rdx,QWORD PTR [rsp+0x28]
7030:	48 8b 74 24 30       	mov    rsi,QWORD PTR [rsp+0x30]
7035:	49 89 c4             	mov    r12,rax
7038:	e8 63 ec ff ff       	call   5ca0 <quotearg_buffer_restyled>
703d:	48 83 c4 20          	add    rsp,0x20
7041:	8b 44 24 18          	mov    eax,DWORD PTR [rsp+0x18]
7045:	41 89 45 00          	mov    DWORD PTR [r13+0x0],eax
7049:	48 83 c4 28          	add    rsp,0x28
704d:	4c 89 e0             	mov    rax,r12
7050:	5b                   	pop    rbx
7051:	5d                   	pop    rbp
7052:	41 5c                	pop    r12
7054:	41 5d                	pop    r13
7056:	41 5e                	pop    r14
7058:	41 5f                	pop    r15
705a:	c3                   	ret
705b:	0f 1f 44 00 00       	nop    DWORD PTR [rax+rax*1+0x0]
7060:	31 ff                	xor    edi,edi
7062:	e8 59 0e 00 00       	call   7ec0 <xrealloc>
7067:	66 0f 6f 05 21 90 20 	movdqa xmm0,XMMWORD PTR [rip+0x209021]        # 210090 <slotvec0>
706e:	00
706f:	48 89 c3             	mov    rbx,rax
7072:	48 89 05 07 90 20 00 	mov    QWORD PTR [rip+0x209007],rax        # 210080 <slotvec>
7079:	0f 11 00             	movups XMMWORD PTR [rax],xmm0
707c:	e9 dc fe ff ff       	jmp    6f5d <quotearg_n_options+0x7d>
7081:	e8 5a a7 ff ff       	call   17e0 <abort@plt>
7086:	e8 25 10 00 00       	call   80b0 <xalloc_die>
708b:	0f 1f 44 00 00       	nop    DWORD PTR [rax+rax*1+0x0]

0000000000007090 <clone_quoting_options>:
7090:	41 54                	push   r12
7092:	55                   	push   rbp
7093:	53                   	push   rbx
7094:	48 89 fb             	mov    rbx,rdi
7097:	e8 54 a7 ff ff       	call   17f0 <__errno_location@plt>
709c:	44 8b 20             	mov    r12d,DWORD PTR [rax]
709f:	48 89 c5             	mov    rbp,rax
70a2:	48 8d 05 97 92 20 00 	lea    rax,[rip+0x209297]        # 210340 <default_quoting_options>
70a9:	48 85 db             	test   rbx,rbx
70ac:	be 38 00 00 00       	mov    esi,0x38
70b1:	48 0f 44 d8          	cmove  rbx,rax
70b5:	48 89 df             	mov    rdi,rbx
70b8:	e8 a3 0f 00 00       	call   8060 <xmemdup>
70bd:	44 89 65 00          	mov    DWORD PTR [rbp+0x0],r12d
70c1:	5b                   	pop    rbx
70c2:	5d                   	pop    rbp
70c3:	41 5c                	pop    r12
70c5:	c3                   	ret
70c6:	66 2e 0f 1f 84 00 00 	nop    WORD PTR cs:[rax+rax*1+0x0]
70cd:	00 00 00

00000000000070d0 <get_quoting_style>:
70d0:	48 8d 05 69 92 20 00 	lea    rax,[rip+0x209269]        # 210340 <default_quoting_options>
70d7:	48 85 ff             	test   rdi,rdi
70da:	48 0f 44 f8          	cmove  rdi,rax
70de:	8b 07                	mov    eax,DWORD PTR [rdi]
70e0:	c3                   	ret
70e1:	0f 1f 44 00 00       	nop    DWORD PTR [rax+rax*1+0x0]
70e6:	66 2e 0f 1f 84 00 00 	nop    WORD PTR cs:[rax+rax*1+0x0]
70ed:	00 00 00

00000000000070f0 <set_quoting_style>:
70f0:	48 8d 05 49 92 20 00 	lea    rax,[rip+0x209249]        # 210340 <default_quoting_options>
70f7:	48 85 ff             	test   rdi,rdi
70fa:	48 0f 44 f8          	cmove  rdi,rax
70fe:	89 37                	mov    DWORD PTR [rdi],esi
7100:	c3                   	ret
7101:	0f 1f 44 00 00       	nop    DWORD PTR [rax+rax*1+0x0]
7106:	66 2e 0f 1f 84 00 00 	nop    WORD PTR cs:[rax+rax*1+0x0]
710d:	00 00 00

0000000000007110 <set_char_quoting>:
7110:	48 8d 05 29 92 20 00 	lea    rax,[rip+0x209229]        # 210340 <default_quoting_options>
7117:	48 85 ff             	test   rdi,rdi
711a:	89 f1                	mov    ecx,esi
711c:	48 0f 44 f8          	cmove  rdi,rax
7120:	89 f0                	mov    eax,esi
7122:	83 e1 1f             	and    ecx,0x1f
7125:	c0 e8 05             	shr    al,0x5
7128:	0f b6 c0             	movzx  eax,al
712b:	48 8d 7c 87 08       	lea    rdi,[rdi+rax*4+0x8]
7130:	8b 37                	mov    esi,DWORD PTR [rdi]
7132:	89 f0                	mov    eax,esi
7134:	d3 e8                	shr    eax,cl
7136:	31 c2                	xor    edx,eax
7138:	83 e0 01             	and    eax,0x1
713b:	83 e2 01             	and    edx,0x1
713e:	d3 e2                	shl    edx,cl
7140:	31 f2                	xor    edx,esi
7142:	89 17                	mov    DWORD PTR [rdi],edx
7144:	c3                   	ret
7145:	90                   	nop
7146:	66 2e 0f 1f 84 00 00 	nop    WORD PTR cs:[rax+rax*1+0x0]
714d:	00 00 00

0000000000007150 <set_quoting_flags>:
7150:	48 8d 05 e9 91 20 00 	lea    rax,[rip+0x2091e9]        # 210340 <default_quoting_options>
7157:	48 85 ff             	test   rdi,rdi
715a:	48 0f 44 f8          	cmove  rdi,rax
715e:	8b 47 04             	mov    eax,DWORD PTR [rdi+0x4]
7161:	89 77 04             	mov    DWORD PTR [rdi+0x4],esi
7164:	c3                   	ret
7165:	90                   	nop
7166:	66 2e 0f 1f 84 00 00 	nop    WORD PTR cs:[rax+rax*1+0x0]
716d:	00 00 00

0000000000007170 <set_custom_quoting>:
7170:	48 8d 05 c9 91 20 00 	lea    rax,[rip+0x2091c9]        # 210340 <default_quoting_options>
7177:	48 85 ff             	test   rdi,rdi
717a:	48 0f 44 f8          	cmove  rdi,rax
717e:	48 85 f6             	test   rsi,rsi
7181:	c7 07 0a 00 00 00    	mov    DWORD PTR [rdi],0xa
7187:	74 0e                	je     7197 <set_custom_quoting+0x27>
7189:	48 85 d2             	test   rdx,rdx
718c:	74 09                	je     7197 <set_custom_quoting+0x27>
718e:	48 89 77 28          	mov    QWORD PTR [rdi+0x28],rsi
7192:	48 89 57 30          	mov    QWORD PTR [rdi+0x30],rdx
7196:	c3                   	ret
7197:	48 83 ec 08          	sub    rsp,0x8
719b:	e8 40 a6 ff ff       	call   17e0 <abort@plt>

00000000000071a0 <quotearg_buffer>:
71a0:	41 57                	push   r15
71a2:	41 56                	push   r14
71a4:	48 8d 05 95 91 20 00 	lea    rax,[rip+0x209195]        # 210340 <default_quoting_options>
71ab:	41 55                	push   r13
71ad:	41 54                	push   r12
71af:	49 89 fd             	mov    r13,rdi
71b2:	55                   	push   rbp
71b3:	53                   	push   rbx
71b4:	4c 89 c3             	mov    rbx,r8
71b7:	49 89 f6             	mov    r14,rsi
71ba:	49 89 d7             	mov    r15,rdx
71bd:	48 83 ec 18          	sub    rsp,0x18
71c1:	4d 85 c0             	test   r8,r8
71c4:	48 0f 44 d8          	cmove  rbx,rax
71c8:	48 89 4c 24 08       	mov    QWORD PTR [rsp+0x8],rcx
71cd:	e8 1e a6 ff ff       	call   17f0 <__errno_location@plt>
71d2:	44 8b 20             	mov    r12d,DWORD PTR [rax]
71d5:	48 89 c5             	mov    rbp,rax
71d8:	48 8d 43 08          	lea    rax,[rbx+0x8]
71dc:	48 83 ec 08          	sub    rsp,0x8
71e0:	44 8b 4b 04          	mov    r9d,DWORD PTR [rbx+0x4]
71e4:	ff 73 30             	push   QWORD PTR [rbx+0x30]
71e7:	44 8b 03             	mov    r8d,DWORD PTR [rbx]
71ea:	ff 73 28             	push   QWORD PTR [rbx+0x28]
71ed:	4c 89 fa             	mov    rdx,r15
71f0:	50                   	push   rax
71f1:	48 8b 4c 24 28       	mov    rcx,QWORD PTR [rsp+0x28]
71f6:	4c 89 f6             	mov    rsi,r14
71f9:	4c 89 ef             	mov    rdi,r13
71fc:	e8 9f ea ff ff       	call   5ca0 <quotearg_buffer_restyled>
7201:	44 89 65 00          	mov    DWORD PTR [rbp+0x0],r12d
7205:	48 83 c4 38          	add    rsp,0x38
7209:	5b                   	pop    rbx
720a:	5d                   	pop    rbp
720b:	41 5c                	pop    r12
720d:	41 5d                	pop    r13
720f:	41 5e                	pop    r14
7211:	41 5f                	pop    r15
7213:	c3                   	ret
7214:	66 90                	xchg   ax,ax
7216:	66 2e 0f 1f 84 00 00 	nop    WORD PTR cs:[rax+rax*1+0x0]
721d:	00 00 00

0000000000007220 <quotearg_alloc_mem>:
7220:	41 57                	push   r15
7222:	41 56                	push   r14
7224:	48 8d 05 15 91 20 00 	lea    rax,[rip+0x209115]        # 210340 <default_quoting_options>
722b:	41 55                	push   r13
722d:	41 54                	push   r12
722f:	49 89 d4             	mov    r12,rdx
7232:	55                   	push   rbp
7233:	53                   	push   rbx
7234:	48 89 cb             	mov    rbx,rcx
7237:	49 89 fe             	mov    r14,rdi
723a:	49 89 f7             	mov    r15,rsi
723d:	48 83 ec 38          	sub    rsp,0x38
7241:	48 85 c9             	test   rcx,rcx
7244:	48 0f 44 d8          	cmove  rbx,rax
7248:	31 ed                	xor    ebp,ebp
724a:	e8 a1 a5 ff ff       	call   17f0 <__errno_location@plt>
724f:	4d 85 e4             	test   r12,r12
7252:	49 89 c5             	mov    r13,rax
7255:	8b 00                	mov    eax,DWORD PTR [rax]
7257:	40 0f 94 c5          	sete   bpl
725b:	0b 6b 04             	or     ebp,DWORD PTR [rbx+0x4]
725e:	4c 8d 53 08          	lea    r10,[rbx+0x8]
7262:	48 83 ec 08          	sub    rsp,0x8
7266:	44 8b 03             	mov    r8d,DWORD PTR [rbx]
7269:	4c 89 f9             	mov    rcx,r15
726c:	89 44 24 14          	mov    DWORD PTR [rsp+0x14],eax
7270:	ff 73 30             	push   QWORD PTR [rbx+0x30]
7273:	4c 89 f2             	mov    rdx,r14
7276:	ff 73 28             	push   QWORD PTR [rbx+0x28]
7279:	41 52                	push   r10
727b:	31 f6                	xor    esi,esi
727d:	41 89 e9             	mov    r9d,ebp
7280:	31 ff                	xor    edi,edi
7282:	4c 89 54 24 40       	mov    QWORD PTR [rsp+0x40],r10
7287:	e8 14 ea ff ff       	call   5ca0 <quotearg_buffer_restyled>
728c:	48 8d 70 01          	lea    rsi,[rax+0x1]
7290:	48 89 44 24 48       	mov    QWORD PTR [rsp+0x48],rax
7295:	48 83 c4 20          	add    rsp,0x20
7299:	48 89 f7             	mov    rdi,rsi
729c:	48 89 74 24 18       	mov    QWORD PTR [rsp+0x18],rsi
72a1:	e8 ba 0b 00 00       	call   7e60 <xmalloc>
72a6:	48 89 44 24 10       	mov    QWORD PTR [rsp+0x10],rax
72ab:	48 83 ec 08          	sub    rsp,0x8
72af:	ff 73 30             	push   QWORD PTR [rbx+0x30]
72b2:	ff 73 28             	push   QWORD PTR [rbx+0x28]
72b5:	4c 8b 54 24 38       	mov    r10,QWORD PTR [rsp+0x38]
72ba:	41 89 e9             	mov    r9d,ebp
72bd:	44 8b 03             	mov    r8d,DWORD PTR [rbx]
72c0:	4c 89 f9             	mov    rcx,r15
72c3:	4c 89 f2             	mov    rdx,r14
72c6:	48 89 c7             	mov    rdi,rax
72c9:	41 52                	push   r10
72cb:	48 8b 74 24 38       	mov    rsi,QWORD PTR [rsp+0x38]
72d0:	e8 cb e9 ff ff       	call   5ca0 <quotearg_buffer_restyled>
72d5:	8b 44 24 2c          	mov    eax,DWORD PTR [rsp+0x2c]
72d9:	48 83 c4 20          	add    rsp,0x20
72dd:	4d 85 e4             	test   r12,r12
72e0:	41 89 45 00          	mov    DWORD PTR [r13+0x0],eax
72e4:	74 09                	je     72ef <quotearg_alloc_mem+0xcf>
72e6:	4c 8b 5c 24 28       	mov    r11,QWORD PTR [rsp+0x28]
72eb:	4d 89 1c 24          	mov    QWORD PTR [r12],r11
72ef:	48 8b 44 24 10       	mov    rax,QWORD PTR [rsp+0x10]
72f4:	48 83 c4 38          	add    rsp,0x38
72f8:	5b                   	pop    rbx
72f9:	5d                   	pop    rbp
72fa:	41 5c                	pop    r12
72fc:	41 5d                	pop    r13
72fe:	41 5e                	pop    r14
7300:	41 5f                	pop    r15
7302:	c3                   	ret
7303:	0f 1f 00             	nop    DWORD PTR [rax]
7306:	66 2e 0f 1f 84 00 00 	nop    WORD PTR cs:[rax+rax*1+0x0]
730d:	00 00 00

0000000000007310 <quotearg_alloc>:
7310:	48 89 d1             	mov    rcx,rdx
7313:	31 d2                	xor    edx,edx
7315:	e9 06 ff ff ff       	jmp    7220 <quotearg_alloc_mem>
731a:	66 0f 1f 44 00 00    	nop    WORD PTR [rax+rax*1+0x0]

0000000000007320 <quotearg_free>:
7320:	8b 05 52 8d 20 00    	mov    eax,DWORD PTR [rip+0x208d52]        # 210078 <nslots>
7326:	41 54                	push   r12
7328:	4c 8b 25 51 8d 20 00 	mov    r12,QWORD PTR [rip+0x208d51]        # 210080 <slotvec>
732f:	55                   	push   rbp
7330:	53                   	push   rbx
7331:	83 f8 01             	cmp    eax,0x1
7334:	7e 2b                	jle    7361 <quotearg_free+0x41>
7336:	83 e8 02             	sub    eax,0x2
7339:	49 8d 5c 24 18       	lea    rbx,[r12+0x18]
733e:	48 c1 e0 04          	shl    rax,0x4
7342:	49 8d 6c 04 28       	lea    rbp,[r12+rax*1+0x28]
7347:	66 0f 1f 84 00 00 00 	nop    WORD PTR [rax+rax*1+0x0]
734e:	00 00
7350:	48 8b 3b             	mov    rdi,QWORD PTR [rbx]
7353:	48 83 c3 10          	add    rbx,0x10
7357:	e8 74 a4 ff ff       	call   17d0 <free@plt>
735c:	48 39 eb             	cmp    rbx,rbp
735f:	75 ef                	jne    7350 <quotearg_free+0x30>
7361:	49 8b 7c 24 08       	mov    rdi,QWORD PTR [r12+0x8]
7366:	48 8d 1d d3 8e 20 00 	lea    rbx,[rip+0x208ed3]        # 210240 <slot0>
736d:	48 39 df             	cmp    rdi,rbx
7370:	74 17                	je     7389 <quotearg_free+0x69>
7372:	e8 59 a4 ff ff       	call   17d0 <free@plt>
7377:	48 c7 05 0e 8d 20 00 	mov    QWORD PTR [rip+0x208d0e],0x100        # 210090 <slotvec0>
737e:	00 01 00 00
7382:	48 89 1d 0f 8d 20 00 	mov    QWORD PTR [rip+0x208d0f],rbx        # 210098 <slotvec0+0x8>
7389:	48 8d 1d 00 8d 20 00 	lea    rbx,[rip+0x208d00]        # 210090 <slotvec0>
7390:	49 39 dc             	cmp    r12,rbx
7393:	74 0f                	je     73a4 <quotearg_free+0x84>
7395:	4c 89 e7             	mov    rdi,r12
7398:	e8 33 a4 ff ff       	call   17d0 <free@plt>
739d:	48 89 1d dc 8c 20 00 	mov    QWORD PTR [rip+0x208cdc],rbx        # 210080 <slotvec>
73a4:	5b                   	pop    rbx
73a5:	c7 05 c9 8c 20 00 01 	mov    DWORD PTR [rip+0x208cc9],0x1        # 210078 <nslots>
73ac:	00 00 00
73af:	5d                   	pop    rbp
73b0:	41 5c                	pop    r12
73b2:	c3                   	ret
73b3:	0f 1f 00             	nop    DWORD PTR [rax]
73b6:	66 2e 0f 1f 84 00 00 	nop    WORD PTR cs:[rax+rax*1+0x0]
73bd:	00 00 00

00000000000073c0 <quotearg_n>:
73c0:	48 8d 0d 79 8f 20 00 	lea    rcx,[rip+0x208f79]        # 210340 <default_quoting_options>
73c7:	48 c7 c2 ff ff ff ff 	mov    rdx,0xffffffffffffffff
73ce:	e9 0d fb ff ff       	jmp    6ee0 <quotearg_n_options>
73d3:	0f 1f 00             	nop    DWORD PTR [rax]
73d6:	66 2e 0f 1f 84 00 00 	nop    WORD PTR cs:[rax+rax*1+0x0]
73dd:	00 00 00

00000000000073e0 <quotearg_n_mem>:
73e0:	48 8d 0d 59 8f 20 00 	lea    rcx,[rip+0x208f59]        # 210340 <default_quoting_options>
73e7:	e9 f4 fa ff ff       	jmp    6ee0 <quotearg_n_options>
73ec:	0f 1f 40 00          	nop    DWORD PTR [rax+0x0]

00000000000073f0 <quotearg>:
73f0:	48 8d 0d 49 8f 20 00 	lea    rcx,[rip+0x208f49]        # 210340 <default_quoting_options>
73f7:	48 89 fe             	mov    rsi,rdi
73fa:	48 c7 c2 ff ff ff ff 	mov    rdx,0xffffffffffffffff
7401:	31 ff                	xor    edi,edi
7403:	e9 d8 fa ff ff       	jmp    6ee0 <quotearg_n_options>
7408:	0f 1f 84 00 00 00 00 	nop    DWORD PTR [rax+rax*1+0x0]
740f:	00

0000000000007410 <quotearg_mem>:
7410:	48 8d 0d 29 8f 20 00 	lea    rcx,[rip+0x208f29]        # 210340 <default_quoting_options>
7417:	48 89 f2             	mov    rdx,rsi
741a:	48 89 fe             	mov    rsi,rdi
741d:	31 ff                	xor    edi,edi
741f:	e9 bc fa ff ff       	jmp    6ee0 <quotearg_n_options>
7424:	66 90                	xchg   ax,ax
7426:	66 2e 0f 1f 84 00 00 	nop    WORD PTR cs:[rax+rax*1+0x0]
742d:	00 00 00

0000000000007430 <quotearg_n_style>:
7430:	48 83 ec 48          	sub    rsp,0x48
7434:	48 89 d0             	mov    rax,rdx
7437:	64 48 8b 14 25 28 00 	mov    rdx,QWORD PTR fs:0x28
743e:	00 00
7440:	48 89 54 24 38       	mov    QWORD PTR [rsp+0x38],rdx
7445:	31 d2                	xor    edx,edx
7447:	83 fe 0a             	cmp    esi,0xa
744a:	74 68                	je     74b4 <quotearg_n_style+0x84>
744c:	89 34 24             	mov    DWORD PTR [rsp],esi
744f:	48 89 e1             	mov    rcx,rsp
7452:	48 c7 c2 ff ff ff ff 	mov    rdx,0xffffffffffffffff
7459:	48 89 c6             	mov    rsi,rax
745c:	48 c7 44 24 04 00 00 	mov    QWORD PTR [rsp+0x4],0x0
7463:	00 00
7465:	48 c7 44 24 0c 00 00 	mov    QWORD PTR [rsp+0xc],0x0
746c:	00 00
746e:	48 c7 44 24 14 00 00 	mov    QWORD PTR [rsp+0x14],0x0
7475:	00 00
7477:	48 c7 44 24 1c 00 00 	mov    QWORD PTR [rsp+0x1c],0x0
747e:	00 00
7480:	48 c7 44 24 24 00 00 	mov    QWORD PTR [rsp+0x24],0x0
7487:	00 00
7489:	48 c7 44 24 2c 00 00 	mov    QWORD PTR [rsp+0x2c],0x0
7490:	00 00
7492:	c7 44 24 34 00 00 00 	mov    DWORD PTR [rsp+0x34],0x0
7499:	00
749a:	e8 41 fa ff ff       	call   6ee0 <quotearg_n_options>
749f:	48 8b 4c 24 38       	mov    rcx,QWORD PTR [rsp+0x38]
74a4:	64 48 33 0c 25 28 00 	xor    rcx,QWORD PTR fs:0x28
74ab:	00 00
74ad:	75 0a                	jne    74b9 <quotearg_n_style+0x89>
74af:	48 83 c4 48          	add    rsp,0x48
74b3:	c3                   	ret
74b4:	e8 27 a3 ff ff       	call   17e0 <abort@plt>
74b9:	e8 22 a4 ff ff       	call   18e0 <__stack_chk_fail@plt>
74be:	66 90                	xchg   ax,ax

00000000000074c0 <quotearg_n_style_mem>:
74c0:	48 83 ec 48          	sub    rsp,0x48
74c4:	48 89 d0             	mov    rax,rdx
74c7:	48 89 ca             	mov    rdx,rcx
74ca:	64 48 8b 0c 25 28 00 	mov    rcx,QWORD PTR fs:0x28
74d1:	00 00
74d3:	48 89 4c 24 38       	mov    QWORD PTR [rsp+0x38],rcx
74d8:	31 c9                	xor    ecx,ecx
74da:	83 fe 0a             	cmp    esi,0xa
74dd:	74 61                	je     7540 <quotearg_n_style_mem+0x80>
74df:	89 34 24             	mov    DWORD PTR [rsp],esi
74e2:	48 89 e1             	mov    rcx,rsp
74e5:	48 89 c6             	mov    rsi,rax
74e8:	48 c7 44 24 04 00 00 	mov    QWORD PTR [rsp+0x4],0x0
74ef:	00 00
74f1:	48 c7 44 24 0c 00 00 	mov    QWORD PTR [rsp+0xc],0x0
74f8:	00 00
74fa:	48 c7 44 24 14 00 00 	mov    QWORD PTR [rsp+0x14],0x0
7501:	00 00
7503:	48 c7 44 24 1c 00 00 	mov    QWORD PTR [rsp+0x1c],0x0
750a:	00 00
750c:	48 c7 44 24 24 00 00 	mov    QWORD PTR [rsp+0x24],0x0
7513:	00 00
7515:	48 c7 44 24 2c 00 00 	mov    QWORD PTR [rsp+0x2c],0x0
751c:	00 00
751e:	c7 44 24 34 00 00 00 	mov    DWORD PTR [rsp+0x34],0x0
7525:	00
7526:	e8 b5 f9 ff ff       	call   6ee0 <quotearg_n_options>
752b:	48 8b 54 24 38       	mov    rdx,QWORD PTR [rsp+0x38]
7530:	64 48 33 14 25 28 00 	xor    rdx,QWORD PTR fs:0x28
7537:	00 00
7539:	75 0a                	jne    7545 <quotearg_n_style_mem+0x85>
753b:	48 83 c4 48          	add    rsp,0x48
753f:	c3                   	ret
7540:	e8 9b a2 ff ff       	call   17e0 <abort@plt>
7545:	e8 96 a3 ff ff       	call   18e0 <__stack_chk_fail@plt>
754a:	66 0f 1f 44 00 00    	nop    WORD PTR [rax+rax*1+0x0]

0000000000007550 <quotearg_style>:
7550:	48 89 f2             	mov    rdx,rsi
7553:	89 fe                	mov    esi,edi
7555:	31 ff                	xor    edi,edi
7557:	e9 d4 fe ff ff       	jmp    7430 <quotearg_n_style>
755c:	0f 1f 40 00          	nop    DWORD PTR [rax+0x0]

0000000000007560 <quotearg_style_mem>:
7560:	48 89 d1             	mov    rcx,rdx
7563:	48 89 f2             	mov    rdx,rsi
7566:	89 fe                	mov    esi,edi
7568:	31 ff                	xor    edi,edi
756a:	e9 51 ff ff ff       	jmp    74c0 <quotearg_n_style_mem>
756f:	90                   	nop

0000000000007570 <quotearg_char_mem>:
7570:	48 83 ec 48          	sub    rsp,0x48
7574:	89 d1                	mov    ecx,edx
7576:	64 48 8b 04 25 28 00 	mov    rax,QWORD PTR fs:0x28
757d:	00 00
757f:	48 89 44 24 38       	mov    QWORD PTR [rsp+0x38],rax
7584:	31 c0                	xor    eax,eax
7586:	48 8b 05 e3 8d 20 00 	mov    rax,QWORD PTR [rip+0x208de3]        # 210370 <default_quoting_options+0x30>
758d:	49 89 e0             	mov    r8,rsp
7590:	83 e1 1f             	and    ecx,0x1f
7593:	66 0f 6f 05 a5 8d 20 	movdqa xmm0,XMMWORD PTR [rip+0x208da5]        # 210340 <default_quoting_options>
759a:	00
759b:	48 89 44 24 30       	mov    QWORD PTR [rsp+0x30],rax
75a0:	89 d0                	mov    eax,edx
75a2:	0f 29 04 24          	movaps XMMWORD PTR [rsp],xmm0
75a6:	c0 e8 05             	shr    al,0x5
75a9:	0f b6 c0             	movzx  eax,al
75ac:	4d 8d 4c 80 08       	lea    r9,[r8+rax*4+0x8]
75b1:	66 0f 6f 05 97 8d 20 	movdqa xmm0,XMMWORD PTR [rip+0x208d97]        # 210350 <default_quoting_options+0x10>
75b8:	00
75b9:	0f 29 44 24 10       	movaps XMMWORD PTR [rsp+0x10],xmm0
75be:	66 0f 6f 05 9a 8d 20 	movdqa xmm0,XMMWORD PTR [rip+0x208d9a]        # 210360 <default_quoting_options+0x20>
75c5:	00
75c6:	0f 29 44 24 20       	movaps XMMWORD PTR [rsp+0x20],xmm0
75cb:	41 8b 11             	mov    edx,DWORD PTR [r9]
75ce:	89 d0                	mov    eax,edx
75d0:	d3 e8                	shr    eax,cl
75d2:	f7 d0                	not    eax
75d4:	83 e0 01             	and    eax,0x1
75d7:	d3 e0                	shl    eax,cl
75d9:	4c 89 c1             	mov    rcx,r8
75dc:	31 d0                	xor    eax,edx
75de:	48 89 f2             	mov    rdx,rsi
75e1:	48 89 fe             	mov    rsi,rdi
75e4:	41 89 01             	mov    DWORD PTR [r9],eax
75e7:	31 ff                	xor    edi,edi
75e9:	e8 f2 f8 ff ff       	call   6ee0 <quotearg_n_options>
75ee:	48 8b 74 24 38       	mov    rsi,QWORD PTR [rsp+0x38]
75f3:	64 48 33 34 25 28 00 	xor    rsi,QWORD PTR fs:0x28
75fa:	00 00
75fc:	75 05                	jne    7603 <quotearg_char_mem+0x93>
75fe:	48 83 c4 48          	add    rsp,0x48
7602:	c3                   	ret
7603:	e8 d8 a2 ff ff       	call   18e0 <__stack_chk_fail@plt>
7608:	0f 1f 84 00 00 00 00 	nop    DWORD PTR [rax+rax*1+0x0]
760f:	00

0000000000007610 <quotearg_char>:
7610:	40 0f be d6          	movsx  edx,sil
7614:	48 c7 c6 ff ff ff ff 	mov    rsi,0xffffffffffffffff
761b:	e9 50 ff ff ff       	jmp    7570 <quotearg_char_mem>

0000000000007620 <quotearg_colon>:
7620:	ba 3a 00 00 00       	mov    edx,0x3a
7625:	48 c7 c6 ff ff ff ff 	mov    rsi,0xffffffffffffffff
762c:	e9 3f ff ff ff       	jmp    7570 <quotearg_char_mem>
7631:	0f 1f 44 00 00       	nop    DWORD PTR [rax+rax*1+0x0]
7636:	66 2e 0f 1f 84 00 00 	nop    WORD PTR cs:[rax+rax*1+0x0]
763d:	00 00 00

0000000000007640 <quotearg_colon_mem>:
7640:	ba 3a 00 00 00       	mov    edx,0x3a
7645:	e9 26 ff ff ff       	jmp    7570 <quotearg_char_mem>
764a:	66 0f 1f 44 00 00    	nop    WORD PTR [rax+rax*1+0x0]

0000000000007650 <quotearg_n_style_colon>:
7650:	48 83 ec 48          	sub    rsp,0x48
7654:	48 89 d0             	mov    rax,rdx
7657:	64 48 8b 14 25 28 00 	mov    rdx,QWORD PTR fs:0x28
765e:	00 00
7660:	48 89 54 24 38       	mov    QWORD PTR [rsp+0x38],rdx
7665:	31 d2                	xor    edx,edx
7667:	83 fe 0a             	cmp    esi,0xa
766a:	74 68                	je     76d4 <quotearg_n_style_colon+0x84>
766c:	89 34 24             	mov    DWORD PTR [rsp],esi
766f:	48 89 e1             	mov    rcx,rsp
7672:	48 c7 c2 ff ff ff ff 	mov    rdx,0xffffffffffffffff
7679:	48 89 c6             	mov    rsi,rax
767c:	48 c7 44 24 04 00 00 	mov    QWORD PTR [rsp+0x4],0x0
7683:	00 00
7685:	48 c7 44 24 0c 00 00 	mov    QWORD PTR [rsp+0xc],0x4000000
768c:	00 04
768e:	48 c7 44 24 14 00 00 	mov    QWORD PTR [rsp+0x14],0x0
7695:	00 00
7697:	48 c7 44 24 1c 00 00 	mov    QWORD PTR [rsp+0x1c],0x0
769e:	00 00
76a0:	48 c7 44 24 24 00 00 	mov    QWORD PTR [rsp+0x24],0x0
76a7:	00 00
76a9:	48 c7 44 24 2c 00 00 	mov    QWORD PTR [rsp+0x2c],0x0
76b0:	00 00
76b2:	c7 44 24 34 00 00 00 	mov    DWORD PTR [rsp+0x34],0x0
76b9:	00
76ba:	e8 21 f8 ff ff       	call   6ee0 <quotearg_n_options>
76bf:	48 8b 4c 24 38       	mov    rcx,QWORD PTR [rsp+0x38]
76c4:	64 48 33 0c 25 28 00 	xor    rcx,QWORD PTR fs:0x28
76cb:	00 00
76cd:	75 0a                	jne    76d9 <quotearg_n_style_colon+0x89>
76cf:	48 83 c4 48          	add    rsp,0x48
76d3:	c3                   	ret
76d4:	e8 07 a1 ff ff       	call   17e0 <abort@plt>
76d9:	e8 02 a2 ff ff       	call   18e0 <__stack_chk_fail@plt>
76de:	66 90                	xchg   ax,ax

00000000000076e0 <quotearg_n_custom_mem>:
76e0:	48 83 ec 48          	sub    rsp,0x48
76e4:	49 89 c9             	mov    r9,rcx
76e7:	48 8b 0d 82 8c 20 00 	mov    rcx,QWORD PTR [rip+0x208c82]        # 210370 <default_quoting_options+0x30>
76ee:	66 0f 6f 05 4a 8c 20 	movdqa xmm0,XMMWORD PTR [rip+0x208c4a]        # 210340 <default_quoting_options>
76f5:	00
76f6:	64 48 8b 04 25 28 00 	mov    rax,QWORD PTR fs:0x28
76fd:	00 00
76ff:	48 89 44 24 38       	mov    QWORD PTR [rsp+0x38],rax
7704:	31 c0                	xor    eax,eax
7706:	0f 29 04 24          	movaps XMMWORD PTR [rsp],xmm0
770a:	48 85 f6             	test   rsi,rsi
770d:	48 89 4c 24 30       	mov    QWORD PTR [rsp+0x30],rcx
7712:	c7 04 24 0a 00 00 00 	mov    DWORD PTR [rsp],0xa
7719:	66 0f 6f 05 2f 8c 20 	movdqa xmm0,XMMWORD PTR [rip+0x208c2f]        # 210350 <default_quoting_options+0x10>
7720:	00
7721:	0f 29 44 24 10       	movaps XMMWORD PTR [rsp+0x10],xmm0
7726:	66 0f 6f 05 32 8c 20 	movdqa xmm0,XMMWORD PTR [rip+0x208c32]        # 210360 <default_quoting_options+0x20>
772d:	00
772e:	0f 29 44 24 20       	movaps XMMWORD PTR [rsp+0x20],xmm0
7733:	74 32                	je     7767 <quotearg_n_custom_mem+0x87>
7735:	48 85 d2             	test   rdx,rdx
7738:	74 2d                	je     7767 <quotearg_n_custom_mem+0x87>
773a:	48 89 74 24 28       	mov    QWORD PTR [rsp+0x28],rsi
773f:	48 89 54 24 30       	mov    QWORD PTR [rsp+0x30],rdx
7744:	48 89 e1             	mov    rcx,rsp
7747:	4c 89 c2             	mov    rdx,r8
774a:	4c 89 ce             	mov    rsi,r9
774d:	e8 8e f7 ff ff       	call   6ee0 <quotearg_n_options>
7752:	48 8b 7c 24 38       	mov    rdi,QWORD PTR [rsp+0x38]
7757:	64 48 33 3c 25 28 00 	xor    rdi,QWORD PTR fs:0x28
775e:	00 00
7760:	75 0a                	jne    776c <quotearg_n_custom_mem+0x8c>
7762:	48 83 c4 48          	add    rsp,0x48
7766:	c3                   	ret
7767:	e8 74 a0 ff ff       	call   17e0 <abort@plt>
776c:	e8 6f a1 ff ff       	call   18e0 <__stack_chk_fail@plt>
7771:	0f 1f 44 00 00       	nop    DWORD PTR [rax+rax*1+0x0]
7776:	66 2e 0f 1f 84 00 00 	nop    WORD PTR cs:[rax+rax*1+0x0]
777d:	00 00 00

0000000000007780 <quotearg_n_custom>:
7780:	49 c7 c0 ff ff ff ff 	mov    r8,0xffffffffffffffff
7787:	e9 54 ff ff ff       	jmp    76e0 <quotearg_n_custom_mem>
778c:	0f 1f 40 00          	nop    DWORD PTR [rax+0x0]

0000000000007790 <quotearg_custom>:
7790:	48 89 d1             	mov    rcx,rdx
7793:	49 c7 c0 ff ff ff ff 	mov    r8,0xffffffffffffffff
779a:	48 89 f2             	mov    rdx,rsi
779d:	48 89 fe             	mov    rsi,rdi
77a0:	31 ff                	xor    edi,edi
77a2:	e9 39 ff ff ff       	jmp    76e0 <quotearg_n_custom_mem>
77a7:	66 0f 1f 84 00 00 00 	nop    WORD PTR [rax+rax*1+0x0]
77ae:	00 00

00000000000077b0 <quotearg_custom_mem>:
77b0:	49 89 c8             	mov    r8,rcx
77b3:	48 89 d1             	mov    rcx,rdx
77b6:	48 89 f2             	mov    rdx,rsi
77b9:	48 89 fe             	mov    rsi,rdi
77bc:	31 ff                	xor    edi,edi
77be:	e9 1d ff ff ff       	jmp    76e0 <quotearg_n_custom_mem>
77c3:	0f 1f 00             	nop    DWORD PTR [rax]
77c6:	66 2e 0f 1f 84 00 00 	nop    WORD PTR cs:[rax+rax*1+0x0]
77cd:	00 00 00

00000000000077d0 <quote_n_mem>:
77d0:	48 8d 0d 69 88 20 00 	lea    rcx,[rip+0x208869]        # 210040 <quote_quoting_options>
77d7:	e9 04 f7 ff ff       	jmp    6ee0 <quotearg_n_options>
77dc:	0f 1f 40 00          	nop    DWORD PTR [rax+0x0]

00000000000077e0 <quote_mem>:
77e0:	48 8d 0d 59 88 20 00 	lea    rcx,[rip+0x208859]        # 210040 <quote_quoting_options>
77e7:	48 89 f2             	mov    rdx,rsi
77ea:	48 89 fe             	mov    rsi,rdi
77ed:	31 ff                	xor    edi,edi
77ef:	e9 ec f6 ff ff       	jmp    6ee0 <quotearg_n_options>
77f4:	66 90                	xchg   ax,ax
77f6:	66 2e 0f 1f 84 00 00 	nop    WORD PTR cs:[rax+rax*1+0x0]
77fd:	00 00 00

0000000000007800 <quote_n>:
7800:	48 8d 0d 39 88 20 00 	lea    rcx,[rip+0x208839]        # 210040 <quote_quoting_options>
7807:	48 c7 c2 ff ff ff ff 	mov    rdx,0xffffffffffffffff
780e:	e9 cd f6 ff ff       	jmp    6ee0 <quotearg_n_options>
7813:	0f 1f 00             	nop    DWORD PTR [rax]
7816:	66 2e 0f 1f 84 00 00 	nop    WORD PTR cs:[rax+rax*1+0x0]
781d:	00 00 00

0000000000007820 <quote>:
7820:	48 8d 0d 19 88 20 00 	lea    rcx,[rip+0x208819]        # 210040 <quote_quoting_options>
7827:	48 89 fe             	mov    rsi,rdi
782a:	48 c7 c2 ff ff ff ff 	mov    rdx,0xffffffffffffffff
7831:	31 ff                	xor    edi,edi
7833:	e9 a8 f6 ff ff       	jmp    6ee0 <quotearg_n_options>
7838:	0f 1f 84 00 00 00 00 	nop    DWORD PTR [rax+rax*1+0x0]
783f:	00

0000000000007840 <version_etc_arn>:
7840:	41 57                	push   r15
7842:	41 56                	push   r14
7844:	41 55                	push   r13
7846:	41 54                	push   r12
7848:	4d 89 cc             	mov    r12,r9
784b:	55                   	push   rbp
784c:	53                   	push   rbx
784d:	48 89 fd             	mov    rbp,rdi
7850:	4c 89 c3             	mov    rbx,r8
7853:	48 83 ec 28          	sub    rsp,0x28
7857:	48 85 f6             	test   rsi,rsi
785a:	0f 84 18 01 00 00    	je     7978 <version_etc_arn+0x138>
7860:	49 89 d0             	mov    r8,rdx
7863:	48 8d 15 fe 54 00 00 	lea    rdx,[rip+0x54fe]        # cd68 <quoting_style_vals+0x28>
786a:	49 89 c9             	mov    r9,rcx
786d:	31 c0                	xor    eax,eax
786f:	48 89 f1             	mov    rcx,rsi
7872:	be 01 00 00 00       	mov    esi,0x1
7877:	e8 94 a2 ff ff       	call   1b10 <__fprintf_chk@plt>
787c:	48 8d 35 f8 54 00 00 	lea    rsi,[rip+0x54f8]        # cd7b <quoting_style_vals+0x3b>
7883:	31 ff                	xor    edi,edi
7885:	ba 05 00 00 00       	mov    edx,0x5
788a:	e8 21 a0 ff ff       	call   18b0 <dcgettext@plt>
788f:	48 8d 15 0a 58 00 00 	lea    rdx,[rip+0x580a]        # d0a0 <version_etc_copyright>
7896:	48 89 c1             	mov    rcx,rax
7899:	41 b8 e3 07 00 00    	mov    r8d,0x7e3
789f:	be 01 00 00 00       	mov    esi,0x1
78a4:	48 89 ef             	mov    rdi,rbp
78a7:	31 c0                	xor    eax,eax
78a9:	e8 62 a2 ff ff       	call   1b10 <__fprintf_chk@plt>
78ae:	48 8d 35 53 55 00 00 	lea    rsi,[rip+0x5553]        # ce08 <quoting_style_vals+0xc8>
78b5:	31 ff                	xor    edi,edi
78b7:	ba 05 00 00 00       	mov    edx,0x5
78bc:	e8 ef 9f ff ff       	call   18b0 <dcgettext@plt>
78c1:	48 89 ee             	mov    rsi,rbp
78c4:	48 89 c7             	mov    rdi,rax
78c7:	e8 e4 a0 ff ff       	call   19b0 <fputs_unlocked@plt>
78cc:	49 83 fc 09          	cmp    r12,0x9
78d0:	0f 87 3a 03 00 00    	ja     7c10 <version_etc_arn+0x3d0>
78d6:	48 8d 15 87 57 00 00 	lea    rdx,[rip+0x5787]        # d064 <quoting_style_vals+0x324>
78dd:	4a 63 04 a2          	movsxd rax,DWORD PTR [rdx+r12*4]
78e1:	48 01 d0             	add    rax,rdx
78e4:	ff e0                	jmp    rax
78e6:	66 2e 0f 1f 84 00 00 	nop    WORD PTR cs:[rax+rax*1+0x0]
78ed:	00 00 00
78f0:	4c 8b 4b 38          	mov    r9,QWORD PTR [rbx+0x38]
78f4:	48 8b 43 10          	mov    rax,QWORD PTR [rbx+0x10]
78f8:	48 8d 35 79 56 00 00 	lea    rsi,[rip+0x5679]        # cf78 <quoting_style_vals+0x238>
78ff:	4c 8b 43 08          	mov    r8,QWORD PTR [rbx+0x8]
7903:	ba 05 00 00 00       	mov    edx,0x5
7908:	31 ff                	xor    edi,edi
790a:	4c 8b 6b 30          	mov    r13,QWORD PTR [rbx+0x30]
790e:	4c 8b 63 28          	mov    r12,QWORD PTR [rbx+0x28]
7912:	4c 89 4c 24 10       	mov    QWORD PTR [rsp+0x10],r9
7917:	4c 8b 7b 20          	mov    r15,QWORD PTR [rbx+0x20]
791b:	4c 8b 73 18          	mov    r14,QWORD PTR [rbx+0x18]
791f:	48 89 04 24          	mov    QWORD PTR [rsp],rax
7923:	4c 89 44 24 08       	mov    QWORD PTR [rsp+0x8],r8
7928:	48 8b 1b             	mov    rbx,QWORD PTR [rbx]
792b:	e8 80 9f ff ff       	call   18b0 <dcgettext@plt>
7930:	48 83 ec 08          	sub    rsp,0x8
7934:	4c 8b 4c 24 18       	mov    r9,QWORD PTR [rsp+0x18]
7939:	48 89 c2             	mov    rdx,rax
793c:	48 89 d9             	mov    rcx,rbx
793f:	be 01 00 00 00       	mov    esi,0x1
7944:	48 89 ef             	mov    rdi,rbp
7947:	31 c0                	xor    eax,eax
7949:	41 51                	push   r9
794b:	41 55                	push   r13
794d:	41 54                	push   r12
794f:	41 57                	push   r15
7951:	41 56                	push   r14
7953:	4c 8b 4c 24 30       	mov    r9,QWORD PTR [rsp+0x30]
7958:	4c 8b 44 24 38       	mov    r8,QWORD PTR [rsp+0x38]
795d:	e8 ae a1 ff ff       	call   1b10 <__fprintf_chk@plt>
7962:	48 83 c4 30          	add    rsp,0x30
7966:	48 83 c4 28          	add    rsp,0x28
796a:	5b                   	pop    rbx
796b:	5d                   	pop    rbp
796c:	41 5c                	pop    r12
796e:	41 5d                	pop    r13
7970:	41 5e                	pop    r14
7972:	41 5f                	pop    r15
7974:	c3                   	ret
7975:	0f 1f 00             	nop    DWORD PTR [rax]
7978:	49 89 c8             	mov    r8,rcx
797b:	48 89 d1             	mov    rcx,rdx
797e:	48 8d 15 ef 53 00 00 	lea    rdx,[rip+0x53ef]        # cd74 <quoting_style_vals+0x34>
7985:	be 01 00 00 00       	mov    esi,0x1
798a:	31 c0                	xor    eax,eax
798c:	e8 7f a1 ff ff       	call   1b10 <__fprintf_chk@plt>
7991:	e9 e6 fe ff ff       	jmp    787c <version_etc_arn+0x3c>
7996:	66 2e 0f 1f 84 00 00 	nop    WORD PTR cs:[rax+rax*1+0x0]
799d:	00 00 00
79a0:	4c 8b 53 40          	mov    r10,QWORD PTR [rbx+0x40]
79a4:	4c 8b 4b 38          	mov    r9,QWORD PTR [rbx+0x38]
79a8:	48 8d 35 f9 55 00 00 	lea    rsi,[rip+0x55f9]        # cfa8 <quoting_style_vals+0x268>
79af:	48 8b 43 10          	mov    rax,QWORD PTR [rbx+0x10]
79b3:	4c 8b 43 08          	mov    r8,QWORD PTR [rbx+0x8]
79b7:	ba 05 00 00 00       	mov    edx,0x5
79bc:	4c 8b 6b 30          	mov    r13,QWORD PTR [rbx+0x30]
79c0:	4c 8b 63 28          	mov    r12,QWORD PTR [rbx+0x28]
79c4:	4c 8b 7b 20          	mov    r15,QWORD PTR [rbx+0x20]
79c8:	4c 8b 73 18          	mov    r14,QWORD PTR [rbx+0x18]
79cc:	48 8b 1b             	mov    rbx,QWORD PTR [rbx]
79cf:	4c 89 54 24 18       	mov    QWORD PTR [rsp+0x18],r10
79d4:	4c 89 4c 24 10       	mov    QWORD PTR [rsp+0x10],r9
79d9:	48 89 04 24          	mov    QWORD PTR [rsp],rax
79dd:	4c 89 44 24 08       	mov    QWORD PTR [rsp+0x8],r8
79e2:	31 ff                	xor    edi,edi
79e4:	e8 c7 9e ff ff       	call   18b0 <dcgettext@plt>
79e9:	4c 8b 54 24 18       	mov    r10,QWORD PTR [rsp+0x18]
79ee:	41 52                	push   r10
79f0:	e9 3f ff ff ff       	jmp    7934 <version_etc_arn+0xf4>
79f5:	0f 1f 00             	nop    DWORD PTR [rax]
79f8:	48 8b 1b             	mov    rbx,QWORD PTR [rbx]
79fb:	48 8d 35 7d 53 00 00 	lea    rsi,[rip+0x537d]        # cd7f <quoting_style_vals+0x3f>
7a02:	ba 05 00 00 00       	mov    edx,0x5
7a07:	31 ff                	xor    edi,edi
7a09:	e8 a2 9e ff ff       	call   18b0 <dcgettext@plt>
7a0e:	48 83 c4 28          	add    rsp,0x28
7a12:	48 89 d9             	mov    rcx,rbx
7a15:	48 89 ef             	mov    rdi,rbp
7a18:	5b                   	pop    rbx
7a19:	5d                   	pop    rbp
7a1a:	41 5c                	pop    r12
7a1c:	41 5d                	pop    r13
7a1e:	41 5e                	pop    r14
7a20:	41 5f                	pop    r15
7a22:	48 89 c2             	mov    rdx,rax
7a25:	be 01 00 00 00       	mov    esi,0x1
7a2a:	31 c0                	xor    eax,eax
7a2c:	e9 df a0 ff ff       	jmp    1b10 <__fprintf_chk@plt>
7a31:	0f 1f 80 00 00 00 00 	nop    DWORD PTR [rax+0x0]
7a38:	4c 8b 63 08          	mov    r12,QWORD PTR [rbx+0x8]
7a3c:	48 8d 35 4c 53 00 00 	lea    rsi,[rip+0x534c]        # cd8f <quoting_style_vals+0x4f>
7a43:	48 8b 1b             	mov    rbx,QWORD PTR [rbx]
7a46:	ba 05 00 00 00       	mov    edx,0x5
7a4b:	31 ff                	xor    edi,edi
7a4d:	e8 5e 9e ff ff       	call   18b0 <dcgettext@plt>
7a52:	48 83 c4 28          	add    rsp,0x28
7a56:	4d 89 e0             	mov    r8,r12
7a59:	48 89 d9             	mov    rcx,rbx
7a5c:	48 89 ef             	mov    rdi,rbp
7a5f:	48 89 c2             	mov    rdx,rax
7a62:	be 01 00 00 00       	mov    esi,0x1
7a67:	5b                   	pop    rbx
7a68:	5d                   	pop    rbp
7a69:	41 5c                	pop    r12
7a6b:	41 5d                	pop    r13
7a6d:	41 5e                	pop    r14
7a6f:	41 5f                	pop    r15
7a71:	31 c0                	xor    eax,eax
7a73:	e9 98 a0 ff ff       	jmp    1b10 <__fprintf_chk@plt>
7a78:	0f 1f 84 00 00 00 00 	nop    DWORD PTR [rax+rax*1+0x0]
7a7f:	00
7a80:	4c 8b 6b 10          	mov    r13,QWORD PTR [rbx+0x10]
7a84:	4c 8b 63 08          	mov    r12,QWORD PTR [rbx+0x8]
7a88:	48 8d 35 17 53 00 00 	lea    rsi,[rip+0x5317]        # cda6 <quoting_style_vals+0x66>
7a8f:	48 8b 1b             	mov    rbx,QWORD PTR [rbx]
7a92:	ba 05 00 00 00       	mov    edx,0x5
7a97:	31 ff                	xor    edi,edi
7a99:	e8 12 9e ff ff       	call   18b0 <dcgettext@plt>
7a9e:	48 83 c4 28          	add    rsp,0x28
7aa2:	4d 89 e9             	mov    r9,r13
7aa5:	4d 89 e0             	mov    r8,r12
7aa8:	48 89 d9             	mov    rcx,rbx
7aab:	48 89 ef             	mov    rdi,rbp
7aae:	48 89 c2             	mov    rdx,rax
7ab1:	5b                   	pop    rbx
7ab2:	5d                   	pop    rbp
7ab3:	41 5c                	pop    r12
7ab5:	41 5d                	pop    r13
7ab7:	41 5e                	pop    r14
7ab9:	41 5f                	pop    r15
7abb:	be 01 00 00 00       	mov    esi,0x1
7ac0:	31 c0                	xor    eax,eax
7ac2:	e9 49 a0 ff ff       	jmp    1b10 <__fprintf_chk@plt>
7ac7:	66 0f 1f 84 00 00 00 	nop    WORD PTR [rax+rax*1+0x0]
7ace:	00 00
7ad0:	48 8d 35 01 54 00 00 	lea    rsi,[rip+0x5401]        # ced8 <quoting_style_vals+0x198>
7ad7:	ba 05 00 00 00       	mov    edx,0x5
7adc:	31 ff                	xor    edi,edi
7ade:	4c 8b 73 18          	mov    r14,QWORD PTR [rbx+0x18]
7ae2:	4c 8b 6b 10          	mov    r13,QWORD PTR [rbx+0x10]
7ae6:	4c 8b 63 08          	mov    r12,QWORD PTR [rbx+0x8]
7aea:	48 8b 1b             	mov    rbx,QWORD PTR [rbx]
7aed:	e8 be 9d ff ff       	call   18b0 <dcgettext@plt>
7af2:	48 83 ec 08          	sub    rsp,0x8
7af6:	41 56                	push   r14
7af8:	48 89 c2             	mov    rdx,rax
7afb:	4d 89 e9             	mov    r9,r13
7afe:	4d 89 e0             	mov    r8,r12
7b01:	48 89 d9             	mov    rcx,rbx
7b04:	48 89 ef             	mov    rdi,rbp
7b07:	be 01 00 00 00       	mov    esi,0x1
7b0c:	31 c0                	xor    eax,eax
7b0e:	e8 fd 9f ff ff       	call   1b10 <__fprintf_chk@plt>
7b13:	58                   	pop    rax
7b14:	5a                   	pop    rdx
7b15:	48 83 c4 28          	add    rsp,0x28
7b19:	5b                   	pop    rbx
7b1a:	5d                   	pop    rbp
7b1b:	41 5c                	pop    r12
7b1d:	41 5d                	pop    r13
7b1f:	41 5e                	pop    r14
7b21:	41 5f                	pop    r15
7b23:	c3                   	ret
7b24:	0f 1f 40 00          	nop    DWORD PTR [rax+0x0]
7b28:	4c 8b 7b 20          	mov    r15,QWORD PTR [rbx+0x20]
7b2c:	48 8d 35 c5 53 00 00 	lea    rsi,[rip+0x53c5]        # cef8 <quoting_style_vals+0x1b8>
7b33:	ba 05 00 00 00       	mov    edx,0x5
7b38:	31 ff                	xor    edi,edi
7b3a:	4c 8b 73 18          	mov    r14,QWORD PTR [rbx+0x18]
7b3e:	4c 8b 6b 10          	mov    r13,QWORD PTR [rbx+0x10]
7b42:	4c 8b 63 08          	mov    r12,QWORD PTR [rbx+0x8]
7b46:	48 8b 1b             	mov    rbx,QWORD PTR [rbx]
7b49:	e8 62 9d ff ff       	call   18b0 <dcgettext@plt>
7b4e:	41 57                	push   r15
7b50:	eb a4                	jmp    7af6 <version_etc_arn+0x2b6>
7b52:	66 0f 1f 44 00 00    	nop    WORD PTR [rax+rax*1+0x0]
7b58:	4c 8b 43 08          	mov    r8,QWORD PTR [rbx+0x8]
7b5c:	4c 8b 63 28          	mov    r12,QWORD PTR [rbx+0x28]
7b60:	48 8d 35 b9 53 00 00 	lea    rsi,[rip+0x53b9]        # cf20 <quoting_style_vals+0x1e0>
7b67:	4c 8b 7b 20          	mov    r15,QWORD PTR [rbx+0x20]
7b6b:	4c 8b 73 18          	mov    r14,QWORD PTR [rbx+0x18]
7b6f:	ba 05 00 00 00       	mov    edx,0x5
7b74:	4c 8b 6b 10          	mov    r13,QWORD PTR [rbx+0x10]
7b78:	31 ff                	xor    edi,edi
7b7a:	48 8b 1b             	mov    rbx,QWORD PTR [rbx]
7b7d:	4c 89 04 24          	mov    QWORD PTR [rsp],r8
7b81:	e8 2a 9d ff ff       	call   18b0 <dcgettext@plt>
7b86:	48 83 ec 08          	sub    rsp,0x8
7b8a:	4d 89 e9             	mov    r9,r13
7b8d:	41 54                	push   r12
7b8f:	41 57                	push   r15
7b91:	41 56                	push   r14
7b93:	4c 8b 44 24 20       	mov    r8,QWORD PTR [rsp+0x20]
7b98:	48 89 d9             	mov    rcx,rbx
7b9b:	48 89 c2             	mov    rdx,rax
7b9e:	48 89 ef             	mov    rdi,rbp
7ba1:	be 01 00 00 00       	mov    esi,0x1
7ba6:	31 c0                	xor    eax,eax
7ba8:	e8 63 9f ff ff       	call   1b10 <__fprintf_chk@plt>
7bad:	48 83 c4 20          	add    rsp,0x20
7bb1:	48 83 c4 28          	add    rsp,0x28
7bb5:	5b                   	pop    rbx
7bb6:	5d                   	pop    rbp
7bb7:	41 5c                	pop    r12
7bb9:	41 5d                	pop    r13
7bbb:	41 5e                	pop    r14
7bbd:	41 5f                	pop    r15
7bbf:	c3                   	ret
7bc0:	4c 8b 4b 10          	mov    r9,QWORD PTR [rbx+0x10]
7bc4:	4c 8b 6b 30          	mov    r13,QWORD PTR [rbx+0x30]
7bc8:	48 8d 35 79 53 00 00 	lea    rsi,[rip+0x5379]        # cf48 <quoting_style_vals+0x208>
7bcf:	4c 8b 63 28          	mov    r12,QWORD PTR [rbx+0x28]
7bd3:	4c 8b 7b 20          	mov    r15,QWORD PTR [rbx+0x20]
7bd7:	ba 05 00 00 00       	mov    edx,0x5
7bdc:	4c 8b 73 18          	mov    r14,QWORD PTR [rbx+0x18]
7be0:	4c 8b 43 08          	mov    r8,QWORD PTR [rbx+0x8]
7be4:	31 ff                	xor    edi,edi
7be6:	4c 89 4c 24 08       	mov    QWORD PTR [rsp+0x8],r9
7beb:	48 8b 1b             	mov    rbx,QWORD PTR [rbx]
7bee:	4c 89 04 24          	mov    QWORD PTR [rsp],r8
7bf2:	e8 b9 9c ff ff       	call   18b0 <dcgettext@plt>
7bf7:	41 55                	push   r13
7bf9:	41 54                	push   r12
7bfb:	41 57                	push   r15
7bfd:	41 56                	push   r14
7bff:	4c 8b 4c 24 28       	mov    r9,QWORD PTR [rsp+0x28]
7c04:	eb 8d                	jmp    7b93 <version_etc_arn+0x353>
7c06:	66 2e 0f 1f 84 00 00 	nop    WORD PTR cs:[rax+rax*1+0x0]
7c0d:	00 00 00
7c10:	4c 8b 53 40          	mov    r10,QWORD PTR [rbx+0x40]
7c14:	4c 8b 4b 38          	mov    r9,QWORD PTR [rbx+0x38]
7c18:	ba 05 00 00 00       	mov    edx,0x5
7c1d:	48 8b 43 10          	mov    rax,QWORD PTR [rbx+0x10]
7c21:	4c 8b 43 08          	mov    r8,QWORD PTR [rbx+0x8]
7c25:	48 8d 35 b4 53 00 00 	lea    rsi,[rip+0x53b4]        # cfe0 <quoting_style_vals+0x2a0>
7c2c:	4c 8b 6b 30          	mov    r13,QWORD PTR [rbx+0x30]
7c30:	4c 8b 63 28          	mov    r12,QWORD PTR [rbx+0x28]
7c34:	4c 8b 7b 20          	mov    r15,QWORD PTR [rbx+0x20]
7c38:	4c 8b 73 18          	mov    r14,QWORD PTR [rbx+0x18]
7c3c:	4c 89 54 24 18       	mov    QWORD PTR [rsp+0x18],r10
7c41:	4c 89 4c 24 10       	mov    QWORD PTR [rsp+0x10],r9
7c46:	48 89 04 24          	mov    QWORD PTR [rsp],rax
7c4a:	4c 89 44 24 08       	mov    QWORD PTR [rsp+0x8],r8
7c4f:	48 8b 1b             	mov    rbx,QWORD PTR [rbx]
7c52:	e9 8b fd ff ff       	jmp    79e2 <version_etc_arn+0x1a2>
7c57:	66 0f 1f 84 00 00 00 	nop    WORD PTR [rax+rax*1+0x0]
7c5e:	00 00

0000000000007c60 <version_etc_ar>:
7c60:	45 31 c9             	xor    r9d,r9d
7c63:	49 83 38 00          	cmp    QWORD PTR [r8],0x0
7c67:	74 12                	je     7c7b <version_etc_ar+0x1b>
7c69:	0f 1f 80 00 00 00 00 	nop    DWORD PTR [rax+0x0]
7c70:	49 83 c1 01          	add    r9,0x1
7c74:	4b 83 3c c8 00       	cmp    QWORD PTR [r8+r9*8],0x0
7c79:	75 f5                	jne    7c70 <version_etc_ar+0x10>
7c7b:	e9 c0 fb ff ff       	jmp    7840 <version_etc_arn>

0000000000007c80 <version_etc_va>:
7c80:	48 83 ec 68          	sub    rsp,0x68
7c84:	4d 89 c2             	mov    r10,r8
7c87:	45 31 c9             	xor    r9d,r9d
7c8a:	64 48 8b 04 25 28 00 	mov    rax,QWORD PTR fs:0x28
7c91:	00 00
7c93:	48 89 44 24 58       	mov    QWORD PTR [rsp+0x58],rax
7c98:	31 c0                	xor    eax,eax
7c9a:	49 89 e0             	mov    r8,rsp
7c9d:	0f 1f 00             	nop    DWORD PTR [rax]
7ca0:	41 8b 02             	mov    eax,DWORD PTR [r10]
7ca3:	83 f8 2f             	cmp    eax,0x2f
7ca6:	77 42                	ja     7cea <version_etc_va+0x6a>
7ca8:	41 89 c3             	mov    r11d,eax
7cab:	4d 03 5a 10          	add    r11,QWORD PTR [r10+0x10]
7caf:	83 c0 08             	add    eax,0x8
7cb2:	41 89 02             	mov    DWORD PTR [r10],eax
7cb5:	49 8b 03             	mov    rax,QWORD PTR [r11]
7cb8:	48 85 c0             	test   rax,rax
7cbb:	4b 89 04 c8          	mov    QWORD PTR [r8+r9*8],rax
7cbf:	74 0a                	je     7ccb <version_etc_va+0x4b>
7cc1:	49 83 c1 01          	add    r9,0x1
7cc5:	49 83 f9 0a          	cmp    r9,0xa
7cc9:	75 d5                	jne    7ca0 <version_etc_va+0x20>
7ccb:	e8 70 fb ff ff       	call   7840 <version_etc_arn>
7cd0:	48 8b 44 24 58       	mov    rax,QWORD PTR [rsp+0x58]
7cd5:	64 48 33 04 25 28 00 	xor    rax,QWORD PTR fs:0x28
7cdc:	00 00
7cde:	75 05                	jne    7ce5 <version_etc_va+0x65>
7ce0:	48 83 c4 68          	add    rsp,0x68
7ce4:	c3                   	ret
7ce5:	e8 f6 9b ff ff       	call   18e0 <__stack_chk_fail@plt>
7cea:	4d 8b 5a 08          	mov    r11,QWORD PTR [r10+0x8]
7cee:	49 8d 43 08          	lea    rax,[r11+0x8]
7cf2:	49 89 42 08          	mov    QWORD PTR [r10+0x8],rax
7cf6:	eb bd                	jmp    7cb5 <version_etc_va+0x35>
7cf8:	0f 1f 84 00 00 00 00 	nop    DWORD PTR [rax+rax*1+0x0]
7cff:	00

0000000000007d00 <version_etc>:
7d00:	55                   	push   rbp
7d01:	53                   	push   rbx
7d02:	41 ba 20 00 00 00    	mov    r10d,0x20
7d08:	45 31 db             	xor    r11d,r11d
7d0b:	48 81 ec b8 00 00 00 	sub    rsp,0xb8
7d12:	64 48 8b 04 25 28 00 	mov    rax,QWORD PTR fs:0x28
7d19:	00 00
7d1b:	48 89 44 24 78       	mov    QWORD PTR [rsp+0x78],rax
7d20:	31 c0                	xor    eax,eax
7d22:	48 8d 84 24 d0 00 00 	lea    rax,[rsp+0xd0]
7d29:	00
7d2a:	4c 89 84 24 a0 00 00 	mov    QWORD PTR [rsp+0xa0],r8
7d31:	00
7d32:	48 8d 9c 24 d0 00 00 	lea    rbx,[rsp+0xd0]
7d39:	00
7d3a:	4c 8d 44 24 20       	lea    r8,[rsp+0x20]
7d3f:	4c 89 8c 24 a8 00 00 	mov    QWORD PTR [rsp+0xa8],r9
7d46:	00
7d47:	c7 44 24 08 20 00 00 	mov    DWORD PTR [rsp+0x8],0x20
7d4e:	00
7d4f:	48 89 44 24 10       	mov    QWORD PTR [rsp+0x10],rax
7d54:	48 8d 84 24 80 00 00 	lea    rax,[rsp+0x80]
7d5b:	00
7d5c:	45 31 c9             	xor    r9d,r9d
7d5f:	48 89 44 24 18       	mov    QWORD PTR [rsp+0x18],rax
7d64:	48 89 c5             	mov    rbp,rax
7d67:	66 0f 1f 84 00 00 00 	nop    WORD PTR [rax+rax*1+0x0]
7d6e:	00 00
7d70:	41 83 fa 2f          	cmp    r10d,0x2f
7d74:	77 56                	ja     7dcc <version_etc+0xcc>
7d76:	44 89 d0             	mov    eax,r10d
7d79:	41 bb 01 00 00 00    	mov    r11d,0x1
7d7f:	41 83 c2 08          	add    r10d,0x8
7d83:	48 01 e8             	add    rax,rbp
7d86:	48 8b 00             	mov    rax,QWORD PTR [rax]
7d89:	48 85 c0             	test   rax,rax
7d8c:	4b 89 04 c8          	mov    QWORD PTR [r8+r9*8],rax
7d90:	74 0a                	je     7d9c <version_etc+0x9c>
7d92:	49 83 c1 01          	add    r9,0x1
7d96:	49 83 f9 0a          	cmp    r9,0xa
7d9a:	75 d4                	jne    7d70 <version_etc+0x70>
7d9c:	45 84 db             	test   r11b,r11b
7d9f:	75 24                	jne    7dc5 <version_etc+0xc5>
7da1:	e8 9a fa ff ff       	call   7840 <version_etc_arn>
7da6:	48 8b 44 24 78       	mov    rax,QWORD PTR [rsp+0x78]
7dab:	64 48 33 04 25 28 00 	xor    rax,QWORD PTR fs:0x28
7db2:	00 00
7db4:	75 0a                	jne    7dc0 <version_etc+0xc0>
7db6:	48 81 c4 b8 00 00 00 	add    rsp,0xb8
7dbd:	5b                   	pop    rbx
7dbe:	5d                   	pop    rbp
7dbf:	c3                   	ret
7dc0:	e8 1b 9b ff ff       	call   18e0 <__stack_chk_fail@plt>
7dc5:	44 89 54 24 08       	mov    DWORD PTR [rsp+0x8],r10d
7dca:	eb d5                	jmp    7da1 <version_etc+0xa1>
7dcc:	48 89 d8             	mov    rax,rbx
7dcf:	48 83 c3 08          	add    rbx,0x8
7dd3:	eb b1                	jmp    7d86 <version_etc+0x86>
7dd5:	90                   	nop
7dd6:	66 2e 0f 1f 84 00 00 	nop    WORD PTR cs:[rax+rax*1+0x0]
7ddd:	00 00 00

0000000000007de0 <emit_bug_reporting_address>:
7de0:	53                   	push   rbx
7de1:	48 8d 35 da 4f 00 00 	lea    rsi,[rip+0x4fda]        # cdc2 <quoting_style_vals+0x82>
7de8:	ba 05 00 00 00       	mov    edx,0x5
7ded:	31 ff                	xor    edi,edi
7def:	e8 bc 9a ff ff       	call   18b0 <dcgettext@plt>
7df4:	48 8d 15 dc 4f 00 00 	lea    rdx,[rip+0x4fdc]        # cdd7 <quoting_style_vals+0x97>
7dfb:	48 89 c6             	mov    rsi,rax
7dfe:	bf 01 00 00 00       	mov    edi,0x1
7e03:	31 c0                	xor    eax,eax
7e05:	e8 66 9c ff ff       	call   1a70 <__printf_chk@plt>
7e0a:	48 8d 35 dc 4f 00 00 	lea    rsi,[rip+0x4fdc]        # cded <quoting_style_vals+0xad>
7e11:	ba 05 00 00 00       	mov    edx,0x5
7e16:	31 ff                	xor    edi,edi
7e18:	e8 93 9a ff ff       	call   18b0 <dcgettext@plt>
7e1d:	48 8d 0d d4 3f 00 00 	lea    rcx,[rip+0x3fd4]        # bdf8 <_IO_stdin_used+0x1138>
7e24:	48 8d 15 0b 30 00 00 	lea    rdx,[rip+0x300b]        # ae36 <_IO_stdin_used+0x176>
7e2b:	48 89 c6             	mov    rsi,rax
7e2e:	bf 01 00 00 00       	mov    edi,0x1
7e33:	31 c0                	xor    eax,eax
7e35:	e8 36 9c ff ff       	call   1a70 <__printf_chk@plt>
7e3a:	48 8b 1d 67 82 20 00 	mov    rbx,QWORD PTR [rip+0x208267]        # 2100a8 <stdout@@GLIBC_2.2.5>
7e41:	48 8d 35 d8 51 00 00 	lea    rsi,[rip+0x51d8]        # d020 <quoting_style_vals+0x2e0>
7e48:	31 ff                	xor    edi,edi
7e4a:	ba 05 00 00 00       	mov    edx,0x5
7e4f:	e8 5c 9a ff ff       	call   18b0 <dcgettext@plt>
7e54:	48 89 de             	mov    rsi,rbx
7e57:	48 89 c7             	mov    rdi,rax
7e5a:	5b                   	pop    rbx
7e5b:	e9 50 9b ff ff       	jmp    19b0 <fputs_unlocked@plt>

0000000000007e60 <xmalloc>:
7e60:	53                   	push   rbx
7e61:	48 89 fb             	mov    rbx,rdi
7e64:	e8 87 9b ff ff       	call   19f0 <malloc@plt>
7e69:	48 85 c0             	test   rax,rax
7e6c:	75 05                	jne    7e73 <xmalloc+0x13>
7e6e:	48 85 db             	test   rbx,rbx
7e71:	75 02                	jne    7e75 <xmalloc+0x15>
7e73:	5b                   	pop    rbx
7e74:	c3                   	ret
7e75:	e8 36 02 00 00       	call   80b0 <xalloc_die>
7e7a:	66 0f 1f 44 00 00    	nop    WORD PTR [rax+rax*1+0x0]

0000000000007e80 <xnmalloc>:
7e80:	48 89 f8             	mov    rax,rdi
7e83:	48 f7 e6             	mul    rsi
7e86:	48 89 c7             	mov    rdi,rax
7e89:	0f 90 c0             	seto   al
7e8c:	48 85 ff             	test   rdi,rdi
7e8f:	78 0a                	js     7e9b <xnmalloc+0x1b>
7e91:	0f b6 c0             	movzx  eax,al
7e94:	48 85 c0             	test   rax,rax
7e97:	75 02                	jne    7e9b <xnmalloc+0x1b>
7e99:	eb c5                	jmp    7e60 <xmalloc>
7e9b:	48 83 ec 08          	sub    rsp,0x8
7e9f:	e8 0c 02 00 00       	call   80b0 <xalloc_die>
7ea4:	66 90                	xchg   ax,ax
7ea6:	66 2e 0f 1f 84 00 00 	nop    WORD PTR cs:[rax+rax*1+0x0]
7ead:	00 00 00

0000000000007eb0 <xcharalloc>:
7eb0:	eb ae                	jmp    7e60 <xmalloc>
7eb2:	0f 1f 40 00          	nop    DWORD PTR [rax+0x0]
7eb6:	66 2e 0f 1f 84 00 00 	nop    WORD PTR cs:[rax+rax*1+0x0]
7ebd:	00 00 00

0000000000007ec0 <xrealloc>:
7ec0:	48 85 f6             	test   rsi,rsi
7ec3:	53                   	push   rbx
7ec4:	48 89 f3             	mov    rbx,rsi
7ec7:	75 05                	jne    7ece <xrealloc+0xe>
7ec9:	48 85 ff             	test   rdi,rdi
7ecc:	75 1a                	jne    7ee8 <xrealloc+0x28>
7ece:	48 89 de             	mov    rsi,rbx
7ed1:	e8 7a 9b ff ff       	call   1a50 <realloc@plt>
7ed6:	48 85 c0             	test   rax,rax
7ed9:	75 05                	jne    7ee0 <xrealloc+0x20>
7edb:	48 85 db             	test   rbx,rbx
7ede:	75 11                	jne    7ef1 <xrealloc+0x31>
7ee0:	5b                   	pop    rbx
7ee1:	c3                   	ret
7ee2:	66 0f 1f 44 00 00    	nop    WORD PTR [rax+rax*1+0x0]
7ee8:	e8 e3 98 ff ff       	call   17d0 <free@plt>
7eed:	31 c0                	xor    eax,eax
7eef:	5b                   	pop    rbx
7ef0:	c3                   	ret
7ef1:	e8 ba 01 00 00       	call   80b0 <xalloc_die>
7ef6:	66 2e 0f 1f 84 00 00 	nop    WORD PTR cs:[rax+rax*1+0x0]
7efd:	00 00 00

0000000000007f00 <xnrealloc>:
7f00:	48 89 f0             	mov    rax,rsi
7f03:	48 f7 e2             	mul    rdx
7f06:	48 89 c6             	mov    rsi,rax
7f09:	0f 90 c0             	seto   al
7f0c:	48 85 f6             	test   rsi,rsi
7f0f:	78 0a                	js     7f1b <xnrealloc+0x1b>
7f11:	0f b6 c0             	movzx  eax,al
7f14:	48 85 c0             	test   rax,rax
7f17:	75 02                	jne    7f1b <xnrealloc+0x1b>
7f19:	eb a5                	jmp    7ec0 <xrealloc>
7f1b:	48 83 ec 08          	sub    rsp,0x8
7f1f:	e8 8c 01 00 00       	call   80b0 <xalloc_die>
7f24:	66 90                	xchg   ax,ax
7f26:	66 2e 0f 1f 84 00 00 	nop    WORD PTR cs:[rax+rax*1+0x0]
7f2d:	00 00 00

0000000000007f30 <x2nrealloc>:
7f30:	48 85 ff             	test   rdi,rdi
7f33:	49 89 d1             	mov    r9,rdx
7f36:	48 8b 0e             	mov    rcx,QWORD PTR [rsi]
7f39:	74 35                	je     7f70 <x2nrealloc+0x40>
7f3b:	31 d2                	xor    edx,edx
7f3d:	48 b8 54 55 55 55 55 	movabs rax,0x5555555555555554
7f44:	55 55 55
7f47:	49 f7 f1             	div    r9
7f4a:	48 39 c8             	cmp    rax,rcx
7f4d:	76 3c                	jbe    7f8b <x2nrealloc+0x5b>
7f4f:	48 89 c8             	mov    rax,rcx
7f52:	48 d1 e8             	shr    rax,1
7f55:	48 8d 4c 08 01       	lea    rcx,[rax+rcx*1+0x1]
7f5a:	48 89 0e             	mov    QWORD PTR [rsi],rcx
7f5d:	49 0f af c9          	imul   rcx,r9
7f61:	48 89 ce             	mov    rsi,rcx
7f64:	e9 57 ff ff ff       	jmp    7ec0 <xrealloc>
7f69:	0f 1f 80 00 00 00 00 	nop    DWORD PTR [rax+0x0]
7f70:	48 85 c9             	test   rcx,rcx
7f73:	74 23                	je     7f98 <x2nrealloc+0x68>
7f75:	48 89 c8             	mov    rax,rcx
7f78:	49 f7 e1             	mul    r9
7f7b:	0f 90 c2             	seto   dl
7f7e:	48 85 c0             	test   rax,rax
7f81:	0f b6 d2             	movzx  edx,dl
7f84:	78 05                	js     7f8b <x2nrealloc+0x5b>
7f86:	48 85 d2             	test   rdx,rdx
7f89:	74 cf                	je     7f5a <x2nrealloc+0x2a>
7f8b:	48 83 ec 08          	sub    rsp,0x8
7f8f:	e8 1c 01 00 00       	call   80b0 <xalloc_die>
7f94:	0f 1f 40 00          	nop    DWORD PTR [rax+0x0]
7f98:	31 d2                	xor    edx,edx
7f9a:	b8 80 00 00 00       	mov    eax,0x80
7f9f:	45 31 c0             	xor    r8d,r8d
7fa2:	49 f7 f1             	div    r9
7fa5:	48 85 c0             	test   rax,rax
7fa8:	41 0f 94 c0          	sete   r8b
7fac:	49 8d 0c 00          	lea    rcx,[r8+rax*1]
7fb0:	eb c3                	jmp    7f75 <x2nrealloc+0x45>
7fb2:	0f 1f 40 00          	nop    DWORD PTR [rax+0x0]
7fb6:	66 2e 0f 1f 84 00 00 	nop    WORD PTR cs:[rax+rax*1+0x0]
7fbd:	00 00 00

0000000000007fc0 <x2realloc>:
7fc0:	48 85 ff             	test   rdi,rdi
7fc3:	48 8b 06             	mov    rax,QWORD PTR [rsi]
7fc6:	74 28                	je     7ff0 <x2realloc+0x30>
7fc8:	48 ba 53 55 55 55 55 	movabs rdx,0x5555555555555553
7fcf:	55 55 55
7fd2:	48 39 d0             	cmp    rax,rdx
7fd5:	77 2a                	ja     8001 <x2realloc+0x41>
7fd7:	48 89 c2             	mov    rdx,rax
7fda:	48 d1 ea             	shr    rdx,1
7fdd:	48 8d 44 02 01       	lea    rax,[rdx+rax*1+0x1]
7fe2:	48 89 06             	mov    QWORD PTR [rsi],rax
7fe5:	48 89 c6             	mov    rsi,rax
7fe8:	e9 d3 fe ff ff       	jmp    7ec0 <xrealloc>
7fed:	0f 1f 00             	nop    DWORD PTR [rax]
7ff0:	48 85 c0             	test   rax,rax
7ff3:	ba 80 00 00 00       	mov    edx,0x80
7ff8:	48 0f 44 c2          	cmove  rax,rdx
7ffc:	48 85 c0             	test   rax,rax
7fff:	79 e1                	jns    7fe2 <x2realloc+0x22>
8001:	48 83 ec 08          	sub    rsp,0x8
8005:	e8 a6 00 00 00       	call   80b0 <xalloc_die>
800a:	66 0f 1f 44 00 00    	nop    WORD PTR [rax+rax*1+0x0]

0000000000008010 <xzalloc>:
8010:	53                   	push   rbx
8011:	48 89 fb             	mov    rbx,rdi
8014:	e8 47 fe ff ff       	call   7e60 <xmalloc>
8019:	48 89 da             	mov    rdx,rbx
801c:	31 f6                	xor    esi,esi
801e:	48 89 c7             	mov    rdi,rax
8021:	5b                   	pop    rbx
8022:	e9 59 99 ff ff       	jmp    1980 <memset@plt>
8027:	66 0f 1f 84 00 00 00 	nop    WORD PTR [rax+rax*1+0x0]
802e:	00 00

0000000000008030 <xcalloc>:
8030:	48 89 f8             	mov    rax,rdi
8033:	48 83 ec 08          	sub    rsp,0x8
8037:	48 f7 e6             	mul    rsi
803a:	0f 90 c2             	seto   dl
803d:	48 85 c0             	test   rax,rax
8040:	78 17                	js     8059 <xcalloc+0x29>
8042:	0f b6 d2             	movzx  edx,dl
8045:	48 85 d2             	test   rdx,rdx
8048:	75 0f                	jne    8059 <xcalloc+0x29>
804a:	e8 71 99 ff ff       	call   19c0 <calloc@plt>
804f:	48 85 c0             	test   rax,rax
8052:	74 05                	je     8059 <xcalloc+0x29>
8054:	48 83 c4 08          	add    rsp,0x8
8058:	c3                   	ret
8059:	e8 52 00 00 00       	call   80b0 <xalloc_die>
805e:	66 90                	xchg   ax,ax

0000000000008060 <xmemdup>:
8060:	55                   	push   rbp
8061:	53                   	push   rbx
8062:	48 89 fd             	mov    rbp,rdi
8065:	48 89 f7             	mov    rdi,rsi
8068:	48 89 f3             	mov    rbx,rsi
806b:	48 83 ec 08          	sub    rsp,0x8
806f:	e8 ec fd ff ff       	call   7e60 <xmalloc>
8074:	48 83 c4 08          	add    rsp,0x8
8078:	48 89 da             	mov    rdx,rbx
807b:	48 89 ee             	mov    rsi,rbp
807e:	5b                   	pop    rbx
807f:	5d                   	pop    rbp
8080:	48 89 c7             	mov    rdi,rax
8083:	e9 48 99 ff ff       	jmp    19d0 <memcpy@plt>
8088:	0f 1f 84 00 00 00 00 	nop    DWORD PTR [rax+rax*1+0x0]
808f:	00

0000000000008090 <xstrdup>:
8090:	53                   	push   rbx
8091:	48 89 fb             	mov    rbx,rdi
8094:	e8 37 98 ff ff       	call   18d0 <strlen@plt>
8099:	48 89 df             	mov    rdi,rbx
809c:	48 8d 70 01          	lea    rsi,[rax+0x1]
80a0:	5b                   	pop    rbx
80a1:	eb bd                	jmp    8060 <xmemdup>
80a3:	66 2e 0f 1f 84 00 00 	nop    WORD PTR cs:[rax+rax*1+0x0]
80aa:	00 00 00
80ad:	0f 1f 00             	nop    DWORD PTR [rax]

00000000000080b0 <xalloc_die>:
80b0:	48 8d 35 18 50 00 00 	lea    rsi,[rip+0x5018]        # d0cf <version_etc_copyright+0x2f>
80b7:	48 83 ec 08          	sub    rsp,0x8
80bb:	ba 05 00 00 00       	mov    edx,0x5
80c0:	31 ff                	xor    edi,edi
80c2:	e8 e9 97 ff ff       	call   18b0 <dcgettext@plt>
80c7:	8b 3d 5b 7f 20 00    	mov    edi,DWORD PTR [rip+0x207f5b]        # 210028 <exit_failure>
80cd:	48 8d 15 0c 47 00 00 	lea    rdx,[rip+0x470c]        # c7e0 <bytes_to_oct_digits+0xa0>
80d4:	48 89 c1             	mov    rcx,rax
80d7:	31 f6                	xor    esi,esi
80d9:	31 c0                	xor    eax,eax
80db:	e8 c0 99 ff ff       	call   1aa0 <error@plt>
80e0:	e8 fb 96 ff ff       	call   17e0 <abort@plt>
80e5:	66 2e 0f 1f 84 00 00 	nop    WORD PTR cs:[rax+rax*1+0x0]
80ec:	00 00 00
80ef:	90                   	nop

00000000000080f0 <xvprintf>:
80f0:	55                   	push   rbp
80f1:	53                   	push   rbx
80f2:	48 83 ec 08          	sub    rsp,0x8
80f6:	e8 b5 09 00 00       	call   8ab0 <rpl_vprintf>
80fb:	85 c0                	test   eax,eax
80fd:	89 c3                	mov    ebx,eax
80ff:	78 0f                	js     8110 <xvprintf+0x20>
8101:	48 83 c4 08          	add    rsp,0x8
8105:	89 d8                	mov    eax,ebx
8107:	5b                   	pop    rbx
8108:	5d                   	pop    rbp
8109:	c3                   	ret
810a:	66 0f 1f 44 00 00    	nop    WORD PTR [rax+rax*1+0x0]
8110:	48 8b 3d 91 7f 20 00 	mov    rdi,QWORD PTR [rip+0x207f91]        # 2100a8 <stdout@@GLIBC_2.2.5>
8117:	e8 24 97 ff ff       	call   1840 <ferror@plt>
811c:	85 c0                	test   eax,eax
811e:	75 e1                	jne    8101 <xvprintf+0x11>
8120:	48 8d 35 b9 4f 00 00 	lea    rsi,[rip+0x4fb9]        # d0e0 <version_etc_copyright+0x40>
8127:	31 ff                	xor    edi,edi
8129:	ba 05 00 00 00       	mov    edx,0x5
812e:	e8 7d 97 ff ff       	call   18b0 <dcgettext@plt>
8133:	48 89 c5             	mov    rbp,rax
8136:	e8 b5 96 ff ff       	call   17f0 <__errno_location@plt>
813b:	8b 3d e7 7e 20 00    	mov    edi,DWORD PTR [rip+0x207ee7]        # 210028 <exit_failure>
8141:	8b 30                	mov    esi,DWORD PTR [rax]
8143:	48 89 ea             	mov    rdx,rbp
8146:	31 c0                	xor    eax,eax
8148:	e8 53 99 ff ff       	call   1aa0 <error@plt>
814d:	eb b2                	jmp    8101 <xvprintf+0x11>
814f:	90                   	nop

0000000000008150 <xprintf>:
8150:	48 81 ec d8 00 00 00 	sub    rsp,0xd8
8157:	84 c0                	test   al,al
8159:	48 89 74 24 28       	mov    QWORD PTR [rsp+0x28],rsi
815e:	48 89 54 24 30       	mov    QWORD PTR [rsp+0x30],rdx
8163:	48 89 4c 24 38       	mov    QWORD PTR [rsp+0x38],rcx
8168:	4c 89 44 24 40       	mov    QWORD PTR [rsp+0x40],r8
816d:	4c 89 4c 24 48       	mov    QWORD PTR [rsp+0x48],r9
8172:	74 37                	je     81ab <xprintf+0x5b>
8174:	0f 29 44 24 50       	movaps XMMWORD PTR [rsp+0x50],xmm0
8179:	0f 29 4c 24 60       	movaps XMMWORD PTR [rsp+0x60],xmm1
817e:	0f 29 54 24 70       	movaps XMMWORD PTR [rsp+0x70],xmm2
8183:	0f 29 9c 24 80 00 00 	movaps XMMWORD PTR [rsp+0x80],xmm3
818a:	00
818b:	0f 29 a4 24 90 00 00 	movaps XMMWORD PTR [rsp+0x90],xmm4
8192:	00
8193:	0f 29 ac 24 a0 00 00 	movaps XMMWORD PTR [rsp+0xa0],xmm5
819a:	00
819b:	0f 29 b4 24 b0 00 00 	movaps XMMWORD PTR [rsp+0xb0],xmm6
81a2:	00
81a3:	0f 29 bc 24 c0 00 00 	movaps XMMWORD PTR [rsp+0xc0],xmm7
81aa:	00
81ab:	64 48 8b 04 25 28 00 	mov    rax,QWORD PTR fs:0x28
81b2:	00 00
81b4:	48 89 44 24 18       	mov    QWORD PTR [rsp+0x18],rax
81b9:	31 c0                	xor    eax,eax
81bb:	48 8d 84 24 e0 00 00 	lea    rax,[rsp+0xe0]
81c2:	00
81c3:	48 89 e6             	mov    rsi,rsp
81c6:	48 89 44 24 08       	mov    QWORD PTR [rsp+0x8],rax
81cb:	48 8d 44 24 20       	lea    rax,[rsp+0x20]
81d0:	c7 04 24 08 00 00 00 	mov    DWORD PTR [rsp],0x8
81d7:	c7 44 24 04 30 00 00 	mov    DWORD PTR [rsp+0x4],0x30
81de:	00
81df:	48 89 44 24 10       	mov    QWORD PTR [rsp+0x10],rax
81e4:	e8 07 ff ff ff       	call   80f0 <xvprintf>
81e9:	48 8b 54 24 18       	mov    rdx,QWORD PTR [rsp+0x18]
81ee:	64 48 33 14 25 28 00 	xor    rdx,QWORD PTR fs:0x28
81f5:	00 00
81f7:	75 08                	jne    8201 <xprintf+0xb1>
81f9:	48 81 c4 d8 00 00 00 	add    rsp,0xd8
8200:	c3                   	ret
8201:	e8 da 96 ff ff       	call   18e0 <__stack_chk_fail@plt>
8206:	66 2e 0f 1f 84 00 00 	nop    WORD PTR cs:[rax+rax*1+0x0]
820d:	00 00 00

0000000000008210 <xvfprintf>:
8210:	55                   	push   rbp
8211:	53                   	push   rbx
8212:	48 89 fd             	mov    rbp,rdi
8215:	48 83 ec 08          	sub    rsp,0x8
8219:	e8 92 07 00 00       	call   89b0 <rpl_vfprintf>
821e:	85 c0                	test   eax,eax
8220:	89 c3                	mov    ebx,eax
8222:	78 0c                	js     8230 <xvfprintf+0x20>
8224:	48 83 c4 08          	add    rsp,0x8
8228:	89 d8                	mov    eax,ebx
822a:	5b                   	pop    rbx
822b:	5d                   	pop    rbp
822c:	c3                   	ret
822d:	0f 1f 00             	nop    DWORD PTR [rax]
8230:	48 89 ef             	mov    rdi,rbp
8233:	e8 08 96 ff ff       	call   1840 <ferror@plt>
8238:	85 c0                	test   eax,eax
823a:	75 e8                	jne    8224 <xvfprintf+0x14>
823c:	48 8d 35 9d 4e 00 00 	lea    rsi,[rip+0x4e9d]        # d0e0 <version_etc_copyright+0x40>
8243:	31 ff                	xor    edi,edi
8245:	ba 05 00 00 00       	mov    edx,0x5
824a:	e8 61 96 ff ff       	call   18b0 <dcgettext@plt>
824f:	48 89 c5             	mov    rbp,rax
8252:	e8 99 95 ff ff       	call   17f0 <__errno_location@plt>
8257:	8b 3d cb 7d 20 00    	mov    edi,DWORD PTR [rip+0x207dcb]        # 210028 <exit_failure>
825d:	8b 30                	mov    esi,DWORD PTR [rax]
825f:	48 89 ea             	mov    rdx,rbp
8262:	31 c0                	xor    eax,eax
8264:	e8 37 98 ff ff       	call   1aa0 <error@plt>
8269:	eb b9                	jmp    8224 <xvfprintf+0x14>
826b:	0f 1f 44 00 00       	nop    DWORD PTR [rax+rax*1+0x0]

0000000000008270 <xfprintf>:
8270:	48 81 ec d8 00 00 00 	sub    rsp,0xd8
8277:	84 c0                	test   al,al
8279:	48 89 54 24 30       	mov    QWORD PTR [rsp+0x30],rdx
827e:	48 89 4c 24 38       	mov    QWORD PTR [rsp+0x38],rcx
8283:	4c 89 44 24 40       	mov    QWORD PTR [rsp+0x40],r8
8288:	4c 89 4c 24 48       	mov    QWORD PTR [rsp+0x48],r9
828d:	74 37                	je     82c6 <xfprintf+0x56>
828f:	0f 29 44 24 50       	movaps XMMWORD PTR [rsp+0x50],xmm0
8294:	0f 29 4c 24 60       	movaps XMMWORD PTR [rsp+0x60],xmm1
8299:	0f 29 54 24 70       	movaps XMMWORD PTR [rsp+0x70],xmm2
829e:	0f 29 9c 24 80 00 00 	movaps XMMWORD PTR [rsp+0x80],xmm3
82a5:	00
82a6:	0f 29 a4 24 90 00 00 	movaps XMMWORD PTR [rsp+0x90],xmm4
82ad:	00
82ae:	0f 29 ac 24 a0 00 00 	movaps XMMWORD PTR [rsp+0xa0],xmm5
82b5:	00
82b6:	0f 29 b4 24 b0 00 00 	movaps XMMWORD PTR [rsp+0xb0],xmm6
82bd:	00
82be:	0f 29 bc 24 c0 00 00 	movaps XMMWORD PTR [rsp+0xc0],xmm7
82c5:	00
82c6:	64 48 8b 04 25 28 00 	mov    rax,QWORD PTR fs:0x28
82cd:	00 00
82cf:	48 89 44 24 18       	mov    QWORD PTR [rsp+0x18],rax
82d4:	31 c0                	xor    eax,eax
82d6:	48 8d 84 24 e0 00 00 	lea    rax,[rsp+0xe0]
82dd:	00
82de:	48 89 e2             	mov    rdx,rsp
82e1:	48 89 44 24 08       	mov    QWORD PTR [rsp+0x8],rax
82e6:	48 8d 44 24 20       	lea    rax,[rsp+0x20]
82eb:	c7 04 24 10 00 00 00 	mov    DWORD PTR [rsp],0x10
82f2:	c7 44 24 04 30 00 00 	mov    DWORD PTR [rsp+0x4],0x30
82f9:	00
82fa:	48 89 44 24 10       	mov    QWORD PTR [rsp+0x10],rax
82ff:	e8 0c ff ff ff       	call   8210 <xvfprintf>
8304:	48 8b 4c 24 18       	mov    rcx,QWORD PTR [rsp+0x18]
8309:	64 48 33 0c 25 28 00 	xor    rcx,QWORD PTR fs:0x28
8310:	00 00
8312:	75 08                	jne    831c <xfprintf+0xac>
8314:	48 81 c4 d8 00 00 00 	add    rsp,0xd8
831b:	c3                   	ret
831c:	e8 bf 95 ff ff       	call   18e0 <__stack_chk_fail@plt>
8321:	66 2e 0f 1f 84 00 00 	nop    WORD PTR cs:[rax+rax*1+0x0]
8328:	00 00 00
832b:	0f 1f 44 00 00       	nop    DWORD PTR [rax+rax*1+0x0]

0000000000008330 <xstrtol_fatal>:
8330:	41 55                	push   r13
8332:	41 54                	push   r12
8334:	41 89 f2             	mov    r10d,esi
8337:	55                   	push   rbp
8338:	53                   	push   rbx
8339:	4d 89 c4             	mov    r12,r8
833c:	48 83 ec 18          	sub    rsp,0x18
8340:	64 48 8b 04 25 28 00 	mov    rax,QWORD PTR fs:0x28
8347:	00 00
8349:	48 89 44 24 08       	mov    QWORD PTR [rsp+0x8],rax
834e:	31 c0                	xor    eax,eax
8350:	83 ff 03             	cmp    edi,0x3
8353:	8b 2d cf 7c 20 00    	mov    ebp,DWORD PTR [rip+0x207ccf]        # 210028 <exit_failure>
8359:	77 59                	ja     83b4 <xstrtol_fatal+0x84>
835b:	83 ff 02             	cmp    edi,0x2
835e:	73 4b                	jae    83ab <xstrtol_fatal+0x7b>
8360:	83 ef 01             	sub    edi,0x1
8363:	48 8d 35 b1 4d 00 00 	lea    rsi,[rip+0x4db1]        # d11b <version_etc_copyright+0x7b>
836a:	75 3a                	jne    83a6 <xstrtol_fatal+0x76>
836c:	45 85 d2             	test   r10d,r10d
836f:	49 63 c2             	movsxd rax,r10d
8372:	78 4e                	js     83c2 <xstrtol_fatal+0x92>
8374:	48 c1 e0 05          	shl    rax,0x5
8378:	48 8d 1d b9 4d 00 00 	lea    rbx,[rip+0x4db9]        # d138 <version_etc_copyright+0x98>
837f:	4c 8b 2c 01          	mov    r13,QWORD PTR [rcx+rax*1]
8383:	ba 05 00 00 00       	mov    edx,0x5
8388:	31 ff                	xor    edi,edi
838a:	e8 21 95 ff ff       	call   18b0 <dcgettext@plt>
838f:	4d 89 e1             	mov    r9,r12
8392:	48 89 c2             	mov    rdx,rax
8395:	4d 89 e8             	mov    r8,r13
8398:	48 89 d9             	mov    rcx,rbx
839b:	31 f6                	xor    esi,esi
839d:	89 ef                	mov    edi,ebp
839f:	31 c0                	xor    eax,eax
83a1:	e8 fa 96 ff ff       	call   1aa0 <error@plt>
83a6:	e8 35 94 ff ff       	call   17e0 <abort@plt>
83ab:	48 8d 35 8e 4d 00 00 	lea    rsi,[rip+0x4d8e]        # d140 <version_etc_copyright+0xa0>
83b2:	eb b8                	jmp    836c <xstrtol_fatal+0x3c>
83b4:	83 ff 04             	cmp    edi,0x4
83b7:	48 8d 35 42 4d 00 00 	lea    rsi,[rip+0x4d42]        # d100 <version_etc_copyright+0x60>
83be:	74 ac                	je     836c <xstrtol_fatal+0x3c>
83c0:	eb e4                	jmp    83a6 <xstrtol_fatal+0x76>
83c2:	48 8d 1d 6f 4d 00 00 	lea    rbx,[rip+0x4d6f]        # d138 <version_etc_copyright+0x98>
83c9:	88 54 24 06          	mov    BYTE PTR [rsp+0x6],dl
83cd:	c6 44 24 07 00       	mov    BYTE PTR [rsp+0x7],0x0
83d2:	4c 8d 6c 24 06       	lea    r13,[rsp+0x6]
83d7:	48 29 c3             	sub    rbx,rax
83da:	eb a7                	jmp    8383 <xstrtol_fatal+0x53>
83dc:	0f 1f 40 00          	nop    DWORD PTR [rax+0x0]

00000000000083e0 <xstrtoumax>:
83e0:	41 57                	push   r15
83e2:	41 56                	push   r14
83e4:	41 55                	push   r13
83e6:	41 54                	push   r12
83e8:	55                   	push   rbp
83e9:	53                   	push   rbx
83ea:	48 83 ec 28          	sub    rsp,0x28
83ee:	64 48 8b 04 25 28 00 	mov    rax,QWORD PTR fs:0x28
83f5:	00 00
83f7:	48 89 44 24 18       	mov    QWORD PTR [rsp+0x18],rax
83fc:	31 c0                	xor    eax,eax
83fe:	83 fa 24             	cmp    edx,0x24
8401:	0f 87 5e 03 00 00    	ja     8765 <xstrtoumax+0x385>
8407:	48 8d 44 24 10       	lea    rax,[rsp+0x10]
840c:	49 89 f7             	mov    r15,rsi
840f:	48 85 f6             	test   rsi,rsi
8412:	48 89 fd             	mov    rbp,rdi
8415:	89 54 24 08          	mov    DWORD PTR [rsp+0x8],edx
8419:	49 89 ce             	mov    r14,rcx
841c:	4d 89 c5             	mov    r13,r8
841f:	4c 0f 44 f8          	cmove  r15,rax
8423:	e8 c8 93 ff ff       	call   17f0 <__errno_location@plt>
8428:	c7 00 00 00 00 00    	mov    DWORD PTR [rax],0x0
842e:	49 89 c4             	mov    r12,rax
8431:	0f b6 5d 00          	movzx  ebx,BYTE PTR [rbp+0x0]
8435:	e8 06 97 ff ff       	call   1b40 <__ctype_b_loc@plt>
843a:	8b 54 24 08          	mov    edx,DWORD PTR [rsp+0x8]
843e:	48 8b 30             	mov    rsi,QWORD PTR [rax]
8441:	48 89 e8             	mov    rax,rbp
8444:	eb 11                	jmp    8457 <xstrtoumax+0x77>
8446:	66 2e 0f 1f 84 00 00 	nop    WORD PTR cs:[rax+rax*1+0x0]
844d:	00 00 00
8450:	48 83 c0 01          	add    rax,0x1
8454:	0f b6 18             	movzx  ebx,BYTE PTR [rax]
8457:	0f b6 cb             	movzx  ecx,bl
845a:	f6 44 4e 01 20       	test   BYTE PTR [rsi+rcx*2+0x1],0x20
845f:	75 ef                	jne    8450 <xstrtoumax+0x70>
8461:	80 fb 2d             	cmp    bl,0x2d
8464:	74 52                	je     84b8 <xstrtoumax+0xd8>
8466:	31 c9                	xor    ecx,ecx
8468:	4c 89 fe             	mov    rsi,r15
846b:	48 89 ef             	mov    rdi,rbp
846e:	e8 ed 94 ff ff       	call   1960 <__strtoul_internal@plt>
8473:	49 8b 0f             	mov    rcx,QWORD PTR [r15]
8476:	48 89 c3             	mov    rbx,rax
8479:	48 39 e9             	cmp    rcx,rbp
847c:	74 2a                	je     84a8 <xstrtoumax+0xc8>
847e:	41 8b 04 24          	mov    eax,DWORD PTR [r12]
8482:	85 c0                	test   eax,eax
8484:	74 62                	je     84e8 <xstrtoumax+0x108>
8486:	83 f8 22             	cmp    eax,0x22
8489:	bd 01 00 00 00       	mov    ebp,0x1
848e:	75 28                	jne    84b8 <xstrtoumax+0xd8>
8490:	4d 85 ed             	test   r13,r13
8493:	74 09                	je     849e <xstrtoumax+0xbe>
8495:	44 0f b6 21          	movzx  r12d,BYTE PTR [rcx]
8499:	45 84 e4             	test   r12b,r12b
849c:	75 79                	jne    8517 <xstrtoumax+0x137>
849e:	49 89 1e             	mov    QWORD PTR [r14],rbx
84a1:	eb 1a                	jmp    84bd <xstrtoumax+0xdd>
84a3:	0f 1f 44 00 00       	nop    DWORD PTR [rax+rax*1+0x0]
84a8:	4d 85 ed             	test   r13,r13
84ab:	48 89 4c 24 08       	mov    QWORD PTR [rsp+0x8],rcx
84b0:	75 3e                	jne    84f0 <xstrtoumax+0x110>
84b2:	66 0f 1f 44 00 00    	nop    WORD PTR [rax+rax*1+0x0]
84b8:	bd 04 00 00 00       	mov    ebp,0x4
84bd:	48 8b 7c 24 18       	mov    rdi,QWORD PTR [rsp+0x18]
84c2:	64 48 33 3c 25 28 00 	xor    rdi,QWORD PTR fs:0x28
84c9:	00 00
84cb:	89 e8                	mov    eax,ebp
84cd:	0f 85 8d 02 00 00    	jne    8760 <xstrtoumax+0x380>
84d3:	48 83 c4 28          	add    rsp,0x28
84d7:	5b                   	pop    rbx
84d8:	5d                   	pop    rbp
84d9:	41 5c                	pop    r12
84db:	41 5d                	pop    r13
84dd:	41 5e                	pop    r14
84df:	41 5f                	pop    r15
84e1:	c3                   	ret
84e2:	66 0f 1f 44 00 00    	nop    WORD PTR [rax+rax*1+0x0]
84e8:	31 ed                	xor    ebp,ebp
84ea:	eb a4                	jmp    8490 <xstrtoumax+0xb0>
84ec:	0f 1f 40 00          	nop    DWORD PTR [rax+0x0]
84f0:	44 0f b6 65 00       	movzx  r12d,BYTE PTR [rbp+0x0]
84f5:	45 84 e4             	test   r12b,r12b
84f8:	74 be                	je     84b8 <xstrtoumax+0xd8>
84fa:	41 0f be f4          	movsx  esi,r12b
84fe:	4c 89 ef             	mov    rdi,r13
8501:	31 ed                	xor    ebp,ebp
8503:	e8 08 94 ff ff       	call   1910 <strchr@plt>
8508:	48 85 c0             	test   rax,rax
850b:	bb 01 00 00 00       	mov    ebx,0x1
8510:	48 8b 4c 24 08       	mov    rcx,QWORD PTR [rsp+0x8]
8515:	74 a1                	je     84b8 <xstrtoumax+0xd8>
8517:	41 0f be f4          	movsx  esi,r12b
851b:	4c 89 ef             	mov    rdi,r13
851e:	48 89 4c 24 08       	mov    QWORD PTR [rsp+0x8],rcx
8523:	e8 e8 93 ff ff       	call   1910 <strchr@plt>
8528:	48 85 c0             	test   rax,rax
852b:	48 8b 4c 24 08       	mov    rcx,QWORD PTR [rsp+0x8]
8530:	0f 84 c6 00 00 00    	je     85fc <xstrtoumax+0x21c>
8536:	41 8d 44 24 bb       	lea    eax,[r12-0x45]
853b:	3c 2f                	cmp    al,0x2f
853d:	77 51                	ja     8590 <xstrtoumax+0x1b0>
853f:	48 ba 45 89 30 00 44 	movabs rdx,0x814400308945
8546:	81 00 00
8549:	48 0f a3 c2          	bt     rdx,rax
854d:	73 41                	jae    8590 <xstrtoumax+0x1b0>
854f:	be 30 00 00 00       	mov    esi,0x30
8554:	4c 89 ef             	mov    rdi,r13
8557:	48 89 4c 24 08       	mov    QWORD PTR [rsp+0x8],rcx
855c:	e8 af 93 ff ff       	call   1910 <strchr@plt>
8561:	48 85 c0             	test   rax,rax
8564:	48 8b 4c 24 08       	mov    rcx,QWORD PTR [rsp+0x8]
8569:	74 25                	je     8590 <xstrtoumax+0x1b0>
856b:	0f b6 41 01          	movzx  eax,BYTE PTR [rcx+0x1]
856f:	3c 44                	cmp    al,0x44
8571:	74 0c                	je     857f <xstrtoumax+0x19f>
8573:	3c 69                	cmp    al,0x69
8575:	0f 84 cd 01 00 00    	je     8748 <xstrtoumax+0x368>
857b:	3c 42                	cmp    al,0x42
857d:	75 11                	jne    8590 <xstrtoumax+0x1b0>
857f:	bf 02 00 00 00       	mov    edi,0x2
8584:	be e8 03 00 00       	mov    esi,0x3e8
8589:	eb 0f                	jmp    859a <xstrtoumax+0x1ba>
858b:	0f 1f 44 00 00       	nop    DWORD PTR [rax+rax*1+0x0]
8590:	bf 01 00 00 00       	mov    edi,0x1
8595:	be 00 04 00 00       	mov    esi,0x400
859a:	41 83 ec 42          	sub    r12d,0x42
859e:	41 80 fc 35          	cmp    r12b,0x35
85a2:	77 58                	ja     85fc <xstrtoumax+0x21c>
85a4:	48 8d 15 05 4c 00 00 	lea    rdx,[rip+0x4c05]        # d1b0 <version_etc_copyright+0x110>
85ab:	45 0f b6 e4          	movzx  r12d,r12b
85af:	4a 63 04 a2          	movsxd rax,DWORD PTR [rdx+r12*4]
85b3:	48 01 d0             	add    rax,rdx
85b6:	ff e0                	jmp    rax
85b8:	48 89 d8             	mov    rax,rbx
85bb:	48 f7 e6             	mul    rsi
85be:	0f 80 ed 01 00 00    	jo     87b1 <xstrtoumax+0x3d1>
85c4:	45 31 c0             	xor    r8d,r8d
85c7:	48 f7 e6             	mul    rsi
85ca:	0f 80 d2 01 00 00    	jo     87a2 <xstrtoumax+0x3c2>
85d0:	48 89 c3             	mov    rbx,rax
85d3:	44 09 c5             	or     ebp,r8d
85d6:	66 2e 0f 1f 84 00 00 	nop    WORD PTR cs:[rax+rax*1+0x0]
85dd:	00 00 00
85e0:	48 63 ff             	movsxd rdi,edi
85e3:	89 e8                	mov    eax,ebp
85e5:	48 01 f9             	add    rcx,rdi
85e8:	83 c8 02             	or     eax,0x2
85eb:	49 89 0f             	mov    QWORD PTR [r15],rcx
85ee:	80 39 00             	cmp    BYTE PTR [rcx],0x0
85f1:	49 89 1e             	mov    QWORD PTR [r14],rbx
85f4:	0f 45 e8             	cmovne ebp,eax
85f7:	e9 c1 fe ff ff       	jmp    84bd <xstrtoumax+0xdd>
85fc:	49 89 1e             	mov    QWORD PTR [r14],rbx
85ff:	83 cd 02             	or     ebp,0x2
8602:	e9 b6 fe ff ff       	jmp    84bd <xstrtoumax+0xdd>
8607:	ba 02 00 00 00       	mov    edx,0x2
860c:	48 89 d0             	mov    rax,rdx
860f:	48 f7 e3             	mul    rbx
8612:	0f 80 96 00 00 00    	jo     86ae <xstrtoumax+0x2ce>
8618:	48 01 db             	add    rbx,rbx
861b:	eb c3                	jmp    85e0 <xstrtoumax+0x200>
861d:	ba 00 02 00 00       	mov    edx,0x200
8622:	48 89 d0             	mov    rax,rdx
8625:	48 f7 e3             	mul    rbx
8628:	0f 80 80 00 00 00    	jo     86ae <xstrtoumax+0x2ce>
862e:	48 c1 e3 09          	shl    rbx,0x9
8632:	eb ac                	jmp    85e0 <xstrtoumax+0x200>
8634:	41 b8 07 00 00 00    	mov    r8d,0x7
863a:	45 31 c9             	xor    r9d,r9d
863d:	0f 1f 00             	nop    DWORD PTR [rax]
8640:	48 89 d8             	mov    rax,rbx
8643:	48 f7 e6             	mul    rsi
8646:	48 89 c3             	mov    rbx,rax
8649:	0f 80 8f 01 00 00    	jo     87de <xstrtoumax+0x3fe>
864f:	41 83 e8 01          	sub    r8d,0x1
8653:	75 eb                	jne    8640 <xstrtoumax+0x260>
8655:	44 09 cd             	or     ebp,r9d
8658:	eb 86                	jmp    85e0 <xstrtoumax+0x200>
865a:	41 b8 08 00 00 00    	mov    r8d,0x8
8660:	45 31 c9             	xor    r9d,r9d
8663:	0f 1f 44 00 00       	nop    DWORD PTR [rax+rax*1+0x0]
8668:	48 89 d8             	mov    rax,rbx
866b:	48 f7 e6             	mul    rsi
866e:	48 89 c3             	mov    rbx,rax
8671:	0f 80 49 01 00 00    	jo     87c0 <xstrtoumax+0x3e0>
8677:	41 83 e8 01          	sub    r8d,0x1
867b:	75 eb                	jne    8668 <xstrtoumax+0x288>
867d:	eb d6                	jmp    8655 <xstrtoumax+0x275>
867f:	41 b8 04 00 00 00    	mov    r8d,0x4
8685:	45 31 c9             	xor    r9d,r9d
8688:	48 89 d8             	mov    rax,rbx
868b:	48 f7 e6             	mul    rsi
868e:	48 89 c3             	mov    rbx,rax
8691:	0f 80 fc 00 00 00    	jo     8793 <xstrtoumax+0x3b3>
8697:	41 83 e8 01          	sub    r8d,0x1
869b:	75 eb                	jne    8688 <xstrtoumax+0x2a8>
869d:	eb b6                	jmp    8655 <xstrtoumax+0x275>
869f:	48 89 d8             	mov    rax,rbx
86a2:	48 f7 e6             	mul    rsi
86a5:	48 89 c3             	mov    rbx,rax
86a8:	0f 81 32 ff ff ff    	jno    85e0 <xstrtoumax+0x200>
86ae:	bd 01 00 00 00       	mov    ebp,0x1
86b3:	48 83 cb ff          	or     rbx,0xffffffffffffffff
86b7:	e9 24 ff ff ff       	jmp    85e0 <xstrtoumax+0x200>
86bc:	0f 1f 40 00          	nop    DWORD PTR [rax+0x0]
86c0:	41 b8 05 00 00 00    	mov    r8d,0x5
86c6:	45 31 c9             	xor    r9d,r9d
86c9:	48 89 d8             	mov    rax,rbx
86cc:	48 f7 e6             	mul    rsi
86cf:	48 89 c3             	mov    rbx,rax
86d2:	0f 80 f7 00 00 00    	jo     87cf <xstrtoumax+0x3ef>
86d8:	41 83 e8 01          	sub    r8d,0x1
86dc:	75 eb                	jne    86c9 <xstrtoumax+0x2e9>
86de:	e9 72 ff ff ff       	jmp    8655 <xstrtoumax+0x275>
86e3:	41 b8 06 00 00 00    	mov    r8d,0x6
86e9:	45 31 c9             	xor    r9d,r9d
86ec:	48 89 d8             	mov    rax,rbx
86ef:	48 f7 e6             	mul    rsi
86f2:	48 89 c3             	mov    rbx,rax
86f5:	0f 80 89 00 00 00    	jo     8784 <xstrtoumax+0x3a4>
86fb:	41 83 e8 01          	sub    r8d,0x1
86ff:	75 eb                	jne    86ec <xstrtoumax+0x30c>
8701:	e9 4f ff ff ff       	jmp    8655 <xstrtoumax+0x275>
8706:	ba 00 04 00 00       	mov    edx,0x400
870b:	48 89 d0             	mov    rax,rdx
870e:	48 f7 e3             	mul    rbx
8711:	70 9b                	jo     86ae <xstrtoumax+0x2ce>
8713:	48 c1 e3 0a          	shl    rbx,0xa
8717:	e9 c4 fe ff ff       	jmp    85e0 <xstrtoumax+0x200>
871c:	48 89 d8             	mov    rax,rbx
871f:	48 f7 e6             	mul    rsi
8722:	0f 80 c5 00 00 00    	jo     87ed <xstrtoumax+0x40d>
8728:	45 31 c0             	xor    r8d,r8d
872b:	48 f7 e6             	mul    rsi
872e:	0f 81 93 fe ff ff    	jno    85c7 <xstrtoumax+0x1e7>
8734:	41 b8 01 00 00 00    	mov    r8d,0x1
873a:	48 83 c8 ff          	or     rax,0xffffffffffffffff
873e:	e9 84 fe ff ff       	jmp    85c7 <xstrtoumax+0x1e7>
8743:	0f 1f 44 00 00       	nop    DWORD PTR [rax+rax*1+0x0]
8748:	31 ff                	xor    edi,edi
874a:	80 79 02 42          	cmp    BYTE PTR [rcx+0x2],0x42
874e:	be 00 04 00 00       	mov    esi,0x400
8753:	40 0f 94 c7          	sete   dil
8757:	8d 7c 3f 01          	lea    edi,[rdi+rdi*1+0x1]
875b:	e9 3a fe ff ff       	jmp    859a <xstrtoumax+0x1ba>
8760:	e8 7b 91 ff ff       	call   18e0 <__stack_chk_fail@plt>
8765:	48 8d 0d 1c 4b 00 00 	lea    rcx,[rip+0x4b1c]        # d288 <__PRETTY_FUNCTION__.4162>
876c:	48 8d 35 f5 49 00 00 	lea    rsi,[rip+0x49f5]        # d168 <version_etc_copyright+0xc8>
8773:	48 8d 3d 0e 4a 00 00 	lea    rdi,[rip+0x4a0e]        # d188 <version_etc_copyright+0xe8>
877a:	ba 54 00 00 00       	mov    edx,0x54
877f:	e8 cc 91 ff ff       	call   1950 <__assert_fail@plt>
8784:	41 b9 01 00 00 00    	mov    r9d,0x1
878a:	48 83 cb ff          	or     rbx,0xffffffffffffffff
878e:	e9 68 ff ff ff       	jmp    86fb <xstrtoumax+0x31b>
8793:	41 b9 01 00 00 00    	mov    r9d,0x1
8799:	48 83 cb ff          	or     rbx,0xffffffffffffffff
879d:	e9 f5 fe ff ff       	jmp    8697 <xstrtoumax+0x2b7>
87a2:	41 b8 01 00 00 00    	mov    r8d,0x1
87a8:	48 83 cb ff          	or     rbx,0xffffffffffffffff
87ac:	e9 22 fe ff ff       	jmp    85d3 <xstrtoumax+0x1f3>
87b1:	48 83 c8 ff          	or     rax,0xffffffffffffffff
87b5:	41 b8 01 00 00 00    	mov    r8d,0x1
87bb:	e9 07 fe ff ff       	jmp    85c7 <xstrtoumax+0x1e7>
87c0:	41 b9 01 00 00 00    	mov    r9d,0x1
87c6:	48 83 cb ff          	or     rbx,0xffffffffffffffff
87ca:	e9 a8 fe ff ff       	jmp    8677 <xstrtoumax+0x297>
87cf:	41 b9 01 00 00 00    	mov    r9d,0x1
87d5:	48 83 cb ff          	or     rbx,0xffffffffffffffff
87d9:	e9 fa fe ff ff       	jmp    86d8 <xstrtoumax+0x2f8>
87de:	41 b9 01 00 00 00    	mov    r9d,0x1
87e4:	48 83 cb ff          	or     rbx,0xffffffffffffffff
87e8:	e9 62 fe ff ff       	jmp    864f <xstrtoumax+0x26f>
87ed:	41 b8 01 00 00 00    	mov    r8d,0x1
87f3:	48 83 c8 ff          	or     rax,0xffffffffffffffff
87f7:	e9 2f ff ff ff       	jmp    872b <xstrtoumax+0x34b>
87fc:	0f 1f 40 00          	nop    DWORD PTR [rax+0x0]

0000000000008800 <rpl_fclose>:
8800:	41 54                	push   r12
8802:	55                   	push   rbp
8803:	53                   	push   rbx
8804:	48 89 fb             	mov    rbx,rdi
8807:	e8 d4 91 ff ff       	call   19e0 <fileno@plt>
880c:	85 c0                	test   eax,eax
880e:	48 89 df             	mov    rdi,rbx
8811:	78 54                	js     8867 <rpl_fclose+0x67>
8813:	e8 18 92 ff ff       	call   1a30 <__freading@plt>
8818:	85 c0                	test   eax,eax
881a:	75 2c                	jne    8848 <rpl_fclose+0x48>
881c:	48 89 df             	mov    rdi,rbx
881f:	e8 5c 00 00 00       	call   8880 <rpl_fflush>
8824:	85 c0                	test   eax,eax
8826:	74 3c                	je     8864 <rpl_fclose+0x64>
8828:	e8 c3 8f ff ff       	call   17f0 <__errno_location@plt>
882d:	44 8b 20             	mov    r12d,DWORD PTR [rax]
8830:	48 89 df             	mov    rdi,rbx
8833:	48 89 c5             	mov    rbp,rax
8836:	e8 55 90 ff ff       	call   1890 <fclose@plt>
883b:	45 85 e4             	test   r12d,r12d
883e:	75 30                	jne    8870 <rpl_fclose+0x70>
8840:	5b                   	pop    rbx
8841:	5d                   	pop    rbp
8842:	41 5c                	pop    r12
8844:	c3                   	ret
8845:	0f 1f 00             	nop    DWORD PTR [rax]
8848:	48 89 df             	mov    rdi,rbx
884b:	e8 90 91 ff ff       	call   19e0 <fileno@plt>
8850:	31 f6                	xor    esi,esi
8852:	ba 01 00 00 00       	mov    edx,0x1
8857:	89 c7                	mov    edi,eax
8859:	e8 e2 90 ff ff       	call   1940 <lseek@plt>
885e:	48 83 f8 ff          	cmp    rax,0xffffffffffffffff
8862:	75 b8                	jne    881c <rpl_fclose+0x1c>
8864:	48 89 df             	mov    rdi,rbx
8867:	5b                   	pop    rbx
8868:	5d                   	pop    rbp
8869:	41 5c                	pop    r12
886b:	e9 20 90 ff ff       	jmp    1890 <fclose@plt>
8870:	44 89 65 00          	mov    DWORD PTR [rbp+0x0],r12d
8874:	b8 ff ff ff ff       	mov    eax,0xffffffff
8879:	eb c5                	jmp    8840 <rpl_fclose+0x40>
887b:	0f 1f 44 00 00       	nop    DWORD PTR [rax+rax*1+0x0]

0000000000008880 <rpl_fflush>:
8880:	48 85 ff             	test   rdi,rdi
8883:	53                   	push   rbx
8884:	48 89 fb             	mov    rbx,rdi
8887:	74 11                	je     889a <rpl_fflush+0x1a>
8889:	e8 a2 91 ff ff       	call   1a30 <__freading@plt>
888e:	85 c0                	test   eax,eax
8890:	74 08                	je     889a <rpl_fflush+0x1a>
8892:	f7 03 00 01 00 00    	test   DWORD PTR [rbx],0x100
8898:	75 0e                	jne    88a8 <rpl_fflush+0x28>
889a:	48 89 df             	mov    rdi,rbx
889d:	5b                   	pop    rbx
889e:	e9 5d 91 ff ff       	jmp    1a00 <fflush@plt>
88a3:	0f 1f 44 00 00       	nop    DWORD PTR [rax+rax*1+0x0]
88a8:	48 89 df             	mov    rdi,rbx
88ab:	ba 01 00 00 00       	mov    edx,0x1
88b0:	31 f6                	xor    esi,esi
88b2:	e8 09 00 00 00       	call   88c0 <rpl_fseeko>
88b7:	48 89 df             	mov    rdi,rbx
88ba:	5b                   	pop    rbx
88bb:	e9 40 91 ff ff       	jmp    1a00 <fflush@plt>

00000000000088c0 <rpl_fseeko>:
88c0:	48 8b 47 08          	mov    rax,QWORD PTR [rdi+0x8]
88c4:	48 39 47 10          	cmp    QWORD PTR [rdi+0x10],rax
88c8:	74 06                	je     88d0 <rpl_fseeko+0x10>
88ca:	e9 e1 91 ff ff       	jmp    1ab0 <fseeko@plt>
88cf:	90                   	nop
88d0:	48 8b 47 20          	mov    rax,QWORD PTR [rdi+0x20]
88d4:	48 39 47 28          	cmp    QWORD PTR [rdi+0x28],rax
88d8:	75 f0                	jne    88ca <rpl_fseeko+0xa>
88da:	48 83 7f 48 00       	cmp    QWORD PTR [rdi+0x48],0x0
88df:	75 e9                	jne    88ca <rpl_fseeko+0xa>
88e1:	41 54                	push   r12
88e3:	55                   	push   rbp
88e4:	41 89 d4             	mov    r12d,edx
88e7:	53                   	push   rbx
88e8:	48 89 f5             	mov    rbp,rsi
88eb:	48 89 fb             	mov    rbx,rdi
88ee:	e8 ed 90 ff ff       	call   19e0 <fileno@plt>
88f3:	44 89 e2             	mov    edx,r12d
88f6:	48 89 ee             	mov    rsi,rbp
88f9:	89 c7                	mov    edi,eax
88fb:	e8 40 90 ff ff       	call   1940 <lseek@plt>
8900:	48 83 f8 ff          	cmp    rax,0xffffffffffffffff
8904:	74 0c                	je     8912 <rpl_fseeko+0x52>
8906:	83 23 ef             	and    DWORD PTR [rbx],0xffffffef
8909:	48 89 83 90 00 00 00 	mov    QWORD PTR [rbx+0x90],rax
8910:	31 c0                	xor    eax,eax
8912:	5b                   	pop    rbx
8913:	5d                   	pop    rbp
8914:	41 5c                	pop    r12
8916:	c3                   	ret
8917:	66 0f 1f 84 00 00 00 	nop    WORD PTR [rax+rax*1+0x0]
891e:	00 00

0000000000008920 <rpl_mbrtowc>:
8920:	41 55                	push   r13
8922:	41 54                	push   r12
8924:	49 89 f5             	mov    r13,rsi
8927:	55                   	push   rbp
8928:	53                   	push   rbx
8929:	48 89 fb             	mov    rbx,rdi
892c:	49 89 d4             	mov    r12,rdx
892f:	48 83 ec 18          	sub    rsp,0x18
8933:	64 48 8b 04 25 28 00 	mov    rax,QWORD PTR fs:0x28
893a:	00 00
893c:	48 89 44 24 08       	mov    QWORD PTR [rsp+0x8],rax
8941:	31 c0                	xor    eax,eax
8943:	48 8d 44 24 04       	lea    rax,[rsp+0x4]
8948:	48 85 ff             	test   rdi,rdi
894b:	48 0f 44 d8          	cmove  rbx,rax
894f:	48 89 df             	mov    rdi,rbx
8952:	e8 a9 8f ff ff       	call   1900 <mbrtowc@plt>
8957:	48 83 f8 fd          	cmp    rax,0xfffffffffffffffd
895b:	48 89 c5             	mov    rbp,rax
895e:	76 20                	jbe    8980 <rpl_mbrtowc+0x60>
8960:	4d 85 e4             	test   r12,r12
8963:	74 1b                	je     8980 <rpl_mbrtowc+0x60>
8965:	31 ff                	xor    edi,edi
8967:	e8 e4 01 00 00       	call   8b50 <hard_locale>
896c:	84 c0                	test   al,al
896e:	75 10                	jne    8980 <rpl_mbrtowc+0x60>
8970:	41 0f b6 45 00       	movzx  eax,BYTE PTR [r13+0x0]
8975:	bd 01 00 00 00       	mov    ebp,0x1
897a:	89 03                	mov    DWORD PTR [rbx],eax
897c:	0f 1f 40 00          	nop    DWORD PTR [rax+0x0]
8980:	48 8b 54 24 08       	mov    rdx,QWORD PTR [rsp+0x8]
8985:	64 48 33 14 25 28 00 	xor    rdx,QWORD PTR fs:0x28
898c:	00 00
898e:	48 89 e8             	mov    rax,rbp
8991:	75 0b                	jne    899e <rpl_mbrtowc+0x7e>
8993:	48 83 c4 18          	add    rsp,0x18
8997:	5b                   	pop    rbx
8998:	5d                   	pop    rbp
8999:	41 5c                	pop    r12
899b:	41 5d                	pop    r13
899d:	c3                   	ret
899e:	e8 3d 8f ff ff       	call   18e0 <__stack_chk_fail@plt>
89a3:	66 2e 0f 1f 84 00 00 	nop    WORD PTR cs:[rax+rax*1+0x0]
89aa:	00 00 00
89ad:	0f 1f 00             	nop    DWORD PTR [rax]

00000000000089b0 <rpl_vfprintf>:
89b0:	41 55                	push   r13
89b2:	41 54                	push   r12
89b4:	48 89 f0             	mov    rax,rsi
89b7:	55                   	push   rbp
89b8:	53                   	push   rbx
89b9:	49 89 fd             	mov    r13,rdi
89bc:	48 81 ec f8 07 00 00 	sub    rsp,0x7f8
89c3:	4c 8d 64 24 10       	lea    r12,[rsp+0x10]
89c8:	48 8d 74 24 08       	lea    rsi,[rsp+0x8]
89cd:	48 c7 44 24 08 d0 07 	mov    QWORD PTR [rsp+0x8],0x7d0
89d4:	00 00
89d6:	64 48 8b 0c 25 28 00 	mov    rcx,QWORD PTR fs:0x28
89dd:	00 00
89df:	48 89 8c 24 e8 07 00 	mov    QWORD PTR [rsp+0x7e8],rcx
89e6:	00
89e7:	31 c9                	xor    ecx,ecx
89e9:	4c 89 e7             	mov    rdi,r12
89ec:	48 89 d1             	mov    rcx,rdx
89ef:	48 89 c2             	mov    rdx,rax
89f2:	e8 09 02 00 00       	call   8c00 <vasnprintf>
89f7:	48 85 c0             	test   rax,rax
89fa:	48 8b 5c 24 08       	mov    rbx,QWORD PTR [rsp+0x8]
89ff:	0f 84 89 00 00 00    	je     8a8e <rpl_vfprintf+0xde>
8a05:	4c 89 e9             	mov    rcx,r13
8a08:	48 89 da             	mov    rdx,rbx
8a0b:	be 01 00 00 00       	mov    esi,0x1
8a10:	48 89 c7             	mov    rdi,rax
8a13:	48 89 c5             	mov    rbp,rax
8a16:	e8 e5 90 ff ff       	call   1b00 <fwrite@plt>
8a1b:	48 39 d8             	cmp    rax,rbx
8a1e:	72 40                	jb     8a60 <rpl_vfprintf+0xb0>
8a20:	4c 39 e5             	cmp    rbp,r12
8a23:	74 08                	je     8a2d <rpl_vfprintf+0x7d>
8a25:	48 89 ef             	mov    rdi,rbp
8a28:	e8 a3 8d ff ff       	call   17d0 <free@plt>
8a2d:	48 81 fb ff ff ff 7f 	cmp    rbx,0x7fffffff
8a34:	77 4d                	ja     8a83 <rpl_vfprintf+0xd3>
8a36:	48 8b 8c 24 e8 07 00 	mov    rcx,QWORD PTR [rsp+0x7e8]
8a3d:	00
8a3e:	64 48 33 0c 25 28 00 	xor    rcx,QWORD PTR fs:0x28
8a45:	00 00
8a47:	89 d8                	mov    eax,ebx
8a49:	75 52                	jne    8a9d <rpl_vfprintf+0xed>
8a4b:	48 81 c4 f8 07 00 00 	add    rsp,0x7f8
8a52:	5b                   	pop    rbx
8a53:	5d                   	pop    rbp
8a54:	41 5c                	pop    r12
8a56:	41 5d                	pop    r13
8a58:	c3                   	ret
8a59:	0f 1f 80 00 00 00 00 	nop    DWORD PTR [rax+0x0]
8a60:	4c 39 e5             	cmp    rbp,r12
8a63:	bb ff ff ff ff       	mov    ebx,0xffffffff
8a68:	74 cc                	je     8a36 <rpl_vfprintf+0x86>
8a6a:	e8 81 8d ff ff       	call   17f0 <__errno_location@plt>
8a6f:	44 8b 28             	mov    r13d,DWORD PTR [rax]
8a72:	49 89 c4             	mov    r12,rax
8a75:	48 89 ef             	mov    rdi,rbp
8a78:	e8 53 8d ff ff       	call   17d0 <free@plt>
8a7d:	45 89 2c 24          	mov    DWORD PTR [r12],r13d
8a81:	eb b3                	jmp    8a36 <rpl_vfprintf+0x86>
8a83:	e8 68 8d ff ff       	call   17f0 <__errno_location@plt>
8a88:	c7 00 4b 00 00 00    	mov    DWORD PTR [rax],0x4b
8a8e:	4c 89 ef             	mov    rdi,r13
8a91:	bb ff ff ff ff       	mov    ebx,0xffffffff
8a96:	e8 55 01 00 00       	call   8bf0 <fseterr>
8a9b:	eb 99                	jmp    8a36 <rpl_vfprintf+0x86>
8a9d:	e8 3e 8e ff ff       	call   18e0 <__stack_chk_fail@plt>
8aa2:	66 2e 0f 1f 84 00 00 	nop    WORD PTR cs:[rax+rax*1+0x0]
8aa9:	00 00 00
8aac:	0f 1f 40 00          	nop    DWORD PTR [rax+0x0]

0000000000008ab0 <rpl_vprintf>:
8ab0:	48 89 f2             	mov    rdx,rsi
8ab3:	48 89 fe             	mov    rsi,rdi
8ab6:	48 8b 3d eb 75 20 00 	mov    rdi,QWORD PTR [rip+0x2075eb]        # 2100a8 <stdout@@GLIBC_2.2.5>
8abd:	e9 ee fe ff ff       	jmp    89b0 <rpl_vfprintf>
8ac2:	66 2e 0f 1f 84 00 00 	nop    WORD PTR cs:[rax+rax*1+0x0]
8ac9:	00 00 00
8acc:	0f 1f 40 00          	nop    DWORD PTR [rax+0x0]

0000000000008ad0 <close_stream>:
8ad0:	41 54                	push   r12
8ad2:	55                   	push   rbp
8ad3:	48 89 fd             	mov    rbp,rdi
8ad6:	53                   	push   rbx
8ad7:	e8 44 8d ff ff       	call   1820 <__fpending@plt>
8adc:	8b 5d 00             	mov    ebx,DWORD PTR [rbp+0x0]
8adf:	48 89 ef             	mov    rdi,rbp
8ae2:	49 89 c4             	mov    r12,rax
8ae5:	e8 16 fd ff ff       	call   8800 <rpl_fclose>
8aea:	83 e3 20             	and    ebx,0x20
8aed:	85 db                	test   ebx,ebx
8aef:	75 17                	jne    8b08 <close_stream+0x38>
8af1:	85 c0                	test   eax,eax
8af3:	74 0a                	je     8aff <close_stream+0x2f>
8af5:	4d 85 e4             	test   r12,r12
8af8:	b8 ff ff ff ff       	mov    eax,0xffffffff
8afd:	74 39                	je     8b38 <close_stream+0x68>
8aff:	5b                   	pop    rbx
8b00:	5d                   	pop    rbp
8b01:	41 5c                	pop    r12
8b03:	c3                   	ret
8b04:	0f 1f 40 00          	nop    DWORD PTR [rax+0x0]
8b08:	85 c0                	test   eax,eax
8b0a:	75 1c                	jne    8b28 <close_stream+0x58>
8b0c:	e8 df 8c ff ff       	call   17f0 <__errno_location@plt>
8b11:	c7 00 00 00 00 00    	mov    DWORD PTR [rax],0x0
8b17:	b8 ff ff ff ff       	mov    eax,0xffffffff
8b1c:	5b                   	pop    rbx
8b1d:	5d                   	pop    rbp
8b1e:	41 5c                	pop    r12
8b20:	c3                   	ret
8b21:	0f 1f 80 00 00 00 00 	nop    DWORD PTR [rax+0x0]
8b28:	5b                   	pop    rbx
8b29:	b8 ff ff ff ff       	mov    eax,0xffffffff
8b2e:	5d                   	pop    rbp
8b2f:	41 5c                	pop    r12
8b31:	c3                   	ret
8b32:	66 0f 1f 44 00 00    	nop    WORD PTR [rax+rax*1+0x0]
8b38:	e8 b3 8c ff ff       	call   17f0 <__errno_location@plt>
8b3d:	83 38 09             	cmp    DWORD PTR [rax],0x9
8b40:	5b                   	pop    rbx
8b41:	5d                   	pop    rbp
8b42:	41 5c                	pop    r12
8b44:	0f 95 c0             	setne  al
8b47:	0f b6 c0             	movzx  eax,al
8b4a:	f7 d8                	neg    eax
8b4c:	c3                   	ret
8b4d:	0f 1f 00             	nop    DWORD PTR [rax]

0000000000008b50 <hard_locale>:
8b50:	48 83 ec 08          	sub    rsp,0x8
8b54:	31 f6                	xor    esi,esi
8b56:	e8 05 8f ff ff       	call   1a60 <setlocale@plt>
8b5b:	48 89 c2             	mov    rdx,rax
8b5e:	b8 01 00 00 00       	mov    eax,0x1
8b63:	48 85 d2             	test   rdx,rdx
8b66:	74 1d                	je     8b85 <hard_locale+0x35>
8b68:	48 8d 3d 24 47 00 00 	lea    rdi,[rip+0x4724]        # d293 <__PRETTY_FUNCTION__.4162+0xb>
8b6f:	b9 02 00 00 00       	mov    ecx,0x2
8b74:	48 89 d6             	mov    rsi,rdx
8b77:	f3 a6                	repz cmps BYTE PTR ds:[rsi],BYTE PTR es:[rdi]
8b79:	0f 97 c1             	seta   cl
8b7c:	80 d9 00             	sbb    cl,0x0
8b7f:	31 c0                	xor    eax,eax
8b81:	84 c9                	test   cl,cl
8b83:	75 0b                	jne    8b90 <hard_locale+0x40>
8b85:	48 83 c4 08          	add    rsp,0x8
8b89:	c3                   	ret
8b8a:	66 0f 1f 44 00 00    	nop    WORD PTR [rax+rax*1+0x0]
8b90:	48 8d 3d fe 46 00 00 	lea    rdi,[rip+0x46fe]        # d295 <__PRETTY_FUNCTION__.4162+0xd>
8b97:	b9 06 00 00 00       	mov    ecx,0x6
8b9c:	48 89 d6             	mov    rsi,rdx
8b9f:	f3 a6                	repz cmps BYTE PTR ds:[rsi],BYTE PTR es:[rdi]
8ba1:	0f 97 c0             	seta   al
8ba4:	1c 00                	sbb    al,0x0
8ba6:	84 c0                	test   al,al
8ba8:	0f 95 c0             	setne  al
8bab:	48 83 c4 08          	add    rsp,0x8
8baf:	c3                   	ret

0000000000008bb0 <locale_charset>:
8bb0:	48 83 ec 08          	sub    rsp,0x8
8bb4:	bf 0e 00 00 00       	mov    edi,0xe
8bb9:	e8 52 8e ff ff       	call   1a10 <nl_langinfo@plt>
8bbe:	48 85 c0             	test   rax,rax
8bc1:	74 1d                	je     8be0 <locale_charset+0x30>
8bc3:	80 38 00             	cmp    BYTE PTR [rax],0x0
8bc6:	48 8d 15 ce 46 00 00 	lea    rdx,[rip+0x46ce]        # d29b <__PRETTY_FUNCTION__.4162+0x13>
8bcd:	48 0f 44 c2          	cmove  rax,rdx
8bd1:	48 83 c4 08          	add    rsp,0x8
8bd5:	c3                   	ret
8bd6:	66 2e 0f 1f 84 00 00 	nop    WORD PTR cs:[rax+rax*1+0x0]
8bdd:	00 00 00
8be0:	48 8d 05 b4 46 00 00 	lea    rax,[rip+0x46b4]        # d29b <__PRETTY_FUNCTION__.4162+0x13>
8be7:	48 83 c4 08          	add    rsp,0x8
8beb:	c3                   	ret
8bec:	0f 1f 40 00          	nop    DWORD PTR [rax+0x0]

0000000000008bf0 <fseterr>:
8bf0:	83 0f 20             	or     DWORD PTR [rdi],0x20
8bf3:	c3                   	ret
8bf4:	66 2e 0f 1f 84 00 00 	nop    WORD PTR cs:[rax+rax*1+0x0]
8bfb:	00 00 00
8bfe:	66 90                	xchg   ax,ax

0000000000008c00 <vasnprintf>:
8c00:	55                   	push   rbp
8c01:	48 89 e5             	mov    rbp,rsp
8c04:	41 57                	push   r15
8c06:	41 56                	push   r14
8c08:	41 55                	push   r13
8c0a:	41 54                	push   r12
8c0c:	4c 8d b5 50 fc ff ff 	lea    r14,[rbp-0x3b0]
8c13:	53                   	push   rbx
8c14:	48 89 d3             	mov    rbx,rdx
8c17:	49 89 cc             	mov    r12,rcx
8c1a:	4c 89 f2             	mov    rdx,r14
8c1d:	48 81 ec 08 04 00 00 	sub    rsp,0x408
8c24:	48 89 b5 e8 fb ff ff 	mov    QWORD PTR [rbp-0x418],rsi
8c2b:	48 8d b5 40 fd ff ff 	lea    rsi,[rbp-0x2c0]
8c32:	48 89 bd 18 fc ff ff 	mov    QWORD PTR [rbp-0x3e8],rdi
8c39:	48 89 df             	mov    rdi,rbx
8c3c:	4c 89 b5 f0 fb ff ff 	mov    QWORD PTR [rbp-0x410],r14
8c43:	64 48 8b 04 25 28 00 	mov    rax,QWORD PTR fs:0x28
8c4a:	00 00
8c4c:	48 89 45 c8          	mov    QWORD PTR [rbp-0x38],rax
8c50:	31 c0                	xor    eax,eax
8c52:	48 89 b5 f8 fb ff ff 	mov    QWORD PTR [rbp-0x408],rsi
8c59:	e8 c2 12 00 00       	call   9f20 <printf_parse>
8c5e:	85 c0                	test   eax,eax
8c60:	0f 88 62 0e 00 00    	js     9ac8 <vasnprintf+0xec8>
8c66:	4c 89 f6             	mov    rsi,r14
8c69:	4c 89 e7             	mov    rdi,r12
8c6c:	e8 af 10 00 00       	call   9d20 <printf_fetchargs>
8c71:	85 c0                	test   eax,eax
8c73:	0f 88 b7 0e 00 00    	js     9b30 <vasnprintf+0xf30>
8c79:	48 8b 85 50 fd ff ff 	mov    rax,QWORD PTR [rbp-0x2b0]
8c80:	48 c7 c2 ff ff ff ff 	mov    rdx,0xffffffffffffffff
8c87:	48 83 c0 07          	add    rax,0x7
8c8b:	48 83 f8 06          	cmp    rax,0x6
8c8f:	48 0f 46 c2          	cmovbe rax,rdx
8c93:	48 03 85 58 fd ff ff 	add    rax,QWORD PTR [rbp-0x2a8]
8c9a:	0f 82 28 0a 00 00    	jb     96c8 <vasnprintf+0xac8>
8ca0:	48 89 c7             	mov    rdi,rax
8ca3:	45 31 c0             	xor    r8d,r8d
8ca6:	48 83 c7 06          	add    rdi,0x6
8caa:	41 0f 92 c0          	setb   r8b
8cae:	0f 82 14 0a 00 00    	jb     96c8 <vasnprintf+0xac8>
8cb4:	48 81 ff 9f 0f 00 00 	cmp    rdi,0xf9f
8cbb:	0f 86 47 01 00 00    	jbe    8e08 <vasnprintf+0x208>
8cc1:	48 83 ff ff          	cmp    rdi,0xffffffffffffffff
8cc5:	4c 89 85 38 fc ff ff 	mov    QWORD PTR [rbp-0x3c8],r8
8ccc:	0f 84 f6 09 00 00    	je     96c8 <vasnprintf+0xac8>
8cd2:	e8 19 8d ff ff       	call   19f0 <malloc@plt>
8cd7:	48 85 c0             	test   rax,rax
8cda:	48 89 85 28 fc ff ff 	mov    QWORD PTR [rbp-0x3d8],rax
8ce1:	0f 84 e1 09 00 00    	je     96c8 <vasnprintf+0xac8>
8ce7:	4c 8b 85 38 fc ff ff 	mov    r8,QWORD PTR [rbp-0x3c8]
8cee:	48 89 85 e0 fb ff ff 	mov    QWORD PTR [rbp-0x420],rax
8cf5:	45 31 e4             	xor    r12d,r12d
8cf8:	48 83 bd 18 fc ff ff 	cmp    QWORD PTR [rbp-0x3e8],0x0
8cff:	00
8d00:	74 0a                	je     8d0c <vasnprintf+0x10c>
8d02:	48 8b 85 e8 fb ff ff 	mov    rax,QWORD PTR [rbp-0x418]
8d09:	4c 8b 20             	mov    r12,QWORD PTR [rax]
8d0c:	4c 8b ad 48 fd ff ff 	mov    r13,QWORD PTR [rbp-0x2b8]
8d13:	48 8d 85 44 fc ff ff 	lea    rax,[rbp-0x3bc]
8d1a:	4c 8b bd 18 fc ff ff 	mov    r15,QWORD PTR [rbp-0x3e8]
8d21:	48 c7 85 00 fc ff ff 	mov    QWORD PTR [rbp-0x400],0x0
8d28:	00 00 00 00
8d2c:	48 89 85 10 fc ff ff 	mov    QWORD PTR [rbp-0x3f0],rax
8d33:	48 89 d8             	mov    rax,rbx
8d36:	4c 89 c3             	mov    rbx,r8
8d39:	49 8b 4d 00          	mov    rcx,QWORD PTR [r13+0x0]
8d3d:	49 89 c0             	mov    r8,rax
8d40:	4c 39 c1             	cmp    rcx,r8
8d43:	0f 84 68 09 00 00    	je     96b1 <vasnprintf+0xab1>
8d49:	4c 29 c1             	sub    rcx,r8
8d4c:	48 89 d8             	mov    rax,rbx
8d4f:	48 01 c8             	add    rax,rcx
8d52:	49 89 c6             	mov    r14,rax
8d55:	0f 83 dd 00 00 00    	jae    8e38 <vasnprintf+0x238>
8d5b:	49 83 fc ff          	cmp    r12,0xffffffffffffffff
8d5f:	0f 84 cb 0a 00 00    	je     9830 <vasnprintf+0xc30>
8d65:	e8 86 8a ff ff       	call   17f0 <__errno_location@plt>
8d6a:	48 89 85 38 fc ff ff 	mov    QWORD PTR [rbp-0x3c8],rax
8d71:	4c 3b bd 18 fc ff ff 	cmp    r15,QWORD PTR [rbp-0x3e8]
8d78:	74 09                	je     8d83 <vasnprintf+0x183>
8d7a:	4d 85 ff             	test   r15,r15
8d7d:	0f 85 dd 0a 00 00    	jne    9860 <vasnprintf+0xc60>
8d83:	48 8b 85 e0 fb ff ff 	mov    rax,QWORD PTR [rbp-0x420]
8d8a:	48 85 c0             	test   rax,rax
8d8d:	74 08                	je     8d97 <vasnprintf+0x197>
8d8f:	48 89 c7             	mov    rdi,rax
8d92:	e8 39 8a ff ff       	call   17d0 <free@plt>
8d97:	48 8b 85 f8 fb ff ff 	mov    rax,QWORD PTR [rbp-0x408]
8d9e:	48 8b bd 48 fd ff ff 	mov    rdi,QWORD PTR [rbp-0x2b8]
8da5:	48 83 c0 20          	add    rax,0x20
8da9:	48 39 c7             	cmp    rdi,rax
8dac:	74 05                	je     8db3 <vasnprintf+0x1b3>
8dae:	e8 1d 8a ff ff       	call   17d0 <free@plt>
8db3:	48 8b 85 f0 fb ff ff 	mov    rax,QWORD PTR [rbp-0x410]
8dba:	48 8b bd 58 fc ff ff 	mov    rdi,QWORD PTR [rbp-0x3a8]
8dc1:	48 83 c0 10          	add    rax,0x10
8dc5:	48 39 c7             	cmp    rdi,rax
8dc8:	74 05                	je     8dcf <vasnprintf+0x1cf>
8dca:	e8 01 8a ff ff       	call   17d0 <free@plt>
8dcf:	48 8b 85 38 fc ff ff 	mov    rax,QWORD PTR [rbp-0x3c8]
8dd6:	45 31 ff             	xor    r15d,r15d
8dd9:	c7 00 0c 00 00 00    	mov    DWORD PTR [rax],0xc
8ddf:	48 8b 7d c8          	mov    rdi,QWORD PTR [rbp-0x38]
8de3:	64 48 33 3c 25 28 00 	xor    rdi,QWORD PTR fs:0x28
8dea:	00 00
8dec:	4c 89 f8             	mov    rax,r15
8def:	0f 85 02 0f 00 00    	jne    9cf7 <vasnprintf+0x10f7>
8df5:	48 8d 65 d8          	lea    rsp,[rbp-0x28]
8df9:	5b                   	pop    rbx
8dfa:	41 5c                	pop    r12
8dfc:	41 5d                	pop    r13
8dfe:	41 5e                	pop    r14
8e00:	41 5f                	pop    r15
8e02:	5d                   	pop    rbp
8e03:	c3                   	ret
8e04:	0f 1f 40 00          	nop    DWORD PTR [rax+0x0]
8e08:	48 83 c0 24          	add    rax,0x24
8e0c:	48 c7 85 e0 fb ff ff 	mov    QWORD PTR [rbp-0x420],0x0
8e13:	00 00 00 00
8e17:	48 83 e0 f0          	and    rax,0xfffffffffffffff0
8e1b:	48 29 c4             	sub    rsp,rax
8e1e:	48 8d 44 24 0f       	lea    rax,[rsp+0xf]
8e23:	48 83 e0 f0          	and    rax,0xfffffffffffffff0
8e27:	48 89 85 28 fc ff ff 	mov    QWORD PTR [rbp-0x3d8],rax
8e2e:	e9 c2 fe ff ff       	jmp    8cf5 <vasnprintf+0xf5>
8e33:	0f 1f 44 00 00       	nop    DWORD PTR [rax+rax*1+0x0]
8e38:	49 39 c4             	cmp    r12,rax
8e3b:	73 67                	jae    8ea4 <vasnprintf+0x2a4>
8e3d:	4d 85 e4             	test   r12,r12
8e40:	0f 85 2a 09 00 00    	jne    9770 <vasnprintf+0xb70>
8e46:	48 83 f8 0c          	cmp    rax,0xc
8e4a:	0f 87 32 09 00 00    	ja     9782 <vasnprintf+0xb82>
8e50:	41 bc 0c 00 00 00    	mov    r12d,0xc
8e56:	4c 3b bd 18 fc ff ff 	cmp    r15,QWORD PTR [rbp-0x3e8]
8e5d:	0f 94 c2             	sete   dl
8e60:	4d 85 ff             	test   r15,r15
8e63:	0f 84 3f 09 00 00    	je     97a8 <vasnprintf+0xba8>
8e69:	84 d2                	test   dl,dl
8e6b:	0f 85 37 09 00 00    	jne    97a8 <vasnprintf+0xba8>
8e71:	4c 89 e6             	mov    rsi,r12
8e74:	4c 89 ff             	mov    rdi,r15
8e77:	4c 89 85 30 fc ff ff 	mov    QWORD PTR [rbp-0x3d0],r8
8e7e:	48 89 8d 38 fc ff ff 	mov    QWORD PTR [rbp-0x3c8],rcx
8e85:	e8 c6 8b ff ff       	call   1a50 <realloc@plt>
8e8a:	48 85 c0             	test   rax,rax
8e8d:	48 8b 8d 38 fc ff ff 	mov    rcx,QWORD PTR [rbp-0x3c8]
8e94:	4c 8b 85 30 fc ff ff 	mov    r8,QWORD PTR [rbp-0x3d0]
8e9b:	0f 84 aa 09 00 00    	je     984b <vasnprintf+0xc4b>
8ea1:	49 89 c7             	mov    r15,rax
8ea4:	49 8d 3c 1f          	lea    rdi,[r15+rbx*1]
8ea8:	48 89 ca             	mov    rdx,rcx
8eab:	4c 89 c6             	mov    rsi,r8
8eae:	e8 1d 8b ff ff       	call   19d0 <memcpy@plt>
8eb3:	48 8b 85 00 fc ff ff 	mov    rax,QWORD PTR [rbp-0x400]
8eba:	48 39 85 40 fd ff ff 	cmp    QWORD PTR [rbp-0x2c0],rax
8ec1:	0f 84 b4 0c 00 00    	je     9b7b <vasnprintf+0xf7b>
8ec7:	41 0f b6 55 48       	movzx  edx,BYTE PTR [r13+0x48]
8ecc:	49 8b 45 50          	mov    rax,QWORD PTR [r13+0x50]
8ed0:	80 fa 25             	cmp    dl,0x25
8ed3:	0f 84 8f 07 00 00    	je     9668 <vasnprintf+0xa68>
8ed9:	48 83 f8 ff          	cmp    rax,0xffffffffffffffff
8edd:	0f 84 43 0c 00 00    	je     9b26 <vasnprintf+0xf26>
8ee3:	4c 8b 85 58 fc ff ff 	mov    r8,QWORD PTR [rbp-0x3a8]
8eea:	48 c1 e0 05          	shl    rax,0x5
8eee:	4c 01 c0             	add    rax,r8
8ef1:	80 fa 6e             	cmp    dl,0x6e
8ef4:	8b 38                	mov    edi,DWORD PTR [rax]
8ef6:	89 bd 30 fc ff ff    	mov    DWORD PTR [rbp-0x3d0],edi
8efc:	0f 84 de 07 00 00    	je     96e0 <vasnprintf+0xae0>
8f02:	41 8b 45 10          	mov    eax,DWORD PTR [r13+0x10]
8f06:	48 8b bd 28 fc ff ff 	mov    rdi,QWORD PTR [rbp-0x3d8]
8f0d:	a8 01                	test   al,0x1
8f0f:	c6 07 25             	mov    BYTE PTR [rdi],0x25
8f12:	48 8d 5f 01          	lea    rbx,[rdi+0x1]
8f16:	74 0f                	je     8f27 <vasnprintf+0x327>
8f18:	48 8b bd 28 fc ff ff 	mov    rdi,QWORD PTR [rbp-0x3d8]
8f1f:	48 8d 5f 02          	lea    rbx,[rdi+0x2]
8f23:	c6 47 01 27          	mov    BYTE PTR [rdi+0x1],0x27
8f27:	a8 02                	test   al,0x2
8f29:	74 07                	je     8f32 <vasnprintf+0x332>
8f2b:	c6 03 2d             	mov    BYTE PTR [rbx],0x2d
8f2e:	48 83 c3 01          	add    rbx,0x1
8f32:	a8 04                	test   al,0x4
8f34:	74 07                	je     8f3d <vasnprintf+0x33d>
8f36:	c6 03 2b             	mov    BYTE PTR [rbx],0x2b
8f39:	48 83 c3 01          	add    rbx,0x1
8f3d:	a8 08                	test   al,0x8
8f3f:	74 07                	je     8f48 <vasnprintf+0x348>
8f41:	c6 03 20             	mov    BYTE PTR [rbx],0x20
8f44:	48 83 c3 01          	add    rbx,0x1
8f48:	a8 10                	test   al,0x10
8f4a:	74 07                	je     8f53 <vasnprintf+0x353>
8f4c:	c6 03 23             	mov    BYTE PTR [rbx],0x23
8f4f:	48 83 c3 01          	add    rbx,0x1
8f53:	a8 40                	test   al,0x40
8f55:	74 07                	je     8f5e <vasnprintf+0x35e>
8f57:	c6 03 49             	mov    BYTE PTR [rbx],0x49
8f5a:	48 83 c3 01          	add    rbx,0x1
8f5e:	a8 20                	test   al,0x20
8f60:	74 07                	je     8f69 <vasnprintf+0x369>
8f62:	c6 03 30             	mov    BYTE PTR [rbx],0x30
8f65:	48 83 c3 01          	add    rbx,0x1
8f69:	49 8b 75 18          	mov    rsi,QWORD PTR [r13+0x18]
8f6d:	49 8b 55 20          	mov    rdx,QWORD PTR [r13+0x20]
8f71:	48 39 d6             	cmp    rsi,rdx
8f74:	74 30                	je     8fa6 <vasnprintf+0x3a6>
8f76:	48 89 d1             	mov    rcx,rdx
8f79:	48 89 df             	mov    rdi,rbx
8f7c:	4c 89 85 20 fc ff ff 	mov    QWORD PTR [rbp-0x3e0],r8
8f83:	48 29 f1             	sub    rcx,rsi
8f86:	48 89 ca             	mov    rdx,rcx
8f89:	48 89 8d 38 fc ff ff 	mov    QWORD PTR [rbp-0x3c8],rcx
8f90:	e8 3b 8a ff ff       	call   19d0 <memcpy@plt>
8f95:	48 8b 8d 38 fc ff ff 	mov    rcx,QWORD PTR [rbp-0x3c8]
8f9c:	4c 8b 85 20 fc ff ff 	mov    r8,QWORD PTR [rbp-0x3e0]
8fa3:	48 01 cb             	add    rbx,rcx
8fa6:	49 8b 75 30          	mov    rsi,QWORD PTR [r13+0x30]
8faa:	49 8b 55 38          	mov    rdx,QWORD PTR [r13+0x38]
8fae:	48 39 d6             	cmp    rsi,rdx
8fb1:	74 30                	je     8fe3 <vasnprintf+0x3e3>
8fb3:	48 89 d1             	mov    rcx,rdx
8fb6:	48 89 df             	mov    rdi,rbx
8fb9:	4c 89 85 20 fc ff ff 	mov    QWORD PTR [rbp-0x3e0],r8
8fc0:	48 29 f1             	sub    rcx,rsi
8fc3:	48 89 ca             	mov    rdx,rcx
8fc6:	48 89 8d 38 fc ff ff 	mov    QWORD PTR [rbp-0x3c8],rcx
8fcd:	e8 fe 89 ff ff       	call   19d0 <memcpy@plt>
8fd2:	48 8b 8d 38 fc ff ff 	mov    rcx,QWORD PTR [rbp-0x3c8]
8fd9:	4c 8b 85 20 fc ff ff 	mov    r8,QWORD PTR [rbp-0x3e0]
8fe0:	48 01 cb             	add    rbx,rcx
8fe3:	8b bd 30 fc ff ff    	mov    edi,DWORD PTR [rbp-0x3d0]
8fe9:	83 ff 10             	cmp    edi,0x10
8fec:	77 2d                	ja     901b <vasnprintf+0x41b>
8fee:	b8 01 00 00 00       	mov    eax,0x1
8ff3:	89 f9                	mov    ecx,edi
8ff5:	48 d3 e0             	shl    rax,cl
8ff8:	a9 80 41 01 00       	test   eax,0x14180
8ffd:	75 15                	jne    9014 <vasnprintf+0x414>
8fff:	f6 c4 10             	test   ah,0x10
9002:	0f 85 58 09 00 00    	jne    9960 <vasnprintf+0xd60>
9008:	f6 c4 06             	test   ah,0x6
900b:	74 0e                	je     901b <vasnprintf+0x41b>
900d:	c6 03 6c             	mov    BYTE PTR [rbx],0x6c
9010:	48 83 c3 01          	add    rbx,0x1
9014:	c6 03 6c             	mov    BYTE PTR [rbx],0x6c
9017:	48 83 c3 01          	add    rbx,0x1
901b:	41 0f b6 45 48       	movzx  eax,BYTE PTR [r13+0x48]
9020:	c6 43 01 00          	mov    BYTE PTR [rbx+0x1],0x0
9024:	88 03                	mov    BYTE PTR [rbx],al
9026:	49 8b 45 28          	mov    rax,QWORD PTR [r13+0x28]
902a:	48 83 f8 ff          	cmp    rax,0xffffffffffffffff
902e:	0f 84 2c 07 00 00    	je     9760 <vasnprintf+0xb60>
9034:	48 c1 e0 05          	shl    rax,0x5
9038:	4c 01 c0             	add    rax,r8
903b:	83 38 05             	cmp    DWORD PTR [rax],0x5
903e:	0f 85 e2 0a 00 00    	jne    9b26 <vasnprintf+0xf26>
9044:	8b 40 10             	mov    eax,DWORD PTR [rax+0x10]
9047:	c7 85 20 fc ff ff 01 	mov    DWORD PTR [rbp-0x3e0],0x1
904e:	00 00 00
9051:	89 85 48 fc ff ff    	mov    DWORD PTR [rbp-0x3b8],eax
9057:	49 8b 45 40          	mov    rax,QWORD PTR [r13+0x40]
905b:	48 83 f8 ff          	cmp    rax,0xffffffffffffffff
905f:	74 2b                	je     908c <vasnprintf+0x48c>
9061:	48 c1 e0 05          	shl    rax,0x5
9065:	49 01 c0             	add    r8,rax
9068:	41 83 38 05          	cmp    DWORD PTR [r8],0x5
906c:	0f 85 b4 0a 00 00    	jne    9b26 <vasnprintf+0xf26>
9072:	8b 85 20 fc ff ff    	mov    eax,DWORD PTR [rbp-0x3e0]
9078:	41 8b 50 10          	mov    edx,DWORD PTR [r8+0x10]
907c:	89 94 85 48 fc ff ff 	mov    DWORD PTR [rbp+rax*4-0x3b8],edx
9083:	8d 40 01             	lea    eax,[rax+0x1]
9086:	89 85 20 fc ff ff    	mov    DWORD PTR [rbp-0x3e0],eax
908c:	4c 89 f0             	mov    rax,r14
908f:	31 d2                	xor    edx,edx
9091:	48 83 c0 02          	add    rax,0x2
9095:	0f 82 61 0c 00 00    	jb     9cfc <vasnprintf+0x10fc>
909b:	49 39 c4             	cmp    r12,rax
909e:	73 4b                	jae    90eb <vasnprintf+0x4eb>
90a0:	4d 85 e4             	test   r12,r12
90a3:	0f 85 1f 08 00 00    	jne    98c8 <vasnprintf+0xcc8>
90a9:	48 83 f8 0c          	cmp    rax,0xc
90ad:	0f 87 2d 08 00 00    	ja     98e0 <vasnprintf+0xce0>
90b3:	41 bc 0c 00 00 00    	mov    r12d,0xc
90b9:	4c 3b bd 18 fc ff ff 	cmp    r15,QWORD PTR [rbp-0x3e8]
90c0:	0f 94 c2             	sete   dl
90c3:	4d 85 ff             	test   r15,r15
90c6:	0f 84 44 08 00 00    	je     9910 <vasnprintf+0xd10>
90cc:	84 d2                	test   dl,dl
90ce:	0f 85 3c 08 00 00    	jne    9910 <vasnprintf+0xd10>
90d4:	4c 89 e6             	mov    rsi,r12
90d7:	4c 89 ff             	mov    rdi,r15
90da:	e8 71 89 ff ff       	call   1a50 <realloc@plt>
90df:	48 85 c0             	test   rax,rax
90e2:	0f 84 7d fc ff ff    	je     8d65 <vasnprintf+0x165>
90e8:	49 89 c7             	mov    r15,rax
90eb:	43 c6 04 37 00       	mov    BYTE PTR [r15+r14*1],0x0
90f0:	e8 fb 86 ff ff       	call   17f0 <__errno_location@plt>
90f5:	48 89 85 38 fc ff ff 	mov    QWORD PTR [rbp-0x3c8],rax
90fc:	8b 00                	mov    eax,DWORD PTR [rax]
90fe:	48 89 9d 08 fc ff ff 	mov    QWORD PTR [rbp-0x3f8],rbx
9105:	89 85 dc fb ff ff    	mov    DWORD PTR [rbp-0x424],eax
910b:	0f 1f 44 00 00       	nop    DWORD PTR [rax+rax*1+0x0]
9110:	48 8b 85 38 fc ff ff 	mov    rax,QWORD PTR [rbp-0x3c8]
9117:	4c 89 e3             	mov    rbx,r12
911a:	41 ba ff ff ff 7f    	mov    r10d,0x7fffffff
9120:	4c 29 f3             	sub    rbx,r14
9123:	c7 85 44 fc ff ff ff 	mov    DWORD PTR [rbp-0x3bc],0xffffffff
912a:	ff ff ff
912d:	48 81 fb ff ff ff 7f 	cmp    rbx,0x7fffffff
9134:	c7 00 00 00 00 00    	mov    DWORD PTR [rax],0x0
913a:	8b 85 30 fc ff ff    	mov    eax,DWORD PTR [rbp-0x3d0]
9140:	4c 0f 46 d3          	cmovbe r10,rbx
9144:	83 f8 11             	cmp    eax,0x11
9147:	0f 87 d9 09 00 00    	ja     9b26 <vasnprintf+0xf26>
914d:	48 8d 35 50 41 00 00 	lea    rsi,[rip+0x4150]        # d2a4 <__PRETTY_FUNCTION__.4162+0x1c>
9154:	48 63 04 86          	movsxd rax,DWORD PTR [rsi+rax*4]
9158:	48 01 f0             	add    rax,rsi
915b:	ff e0                	jmp    rax
915d:	0f 1f 00             	nop    DWORD PTR [rax]
9160:	49 8b 45 50          	mov    rax,QWORD PTR [r13+0x50]
9164:	4b 8d 3c 37          	lea    rdi,[r15+r14*1]
9168:	48 c1 e0 05          	shl    rax,0x5
916c:	48 03 85 58 fc ff ff 	add    rax,QWORD PTR [rbp-0x3a8]
9173:	4c 8b 48 10          	mov    r9,QWORD PTR [rax+0x10]
9177:	8b 85 20 fc ff ff    	mov    eax,DWORD PTR [rbp-0x3e0]
917d:	83 f8 01             	cmp    eax,0x1
9180:	0f 84 c2 04 00 00    	je     9648 <vasnprintf+0xa48>
9186:	83 f8 02             	cmp    eax,0x2
9189:	0f 84 a1 04 00 00    	je     9630 <vasnprintf+0xa30>
918f:	48 83 ec 08          	sub    rsp,0x8
9193:	ff b5 10 fc ff ff    	push   QWORD PTR [rbp-0x3f0]
9199:	4c 8b 85 28 fc ff ff 	mov    r8,QWORD PTR [rbp-0x3d8]
91a0:	4c 89 d6             	mov    rsi,r10
91a3:	48 c7 c1 ff ff ff ff 	mov    rcx,0xffffffffffffffff
91aa:	ba 01 00 00 00       	mov    edx,0x1
91af:	31 c0                	xor    eax,eax
91b1:	4c 89 95 d0 fb ff ff 	mov    QWORD PTR [rbp-0x430],r10
91b8:	e8 03 86 ff ff       	call   17c0 <__snprintf_chk@plt>
91bd:	5e                   	pop    rsi
91be:	5f                   	pop    rdi
91bf:	4c 8b 95 d0 fb ff ff 	mov    r10,QWORD PTR [rbp-0x430]
91c6:	8b 8d 44 fc ff ff    	mov    ecx,DWORD PTR [rbp-0x3bc]
91cc:	85 c9                	test   ecx,ecx
91ce:	0f 88 38 01 00 00    	js     930c <vasnprintf+0x70c>
91d4:	48 63 d1             	movsxd rdx,ecx
91d7:	4c 39 d2             	cmp    rdx,r10
91da:	73 0e                	jae    91ea <vasnprintf+0x5ea>
91dc:	4c 01 fa             	add    rdx,r15
91df:	42 80 3c 32 00       	cmp    BYTE PTR [rdx+r14*1],0x0
91e4:	0f 85 3c 09 00 00    	jne    9b26 <vasnprintf+0xf26>
91ea:	39 c1                	cmp    ecx,eax
91ec:	7d 08                	jge    91f6 <vasnprintf+0x5f6>
91ee:	89 85 44 fc ff ff    	mov    DWORD PTR [rbp-0x3bc],eax
91f4:	89 c1                	mov    ecx,eax
91f6:	8d 41 01             	lea    eax,[rcx+0x1]
91f9:	4c 39 d0             	cmp    rax,r10
91fc:	0f 82 2e 08 00 00    	jb     9a30 <vasnprintf+0xe30>
9202:	48 81 fb fe ff ff 7f 	cmp    rbx,0x7ffffffe
9209:	0f 87 41 08 00 00    	ja     9a50 <vasnprintf+0xe50>
920f:	4b 8d 34 24          	lea    rsi,[r12+r12*1]
9213:	8d 51 02             	lea    edx,[rcx+0x2]
9216:	4d 85 e4             	test   r12,r12
9219:	48 c7 c0 ff ff ff ff 	mov    rax,0xffffffffffffffff
9220:	48 0f 49 c6          	cmovns rax,rsi
9224:	4c 01 f2             	add    rdx,r14
9227:	0f 82 bb 0a 00 00    	jb     9ce8 <vasnprintf+0x10e8>
922d:	48 39 d0             	cmp    rax,rdx
9230:	48 0f 42 c2          	cmovb  rax,rdx
9234:	49 39 c4             	cmp    r12,rax
9237:	0f 83 d3 fe ff ff    	jae    9110 <vasnprintf+0x510>
923d:	4d 85 e4             	test   r12,r12
9240:	0f 88 2b fb ff ff    	js     8d71 <vasnprintf+0x171>
9246:	48 39 c6             	cmp    rsi,rax
9249:	49 89 f4             	mov    r12,rsi
924c:	73 0d                	jae    925b <vasnprintf+0x65b>
924e:	48 83 f8 ff          	cmp    rax,0xffffffffffffffff
9252:	0f 84 19 fb ff ff    	je     8d71 <vasnprintf+0x171>
9258:	49 89 c4             	mov    r12,rax
925b:	4c 3b bd 18 fc ff ff 	cmp    r15,QWORD PTR [rbp-0x3e8]
9262:	0f 94 c3             	sete   bl
9265:	4d 85 ff             	test   r15,r15
9268:	0f 84 82 03 00 00    	je     95f0 <vasnprintf+0x9f0>
926e:	84 db                	test   bl,bl
9270:	0f 85 7a 03 00 00    	jne    95f0 <vasnprintf+0x9f0>
9276:	4c 89 e6             	mov    rsi,r12
9279:	4c 89 ff             	mov    rdi,r15
927c:	e8 cf 87 ff ff       	call   1a50 <realloc@plt>
9281:	48 85 c0             	test   rax,rax
9284:	0f 84 e7 fa ff ff    	je     8d71 <vasnprintf+0x171>
928a:	49 89 c7             	mov    r15,rax
928d:	e9 7e fe ff ff       	jmp    9110 <vasnprintf+0x510>
9292:	66 0f 1f 44 00 00    	nop    WORD PTR [rax+rax*1+0x0]
9298:	49 8b 45 50          	mov    rax,QWORD PTR [r13+0x50]
929c:	4b 8d 3c 37          	lea    rdi,[r15+r14*1]
92a0:	48 c1 e0 05          	shl    rax,0x5
92a4:	48 03 85 58 fc ff ff 	add    rax,QWORD PTR [rbp-0x3a8]
92ab:	44 8b 48 10          	mov    r9d,DWORD PTR [rax+0x10]
92af:	8b 85 20 fc ff ff    	mov    eax,DWORD PTR [rbp-0x3e0]
92b5:	83 f8 01             	cmp    eax,0x1
92b8:	0f 84 32 02 00 00    	je     94f0 <vasnprintf+0x8f0>
92be:	83 f8 02             	cmp    eax,0x2
92c1:	0f 84 71 02 00 00    	je     9538 <vasnprintf+0x938>
92c7:	48 83 ec 08          	sub    rsp,0x8
92cb:	ff b5 10 fc ff ff    	push   QWORD PTR [rbp-0x3f0]
92d1:	4c 8b 85 28 fc ff ff 	mov    r8,QWORD PTR [rbp-0x3d8]
92d8:	48 c7 c1 ff ff ff ff 	mov    rcx,0xffffffffffffffff
92df:	ba 01 00 00 00       	mov    edx,0x1
92e4:	4c 89 d6             	mov    rsi,r10
92e7:	31 c0                	xor    eax,eax
92e9:	4c 89 95 d0 fb ff ff 	mov    QWORD PTR [rbp-0x430],r10
92f0:	e8 cb 84 ff ff       	call   17c0 <__snprintf_chk@plt>
92f5:	5a                   	pop    rdx
92f6:	59                   	pop    rcx
92f7:	8b 8d 44 fc ff ff    	mov    ecx,DWORD PTR [rbp-0x3bc]
92fd:	4c 8b 95 d0 fb ff ff 	mov    r10,QWORD PTR [rbp-0x430]
9304:	85 c9                	test   ecx,ecx
9306:	0f 89 c8 fe ff ff    	jns    91d4 <vasnprintf+0x5d4>
930c:	48 8b bd 08 fc ff ff 	mov    rdi,QWORD PTR [rbp-0x3f8]
9313:	80 7f 01 00          	cmp    BYTE PTR [rdi+0x1],0x0
9317:	0f 85 3b 03 00 00    	jne    9658 <vasnprintf+0xa58>
931d:	85 c0                	test   eax,eax
931f:	0f 89 c9 fe ff ff    	jns    91ee <vasnprintf+0x5ee>
9325:	48 8b 85 38 fc ff ff 	mov    rax,QWORD PTR [rbp-0x3c8]
932c:	8b 18                	mov    ebx,DWORD PTR [rax]
932e:	85 db                	test   ebx,ebx
9330:	75 1e                	jne    9350 <vasnprintf+0x750>
9332:	41 0f b6 45 48       	movzx  eax,BYTE PTR [r13+0x48]
9337:	bb 16 00 00 00       	mov    ebx,0x16
933c:	83 e0 ef             	and    eax,0xffffffef
933f:	3c 63                	cmp    al,0x63
9341:	b8 54 00 00 00       	mov    eax,0x54
9346:	0f 44 d8             	cmove  ebx,eax
9349:	0f 1f 80 00 00 00 00 	nop    DWORD PTR [rax+0x0]
9350:	4c 3b bd 18 fc ff ff 	cmp    r15,QWORD PTR [rbp-0x3e8]
9357:	74 09                	je     9362 <vasnprintf+0x762>
9359:	4d 85 ff             	test   r15,r15
935c:	0f 85 aa 07 00 00    	jne    9b0c <vasnprintf+0xf0c>
9362:	48 8b 85 e0 fb ff ff 	mov    rax,QWORD PTR [rbp-0x420]
9369:	48 85 c0             	test   rax,rax
936c:	74 08                	je     9376 <vasnprintf+0x776>
936e:	48 89 c7             	mov    rdi,rax
9371:	e8 5a 84 ff ff       	call   17d0 <free@plt>
9376:	48 8b 85 f8 fb ff ff 	mov    rax,QWORD PTR [rbp-0x408]
937d:	48 8b bd 48 fd ff ff 	mov    rdi,QWORD PTR [rbp-0x2b8]
9384:	48 83 c0 20          	add    rax,0x20
9388:	48 39 c7             	cmp    rdi,rax
938b:	74 05                	je     9392 <vasnprintf+0x792>
938d:	e8 3e 84 ff ff       	call   17d0 <free@plt>
9392:	48 8b 85 f0 fb ff ff 	mov    rax,QWORD PTR [rbp-0x410]
9399:	48 8b bd 58 fc ff ff 	mov    rdi,QWORD PTR [rbp-0x3a8]
93a0:	48 83 c0 10          	add    rax,0x10
93a4:	48 39 c7             	cmp    rdi,rax
93a7:	74 05                	je     93ae <vasnprintf+0x7ae>
93a9:	e8 22 84 ff ff       	call   17d0 <free@plt>
93ae:	48 8b 85 38 fc ff ff 	mov    rax,QWORD PTR [rbp-0x3c8]
93b5:	45 31 ff             	xor    r15d,r15d
93b8:	89 18                	mov    DWORD PTR [rax],ebx
93ba:	e9 20 fa ff ff       	jmp    8ddf <vasnprintf+0x1df>
93bf:	90                   	nop
93c0:	49 8b 45 50          	mov    rax,QWORD PTR [r13+0x50]
93c4:	4b 8d 3c 37          	lea    rdi,[r15+r14*1]
93c8:	48 c1 e0 05          	shl    rax,0x5
93cc:	48 03 85 58 fc ff ff 	add    rax,QWORD PTR [rbp-0x3a8]
93d3:	db 68 10             	fld    TBYTE PTR [rax+0x10]
93d6:	8b 85 20 fc ff ff    	mov    eax,DWORD PTR [rbp-0x3e0]
93dc:	83 f8 01             	cmp    eax,0x1
93df:	0f 84 2b 06 00 00    	je     9a10 <vasnprintf+0xe10>
93e5:	83 f8 02             	cmp    eax,0x2
93e8:	0f 85 c2 04 00 00    	jne    98b0 <vasnprintf+0xcb0>
93ee:	8b 85 4c fc ff ff    	mov    eax,DWORD PTR [rbp-0x3b4]
93f4:	48 83 ec 08          	sub    rsp,0x8
93f8:	ff b5 10 fc ff ff    	push   QWORD PTR [rbp-0x3f0]
93fe:	44 8b 8d 48 fc ff ff 	mov    r9d,DWORD PTR [rbp-0x3b8]
9405:	4c 8b 85 28 fc ff ff 	mov    r8,QWORD PTR [rbp-0x3d8]
940c:	4c 89 d6             	mov    rsi,r10
940f:	48 83 ec 18          	sub    rsp,0x18
9413:	48 c7 c1 ff ff ff ff 	mov    rcx,0xffffffffffffffff
941a:	ba 01 00 00 00       	mov    edx,0x1
941f:	db 7c 24 08          	fstp   TBYTE PTR [rsp+0x8]
9423:	50                   	push   rax
9424:	31 c0                	xor    eax,eax
9426:	4c 89 95 d0 fb ff ff 	mov    QWORD PTR [rbp-0x430],r10
942d:	e8 8e 83 ff ff       	call   17c0 <__snprintf_chk@plt>
9432:	48 83 c4 30          	add    rsp,0x30
9436:	4c 8b 95 d0 fb ff ff 	mov    r10,QWORD PTR [rbp-0x430]
943d:	e9 84 fd ff ff       	jmp    91c6 <vasnprintf+0x5c6>
9442:	66 0f 1f 44 00 00    	nop    WORD PTR [rax+rax*1+0x0]
9448:	49 8b 45 50          	mov    rax,QWORD PTR [r13+0x50]
944c:	4b 8d 3c 37          	lea    rdi,[r15+r14*1]
9450:	48 c1 e0 05          	shl    rax,0x5
9454:	48 03 85 58 fc ff ff 	add    rax,QWORD PTR [rbp-0x3a8]
945b:	f2 0f 10 40 10       	movsd  xmm0,QWORD PTR [rax+0x10]
9460:	8b 85 20 fc ff ff    	mov    eax,DWORD PTR [rbp-0x3e0]
9466:	83 f8 01             	cmp    eax,0x1
9469:	0f 84 91 05 00 00    	je     9a00 <vasnprintf+0xe00>
946f:	83 f8 02             	cmp    eax,0x2
9472:	0f 85 f8 03 00 00    	jne    9870 <vasnprintf+0xc70>
9478:	8b 85 4c fc ff ff    	mov    eax,DWORD PTR [rbp-0x3b4]
947e:	ff b5 10 fc ff ff    	push   QWORD PTR [rbp-0x3f0]
9484:	50                   	push   rax
9485:	44 8b 8d 48 fc ff ff 	mov    r9d,DWORD PTR [rbp-0x3b8]
948c:	4c 8b 85 28 fc ff ff 	mov    r8,QWORD PTR [rbp-0x3d8]
9493:	4c 89 d6             	mov    rsi,r10
9496:	48 c7 c1 ff ff ff ff 	mov    rcx,0xffffffffffffffff
949d:	ba 01 00 00 00       	mov    edx,0x1
94a2:	b8 01 00 00 00       	mov    eax,0x1
94a7:	4c 89 95 d0 fb ff ff 	mov    QWORD PTR [rbp-0x430],r10
94ae:	e8 0d 83 ff ff       	call   17c0 <__snprintf_chk@plt>
94b3:	41 58                	pop    r8
94b5:	4c 8b 95 d0 fb ff ff 	mov    r10,QWORD PTR [rbp-0x430]
94bc:	41 59                	pop    r9
94be:	e9 03 fd ff ff       	jmp    91c6 <vasnprintf+0x5c6>
94c3:	0f 1f 44 00 00       	nop    DWORD PTR [rax+rax*1+0x0]
94c8:	49 8b 45 50          	mov    rax,QWORD PTR [r13+0x50]
94cc:	4b 8d 3c 37          	lea    rdi,[r15+r14*1]
94d0:	48 c1 e0 05          	shl    rax,0x5
94d4:	48 03 85 58 fc ff ff 	add    rax,QWORD PTR [rbp-0x3a8]
94db:	44 0f b7 48 10       	movzx  r9d,WORD PTR [rax+0x10]
94e0:	8b 85 20 fc ff ff    	mov    eax,DWORD PTR [rbp-0x3e0]
94e6:	83 f8 01             	cmp    eax,0x1
94e9:	0f 85 cf fd ff ff    	jne    92be <vasnprintf+0x6be>
94ef:	90                   	nop
94f0:	ff b5 10 fc ff ff    	push   QWORD PTR [rbp-0x3f0]
94f6:	41 51                	push   r9
94f8:	44 8b 8d 48 fc ff ff 	mov    r9d,DWORD PTR [rbp-0x3b8]
94ff:	e9 cd fd ff ff       	jmp    92d1 <vasnprintf+0x6d1>
9504:	0f 1f 40 00          	nop    DWORD PTR [rax+0x0]
9508:	49 8b 45 50          	mov    rax,QWORD PTR [r13+0x50]
950c:	4b 8d 3c 37          	lea    rdi,[r15+r14*1]
9510:	48 c1 e0 05          	shl    rax,0x5
9514:	48 03 85 58 fc ff ff 	add    rax,QWORD PTR [rbp-0x3a8]
951b:	44 0f bf 48 10       	movsx  r9d,WORD PTR [rax+0x10]
9520:	8b 85 20 fc ff ff    	mov    eax,DWORD PTR [rbp-0x3e0]
9526:	83 f8 01             	cmp    eax,0x1
9529:	74 c5                	je     94f0 <vasnprintf+0x8f0>
952b:	83 f8 02             	cmp    eax,0x2
952e:	0f 85 93 fd ff ff    	jne    92c7 <vasnprintf+0x6c7>
9534:	0f 1f 40 00          	nop    DWORD PTR [rax+0x0]
9538:	48 83 ec 08          	sub    rsp,0x8
953c:	ff b5 10 fc ff ff    	push   QWORD PTR [rbp-0x3f0]
9542:	41 51                	push   r9
9544:	8b 85 4c fc ff ff    	mov    eax,DWORD PTR [rbp-0x3b4]
954a:	50                   	push   rax
954b:	44 8b 8d 48 fc ff ff 	mov    r9d,DWORD PTR [rbp-0x3b8]
9552:	4c 8b 85 28 fc ff ff 	mov    r8,QWORD PTR [rbp-0x3d8]
9559:	4c 89 d6             	mov    rsi,r10
955c:	48 c7 c1 ff ff ff ff 	mov    rcx,0xffffffffffffffff
9563:	ba 01 00 00 00       	mov    edx,0x1
9568:	31 c0                	xor    eax,eax
956a:	4c 89 95 d0 fb ff ff 	mov    QWORD PTR [rbp-0x430],r10
9571:	e8 4a 82 ff ff       	call   17c0 <__snprintf_chk@plt>
9576:	48 83 c4 20          	add    rsp,0x20
957a:	4c 8b 95 d0 fb ff ff 	mov    r10,QWORD PTR [rbp-0x430]
9581:	e9 40 fc ff ff       	jmp    91c6 <vasnprintf+0x5c6>
9586:	66 2e 0f 1f 84 00 00 	nop    WORD PTR cs:[rax+rax*1+0x0]
958d:	00 00 00
9590:	49 8b 45 50          	mov    rax,QWORD PTR [r13+0x50]
9594:	4b 8d 3c 37          	lea    rdi,[r15+r14*1]
9598:	48 c1 e0 05          	shl    rax,0x5
959c:	48 03 85 58 fc ff ff 	add    rax,QWORD PTR [rbp-0x3a8]
95a3:	44 0f b6 48 10       	movzx  r9d,BYTE PTR [rax+0x10]
95a8:	8b 85 20 fc ff ff    	mov    eax,DWORD PTR [rbp-0x3e0]
95ae:	83 f8 01             	cmp    eax,0x1
95b1:	0f 85 07 fd ff ff    	jne    92be <vasnprintf+0x6be>
95b7:	e9 34 ff ff ff       	jmp    94f0 <vasnprintf+0x8f0>
95bc:	0f 1f 40 00          	nop    DWORD PTR [rax+0x0]
95c0:	49 8b 45 50          	mov    rax,QWORD PTR [r13+0x50]
95c4:	4b 8d 3c 37          	lea    rdi,[r15+r14*1]
95c8:	48 c1 e0 05          	shl    rax,0x5
95cc:	48 03 85 58 fc ff ff 	add    rax,QWORD PTR [rbp-0x3a8]
95d3:	44 0f be 48 10       	movsx  r9d,BYTE PTR [rax+0x10]
95d8:	8b 85 20 fc ff ff    	mov    eax,DWORD PTR [rbp-0x3e0]
95de:	83 f8 01             	cmp    eax,0x1
95e1:	0f 85 d7 fc ff ff    	jne    92be <vasnprintf+0x6be>
95e7:	e9 04 ff ff ff       	jmp    94f0 <vasnprintf+0x8f0>
95ec:	0f 1f 40 00          	nop    DWORD PTR [rax+0x0]
95f0:	4c 89 e7             	mov    rdi,r12
95f3:	e8 f8 83 ff ff       	call   19f0 <malloc@plt>
95f8:	48 85 c0             	test   rax,rax
95fb:	48 89 c1             	mov    rcx,rax
95fe:	0f 84 6d f7 ff ff    	je     8d71 <vasnprintf+0x171>
9604:	4d 85 f6             	test   r14,r14
9607:	0f 84 b3 00 00 00    	je     96c0 <vasnprintf+0xac0>
960d:	84 db                	test   bl,bl
960f:	0f 84 ab 00 00 00    	je     96c0 <vasnprintf+0xac0>
9615:	4c 89 fe             	mov    rsi,r15
9618:	4c 89 f2             	mov    rdx,r14
961b:	48 89 c7             	mov    rdi,rax
961e:	e8 ad 83 ff ff       	call   19d0 <memcpy@plt>
9623:	49 89 c7             	mov    r15,rax
9626:	e9 e5 fa ff ff       	jmp    9110 <vasnprintf+0x510>
962b:	0f 1f 44 00 00       	nop    DWORD PTR [rax+rax*1+0x0]
9630:	48 83 ec 08          	sub    rsp,0x8
9634:	ff b5 10 fc ff ff    	push   QWORD PTR [rbp-0x3f0]
963a:	41 51                	push   r9
963c:	e9 03 ff ff ff       	jmp    9544 <vasnprintf+0x944>
9641:	0f 1f 80 00 00 00 00 	nop    DWORD PTR [rax+0x0]
9648:	ff b5 10 fc ff ff    	push   QWORD PTR [rbp-0x3f0]
964e:	41 51                	push   r9
9650:	e9 a3 fe ff ff       	jmp    94f8 <vasnprintf+0x8f8>
9655:	0f 1f 00             	nop    DWORD PTR [rax]
9658:	c6 47 01 00          	mov    BYTE PTR [rdi+0x1],0x0
965c:	e9 af fa ff ff       	jmp    9110 <vasnprintf+0x510>
9661:	0f 1f 80 00 00 00 00 	nop    DWORD PTR [rax+0x0]
9668:	48 83 f8 ff          	cmp    rax,0xffffffffffffffff
966c:	0f 85 b4 04 00 00    	jne    9b26 <vasnprintf+0xf26>
9672:	4c 89 f0             	mov    rax,r14
9675:	48 83 c0 01          	add    rax,0x1
9679:	48 89 c3             	mov    rbx,rax
967c:	0f 83 86 00 00 00    	jae    9708 <vasnprintf+0xb08>
9682:	49 83 fc ff          	cmp    r12,0xffffffffffffffff
9686:	0f 85 d9 f6 ff ff    	jne    8d65 <vasnprintf+0x165>
968c:	4c 89 e3             	mov    rbx,r12
968f:	43 c6 04 37 25       	mov    BYTE PTR [r15+r14*1],0x25
9694:	4d 8b 45 08          	mov    r8,QWORD PTR [r13+0x8]
9698:	49 83 c5 58          	add    r13,0x58
969c:	49 8b 4d 00          	mov    rcx,QWORD PTR [r13+0x0]
96a0:	48 83 85 00 fc ff ff 	add    QWORD PTR [rbp-0x400],0x1
96a7:	01
96a8:	4c 39 c1             	cmp    rcx,r8
96ab:	0f 85 98 f6 ff ff    	jne    8d49 <vasnprintf+0x149>
96b1:	49 89 de             	mov    r14,rbx
96b4:	e9 fa f7 ff ff       	jmp    8eb3 <vasnprintf+0x2b3>
96b9:	0f 1f 80 00 00 00 00 	nop    DWORD PTR [rax+0x0]
96c0:	49 89 cf             	mov    r15,rcx
96c3:	e9 48 fa ff ff       	jmp    9110 <vasnprintf+0x510>
96c8:	e8 23 81 ff ff       	call   17f0 <__errno_location@plt>
96cd:	48 89 85 38 fc ff ff 	mov    QWORD PTR [rbp-0x3c8],rax
96d4:	e9 be f6 ff ff       	jmp    8d97 <vasnprintf+0x197>
96d9:	0f 1f 80 00 00 00 00 	nop    DWORD PTR [rax+0x0]
96e0:	89 fa                	mov    edx,edi
96e2:	83 ea 12             	sub    edx,0x12
96e5:	83 fa 04             	cmp    edx,0x4
96e8:	0f 87 38 04 00 00    	ja     9b26 <vasnprintf+0xf26>
96ee:	48 8d 3d f7 3b 00 00 	lea    rdi,[rip+0x3bf7]        # d2ec <__PRETTY_FUNCTION__.4162+0x64>
96f5:	48 8b 40 10          	mov    rax,QWORD PTR [rax+0x10]
96f9:	48 63 14 97          	movsxd rdx,DWORD PTR [rdi+rdx*4]
96fd:	48 01 fa             	add    rdx,rdi
9700:	ff e2                	jmp    rdx
9702:	66 0f 1f 44 00 00    	nop    WORD PTR [rax+rax*1+0x0]
9708:	49 39 c4             	cmp    r12,rax
970b:	73 82                	jae    968f <vasnprintf+0xa8f>
970d:	4d 85 e4             	test   r12,r12
9710:	0f 85 ca 03 00 00    	jne    9ae0 <vasnprintf+0xee0>
9716:	48 83 f8 0c          	cmp    rax,0xc
971a:	0f 87 d2 03 00 00    	ja     9af2 <vasnprintf+0xef2>
9720:	41 bc 0c 00 00 00    	mov    r12d,0xc
9726:	4c 3b bd 18 fc ff ff 	cmp    r15,QWORD PTR [rbp-0x3e8]
972d:	0f 94 c2             	sete   dl
9730:	4d 85 ff             	test   r15,r15
9733:	0f 84 67 02 00 00    	je     99a0 <vasnprintf+0xda0>
9739:	84 d2                	test   dl,dl
973b:	0f 85 5f 02 00 00    	jne    99a0 <vasnprintf+0xda0>
9741:	4c 89 e6             	mov    rsi,r12
9744:	4c 89 ff             	mov    rdi,r15
9747:	e8 04 83 ff ff       	call   1a50 <realloc@plt>
974c:	48 85 c0             	test   rax,rax
974f:	0f 84 f6 00 00 00    	je     984b <vasnprintf+0xc4b>
9755:	49 89 c7             	mov    r15,rax
9758:	e9 32 ff ff ff       	jmp    968f <vasnprintf+0xa8f>
975d:	0f 1f 00             	nop    DWORD PTR [rax]
9760:	c7 85 20 fc ff ff 00 	mov    DWORD PTR [rbp-0x3e0],0x0
9767:	00 00 00
976a:	e9 e8 f8 ff ff       	jmp    9057 <vasnprintf+0x457>
976f:	90                   	nop
9770:	0f 88 ef f5 ff ff    	js     8d65 <vasnprintf+0x165>
9776:	4d 01 e4             	add    r12,r12
9779:	49 39 c4             	cmp    r12,rax
977c:	0f 83 d4 f6 ff ff    	jae    8e56 <vasnprintf+0x256>
9782:	48 83 f8 ff          	cmp    rax,0xffffffffffffffff
9786:	0f 84 d9 f5 ff ff    	je     8d65 <vasnprintf+0x165>
978c:	4c 3b bd 18 fc ff ff 	cmp    r15,QWORD PTR [rbp-0x3e8]
9793:	49 89 c4             	mov    r12,rax
9796:	0f 94 c2             	sete   dl
9799:	4d 85 ff             	test   r15,r15
979c:	0f 85 c7 f6 ff ff    	jne    8e69 <vasnprintf+0x269>
97a2:	66 0f 1f 44 00 00    	nop    WORD PTR [rax+rax*1+0x0]
97a8:	4c 89 e7             	mov    rdi,r12
97ab:	4c 89 85 20 fc ff ff 	mov    QWORD PTR [rbp-0x3e0],r8
97b2:	88 95 30 fc ff ff    	mov    BYTE PTR [rbp-0x3d0],dl
97b8:	48 89 8d 38 fc ff ff 	mov    QWORD PTR [rbp-0x3c8],rcx
97bf:	e8 2c 82 ff ff       	call   19f0 <malloc@plt>
97c4:	48 85 c0             	test   rax,rax
97c7:	49 89 c1             	mov    r9,rax
97ca:	48 8b 8d 38 fc ff ff 	mov    rcx,QWORD PTR [rbp-0x3c8]
97d1:	0f b6 95 30 fc ff ff 	movzx  edx,BYTE PTR [rbp-0x3d0]
97d8:	4c 8b 85 20 fc ff ff 	mov    r8,QWORD PTR [rbp-0x3e0]
97df:	0f 84 80 f5 ff ff    	je     8d65 <vasnprintf+0x165>
97e5:	48 85 db             	test   rbx,rbx
97e8:	0f 84 02 02 00 00    	je     99f0 <vasnprintf+0xdf0>
97ee:	84 d2                	test   dl,dl
97f0:	0f 84 fa 01 00 00    	je     99f0 <vasnprintf+0xdf0>
97f6:	4c 89 fe             	mov    rsi,r15
97f9:	48 89 da             	mov    rdx,rbx
97fc:	48 89 c7             	mov    rdi,rax
97ff:	4c 89 85 30 fc ff ff 	mov    QWORD PTR [rbp-0x3d0],r8
9806:	48 89 8d 38 fc ff ff 	mov    QWORD PTR [rbp-0x3c8],rcx
980d:	e8 be 81 ff ff       	call   19d0 <memcpy@plt>
9812:	48 8b 8d 38 fc ff ff 	mov    rcx,QWORD PTR [rbp-0x3c8]
9819:	49 89 c7             	mov    r15,rax
981c:	4c 8b 85 30 fc ff ff 	mov    r8,QWORD PTR [rbp-0x3d0]
9823:	e9 7c f6 ff ff       	jmp    8ea4 <vasnprintf+0x2a4>
9828:	0f 1f 84 00 00 00 00 	nop    DWORD PTR [rax+rax*1+0x0]
982f:	00
9830:	4d 89 e6             	mov    r14,r12
9833:	e9 6c f6 ff ff       	jmp    8ea4 <vasnprintf+0x2a4>
9838:	0f 1f 84 00 00 00 00 	nop    DWORD PTR [rax+rax*1+0x0]
983f:	00
9840:	4c 89 30             	mov    QWORD PTR [rax],r14
9843:	4c 89 f3             	mov    rbx,r14
9846:	e9 49 fe ff ff       	jmp    9694 <vasnprintf+0xa94>
984b:	e8 a0 7f ff ff       	call   17f0 <__errno_location@plt>
9850:	48 89 85 38 fc ff ff 	mov    QWORD PTR [rbp-0x3c8],rax
9857:	66 0f 1f 84 00 00 00 	nop    WORD PTR [rax+rax*1+0x0]
985e:	00 00
9860:	4c 89 ff             	mov    rdi,r15
9863:	e8 68 7f ff ff       	call   17d0 <free@plt>
9868:	e9 16 f5 ff ff       	jmp    8d83 <vasnprintf+0x183>
986d:	0f 1f 00             	nop    DWORD PTR [rax]
9870:	4c 8b 8d 10 fc ff ff 	mov    r9,QWORD PTR [rbp-0x3f0]
9877:	4c 8b 85 28 fc ff ff 	mov    r8,QWORD PTR [rbp-0x3d8]
987e:	4c 89 d6             	mov    rsi,r10
9881:	48 c7 c1 ff ff ff ff 	mov    rcx,0xffffffffffffffff
9888:	ba 01 00 00 00       	mov    edx,0x1
988d:	b8 01 00 00 00       	mov    eax,0x1
9892:	4c 89 95 d0 fb ff ff 	mov    QWORD PTR [rbp-0x430],r10
9899:	e8 22 7f ff ff       	call   17c0 <__snprintf_chk@plt>
989e:	4c 8b 95 d0 fb ff ff 	mov    r10,QWORD PTR [rbp-0x430]
98a5:	e9 1c f9 ff ff       	jmp    91c6 <vasnprintf+0x5c6>
98aa:	66 0f 1f 44 00 00    	nop    WORD PTR [rax+rax*1+0x0]
98b0:	48 83 ec 10          	sub    rsp,0x10
98b4:	4c 8b 8d 10 fc ff ff 	mov    r9,QWORD PTR [rbp-0x3f0]
98bb:	db 3c 24             	fstp   TBYTE PTR [rsp]
98be:	e9 d6 f8 ff ff       	jmp    9199 <vasnprintf+0x599>
98c3:	0f 1f 44 00 00       	nop    DWORD PTR [rax+rax*1+0x0]
98c8:	0f 88 97 f4 ff ff    	js     8d65 <vasnprintf+0x165>
98ce:	4d 01 e4             	add    r12,r12
98d1:	49 39 c4             	cmp    r12,rax
98d4:	0f 83 df f7 ff ff    	jae    90b9 <vasnprintf+0x4b9>
98da:	66 0f 1f 44 00 00    	nop    WORD PTR [rax+rax*1+0x0]
98e0:	48 85 d2             	test   rdx,rdx
98e3:	0f 85 7c f4 ff ff    	jne    8d65 <vasnprintf+0x165>
98e9:	48 83 f8 ff          	cmp    rax,0xffffffffffffffff
98ed:	0f 84 72 f4 ff ff    	je     8d65 <vasnprintf+0x165>
98f3:	4c 3b bd 18 fc ff ff 	cmp    r15,QWORD PTR [rbp-0x3e8]
98fa:	49 89 c4             	mov    r12,rax
98fd:	0f 94 c2             	sete   dl
9900:	4d 85 ff             	test   r15,r15
9903:	0f 85 c3 f7 ff ff    	jne    90cc <vasnprintf+0x4cc>
9909:	0f 1f 80 00 00 00 00 	nop    DWORD PTR [rax+0x0]
9910:	4c 89 e7             	mov    rdi,r12
9913:	88 95 38 fc ff ff    	mov    BYTE PTR [rbp-0x3c8],dl
9919:	e8 d2 80 ff ff       	call   19f0 <malloc@plt>
991e:	48 85 c0             	test   rax,rax
9921:	48 89 c1             	mov    rcx,rax
9924:	0f b6 95 38 fc ff ff 	movzx  edx,BYTE PTR [rbp-0x3c8]
992b:	0f 84 34 f4 ff ff    	je     8d65 <vasnprintf+0x165>
9931:	4d 85 f6             	test   r14,r14
9934:	0f 84 96 01 00 00    	je     9ad0 <vasnprintf+0xed0>
993a:	84 d2                	test   dl,dl
993c:	0f 84 8e 01 00 00    	je     9ad0 <vasnprintf+0xed0>
9942:	4c 89 fe             	mov    rsi,r15
9945:	4c 89 f2             	mov    rdx,r14
9948:	48 89 c7             	mov    rdi,rax
994b:	e8 80 80 ff ff       	call   19d0 <memcpy@plt>
9950:	49 89 c7             	mov    r15,rax
9953:	e9 93 f7 ff ff       	jmp    90eb <vasnprintf+0x4eb>
9958:	0f 1f 84 00 00 00 00 	nop    DWORD PTR [rax+rax*1+0x0]
995f:	00
9960:	c6 03 4c             	mov    BYTE PTR [rbx],0x4c
9963:	48 83 c3 01          	add    rbx,0x1
9967:	e9 af f6 ff ff       	jmp    901b <vasnprintf+0x41b>
996c:	0f 1f 40 00          	nop    DWORD PTR [rax+0x0]
9970:	44 88 30             	mov    BYTE PTR [rax],r14b
9973:	4c 89 f3             	mov    rbx,r14
9976:	e9 19 fd ff ff       	jmp    9694 <vasnprintf+0xa94>
997b:	0f 1f 44 00 00       	nop    DWORD PTR [rax+rax*1+0x0]
9980:	44 89 30             	mov    DWORD PTR [rax],r14d
9983:	4c 89 f3             	mov    rbx,r14
9986:	e9 09 fd ff ff       	jmp    9694 <vasnprintf+0xa94>
998b:	0f 1f 44 00 00       	nop    DWORD PTR [rax+rax*1+0x0]
9990:	66 44 89 30          	mov    WORD PTR [rax],r14w
9994:	4c 89 f3             	mov    rbx,r14
9997:	e9 f8 fc ff ff       	jmp    9694 <vasnprintf+0xa94>
999c:	0f 1f 40 00          	nop    DWORD PTR [rax+0x0]
99a0:	4c 89 e7             	mov    rdi,r12
99a3:	88 95 38 fc ff ff    	mov    BYTE PTR [rbp-0x3c8],dl
99a9:	e8 42 80 ff ff       	call   19f0 <malloc@plt>
99ae:	48 85 c0             	test   rax,rax
99b1:	48 89 c1             	mov    rcx,rax
99b4:	0f b6 95 38 fc ff ff 	movzx  edx,BYTE PTR [rbp-0x3c8]
99bb:	0f 84 a4 f3 ff ff    	je     8d65 <vasnprintf+0x165>
99c1:	4d 85 f6             	test   r14,r14
99c4:	0f 84 3a 01 00 00    	je     9b04 <vasnprintf+0xf04>
99ca:	84 d2                	test   dl,dl
99cc:	0f 84 32 01 00 00    	je     9b04 <vasnprintf+0xf04>
99d2:	4c 89 fe             	mov    rsi,r15
99d5:	4c 89 f2             	mov    rdx,r14
99d8:	48 89 c7             	mov    rdi,rax
99db:	e8 f0 7f ff ff       	call   19d0 <memcpy@plt>
99e0:	49 89 c7             	mov    r15,rax
99e3:	e9 a7 fc ff ff       	jmp    968f <vasnprintf+0xa8f>
99e8:	0f 1f 84 00 00 00 00 	nop    DWORD PTR [rax+rax*1+0x0]
99ef:	00
99f0:	4d 89 cf             	mov    r15,r9
99f3:	e9 ac f4 ff ff       	jmp    8ea4 <vasnprintf+0x2a4>
99f8:	0f 1f 84 00 00 00 00 	nop    DWORD PTR [rax+rax*1+0x0]
99ff:	00
9a00:	48 83 ec 08          	sub    rsp,0x8
9a04:	ff b5 10 fc ff ff    	push   QWORD PTR [rbp-0x3f0]
9a0a:	e9 76 fa ff ff       	jmp    9485 <vasnprintf+0x885>
9a0f:	90                   	nop
9a10:	48 83 ec 08          	sub    rsp,0x8
9a14:	ff b5 10 fc ff ff    	push   QWORD PTR [rbp-0x3f0]
9a1a:	48 83 ec 10          	sub    rsp,0x10
9a1e:	db 3c 24             	fstp   TBYTE PTR [rsp]
9a21:	e9 25 fb ff ff       	jmp    954b <vasnprintf+0x94b>
9a26:	66 2e 0f 1f 84 00 00 	nop    WORD PTR cs:[rax+rax*1+0x0]
9a2d:	00 00 00
9a30:	48 8b 85 38 fc ff ff 	mov    rax,QWORD PTR [rbp-0x3c8]
9a37:	8b bd dc fb ff ff    	mov    edi,DWORD PTR [rbp-0x424]
9a3d:	48 63 d9             	movsxd rbx,ecx
9a40:	4c 01 f3             	add    rbx,r14
9a43:	89 38                	mov    DWORD PTR [rax],edi
9a45:	e9 4a fc ff ff       	jmp    9694 <vasnprintf+0xa94>
9a4a:	66 0f 1f 44 00 00    	nop    WORD PTR [rax+rax*1+0x0]
9a50:	4c 3b bd 18 fc ff ff 	cmp    r15,QWORD PTR [rbp-0x3e8]
9a57:	74 09                	je     9a62 <vasnprintf+0xe62>
9a59:	4d 85 ff             	test   r15,r15
9a5c:	0f 85 b7 00 00 00    	jne    9b19 <vasnprintf+0xf19>
9a62:	48 8b 85 e0 fb ff ff 	mov    rax,QWORD PTR [rbp-0x420]
9a69:	48 85 c0             	test   rax,rax
9a6c:	74 08                	je     9a76 <vasnprintf+0xe76>
9a6e:	48 89 c7             	mov    rdi,rax
9a71:	e8 5a 7d ff ff       	call   17d0 <free@plt>
9a76:	48 8b 85 f8 fb ff ff 	mov    rax,QWORD PTR [rbp-0x408]
9a7d:	48 8b bd 48 fd ff ff 	mov    rdi,QWORD PTR [rbp-0x2b8]
9a84:	48 83 c0 20          	add    rax,0x20
9a88:	48 39 c7             	cmp    rdi,rax
9a8b:	74 05                	je     9a92 <vasnprintf+0xe92>
9a8d:	e8 3e 7d ff ff       	call   17d0 <free@plt>
9a92:	48 8b 85 f0 fb ff ff 	mov    rax,QWORD PTR [rbp-0x410]
9a99:	48 8b bd 58 fc ff ff 	mov    rdi,QWORD PTR [rbp-0x3a8]
9aa0:	48 83 c0 10          	add    rax,0x10
9aa4:	48 39 c7             	cmp    rdi,rax
9aa7:	74 05                	je     9aae <vasnprintf+0xeae>
9aa9:	e8 22 7d ff ff       	call   17d0 <free@plt>
9aae:	48 8b 85 38 fc ff ff 	mov    rax,QWORD PTR [rbp-0x3c8]
9ab5:	45 31 ff             	xor    r15d,r15d
9ab8:	c7 00 4b 00 00 00    	mov    DWORD PTR [rax],0x4b
9abe:	e9 1c f3 ff ff       	jmp    8ddf <vasnprintf+0x1df>
9ac3:	0f 1f 44 00 00       	nop    DWORD PTR [rax+rax*1+0x0]
9ac8:	45 31 ff             	xor    r15d,r15d
9acb:	e9 0f f3 ff ff       	jmp    8ddf <vasnprintf+0x1df>
9ad0:	49 89 cf             	mov    r15,rcx
9ad3:	e9 13 f6 ff ff       	jmp    90eb <vasnprintf+0x4eb>
9ad8:	0f 1f 84 00 00 00 00 	nop    DWORD PTR [rax+rax*1+0x0]
9adf:	00
9ae0:	0f 88 7f f2 ff ff    	js     8d65 <vasnprintf+0x165>
9ae6:	4d 01 e4             	add    r12,r12
9ae9:	49 39 c4             	cmp    r12,rax
9aec:	0f 83 34 fc ff ff    	jae    9726 <vasnprintf+0xb26>
9af2:	48 83 f8 ff          	cmp    rax,0xffffffffffffffff
9af6:	0f 84 69 f2 ff ff    	je     8d65 <vasnprintf+0x165>
9afc:	49 89 c4             	mov    r12,rax
9aff:	e9 22 fc ff ff       	jmp    9726 <vasnprintf+0xb26>
9b04:	49 89 cf             	mov    r15,rcx
9b07:	e9 83 fb ff ff       	jmp    968f <vasnprintf+0xa8f>
9b0c:	4c 89 ff             	mov    rdi,r15
9b0f:	e8 bc 7c ff ff       	call   17d0 <free@plt>
9b14:	e9 49 f8 ff ff       	jmp    9362 <vasnprintf+0x762>
9b19:	4c 89 ff             	mov    rdi,r15
9b1c:	e8 af 7c ff ff       	call   17d0 <free@plt>
9b21:	e9 3c ff ff ff       	jmp    9a62 <vasnprintf+0xe62>
9b26:	e8 b5 7c ff ff       	call   17e0 <abort@plt>
9b2b:	0f 1f 44 00 00       	nop    DWORD PTR [rax+rax*1+0x0]
9b30:	48 8b 85 f8 fb ff ff 	mov    rax,QWORD PTR [rbp-0x408]
9b37:	48 8b bd 48 fd ff ff 	mov    rdi,QWORD PTR [rbp-0x2b8]
9b3e:	48 83 c0 20          	add    rax,0x20
9b42:	48 39 c7             	cmp    rdi,rax
9b45:	74 05                	je     9b4c <vasnprintf+0xf4c>
9b47:	e8 84 7c ff ff       	call   17d0 <free@plt>
9b4c:	48 8b 85 f0 fb ff ff 	mov    rax,QWORD PTR [rbp-0x410]
9b53:	48 8b bd 58 fc ff ff 	mov    rdi,QWORD PTR [rbp-0x3a8]
9b5a:	48 83 c0 10          	add    rax,0x10
9b5e:	48 39 c7             	cmp    rdi,rax
9b61:	74 05                	je     9b68 <vasnprintf+0xf68>
9b63:	e8 68 7c ff ff       	call   17d0 <free@plt>
9b68:	e8 83 7c ff ff       	call   17f0 <__errno_location@plt>
9b6d:	45 31 ff             	xor    r15d,r15d
9b70:	c7 00 16 00 00 00    	mov    DWORD PTR [rax],0x16
9b76:	e9 64 f2 ff ff       	jmp    8ddf <vasnprintf+0x1df>
9b7b:	4c 89 f3             	mov    rbx,r14
9b7e:	31 c0                	xor    eax,eax
9b80:	48 83 c3 01          	add    rbx,0x1
9b84:	0f 82 06 01 00 00    	jb     9c90 <vasnprintf+0x1090>
9b8a:	49 39 dc             	cmp    r12,rbx
9b8d:	73 4d                	jae    9bdc <vasnprintf+0xfdc>
9b8f:	4d 85 e4             	test   r12,r12
9b92:	0f 85 31 01 00 00    	jne    9cc9 <vasnprintf+0x10c9>
9b98:	48 83 fb 0c          	cmp    rbx,0xc
9b9c:	0f 87 0c 01 00 00    	ja     9cae <vasnprintf+0x10ae>
9ba2:	41 bc 0c 00 00 00    	mov    r12d,0xc
9ba8:	4c 3b bd 18 fc ff ff 	cmp    r15,QWORD PTR [rbp-0x3e8]
9baf:	41 0f 94 c5          	sete   r13b
9bb3:	4d 85 ff             	test   r15,r15
9bb6:	0f 84 a0 00 00 00    	je     9c5c <vasnprintf+0x105c>
9bbc:	45 84 ed             	test   r13b,r13b
9bbf:	0f 85 97 00 00 00    	jne    9c5c <vasnprintf+0x105c>
9bc5:	4c 89 e6             	mov    rsi,r12
9bc8:	4c 89 ff             	mov    rdi,r15
9bcb:	e8 80 7e ff ff       	call   1a50 <realloc@plt>
9bd0:	48 85 c0             	test   rax,rax
9bd3:	0f 84 72 fc ff ff    	je     984b <vasnprintf+0xc4b>
9bd9:	49 89 c7             	mov    r15,rax
9bdc:	4c 3b bd 18 fc ff ff 	cmp    r15,QWORD PTR [rbp-0x3e8]
9be3:	43 c6 04 37 00       	mov    BYTE PTR [r15+r14*1],0x0
9be8:	74 17                	je     9c01 <vasnprintf+0x1001>
9bea:	49 39 dc             	cmp    r12,rbx
9bed:	76 12                	jbe    9c01 <vasnprintf+0x1001>
9bef:	4c 89 ff             	mov    rdi,r15
9bf2:	48 89 de             	mov    rsi,rbx
9bf5:	e8 56 7e ff ff       	call   1a50 <realloc@plt>
9bfa:	48 85 c0             	test   rax,rax
9bfd:	4c 0f 45 f8          	cmovne r15,rax
9c01:	48 8b 85 e0 fb ff ff 	mov    rax,QWORD PTR [rbp-0x420]
9c08:	48 85 c0             	test   rax,rax
9c0b:	74 08                	je     9c15 <vasnprintf+0x1015>
9c0d:	48 89 c7             	mov    rdi,rax
9c10:	e8 bb 7b ff ff       	call   17d0 <free@plt>
9c15:	48 8b 85 f8 fb ff ff 	mov    rax,QWORD PTR [rbp-0x408]
9c1c:	48 8b bd 48 fd ff ff 	mov    rdi,QWORD PTR [rbp-0x2b8]
9c23:	48 83 c0 20          	add    rax,0x20
9c27:	48 39 c7             	cmp    rdi,rax
9c2a:	74 05                	je     9c31 <vasnprintf+0x1031>
9c2c:	e8 9f 7b ff ff       	call   17d0 <free@plt>
9c31:	48 8b 85 f0 fb ff ff 	mov    rax,QWORD PTR [rbp-0x410]
9c38:	48 8b bd 58 fc ff ff 	mov    rdi,QWORD PTR [rbp-0x3a8]
9c3f:	48 83 c0 10          	add    rax,0x10
9c43:	48 39 c7             	cmp    rdi,rax
9c46:	74 05                	je     9c4d <vasnprintf+0x104d>
9c48:	e8 83 7b ff ff       	call   17d0 <free@plt>
9c4d:	48 8b 85 e8 fb ff ff 	mov    rax,QWORD PTR [rbp-0x418]
9c54:	4c 89 30             	mov    QWORD PTR [rax],r14
9c57:	e9 83 f1 ff ff       	jmp    8ddf <vasnprintf+0x1df>
9c5c:	4c 89 e7             	mov    rdi,r12
9c5f:	e8 8c 7d ff ff       	call   19f0 <malloc@plt>
9c64:	48 85 c0             	test   rax,rax
9c67:	48 89 c1             	mov    rcx,rax
9c6a:	0f 84 f5 f0 ff ff    	je     8d65 <vasnprintf+0x165>
9c70:	4d 85 f6             	test   r14,r14
9c73:	74 6b                	je     9ce0 <vasnprintf+0x10e0>
9c75:	45 84 ed             	test   r13b,r13b
9c78:	74 66                	je     9ce0 <vasnprintf+0x10e0>
9c7a:	4c 89 fe             	mov    rsi,r15
9c7d:	4c 89 f2             	mov    rdx,r14
9c80:	48 89 c7             	mov    rdi,rax
9c83:	e8 48 7d ff ff       	call   19d0 <memcpy@plt>
9c88:	49 89 c7             	mov    r15,rax
9c8b:	e9 4c ff ff ff       	jmp    9bdc <vasnprintf+0xfdc>
9c90:	49 83 fc ff          	cmp    r12,0xffffffffffffffff
9c94:	b8 01 00 00 00       	mov    eax,0x1
9c99:	0f 84 3d ff ff ff    	je     9bdc <vasnprintf+0xfdc>
9c9f:	4d 85 e4             	test   r12,r12
9ca2:	0f 84 bd f0 ff ff    	je     8d65 <vasnprintf+0x165>
9ca8:	0f 88 b7 f0 ff ff    	js     8d65 <vasnprintf+0x165>
9cae:	48 85 c0             	test   rax,rax
9cb1:	0f 85 ae f0 ff ff    	jne    8d65 <vasnprintf+0x165>
9cb7:	48 83 fb ff          	cmp    rbx,0xffffffffffffffff
9cbb:	0f 84 a4 f0 ff ff    	je     8d65 <vasnprintf+0x165>
9cc1:	49 89 dc             	mov    r12,rbx
9cc4:	e9 df fe ff ff       	jmp    9ba8 <vasnprintf+0xfa8>
9cc9:	0f 88 96 f0 ff ff    	js     8d65 <vasnprintf+0x165>
9ccf:	4d 01 e4             	add    r12,r12
9cd2:	49 39 dc             	cmp    r12,rbx
9cd5:	0f 83 cd fe ff ff    	jae    9ba8 <vasnprintf+0xfa8>
9cdb:	eb d1                	jmp    9cae <vasnprintf+0x10ae>
9cdd:	0f 1f 00             	nop    DWORD PTR [rax]
9ce0:	49 89 cf             	mov    r15,rcx
9ce3:	e9 f4 fe ff ff       	jmp    9bdc <vasnprintf+0xfdc>
9ce8:	49 83 fc ff          	cmp    r12,0xffffffffffffffff
9cec:	0f 84 1e f4 ff ff    	je     9110 <vasnprintf+0x510>
9cf2:	e9 7a f0 ff ff       	jmp    8d71 <vasnprintf+0x171>
9cf7:	e8 e4 7b ff ff       	call   18e0 <__stack_chk_fail@plt>
9cfc:	49 83 fc ff          	cmp    r12,0xffffffffffffffff
9d00:	ba 01 00 00 00       	mov    edx,0x1
9d05:	0f 84 e0 f3 ff ff    	je     90eb <vasnprintf+0x4eb>
9d0b:	4d 85 e4             	test   r12,r12
9d0e:	0f 84 51 f0 ff ff    	je     8d65 <vasnprintf+0x165>
9d14:	0f 89 c6 fb ff ff    	jns    98e0 <vasnprintf+0xce0>
9d1a:	e9 46 f0 ff ff       	jmp    8d65 <vasnprintf+0x165>
9d1f:	90                   	nop

0000000000009d20 <printf_fetchargs>:
9d20:	48 83 3e 00          	cmp    QWORD PTR [rsi],0x0
9d24:	48 8b 46 08          	mov    rax,QWORD PTR [rsi+0x8]
9d28:	74 63                	je     9d8d <printf_fetchargs+0x6d>
9d2a:	4c 8d 05 df 35 00 00 	lea    r8,[rip+0x35df]        # d310 <__PRETTY_FUNCTION__.4162+0x88>
9d31:	4c 8d 15 38 36 00 00 	lea    r10,[rip+0x3638]        # d370 <wide_null_string.2696>
9d38:	4c 8d 0d c1 35 00 00 	lea    r9,[rip+0x35c1]        # d300 <__PRETTY_FUNCTION__.4162+0x78>
9d3f:	31 c9                	xor    ecx,ecx
9d41:	0f 1f 80 00 00 00 00 	nop    DWORD PTR [rax+0x0]
9d48:	83 38 16             	cmp    DWORD PTR [rax],0x16
9d4b:	77 43                	ja     9d90 <printf_fetchargs+0x70>
9d4d:	8b 10                	mov    edx,DWORD PTR [rax]
9d4f:	49 63 14 90          	movsxd rdx,DWORD PTR [r8+rdx*4]
9d53:	4c 01 c2             	add    rdx,r8
9d56:	ff e2                	jmp    rdx
9d58:	0f 1f 84 00 00 00 00 	nop    DWORD PTR [rax+rax*1+0x0]
9d5f:	00
9d60:	48 8b 57 08          	mov    rdx,QWORD PTR [rdi+0x8]
9d64:	48 83 c2 0f          	add    rdx,0xf
9d68:	48 83 e2 f0          	and    rdx,0xfffffffffffffff0
9d6c:	4c 8d 5a 10          	lea    r11,[rdx+0x10]
9d70:	4c 89 5f 08          	mov    QWORD PTR [rdi+0x8],r11
9d74:	db 2a                	fld    TBYTE PTR [rdx]
9d76:	db 78 10             	fstp   TBYTE PTR [rax+0x10]
9d79:	0f 1f 80 00 00 00 00 	nop    DWORD PTR [rax+0x0]
9d80:	48 83 c1 01          	add    rcx,0x1
9d84:	48 83 c0 20          	add    rax,0x20
9d88:	48 39 0e             	cmp    QWORD PTR [rsi],rcx
9d8b:	77 bb                	ja     9d48 <printf_fetchargs+0x28>
9d8d:	31 c0                	xor    eax,eax
9d8f:	c3                   	ret
9d90:	b8 ff ff ff ff       	mov    eax,0xffffffff
9d95:	c3                   	ret
9d96:	44 8b 1f             	mov    r11d,DWORD PTR [rdi]
9d99:	41 83 fb 2f          	cmp    r11d,0x2f
9d9d:	0f 87 37 01 00 00    	ja     9eda <printf_fetchargs+0x1ba>
9da3:	44 89 da             	mov    edx,r11d
9da6:	48 03 57 10          	add    rdx,QWORD PTR [rdi+0x10]
9daa:	41 83 c3 08          	add    r11d,0x8
9dae:	44 89 1f             	mov    DWORD PTR [rdi],r11d
9db1:	48 8b 12             	mov    rdx,QWORD PTR [rdx]
9db4:	48 89 50 10          	mov    QWORD PTR [rax+0x10],rdx
9db8:	eb c6                	jmp    9d80 <printf_fetchargs+0x60>
9dba:	44 8b 1f             	mov    r11d,DWORD PTR [rdi]
9dbd:	41 83 fb 2f          	cmp    r11d,0x2f
9dc1:	0f 87 35 01 00 00    	ja     9efc <printf_fetchargs+0x1dc>
9dc7:	44 89 da             	mov    edx,r11d
9dca:	48 03 57 10          	add    rdx,QWORD PTR [rdi+0x10]
9dce:	41 83 c3 08          	add    r11d,0x8
9dd2:	44 89 1f             	mov    DWORD PTR [rdi],r11d
9dd5:	8b 12                	mov    edx,DWORD PTR [rdx]
9dd7:	89 50 10             	mov    DWORD PTR [rax+0x10],edx
9dda:	eb a4                	jmp    9d80 <printf_fetchargs+0x60>
9ddc:	44 8b 1f             	mov    r11d,DWORD PTR [rdi]
9ddf:	41 83 fb 2f          	cmp    r11d,0x2f
9de3:	0f 87 02 01 00 00    	ja     9eeb <printf_fetchargs+0x1cb>
9de9:	44 89 da             	mov    edx,r11d
9dec:	48 03 57 10          	add    rdx,QWORD PTR [rdi+0x10]
9df0:	41 83 c3 08          	add    r11d,0x8
9df4:	44 89 1f             	mov    DWORD PTR [rdi],r11d
9df7:	8b 12                	mov    edx,DWORD PTR [rdx]
9df9:	88 50 10             	mov    BYTE PTR [rax+0x10],dl
9dfc:	eb 82                	jmp    9d80 <printf_fetchargs+0x60>
9dfe:	44 8b 1f             	mov    r11d,DWORD PTR [rdi]
9e01:	41 83 fb 2f          	cmp    r11d,0x2f
9e05:	0f 87 9f 00 00 00    	ja     9eaa <printf_fetchargs+0x18a>
9e0b:	44 89 da             	mov    edx,r11d
9e0e:	48 03 57 10          	add    rdx,QWORD PTR [rdi+0x10]
9e12:	41 83 c3 08          	add    r11d,0x8
9e16:	44 89 1f             	mov    DWORD PTR [rdi],r11d
9e19:	8b 12                	mov    edx,DWORD PTR [rdx]
9e1b:	66 89 50 10          	mov    WORD PTR [rax+0x10],dx
9e1f:	e9 5c ff ff ff       	jmp    9d80 <printf_fetchargs+0x60>
9e24:	44 8b 1f             	mov    r11d,DWORD PTR [rdi]
9e27:	41 83 fb 2f          	cmp    r11d,0x2f
9e2b:	0f 87 8a 00 00 00    	ja     9ebb <printf_fetchargs+0x19b>
9e31:	44 89 da             	mov    edx,r11d
9e34:	48 03 57 10          	add    rdx,QWORD PTR [rdi+0x10]
9e38:	41 83 c3 08          	add    r11d,0x8
9e3c:	44 89 1f             	mov    DWORD PTR [rdi],r11d
9e3f:	48 8b 12             	mov    rdx,QWORD PTR [rdx]
9e42:	48 85 d2             	test   rdx,rdx
9e45:	49 0f 44 d1          	cmove  rdx,r9
9e49:	48 89 50 10          	mov    QWORD PTR [rax+0x10],rdx
9e4d:	e9 2e ff ff ff       	jmp    9d80 <printf_fetchargs+0x60>
9e52:	44 8b 5f 04          	mov    r11d,DWORD PTR [rdi+0x4]
9e56:	41 81 fb af 00 00 00 	cmp    r11d,0xaf
9e5d:	0f 87 aa 00 00 00    	ja     9f0d <printf_fetchargs+0x1ed>
9e63:	44 89 da             	mov    edx,r11d
9e66:	48 03 57 10          	add    rdx,QWORD PTR [rdi+0x10]
9e6a:	41 83 c3 10          	add    r11d,0x10
9e6e:	44 89 5f 04          	mov    DWORD PTR [rdi+0x4],r11d
9e72:	f2 0f 10 02          	movsd  xmm0,QWORD PTR [rdx]
9e76:	f2 0f 11 40 10       	movsd  QWORD PTR [rax+0x10],xmm0
9e7b:	e9 00 ff ff ff       	jmp    9d80 <printf_fetchargs+0x60>
9e80:	44 8b 1f             	mov    r11d,DWORD PTR [rdi]
9e83:	41 83 fb 2f          	cmp    r11d,0x2f
9e87:	77 43                	ja     9ecc <printf_fetchargs+0x1ac>
9e89:	44 89 da             	mov    edx,r11d
9e8c:	48 03 57 10          	add    rdx,QWORD PTR [rdi+0x10]
9e90:	41 83 c3 08          	add    r11d,0x8
9e94:	44 89 1f             	mov    DWORD PTR [rdi],r11d
9e97:	48 8b 12             	mov    rdx,QWORD PTR [rdx]
9e9a:	48 85 d2             	test   rdx,rdx
9e9d:	49 0f 44 d2          	cmove  rdx,r10
9ea1:	48 89 50 10          	mov    QWORD PTR [rax+0x10],rdx
9ea5:	e9 d6 fe ff ff       	jmp    9d80 <printf_fetchargs+0x60>
9eaa:	48 8b 57 08          	mov    rdx,QWORD PTR [rdi+0x8]
9eae:	4c 8d 5a 08          	lea    r11,[rdx+0x8]
9eb2:	4c 89 5f 08          	mov    QWORD PTR [rdi+0x8],r11
9eb6:	e9 5e ff ff ff       	jmp    9e19 <printf_fetchargs+0xf9>
9ebb:	48 8b 57 08          	mov    rdx,QWORD PTR [rdi+0x8]
9ebf:	4c 8d 5a 08          	lea    r11,[rdx+0x8]
9ec3:	4c 89 5f 08          	mov    QWORD PTR [rdi+0x8],r11
9ec7:	e9 73 ff ff ff       	jmp    9e3f <printf_fetchargs+0x11f>
9ecc:	48 8b 57 08          	mov    rdx,QWORD PTR [rdi+0x8]
9ed0:	4c 8d 5a 08          	lea    r11,[rdx+0x8]
9ed4:	4c 89 5f 08          	mov    QWORD PTR [rdi+0x8],r11
9ed8:	eb bd                	jmp    9e97 <printf_fetchargs+0x177>
9eda:	48 8b 57 08          	mov    rdx,QWORD PTR [rdi+0x8]
9ede:	4c 8d 5a 08          	lea    r11,[rdx+0x8]
9ee2:	4c 89 5f 08          	mov    QWORD PTR [rdi+0x8],r11
9ee6:	e9 c6 fe ff ff       	jmp    9db1 <printf_fetchargs+0x91>
9eeb:	48 8b 57 08          	mov    rdx,QWORD PTR [rdi+0x8]
9eef:	4c 8d 5a 08          	lea    r11,[rdx+0x8]
9ef3:	4c 89 5f 08          	mov    QWORD PTR [rdi+0x8],r11
9ef7:	e9 fb fe ff ff       	jmp    9df7 <printf_fetchargs+0xd7>
9efc:	48 8b 57 08          	mov    rdx,QWORD PTR [rdi+0x8]
9f00:	4c 8d 5a 08          	lea    r11,[rdx+0x8]
9f04:	4c 89 5f 08          	mov    QWORD PTR [rdi+0x8],r11
9f08:	e9 c8 fe ff ff       	jmp    9dd5 <printf_fetchargs+0xb5>
9f0d:	48 8b 57 08          	mov    rdx,QWORD PTR [rdi+0x8]
9f11:	4c 8d 5a 08          	lea    r11,[rdx+0x8]
9f15:	4c 89 5f 08          	mov    QWORD PTR [rdi+0x8],r11
9f19:	e9 54 ff ff ff       	jmp    9e72 <printf_fetchargs+0x152>
9f1e:	66 90                	xchg   ax,ax

0000000000009f20 <printf_parse>:
9f20:	41 57                	push   r15
9f22:	41 56                	push   r14
9f24:	48 8d 4e 20          	lea    rcx,[rsi+0x20]
9f28:	41 55                	push   r13
9f2a:	41 54                	push   r12
9f2c:	48 8d 42 10          	lea    rax,[rdx+0x10]
9f30:	55                   	push   rbp
9f31:	53                   	push   rbx
9f32:	49 89 f6             	mov    r14,rsi
9f35:	49 89 d7             	mov    r15,rdx
9f38:	31 db                	xor    ebx,ebx
9f3a:	41 b9 07 00 00 00    	mov    r9d,0x7
9f40:	48 83 ec 58          	sub    rsp,0x58
9f44:	41 ba 07 00 00 00    	mov    r10d,0x7
9f4a:	48 c7 06 00 00 00 00 	mov    QWORD PTR [rsi],0x0
9f51:	48 89 4e 08          	mov    QWORD PTR [rsi+0x8],rcx
9f55:	48 89 4c 24 28       	mov    QWORD PTR [rsp+0x28],rcx
9f5a:	49 c7 c0 ff ff ff ff 	mov    r8,0xffffffffffffffff
9f61:	48 c7 02 00 00 00 00 	mov    QWORD PTR [rdx],0x0
9f68:	48 89 44 24 08       	mov    QWORD PTR [rsp+0x8],rax
9f6d:	48 89 42 08          	mov    QWORD PTR [rdx+0x8],rax
9f71:	48 c7 44 24 18 00 00 	mov    QWORD PTR [rsp+0x18],0x0
9f78:	00 00
9f7a:	48 c7 44 24 10 00 00 	mov    QWORD PTR [rsp+0x10],0x0
9f81:	00 00
9f83:	48 c7 44 24 20 00 00 	mov    QWORD PTR [rsp+0x20],0x0
9f8a:	00 00
9f8c:	eb 0d                	jmp    9f9b <printf_parse+0x7b>
9f8e:	66 90                	xchg   ax,ax
9f90:	3c 25                	cmp    al,0x25
9f92:	48 8d 6f 01          	lea    rbp,[rdi+0x1]
9f96:	74 40                	je     9fd8 <printf_parse+0xb8>
9f98:	48 89 ef             	mov    rdi,rbp
9f9b:	0f b6 07             	movzx  eax,BYTE PTR [rdi]
9f9e:	84 c0                	test   al,al
9fa0:	75 ee                	jne    9f90 <printf_parse+0x70>
9fa2:	48 8d 04 9b          	lea    rax,[rbx+rbx*4]
9fa6:	48 8d 04 43          	lea    rax,[rbx+rax*2]
9faa:	48 89 3c c1          	mov    QWORD PTR [rcx+rax*8],rdi
9fae:	48 8b 44 24 10       	mov    rax,QWORD PTR [rsp+0x10]
9fb3:	49 89 46 10          	mov    QWORD PTR [r14+0x10],rax
9fb7:	48 8b 44 24 18       	mov    rax,QWORD PTR [rsp+0x18]
9fbc:	49 89 46 18          	mov    QWORD PTR [r14+0x18],rax
9fc0:	31 c0                	xor    eax,eax
9fc2:	48 83 c4 58          	add    rsp,0x58
9fc6:	5b                   	pop    rbx
9fc7:	5d                   	pop    rbp
9fc8:	41 5c                	pop    r12
9fca:	41 5d                	pop    r13
9fcc:	41 5e                	pop    r14
9fce:	41 5f                	pop    r15
9fd0:	c3                   	ret
9fd1:	0f 1f 80 00 00 00 00 	nop    DWORD PTR [rax+0x0]
9fd8:	48 8d 04 9b          	lea    rax,[rbx+rbx*4]
9fdc:	4d 89 c5             	mov    r13,r8
9fdf:	48 8d 04 43          	lea    rax,[rbx+rax*2]
9fe3:	4c 8d 24 c1          	lea    r12,[rcx+rax*8]
9fe7:	49 89 3c 24          	mov    QWORD PTR [r12],rdi
9feb:	41 c7 44 24 10 00 00 	mov    DWORD PTR [r12+0x10],0x0
9ff2:	00 00
9ff4:	49 c7 44 24 18 00 00 	mov    QWORD PTR [r12+0x18],0x0
9ffb:	00 00
9ffd:	49 c7 44 24 20 00 00 	mov    QWORD PTR [r12+0x20],0x0
a004:	00 00
a006:	4d 89 44 24 28       	mov    QWORD PTR [r12+0x28],r8
a00b:	49 c7 44 24 30 00 00 	mov    QWORD PTR [r12+0x30],0x0
a012:	00 00
a014:	49 c7 44 24 38 00 00 	mov    QWORD PTR [r12+0x38],0x0
a01b:	00 00
a01d:	4d 89 44 24 40       	mov    QWORD PTR [r12+0x40],r8
a022:	4d 89 44 24 50       	mov    QWORD PTR [r12+0x50],r8
a027:	0f b6 5f 01          	movzx  ebx,BYTE PTR [rdi+0x1]
a02b:	8d 43 d0             	lea    eax,[rbx-0x30]
a02e:	3c 09                	cmp    al,0x9
a030:	77 3c                	ja     a06e <printf_parse+0x14e>
a032:	e9 33 04 00 00       	jmp    a46a <printf_parse+0x54a>
a037:	66 0f 1f 84 00 00 00 	nop    WORD PTR [rax+rax*1+0x0]
a03e:	00 00
a040:	80 fb 2d             	cmp    bl,0x2d
a043:	74 43                	je     a088 <printf_parse+0x168>
a045:	80 fb 2b             	cmp    bl,0x2b
a048:	74 46                	je     a090 <printf_parse+0x170>
a04a:	80 fb 20             	cmp    bl,0x20
a04d:	74 51                	je     a0a0 <printf_parse+0x180>
a04f:	80 fb 23             	cmp    bl,0x23
a052:	74 5c                	je     a0b0 <printf_parse+0x190>
a054:	80 fb 30             	cmp    bl,0x30
a057:	74 67                	je     a0c0 <printf_parse+0x1a0>
a059:	80 fb 49             	cmp    bl,0x49
a05c:	75 72                	jne    a0d0 <printf_parse+0x1b0>
a05e:	41 83 4c 24 10 40    	or     DWORD PTR [r12+0x10],0x40
a064:	0f 1f 40 00          	nop    DWORD PTR [rax+0x0]
a068:	0f b6 18             	movzx  ebx,BYTE PTR [rax]
a06b:	48 89 c5             	mov    rbp,rax
a06e:	48 8d 45 01          	lea    rax,[rbp+0x1]
a072:	80 fb 27             	cmp    bl,0x27
a075:	48 89 c2             	mov    rdx,rax
a078:	75 c6                	jne    a040 <printf_parse+0x120>
a07a:	41 83 4c 24 10 01    	or     DWORD PTR [r12+0x10],0x1
a080:	eb e6                	jmp    a068 <printf_parse+0x148>
a082:	66 0f 1f 44 00 00    	nop    WORD PTR [rax+rax*1+0x0]
a088:	41 83 4c 24 10 02    	or     DWORD PTR [r12+0x10],0x2
a08e:	eb d8                	jmp    a068 <printf_parse+0x148>
a090:	41 83 4c 24 10 04    	or     DWORD PTR [r12+0x10],0x4
a096:	eb d0                	jmp    a068 <printf_parse+0x148>
a098:	0f 1f 84 00 00 00 00 	nop    DWORD PTR [rax+rax*1+0x0]
a09f:	00
a0a0:	41 83 4c 24 10 08    	or     DWORD PTR [r12+0x10],0x8
a0a6:	eb c0                	jmp    a068 <printf_parse+0x148>
a0a8:	0f 1f 84 00 00 00 00 	nop    DWORD PTR [rax+rax*1+0x0]
a0af:	00
a0b0:	41 83 4c 24 10 10    	or     DWORD PTR [r12+0x10],0x10
a0b6:	eb b0                	jmp    a068 <printf_parse+0x148>
a0b8:	0f 1f 84 00 00 00 00 	nop    DWORD PTR [rax+rax*1+0x0]
a0bf:	00
a0c0:	41 83 4c 24 10 20    	or     DWORD PTR [r12+0x10],0x20
a0c6:	eb a0                	jmp    a068 <printf_parse+0x148>
a0c8:	0f 1f 84 00 00 00 00 	nop    DWORD PTR [rax+rax*1+0x0]
a0cf:	00
a0d0:	80 fb 2a             	cmp    bl,0x2a
a0d3:	0f 84 b0 01 00 00    	je     a289 <printf_parse+0x369>
a0d9:	8d 4b d0             	lea    ecx,[rbx-0x30]
a0dc:	80 f9 09             	cmp    cl,0x9
a0df:	0f 86 12 04 00 00    	jbe    a4f7 <printf_parse+0x5d7>
a0e5:	80 fb 2e             	cmp    bl,0x2e
a0e8:	0f 84 d1 02 00 00    	je     a3bf <printf_parse+0x49f>
a0ee:	31 c0                	xor    eax,eax
a0f0:	be 01 00 00 00       	mov    esi,0x1
a0f5:	eb 30                	jmp    a127 <printf_parse+0x207>
a0f7:	66 0f 1f 84 00 00 00 	nop    WORD PTR [rax+rax*1+0x0]
a0fe:	00 00
a100:	80 fb 4c             	cmp    bl,0x4c
a103:	74 3b                	je     a140 <printf_parse+0x220>
a105:	80 fb 6c             	cmp    bl,0x6c
a108:	74 16                	je     a120 <printf_parse+0x200>
a10a:	80 fb 6a             	cmp    bl,0x6a
a10d:	74 11                	je     a120 <printf_parse+0x200>
a10f:	89 da                	mov    edx,ebx
a111:	83 e2 df             	and    edx,0xffffffdf
a114:	80 fa 5a             	cmp    dl,0x5a
a117:	74 07                	je     a120 <printf_parse+0x200>
a119:	80 fb 74             	cmp    bl,0x74
a11c:	75 2a                	jne    a148 <printf_parse+0x228>
a11e:	66 90                	xchg   ax,ax
a120:	83 c0 08             	add    eax,0x8
a123:	0f b6 5d 00          	movzx  ebx,BYTE PTR [rbp+0x0]
a127:	48 83 c5 01          	add    rbp,0x1
a12b:	80 fb 68             	cmp    bl,0x68
a12e:	75 d0                	jne    a100 <printf_parse+0x1e0>
a130:	89 c1                	mov    ecx,eax
a132:	89 f2                	mov    edx,esi
a134:	83 e1 01             	and    ecx,0x1
a137:	d3 e2                	shl    edx,cl
a139:	09 d0                	or     eax,edx
a13b:	eb e6                	jmp    a123 <printf_parse+0x203>
a13d:	0f 1f 00             	nop    DWORD PTR [rax]
a140:	83 c8 04             	or     eax,0x4
a143:	eb de                	jmp    a123 <printf_parse+0x203>
a145:	0f 1f 00             	nop    DWORD PTR [rax]
a148:	8d 53 db             	lea    edx,[rbx-0x25]
a14b:	80 fa 53             	cmp    dl,0x53
a14e:	0f 87 17 06 00 00    	ja     a76b <printf_parse+0x84b>
a154:	48 8d 0d 31 32 00 00 	lea    rcx,[rip+0x3231]        # d38c <wide_null_string.2696+0x1c>
a15b:	0f b6 d2             	movzx  edx,dl
a15e:	48 63 14 91          	movsxd rdx,DWORD PTR [rcx+rdx*4]
a162:	48 01 ca             	add    rdx,rcx
a165:	ff e2                	jmp    rdx
a167:	41 bb 10 00 00 00    	mov    r11d,0x10
a16d:	bb 73 00 00 00       	mov    ebx,0x73
a172:	66 0f 1f 44 00 00    	nop    WORD PTR [rax+rax*1+0x0]
a178:	49 83 fd ff          	cmp    r13,0xffffffffffffffff
a17c:	0f 84 b5 06 00 00    	je     a837 <printf_parse+0x917>
a182:	4d 89 6c 24 50       	mov    QWORD PTR [r12+0x50],r13
a187:	4d 39 e9             	cmp    r9,r13
a18a:	49 8b 4f 08          	mov    rcx,QWORD PTR [r15+0x8]
a18e:	0f 86 1c 06 00 00    	jbe    a7b0 <printf_parse+0x890>
a194:	49 8b 07             	mov    rax,QWORD PTR [r15]
a197:	48 89 c2             	mov    rdx,rax
a19a:	48 c1 e2 05          	shl    rdx,0x5
a19e:	48 01 ca             	add    rdx,rcx
a1a1:	4c 39 e8             	cmp    rax,r13
a1a4:	77 20                	ja     a1c6 <printf_parse+0x2a6>
a1a6:	66 2e 0f 1f 84 00 00 	nop    WORD PTR cs:[rax+rax*1+0x0]
a1ad:	00 00 00
a1b0:	48 83 c0 01          	add    rax,0x1
a1b4:	c7 02 00 00 00 00    	mov    DWORD PTR [rdx],0x0
a1ba:	48 83 c2 20          	add    rdx,0x20
a1be:	4c 39 e8             	cmp    rax,r13
a1c1:	76 ed                	jbe    a1b0 <printf_parse+0x290>
a1c3:	49 89 07             	mov    QWORD PTR [r15],rax
a1c6:	49 c1 e5 05          	shl    r13,0x5
a1ca:	4a 8d 04 29          	lea    rax,[rcx+r13*1]
a1ce:	8b 10                	mov    edx,DWORD PTR [rax]
a1d0:	85 d2                	test   edx,edx
a1d2:	0f 85 cb 05 00 00    	jne    a7a3 <printf_parse+0x883>
a1d8:	44 89 18             	mov    DWORD PTR [rax],r11d
a1db:	41 88 5c 24 48       	mov    BYTE PTR [r12+0x48],bl
a1e0:	49 8b 06             	mov    rax,QWORD PTR [r14]
a1e3:	49 89 6c 24 08       	mov    QWORD PTR [r12+0x8],rbp
a1e8:	48 8d 58 01          	lea    rbx,[rax+0x1]
a1ec:	49 39 da             	cmp    r10,rbx
a1ef:	49 89 1e             	mov    QWORD PTR [r14],rbx
a1f2:	0f 87 88 00 00 00    	ja     a280 <printf_parse+0x360>
a1f8:	4d 85 d2             	test   r10,r10
a1fb:	0f 88 a6 09 00 00    	js     aba7 <printf_parse+0xc87>
a201:	4d 01 d2             	add    r10,r10
a204:	48 b8 ba e8 a2 8b 2e 	movabs rax,0x2e8ba2e8ba2e8ba
a20b:	ba e8 02
a20e:	49 39 c2             	cmp    r10,rax
a211:	0f 87 90 09 00 00    	ja     aba7 <printf_parse+0xc87>
a217:	4b 8d 04 92          	lea    rax,[r10+r10*4]
a21b:	49 8b 7e 08          	mov    rdi,QWORD PTR [r14+0x8]
a21f:	48 39 7c 24 28       	cmp    QWORD PTR [rsp+0x28],rdi
a224:	4c 89 4c 24 40       	mov    QWORD PTR [rsp+0x40],r9
a229:	4c 89 54 24 38       	mov    QWORD PTR [rsp+0x38],r10
a22e:	49 8d 04 42          	lea    rax,[r10+rax*2]
a232:	4c 89 44 24 30       	mov    QWORD PTR [rsp+0x30],r8
a237:	48 8d 34 c5 00 00 00 	lea    rsi,[rax*8+0x0]
a23e:	00
a23f:	0f 84 b8 06 00 00    	je     a8fd <printf_parse+0x9dd>
a245:	e8 06 78 ff ff       	call   1a50 <realloc@plt>
a24a:	48 85 c0             	test   rax,rax
a24d:	48 89 c1             	mov    rcx,rax
a250:	4c 8b 44 24 30       	mov    r8,QWORD PTR [rsp+0x30]
a255:	4c 8b 54 24 38       	mov    r10,QWORD PTR [rsp+0x38]
a25a:	4c 8b 4c 24 40       	mov    r9,QWORD PTR [rsp+0x40]
a25f:	0f 84 42 09 00 00    	je     aba7 <printf_parse+0xc87>
a265:	48 8b 44 24 28       	mov    rax,QWORD PTR [rsp+0x28]
a26a:	49 3b 46 08          	cmp    rax,QWORD PTR [r14+0x8]
a26e:	49 8b 1e             	mov    rbx,QWORD PTR [r14]
a271:	0f 84 a9 06 00 00    	je     a920 <printf_parse+0xa00>
a277:	49 89 4e 08          	mov    QWORD PTR [r14+0x8],rcx
a27b:	e9 18 fd ff ff       	jmp    9f98 <printf_parse+0x78>
a280:	49 8b 4e 08          	mov    rcx,QWORD PTR [r14+0x8]
a284:	e9 0f fd ff ff       	jmp    9f98 <printf_parse+0x78>
a289:	48 8b 74 24 10       	mov    rsi,QWORD PTR [rsp+0x10]
a28e:	b9 01 00 00 00       	mov    ecx,0x1
a293:	49 89 6c 24 18       	mov    QWORD PTR [r12+0x18],rbp
a298:	49 89 44 24 20       	mov    QWORD PTR [r12+0x20],rax
a29d:	48 85 f6             	test   rsi,rsi
a2a0:	48 0f 45 ce          	cmovne rcx,rsi
a2a4:	48 89 4c 24 10       	mov    QWORD PTR [rsp+0x10],rcx
a2a9:	0f b6 4d 01          	movzx  ecx,BYTE PTR [rbp+0x1]
a2ad:	8d 71 d0             	lea    esi,[rcx-0x30]
a2b0:	40 80 fe 09          	cmp    sil,0x9
a2b4:	0f 86 db 02 00 00    	jbe    a595 <printf_parse+0x675>
a2ba:	48 8b 74 24 20       	mov    rsi,QWORD PTR [rsp+0x20]
a2bf:	48 83 fe ff          	cmp    rsi,0xffffffffffffffff
a2c3:	48 8d 56 01          	lea    rdx,[rsi+0x1]
a2c7:	49 89 74 24 28       	mov    QWORD PTR [r12+0x28],rsi
a2cc:	0f 84 99 04 00 00    	je     a76b <printf_parse+0x84b>
a2d2:	48 8b 5c 24 20       	mov    rbx,QWORD PTR [rsp+0x20]
a2d7:	48 89 c5             	mov    rbp,rax
a2da:	48 89 54 24 20       	mov    QWORD PTR [rsp+0x20],rdx
a2df:	49 39 d9             	cmp    r9,rbx
a2e2:	49 8b 4f 08          	mov    rcx,QWORD PTR [r15+0x8]
a2e6:	0f 87 76 06 00 00    	ja     a962 <printf_parse+0xa42>
a2ec:	4d 01 c9             	add    r9,r9
a2ef:	48 8d 43 01          	lea    rax,[rbx+0x1]
a2f3:	49 39 d9             	cmp    r9,rbx
a2f6:	4c 0f 46 c8          	cmovbe r9,rax
a2fa:	48 b8 ff ff ff ff ff 	movabs rax,0x7ffffffffffffff
a301:	ff ff 07
a304:	49 39 c1             	cmp    r9,rax
a307:	0f 87 9e 08 00 00    	ja     abab <printf_parse+0xc8b>
a30d:	4c 89 ce             	mov    rsi,r9
a310:	4c 89 4c 24 40       	mov    QWORD PTR [rsp+0x40],r9
a315:	4c 89 54 24 38       	mov    QWORD PTR [rsp+0x38],r10
a31a:	48 c1 e6 05          	shl    rsi,0x5
a31e:	48 39 4c 24 08       	cmp    QWORD PTR [rsp+0x8],rcx
a323:	4c 89 44 24 30       	mov    QWORD PTR [rsp+0x30],r8
a328:	0f 84 13 07 00 00    	je     aa41 <printf_parse+0xb21>
a32e:	48 89 cf             	mov    rdi,rcx
a331:	e8 1a 77 ff ff       	call   1a50 <realloc@plt>
a336:	49 8b 57 08          	mov    rdx,QWORD PTR [r15+0x8]
a33a:	4c 8b 44 24 30       	mov    r8,QWORD PTR [rsp+0x30]
a33f:	48 89 c1             	mov    rcx,rax
a342:	4c 8b 54 24 38       	mov    r10,QWORD PTR [rsp+0x38]
a347:	4c 8b 4c 24 40       	mov    r9,QWORD PTR [rsp+0x40]
a34c:	48 85 c9             	test   rcx,rcx
a34f:	0f 84 b2 08 00 00    	je     ac07 <printf_parse+0xce7>
a355:	48 39 54 24 08       	cmp    QWORD PTR [rsp+0x8],rdx
a35a:	49 8b 07             	mov    rax,QWORD PTR [r15]
a35d:	0f 84 b8 07 00 00    	je     ab1b <printf_parse+0xbfb>
a363:	49 89 4f 08          	mov    QWORD PTR [r15+0x8],rcx
a367:	48 89 c2             	mov    rdx,rax
a36a:	48 c1 e2 05          	shl    rdx,0x5
a36e:	48 01 ca             	add    rdx,rcx
a371:	48 39 d8             	cmp    rax,rbx
a374:	77 20                	ja     a396 <printf_parse+0x476>
a376:	66 2e 0f 1f 84 00 00 	nop    WORD PTR cs:[rax+rax*1+0x0]
a37d:	00 00 00
a380:	48 83 c0 01          	add    rax,0x1
a384:	c7 02 00 00 00 00    	mov    DWORD PTR [rdx],0x0
a38a:	48 83 c2 20          	add    rdx,0x20
a38e:	48 39 d8             	cmp    rax,rbx
a391:	76 ed                	jbe    a380 <printf_parse+0x460>
a393:	49 89 07             	mov    QWORD PTR [r15],rax
a396:	48 c1 e3 05          	shl    rbx,0x5
a39a:	48 8d 04 19          	lea    rax,[rcx+rbx*1]
a39e:	8b 10                	mov    edx,DWORD PTR [rax]
a3a0:	85 d2                	test   edx,edx
a3a2:	0f 85 d3 04 00 00    	jne    a87b <printf_parse+0x95b>
a3a8:	c7 00 05 00 00 00    	mov    DWORD PTR [rax],0x5
a3ae:	0f b6 5d 00          	movzx  ebx,BYTE PTR [rbp+0x0]
a3b2:	48 8d 55 01          	lea    rdx,[rbp+0x1]
a3b6:	80 fb 2e             	cmp    bl,0x2e
a3b9:	0f 85 2f fd ff ff    	jne    a0ee <printf_parse+0x1ce>
a3bf:	80 7d 01 2a          	cmp    BYTE PTR [rbp+0x1],0x2a
a3c3:	49 89 6c 24 30       	mov    QWORD PTR [r12+0x30],rbp
a3c8:	0f 85 80 01 00 00    	jne    a54e <printf_parse+0x62e>
a3ce:	48 8b 74 24 18       	mov    rsi,QWORD PTR [rsp+0x18]
a3d3:	4c 8d 5d 02          	lea    r11,[rbp+0x2]
a3d7:	b8 02 00 00 00       	mov    eax,0x2
a3dc:	4d 89 5c 24 38       	mov    QWORD PTR [r12+0x38],r11
a3e1:	48 83 fe 02          	cmp    rsi,0x2
a3e5:	48 0f 43 c6          	cmovae rax,rsi
a3e9:	48 89 44 24 18       	mov    QWORD PTR [rsp+0x18],rax
a3ee:	0f be 45 02          	movsx  eax,BYTE PTR [rbp+0x2]
a3f2:	8d 50 d0             	lea    edx,[rax-0x30]
a3f5:	80 fa 09             	cmp    dl,0x9
a3f8:	0f 86 8e 06 00 00    	jbe    aa8c <printf_parse+0xb6c>
a3fe:	49 8b 5c 24 40       	mov    rbx,QWORD PTR [r12+0x40]
a403:	48 83 fb ff          	cmp    rbx,0xffffffffffffffff
a407:	0f 84 58 06 00 00    	je     aa65 <printf_parse+0xb45>
a40d:	49 39 d9             	cmp    r9,rbx
a410:	49 8b 4f 08          	mov    rcx,QWORD PTR [r15+0x8]
a414:	0f 86 65 05 00 00    	jbe    a97f <printf_parse+0xa5f>
a41a:	49 8b 07             	mov    rax,QWORD PTR [r15]
a41d:	48 89 c2             	mov    rdx,rax
a420:	48 c1 e2 05          	shl    rdx,0x5
a424:	48 01 ca             	add    rdx,rcx
a427:	48 39 d8             	cmp    rax,rbx
a42a:	77 1a                	ja     a446 <printf_parse+0x526>
a42c:	0f 1f 40 00          	nop    DWORD PTR [rax+0x0]
a430:	48 83 c0 01          	add    rax,0x1
a434:	c7 02 00 00 00 00    	mov    DWORD PTR [rdx],0x0
a43a:	48 83 c2 20          	add    rdx,0x20
a43e:	48 39 d8             	cmp    rax,rbx
a441:	76 ed                	jbe    a430 <printf_parse+0x510>
a443:	49 89 07             	mov    QWORD PTR [r15],rax
a446:	48 c1 e3 05          	shl    rbx,0x5
a44a:	48 8d 04 19          	lea    rax,[rcx+rbx*1]
a44e:	8b 10                	mov    edx,DWORD PTR [rax]
a450:	85 d2                	test   edx,edx
a452:	0f 85 12 05 00 00    	jne    a96a <printf_parse+0xa4a>
a458:	c7 00 05 00 00 00    	mov    DWORD PTR [rax],0x5
a45e:	4c 89 dd             	mov    rbp,r11
a461:	41 0f b6 1b          	movzx  ebx,BYTE PTR [r11]
a465:	e9 84 fc ff ff       	jmp    a0ee <printf_parse+0x1ce>
a46a:	48 89 e8             	mov    rax,rbp
a46d:	0f 1f 00             	nop    DWORD PTR [rax]
a470:	48 83 c0 01          	add    rax,0x1
a474:	0f b6 10             	movzx  edx,BYTE PTR [rax]
a477:	8d 4a d0             	lea    ecx,[rdx-0x30]
a47a:	80 f9 09             	cmp    cl,0x9
a47d:	76 f1                	jbe    a470 <printf_parse+0x550>
a47f:	80 fa 24             	cmp    dl,0x24
a482:	4d 89 c5             	mov    r13,r8
a485:	0f 85 e3 fb ff ff    	jne    a06e <printf_parse+0x14e>
a48b:	31 d2                	xor    edx,edx
a48d:	0f be c3             	movsx  eax,bl
a490:	48 bf 99 99 99 99 99 	movabs rdi,0x1999999999999999
a497:	99 99 19
a49a:	4c 89 c6             	mov    rsi,r8
a49d:	83 e8 30             	sub    eax,0x30
a4a0:	48 39 fa             	cmp    rdx,rdi
a4a3:	48 98                	cdqe
a4a5:	77 07                	ja     a4ae <printf_parse+0x58e>
a4a7:	48 8d 34 92          	lea    rsi,[rdx+rdx*4]
a4ab:	48 01 f6             	add    rsi,rsi
a4ae:	48 89 e9             	mov    rcx,rbp
a4b1:	48 01 f0             	add    rax,rsi
a4b4:	0f b6 5d 01          	movzx  ebx,BYTE PTR [rbp+0x1]
a4b8:	40 0f 92 c6          	setb   sil
a4bc:	48 83 c5 01          	add    rbp,0x1
a4c0:	48 89 c2             	mov    rdx,rax
a4c3:	40 0f b6 f6          	movzx  esi,sil
a4c7:	48 85 f6             	test   rsi,rsi
a4ca:	8d 7b d0             	lea    edi,[rbx-0x30]
a4cd:	0f 85 8b 03 00 00    	jne    a85e <printf_parse+0x93e>
a4d3:	40 80 ff 09          	cmp    dil,0x9
a4d7:	76 b4                	jbe    a48d <printf_parse+0x56d>
a4d9:	49 89 c5             	mov    r13,rax
a4dc:	49 83 ed 01          	sub    r13,0x1
a4e0:	49 83 fd fd          	cmp    r13,0xfffffffffffffffd
a4e4:	0f 87 81 02 00 00    	ja     a76b <printf_parse+0x84b>
a4ea:	48 8d 69 02          	lea    rbp,[rcx+0x2]
a4ee:	0f b6 59 02          	movzx  ebx,BYTE PTR [rcx+0x2]
a4f2:	e9 77 fb ff ff       	jmp    a06e <printf_parse+0x14e>
a4f7:	49 89 6c 24 18       	mov    QWORD PTR [r12+0x18],rbp
a4fc:	0f b6 7d 00          	movzx  edi,BYTE PTR [rbp+0x0]
a500:	48 89 ee             	mov    rsi,rbp
a503:	8d 4f d0             	lea    ecx,[rdi-0x30]
a506:	80 f9 09             	cmp    cl,0x9
a509:	76 0c                	jbe    a517 <printf_parse+0x5f7>
a50b:	eb 33                	jmp    a540 <printf_parse+0x620>
a50d:	0f 1f 00             	nop    DWORD PTR [rax]
a510:	48 89 c5             	mov    rbp,rax
a513:	48 83 c0 01          	add    rax,0x1
a517:	0f b6 38             	movzx  edi,BYTE PTR [rax]
a51a:	8d 57 d0             	lea    edx,[rdi-0x30]
a51d:	80 fa 09             	cmp    dl,0x9
a520:	76 ee                	jbe    a510 <printf_parse+0x5f0>
a522:	48 89 c1             	mov    rcx,rax
a525:	48 8d 55 02          	lea    rdx,[rbp+0x2]
a529:	48 89 c5             	mov    rbp,rax
a52c:	48 29 f1             	sub    rcx,rsi
a52f:	48 8b 74 24 10       	mov    rsi,QWORD PTR [rsp+0x10]
a534:	48 39 ce             	cmp    rsi,rcx
a537:	48 0f 43 ce          	cmovae rcx,rsi
a53b:	48 89 4c 24 10       	mov    QWORD PTR [rsp+0x10],rcx
a540:	49 89 6c 24 20       	mov    QWORD PTR [r12+0x20],rbp
a545:	0f b6 5d 00          	movzx  ebx,BYTE PTR [rbp+0x0]
a549:	e9 97 fb ff ff       	jmp    a0e5 <printf_parse+0x1c5>
a54e:	0f b6 45 01          	movzx  eax,BYTE PTR [rbp+0x1]
a552:	83 e8 30             	sub    eax,0x30
a555:	3c 09                	cmp    al,0x9
a557:	77 15                	ja     a56e <printf_parse+0x64e>
a559:	0f 1f 80 00 00 00 00 	nop    DWORD PTR [rax+0x0]
a560:	48 83 c2 01          	add    rdx,0x1
a564:	0f b6 02             	movzx  eax,BYTE PTR [rdx]
a567:	83 e8 30             	sub    eax,0x30
a56a:	3c 09                	cmp    al,0x9
a56c:	76 f2                	jbe    a560 <printf_parse+0x640>
a56e:	48 8b 74 24 18       	mov    rsi,QWORD PTR [rsp+0x18]
a573:	48 89 d0             	mov    rax,rdx
a576:	49 89 54 24 38       	mov    QWORD PTR [r12+0x38],rdx
a57b:	48 29 e8             	sub    rax,rbp
a57e:	0f b6 1a             	movzx  ebx,BYTE PTR [rdx]
a581:	48 89 d5             	mov    rbp,rdx
a584:	48 39 c6             	cmp    rsi,rax
a587:	48 0f 43 c6          	cmovae rax,rsi
a58b:	48 89 44 24 18       	mov    QWORD PTR [rsp+0x18],rax
a590:	e9 59 fb ff ff       	jmp    a0ee <printf_parse+0x1ce>
a595:	48 89 c6             	mov    rsi,rax
a598:	48 83 c6 01          	add    rsi,0x1
a59c:	0f b6 3e             	movzx  edi,BYTE PTR [rsi]
a59f:	44 8d 5f d0          	lea    r11d,[rdi-0x30]
a5a3:	41 80 fb 09          	cmp    r11b,0x9
a5a7:	76 ef                	jbe    a598 <printf_parse+0x678>
a5a9:	40 80 ff 24          	cmp    dil,0x24
a5ad:	0f 85 07 fd ff ff    	jne    a2ba <printf_parse+0x39a>
a5b3:	31 f6                	xor    esi,esi
a5b5:	0f be c1             	movsx  eax,cl
a5b8:	48 bf 99 99 99 99 99 	movabs rdi,0x1999999999999999
a5bf:	99 99 19
a5c2:	4c 89 c1             	mov    rcx,r8
a5c5:	83 e8 30             	sub    eax,0x30
a5c8:	48 39 fe             	cmp    rsi,rdi
a5cb:	48 98                	cdqe
a5cd:	77 07                	ja     a5d6 <printf_parse+0x6b6>
a5cf:	48 8d 0c b6          	lea    rcx,[rsi+rsi*4]
a5d3:	48 01 c9             	add    rcx,rcx
a5d6:	48 89 d5             	mov    rbp,rdx
a5d9:	45 31 db             	xor    r11d,r11d
a5dc:	48 01 c8             	add    rax,rcx
a5df:	0f b6 4a 01          	movzx  ecx,BYTE PTR [rdx+0x1]
a5e3:	41 0f 92 c3          	setb   r11b
a5e7:	48 83 c2 01          	add    rdx,0x1
a5eb:	48 89 c6             	mov    rsi,rax
a5ee:	4d 85 db             	test   r11,r11
a5f1:	8d 79 d0             	lea    edi,[rcx-0x30]
a5f4:	0f 85 04 05 00 00    	jne    aafe <printf_parse+0xbde>
a5fa:	40 80 ff 09          	cmp    dil,0x9
a5fe:	76 b5                	jbe    a5b5 <printf_parse+0x695>
a600:	48 8d 58 ff          	lea    rbx,[rax-0x1]
a604:	48 83 fb fd          	cmp    rbx,0xfffffffffffffffd
a608:	0f 87 5d 01 00 00    	ja     a76b <printf_parse+0x84b>
a60e:	49 89 5c 24 28       	mov    QWORD PTR [r12+0x28],rbx
a613:	48 83 c5 02          	add    rbp,0x2
a617:	e9 c3 fc ff ff       	jmp    a2df <printf_parse+0x3bf>
a61c:	83 f8 0f             	cmp    eax,0xf
a61f:	41 bb 16 00 00 00    	mov    r11d,0x16
a625:	0f 8f 4d fb ff ff    	jg     a178 <printf_parse+0x258>
a62b:	a8 04                	test   al,0x4
a62d:	0f 85 45 fb ff ff    	jne    a178 <printf_parse+0x258>
a633:	83 f8 07             	cmp    eax,0x7
a636:	41 bb 15 00 00 00    	mov    r11d,0x15
a63c:	0f 8f 36 fb ff ff    	jg     a178 <printf_parse+0x258>
a642:	a8 02                	test   al,0x2
a644:	41 bb 12 00 00 00    	mov    r11d,0x12
a64a:	0f 85 28 fb ff ff    	jne    a178 <printf_parse+0x258>
a650:	45 31 db             	xor    r11d,r11d
a653:	a8 01                	test   al,0x1
a655:	41 0f 94 c3          	sete   r11b
a659:	41 83 c3 13          	add    r11d,0x13
a65d:	e9 16 fb ff ff       	jmp    a178 <printf_parse+0x258>
a662:	66 0f 1f 44 00 00    	nop    WORD PTR [rax+rax*1+0x0]
a668:	45 31 db             	xor    r11d,r11d
a66b:	83 f8 07             	cmp    eax,0x7
a66e:	41 0f 9f c3          	setg   r11b
a672:	41 83 c3 0d          	add    r11d,0xd
a676:	e9 fd fa ff ff       	jmp    a178 <printf_parse+0x258>
a67b:	83 f8 0f             	cmp    eax,0xf
a67e:	41 bb 09 00 00 00    	mov    r11d,0x9
a684:	0f 8f ee fa ff ff    	jg     a178 <printf_parse+0x258>
a68a:	a8 04                	test   al,0x4
a68c:	0f 85 e6 fa ff ff    	jne    a178 <printf_parse+0x258>
a692:	83 f8 07             	cmp    eax,0x7
a695:	41 bb 07 00 00 00    	mov    r11d,0x7
a69b:	0f 8f d7 fa ff ff    	jg     a178 <printf_parse+0x258>
a6a1:	a8 02                	test   al,0x2
a6a3:	41 bb 01 00 00 00    	mov    r11d,0x1
a6a9:	0f 85 c9 fa ff ff    	jne    a178 <printf_parse+0x258>
a6af:	83 e0 01             	and    eax,0x1
a6b2:	83 f8 01             	cmp    eax,0x1
a6b5:	45 19 db             	sbb    r11d,r11d
a6b8:	41 83 e3 02          	and    r11d,0x2
a6bc:	41 83 c3 03          	add    r11d,0x3
a6c0:	e9 b3 fa ff ff       	jmp    a178 <printf_parse+0x258>
a6c5:	0f 1f 00             	nop    DWORD PTR [rax]
a6c8:	45 31 db             	xor    r11d,r11d
a6cb:	83 f8 07             	cmp    eax,0x7
a6ce:	41 0f 9f c3          	setg   r11b
a6d2:	41 83 c3 0f          	add    r11d,0xf
a6d6:	e9 9d fa ff ff       	jmp    a178 <printf_parse+0x258>
a6db:	83 f8 0f             	cmp    eax,0xf
a6de:	41 bb 0c 00 00 00    	mov    r11d,0xc
a6e4:	0f 8f 8e fa ff ff    	jg     a178 <printf_parse+0x258>
a6ea:	45 31 db             	xor    r11d,r11d
a6ed:	a8 04                	test   al,0x4
a6ef:	41 0f 95 c3          	setne  r11b
a6f3:	41 83 c3 0b          	add    r11d,0xb
a6f7:	e9 7c fa ff ff       	jmp    a178 <printf_parse+0x258>
a6fc:	41 bb 0e 00 00 00    	mov    r11d,0xe
a702:	bb 63 00 00 00       	mov    ebx,0x63
a707:	e9 6c fa ff ff       	jmp    a178 <printf_parse+0x258>
a70c:	83 f8 0f             	cmp    eax,0xf
a70f:	41 bb 0a 00 00 00    	mov    r11d,0xa
a715:	0f 8f 5d fa ff ff    	jg     a178 <printf_parse+0x258>
a71b:	a8 04                	test   al,0x4
a71d:	0f 85 55 fa ff ff    	jne    a178 <printf_parse+0x258>
a723:	83 f8 07             	cmp    eax,0x7
a726:	41 bb 08 00 00 00    	mov    r11d,0x8
a72c:	0f 8f 46 fa ff ff    	jg     a178 <printf_parse+0x258>
a732:	a8 02                	test   al,0x2
a734:	41 bb 02 00 00 00    	mov    r11d,0x2
a73a:	0f 85 38 fa ff ff    	jne    a178 <printf_parse+0x258>
a740:	83 e0 01             	and    eax,0x1
a743:	83 f8 01             	cmp    eax,0x1
a746:	45 19 db             	sbb    r11d,r11d
a749:	41 83 e3 02          	and    r11d,0x2
a74d:	41 83 c3 04          	add    r11d,0x4
a751:	e9 22 fa ff ff       	jmp    a178 <printf_parse+0x258>
a756:	66 2e 0f 1f 84 00 00 	nop    WORD PTR cs:[rax+rax*1+0x0]
a75d:	00 00 00
a760:	41 bb 11 00 00 00    	mov    r11d,0x11
a766:	e9 0d fa ff ff       	jmp    a178 <printf_parse+0x258>
a76b:	49 8b 4f 08          	mov    rcx,QWORD PTR [r15+0x8]
a76f:	48 39 4c 24 08       	cmp    QWORD PTR [rsp+0x8],rcx
a774:	74 08                	je     a77e <printf_parse+0x85e>
a776:	48 89 cf             	mov    rdi,rcx
a779:	e8 52 70 ff ff       	call   17d0 <free@plt>
a77e:	49 8b 7e 08          	mov    rdi,QWORD PTR [r14+0x8]
a782:	48 39 7c 24 28       	cmp    QWORD PTR [rsp+0x28],rdi
a787:	74 05                	je     a78e <printf_parse+0x86e>
a789:	e8 42 70 ff ff       	call   17d0 <free@plt>
a78e:	e8 5d 70 ff ff       	call   17f0 <__errno_location@plt>
a793:	c7 00 16 00 00 00    	mov    DWORD PTR [rax],0x16
a799:	b8 ff ff ff ff       	mov    eax,0xffffffff
a79e:	e9 1f f8 ff ff       	jmp    9fc2 <printf_parse+0xa2>
a7a3:	44 39 da             	cmp    edx,r11d
a7a6:	0f 84 2f fa ff ff    	je     a1db <printf_parse+0x2bb>
a7ac:	eb c1                	jmp    a76f <printf_parse+0x84f>
a7ae:	66 90                	xchg   ax,ax
a7b0:	4d 01 c9             	add    r9,r9
a7b3:	49 8d 45 01          	lea    rax,[r13+0x1]
a7b7:	4d 39 e9             	cmp    r9,r13
a7ba:	4c 0f 46 c8          	cmovbe r9,rax
a7be:	48 b8 ff ff ff ff ff 	movabs rax,0x7ffffffffffffff
a7c5:	ff ff 07
a7c8:	49 39 c1             	cmp    r9,rax
a7cb:	0f 87 da 03 00 00    	ja     abab <printf_parse+0xc8b>
a7d1:	4c 89 ce             	mov    rsi,r9
a7d4:	4c 89 4c 24 48       	mov    QWORD PTR [rsp+0x48],r9
a7d9:	4c 89 54 24 40       	mov    QWORD PTR [rsp+0x40],r10
a7de:	48 c1 e6 05          	shl    rsi,0x5
a7e2:	48 39 4c 24 08       	cmp    QWORD PTR [rsp+0x8],rcx
a7e7:	4c 89 44 24 38       	mov    QWORD PTR [rsp+0x38],r8
a7ec:	44 89 5c 24 30       	mov    DWORD PTR [rsp+0x30],r11d
a7f1:	0f 84 9a 00 00 00    	je     a891 <printf_parse+0x971>
a7f7:	48 89 cf             	mov    rdi,rcx
a7fa:	e8 51 72 ff ff       	call   1a50 <realloc@plt>
a7ff:	48 85 c0             	test   rax,rax
a802:	48 89 c1             	mov    rcx,rax
a805:	44 8b 5c 24 30       	mov    r11d,DWORD PTR [rsp+0x30]
a80a:	4c 8b 44 24 38       	mov    r8,QWORD PTR [rsp+0x38]
a80f:	4c 8b 54 24 40       	mov    r10,QWORD PTR [rsp+0x40]
a814:	4c 8b 4c 24 48       	mov    r9,QWORD PTR [rsp+0x48]
a819:	0f 84 88 03 00 00    	je     aba7 <printf_parse+0xc87>
a81f:	48 8b 44 24 08       	mov    rax,QWORD PTR [rsp+0x8]
a824:	49 3b 47 08          	cmp    rax,QWORD PTR [r15+0x8]
a828:	0f 84 8b 00 00 00    	je     a8b9 <printf_parse+0x999>
a82e:	49 89 4f 08          	mov    QWORD PTR [r15+0x8],rcx
a832:	e9 5d f9 ff ff       	jmp    a194 <printf_parse+0x274>
a837:	48 8b 74 24 20       	mov    rsi,QWORD PTR [rsp+0x20]
a83c:	48 83 fe ff          	cmp    rsi,0xffffffffffffffff
a840:	48 8d 46 01          	lea    rax,[rsi+0x1]
a844:	49 89 74 24 50       	mov    QWORD PTR [r12+0x50],rsi
a849:	0f 84 1c ff ff ff    	je     a76b <printf_parse+0x84b>
a84f:	4c 8b 6c 24 20       	mov    r13,QWORD PTR [rsp+0x20]
a854:	48 89 44 24 20       	mov    QWORD PTR [rsp+0x20],rax
a859:	e9 29 f9 ff ff       	jmp    a187 <printf_parse+0x267>
a85e:	40 80 ff 09          	cmp    dil,0x9
a862:	0f 87 03 ff ff ff    	ja     a76b <printf_parse+0x84b>
a868:	0f be c3             	movsx  eax,bl
a86b:	4c 89 c6             	mov    rsi,r8
a86e:	48 89 e9             	mov    rcx,rbp
a871:	83 e8 30             	sub    eax,0x30
a874:	48 98                	cdqe
a876:	e9 36 fc ff ff       	jmp    a4b1 <printf_parse+0x591>
a87b:	83 fa 05             	cmp    edx,0x5
a87e:	0f 85 eb fe ff ff    	jne    a76f <printf_parse+0x84f>
a884:	0f b6 5d 00          	movzx  ebx,BYTE PTR [rbp+0x0]
a888:	48 8d 55 01          	lea    rdx,[rbp+0x1]
a88c:	e9 54 f8 ff ff       	jmp    a0e5 <printf_parse+0x1c5>
a891:	48 89 f7             	mov    rdi,rsi
a894:	e8 57 71 ff ff       	call   19f0 <malloc@plt>
a899:	48 85 c0             	test   rax,rax
a89c:	48 89 c1             	mov    rcx,rax
a89f:	44 8b 5c 24 30       	mov    r11d,DWORD PTR [rsp+0x30]
a8a4:	4c 8b 44 24 38       	mov    r8,QWORD PTR [rsp+0x38]
a8a9:	4c 8b 54 24 40       	mov    r10,QWORD PTR [rsp+0x40]
a8ae:	4c 8b 4c 24 48       	mov    r9,QWORD PTR [rsp+0x48]
a8b3:	0f 84 63 01 00 00    	je     aa1c <printf_parse+0xafc>
a8b9:	49 8b 17             	mov    rdx,QWORD PTR [r15]
a8bc:	48 8b 74 24 08       	mov    rsi,QWORD PTR [rsp+0x8]
a8c1:	48 89 cf             	mov    rdi,rcx
a8c4:	4c 89 4c 24 48       	mov    QWORD PTR [rsp+0x48],r9
a8c9:	4c 89 54 24 40       	mov    QWORD PTR [rsp+0x40],r10
a8ce:	4c 89 44 24 38       	mov    QWORD PTR [rsp+0x38],r8
a8d3:	44 89 5c 24 30       	mov    DWORD PTR [rsp+0x30],r11d
a8d8:	48 c1 e2 05          	shl    rdx,0x5
a8dc:	e8 ef 70 ff ff       	call   19d0 <memcpy@plt>
a8e1:	4c 8b 4c 24 48       	mov    r9,QWORD PTR [rsp+0x48]
a8e6:	4c 8b 54 24 40       	mov    r10,QWORD PTR [rsp+0x40]
a8eb:	48 89 c1             	mov    rcx,rax
a8ee:	4c 8b 44 24 38       	mov    r8,QWORD PTR [rsp+0x38]
a8f3:	44 8b 5c 24 30       	mov    r11d,DWORD PTR [rsp+0x30]
a8f8:	e9 31 ff ff ff       	jmp    a82e <printf_parse+0x90e>
a8fd:	48 89 f7             	mov    rdi,rsi
a900:	e8 eb 70 ff ff       	call   19f0 <malloc@plt>
a905:	48 85 c0             	test   rax,rax
a908:	48 89 c1             	mov    rcx,rax
a90b:	4c 8b 44 24 30       	mov    r8,QWORD PTR [rsp+0x30]
a910:	4c 8b 54 24 38       	mov    r10,QWORD PTR [rsp+0x38]
a915:	4c 8b 4c 24 40       	mov    r9,QWORD PTR [rsp+0x40]
a91a:	0f 84 e9 00 00 00    	je     aa09 <printf_parse+0xae9>
a920:	48 8d 04 9b          	lea    rax,[rbx+rbx*4]
a924:	48 8b 74 24 28       	mov    rsi,QWORD PTR [rsp+0x28]
a929:	48 89 cf             	mov    rdi,rcx
a92c:	4c 89 4c 24 40       	mov    QWORD PTR [rsp+0x40],r9
a931:	4c 89 54 24 38       	mov    QWORD PTR [rsp+0x38],r10
a936:	48 8d 14 43          	lea    rdx,[rbx+rax*2]
a93a:	4c 89 44 24 30       	mov    QWORD PTR [rsp+0x30],r8
a93f:	48 c1 e2 03          	shl    rdx,0x3
a943:	e8 88 70 ff ff       	call   19d0 <memcpy@plt>
a948:	49 8b 1e             	mov    rbx,QWORD PTR [r14]
a94b:	48 89 c1             	mov    rcx,rax
a94e:	4c 8b 4c 24 40       	mov    r9,QWORD PTR [rsp+0x40]
a953:	4c 8b 54 24 38       	mov    r10,QWORD PTR [rsp+0x38]
a958:	4c 8b 44 24 30       	mov    r8,QWORD PTR [rsp+0x30]
a95d:	e9 15 f9 ff ff       	jmp    a277 <printf_parse+0x357>
a962:	49 8b 07             	mov    rax,QWORD PTR [r15]
a965:	e9 fd f9 ff ff       	jmp    a367 <printf_parse+0x447>
a96a:	83 fa 05             	cmp    edx,0x5
a96d:	0f 85 fc fd ff ff    	jne    a76f <printf_parse+0x84f>
a973:	41 0f b6 1b          	movzx  ebx,BYTE PTR [r11]
a977:	4c 89 dd             	mov    rbp,r11
a97a:	e9 6f f7 ff ff       	jmp    a0ee <printf_parse+0x1ce>
a97f:	4d 01 c9             	add    r9,r9
a982:	48 8d 43 01          	lea    rax,[rbx+0x1]
a986:	49 39 d9             	cmp    r9,rbx
a989:	4c 0f 46 c8          	cmovbe r9,rax
a98d:	48 b8 ff ff ff ff ff 	movabs rax,0x7ffffffffffffff
a994:	ff ff 07
a997:	49 39 c1             	cmp    r9,rax
a99a:	0f 87 0b 02 00 00    	ja     abab <printf_parse+0xc8b>
a9a0:	4c 89 ce             	mov    rsi,r9
a9a3:	4c 89 4c 24 48       	mov    QWORD PTR [rsp+0x48],r9
a9a8:	4c 89 54 24 40       	mov    QWORD PTR [rsp+0x40],r10
a9ad:	48 c1 e6 05          	shl    rsi,0x5
a9b1:	48 39 4c 24 08       	cmp    QWORD PTR [rsp+0x8],rcx
a9b6:	4c 89 44 24 38       	mov    QWORD PTR [rsp+0x38],r8
a9bb:	4c 89 5c 24 30       	mov    QWORD PTR [rsp+0x30],r11
a9c0:	0f 84 b8 01 00 00    	je     ab7e <printf_parse+0xc5e>
a9c6:	48 89 cf             	mov    rdi,rcx
a9c9:	e8 82 70 ff ff       	call   1a50 <realloc@plt>
a9ce:	49 8b 57 08          	mov    rdx,QWORD PTR [r15+0x8]
a9d2:	4c 8b 5c 24 30       	mov    r11,QWORD PTR [rsp+0x30]
a9d7:	48 89 c1             	mov    rcx,rax
a9da:	4c 8b 44 24 38       	mov    r8,QWORD PTR [rsp+0x38]
a9df:	4c 8b 54 24 40       	mov    r10,QWORD PTR [rsp+0x40]
a9e4:	4c 8b 4c 24 48       	mov    r9,QWORD PTR [rsp+0x48]
a9e9:	48 85 c9             	test   rcx,rcx
a9ec:	0f 84 15 02 00 00    	je     ac07 <printf_parse+0xce7>
a9f2:	48 39 54 24 08       	cmp    QWORD PTR [rsp+0x8],rdx
a9f7:	49 8b 07             	mov    rax,QWORD PTR [r15]
a9fa:	0f 84 c0 01 00 00    	je     abc0 <printf_parse+0xca0>
aa00:	49 89 4f 08          	mov    QWORD PTR [r15+0x8],rcx
aa04:	e9 14 fa ff ff       	jmp    a41d <printf_parse+0x4fd>
aa09:	49 8b 4f 08          	mov    rcx,QWORD PTR [r15+0x8]
aa0d:	48 39 4c 24 08       	cmp    QWORD PTR [rsp+0x8],rcx
aa12:	74 18                	je     aa2c <printf_parse+0xb0c>
aa14:	48 89 cf             	mov    rdi,rcx
aa17:	e8 b4 6d ff ff       	call   17d0 <free@plt>
aa1c:	49 8b 7e 08          	mov    rdi,QWORD PTR [r14+0x8]
aa20:	48 39 7c 24 28       	cmp    QWORD PTR [rsp+0x28],rdi
aa25:	74 05                	je     aa2c <printf_parse+0xb0c>
aa27:	e8 a4 6d ff ff       	call   17d0 <free@plt>
aa2c:	e8 bf 6d ff ff       	call   17f0 <__errno_location@plt>
aa31:	c7 00 0c 00 00 00    	mov    DWORD PTR [rax],0xc
aa37:	b8 ff ff ff ff       	mov    eax,0xffffffff
aa3c:	e9 81 f5 ff ff       	jmp    9fc2 <printf_parse+0xa2>
aa41:	48 89 f7             	mov    rdi,rsi
aa44:	e8 a7 6f ff ff       	call   19f0 <malloc@plt>
aa49:	48 8b 54 24 08       	mov    rdx,QWORD PTR [rsp+0x8]
aa4e:	48 89 c1             	mov    rcx,rax
aa51:	4c 8b 4c 24 40       	mov    r9,QWORD PTR [rsp+0x40]
aa56:	4c 8b 54 24 38       	mov    r10,QWORD PTR [rsp+0x38]
aa5b:	4c 8b 44 24 30       	mov    r8,QWORD PTR [rsp+0x30]
aa60:	e9 e7 f8 ff ff       	jmp    a34c <printf_parse+0x42c>
aa65:	48 8b 74 24 20       	mov    rsi,QWORD PTR [rsp+0x20]
aa6a:	48 83 fe ff          	cmp    rsi,0xffffffffffffffff
aa6e:	48 8d 46 01          	lea    rax,[rsi+0x1]
aa72:	49 89 74 24 40       	mov    QWORD PTR [r12+0x40],rsi
aa77:	0f 84 ee fc ff ff    	je     a76b <printf_parse+0x84b>
aa7d:	48 8b 5c 24 20       	mov    rbx,QWORD PTR [rsp+0x20]
aa82:	48 89 44 24 20       	mov    QWORD PTR [rsp+0x20],rax
aa87:	e9 81 f9 ff ff       	jmp    a40d <printf_parse+0x4ed>
aa8c:	4c 89 da             	mov    rdx,r11
aa8f:	48 83 c2 01          	add    rdx,0x1
aa93:	0f b6 0a             	movzx  ecx,BYTE PTR [rdx]
aa96:	8d 71 d0             	lea    esi,[rcx-0x30]
aa99:	40 80 fe 09          	cmp    sil,0x9
aa9d:	76 f0                	jbe    aa8f <printf_parse+0xb6f>
aa9f:	80 f9 24             	cmp    cl,0x24
aaa2:	0f 85 56 f9 ff ff    	jne    a3fe <printf_parse+0x4de>
aaa8:	31 c9                	xor    ecx,ecx
aaaa:	48 be 99 99 99 99 99 	movabs rsi,0x1999999999999999
aab1:	99 99 19
aab4:	83 e8 30             	sub    eax,0x30
aab7:	4c 89 c2             	mov    rdx,r8
aaba:	48 39 f1             	cmp    rcx,rsi
aabd:	48 98                	cdqe
aabf:	77 07                	ja     aac8 <printf_parse+0xba8>
aac1:	48 8d 14 89          	lea    rdx,[rcx+rcx*4]
aac5:	48 01 d2             	add    rdx,rdx
aac8:	4c 89 de             	mov    rsi,r11
aacb:	31 db                	xor    ebx,ebx
aacd:	48 01 c2             	add    rdx,rax
aad0:	41 0f be 43 01       	movsx  eax,BYTE PTR [r11+0x1]
aad5:	0f 92 c3             	setb   bl
aad8:	49 83 c3 01          	add    r11,0x1
aadc:	48 89 d1             	mov    rcx,rdx
aadf:	48 85 db             	test   rbx,rbx
aae2:	8d 78 d0             	lea    edi,[rax-0x30]
aae5:	74 71                	je     ab58 <printf_parse+0xc38>
aae7:	40 80 ff 09          	cmp    dil,0x9
aaeb:	0f 87 7a fc ff ff    	ja     a76b <printf_parse+0x84b>
aaf1:	83 e8 30             	sub    eax,0x30
aaf4:	4c 89 c2             	mov    rdx,r8
aaf7:	4c 89 de             	mov    rsi,r11
aafa:	48 98                	cdqe
aafc:	eb cd                	jmp    aacb <printf_parse+0xbab>
aafe:	40 80 ff 09          	cmp    dil,0x9
ab02:	0f 87 63 fc ff ff    	ja     a76b <printf_parse+0x84b>
ab08:	0f be c1             	movsx  eax,cl
ab0b:	48 89 d5             	mov    rbp,rdx
ab0e:	4c 89 c1             	mov    rcx,r8
ab11:	83 e8 30             	sub    eax,0x30
ab14:	48 98                	cdqe
ab16:	e9 be fa ff ff       	jmp    a5d9 <printf_parse+0x6b9>
ab1b:	48 8b 74 24 08       	mov    rsi,QWORD PTR [rsp+0x8]
ab20:	48 c1 e0 05          	shl    rax,0x5
ab24:	48 89 cf             	mov    rdi,rcx
ab27:	48 89 c2             	mov    rdx,rax
ab2a:	4c 89 4c 24 40       	mov    QWORD PTR [rsp+0x40],r9
ab2f:	4c 89 54 24 38       	mov    QWORD PTR [rsp+0x38],r10
ab34:	4c 89 44 24 30       	mov    QWORD PTR [rsp+0x30],r8
ab39:	e8 92 6e ff ff       	call   19d0 <memcpy@plt>
ab3e:	4c 8b 4c 24 40       	mov    r9,QWORD PTR [rsp+0x40]
ab43:	48 89 c1             	mov    rcx,rax
ab46:	4c 8b 54 24 38       	mov    r10,QWORD PTR [rsp+0x38]
ab4b:	49 8b 07             	mov    rax,QWORD PTR [r15]
ab4e:	4c 8b 44 24 30       	mov    r8,QWORD PTR [rsp+0x30]
ab53:	e9 0b f8 ff ff       	jmp    a363 <printf_parse+0x443>
ab58:	40 80 ff 09          	cmp    dil,0x9
ab5c:	0f 86 48 ff ff ff    	jbe    aaaa <printf_parse+0xb8a>
ab62:	48 8d 5a ff          	lea    rbx,[rdx-0x1]
ab66:	48 83 fb fd          	cmp    rbx,0xfffffffffffffffd
ab6a:	0f 87 fb fb ff ff    	ja     a76b <printf_parse+0x84b>
ab70:	49 89 5c 24 40       	mov    QWORD PTR [r12+0x40],rbx
ab75:	4c 8d 5e 02          	lea    r11,[rsi+0x2]
ab79:	e9 8f f8 ff ff       	jmp    a40d <printf_parse+0x4ed>
ab7e:	48 89 f7             	mov    rdi,rsi
ab81:	e8 6a 6e ff ff       	call   19f0 <malloc@plt>
ab86:	48 8b 54 24 08       	mov    rdx,QWORD PTR [rsp+0x8]
ab8b:	48 89 c1             	mov    rcx,rax
ab8e:	4c 8b 4c 24 48       	mov    r9,QWORD PTR [rsp+0x48]
ab93:	4c 8b 54 24 40       	mov    r10,QWORD PTR [rsp+0x40]
ab98:	4c 8b 44 24 38       	mov    r8,QWORD PTR [rsp+0x38]
ab9d:	4c 8b 5c 24 30       	mov    r11,QWORD PTR [rsp+0x30]
aba2:	e9 42 fe ff ff       	jmp    a9e9 <printf_parse+0xac9>
aba7:	49 8b 4f 08          	mov    rcx,QWORD PTR [r15+0x8]
abab:	48 39 4c 24 08       	cmp    QWORD PTR [rsp+0x8],rcx
abb0:	0f 85 5e fe ff ff    	jne    aa14 <printf_parse+0xaf4>
abb6:	e9 61 fe ff ff       	jmp    aa1c <printf_parse+0xafc>
abbb:	0f 1f 44 00 00       	nop    DWORD PTR [rax+rax*1+0x0]
abc0:	48 8b 74 24 08       	mov    rsi,QWORD PTR [rsp+0x8]
abc5:	48 c1 e0 05          	shl    rax,0x5
abc9:	48 89 cf             	mov    rdi,rcx
abcc:	48 89 c2             	mov    rdx,rax
abcf:	4c 89 4c 24 48       	mov    QWORD PTR [rsp+0x48],r9
abd4:	4c 89 54 24 40       	mov    QWORD PTR [rsp+0x40],r10
abd9:	4c 89 44 24 38       	mov    QWORD PTR [rsp+0x38],r8
abde:	4c 89 5c 24 30       	mov    QWORD PTR [rsp+0x30],r11
abe3:	e8 e8 6d ff ff       	call   19d0 <memcpy@plt>
abe8:	4c 8b 4c 24 48       	mov    r9,QWORD PTR [rsp+0x48]
abed:	48 89 c1             	mov    rcx,rax
abf0:	4c 8b 54 24 40       	mov    r10,QWORD PTR [rsp+0x40]
abf5:	49 8b 07             	mov    rax,QWORD PTR [r15]
abf8:	4c 8b 44 24 38       	mov    r8,QWORD PTR [rsp+0x38]
abfd:	4c 8b 5c 24 30       	mov    r11,QWORD PTR [rsp+0x30]
ac02:	e9 f9 fd ff ff       	jmp    aa00 <printf_parse+0xae0>
ac07:	48 89 d1             	mov    rcx,rdx
ac0a:	eb 9f                	jmp    abab <printf_parse+0xc8b>
ac0c:	0f 1f 40 00          	nop    DWORD PTR [rax+0x0]

000000000000ac10 <__libc_csu_init>:
ac10:	41 57                	push   r15
ac12:	41 56                	push   r14
ac14:	49 89 d7             	mov    r15,rdx
ac17:	41 55                	push   r13
ac19:	41 54                	push   r12
ac1b:	4c 8d 25 ae 4d 20 00 	lea    r12,[rip+0x204dae]        # 20f9d0 <__frame_dummy_init_array_entry>
ac22:	55                   	push   rbp
ac23:	48 8d 2d ae 4d 20 00 	lea    rbp,[rip+0x204dae]        # 20f9d8 <__init_array_end>
ac2a:	53                   	push   rbx
ac2b:	41 89 fd             	mov    r13d,edi
ac2e:	49 89 f6             	mov    r14,rsi
ac31:	4c 29 e5             	sub    rbp,r12
ac34:	48 83 ec 08          	sub    rsp,0x8
ac38:	48 c1 fd 03          	sar    rbp,0x3
ac3c:	e8 4f 6b ff ff       	call   1790 <_init>
ac41:	48 85 ed             	test   rbp,rbp
ac44:	74 20                	je     ac66 <__libc_csu_init+0x56>
ac46:	31 db                	xor    ebx,ebx
ac48:	0f 1f 84 00 00 00 00 	nop    DWORD PTR [rax+rax*1+0x0]
ac4f:	00
ac50:	4c 89 fa             	mov    rdx,r15
ac53:	4c 89 f6             	mov    rsi,r14
ac56:	44 89 ef             	mov    edi,r13d
ac59:	41 ff 14 dc          	call   QWORD PTR [r12+rbx*8]
ac5d:	48 83 c3 01          	add    rbx,0x1
ac61:	48 39 dd             	cmp    rbp,rbx
ac64:	75 ea                	jne    ac50 <__libc_csu_init+0x40>
ac66:	48 83 c4 08          	add    rsp,0x8
ac6a:	5b                   	pop    rbx
ac6b:	5d                   	pop    rbp
ac6c:	41 5c                	pop    r12
ac6e:	41 5d                	pop    r13
ac70:	41 5e                	pop    r14
ac72:	41 5f                	pop    r15
ac74:	c3                   	ret
ac75:	90                   	nop
ac76:	66 2e 0f 1f 84 00 00 	nop    WORD PTR cs:[rax+rax*1+0x0]
ac7d:	00 00 00

000000000000ac80 <__libc_csu_fini>:
ac80:	f3 c3                	repz ret
ac82:	66 2e 0f 1f 84 00 00 	nop    WORD PTR cs:[rax+rax*1+0x0]
ac89:	00 00 00
ac8c:	0f 1f 40 00          	nop    DWORD PTR [rax+0x0]

000000000000ac90 <atexit>:
ac90:	48 8b 15 71 53 20 00 	mov    rdx,QWORD PTR [rip+0x205371]        # 210008 <__dso_handle>
ac97:	31 f6                	xor    esi,esi
ac99:	e9 42 6e ff ff       	jmp    1ae0 <__cxa_atexit@plt>

Disassembly of section .fini:

000000000000aca0 <_fini>:
aca0:	48 83 ec 08          	sub    rsp,0x8
aca4:	48 83 c4 08          	add    rsp,0x8
aca8:	c3                   	ret
