


Disassembly of section .init:

0000000000001480 <_init>:
1480:	48 83 ec 08          	sub    rsp,0x8
1484:	48 8b 05 45 8b 20 00 	mov    rax,QWORD PTR [rip+0x208b45]        # 209fd0 <__gmon_start__>
148b:	48 85 c0             	test   rax,rax
148e:	74 02                	je     1492 <_init+0x12>
1490:	ff d0                	call   rax
1492:	48 83 c4 08          	add    rsp,0x8
1496:	c3                   	ret

Disassembly of section .plt:

00000000000014a0 <.plt>:
14a0:	ff 35 8a 89 20 00    	push   QWORD PTR [rip+0x20898a]        # 209e30 <_GLOBAL_OFFSET_TABLE_+0x8>
14a6:	ff 25 8c 89 20 00    	jmp    QWORD PTR [rip+0x20898c]        # 209e38 <_GLOBAL_OFFSET_TABLE_+0x10>
14ac:	0f 1f 40 00          	nop    DWORD PTR [rax+0x0]

00000000000014b0 <free@plt>:
14b0:	ff 25 8a 89 20 00    	jmp    QWORD PTR [rip+0x20898a]        # 209e40 <free@GLIBC_2.2.5>
14b6:	68 00 00 00 00       	push   0x0
14bb:	e9 e0 ff ff ff       	jmp    14a0 <.plt>

00000000000014c0 <abort@plt>:
14c0:	ff 25 82 89 20 00    	jmp    QWORD PTR [rip+0x208982]        # 209e48 <abort@GLIBC_2.2.5>
14c6:	68 01 00 00 00       	push   0x1
14cb:	e9 d0 ff ff ff       	jmp    14a0 <.plt>

00000000000014d0 <__errno_location@plt>:
14d0:	ff 25 7a 89 20 00    	jmp    QWORD PTR [rip+0x20897a]        # 209e50 <__errno_location@GLIBC_2.2.5>
14d6:	68 02 00 00 00       	push   0x2
14db:	e9 c0 ff ff ff       	jmp    14a0 <.plt>

00000000000014e0 <strncmp@plt>:
14e0:	ff 25 72 89 20 00    	jmp    QWORD PTR [rip+0x208972]        # 209e58 <strncmp@GLIBC_2.2.5>
14e6:	68 03 00 00 00       	push   0x3
14eb:	e9 b0 ff ff ff       	jmp    14a0 <.plt>

00000000000014f0 <_exit@plt>:
14f0:	ff 25 6a 89 20 00    	jmp    QWORD PTR [rip+0x20896a]        # 209e60 <_exit@GLIBC_2.2.5>
14f6:	68 04 00 00 00       	push   0x4
14fb:	e9 a0 ff ff ff       	jmp    14a0 <.plt>

0000000000001500 <__fpending@plt>:
1500:	ff 25 62 89 20 00    	jmp    QWORD PTR [rip+0x208962]        # 209e68 <__fpending@GLIBC_2.2.5>
1506:	68 05 00 00 00       	push   0x5
150b:	e9 90 ff ff ff       	jmp    14a0 <.plt>

0000000000001510 <readlink@plt>:
1510:	ff 25 5a 89 20 00    	jmp    QWORD PTR [rip+0x20895a]        # 209e70 <readlink@GLIBC_2.2.5>
1516:	68 06 00 00 00       	push   0x6
151b:	e9 80 ff ff ff       	jmp    14a0 <.plt>

0000000000001520 <textdomain@plt>:
1520:	ff 25 52 89 20 00    	jmp    QWORD PTR [rip+0x208952]        # 209e78 <textdomain@GLIBC_2.2.5>
1526:	68 07 00 00 00       	push   0x7
152b:	e9 70 ff ff ff       	jmp    14a0 <.plt>

0000000000001530 <fclose@plt>:
1530:	ff 25 4a 89 20 00    	jmp    QWORD PTR [rip+0x20894a]        # 209e80 <fclose@GLIBC_2.2.5>
1536:	68 08 00 00 00       	push   0x8
153b:	e9 60 ff ff ff       	jmp    14a0 <.plt>

0000000000001540 <bindtextdomain@plt>:
1540:	ff 25 42 89 20 00    	jmp    QWORD PTR [rip+0x208942]        # 209e88 <bindtextdomain@GLIBC_2.2.5>
1546:	68 09 00 00 00       	push   0x9
154b:	e9 50 ff ff ff       	jmp    14a0 <.plt>

0000000000001550 <dcgettext@plt>:
1550:	ff 25 3a 89 20 00    	jmp    QWORD PTR [rip+0x20893a]        # 209e90 <dcgettext@GLIBC_2.2.5>
1556:	68 0a 00 00 00       	push   0xa
155b:	e9 40 ff ff ff       	jmp    14a0 <.plt>

0000000000001560 <__ctype_get_mb_cur_max@plt>:
1560:	ff 25 32 89 20 00    	jmp    QWORD PTR [rip+0x208932]        # 209e98 <__ctype_get_mb_cur_max@GLIBC_2.2.5>
1566:	68 0b 00 00 00       	push   0xb
156b:	e9 30 ff ff ff       	jmp    14a0 <.plt>

0000000000001570 <strlen@plt>:
1570:	ff 25 2a 89 20 00    	jmp    QWORD PTR [rip+0x20892a]        # 209ea0 <strlen@GLIBC_2.2.5>
1576:	68 0c 00 00 00       	push   0xc
157b:	e9 20 ff ff ff       	jmp    14a0 <.plt>

0000000000001580 <__lxstat@plt>:
1580:	ff 25 22 89 20 00    	jmp    QWORD PTR [rip+0x208922]        # 209ea8 <__lxstat@GLIBC_2.2.5>
1586:	68 0d 00 00 00       	push   0xd
158b:	e9 10 ff ff ff       	jmp    14a0 <.plt>

0000000000001590 <__stack_chk_fail@plt>:
1590:	ff 25 1a 89 20 00    	jmp    QWORD PTR [rip+0x20891a]        # 209eb0 <__stack_chk_fail@GLIBC_2.4>
1596:	68 0e 00 00 00       	push   0xe
159b:	e9 00 ff ff ff       	jmp    14a0 <.plt>

00000000000015a0 <getopt_long@plt>:
15a0:	ff 25 12 89 20 00    	jmp    QWORD PTR [rip+0x208912]        # 209eb8 <getopt_long@GLIBC_2.2.5>
15a6:	68 0f 00 00 00       	push   0xf
15ab:	e9 f0 fe ff ff       	jmp    14a0 <.plt>

00000000000015b0 <mbrtowc@plt>:
15b0:	ff 25 0a 89 20 00    	jmp    QWORD PTR [rip+0x20890a]        # 209ec0 <mbrtowc@GLIBC_2.2.5>
15b6:	68 10 00 00 00       	push   0x10
15bb:	e9 e0 fe ff ff       	jmp    14a0 <.plt>

00000000000015c0 <__fxstatat@plt>:
15c0:	ff 25 02 89 20 00    	jmp    QWORD PTR [rip+0x208902]        # 209ec8 <__fxstatat@GLIBC_2.4>
15c6:	68 11 00 00 00       	push   0x11
15cb:	e9 d0 fe ff ff       	jmp    14a0 <.plt>

00000000000015d0 <__overflow@plt>:
15d0:	ff 25 fa 88 20 00    	jmp    QWORD PTR [rip+0x2088fa]        # 209ed0 <__overflow@GLIBC_2.2.5>
15d6:	68 12 00 00 00       	push   0x12
15db:	e9 c0 fe ff ff       	jmp    14a0 <.plt>

00000000000015e0 <strrchr@plt>:
15e0:	ff 25 f2 88 20 00    	jmp    QWORD PTR [rip+0x2088f2]        # 209ed8 <strrchr@GLIBC_2.2.5>
15e6:	68 13 00 00 00       	push   0x13
15eb:	e9 b0 fe ff ff       	jmp    14a0 <.plt>

00000000000015f0 <lseek@plt>:
15f0:	ff 25 ea 88 20 00    	jmp    QWORD PTR [rip+0x2088ea]        # 209ee0 <lseek@GLIBC_2.2.5>
15f6:	68 14 00 00 00       	push   0x14
15fb:	e9 a0 fe ff ff       	jmp    14a0 <.plt>

0000000000001600 <memset@plt>:
1600:	ff 25 e2 88 20 00    	jmp    QWORD PTR [rip+0x2088e2]        # 209ee8 <memset@GLIBC_2.2.5>
1606:	68 15 00 00 00       	push   0x15
160b:	e9 90 fe ff ff       	jmp    14a0 <.plt>

0000000000001610 <getcwd@plt>:
1610:	ff 25 da 88 20 00    	jmp    QWORD PTR [rip+0x2088da]        # 209ef0 <getcwd@GLIBC_2.2.5>
1616:	68 16 00 00 00       	push   0x16
161b:	e9 80 fe ff ff       	jmp    14a0 <.plt>

0000000000001620 <strspn@plt>:
1620:	ff 25 d2 88 20 00    	jmp    QWORD PTR [rip+0x2088d2]        # 209ef8 <strspn@GLIBC_2.2.5>
1626:	68 17 00 00 00       	push   0x17
162b:	e9 70 fe ff ff       	jmp    14a0 <.plt>

0000000000001630 <memcmp@plt>:
1630:	ff 25 ca 88 20 00    	jmp    QWORD PTR [rip+0x2088ca]        # 209f00 <memcmp@GLIBC_2.2.5>
1636:	68 18 00 00 00       	push   0x18
163b:	e9 60 fe ff ff       	jmp    14a0 <.plt>

0000000000001640 <fputs_unlocked@plt>:
1640:	ff 25 c2 88 20 00    	jmp    QWORD PTR [rip+0x2088c2]        # 209f08 <fputs_unlocked@GLIBC_2.2.5>
1646:	68 19 00 00 00       	push   0x19
164b:	e9 50 fe ff ff       	jmp    14a0 <.plt>

0000000000001650 <calloc@plt>:
1650:	ff 25 ba 88 20 00    	jmp    QWORD PTR [rip+0x2088ba]        # 209f10 <calloc@GLIBC_2.2.5>
1656:	68 1a 00 00 00       	push   0x1a
165b:	e9 40 fe ff ff       	jmp    14a0 <.plt>

0000000000001660 <strcmp@plt>:
1660:	ff 25 b2 88 20 00    	jmp    QWORD PTR [rip+0x2088b2]        # 209f18 <strcmp@GLIBC_2.2.5>
1666:	68 1b 00 00 00       	push   0x1b
166b:	e9 30 fe ff ff       	jmp    14a0 <.plt>

0000000000001670 <memcpy@plt>:
1670:	ff 25 aa 88 20 00    	jmp    QWORD PTR [rip+0x2088aa]        # 209f20 <memcpy@GLIBC_2.14>
1676:	68 1c 00 00 00       	push   0x1c
167b:	e9 20 fe ff ff       	jmp    14a0 <.plt>

0000000000001680 <fileno@plt>:
1680:	ff 25 a2 88 20 00    	jmp    QWORD PTR [rip+0x2088a2]        # 209f28 <fileno@GLIBC_2.2.5>
1686:	68 1d 00 00 00       	push   0x1d
168b:	e9 10 fe ff ff       	jmp    14a0 <.plt>

0000000000001690 <__xstat@plt>:
1690:	ff 25 9a 88 20 00    	jmp    QWORD PTR [rip+0x20889a]        # 209f30 <__xstat@GLIBC_2.2.5>
1696:	68 1e 00 00 00       	push   0x1e
169b:	e9 00 fe ff ff       	jmp    14a0 <.plt>

00000000000016a0 <malloc@plt>:
16a0:	ff 25 92 88 20 00    	jmp    QWORD PTR [rip+0x208892]        # 209f38 <malloc@GLIBC_2.2.5>
16a6:	68 1f 00 00 00       	push   0x1f
16ab:	e9 f0 fd ff ff       	jmp    14a0 <.plt>

00000000000016b0 <fflush@plt>:
16b0:	ff 25 8a 88 20 00    	jmp    QWORD PTR [rip+0x20888a]        # 209f40 <fflush@GLIBC_2.2.5>
16b6:	68 20 00 00 00       	push   0x20
16bb:	e9 e0 fd ff ff       	jmp    14a0 <.plt>

00000000000016c0 <nl_langinfo@plt>:
16c0:	ff 25 82 88 20 00    	jmp    QWORD PTR [rip+0x208882]        # 209f48 <nl_langinfo@GLIBC_2.2.5>
16c6:	68 21 00 00 00       	push   0x21
16cb:	e9 d0 fd ff ff       	jmp    14a0 <.plt>

00000000000016d0 <__freading@plt>:
16d0:	ff 25 7a 88 20 00    	jmp    QWORD PTR [rip+0x20887a]        # 209f50 <__freading@GLIBC_2.2.5>
16d6:	68 22 00 00 00       	push   0x22
16db:	e9 c0 fd ff ff       	jmp    14a0 <.plt>

00000000000016e0 <realloc@plt>:
16e0:	ff 25 72 88 20 00    	jmp    QWORD PTR [rip+0x208872]        # 209f58 <realloc@GLIBC_2.2.5>
16e6:	68 23 00 00 00       	push   0x23
16eb:	e9 b0 fd ff ff       	jmp    14a0 <.plt>

00000000000016f0 <setlocale@plt>:
16f0:	ff 25 6a 88 20 00    	jmp    QWORD PTR [rip+0x20886a]        # 209f60 <setlocale@GLIBC_2.2.5>
16f6:	68 24 00 00 00       	push   0x24
16fb:	e9 a0 fd ff ff       	jmp    14a0 <.plt>

0000000000001700 <__printf_chk@plt>:
1700:	ff 25 62 88 20 00    	jmp    QWORD PTR [rip+0x208862]        # 209f68 <__printf_chk@GLIBC_2.3.4>
1706:	68 25 00 00 00       	push   0x25
170b:	e9 90 fd ff ff       	jmp    14a0 <.plt>

0000000000001710 <memmove@plt>:
1710:	ff 25 5a 88 20 00    	jmp    QWORD PTR [rip+0x20885a]        # 209f70 <memmove@GLIBC_2.2.5>
1716:	68 26 00 00 00       	push   0x26
171b:	e9 80 fd ff ff       	jmp    14a0 <.plt>

0000000000001720 <error@plt>:
1720:	ff 25 52 88 20 00    	jmp    QWORD PTR [rip+0x208852]        # 209f78 <error@GLIBC_2.2.5>
1726:	68 27 00 00 00       	push   0x27
172b:	e9 70 fd ff ff       	jmp    14a0 <.plt>

0000000000001730 <fseeko@plt>:
1730:	ff 25 4a 88 20 00    	jmp    QWORD PTR [rip+0x20884a]        # 209f80 <fseeko@GLIBC_2.2.5>
1736:	68 28 00 00 00       	push   0x28
173b:	e9 60 fd ff ff       	jmp    14a0 <.plt>

0000000000001740 <__cxa_atexit@plt>:
1740:	ff 25 42 88 20 00    	jmp    QWORD PTR [rip+0x208842]        # 209f88 <__cxa_atexit@GLIBC_2.2.5>
1746:	68 29 00 00 00       	push   0x29
174b:	e9 50 fd ff ff       	jmp    14a0 <.plt>

0000000000001750 <exit@plt>:
1750:	ff 25 3a 88 20 00    	jmp    QWORD PTR [rip+0x20883a]        # 209f90 <exit@GLIBC_2.2.5>
1756:	68 2a 00 00 00       	push   0x2a
175b:	e9 40 fd ff ff       	jmp    14a0 <.plt>

0000000000001760 <fwrite@plt>:
1760:	ff 25 32 88 20 00    	jmp    QWORD PTR [rip+0x208832]        # 209f98 <fwrite@GLIBC_2.2.5>
1766:	68 2b 00 00 00       	push   0x2b
176b:	e9 30 fd ff ff       	jmp    14a0 <.plt>

0000000000001770 <__fprintf_chk@plt>:
1770:	ff 25 2a 88 20 00    	jmp    QWORD PTR [rip+0x20882a]        # 209fa0 <__fprintf_chk@GLIBC_2.3.4>
1776:	68 2c 00 00 00       	push   0x2c
177b:	e9 20 fd ff ff       	jmp    14a0 <.plt>

0000000000001780 <mbsinit@plt>:
1780:	ff 25 22 88 20 00    	jmp    QWORD PTR [rip+0x208822]        # 209fa8 <mbsinit@GLIBC_2.2.5>
1786:	68 2d 00 00 00       	push   0x2d
178b:	e9 10 fd ff ff       	jmp    14a0 <.plt>

0000000000001790 <iswprint@plt>:
1790:	ff 25 1a 88 20 00    	jmp    QWORD PTR [rip+0x20881a]        # 209fb0 <iswprint@GLIBC_2.2.5>
1796:	68 2e 00 00 00       	push   0x2e
179b:	e9 00 fd ff ff       	jmp    14a0 <.plt>

00000000000017a0 <__ctype_b_loc@plt>:
17a0:	ff 25 12 88 20 00    	jmp    QWORD PTR [rip+0x208812]        # 209fb8 <__ctype_b_loc@GLIBC_2.3>
17a6:	68 2f 00 00 00       	push   0x2f
17ab:	e9 f0 fc ff ff       	jmp    14a0 <.plt>

Disassembly of section .plt.got:

00000000000017b0 <__cxa_finalize@plt>:
17b0:	ff 25 2a 88 20 00    	jmp    QWORD PTR [rip+0x20882a]        # 209fe0 <__cxa_finalize@GLIBC_2.2.5>
17b6:	66 90                	xchg   ax,ax

Disassembly of section .text:

00000000000017c0 <main>:
17c0:	41 57                	push   r15
17c2:	41 56                	push   r14
17c4:	45 31 ff             	xor    r15d,r15d
17c7:	41 55                	push   r13
17c9:	41 54                	push   r12
17cb:	41 89 fc             	mov    r12d,edi
17ce:	55                   	push   rbp
17cf:	53                   	push   rbx
17d0:	48 89 f5             	mov    rbp,rsi
17d3:	4c 8d 2d 66 82 20 00 	lea    r13,[rip+0x208266]        # 209a40 <longopts>
17da:	45 31 f6             	xor    r14d,r14d
17dd:	bb 01 00 00 00       	mov    ebx,0x1
17e2:	48 83 ec 08          	sub    rsp,0x8
17e6:	48 8b 3e             	mov    rdi,QWORD PTR [rsi]
17e9:	e8 22 29 00 00       	call   4110 <set_program_name>
17ee:	48 8d 35 4c 63 00 00 	lea    rsi,[rip+0x634c]        # 7b41 <quoting_style_vals+0x81>
17f5:	bf 06 00 00 00       	mov    edi,0x6
17fa:	e8 f1 fe ff ff       	call   16f0 <setlocale@plt>
17ff:	48 8d 35 f9 57 00 00 	lea    rsi,[rip+0x57f9]        # 6fff <_IO_stdin_used+0xbf>
1806:	48 8d 3d c9 57 00 00 	lea    rdi,[rip+0x57c9]        # 6fd6 <_IO_stdin_used+0x96>
180d:	e8 2e fd ff ff       	call   1540 <bindtextdomain@plt>
1812:	48 8d 3d bd 57 00 00 	lea    rdi,[rip+0x57bd]        # 6fd6 <_IO_stdin_used+0x96>
1819:	e8 02 fd ff ff       	call   1520 <textdomain@plt>
181e:	48 8d 3d 9b 13 00 00 	lea    rdi,[rip+0x139b]        # 2bc0 <close_stdout>
1825:	e8 f6 56 00 00       	call   6f20 <atexit>
182a:	66 0f 1f 44 00 00    	nop    WORD PTR [rax+rax*1+0x0]
1830:	48 8d 15 e0 57 00 00 	lea    rdx,[rip+0x57e0]        # 7017 <_IO_stdin_used+0xd7>
1837:	45 31 c0             	xor    r8d,r8d
183a:	4c 89 e9             	mov    rcx,r13
183d:	48 89 ee             	mov    rsi,rbp
1840:	44 89 e7             	mov    edi,r12d
1843:	e8 58 fd ff ff       	call   15a0 <getopt_long@plt>
1848:	83 f8 ff             	cmp    eax,0xffffffff
184b:	0f 84 2b 01 00 00    	je     197c <main+0x1bc>
1851:	83 f8 6d             	cmp    eax,0x6d
1854:	0f 84 c6 00 00 00    	je     1920 <main+0x160>
185a:	7e 2c                	jle    1888 <main+0xc8>
185c:	83 f8 7a             	cmp    eax,0x7a
185f:	0f 84 db 00 00 00    	je     1940 <main+0x180>
1865:	7f 49                	jg     18b0 <main+0xf0>
1867:	83 f8 71             	cmp    eax,0x71
186a:	0f 84 c0 00 00 00    	je     1930 <main+0x170>
1870:	83 f8 73             	cmp    eax,0x73
1873:	0f 85 a1 03 00 00    	jne    1c1a <main+0x45a>
1879:	83 cb 04             	or     ebx,0x4
187c:	c6 05 7e 88 20 00 00 	mov    BYTE PTR [rip+0x20887e],0x0        # 20a101 <logical>
1883:	eb ab                	jmp    1830 <main+0x70>
1885:	0f 1f 00             	nop    DWORD PTR [rax]
1888:	83 f8 4c             	cmp    eax,0x4c
188b:	0f 84 cf 00 00 00    	je     1960 <main+0x1a0>
1891:	7e 45                	jle    18d8 <main+0x118>
1893:	83 f8 50             	cmp    eax,0x50
1896:	0f 84 b4 00 00 00    	je     1950 <main+0x190>
189c:	83 f8 65             	cmp    eax,0x65
189f:	0f 85 75 03 00 00    	jne    1c1a <main+0x45a>
18a5:	83 e3 fc             	and    ebx,0xfffffffc
18a8:	eb 86                	jmp    1830 <main+0x70>
18aa:	66 0f 1f 44 00 00    	nop    WORD PTR [rax+rax*1+0x0]
18b0:	3d 80 00 00 00       	cmp    eax,0x80
18b5:	0f 84 b5 00 00 00    	je     1970 <main+0x1b0>
18bb:	3d 81 00 00 00       	cmp    eax,0x81
18c0:	0f 85 54 03 00 00    	jne    1c1a <main+0x45a>
18c6:	4c 8b 35 eb 87 20 00 	mov    r14,QWORD PTR [rip+0x2087eb]        # 20a0b8 <optarg@@GLIBC_2.2.5>
18cd:	e9 5e ff ff ff       	jmp    1830 <main+0x70>
18d2:	66 0f 1f 44 00 00    	nop    WORD PTR [rax+rax*1+0x0]
18d8:	3d 7d ff ff ff       	cmp    eax,0xffffff7d
18dd:	0f 85 08 03 00 00    	jne    1beb <main+0x42b>
18e3:	48 8b 3d be 87 20 00 	mov    rdi,QWORD PTR [rip+0x2087be]        # 20a0a8 <stdout@@GLIBC_2.2.5>
18ea:	48 8b 0d 27 87 20 00 	mov    rcx,QWORD PTR [rip+0x208727]        # 20a018 <Version>
18f1:	4c 8d 05 27 57 00 00 	lea    r8,[rip+0x5727]        # 701f <_IO_stdin_used+0xdf>
18f8:	48 8d 15 d3 56 00 00 	lea    rdx,[rip+0x56d3]        # 6fd2 <_IO_stdin_used+0x92>
18ff:	48 8d 35 4d 56 00 00 	lea    rsi,[rip+0x564d]        # 6f53 <_IO_stdin_used+0x13>
1906:	45 31 c9             	xor    r9d,r9d
1909:	31 c0                	xor    eax,eax
190b:	e8 e0 4b 00 00       	call   64f0 <version_etc>
1910:	31 ff                	xor    edi,edi
1912:	e8 39 fe ff ff       	call   1750 <exit@plt>
1917:	66 0f 1f 84 00 00 00 	nop    WORD PTR [rax+rax*1+0x0]
191e:	00 00
1920:	83 e3 fc             	and    ebx,0xfffffffc
1923:	83 cb 02             	or     ebx,0x2
1926:	e9 05 ff ff ff       	jmp    1830 <main+0x70>
192b:	0f 1f 44 00 00       	nop    DWORD PTR [rax+rax*1+0x0]
1930:	c6 05 d9 86 20 00 00 	mov    BYTE PTR [rip+0x2086d9],0x0        # 20a010 <verbose>
1937:	e9 f4 fe ff ff       	jmp    1830 <main+0x70>
193c:	0f 1f 40 00          	nop    DWORD PTR [rax+0x0]
1940:	c6 05 b9 87 20 00 01 	mov    BYTE PTR [rip+0x2087b9],0x1        # 20a100 <use_nuls>
1947:	e9 e4 fe ff ff       	jmp    1830 <main+0x70>
194c:	0f 1f 40 00          	nop    DWORD PTR [rax+0x0]
1950:	83 e3 fb             	and    ebx,0xfffffffb
1953:	c6 05 a7 87 20 00 00 	mov    BYTE PTR [rip+0x2087a7],0x0        # 20a101 <logical>
195a:	e9 d1 fe ff ff       	jmp    1830 <main+0x70>
195f:	90                   	nop
1960:	83 cb 04             	or     ebx,0x4
1963:	c6 05 97 87 20 00 01 	mov    BYTE PTR [rip+0x208797],0x1        # 20a101 <logical>
196a:	e9 c1 fe ff ff       	jmp    1830 <main+0x70>
196f:	90                   	nop
1970:	4c 8b 3d 41 87 20 00 	mov    r15,QWORD PTR [rip+0x208741]        # 20a0b8 <optarg@@GLIBC_2.2.5>
1977:	e9 b4 fe ff ff       	jmp    1830 <main+0x70>
197c:	44 39 25 2d 87 20 00 	cmp    DWORD PTR [rip+0x20872d],r12d        # 20a0b0 <optind@@GLIBC_2.2.5>
1983:	0f 8d 70 02 00 00    	jge    1bf9 <main+0x439>
1989:	41 89 dd             	mov    r13d,ebx
198c:	41 83 e5 03          	and    r13d,0x3
1990:	4d 85 f6             	test   r14,r14
1993:	0f 84 80 01 00 00    	je     1b19 <main+0x359>
1999:	4d 85 ff             	test   r15,r15
199c:	0f 85 77 01 00 00    	jne    1b19 <main+0x359>
19a2:	4d 89 f7             	mov    r15,r14
19a5:	89 de                	mov    esi,ebx
19a7:	4c 89 ff             	mov    rdi,r15
19aa:	e8 81 04 00 00       	call   1e30 <realpath_canon>
19af:	48 85 c0             	test   rax,rax
19b2:	48 89 05 3f 87 20 00 	mov    QWORD PTR [rip+0x20873f],rax        # 20a0f8 <can_relative_to>
19b9:	0f 84 65 02 00 00    	je     1c24 <main+0x464>
19bf:	45 85 ed             	test   r13d,r13d
19c2:	0f 84 90 01 00 00    	je     1b58 <main+0x398>
19c8:	4d 39 fe             	cmp    r14,r15
19cb:	0f 84 74 01 00 00    	je     1b45 <main+0x385>
19d1:	4d 85 f6             	test   r14,r14
19d4:	74 40                	je     1a16 <main+0x256>
19d6:	89 de                	mov    esi,ebx
19d8:	4c 89 f7             	mov    rdi,r14
19db:	e8 50 04 00 00       	call   1e30 <realpath_canon>
19e0:	48 85 c0             	test   rax,rax
19e3:	49 89 c7             	mov    r15,rax
19e6:	0f 84 67 02 00 00    	je     1c53 <main+0x493>
19ec:	45 85 ed             	test   r13d,r13d
19ef:	0f 84 9d 01 00 00    	je     1b92 <main+0x3d2>
19f5:	4c 8b 2d fc 86 20 00 	mov    r13,QWORD PTR [rip+0x2086fc]        # 20a0f8 <can_relative_to>
19fc:	4c 89 ff             	mov    rdi,r15
19ff:	4c 89 ee             	mov    rsi,r13
1a02:	e8 99 03 00 00       	call   1da0 <path_prefix>
1a07:	84 c0                	test   al,al
1a09:	0f 84 bd 01 00 00    	je     1bcc <main+0x40c>
1a0f:	4c 89 3d da 86 20 00 	mov    QWORD PTR [rip+0x2086da],r15        # 20a0f0 <can_relative_base>
1a16:	8b 05 94 86 20 00    	mov    eax,DWORD PTR [rip+0x208694]        # 20a0b0 <optind@@GLIBC_2.2.5>
1a1c:	41 bd 01 00 00 00    	mov    r13d,0x1
1a22:	44 39 e0             	cmp    eax,r12d
1a25:	0f 8c 93 00 00 00    	jl     1abe <main+0x2fe>
1a2b:	e9 f7 00 00 00       	jmp    1b27 <main+0x367>
1a30:	4c 8b 0d c1 86 20 00 	mov    r9,QWORD PTR [rip+0x2086c1]        # 20a0f8 <can_relative_to>
1a37:	4d 85 c9             	test   r9,r9
1a3a:	74 2b                	je     1a67 <main+0x2a7>
1a3c:	48 8b 3d ad 86 20 00 	mov    rdi,QWORD PTR [rip+0x2086ad]        # 20a0f0 <can_relative_base>
1a43:	48 85 ff             	test   rdi,rdi
1a46:	74 0c                	je     1a54 <main+0x294>
1a48:	48 89 c6             	mov    rsi,rax
1a4b:	e8 50 03 00 00       	call   1da0 <path_prefix>
1a50:	84 c0                	test   al,al
1a52:	74 13                	je     1a67 <main+0x2a7>
1a54:	31 c9                	xor    ecx,ecx
1a56:	31 d2                	xor    edx,edx
1a58:	4c 89 ce             	mov    rsi,r9
1a5b:	4c 89 f7             	mov    rdi,r14
1a5e:	e8 bd 08 00 00       	call   2320 <relpath>
1a63:	84 c0                	test   al,al
1a65:	75 0f                	jne    1a76 <main+0x2b6>
1a67:	48 8b 35 3a 86 20 00 	mov    rsi,QWORD PTR [rip+0x20863a]        # 20a0a8 <stdout@@GLIBC_2.2.5>
1a6e:	4c 89 f7             	mov    rdi,r14
1a71:	e8 ca fb ff ff       	call   1640 <fputs_unlocked@plt>
1a76:	80 3d 83 86 20 00 01 	cmp    BYTE PTR [rip+0x208683],0x1        # 20a100 <use_nuls>
1a7d:	48 8b 3d 24 86 20 00 	mov    rdi,QWORD PTR [rip+0x208624]        # 20a0a8 <stdout@@GLIBC_2.2.5>
1a84:	48 8b 47 28          	mov    rax,QWORD PTR [rdi+0x28]
1a88:	19 f6                	sbb    esi,esi
1a8a:	83 e6 0a             	and    esi,0xa
1a8d:	48 3b 47 30          	cmp    rax,QWORD PTR [rdi+0x30]
1a91:	0f 83 a4 00 00 00    	jae    1b3b <main+0x37b>
1a97:	48 8d 50 01          	lea    rdx,[rax+0x1]
1a9b:	48 89 57 28          	mov    QWORD PTR [rdi+0x28],rdx
1a9f:	40 88 30             	mov    BYTE PTR [rax],sil
1aa2:	4c 89 f7             	mov    rdi,r14
1aa5:	e8 06 fa ff ff       	call   14b0 <free@plt>
1aaa:	8b 05 00 86 20 00    	mov    eax,DWORD PTR [rip+0x208600]        # 20a0b0 <optind@@GLIBC_2.2.5>
1ab0:	83 c0 01             	add    eax,0x1
1ab3:	44 39 e0             	cmp    eax,r12d
1ab6:	89 05 f4 85 20 00    	mov    DWORD PTR [rip+0x2085f4],eax        # 20a0b0 <optind@@GLIBC_2.2.5>
1abc:	7d 69                	jge    1b27 <main+0x367>
1abe:	48 98                	cdqe
1ac0:	89 de                	mov    esi,ebx
1ac2:	4c 8b 7c c5 00       	mov    r15,QWORD PTR [rbp+rax*8+0x0]
1ac7:	4c 89 ff             	mov    rdi,r15
1aca:	e8 61 03 00 00       	call   1e30 <realpath_canon>
1acf:	48 85 c0             	test   rax,rax
1ad2:	49 89 c6             	mov    r14,rax
1ad5:	0f 85 55 ff ff ff    	jne    1a30 <main+0x270>
1adb:	44 0f b6 2d 2d 85 20 	movzx  r13d,BYTE PTR [rip+0x20852d]        # 20a010 <verbose>
1ae2:	00
1ae3:	45 84 ed             	test   r13b,r13b
1ae6:	74 c2                	je     1aaa <main+0x2ea>
1ae8:	4c 89 fa             	mov    rdx,r15
1aeb:	be 03 00 00 00       	mov    esi,0x3
1af0:	31 ff                	xor    edi,edi
1af2:	e8 59 41 00 00       	call   5c50 <quotearg_n_style_colon>
1af7:	49 89 c5             	mov    r13,rax
1afa:	e8 d1 f9 ff ff       	call   14d0 <__errno_location@plt>
1aff:	8b 30                	mov    esi,DWORD PTR [rax]
1b01:	48 8d 15 05 5a 00 00 	lea    rdx,[rip+0x5a05]        # 750d <_IO_stdin_used+0x5cd>
1b08:	4c 89 e9             	mov    rcx,r13
1b0b:	31 ff                	xor    edi,edi
1b0d:	31 c0                	xor    eax,eax
1b0f:	45 31 ed             	xor    r13d,r13d
1b12:	e8 09 fc ff ff       	call   1720 <error@plt>
1b17:	eb 91                	jmp    1aaa <main+0x2ea>
1b19:	4d 85 ff             	test   r15,r15
1b1c:	0f 84 a6 fe ff ff    	je     19c8 <main+0x208>
1b22:	e9 7e fe ff ff       	jmp    19a5 <main+0x1e5>
1b27:	41 83 f5 01          	xor    r13d,0x1
1b2b:	5a                   	pop    rdx
1b2c:	41 0f b6 c5          	movzx  eax,r13b
1b30:	5b                   	pop    rbx
1b31:	5d                   	pop    rbp
1b32:	41 5c                	pop    r12
1b34:	41 5d                	pop    r13
1b36:	41 5e                	pop    r14
1b38:	41 5f                	pop    r15
1b3a:	c3                   	ret
1b3b:	e8 90 fa ff ff       	call   15d0 <__overflow@plt>
1b40:	e9 5d ff ff ff       	jmp    1aa2 <main+0x2e2>
1b45:	48 8b 05 ac 85 20 00 	mov    rax,QWORD PTR [rip+0x2085ac]        # 20a0f8 <can_relative_to>
1b4c:	48 89 05 9d 85 20 00 	mov    QWORD PTR [rip+0x20859d],rax        # 20a0f0 <can_relative_base>
1b53:	e9 be fe ff ff       	jmp    1a16 <main+0x256>
1b58:	48 89 c7             	mov    rdi,rax
1b5b:	e8 20 03 00 00       	call   1e80 <isdir>
1b60:	84 c0                	test   al,al
1b62:	0f 85 60 fe ff ff    	jne    19c8 <main+0x208>
1b68:	4c 89 fa             	mov    rdx,r15
1b6b:	be 03 00 00 00       	mov    esi,0x3
1b70:	31 ff                	xor    edi,edi
1b72:	e8 d9 40 00 00       	call   5c50 <quotearg_n_style_colon>
1b77:	48 8d 15 8f 59 00 00 	lea    rdx,[rip+0x598f]        # 750d <_IO_stdin_used+0x5cd>
1b7e:	48 89 c1             	mov    rcx,rax
1b81:	be 14 00 00 00       	mov    esi,0x14
1b86:	bf 01 00 00 00       	mov    edi,0x1
1b8b:	31 c0                	xor    eax,eax
1b8d:	e8 8e fb ff ff       	call   1720 <error@plt>
1b92:	48 89 c7             	mov    rdi,rax
1b95:	e8 e6 02 00 00       	call   1e80 <isdir>
1b9a:	84 c0                	test   al,al
1b9c:	0f 85 53 fe ff ff    	jne    19f5 <main+0x235>
1ba2:	4c 89 f2             	mov    rdx,r14
1ba5:	be 03 00 00 00       	mov    esi,0x3
1baa:	31 ff                	xor    edi,edi
1bac:	e8 9f 40 00 00       	call   5c50 <quotearg_n_style_colon>
1bb1:	48 8d 15 55 59 00 00 	lea    rdx,[rip+0x5955]        # 750d <_IO_stdin_used+0x5cd>
1bb8:	48 89 c1             	mov    rcx,rax
1bbb:	be 14 00 00 00       	mov    esi,0x14
1bc0:	bf 01 00 00 00       	mov    edi,0x1
1bc5:	31 c0                	xor    eax,eax
1bc7:	e8 54 fb ff ff       	call   1720 <error@plt>
1bcc:	4c 89 ff             	mov    rdi,r15
1bcf:	e8 dc f8 ff ff       	call   14b0 <free@plt>
1bd4:	4c 89 2d 15 85 20 00 	mov    QWORD PTR [rip+0x208515],r13        # 20a0f0 <can_relative_base>
1bdb:	48 c7 05 12 85 20 00 	mov    QWORD PTR [rip+0x208512],0x0        # 20a0f8 <can_relative_to>
1be2:	00 00 00 00
1be6:	e9 2b fe ff ff       	jmp    1a16 <main+0x256>
1beb:	3d 7e ff ff ff       	cmp    eax,0xffffff7e
1bf0:	75 28                	jne    1c1a <main+0x45a>
1bf2:	31 ff                	xor    edi,edi
1bf4:	e8 37 03 00 00       	call   1f30 <usage>
1bf9:	48 8d 35 2d 54 00 00 	lea    rsi,[rip+0x542d]        # 702d <_IO_stdin_used+0xed>
1c00:	ba 05 00 00 00       	mov    edx,0x5
1c05:	31 ff                	xor    edi,edi
1c07:	e8 44 f9 ff ff       	call   1550 <dcgettext@plt>
1c0c:	31 f6                	xor    esi,esi
1c0e:	48 89 c2             	mov    rdx,rax
1c11:	31 ff                	xor    edi,edi
1c13:	31 c0                	xor    eax,eax
1c15:	e8 06 fb ff ff       	call   1720 <error@plt>
1c1a:	bf 01 00 00 00       	mov    edi,0x1
1c1f:	e8 0c 03 00 00       	call   1f30 <usage>
1c24:	4c 89 fa             	mov    rdx,r15
1c27:	be 03 00 00 00       	mov    esi,0x3
1c2c:	31 ff                	xor    edi,edi
1c2e:	e8 1d 40 00 00       	call   5c50 <quotearg_n_style_colon>
1c33:	48 89 c3             	mov    rbx,rax
1c36:	e8 95 f8 ff ff       	call   14d0 <__errno_location@plt>
1c3b:	8b 30                	mov    esi,DWORD PTR [rax]
1c3d:	48 8d 15 c9 58 00 00 	lea    rdx,[rip+0x58c9]        # 750d <_IO_stdin_used+0x5cd>
1c44:	48 89 d9             	mov    rcx,rbx
1c47:	bf 01 00 00 00       	mov    edi,0x1
1c4c:	31 c0                	xor    eax,eax
1c4e:	e8 cd fa ff ff       	call   1720 <error@plt>
1c53:	4c 89 f2             	mov    rdx,r14
1c56:	be 03 00 00 00       	mov    esi,0x3
1c5b:	31 ff                	xor    edi,edi
1c5d:	e8 ee 3f 00 00       	call   5c50 <quotearg_n_style_colon>
1c62:	48 89 c3             	mov    rbx,rax
1c65:	e8 66 f8 ff ff       	call   14d0 <__errno_location@plt>
1c6a:	8b 30                	mov    esi,DWORD PTR [rax]
1c6c:	48 8d 15 9a 58 00 00 	lea    rdx,[rip+0x589a]        # 750d <_IO_stdin_used+0x5cd>
1c73:	48 89 d9             	mov    rcx,rbx
1c76:	bf 01 00 00 00       	mov    edi,0x1
1c7b:	31 c0                	xor    eax,eax
1c7d:	e8 9e fa ff ff       	call   1720 <error@plt>
1c82:	66 2e 0f 1f 84 00 00 	nop    WORD PTR cs:[rax+rax*1+0x0]
1c89:	00 00 00
1c8c:	0f 1f 40 00          	nop    DWORD PTR [rax+0x0]

0000000000001c90 <_start>:
1c90:	31 ed                	xor    ebp,ebp
1c92:	49 89 d1             	mov    r9,rdx
1c95:	5e                   	pop    rsi
1c96:	48 89 e2             	mov    rdx,rsp
1c99:	48 83 e4 f0          	and    rsp,0xfffffffffffffff0
1c9d:	50                   	push   rax
1c9e:	54                   	push   rsp
1c9f:	4c 8d 05 6a 52 00 00 	lea    r8,[rip+0x526a]        # 6f10 <__libc_csu_fini>
1ca6:	48 8d 0d f3 51 00 00 	lea    rcx,[rip+0x51f3]        # 6ea0 <__libc_csu_init>
1cad:	48 8d 3d 0c fb ff ff 	lea    rdi,[rip+0xfffffffffffffb0c]        # 17c0 <main>
1cb4:	ff 15 0e 83 20 00    	call   QWORD PTR [rip+0x20830e]        # 209fc8 <__libc_start_main@GLIBC_2.2.5>
1cba:	f4                   	hlt
1cbb:	0f 1f 44 00 00       	nop    DWORD PTR [rax+rax*1+0x0]

0000000000001cc0 <deregister_tm_clones>:
1cc0:	48 8d 3d d9 83 20 00 	lea    rdi,[rip+0x2083d9]        # 20a0a0 <__progname@@GLIBC_2.2.5>
1cc7:	55                   	push   rbp
1cc8:	48 8d 05 d1 83 20 00 	lea    rax,[rip+0x2083d1]        # 20a0a0 <__progname@@GLIBC_2.2.5>
1ccf:	48 39 f8             	cmp    rax,rdi
1cd2:	48 89 e5             	mov    rbp,rsp
1cd5:	74 19                	je     1cf0 <deregister_tm_clones+0x30>
1cd7:	48 8b 05 e2 82 20 00 	mov    rax,QWORD PTR [rip+0x2082e2]        # 209fc0 <_ITM_deregisterTMCloneTable>
1cde:	48 85 c0             	test   rax,rax
1ce1:	74 0d                	je     1cf0 <deregister_tm_clones+0x30>
1ce3:	5d                   	pop    rbp
1ce4:	ff e0                	jmp    rax
1ce6:	66 2e 0f 1f 84 00 00 	nop    WORD PTR cs:[rax+rax*1+0x0]
1ced:	00 00 00
1cf0:	5d                   	pop    rbp
1cf1:	c3                   	ret
1cf2:	0f 1f 40 00          	nop    DWORD PTR [rax+0x0]
1cf6:	66 2e 0f 1f 84 00 00 	nop    WORD PTR cs:[rax+rax*1+0x0]
1cfd:	00 00 00

0000000000001d00 <register_tm_clones>:
1d00:	48 8d 3d 99 83 20 00 	lea    rdi,[rip+0x208399]        # 20a0a0 <__progname@@GLIBC_2.2.5>
1d07:	48 8d 35 92 83 20 00 	lea    rsi,[rip+0x208392]        # 20a0a0 <__progname@@GLIBC_2.2.5>
1d0e:	55                   	push   rbp
1d0f:	48 29 fe             	sub    rsi,rdi
1d12:	48 89 e5             	mov    rbp,rsp
1d15:	48 c1 fe 03          	sar    rsi,0x3
1d19:	48 89 f0             	mov    rax,rsi
1d1c:	48 c1 e8 3f          	shr    rax,0x3f
1d20:	48 01 c6             	add    rsi,rax
1d23:	48 d1 fe             	sar    rsi,1
1d26:	74 18                	je     1d40 <register_tm_clones+0x40>
1d28:	48 8b 05 a9 82 20 00 	mov    rax,QWORD PTR [rip+0x2082a9]        # 209fd8 <_ITM_registerTMCloneTable>
1d2f:	48 85 c0             	test   rax,rax
1d32:	74 0c                	je     1d40 <register_tm_clones+0x40>
1d34:	5d                   	pop    rbp
1d35:	ff e0                	jmp    rax
1d37:	66 0f 1f 84 00 00 00 	nop    WORD PTR [rax+rax*1+0x0]
1d3e:	00 00
1d40:	5d                   	pop    rbp
1d41:	c3                   	ret
1d42:	0f 1f 40 00          	nop    DWORD PTR [rax+0x0]
1d46:	66 2e 0f 1f 84 00 00 	nop    WORD PTR cs:[rax+rax*1+0x0]
1d4d:	00 00 00

0000000000001d50 <__do_global_dtors_aux>:
1d50:	80 3d 91 83 20 00 00 	cmp    BYTE PTR [rip+0x208391],0x0        # 20a0e8 <completed.7697>
1d57:	75 2f                	jne    1d88 <__do_global_dtors_aux+0x38>
1d59:	48 83 3d 7f 82 20 00 	cmp    QWORD PTR [rip+0x20827f],0x0        # 209fe0 <__cxa_finalize@GLIBC_2.2.5>
1d60:	00
1d61:	55                   	push   rbp
1d62:	48 89 e5             	mov    rbp,rsp
1d65:	74 0c                	je     1d73 <__do_global_dtors_aux+0x23>
1d67:	48 8b 3d 9a 82 20 00 	mov    rdi,QWORD PTR [rip+0x20829a]        # 20a008 <__dso_handle>
1d6e:	e8 3d fa ff ff       	call   17b0 <__cxa_finalize@plt>
1d73:	e8 48 ff ff ff       	call   1cc0 <deregister_tm_clones>
1d78:	c6 05 69 83 20 00 01 	mov    BYTE PTR [rip+0x208369],0x1        # 20a0e8 <completed.7697>
1d7f:	5d                   	pop    rbp
1d80:	c3                   	ret
1d81:	0f 1f 80 00 00 00 00 	nop    DWORD PTR [rax+0x0]
1d88:	f3 c3                	repz ret
1d8a:	66 0f 1f 44 00 00    	nop    WORD PTR [rax+rax*1+0x0]

0000000000001d90 <frame_dummy>:
1d90:	55                   	push   rbp
1d91:	48 89 e5             	mov    rbp,rsp
1d94:	5d                   	pop    rbp
1d95:	e9 66 ff ff ff       	jmp    1d00 <register_tm_clones>
1d9a:	66 0f 1f 44 00 00    	nop    WORD PTR [rax+rax*1+0x0]

0000000000001da0 <path_prefix>:
1da0:	0f b6 47 01          	movzx  eax,BYTE PTR [rdi+0x1]
1da4:	84 c0                	test   al,al
1da6:	74 58                	je     1e00 <path_prefix+0x60>
1da8:	3c 2f                	cmp    al,0x2f
1daa:	74 64                	je     1e10 <path_prefix+0x70>
1dac:	0f b6 56 01          	movzx  edx,BYTE PTR [rsi+0x1]
1db0:	38 d0                	cmp    al,dl
1db2:	0f 95 c0             	setne  al
1db5:	84 d2                	test   dl,dl
1db7:	0f 94 c2             	sete   dl
1dba:	08 d0                	or     al,dl
1dbc:	75 6a                	jne    1e28 <path_prefix+0x88>
1dbe:	48 83 c7 01          	add    rdi,0x1
1dc2:	48 83 c6 01          	add    rsi,0x1
1dc6:	eb 13                	jmp    1ddb <path_prefix+0x3b>
1dc8:	0f 1f 84 00 00 00 00 	nop    DWORD PTR [rax+rax*1+0x0]
1dcf:	00
1dd0:	0f b6 0e             	movzx  ecx,BYTE PTR [rsi]
1dd3:	84 c9                	test   cl,cl
1dd5:	74 23                	je     1dfa <path_prefix+0x5a>
1dd7:	38 ca                	cmp    dl,cl
1dd9:	75 45                	jne    1e20 <path_prefix+0x80>
1ddb:	48 83 c7 01          	add    rdi,0x1
1ddf:	0f b6 17             	movzx  edx,BYTE PTR [rdi]
1de2:	48 83 c6 01          	add    rsi,0x1
1de6:	84 d2                	test   dl,dl
1de8:	75 e6                	jne    1dd0 <path_prefix+0x30>
1dea:	0f b6 16             	movzx  edx,BYTE PTR [rsi]
1ded:	80 fa 2f             	cmp    dl,0x2f
1df0:	0f 94 c0             	sete   al
1df3:	84 d2                	test   dl,dl
1df5:	0f 94 c2             	sete   dl
1df8:	09 d0                	or     eax,edx
1dfa:	f3 c3                	repz ret
1dfc:	0f 1f 40 00          	nop    DWORD PTR [rax+0x0]
1e00:	80 7e 01 2f          	cmp    BYTE PTR [rsi+0x1],0x2f
1e04:	0f 95 c0             	setne  al
1e07:	c3                   	ret
1e08:	0f 1f 84 00 00 00 00 	nop    DWORD PTR [rax+rax*1+0x0]
1e0f:	00
1e10:	80 7f 02 00          	cmp    BYTE PTR [rdi+0x2],0x0
1e14:	75 96                	jne    1dac <path_prefix+0xc>
1e16:	80 7e 01 2f          	cmp    BYTE PTR [rsi+0x1],0x2f
1e1a:	0f 94 c0             	sete   al
1e1d:	c3                   	ret
1e1e:	66 90                	xchg   ax,ax
1e20:	f3 c3                	repz ret
1e22:	66 0f 1f 44 00 00    	nop    WORD PTR [rax+rax*1+0x0]
1e28:	31 c0                	xor    eax,eax
1e2a:	c3                   	ret
1e2b:	0f 1f 44 00 00       	nop    DWORD PTR [rax+rax*1+0x0]

0000000000001e30 <realpath_canon>:
1e30:	55                   	push   rbp
1e31:	53                   	push   rbx
1e32:	89 f5                	mov    ebp,esi
1e34:	48 83 ec 08          	sub    rsp,0x8
1e38:	e8 23 07 00 00       	call   2560 <canonicalize_filename_mode>
1e3d:	80 3d bd 82 20 00 00 	cmp    BYTE PTR [rip+0x2082bd],0x0        # 20a101 <logical>
1e44:	48 89 c3             	mov    rbx,rax
1e47:	74 20                	je     1e69 <realpath_canon+0x39>
1e49:	48 85 c0             	test   rax,rax
1e4c:	74 1b                	je     1e69 <realpath_canon+0x39>
1e4e:	89 ee                	mov    esi,ebp
1e50:	48 89 c7             	mov    rdi,rax
1e53:	83 e6 fb             	and    esi,0xfffffffb
1e56:	e8 05 07 00 00       	call   2560 <canonicalize_filename_mode>
1e5b:	48 89 c5             	mov    rbp,rax
1e5e:	48 89 df             	mov    rdi,rbx
1e61:	48 89 eb             	mov    rbx,rbp
1e64:	e8 47 f6 ff ff       	call   14b0 <free@plt>
1e69:	48 83 c4 08          	add    rsp,0x8
1e6d:	48 89 d8             	mov    rax,rbx
1e70:	5b                   	pop    rbx
1e71:	5d                   	pop    rbp
1e72:	c3                   	ret
1e73:	0f 1f 00             	nop    DWORD PTR [rax]
1e76:	66 2e 0f 1f 84 00 00 	nop    WORD PTR cs:[rax+rax*1+0x0]
1e7d:	00 00 00

0000000000001e80 <isdir>:
1e80:	55                   	push   rbp
1e81:	53                   	push   rbx
1e82:	48 89 fe             	mov    rsi,rdi
1e85:	48 89 fb             	mov    rbx,rdi
1e88:	bf 01 00 00 00       	mov    edi,0x1
1e8d:	48 81 ec a8 00 00 00 	sub    rsp,0xa8
1e94:	48 89 e2             	mov    rdx,rsp
1e97:	64 48 8b 04 25 28 00 	mov    rax,QWORD PTR fs:0x28
1e9e:	00 00
1ea0:	48 89 84 24 98 00 00 	mov    QWORD PTR [rsp+0x98],rax
1ea7:	00
1ea8:	31 c0                	xor    eax,eax
1eaa:	e8 e1 f7 ff ff       	call   1690 <__xstat@plt>
1eaf:	85 c0                	test   eax,eax
1eb1:	75 2e                	jne    1ee1 <isdir+0x61>
1eb3:	8b 44 24 18          	mov    eax,DWORD PTR [rsp+0x18]
1eb7:	25 00 f0 00 00       	and    eax,0xf000
1ebc:	3d 00 40 00 00       	cmp    eax,0x4000
1ec1:	0f 94 c0             	sete   al
1ec4:	48 8b 8c 24 98 00 00 	mov    rcx,QWORD PTR [rsp+0x98]
1ecb:	00
1ecc:	64 48 33 0c 25 28 00 	xor    rcx,QWORD PTR fs:0x28
1ed3:	00 00
1ed5:	75 49                	jne    1f20 <isdir+0xa0>
1ed7:	48 81 c4 a8 00 00 00 	add    rsp,0xa8
1ede:	5b                   	pop    rbx
1edf:	5d                   	pop    rbp
1ee0:	c3                   	ret
1ee1:	48 89 de             	mov    rsi,rbx
1ee4:	bf 04 00 00 00       	mov    edi,0x4
1ee9:	e8 62 3c 00 00       	call   5b50 <quotearg_style>
1eee:	48 8d 35 4f 50 00 00 	lea    rsi,[rip+0x504f]        # 6f44 <_IO_stdin_used+0x4>
1ef5:	ba 05 00 00 00       	mov    edx,0x5
1efa:	31 ff                	xor    edi,edi
1efc:	48 89 c5             	mov    rbp,rax
1eff:	e8 4c f6 ff ff       	call   1550 <dcgettext@plt>
1f04:	48 89 c3             	mov    rbx,rax
1f07:	e8 c4 f5 ff ff       	call   14d0 <__errno_location@plt>
1f0c:	8b 30                	mov    esi,DWORD PTR [rax]
1f0e:	48 89 e9             	mov    rcx,rbp
1f11:	48 89 da             	mov    rdx,rbx
1f14:	bf 01 00 00 00       	mov    edi,0x1
1f19:	31 c0                	xor    eax,eax
1f1b:	e8 00 f8 ff ff       	call   1720 <error@plt>
1f20:	e8 6b f6 ff ff       	call   1590 <__stack_chk_fail@plt>
1f25:	90                   	nop
1f26:	66 2e 0f 1f 84 00 00 	nop    WORD PTR cs:[rax+rax*1+0x0]
1f2d:	00 00 00

0000000000001f30 <usage>:
1f30:	41 55                	push   r13
1f32:	41 54                	push   r12
1f34:	ba 05 00 00 00       	mov    edx,0x5
1f39:	55                   	push   rbp
1f3a:	53                   	push   rbx
1f3b:	89 fd                	mov    ebp,edi
1f3d:	48 81 ec 88 00 00 00 	sub    rsp,0x88
1f44:	48 8b 1d cd 81 20 00 	mov    rbx,QWORD PTR [rip+0x2081cd]        # 20a118 <program_name>
1f4b:	64 48 8b 04 25 28 00 	mov    rax,QWORD PTR fs:0x28
1f52:	00 00
1f54:	48 89 44 24 78       	mov    QWORD PTR [rsp+0x78],rax
1f59:	31 c0                	xor    eax,eax
1f5b:	85 ff                	test   edi,edi
1f5d:	74 2e                	je     1f8d <usage+0x5d>
1f5f:	48 8d 35 5a 51 00 00 	lea    rsi,[rip+0x515a]        # 70c0 <_IO_stdin_used+0x180>
1f66:	31 ff                	xor    edi,edi
1f68:	e8 e3 f5 ff ff       	call   1550 <dcgettext@plt>
1f6d:	48 8b 3d 6c 81 20 00 	mov    rdi,QWORD PTR [rip+0x20816c]        # 20a0e0 <stderr@@GLIBC_2.2.5>
1f74:	48 89 c2             	mov    rdx,rax
1f77:	48 89 d9             	mov    rcx,rbx
1f7a:	be 01 00 00 00       	mov    esi,0x1
1f7f:	31 c0                	xor    eax,eax
1f81:	e8 ea f7 ff ff       	call   1770 <__fprintf_chk@plt>
1f86:	89 ef                	mov    edi,ebp
1f88:	e8 c3 f7 ff ff       	call   1750 <exit@plt>
1f8d:	48 8d 35 54 51 00 00 	lea    rsi,[rip+0x5154]        # 70e8 <_IO_stdin_used+0x1a8>
1f94:	31 ff                	xor    edi,edi
1f96:	e8 b5 f5 ff ff       	call   1550 <dcgettext@plt>
1f9b:	48 89 da             	mov    rdx,rbx
1f9e:	48 89 c6             	mov    rsi,rax
1fa1:	bf 01 00 00 00       	mov    edi,0x1
1fa6:	31 c0                	xor    eax,eax
1fa8:	e8 53 f7 ff ff       	call   1700 <__printf_chk@plt>
1fad:	48 8b 1d f4 80 20 00 	mov    rbx,QWORD PTR [rip+0x2080f4]        # 20a0a8 <stdout@@GLIBC_2.2.5>
1fb4:	48 8d 35 4d 51 00 00 	lea    rsi,[rip+0x514d]        # 7108 <_IO_stdin_used+0x1c8>
1fbb:	ba 05 00 00 00       	mov    edx,0x5
1fc0:	31 ff                	xor    edi,edi
1fc2:	e8 89 f5 ff ff       	call   1550 <dcgettext@plt>
1fc7:	48 89 de             	mov    rsi,rbx
1fca:	48 89 c7             	mov    rdi,rax
1fcd:	e8 6e f6 ff ff       	call   1640 <fputs_unlocked@plt>
1fd2:	48 8b 1d cf 80 20 00 	mov    rbx,QWORD PTR [rip+0x2080cf]        # 20a0a8 <stdout@@GLIBC_2.2.5>
1fd9:	48 8d 35 78 51 00 00 	lea    rsi,[rip+0x5178]        # 7158 <_IO_stdin_used+0x218>
1fe0:	ba 05 00 00 00       	mov    edx,0x5
1fe5:	31 ff                	xor    edi,edi
1fe7:	e8 64 f5 ff ff       	call   1550 <dcgettext@plt>
1fec:	48 89 de             	mov    rsi,rbx
1fef:	48 89 c7             	mov    rdi,rax
1ff2:	e8 49 f6 ff ff       	call   1640 <fputs_unlocked@plt>
1ff7:	48 8b 1d aa 80 20 00 	mov    rbx,QWORD PTR [rip+0x2080aa]        # 20a0a8 <stdout@@GLIBC_2.2.5>
1ffe:	48 8d 35 cb 53 00 00 	lea    rsi,[rip+0x53cb]        # 73d0 <_IO_stdin_used+0x490>
2005:	ba 05 00 00 00       	mov    edx,0x5
200a:	31 ff                	xor    edi,edi
200c:	e8 3f f5 ff ff       	call   1550 <dcgettext@plt>
2011:	48 89 de             	mov    rsi,rbx
2014:	48 89 c7             	mov    rdi,rax
2017:	e8 24 f6 ff ff       	call   1640 <fputs_unlocked@plt>
201c:	48 8b 1d 85 80 20 00 	mov    rbx,QWORD PTR [rip+0x208085]        # 20a0a8 <stdout@@GLIBC_2.2.5>
2023:	48 8d 35 d6 53 00 00 	lea    rsi,[rip+0x53d6]        # 7400 <_IO_stdin_used+0x4c0>
202a:	ba 05 00 00 00       	mov    edx,0x5
202f:	31 ff                	xor    edi,edi
2031:	e8 1a f5 ff ff       	call   1550 <dcgettext@plt>
2036:	48 89 de             	mov    rsi,rbx
2039:	48 89 c7             	mov    rdi,rax
203c:	48 8d 1d 10 4f 00 00 	lea    rbx,[rip+0x4f10]        # 6f53 <_IO_stdin_used+0x13>
2043:	e8 f8 f5 ff ff       	call   1640 <fputs_unlocked@plt>
2048:	48 8d 05 0d 4f 00 00 	lea    rax,[rip+0x4f0d]        # 6f5c <_IO_stdin_used+0x1c>
204f:	48 8d 0d 47 4f 00 00 	lea    rcx,[rip+0x4f47]        # 6f9d <_IO_stdin_used+0x5d>
2056:	48 c7 44 24 60 00 00 	mov    QWORD PTR [rsp+0x60],0x0
205d:	00 00
205f:	48 c7 44 24 68 00 00 	mov    QWORD PTR [rsp+0x68],0x0
2066:	00 00
2068:	48 89 e2             	mov    rdx,rsp
206b:	48 89 04 24          	mov    QWORD PTR [rsp],rax
206f:	48 8d 05 e8 4e 00 00 	lea    rax,[rip+0x4ee8]        # 6f5e <_IO_stdin_used+0x1e>
2076:	48 89 4c 24 30       	mov    QWORD PTR [rsp+0x30],rcx
207b:	48 8d 0d 25 4f 00 00 	lea    rcx,[rip+0x4f25]        # 6fa7 <_IO_stdin_used+0x67>
2082:	48 89 44 24 08       	mov    QWORD PTR [rsp+0x8],rax
2087:	48 8d 05 48 4f 00 00 	lea    rax,[rip+0x4f48]        # 6fd6 <_IO_stdin_used+0x96>
208e:	48 89 4c 24 40       	mov    QWORD PTR [rsp+0x40],rcx
2093:	48 8d 0d 17 4f 00 00 	lea    rcx,[rip+0x4f17]        # 6fb1 <_IO_stdin_used+0x71>
209a:	48 89 44 24 10       	mov    QWORD PTR [rsp+0x10],rax
209f:	48 8d 05 c8 4e 00 00 	lea    rax,[rip+0x4ec8]        # 6f6e <_IO_stdin_used+0x2e>
20a6:	48 89 4c 24 50       	mov    QWORD PTR [rsp+0x50],rcx
20ab:	48 89 44 24 18       	mov    QWORD PTR [rsp+0x18],rax
20b0:	48 8d 05 cd 4e 00 00 	lea    rax,[rip+0x4ecd]        # 6f84 <_IO_stdin_used+0x44>
20b7:	48 89 44 24 20       	mov    QWORD PTR [rsp+0x20],rax
20bc:	48 8d 05 cb 4e 00 00 	lea    rax,[rip+0x4ecb]        # 6f8e <_IO_stdin_used+0x4e>
20c3:	48 89 44 24 28       	mov    QWORD PTR [rsp+0x28],rax
20c8:	48 89 44 24 38       	mov    QWORD PTR [rsp+0x38],rax
20cd:	48 89 44 24 48       	mov    QWORD PTR [rsp+0x48],rax
20d2:	48 89 44 24 58       	mov    QWORD PTR [rsp+0x58],rax
20d7:	66 0f 1f 84 00 00 00 	nop    WORD PTR [rax+rax*1+0x0]
20de:	00 00
20e0:	48 83 c2 10          	add    rdx,0x10
20e4:	48 8b 3a             	mov    rdi,QWORD PTR [rdx]
20e7:	48 85 ff             	test   rdi,rdi
20ea:	74 13                	je     20ff <usage+0x1cf>
20ec:	b9 09 00 00 00       	mov    ecx,0x9
20f1:	48 89 de             	mov    rsi,rbx
20f4:	f3 a6                	repz cmps BYTE PTR ds:[rsi],BYTE PTR es:[rdi]
20f6:	0f 97 c0             	seta   al
20f9:	1c 00                	sbb    al,0x0
20fb:	84 c0                	test   al,al
20fd:	75 e1                	jne    20e0 <usage+0x1b0>
20ff:	4c 8b 62 08          	mov    r12,QWORD PTR [rdx+0x8]
2103:	31 ff                	xor    edi,edi
2105:	ba 05 00 00 00       	mov    edx,0x5
210a:	48 8d 35 aa 4e 00 00 	lea    rsi,[rip+0x4eaa]        # 6fbb <_IO_stdin_used+0x7b>
2111:	4d 85 e4             	test   r12,r12
2114:	0f 84 c1 00 00 00    	je     21db <usage+0x2ab>
211a:	e8 31 f4 ff ff       	call   1550 <dcgettext@plt>
211f:	48 8d 0d 12 53 00 00 	lea    rcx,[rip+0x5312]        # 7438 <_IO_stdin_used+0x4f8>
2126:	48 8d 15 a5 4e 00 00 	lea    rdx,[rip+0x4ea5]        # 6fd2 <_IO_stdin_used+0x92>
212d:	48 89 c6             	mov    rsi,rax
2130:	bf 01 00 00 00       	mov    edi,0x1
2135:	31 c0                	xor    eax,eax
2137:	e8 c4 f5 ff ff       	call   1700 <__printf_chk@plt>
213c:	31 f6                	xor    esi,esi
213e:	bf 05 00 00 00       	mov    edi,0x5
2143:	e8 a8 f5 ff ff       	call   16f0 <setlocale@plt>
2148:	48 85 c0             	test   rax,rax
214b:	74 1c                	je     2169 <usage+0x239>
214d:	48 8d 35 8c 4e 00 00 	lea    rsi,[rip+0x4e8c]        # 6fe0 <_IO_stdin_used+0xa0>
2154:	ba 03 00 00 00       	mov    edx,0x3
2159:	48 89 c7             	mov    rdi,rax
215c:	e8 7f f3 ff ff       	call   14e0 <strncmp@plt>
2161:	85 c0                	test   eax,eax
2163:	0f 85 07 01 00 00    	jne    2270 <usage+0x340>
2169:	48 8d 35 74 4e 00 00 	lea    rsi,[rip+0x4e74]        # 6fe4 <_IO_stdin_used+0xa4>
2170:	31 ff                	xor    edi,edi
2172:	ba 05 00 00 00       	mov    edx,0x5
2177:	e8 d4 f3 ff ff       	call   1550 <dcgettext@plt>
217c:	48 8d 0d d0 4d 00 00 	lea    rcx,[rip+0x4dd0]        # 6f53 <_IO_stdin_used+0x13>
2183:	48 8d 15 ae 52 00 00 	lea    rdx,[rip+0x52ae]        # 7438 <_IO_stdin_used+0x4f8>
218a:	48 89 c6             	mov    rsi,rax
218d:	bf 01 00 00 00       	mov    edi,0x1
2192:	31 c0                	xor    eax,eax
2194:	e8 67 f5 ff ff       	call   1700 <__printf_chk@plt>
2199:	49 39 dc             	cmp    r12,rbx
219c:	48 8d 0d d5 4d 00 00 	lea    rcx,[rip+0x4dd5]        # 6f78 <_IO_stdin_used+0x38>
21a3:	48 8d 1d 97 59 00 00 	lea    rbx,[rip+0x5997]        # 7b41 <quoting_style_vals+0x81>
21aa:	48 0f 44 d9          	cmove  rbx,rcx
21ae:	48 8d 35 f3 52 00 00 	lea    rsi,[rip+0x52f3]        # 74a8 <_IO_stdin_used+0x568>
21b5:	31 ff                	xor    edi,edi
21b7:	ba 05 00 00 00       	mov    edx,0x5
21bc:	e8 8f f3 ff ff       	call   1550 <dcgettext@plt>
21c1:	48 89 d9             	mov    rcx,rbx
21c4:	48 89 c6             	mov    rsi,rax
21c7:	4c 89 e2             	mov    rdx,r12
21ca:	bf 01 00 00 00       	mov    edi,0x1
21cf:	31 c0                	xor    eax,eax
21d1:	e8 2a f5 ff ff       	call   1700 <__printf_chk@plt>
21d6:	e9 ab fd ff ff       	jmp    1f86 <usage+0x56>
21db:	e8 70 f3 ff ff       	call   1550 <dcgettext@plt>
21e0:	48 8d 0d 51 52 00 00 	lea    rcx,[rip+0x5251]        # 7438 <_IO_stdin_used+0x4f8>
21e7:	48 8d 15 e4 4d 00 00 	lea    rdx,[rip+0x4de4]        # 6fd2 <_IO_stdin_used+0x92>
21ee:	48 89 c6             	mov    rsi,rax
21f1:	bf 01 00 00 00       	mov    edi,0x1
21f6:	31 c0                	xor    eax,eax
21f8:	e8 03 f5 ff ff       	call   1700 <__printf_chk@plt>
21fd:	31 f6                	xor    esi,esi
21ff:	bf 05 00 00 00       	mov    edi,0x5
2204:	e8 e7 f4 ff ff       	call   16f0 <setlocale@plt>
2209:	48 85 c0             	test   rax,rax
220c:	74 18                	je     2226 <usage+0x2f6>
220e:	48 8d 35 cb 4d 00 00 	lea    rsi,[rip+0x4dcb]        # 6fe0 <_IO_stdin_used+0xa0>
2215:	ba 03 00 00 00       	mov    edx,0x3
221a:	48 89 c7             	mov    rdi,rax
221d:	e8 be f2 ff ff       	call   14e0 <strncmp@plt>
2222:	85 c0                	test   eax,eax
2224:	75 43                	jne    2269 <usage+0x339>
2226:	48 8d 35 b7 4d 00 00 	lea    rsi,[rip+0x4db7]        # 6fe4 <_IO_stdin_used+0xa4>
222d:	ba 05 00 00 00       	mov    edx,0x5
2232:	31 ff                	xor    edi,edi
2234:	4c 8d 25 18 4d 00 00 	lea    r12,[rip+0x4d18]        # 6f53 <_IO_stdin_used+0x13>
223b:	48 8d 1d 36 4d 00 00 	lea    rbx,[rip+0x4d36]        # 6f78 <_IO_stdin_used+0x38>
2242:	e8 09 f3 ff ff       	call   1550 <dcgettext@plt>
2247:	48 8d 0d 05 4d 00 00 	lea    rcx,[rip+0x4d05]        # 6f53 <_IO_stdin_used+0x13>
224e:	48 8d 15 e3 51 00 00 	lea    rdx,[rip+0x51e3]        # 7438 <_IO_stdin_used+0x4f8>
2255:	48 89 c6             	mov    rsi,rax
2258:	bf 01 00 00 00       	mov    edi,0x1
225d:	31 c0                	xor    eax,eax
225f:	e8 9c f4 ff ff       	call   1700 <__printf_chk@plt>
2264:	e9 45 ff ff ff       	jmp    21ae <usage+0x27e>
2269:	4c 8d 25 e3 4c 00 00 	lea    r12,[rip+0x4ce3]        # 6f53 <_IO_stdin_used+0x13>
2270:	4c 8b 2d 31 7e 20 00 	mov    r13,QWORD PTR [rip+0x207e31]        # 20a0a8 <stdout@@GLIBC_2.2.5>
2277:	48 8d 35 e2 51 00 00 	lea    rsi,[rip+0x51e2]        # 7460 <_IO_stdin_used+0x520>
227e:	31 ff                	xor    edi,edi
2280:	ba 05 00 00 00       	mov    edx,0x5
2285:	e8 c6 f2 ff ff       	call   1550 <dcgettext@plt>
228a:	4c 89 ee             	mov    rsi,r13
228d:	48 89 c7             	mov    rdi,rax
2290:	e8 ab f3 ff ff       	call   1640 <fputs_unlocked@plt>
2295:	e9 cf fe ff ff       	jmp    2169 <usage+0x239>
229a:	66 0f 1f 44 00 00    	nop    WORD PTR [rax+rax*1+0x0]

00000000000022a0 <buffer_or_output>:
22a0:	41 56                	push   r14
22a2:	41 55                	push   r13
22a4:	49 89 fe             	mov    r14,rdi
22a7:	41 54                	push   r12
22a9:	55                   	push   rbp
22aa:	53                   	push   rbx
22ab:	4c 8b 2e             	mov    r13,QWORD PTR [rsi]
22ae:	4d 85 ed             	test   r13,r13
22b1:	74 4d                	je     2300 <buffer_or_output+0x60>
22b3:	49 89 d4             	mov    r12,rdx
22b6:	48 89 f3             	mov    rbx,rsi
22b9:	e8 b2 f2 ff ff       	call   1570 <strlen@plt>
22be:	48 89 c5             	mov    rbp,rax
22c1:	49 39 2c 24          	cmp    QWORD PTR [r12],rbp
22c5:	b8 01 00 00 00       	mov    eax,0x1
22ca:	77 0c                	ja     22d8 <buffer_or_output+0x38>
22cc:	5b                   	pop    rbx
22cd:	5d                   	pop    rbp
22ce:	41 5c                	pop    r12
22d0:	41 5d                	pop    r13
22d2:	41 5e                	pop    r14
22d4:	c3                   	ret
22d5:	0f 1f 00             	nop    DWORD PTR [rax]
22d8:	48 8d 55 01          	lea    rdx,[rbp+0x1]
22dc:	4c 89 f6             	mov    rsi,r14
22df:	4c 89 ef             	mov    rdi,r13
22e2:	e8 89 f3 ff ff       	call   1670 <memcpy@plt>
22e7:	48 01 2b             	add    QWORD PTR [rbx],rbp
22ea:	49 29 2c 24          	sub    QWORD PTR [r12],rbp
22ee:	31 c0                	xor    eax,eax
22f0:	5b                   	pop    rbx
22f1:	5d                   	pop    rbp
22f2:	41 5c                	pop    r12
22f4:	41 5d                	pop    r13
22f6:	41 5e                	pop    r14
22f8:	c3                   	ret
22f9:	0f 1f 80 00 00 00 00 	nop    DWORD PTR [rax+0x0]
2300:	48 8b 35 a1 7d 20 00 	mov    rsi,QWORD PTR [rip+0x207da1]        # 20a0a8 <stdout@@GLIBC_2.2.5>
2307:	e8 34 f3 ff ff       	call   1640 <fputs_unlocked@plt>
230c:	5b                   	pop    rbx
230d:	31 c0                	xor    eax,eax
230f:	5d                   	pop    rbp
2310:	41 5c                	pop    r12
2312:	41 5d                	pop    r13
2314:	41 5e                	pop    r14
2316:	c3                   	ret
2317:	66 0f 1f 84 00 00 00 	nop    WORD PTR [rax+rax*1+0x0]
231e:	00 00

0000000000002320 <relpath>:
2320:	41 57                	push   r15
2322:	41 56                	push   r14
2324:	41 55                	push   r13
2326:	41 54                	push   r12
2328:	55                   	push   rbp
2329:	53                   	push   rbx
232a:	48 83 ec 18          	sub    rsp,0x18
232e:	44 0f b6 47 01       	movzx  r8d,BYTE PTR [rdi+0x1]
2333:	48 89 0c 24          	mov    QWORD PTR [rsp],rcx
2337:	0f b6 4e 01          	movzx  ecx,BYTE PTR [rsi+0x1]
233b:	48 89 54 24 08       	mov    QWORD PTR [rsp+0x8],rdx
2340:	80 f9 2f             	cmp    cl,0x2f
2343:	41 0f 94 c1          	sete   r9b
2347:	41 80 f8 2f          	cmp    r8b,0x2f
234b:	0f 94 c2             	sete   dl
234e:	31 c0                	xor    eax,eax
2350:	41 38 d1             	cmp    r9b,dl
2353:	74 13                	je     2368 <relpath+0x48>
2355:	48 83 c4 18          	add    rsp,0x18
2359:	5b                   	pop    rbx
235a:	5d                   	pop    rbp
235b:	41 5c                	pop    r12
235d:	41 5d                	pop    r13
235f:	41 5e                	pop    r14
2361:	41 5f                	pop    r15
2363:	c3                   	ret
2364:	0f 1f 40 00          	nop    DWORD PTR [rax+0x0]
2368:	0f b6 17             	movzx  edx,BYTE PTR [rdi]
236b:	44 0f b6 16          	movzx  r10d,BYTE PTR [rsi]
236f:	84 d2                	test   dl,dl
2371:	41 0f 94 c1          	sete   r9b
2375:	45 84 d2             	test   r10b,r10b
2378:	74 db                	je     2355 <relpath+0x35>
237a:	41 38 d2             	cmp    r10b,dl
237d:	0f 95 c0             	setne  al
2380:	44 08 c8             	or     al,r9b
2383:	0f 85 c7 01 00 00    	jne    2550 <relpath+0x230>
2389:	31 d2                	xor    edx,edx
238b:	45 31 c9             	xor    r9d,r9d
238e:	eb 24                	jmp    23b4 <relpath+0x94>
2390:	48 83 c2 01          	add    rdx,0x1
2394:	41 38 c8             	cmp    r8b,cl
2397:	0f 85 93 01 00 00    	jne    2530 <relpath+0x210>
239d:	45 84 d2             	test   r10b,r10b
23a0:	0f 85 8a 01 00 00    	jne    2530 <relpath+0x210>
23a6:	41 89 ca             	mov    r10d,ecx
23a9:	44 0f b6 44 17 01    	movzx  r8d,BYTE PTR [rdi+rdx*1+0x1]
23af:	0f b6 4c 16 01       	movzx  ecx,BYTE PTR [rsi+rdx*1+0x1]
23b4:	44 8d 5a 01          	lea    r11d,[rdx+0x1]
23b8:	41 80 fa 2f          	cmp    r10b,0x2f
23bc:	45 0f 44 cb          	cmove  r9d,r11d
23c0:	45 84 c0             	test   r8b,r8b
23c3:	41 0f 94 c2          	sete   r10b
23c7:	84 c9                	test   cl,cl
23c9:	75 c5                	jne    2390 <relpath+0x70>
23cb:	41 80 f8 2f          	cmp    r8b,0x2f
23cf:	0f 84 6b 01 00 00    	je     2540 <relpath+0x220>
23d5:	45 84 d2             	test   r10b,r10b
23d8:	0f 85 62 01 00 00    	jne    2540 <relpath+0x220>
23de:	45 85 c9             	test   r9d,r9d
23e1:	0f 84 6e ff ff ff    	je     2355 <relpath+0x35>
23e7:	4d 63 c9             	movsxd r9,r9d
23ea:	4e 8d 24 0e          	lea    r12,[rsi+r9*1]
23ee:	4a 8d 1c 0f          	lea    rbx,[rdi+r9*1]
23f2:	41 0f b6 04 24       	movzx  eax,BYTE PTR [r12]
23f7:	3c 2f                	cmp    al,0x2f
23f9:	75 0a                	jne    2405 <relpath+0xe5>
23fb:	41 0f b6 44 24 01    	movzx  eax,BYTE PTR [r12+0x1]
2401:	49 83 c4 01          	add    r12,0x1
2405:	31 d2                	xor    edx,edx
2407:	80 3b 2f             	cmp    BYTE PTR [rbx],0x2f
240a:	0f 94 c2             	sete   dl
240d:	48 01 d3             	add    rbx,rdx
2410:	84 c0                	test   al,al
2412:	75 44                	jne    2458 <relpath+0x138>
2414:	80 3b 00             	cmp    BYTE PTR [rbx],0x0
2417:	48 8d 05 bf 50 00 00 	lea    rax,[rip+0x50bf]        # 74dd <_IO_stdin_used+0x59d>
241e:	48 8d 74 24 08       	lea    rsi,[rsp+0x8]
2423:	48 89 e2             	mov    rdx,rsp
2426:	48 0f 44 d8          	cmove  rbx,rax
242a:	48 89 df             	mov    rdi,rbx
242d:	e8 6e fe ff ff       	call   22a0 <buffer_or_output>
2432:	89 c5                	mov    ebp,eax
2434:	40 84 ed             	test   bpl,bpl
2437:	0f 85 c3 00 00 00    	jne    2500 <relpath+0x1e0>
243d:	48 83 c4 18          	add    rsp,0x18
2441:	89 e8                	mov    eax,ebp
2443:	5b                   	pop    rbx
2444:	83 f0 01             	xor    eax,0x1
2447:	5d                   	pop    rbp
2448:	41 5c                	pop    r12
244a:	41 5d                	pop    r13
244c:	41 5e                	pop    r14
244e:	41 5f                	pop    r15
2450:	c3                   	ret
2451:	0f 1f 80 00 00 00 00 	nop    DWORD PTR [rax+0x0]
2458:	4c 8d 6c 24 08       	lea    r13,[rsp+0x8]
245d:	49 89 e6             	mov    r14,rsp
2460:	48 8d 3d 75 50 00 00 	lea    rdi,[rip+0x5075]        # 74dc <_IO_stdin_used+0x59c>
2467:	4c 89 f2             	mov    rdx,r14
246a:	4c 89 ee             	mov    rsi,r13
246d:	e8 2e fe ff ff       	call   22a0 <buffer_or_output>
2472:	89 c5                	mov    ebp,eax
2474:	41 0f b6 04 24       	movzx  eax,BYTE PTR [r12]
2479:	84 c0                	test   al,al
247b:	74 43                	je     24c0 <relpath+0x1a0>
247d:	4c 8d 3d 57 50 00 00 	lea    r15,[rip+0x5057]        # 74db <_IO_stdin_used+0x59b>
2484:	eb 17                	jmp    249d <relpath+0x17d>
2486:	66 2e 0f 1f 84 00 00 	nop    WORD PTR cs:[rax+rax*1+0x0]
248d:	00 00 00
2490:	49 83 c4 01          	add    r12,0x1
2494:	41 0f b6 04 24       	movzx  eax,BYTE PTR [r12]
2499:	84 c0                	test   al,al
249b:	74 23                	je     24c0 <relpath+0x1a0>
249d:	3c 2f                	cmp    al,0x2f
249f:	75 ef                	jne    2490 <relpath+0x170>
24a1:	49 83 c4 01          	add    r12,0x1
24a5:	4c 89 f2             	mov    rdx,r14
24a8:	4c 89 ee             	mov    rsi,r13
24ab:	4c 89 ff             	mov    rdi,r15
24ae:	e8 ed fd ff ff       	call   22a0 <buffer_or_output>
24b3:	09 c5                	or     ebp,eax
24b5:	41 0f b6 04 24       	movzx  eax,BYTE PTR [r12]
24ba:	84 c0                	test   al,al
24bc:	75 df                	jne    249d <relpath+0x17d>
24be:	66 90                	xchg   ax,ax
24c0:	80 3b 00             	cmp    BYTE PTR [rbx],0x0
24c3:	0f 84 6b ff ff ff    	je     2434 <relpath+0x114>
24c9:	48 8d 3d 2e 51 00 00 	lea    rdi,[rip+0x512e]        # 75fe <default_tuning+0x7e>
24d0:	4c 89 f2             	mov    rdx,r14
24d3:	4c 89 ee             	mov    rsi,r13
24d6:	e8 c5 fd ff ff       	call   22a0 <buffer_or_output>
24db:	4c 89 f2             	mov    rdx,r14
24de:	41 89 c4             	mov    r12d,eax
24e1:	4c 89 ee             	mov    rsi,r13
24e4:	48 89 df             	mov    rdi,rbx
24e7:	e8 b4 fd ff ff       	call   22a0 <buffer_or_output>
24ec:	41 09 c4             	or     r12d,eax
24ef:	44 09 e5             	or     ebp,r12d
24f2:	e9 3d ff ff ff       	jmp    2434 <relpath+0x114>
24f7:	66 0f 1f 84 00 00 00 	nop    WORD PTR [rax+rax*1+0x0]
24fe:	00 00
2500:	48 8d 35 d8 4f 00 00 	lea    rsi,[rip+0x4fd8]        # 74df <_IO_stdin_used+0x59f>
2507:	31 ff                	xor    edi,edi
2509:	ba 05 00 00 00       	mov    edx,0x5
250e:	e8 3d f0 ff ff       	call   1550 <dcgettext@plt>
2513:	48 8d 15 f3 4f 00 00 	lea    rdx,[rip+0x4ff3]        # 750d <_IO_stdin_used+0x5cd>
251a:	48 89 c1             	mov    rcx,rax
251d:	be 24 00 00 00       	mov    esi,0x24
2522:	31 ff                	xor    edi,edi
2524:	31 c0                	xor    eax,eax
2526:	e8 f5 f1 ff ff       	call   1720 <error@plt>
252b:	e9 0d ff ff ff       	jmp    243d <relpath+0x11d>
2530:	80 f9 2f             	cmp    cl,0x2f
2533:	0f 84 9c fe ff ff    	je     23d5 <relpath+0xb5>
2539:	e9 a0 fe ff ff       	jmp    23de <relpath+0xbe>
253e:	66 90                	xchg   ax,ax
2540:	45 89 d9             	mov    r9d,r11d
2543:	e9 9f fe ff ff       	jmp    23e7 <relpath+0xc7>
2548:	0f 1f 84 00 00 00 00 	nop    DWORD PTR [rax+rax*1+0x0]
254f:	00
2550:	31 c0                	xor    eax,eax
2552:	e9 fe fd ff ff       	jmp    2355 <relpath+0x35>
2557:	66 0f 1f 84 00 00 00 	nop    WORD PTR [rax+rax*1+0x0]
255e:	00 00

0000000000002560 <canonicalize_filename_mode>:
2560:	41 57                	push   r15
2562:	41 56                	push   r14
2564:	41 55                	push   r13
2566:	41 54                	push   r12
2568:	55                   	push   rbp
2569:	53                   	push   rbx
256a:	48 81 ec e8 00 00 00 	sub    rsp,0xe8
2571:	64 48 8b 04 25 28 00 	mov    rax,QWORD PTR fs:0x28
2578:	00 00
257a:	48 89 84 24 d8 00 00 	mov    QWORD PTR [rsp+0xd8],rax
2581:	00
2582:	31 c0                	xor    eax,eax
2584:	89 f0                	mov    eax,esi
2586:	83 e0 04             	and    eax,0x4
2589:	0f 95 44 24 1b       	setne  BYTE PTR [rsp+0x1b]
258e:	83 e6 03             	and    esi,0x3
2591:	89 44 24 1c          	mov    DWORD PTR [rsp+0x1c],eax
2595:	8d 46 ff             	lea    eax,[rsi-0x1]
2598:	89 74 24 04          	mov    DWORD PTR [rsp+0x4],esi
259c:	85 c6                	test   esi,eax
259e:	0f 85 4c 05 00 00    	jne    2af0 <canonicalize_filename_mode+0x590>
25a4:	48 85 ff             	test   rdi,rdi
25a7:	49 89 fe             	mov    r14,rdi
25aa:	0f 84 40 05 00 00    	je     2af0 <canonicalize_filename_mode+0x590>
25b0:	0f b6 07             	movzx  eax,BYTE PTR [rdi]
25b3:	84 c0                	test   al,al
25b5:	0f 84 75 05 00 00    	je     2b30 <canonicalize_filename_mode+0x5d0>
25bb:	3c 2f                	cmp    al,0x2f
25bd:	0f 84 bd 04 00 00    	je     2a80 <canonicalize_filename_mode+0x520>
25c3:	e8 18 43 00 00       	call   68e0 <xgetcwd>
25c8:	48 85 c0             	test   rax,rax
25cb:	48 89 c5             	mov    rbp,rax
25ce:	0f 84 ac 01 00 00    	je     2780 <canonicalize_filename_mode+0x220>
25d4:	48 89 c7             	mov    rdi,rax
25d7:	e8 94 ef ff ff       	call   1570 <strlen@plt>
25dc:	48 3d ff 0f 00 00    	cmp    rax,0xfff
25e2:	49 89 c7             	mov    r15,rax
25e5:	0f 86 b5 04 00 00    	jbe    2aa0 <canonicalize_filename_mode+0x540>
25eb:	49 01 ef             	add    r15,rbp
25ee:	4c 89 fb             	mov    rbx,r15
25f1:	48 8d 44 24 40       	lea    rax,[rsp+0x40]
25f6:	4c 89 74 24 20       	mov    QWORD PTR [rsp+0x20],r14
25fb:	48 c7 44 24 10 00 00 	mov    QWORD PTR [rsp+0x10],0x0
2602:	00 00
2604:	48 c7 44 24 30 00 00 	mov    QWORD PTR [rsp+0x30],0x0
260b:	00 00
260d:	48 c7 44 24 28 00 00 	mov    QWORD PTR [rsp+0x28],0x0
2614:	00 00
2616:	48 89 44 24 08       	mov    QWORD PTR [rsp+0x8],rax
261b:	41 0f b6 06          	movzx  eax,BYTE PTR [r14]
261f:	84 c0                	test   al,al
2621:	0f 84 08 01 00 00    	je     272f <canonicalize_filename_mode+0x1cf>
2627:	66 0f 1f 84 00 00 00 	nop    WORD PTR [rax+rax*1+0x0]
262e:	00 00
2630:	3c 2f                	cmp    al,0x2f
2632:	75 18                	jne    264c <canonicalize_filename_mode+0xec>
2634:	0f 1f 40 00          	nop    DWORD PTR [rax+0x0]
2638:	49 83 c6 01          	add    r14,0x1
263c:	41 0f b6 06          	movzx  eax,BYTE PTR [r14]
2640:	3c 2f                	cmp    al,0x2f
2642:	74 f4                	je     2638 <canonicalize_filename_mode+0xd8>
2644:	84 c0                	test   al,al
2646:	0f 84 c4 02 00 00    	je     2910 <canonicalize_filename_mode+0x3b0>
264c:	4d 89 f5             	mov    r13,r14
264f:	eb 0c                	jmp    265d <canonicalize_filename_mode+0xfd>
2651:	0f 1f 80 00 00 00 00 	nop    DWORD PTR [rax+0x0]
2658:	80 fa 2f             	cmp    dl,0x2f
265b:	74 0d                	je     266a <canonicalize_filename_mode+0x10a>
265d:	49 83 c5 01          	add    r13,0x1
2661:	41 0f b6 55 00       	movzx  edx,BYTE PTR [r13+0x0]
2666:	84 d2                	test   dl,dl
2668:	75 ee                	jne    2658 <canonicalize_filename_mode+0xf8>
266a:	4d 39 f5             	cmp    r13,r14
266d:	0f 84 bc 00 00 00    	je     272f <canonicalize_filename_mode+0x1cf>
2673:	4d 89 ec             	mov    r12,r13
2676:	4d 29 f4             	sub    r12,r14
2679:	49 83 fc 01          	cmp    r12,0x1
267d:	0f 84 cd 01 00 00    	je     2850 <canonicalize_filename_mode+0x2f0>
2683:	49 83 fc 02          	cmp    r12,0x2
2687:	75 08                	jne    2691 <canonicalize_filename_mode+0x131>
2689:	3c 2e                	cmp    al,0x2e
268b:	0f 84 8f 02 00 00    	je     2920 <canonicalize_filename_mode+0x3c0>
2691:	41 80 7f ff 2f       	cmp    BYTE PTR [r15-0x1],0x2f
2696:	74 08                	je     26a0 <canonicalize_filename_mode+0x140>
2698:	41 c6 07 2f          	mov    BYTE PTR [r15],0x2f
269c:	49 83 c7 01          	add    r15,0x1
26a0:	4b 8d 04 27          	lea    rax,[r15+r12*1]
26a4:	48 39 c3             	cmp    rbx,rax
26a7:	77 31                	ja     26da <canonicalize_filename_mode+0x17a>
26a9:	48 29 eb             	sub    rbx,rbp
26ac:	49 29 ef             	sub    r15,rbp
26af:	48 89 ef             	mov    rdi,rbp
26b2:	49 8d 44 1c 01       	lea    rax,[r12+rbx*1+0x1]
26b7:	48 81 c3 00 10 00 00 	add    rbx,0x1000
26be:	49 81 fc 00 10 00 00 	cmp    r12,0x1000
26c5:	48 0f 4d d8          	cmovge rbx,rax
26c9:	48 89 de             	mov    rsi,rbx
26cc:	e8 df 3f 00 00       	call   66b0 <xrealloc>
26d1:	48 89 c5             	mov    rbp,rax
26d4:	48 01 c3             	add    rbx,rax
26d7:	49 01 c7             	add    r15,rax
26da:	4c 89 ff             	mov    rdi,r15
26dd:	4c 89 e2             	mov    rdx,r12
26e0:	4c 89 f6             	mov    rsi,r14
26e3:	e8 88 ef ff ff       	call   1670 <memcpy@plt>
26e8:	83 7c 24 04 02       	cmp    DWORD PTR [rsp+0x4],0x2
26ed:	4f 8d 3c 27          	lea    r15,[r15+r12*1]
26f1:	41 c6 07 00          	mov    BYTE PTR [r15],0x0
26f5:	0f 85 b5 00 00 00    	jne    27b0 <canonicalize_filename_mode+0x250>
26fb:	80 7c 24 1b 00       	cmp    BYTE PTR [rsp+0x1b],0x0
2700:	0f 84 aa 00 00 00    	je     27b0 <canonicalize_filename_mode+0x250>
2706:	c7 44 24 58 00 00 00 	mov    DWORD PTR [rsp+0x58],0x0
270d:	00
270e:	41 80 7d 00 00       	cmp    BYTE PTR [r13+0x0],0x0
2713:	74 0b                	je     2720 <canonicalize_filename_mode+0x1c0>
2715:	83 7c 24 04 02       	cmp    DWORD PTR [rsp+0x4],0x2
271a:	0f 85 57 04 00 00    	jne    2b77 <canonicalize_filename_mode+0x617>
2720:	4d 89 ee             	mov    r14,r13
2723:	41 0f b6 06          	movzx  eax,BYTE PTR [r14]
2727:	84 c0                	test   al,al
2729:	0f 85 01 ff ff ff    	jne    2630 <canonicalize_filename_mode+0xd0>
272f:	48 8d 45 01          	lea    rax,[rbp+0x1]
2733:	49 39 c7             	cmp    r15,rax
2736:	76 0b                	jbe    2743 <canonicalize_filename_mode+0x1e3>
2738:	41 80 7f ff 2f       	cmp    BYTE PTR [r15-0x1],0x2f
273d:	75 04                	jne    2743 <canonicalize_filename_mode+0x1e3>
273f:	49 83 ef 01          	sub    r15,0x1
2743:	49 8d 47 01          	lea    rax,[r15+0x1]
2747:	41 c6 07 00          	mov    BYTE PTR [r15],0x0
274b:	48 39 c3             	cmp    rbx,rax
274e:	74 12                	je     2762 <canonicalize_filename_mode+0x202>
2750:	49 29 ef             	sub    r15,rbp
2753:	48 89 ef             	mov    rdi,rbp
2756:	49 8d 77 01          	lea    rsi,[r15+0x1]
275a:	e8 51 3f 00 00       	call   66b0 <xrealloc>
275f:	48 89 c5             	mov    rbp,rax
2762:	48 8b 7c 24 28       	mov    rdi,QWORD PTR [rsp+0x28]
2767:	e8 44 ed ff ff       	call   14b0 <free@plt>
276c:	48 8b 44 24 10       	mov    rax,QWORD PTR [rsp+0x10]
2771:	48 85 c0             	test   rax,rax
2774:	74 0a                	je     2780 <canonicalize_filename_mode+0x220>
2776:	48 89 c7             	mov    rdi,rax
2779:	e8 a2 10 00 00       	call   3820 <hash_free>
277e:	66 90                	xchg   ax,ax
2780:	48 8b 8c 24 d8 00 00 	mov    rcx,QWORD PTR [rsp+0xd8]
2787:	00
2788:	64 48 33 0c 25 28 00 	xor    rcx,QWORD PTR fs:0x28
278f:	00 00
2791:	48 89 e8             	mov    rax,rbp
2794:	0f 85 f7 03 00 00    	jne    2b91 <canonicalize_filename_mode+0x631>
279a:	48 81 c4 e8 00 00 00 	add    rsp,0xe8
27a1:	5b                   	pop    rbx
27a2:	5d                   	pop    rbp
27a3:	41 5c                	pop    r12
27a5:	41 5d                	pop    r13
27a7:	41 5e                	pop    r14
27a9:	41 5f                	pop    r15
27ab:	c3                   	ret
27ac:	0f 1f 40 00          	nop    DWORD PTR [rax+0x0]
27b0:	8b 44 24 1c          	mov    eax,DWORD PTR [rsp+0x1c]
27b4:	48 8b 54 24 08       	mov    rdx,QWORD PTR [rsp+0x8]
27b9:	48 89 ee             	mov    rsi,rbp
27bc:	bf 01 00 00 00       	mov    edi,0x1
27c1:	85 c0                	test   eax,eax
27c3:	0f 84 b7 00 00 00    	je     2880 <canonicalize_filename_mode+0x320>
27c9:	e8 c2 ee ff ff       	call   1690 <__xstat@plt>
27ce:	85 c0                	test   eax,eax
27d0:	0f 95 c0             	setne  al
27d3:	84 c0                	test   al,al
27d5:	0f 84 85 00 00 00    	je     2860 <canonicalize_filename_mode+0x300>
27db:	e8 f0 ec ff ff       	call   14d0 <__errno_location@plt>
27e0:	49 89 c6             	mov    r14,rax
27e3:	8b 10                	mov    edx,DWORD PTR [rax]
27e5:	8b 44 24 04          	mov    eax,DWORD PTR [rsp+0x4]
27e9:	85 c0                	test   eax,eax
27eb:	74 31                	je     281e <canonicalize_filename_mode+0x2be>
27ed:	83 f8 01             	cmp    eax,0x1
27f0:	0f 85 10 ff ff ff    	jne    2706 <canonicalize_filename_mode+0x1a6>
27f6:	48 8d 35 01 4e 00 00 	lea    rsi,[rip+0x4e01]        # 75fe <default_tuning+0x7e>
27fd:	4c 89 ef             	mov    rdi,r13
2800:	89 54 24 38          	mov    DWORD PTR [rsp+0x38],edx
2804:	e8 17 ee ff ff       	call   1620 <strspn@plt>
2809:	41 80 7c 05 00 00    	cmp    BYTE PTR [r13+rax*1+0x0],0x0
280f:	8b 54 24 38          	mov    edx,DWORD PTR [rsp+0x38]
2813:	75 09                	jne    281e <canonicalize_filename_mode+0x2be>
2815:	83 fa 02             	cmp    edx,0x2
2818:	0f 84 02 ff ff ff    	je     2720 <canonicalize_filename_mode+0x1c0>
281e:	4d 89 f4             	mov    r12,r14
2821:	48 8b 7c 24 28       	mov    rdi,QWORD PTR [rsp+0x28]
2826:	89 54 24 04          	mov    DWORD PTR [rsp+0x4],edx
282a:	e8 81 ec ff ff       	call   14b0 <free@plt>
282f:	48 89 ef             	mov    rdi,rbp
2832:	e8 79 ec ff ff       	call   14b0 <free@plt>
2837:	48 83 7c 24 10 00    	cmp    QWORD PTR [rsp+0x10],0x0
283d:	8b 54 24 04          	mov    edx,DWORD PTR [rsp+0x4]
2841:	0f 84 b5 00 00 00    	je     28fc <canonicalize_filename_mode+0x39c>
2847:	e9 9e 00 00 00       	jmp    28ea <canonicalize_filename_mode+0x38a>
284c:	0f 1f 40 00          	nop    DWORD PTR [rax+0x0]
2850:	3c 2e                	cmp    al,0x2e
2852:	0f 85 39 fe ff ff    	jne    2691 <canonicalize_filename_mode+0x131>
2858:	e9 c3 fe ff ff       	jmp    2720 <canonicalize_filename_mode+0x1c0>
285d:	0f 1f 00             	nop    DWORD PTR [rax]
2860:	8b 44 24 58          	mov    eax,DWORD PTR [rsp+0x58]
2864:	25 00 f0 00 00       	and    eax,0xf000
2869:	3d 00 a0 00 00       	cmp    eax,0xa000
286e:	74 20                	je     2890 <canonicalize_filename_mode+0x330>
2870:	3d 00 40 00 00       	cmp    eax,0x4000
2875:	0f 84 a5 fe ff ff    	je     2720 <canonicalize_filename_mode+0x1c0>
287b:	e9 8e fe ff ff       	jmp    270e <canonicalize_filename_mode+0x1ae>
2880:	e8 fb ec ff ff       	call   1580 <__lxstat@plt>
2885:	85 c0                	test   eax,eax
2887:	0f 95 c0             	setne  al
288a:	e9 44 ff ff ff       	jmp    27d3 <canonicalize_filename_mode+0x273>
288f:	90                   	nop
2890:	48 83 7c 24 10 00    	cmp    QWORD PTR [rsp+0x10],0x0
2896:	0f 84 aa 01 00 00    	je     2a46 <canonicalize_filename_mode+0x4e6>
289c:	48 8b 54 24 08       	mov    rdx,QWORD PTR [rsp+0x8]
28a1:	48 8b 74 24 20       	mov    rsi,QWORD PTR [rsp+0x20]
28a6:	48 8b 7c 24 10       	mov    rdi,QWORD PTR [rsp+0x10]
28ab:	e8 50 04 00 00       	call   2d00 <seen_file>
28b0:	84 c0                	test   al,al
28b2:	0f 84 b8 00 00 00    	je     2970 <canonicalize_filename_mode+0x410>
28b8:	83 7c 24 04 02       	cmp    DWORD PTR [rsp+0x4],0x2
28bd:	0f 84 5d fe ff ff    	je     2720 <canonicalize_filename_mode+0x1c0>
28c3:	e8 08 ec ff ff       	call   14d0 <__errno_location@plt>
28c8:	ba 28 00 00 00       	mov    edx,0x28
28cd:	49 89 c4             	mov    r12,rax
28d0:	48 8b 7c 24 28       	mov    rdi,QWORD PTR [rsp+0x28]
28d5:	89 54 24 04          	mov    DWORD PTR [rsp+0x4],edx
28d9:	e8 d2 eb ff ff       	call   14b0 <free@plt>
28de:	48 89 ef             	mov    rdi,rbp
28e1:	e8 ca eb ff ff       	call   14b0 <free@plt>
28e6:	8b 54 24 04          	mov    edx,DWORD PTR [rsp+0x4]
28ea:	48 8b 7c 24 10       	mov    rdi,QWORD PTR [rsp+0x10]
28ef:	89 54 24 04          	mov    DWORD PTR [rsp+0x4],edx
28f3:	e8 28 0f 00 00       	call   3820 <hash_free>
28f8:	8b 54 24 04          	mov    edx,DWORD PTR [rsp+0x4]
28fc:	41 89 14 24          	mov    DWORD PTR [r12],edx
2900:	31 ed                	xor    ebp,ebp
2902:	e9 79 fe ff ff       	jmp    2780 <canonicalize_filename_mode+0x220>
2907:	66 0f 1f 84 00 00 00 	nop    WORD PTR [rax+rax*1+0x0]
290e:	00 00
2910:	4d 89 f5             	mov    r13,r14
2913:	e9 52 fd ff ff       	jmp    266a <canonicalize_filename_mode+0x10a>
2918:	0f 1f 84 00 00 00 00 	nop    DWORD PTR [rax+rax*1+0x0]
291f:	00
2920:	41 80 7e 01 2e       	cmp    BYTE PTR [r14+0x1],0x2e
2925:	0f 85 66 fd ff ff    	jne    2691 <canonicalize_filename_mode+0x131>
292b:	48 8d 45 01          	lea    rax,[rbp+0x1]
292f:	4d 89 ee             	mov    r14,r13
2932:	49 39 c7             	cmp    r15,rax
2935:	0f 86 e0 fc ff ff    	jbe    261b <canonicalize_filename_mode+0xbb>
293b:	49 8d 47 ff          	lea    rax,[r15-0x1]
293f:	48 39 c5             	cmp    rbp,rax
2942:	0f 83 41 02 00 00    	jae    2b89 <canonicalize_filename_mode+0x629>
2948:	41 80 7f fe 2f       	cmp    BYTE PTR [r15-0x2],0x2f
294d:	49 89 c7             	mov    r15,rax
2950:	0f 84 c5 fc ff ff    	je     261b <canonicalize_filename_mode+0xbb>
2956:	49 83 ef 01          	sub    r15,0x1
295a:	4c 39 fd             	cmp    rbp,r15
295d:	0f 84 bd fd ff ff    	je     2720 <canonicalize_filename_mode+0x1c0>
2963:	41 80 7f ff 2f       	cmp    BYTE PTR [r15-0x1],0x2f
2968:	0f 84 b2 fd ff ff    	je     2720 <canonicalize_filename_mode+0x1c0>
296e:	eb e6                	jmp    2956 <canonicalize_filename_mode+0x3f6>
2970:	48 8b 54 24 08       	mov    rdx,QWORD PTR [rsp+0x8]
2975:	48 8b 74 24 20       	mov    rsi,QWORD PTR [rsp+0x20]
297a:	48 8b 7c 24 10       	mov    rdi,QWORD PTR [rsp+0x10]
297f:	e8 ec 02 00 00       	call   2c70 <record_file>
2984:	48 8b 74 24 70       	mov    rsi,QWORD PTR [rsp+0x70]
2989:	48 89 ef             	mov    rdi,rbp
298c:	e8 0f 40 00 00       	call   69a0 <areadlink_with_size>
2991:	48 85 c0             	test   rax,rax
2994:	49 89 c6             	mov    r14,rax
2997:	0f 84 65 01 00 00    	je     2b02 <canonicalize_filename_mode+0x5a2>
299d:	48 89 c7             	mov    rdi,rax
29a0:	e8 cb eb ff ff       	call   1570 <strlen@plt>
29a5:	4c 89 ef             	mov    rdi,r13
29a8:	49 89 c4             	mov    r12,rax
29ab:	48 89 44 24 20       	mov    QWORD PTR [rsp+0x20],rax
29b0:	e8 bb eb ff ff       	call   1570 <strlen@plt>
29b5:	48 83 7c 24 30 00    	cmp    QWORD PTR [rsp+0x30],0x0
29bb:	48 89 c2             	mov    rdx,rax
29be:	49 8d 4c 14 01       	lea    rcx,[r12+rdx*1+0x1]
29c3:	0f 84 f6 00 00 00    	je     2abf <canonicalize_filename_mode+0x55f>
29c9:	48 39 4c 24 30       	cmp    QWORD PTR [rsp+0x30],rcx
29ce:	73 21                	jae    29f1 <canonicalize_filename_mode+0x491>
29d0:	48 8b 7c 24 28       	mov    rdi,QWORD PTR [rsp+0x28]
29d5:	48 89 ce             	mov    rsi,rcx
29d8:	48 89 54 24 38       	mov    QWORD PTR [rsp+0x38],rdx
29dd:	48 89 4c 24 30       	mov    QWORD PTR [rsp+0x30],rcx
29e2:	e8 c9 3c 00 00       	call   66b0 <xrealloc>
29e7:	48 8b 54 24 38       	mov    rdx,QWORD PTR [rsp+0x38]
29ec:	48 89 44 24 28       	mov    QWORD PTR [rsp+0x28],rax
29f1:	4c 8b 64 24 28       	mov    r12,QWORD PTR [rsp+0x28]
29f6:	48 8b 7c 24 20       	mov    rdi,QWORD PTR [rsp+0x20]
29fb:	48 83 c2 01          	add    rdx,0x1
29ff:	4c 89 ee             	mov    rsi,r13
2a02:	4c 01 e7             	add    rdi,r12
2a05:	4d 89 e5             	mov    r13,r12
2a08:	e8 03 ed ff ff       	call   1710 <memmove@plt>
2a0d:	48 8b 54 24 20       	mov    rdx,QWORD PTR [rsp+0x20]
2a12:	4c 89 f6             	mov    rsi,r14
2a15:	4c 89 e7             	mov    rdi,r12
2a18:	e8 53 ec ff ff       	call   1670 <memcpy@plt>
2a1d:	41 80 3e 2f          	cmp    BYTE PTR [r14],0x2f
2a21:	4c 89 64 24 20       	mov    QWORD PTR [rsp+0x20],r12
2a26:	48 8d 45 01          	lea    rax,[rbp+0x1]
2a2a:	0f 84 f4 00 00 00    	je     2b24 <canonicalize_filename_mode+0x5c4>
2a30:	49 39 c7             	cmp    r15,rax
2a33:	0f 87 09 01 00 00    	ja     2b42 <canonicalize_filename_mode+0x5e2>
2a39:	4c 89 f7             	mov    rdi,r14
2a3c:	e8 6f ea ff ff       	call   14b0 <free@plt>
2a41:	e9 da fc ff ff       	jmp    2720 <canonicalize_filename_mode+0x1c0>
2a46:	4c 8d 05 a3 16 00 00 	lea    r8,[rip+0x16a3]        # 40f0 <triple_free>
2a4d:	48 8d 0d 5c 16 00 00 	lea    rcx,[rip+0x165c]        # 40b0 <triple_compare_ino_str>
2a54:	31 f6                	xor    esi,esi
2a56:	48 8d 15 e3 15 00 00 	lea    rdx,[rip+0x15e3]        # 4040 <triple_hash>
2a5d:	bf 07 00 00 00       	mov    edi,0x7
2a62:	e8 69 0b 00 00       	call   35d0 <hash_initialize>
2a67:	48 85 c0             	test   rax,rax
2a6a:	48 89 44 24 10       	mov    QWORD PTR [rsp+0x10],rax
2a6f:	0f 85 27 fe ff ff    	jne    289c <canonicalize_filename_mode+0x33c>
2a75:	e8 26 3e 00 00       	call   68a0 <xalloc_die>
2a7a:	66 0f 1f 44 00 00    	nop    WORD PTR [rax+rax*1+0x0]
2a80:	bf 00 10 00 00       	mov    edi,0x1000
2a85:	e8 c6 3b 00 00       	call   6650 <xmalloc>
2a8a:	48 89 c5             	mov    rbp,rax
2a8d:	48 8d 98 00 10 00 00 	lea    rbx,[rax+0x1000]
2a94:	4c 8d 78 01          	lea    r15,[rax+0x1]
2a98:	c6 00 2f             	mov    BYTE PTR [rax],0x2f
2a9b:	e9 51 fb ff ff       	jmp    25f1 <canonicalize_filename_mode+0x91>
2aa0:	48 89 ef             	mov    rdi,rbp
2aa3:	be 00 10 00 00       	mov    esi,0x1000
2aa8:	e8 03 3c 00 00       	call   66b0 <xrealloc>
2aad:	48 89 c5             	mov    rbp,rax
2ab0:	49 01 c7             	add    r15,rax
2ab3:	48 8d 98 00 10 00 00 	lea    rbx,[rax+0x1000]
2aba:	e9 32 fb ff ff       	jmp    25f1 <canonicalize_filename_mode+0x91>
2abf:	48 81 f9 00 10 00 00 	cmp    rcx,0x1000
2ac6:	b8 00 10 00 00       	mov    eax,0x1000
2acb:	48 89 54 24 38       	mov    QWORD PTR [rsp+0x38],rdx
2ad0:	48 0f 43 c1          	cmovae rax,rcx
2ad4:	48 89 c7             	mov    rdi,rax
2ad7:	48 89 44 24 30       	mov    QWORD PTR [rsp+0x30],rax
2adc:	e8 6f 3b 00 00       	call   6650 <xmalloc>
2ae1:	48 8b 54 24 38       	mov    rdx,QWORD PTR [rsp+0x38]
2ae6:	48 89 44 24 28       	mov    QWORD PTR [rsp+0x28],rax
2aeb:	e9 01 ff ff ff       	jmp    29f1 <canonicalize_filename_mode+0x491>
2af0:	e8 db e9 ff ff       	call   14d0 <__errno_location@plt>
2af5:	31 ed                	xor    ebp,ebp
2af7:	c7 00 16 00 00 00    	mov    DWORD PTR [rax],0x16
2afd:	e9 7e fc ff ff       	jmp    2780 <canonicalize_filename_mode+0x220>
2b02:	e8 c9 e9 ff ff       	call   14d0 <__errno_location@plt>
2b07:	83 7c 24 04 02       	cmp    DWORD PTR [rsp+0x4],0x2
2b0c:	49 89 c6             	mov    r14,rax
2b0f:	8b 10                	mov    edx,DWORD PTR [rax]
2b11:	75 09                	jne    2b1c <canonicalize_filename_mode+0x5bc>
2b13:	83 fa 0c             	cmp    edx,0xc
2b16:	0f 85 04 fc ff ff    	jne    2720 <canonicalize_filename_mode+0x1c0>
2b1c:	4d 89 f4             	mov    r12,r14
2b1f:	e9 ac fd ff ff       	jmp    28d0 <canonicalize_filename_mode+0x370>
2b24:	c6 45 00 2f          	mov    BYTE PTR [rbp+0x0],0x2f
2b28:	49 89 c7             	mov    r15,rax
2b2b:	e9 09 ff ff ff       	jmp    2a39 <canonicalize_filename_mode+0x4d9>
2b30:	e8 9b e9 ff ff       	call   14d0 <__errno_location@plt>
2b35:	31 ed                	xor    ebp,ebp
2b37:	c7 00 02 00 00 00    	mov    DWORD PTR [rax],0x2
2b3d:	e9 3e fc ff ff       	jmp    2780 <canonicalize_filename_mode+0x220>
2b42:	49 8d 47 ff          	lea    rax,[r15-0x1]
2b46:	48 39 c5             	cmp    rbp,rax
2b49:	73 07                	jae    2b52 <canonicalize_filename_mode+0x5f2>
2b4b:	41 80 7f fe 2f       	cmp    BYTE PTR [r15-0x2],0x2f
2b50:	75 0b                	jne    2b5d <canonicalize_filename_mode+0x5fd>
2b52:	49 89 c7             	mov    r15,rax
2b55:	e9 df fe ff ff       	jmp    2a39 <canonicalize_filename_mode+0x4d9>
2b5a:	4c 89 f8             	mov    rax,r15
2b5d:	4c 8d 78 ff          	lea    r15,[rax-0x1]
2b61:	4c 39 fd             	cmp    rbp,r15
2b64:	0f 84 cf fe ff ff    	je     2a39 <canonicalize_filename_mode+0x4d9>
2b6a:	41 80 7f ff 2f       	cmp    BYTE PTR [r15-0x1],0x2f
2b6f:	0f 84 c4 fe ff ff    	je     2a39 <canonicalize_filename_mode+0x4d9>
2b75:	eb e3                	jmp    2b5a <canonicalize_filename_mode+0x5fa>
2b77:	e8 54 e9 ff ff       	call   14d0 <__errno_location@plt>
2b7c:	ba 14 00 00 00       	mov    edx,0x14
2b81:	49 89 c4             	mov    r12,rax
2b84:	e9 98 fc ff ff       	jmp    2821 <canonicalize_filename_mode+0x2c1>
2b89:	49 89 c7             	mov    r15,rax
2b8c:	e9 8a fa ff ff       	jmp    261b <canonicalize_filename_mode+0xbb>
2b91:	e8 fa e9 ff ff       	call   1590 <__stack_chk_fail@plt>
2b96:	66 2e 0f 1f 84 00 00 	nop    WORD PTR cs:[rax+rax*1+0x0]
2b9d:	00 00 00

0000000000002ba0 <close_stdout_set_file_name>:
2ba0:	48 89 3d 69 75 20 00 	mov    QWORD PTR [rip+0x207569],rdi        # 20a110 <file_name>
2ba7:	c3                   	ret
2ba8:	0f 1f 84 00 00 00 00 	nop    DWORD PTR [rax+rax*1+0x0]
2baf:	00

0000000000002bb0 <close_stdout_set_ignore_EPIPE>:
2bb0:	40 88 3d 51 75 20 00 	mov    BYTE PTR [rip+0x207551],dil        # 20a108 <ignore_EPIPE>
2bb7:	c3                   	ret
2bb8:	0f 1f 84 00 00 00 00 	nop    DWORD PTR [rax+rax*1+0x0]
2bbf:	00

0000000000002bc0 <close_stdout>:
2bc0:	55                   	push   rbp
2bc1:	53                   	push   rbx
2bc2:	48 83 ec 08          	sub    rsp,0x8
2bc6:	48 8b 3d db 74 20 00 	mov    rdi,QWORD PTR [rip+0x2074db]        # 20a0a8 <stdout@@GLIBC_2.2.5>
2bcd:	e8 be 3e 00 00       	call   6a90 <close_stream>
2bd2:	85 c0                	test   eax,eax
2bd4:	74 16                	je     2bec <close_stdout+0x2c>
2bd6:	e8 f5 e8 ff ff       	call   14d0 <__errno_location@plt>
2bdb:	80 3d 26 75 20 00 00 	cmp    BYTE PTR [rip+0x207526],0x0        # 20a108 <ignore_EPIPE>
2be2:	48 89 c3             	mov    rbx,rax
2be5:	74 1c                	je     2c03 <close_stdout+0x43>
2be7:	83 38 20             	cmp    DWORD PTR [rax],0x20
2bea:	75 17                	jne    2c03 <close_stdout+0x43>
2bec:	48 8b 3d ed 74 20 00 	mov    rdi,QWORD PTR [rip+0x2074ed]        # 20a0e0 <stderr@@GLIBC_2.2.5>
2bf3:	e8 98 3e 00 00       	call   6a90 <close_stream>
2bf8:	85 c0                	test   eax,eax
2bfa:	75 46                	jne    2c42 <close_stdout+0x82>
2bfc:	48 83 c4 08          	add    rsp,0x8
2c00:	5b                   	pop    rbx
2c01:	5d                   	pop    rbp
2c02:	c3                   	ret
2c03:	48 8d 35 f3 48 00 00 	lea    rsi,[rip+0x48f3]        # 74fd <_IO_stdin_used+0x5bd>
2c0a:	31 ff                	xor    edi,edi
2c0c:	ba 05 00 00 00       	mov    edx,0x5
2c11:	e8 3a e9 ff ff       	call   1550 <dcgettext@plt>
2c16:	48 8b 3d f3 74 20 00 	mov    rdi,QWORD PTR [rip+0x2074f3]        # 20a110 <file_name>
2c1d:	48 89 c5             	mov    rbp,rax
2c20:	48 85 ff             	test   rdi,rdi
2c23:	74 28                	je     2c4d <close_stdout+0x8d>
2c25:	e8 f6 2f 00 00       	call   5c20 <quotearg_colon>
2c2a:	8b 33                	mov    esi,DWORD PTR [rbx]
2c2c:	48 8d 15 d6 48 00 00 	lea    rdx,[rip+0x48d6]        # 7509 <_IO_stdin_used+0x5c9>
2c33:	48 89 c1             	mov    rcx,rax
2c36:	49 89 e8             	mov    r8,rbp
2c39:	31 ff                	xor    edi,edi
2c3b:	31 c0                	xor    eax,eax
2c3d:	e8 de ea ff ff       	call   1720 <error@plt>
2c42:	8b 3d d8 73 20 00    	mov    edi,DWORD PTR [rip+0x2073d8]        # 20a020 <exit_failure>
2c48:	e8 a3 e8 ff ff       	call   14f0 <_exit@plt>
2c4d:	8b 33                	mov    esi,DWORD PTR [rbx]
2c4f:	48 8d 15 b7 48 00 00 	lea    rdx,[rip+0x48b7]        # 750d <_IO_stdin_used+0x5cd>
2c56:	48 89 c1             	mov    rcx,rax
2c59:	31 ff                	xor    edi,edi
2c5b:	31 c0                	xor    eax,eax
2c5d:	e8 be ea ff ff       	call   1720 <error@plt>
2c62:	eb de                	jmp    2c42 <close_stdout+0x82>
2c64:	66 2e 0f 1f 84 00 00 	nop    WORD PTR cs:[rax+rax*1+0x0]
2c6b:	00 00 00
2c6e:	66 90                	xchg   ax,ax

0000000000002c70 <record_file>:
2c70:	48 85 ff             	test   rdi,rdi
2c73:	74 7b                	je     2cf0 <record_file+0x80>
2c75:	41 55                	push   r13
2c77:	41 54                	push   r12
2c79:	49 89 fd             	mov    r13,rdi
2c7c:	55                   	push   rbp
2c7d:	53                   	push   rbx
2c7e:	49 89 f4             	mov    r12,rsi
2c81:	bf 18 00 00 00       	mov    edi,0x18
2c86:	48 89 d5             	mov    rbp,rdx
2c89:	48 83 ec 08          	sub    rsp,0x8
2c8d:	e8 be 39 00 00       	call   6650 <xmalloc>
2c92:	4c 89 e7             	mov    rdi,r12
2c95:	48 89 c3             	mov    rbx,rax
2c98:	e8 e3 3b 00 00       	call   6880 <xstrdup>
2c9d:	48 89 03             	mov    QWORD PTR [rbx],rax
2ca0:	48 8b 45 08          	mov    rax,QWORD PTR [rbp+0x8]
2ca4:	48 89 de             	mov    rsi,rbx
2ca7:	4c 89 ef             	mov    rdi,r13
2caa:	48 89 43 08          	mov    QWORD PTR [rbx+0x8],rax
2cae:	48 8b 45 00          	mov    rax,QWORD PTR [rbp+0x0]
2cb2:	48 89 43 10          	mov    QWORD PTR [rbx+0x10],rax
2cb6:	e8 15 11 00 00       	call   3dd0 <hash_insert>
2cbb:	48 85 c0             	test   rax,rax
2cbe:	74 32                	je     2cf2 <record_file+0x82>
2cc0:	48 39 c3             	cmp    rbx,rax
2cc3:	74 1b                	je     2ce0 <record_file+0x70>
2cc5:	48 83 c4 08          	add    rsp,0x8
2cc9:	48 89 df             	mov    rdi,rbx
2ccc:	5b                   	pop    rbx
2ccd:	5d                   	pop    rbp
2cce:	41 5c                	pop    r12
2cd0:	41 5d                	pop    r13
2cd2:	e9 19 14 00 00       	jmp    40f0 <triple_free>
2cd7:	66 0f 1f 84 00 00 00 	nop    WORD PTR [rax+rax*1+0x0]
2cde:	00 00
2ce0:	48 83 c4 08          	add    rsp,0x8
2ce4:	5b                   	pop    rbx
2ce5:	5d                   	pop    rbp
2ce6:	41 5c                	pop    r12
2ce8:	41 5d                	pop    r13
2cea:	c3                   	ret
2ceb:	0f 1f 44 00 00       	nop    DWORD PTR [rax+rax*1+0x0]
2cf0:	f3 c3                	repz ret
2cf2:	e8 a9 3b 00 00       	call   68a0 <xalloc_die>
2cf7:	66 0f 1f 84 00 00 00 	nop    WORD PTR [rax+rax*1+0x0]
2cfe:	00 00

0000000000002d00 <seen_file>:
2d00:	48 83 ec 28          	sub    rsp,0x28
2d04:	64 48 8b 04 25 28 00 	mov    rax,QWORD PTR fs:0x28
2d0b:	00 00
2d0d:	48 89 44 24 18       	mov    QWORD PTR [rsp+0x18],rax
2d12:	31 c0                	xor    eax,eax
2d14:	48 85 ff             	test   rdi,rdi
2d17:	74 23                	je     2d3c <seen_file+0x3c>
2d19:	48 8b 42 08          	mov    rax,QWORD PTR [rdx+0x8]
2d1d:	48 89 34 24          	mov    QWORD PTR [rsp],rsi
2d21:	48 89 e6             	mov    rsi,rsp
2d24:	48 89 44 24 08       	mov    QWORD PTR [rsp+0x8],rax
2d29:	48 8b 02             	mov    rax,QWORD PTR [rdx]
2d2c:	48 89 44 24 10       	mov    QWORD PTR [rsp+0x10],rax
2d31:	e8 2a 06 00 00       	call   3360 <hash_lookup>
2d36:	48 85 c0             	test   rax,rax
2d39:	0f 95 c0             	setne  al
2d3c:	48 8b 4c 24 18       	mov    rcx,QWORD PTR [rsp+0x18]
2d41:	64 48 33 0c 25 28 00 	xor    rcx,QWORD PTR fs:0x28
2d48:	00 00
2d4a:	75 05                	jne    2d51 <seen_file+0x51>
2d4c:	48 83 c4 28          	add    rsp,0x28
2d50:	c3                   	ret
2d51:	e8 3a e8 ff ff       	call   1590 <__stack_chk_fail@plt>
2d56:	66 2e 0f 1f 84 00 00 	nop    WORD PTR cs:[rax+rax*1+0x0]
2d5d:	00 00 00

0000000000002d60 <next_prime>:
2d60:	48 83 ff 0a          	cmp    rdi,0xa
2d64:	b8 0a 00 00 00       	mov    eax,0xa
2d69:	49 b9 ab aa aa aa aa 	movabs r9,0xaaaaaaaaaaaaaaab
2d70:	aa aa aa
2d73:	48 0f 42 f8          	cmovb  rdi,rax
2d77:	48 83 cf 01          	or     rdi,0x1
2d7b:	48 83 ff ff          	cmp    rdi,0xffffffffffffffff
2d7f:	74 6e                	je     2def <next_prime+0x8f>
2d81:	0f 1f 80 00 00 00 00 	nop    DWORD PTR [rax+0x0]
2d88:	48 89 f8             	mov    rax,rdi
2d8b:	48 89 f9             	mov    rcx,rdi
2d8e:	49 f7 e1             	mul    r9
2d91:	48 89 d0             	mov    rax,rdx
2d94:	48 d1 e8             	shr    rax,1
2d97:	48 8d 04 40          	lea    rax,[rax+rax*2]
2d9b:	48 29 c1             	sub    rcx,rax
2d9e:	48 83 ff 09          	cmp    rdi,0x9
2da2:	48 89 c8             	mov    rax,rcx
2da5:	76 39                	jbe    2de0 <next_prime+0x80>
2da7:	48 85 c9             	test   rcx,rcx
2daa:	74 39                	je     2de5 <next_prime+0x85>
2dac:	41 b8 10 00 00 00    	mov    r8d,0x10
2db2:	be 09 00 00 00       	mov    esi,0x9
2db7:	b9 03 00 00 00       	mov    ecx,0x3
2dbc:	eb 0b                	jmp    2dc9 <next_prime+0x69>
2dbe:	66 90                	xchg   ax,ax
2dc0:	49 83 c0 08          	add    r8,0x8
2dc4:	48 85 d2             	test   rdx,rdx
2dc7:	74 1c                	je     2de5 <next_prime+0x85>
2dc9:	48 83 c1 02          	add    rcx,0x2
2dcd:	31 d2                	xor    edx,edx
2dcf:	48 89 f8             	mov    rax,rdi
2dd2:	48 f7 f1             	div    rcx
2dd5:	4c 01 c6             	add    rsi,r8
2dd8:	48 39 fe             	cmp    rsi,rdi
2ddb:	48 89 d0             	mov    rax,rdx
2dde:	72 e0                	jb     2dc0 <next_prime+0x60>
2de0:	48 85 c0             	test   rax,rax
2de3:	75 0a                	jne    2def <next_prime+0x8f>
2de5:	48 83 c7 02          	add    rdi,0x2
2de9:	48 83 ff ff          	cmp    rdi,0xffffffffffffffff
2ded:	75 99                	jne    2d88 <next_prime+0x28>
2def:	48 89 f8             	mov    rax,rdi
2df2:	c3                   	ret
2df3:	0f 1f 00             	nop    DWORD PTR [rax]
2df6:	66 2e 0f 1f 84 00 00 	nop    WORD PTR cs:[rax+rax*1+0x0]
2dfd:	00 00 00

0000000000002e00 <raw_hasher>:
2e00:	48 89 f8             	mov    rax,rdi
2e03:	31 d2                	xor    edx,edx
2e05:	48 c1 c8 03          	ror    rax,0x3
2e09:	48 f7 f6             	div    rsi
2e0c:	48 89 d0             	mov    rax,rdx
2e0f:	c3                   	ret

0000000000002e10 <raw_comparator>:
2e10:	48 39 f7             	cmp    rdi,rsi
2e13:	0f 94 c0             	sete   al
2e16:	c3                   	ret
2e17:	66 0f 1f 84 00 00 00 	nop    WORD PTR [rax+rax*1+0x0]
2e1e:	00 00

0000000000002e20 <safe_hasher>:
2e20:	53                   	push   rbx
2e21:	48 89 fb             	mov    rbx,rdi
2e24:	48 89 f7             	mov    rdi,rsi
2e27:	48 8b 73 10          	mov    rsi,QWORD PTR [rbx+0x10]
2e2b:	ff 53 30             	call   QWORD PTR [rbx+0x30]
2e2e:	48 39 43 10          	cmp    QWORD PTR [rbx+0x10],rax
2e32:	76 09                	jbe    2e3d <safe_hasher+0x1d>
2e34:	48 c1 e0 04          	shl    rax,0x4
2e38:	48 03 03             	add    rax,QWORD PTR [rbx]
2e3b:	5b                   	pop    rbx
2e3c:	c3                   	ret
2e3d:	e8 7e e6 ff ff       	call   14c0 <abort@plt>
2e42:	0f 1f 40 00          	nop    DWORD PTR [rax+0x0]
2e46:	66 2e 0f 1f 84 00 00 	nop    WORD PTR cs:[rax+rax*1+0x0]
2e4d:	00 00 00

0000000000002e50 <hash_find_entry>:
2e50:	41 56                	push   r14
2e52:	41 55                	push   r13
2e54:	49 89 d6             	mov    r14,rdx
2e57:	41 54                	push   r12
2e59:	55                   	push   rbp
2e5a:	49 89 fc             	mov    r12,rdi
2e5d:	53                   	push   rbx
2e5e:	48 89 f5             	mov    rbp,rsi
2e61:	41 89 cd             	mov    r13d,ecx
2e64:	e8 b7 ff ff ff       	call   2e20 <safe_hasher>
2e69:	49 89 06             	mov    QWORD PTR [r14],rax
2e6c:	48 8b 30             	mov    rsi,QWORD PTR [rax]
2e6f:	48 85 f6             	test   rsi,rsi
2e72:	0f 84 e8 00 00 00    	je     2f60 <hash_find_entry+0x110>
2e78:	48 39 ee             	cmp    rsi,rbp
2e7b:	48 89 c3             	mov    rbx,rax
2e7e:	0f 84 8f 00 00 00    	je     2f13 <hash_find_entry+0xc3>
2e84:	48 89 ef             	mov    rdi,rbp
2e87:	41 ff 54 24 38       	call   QWORD PTR [r12+0x38]
2e8c:	84 c0                	test   al,al
2e8e:	0f 85 7c 00 00 00    	jne    2f10 <hash_find_entry+0xc0>
2e94:	48 8b 43 08          	mov    rax,QWORD PTR [rbx+0x8]
2e98:	48 85 c0             	test   rax,rax
2e9b:	0f 84 bf 00 00 00    	je     2f60 <hash_find_entry+0x110>
2ea1:	48 8b 30             	mov    rsi,QWORD PTR [rax]
2ea4:	48 39 f5             	cmp    rbp,rsi
2ea7:	75 20                	jne    2ec9 <hash_find_entry+0x79>
2ea9:	eb 31                	jmp    2edc <hash_find_entry+0x8c>
2eab:	0f 1f 44 00 00       	nop    DWORD PTR [rax+rax*1+0x0]
2eb0:	48 8b 5b 08          	mov    rbx,QWORD PTR [rbx+0x8]
2eb4:	48 8b 43 08          	mov    rax,QWORD PTR [rbx+0x8]
2eb8:	48 85 c0             	test   rax,rax
2ebb:	0f 84 9f 00 00 00    	je     2f60 <hash_find_entry+0x110>
2ec1:	48 8b 30             	mov    rsi,QWORD PTR [rax]
2ec4:	48 39 ee             	cmp    rsi,rbp
2ec7:	74 13                	je     2edc <hash_find_entry+0x8c>
2ec9:	48 89 ef             	mov    rdi,rbp
2ecc:	41 ff 54 24 38       	call   QWORD PTR [r12+0x38]
2ed1:	84 c0                	test   al,al
2ed3:	74 db                	je     2eb0 <hash_find_entry+0x60>
2ed5:	48 8b 43 08          	mov    rax,QWORD PTR [rbx+0x8]
2ed9:	48 8b 30             	mov    rsi,QWORD PTR [rax]
2edc:	45 84 ed             	test   r13b,r13b
2edf:	74 1d                	je     2efe <hash_find_entry+0xae>
2ee1:	48 8b 50 08          	mov    rdx,QWORD PTR [rax+0x8]
2ee5:	48 89 53 08          	mov    QWORD PTR [rbx+0x8],rdx
2ee9:	48 c7 00 00 00 00 00 	mov    QWORD PTR [rax],0x0
2ef0:	49 8b 54 24 48       	mov    rdx,QWORD PTR [r12+0x48]
2ef5:	48 89 50 08          	mov    QWORD PTR [rax+0x8],rdx
2ef9:	49 89 44 24 48       	mov    QWORD PTR [r12+0x48],rax
2efe:	5b                   	pop    rbx
2eff:	48 89 f0             	mov    rax,rsi
2f02:	5d                   	pop    rbp
2f03:	41 5c                	pop    r12
2f05:	41 5d                	pop    r13
2f07:	41 5e                	pop    r14
2f09:	c3                   	ret
2f0a:	66 0f 1f 44 00 00    	nop    WORD PTR [rax+rax*1+0x0]
2f10:	48 8b 33             	mov    rsi,QWORD PTR [rbx]
2f13:	45 84 ed             	test   r13b,r13b
2f16:	74 e6                	je     2efe <hash_find_entry+0xae>
2f18:	48 8b 43 08          	mov    rax,QWORD PTR [rbx+0x8]
2f1c:	48 85 c0             	test   rax,rax
2f1f:	74 2f                	je     2f50 <hash_find_entry+0x100>
2f21:	f3 0f 6f 00          	movdqu xmm0,XMMWORD PTR [rax]
2f25:	0f 11 03             	movups XMMWORD PTR [rbx],xmm0
2f28:	48 c7 00 00 00 00 00 	mov    QWORD PTR [rax],0x0
2f2f:	49 8b 54 24 48       	mov    rdx,QWORD PTR [r12+0x48]
2f34:	48 89 50 08          	mov    QWORD PTR [rax+0x8],rdx
2f38:	49 89 44 24 48       	mov    QWORD PTR [r12+0x48],rax
2f3d:	48 89 f0             	mov    rax,rsi
2f40:	5b                   	pop    rbx
2f41:	5d                   	pop    rbp
2f42:	41 5c                	pop    r12
2f44:	41 5d                	pop    r13
2f46:	41 5e                	pop    r14
2f48:	c3                   	ret
2f49:	0f 1f 80 00 00 00 00 	nop    DWORD PTR [rax+0x0]
2f50:	48 c7 03 00 00 00 00 	mov    QWORD PTR [rbx],0x0
2f57:	eb a5                	jmp    2efe <hash_find_entry+0xae>
2f59:	0f 1f 80 00 00 00 00 	nop    DWORD PTR [rax+0x0]
2f60:	31 f6                	xor    esi,esi
2f62:	5b                   	pop    rbx
2f63:	48 89 f0             	mov    rax,rsi
2f66:	5d                   	pop    rbp
2f67:	41 5c                	pop    r12
2f69:	41 5d                	pop    r13
2f6b:	41 5e                	pop    r14
2f6d:	c3                   	ret
2f6e:	66 90                	xchg   ax,ax

0000000000002f70 <check_tuning.isra.0>:
2f70:	48 8b 17             	mov    rdx,QWORD PTR [rdi]
2f73:	48 8d 0d 06 46 00 00 	lea    rcx,[rip+0x4606]        # 7580 <default_tuning>
2f7a:	b8 01 00 00 00       	mov    eax,0x1
2f7f:	48 39 ca             	cmp    rdx,rcx
2f82:	74 61                	je     2fe5 <check_tuning.isra.0+0x75>
2f84:	f3 0f 10 42 08       	movss  xmm0,DWORD PTR [rdx+0x8]
2f89:	0f 2e 05 04 46 00 00 	ucomiss xmm0,DWORD PTR [rip+0x4604]        # 7594 <default_tuning+0x14>
2f90:	76 4e                	jbe    2fe0 <check_tuning.isra.0+0x70>
2f92:	f3 0f 10 0d fe 45 00 	movss  xmm1,DWORD PTR [rip+0x45fe]        # 7598 <default_tuning+0x18>
2f99:	00
2f9a:	0f 2e c8             	ucomiss xmm1,xmm0
2f9d:	76 41                	jbe    2fe0 <check_tuning.isra.0+0x70>
2f9f:	f3 0f 10 4a 0c       	movss  xmm1,DWORD PTR [rdx+0xc]
2fa4:	0f 2e 0d f1 45 00 00 	ucomiss xmm1,DWORD PTR [rip+0x45f1]        # 759c <default_tuning+0x1c>
2fab:	76 33                	jbe    2fe0 <check_tuning.isra.0+0x70>
2fad:	f3 0f 10 0a          	movss  xmm1,DWORD PTR [rdx]
2fb1:	0f 2e 0d e8 45 00 00 	ucomiss xmm1,DWORD PTR [rip+0x45e8]        # 75a0 <default_tuning+0x20>
2fb8:	72 26                	jb     2fe0 <check_tuning.isra.0+0x70>
2fba:	f3 0f 58 0d d2 45 00 	addss  xmm1,DWORD PTR [rip+0x45d2]        # 7594 <default_tuning+0x14>
2fc1:	00
2fc2:	f3 0f 10 52 04       	movss  xmm2,DWORD PTR [rdx+0x4]
2fc7:	0f 2e d1             	ucomiss xmm2,xmm1
2fca:	76 14                	jbe    2fe0 <check_tuning.isra.0+0x70>
2fcc:	f3 0f 10 1d d0 45 00 	movss  xmm3,DWORD PTR [rip+0x45d0]        # 75a4 <default_tuning+0x24>
2fd3:	00
2fd4:	0f 2e da             	ucomiss xmm3,xmm2
2fd7:	72 07                	jb     2fe0 <check_tuning.isra.0+0x70>
2fd9:	0f 2e c1             	ucomiss xmm0,xmm1
2fdc:	77 07                	ja     2fe5 <check_tuning.isra.0+0x75>
2fde:	66 90                	xchg   ax,ax
2fe0:	48 89 0f             	mov    QWORD PTR [rdi],rcx
2fe3:	31 c0                	xor    eax,eax
2fe5:	f3 c3                	repz ret
2fe7:	66 0f 1f 84 00 00 00 	nop    WORD PTR [rax+rax*1+0x0]
2fee:	00 00

0000000000002ff0 <transfer_entries>:
2ff0:	41 57                	push   r15
2ff2:	41 56                	push   r14
2ff4:	41 55                	push   r13
2ff6:	41 54                	push   r12
2ff8:	55                   	push   rbp
2ff9:	53                   	push   rbx
2ffa:	48 83 ec 08          	sub    rsp,0x8
2ffe:	4c 8b 26             	mov    r12,QWORD PTR [rsi]
3001:	4c 3b 66 08          	cmp    r12,QWORD PTR [rsi+0x8]
3005:	0f 83 dd 00 00 00    	jae    30e8 <transfer_entries+0xf8>
300b:	48 89 fd             	mov    rbp,rdi
300e:	49 89 f5             	mov    r13,rsi
3011:	41 89 d6             	mov    r14d,edx
3014:	0f 1f 40 00          	nop    DWORD PTR [rax+0x0]
3018:	4d 8b 3c 24          	mov    r15,QWORD PTR [r12]
301c:	4d 85 ff             	test   r15,r15
301f:	0f 84 b5 00 00 00    	je     30da <transfer_entries+0xea>
3025:	49 8b 5c 24 08       	mov    rbx,QWORD PTR [r12+0x8]
302a:	48 85 db             	test   rbx,rbx
302d:	75 1d                	jne    304c <transfer_entries+0x5c>
302f:	eb 5a                	jmp    308b <transfer_entries+0x9b>
3031:	0f 1f 80 00 00 00 00 	nop    DWORD PTR [rax+0x0]
3038:	48 8b 48 08          	mov    rcx,QWORD PTR [rax+0x8]
303c:	48 85 d2             	test   rdx,rdx
303f:	48 89 4b 08          	mov    QWORD PTR [rbx+0x8],rcx
3043:	48 89 58 08          	mov    QWORD PTR [rax+0x8],rbx
3047:	48 89 d3             	mov    rbx,rdx
304a:	74 3b                	je     3087 <transfer_entries+0x97>
304c:	4c 8b 3b             	mov    r15,QWORD PTR [rbx]
304f:	48 89 ef             	mov    rdi,rbp
3052:	4c 89 fe             	mov    rsi,r15
3055:	e8 c6 fd ff ff       	call   2e20 <safe_hasher>
305a:	48 83 38 00          	cmp    QWORD PTR [rax],0x0
305e:	48 8b 53 08          	mov    rdx,QWORD PTR [rbx+0x8]
3062:	75 d4                	jne    3038 <transfer_entries+0x48>
3064:	4c 89 38             	mov    QWORD PTR [rax],r15
3067:	48 83 45 18 01       	add    QWORD PTR [rbp+0x18],0x1
306c:	48 85 d2             	test   rdx,rdx
306f:	48 c7 03 00 00 00 00 	mov    QWORD PTR [rbx],0x0
3076:	48 8b 45 48          	mov    rax,QWORD PTR [rbp+0x48]
307a:	48 89 43 08          	mov    QWORD PTR [rbx+0x8],rax
307e:	48 89 5d 48          	mov    QWORD PTR [rbp+0x48],rbx
3082:	48 89 d3             	mov    rbx,rdx
3085:	75 c5                	jne    304c <transfer_entries+0x5c>
3087:	4d 8b 3c 24          	mov    r15,QWORD PTR [r12]
308b:	45 84 f6             	test   r14b,r14b
308e:	49 c7 44 24 08 00 00 	mov    QWORD PTR [r12+0x8],0x0
3095:	00 00
3097:	75 41                	jne    30da <transfer_entries+0xea>
3099:	4c 89 fe             	mov    rsi,r15
309c:	48 89 ef             	mov    rdi,rbp
309f:	e8 7c fd ff ff       	call   2e20 <safe_hasher>
30a4:	48 83 38 00          	cmp    QWORD PTR [rax],0x0
30a8:	48 89 c3             	mov    rbx,rax
30ab:	74 53                	je     3100 <transfer_entries+0x110>
30ad:	48 8b 45 48          	mov    rax,QWORD PTR [rbp+0x48]
30b1:	48 85 c0             	test   rax,rax
30b4:	74 5a                	je     3110 <transfer_entries+0x120>
30b6:	48 8b 50 08          	mov    rdx,QWORD PTR [rax+0x8]
30ba:	48 89 55 48          	mov    QWORD PTR [rbp+0x48],rdx
30be:	48 8b 53 08          	mov    rdx,QWORD PTR [rbx+0x8]
30c2:	4c 89 38             	mov    QWORD PTR [rax],r15
30c5:	48 89 50 08          	mov    QWORD PTR [rax+0x8],rdx
30c9:	48 89 43 08          	mov    QWORD PTR [rbx+0x8],rax
30cd:	49 c7 04 24 00 00 00 	mov    QWORD PTR [r12],0x0
30d4:	00
30d5:	49 83 6d 18 01       	sub    QWORD PTR [r13+0x18],0x1
30da:	49 83 c4 10          	add    r12,0x10
30de:	4d 39 65 08          	cmp    QWORD PTR [r13+0x8],r12
30e2:	0f 87 30 ff ff ff    	ja     3018 <transfer_entries+0x28>
30e8:	48 83 c4 08          	add    rsp,0x8
30ec:	b8 01 00 00 00       	mov    eax,0x1
30f1:	5b                   	pop    rbx
30f2:	5d                   	pop    rbp
30f3:	41 5c                	pop    r12
30f5:	41 5d                	pop    r13
30f7:	41 5e                	pop    r14
30f9:	41 5f                	pop    r15
30fb:	c3                   	ret
30fc:	0f 1f 40 00          	nop    DWORD PTR [rax+0x0]
3100:	4c 89 38             	mov    QWORD PTR [rax],r15
3103:	48 83 45 18 01       	add    QWORD PTR [rbp+0x18],0x1
3108:	eb c3                	jmp    30cd <transfer_entries+0xdd>
310a:	66 0f 1f 44 00 00    	nop    WORD PTR [rax+rax*1+0x0]
3110:	bf 10 00 00 00       	mov    edi,0x10
3115:	e8 86 e5 ff ff       	call   16a0 <malloc@plt>
311a:	48 85 c0             	test   rax,rax
311d:	75 9f                	jne    30be <transfer_entries+0xce>
311f:	48 83 c4 08          	add    rsp,0x8
3123:	31 c0                	xor    eax,eax
3125:	5b                   	pop    rbx
3126:	5d                   	pop    rbp
3127:	41 5c                	pop    r12
3129:	41 5d                	pop    r13
312b:	41 5e                	pop    r14
312d:	41 5f                	pop    r15
312f:	c3                   	ret

0000000000003130 <hash_get_n_buckets>:
3130:	48 8b 47 10          	mov    rax,QWORD PTR [rdi+0x10]
3134:	c3                   	ret
3135:	90                   	nop
3136:	66 2e 0f 1f 84 00 00 	nop    WORD PTR cs:[rax+rax*1+0x0]
313d:	00 00 00

0000000000003140 <hash_get_n_buckets_used>:
3140:	48 8b 47 18          	mov    rax,QWORD PTR [rdi+0x18]
3144:	c3                   	ret
3145:	90                   	nop
3146:	66 2e 0f 1f 84 00 00 	nop    WORD PTR cs:[rax+rax*1+0x0]
314d:	00 00 00

0000000000003150 <hash_get_n_entries>:
3150:	48 8b 47 20          	mov    rax,QWORD PTR [rdi+0x20]
3154:	c3                   	ret
3155:	90                   	nop
3156:	66 2e 0f 1f 84 00 00 	nop    WORD PTR cs:[rax+rax*1+0x0]
315d:	00 00 00

0000000000003160 <hash_get_max_bucket_length>:
3160:	48 8b 37             	mov    rsi,QWORD PTR [rdi]
3163:	48 8b 7f 08          	mov    rdi,QWORD PTR [rdi+0x8]
3167:	31 c0                	xor    eax,eax
3169:	48 39 fe             	cmp    rsi,rdi
316c:	73 39                	jae    31a7 <hash_get_max_bucket_length+0x47>
316e:	66 90                	xchg   ax,ax
3170:	48 83 3e 00          	cmp    QWORD PTR [rsi],0x0
3174:	74 26                	je     319c <hash_get_max_bucket_length+0x3c>
3176:	48 8b 56 08          	mov    rdx,QWORD PTR [rsi+0x8]
317a:	b9 01 00 00 00       	mov    ecx,0x1
317f:	48 85 d2             	test   rdx,rdx
3182:	74 11                	je     3195 <hash_get_max_bucket_length+0x35>
3184:	0f 1f 40 00          	nop    DWORD PTR [rax+0x0]
3188:	48 8b 52 08          	mov    rdx,QWORD PTR [rdx+0x8]
318c:	48 83 c1 01          	add    rcx,0x1
3190:	48 85 d2             	test   rdx,rdx
3193:	75 f3                	jne    3188 <hash_get_max_bucket_length+0x28>
3195:	48 39 c8             	cmp    rax,rcx
3198:	48 0f 42 c1          	cmovb  rax,rcx
319c:	48 83 c6 10          	add    rsi,0x10
31a0:	48 39 fe             	cmp    rsi,rdi
31a3:	72 cb                	jb     3170 <hash_get_max_bucket_length+0x10>
31a5:	f3 c3                	repz ret
31a7:	f3 c3                	repz ret
31a9:	0f 1f 80 00 00 00 00 	nop    DWORD PTR [rax+0x0]

00000000000031b0 <hash_table_ok>:
31b0:	48 8b 0f             	mov    rcx,QWORD PTR [rdi]
31b3:	4c 8b 47 08          	mov    r8,QWORD PTR [rdi+0x8]
31b7:	31 d2                	xor    edx,edx
31b9:	31 f6                	xor    esi,esi
31bb:	4c 39 c1             	cmp    rcx,r8
31be:	73 36                	jae    31f6 <hash_table_ok+0x46>
31c0:	48 83 39 00          	cmp    QWORD PTR [rcx],0x0
31c4:	74 27                	je     31ed <hash_table_ok+0x3d>
31c6:	48 8b 41 08          	mov    rax,QWORD PTR [rcx+0x8]
31ca:	48 83 c6 01          	add    rsi,0x1
31ce:	48 83 c2 01          	add    rdx,0x1
31d2:	48 85 c0             	test   rax,rax
31d5:	74 16                	je     31ed <hash_table_ok+0x3d>
31d7:	66 0f 1f 84 00 00 00 	nop    WORD PTR [rax+rax*1+0x0]
31de:	00 00
31e0:	48 8b 40 08          	mov    rax,QWORD PTR [rax+0x8]
31e4:	48 83 c2 01          	add    rdx,0x1
31e8:	48 85 c0             	test   rax,rax
31eb:	75 f3                	jne    31e0 <hash_table_ok+0x30>
31ed:	48 83 c1 10          	add    rcx,0x10
31f1:	4c 39 c1             	cmp    rcx,r8
31f4:	72 ca                	jb     31c0 <hash_table_ok+0x10>
31f6:	31 c0                	xor    eax,eax
31f8:	48 39 77 18          	cmp    QWORD PTR [rdi+0x18],rsi
31fc:	74 02                	je     3200 <hash_table_ok+0x50>
31fe:	f3 c3                	repz ret
3200:	48 39 57 20          	cmp    QWORD PTR [rdi+0x20],rdx
3204:	0f 94 c0             	sete   al
3207:	c3                   	ret
3208:	0f 1f 84 00 00 00 00 	nop    DWORD PTR [rax+rax*1+0x0]
320f:	00

0000000000003210 <hash_print_statistics>:
3210:	41 55                	push   r13
3212:	41 54                	push   r12
3214:	49 89 f4             	mov    r12,rsi
3217:	55                   	push   rbp
3218:	53                   	push   rbx
3219:	31 db                	xor    ebx,ebx
321b:	48 83 ec 08          	sub    rsp,0x8
321f:	48 8b 37             	mov    rsi,QWORD PTR [rdi]
3222:	48 8b 4f 20          	mov    rcx,QWORD PTR [rdi+0x20]
3226:	48 8b 6f 10          	mov    rbp,QWORD PTR [rdi+0x10]
322a:	4c 8b 6f 18          	mov    r13,QWORD PTR [rdi+0x18]
322e:	48 8b 7f 08          	mov    rdi,QWORD PTR [rdi+0x8]
3232:	48 39 fe             	cmp    rsi,rdi
3235:	73 3e                	jae    3275 <hash_print_statistics+0x65>
3237:	66 0f 1f 84 00 00 00 	nop    WORD PTR [rax+rax*1+0x0]
323e:	00 00
3240:	48 83 3e 00          	cmp    QWORD PTR [rsi],0x0
3244:	74 26                	je     326c <hash_print_statistics+0x5c>
3246:	48 8b 46 08          	mov    rax,QWORD PTR [rsi+0x8]
324a:	ba 01 00 00 00       	mov    edx,0x1
324f:	48 85 c0             	test   rax,rax
3252:	74 11                	je     3265 <hash_print_statistics+0x55>
3254:	0f 1f 40 00          	nop    DWORD PTR [rax+0x0]
3258:	48 8b 40 08          	mov    rax,QWORD PTR [rax+0x8]
325c:	48 83 c2 01          	add    rdx,0x1
3260:	48 85 c0             	test   rax,rax
3263:	75 f3                	jne    3258 <hash_print_statistics+0x48>
3265:	48 39 d3             	cmp    rbx,rdx
3268:	48 0f 42 da          	cmovb  rbx,rdx
326c:	48 83 c6 10          	add    rsi,0x10
3270:	48 39 fe             	cmp    rsi,rdi
3273:	72 cb                	jb     3240 <hash_print_statistics+0x30>
3275:	48 8d 15 94 42 00 00 	lea    rdx,[rip+0x4294]        # 7510 <_IO_stdin_used+0x5d0>
327c:	be 01 00 00 00       	mov    esi,0x1
3281:	4c 89 e7             	mov    rdi,r12
3284:	31 c0                	xor    eax,eax
3286:	e8 e5 e4 ff ff       	call   1770 <__fprintf_chk@plt>
328b:	48 8d 15 96 42 00 00 	lea    rdx,[rip+0x4296]        # 7528 <_IO_stdin_used+0x5e8>
3292:	31 c0                	xor    eax,eax
3294:	48 89 e9             	mov    rcx,rbp
3297:	be 01 00 00 00       	mov    esi,0x1
329c:	4c 89 e7             	mov    rdi,r12
329f:	e8 cc e4 ff ff       	call   1770 <__fprintf_chk@plt>
32a4:	4d 85 ed             	test   r13,r13
32a7:	78 67                	js     3310 <hash_print_statistics+0x100>
32a9:	66 0f ef c0          	pxor   xmm0,xmm0
32ad:	48 85 ed             	test   rbp,rbp
32b0:	f2 49 0f 2a c5       	cvtsi2sd xmm0,r13
32b5:	f2 0f 59 05 fb 42 00 	mulsd  xmm0,QWORD PTR [rip+0x42fb]        # 75b8 <default_tuning+0x38>
32bc:	00
32bd:	78 7a                	js     3339 <hash_print_statistics+0x129>
32bf:	66 0f ef c9          	pxor   xmm1,xmm1
32c3:	f2 48 0f 2a cd       	cvtsi2sd xmm1,rbp
32c8:	f2 0f 5e c1          	divsd  xmm0,xmm1
32cc:	48 8d 15 85 42 00 00 	lea    rdx,[rip+0x4285]        # 7558 <_IO_stdin_used+0x618>
32d3:	4c 89 e9             	mov    rcx,r13
32d6:	4c 89 e7             	mov    rdi,r12
32d9:	be 01 00 00 00       	mov    esi,0x1
32de:	b8 01 00 00 00       	mov    eax,0x1
32e3:	e8 88 e4 ff ff       	call   1770 <__fprintf_chk@plt>
32e8:	48 83 c4 08          	add    rsp,0x8
32ec:	48 89 d9             	mov    rcx,rbx
32ef:	4c 89 e7             	mov    rdi,r12
32f2:	5b                   	pop    rbx
32f3:	5d                   	pop    rbp
32f4:	41 5c                	pop    r12
32f6:	41 5d                	pop    r13
32f8:	48 8d 15 41 42 00 00 	lea    rdx,[rip+0x4241]        # 7540 <_IO_stdin_used+0x600>
32ff:	be 01 00 00 00       	mov    esi,0x1
3304:	31 c0                	xor    eax,eax
3306:	e9 65 e4 ff ff       	jmp    1770 <__fprintf_chk@plt>
330b:	0f 1f 44 00 00       	nop    DWORD PTR [rax+rax*1+0x0]
3310:	4c 89 e8             	mov    rax,r13
3313:	4c 89 ea             	mov    rdx,r13
3316:	66 0f ef c0          	pxor   xmm0,xmm0
331a:	48 d1 e8             	shr    rax,1
331d:	83 e2 01             	and    edx,0x1
3320:	48 09 d0             	or     rax,rdx
3323:	48 85 ed             	test   rbp,rbp
3326:	f2 48 0f 2a c0       	cvtsi2sd xmm0,rax
332b:	f2 0f 58 c0          	addsd  xmm0,xmm0
332f:	f2 0f 59 05 81 42 00 	mulsd  xmm0,QWORD PTR [rip+0x4281]        # 75b8 <default_tuning+0x38>
3336:	00
3337:	79 86                	jns    32bf <hash_print_statistics+0xaf>
3339:	48 89 e8             	mov    rax,rbp
333c:	66 0f ef c9          	pxor   xmm1,xmm1
3340:	48 d1 e8             	shr    rax,1
3343:	83 e5 01             	and    ebp,0x1
3346:	48 09 e8             	or     rax,rbp
3349:	f2 48 0f 2a c8       	cvtsi2sd xmm1,rax
334e:	f2 0f 58 c9          	addsd  xmm1,xmm1
3352:	e9 71 ff ff ff       	jmp    32c8 <hash_print_statistics+0xb8>
3357:	66 0f 1f 84 00 00 00 	nop    WORD PTR [rax+rax*1+0x0]
335e:	00 00

0000000000003360 <hash_lookup>:
3360:	41 54                	push   r12
3362:	55                   	push   rbp
3363:	49 89 fc             	mov    r12,rdi
3366:	53                   	push   rbx
3367:	48 89 f5             	mov    rbp,rsi
336a:	e8 b1 fa ff ff       	call   2e20 <safe_hasher>
336f:	48 8b 30             	mov    rsi,QWORD PTR [rax]
3372:	48 85 f6             	test   rsi,rsi
3375:	74 26                	je     339d <hash_lookup+0x3d>
3377:	48 89 c3             	mov    rbx,rax
337a:	eb 07                	jmp    3383 <hash_lookup+0x23>
337c:	0f 1f 40 00          	nop    DWORD PTR [rax+0x0]
3380:	48 8b 33             	mov    rsi,QWORD PTR [rbx]
3383:	48 39 ee             	cmp    rsi,rbp
3386:	74 17                	je     339f <hash_lookup+0x3f>
3388:	48 89 ef             	mov    rdi,rbp
338b:	41 ff 54 24 38       	call   QWORD PTR [r12+0x38]
3390:	84 c0                	test   al,al
3392:	75 1c                	jne    33b0 <hash_lookup+0x50>
3394:	48 8b 5b 08          	mov    rbx,QWORD PTR [rbx+0x8]
3398:	48 85 db             	test   rbx,rbx
339b:	75 e3                	jne    3380 <hash_lookup+0x20>
339d:	31 f6                	xor    esi,esi
339f:	5b                   	pop    rbx
33a0:	48 89 f0             	mov    rax,rsi
33a3:	5d                   	pop    rbp
33a4:	41 5c                	pop    r12
33a6:	c3                   	ret
33a7:	66 0f 1f 84 00 00 00 	nop    WORD PTR [rax+rax*1+0x0]
33ae:	00 00
33b0:	48 8b 33             	mov    rsi,QWORD PTR [rbx]
33b3:	5b                   	pop    rbx
33b4:	5d                   	pop    rbp
33b5:	48 89 f0             	mov    rax,rsi
33b8:	41 5c                	pop    r12
33ba:	c3                   	ret
33bb:	0f 1f 44 00 00       	nop    DWORD PTR [rax+rax*1+0x0]

00000000000033c0 <hash_get_first>:
33c0:	48 83 7f 20 00       	cmp    QWORD PTR [rdi+0x20],0x0
33c5:	74 2c                	je     33f3 <hash_get_first+0x33>
33c7:	48 8b 17             	mov    rdx,QWORD PTR [rdi]
33ca:	48 8b 4f 08          	mov    rcx,QWORD PTR [rdi+0x8]
33ce:	48 39 ca             	cmp    rdx,rcx
33d1:	73 25                	jae    33f8 <hash_get_first+0x38>
33d3:	48 8b 02             	mov    rax,QWORD PTR [rdx]
33d6:	48 85 c0             	test   rax,rax
33d9:	75 1b                	jne    33f6 <hash_get_first+0x36>
33db:	0f 1f 44 00 00       	nop    DWORD PTR [rax+rax*1+0x0]
33e0:	48 83 c2 10          	add    rdx,0x10
33e4:	48 39 ca             	cmp    rdx,rcx
33e7:	73 0f                	jae    33f8 <hash_get_first+0x38>
33e9:	48 8b 02             	mov    rax,QWORD PTR [rdx]
33ec:	48 85 c0             	test   rax,rax
33ef:	74 ef                	je     33e0 <hash_get_first+0x20>
33f1:	f3 c3                	repz ret
33f3:	31 c0                	xor    eax,eax
33f5:	c3                   	ret
33f6:	f3 c3                	repz ret
33f8:	48 83 ec 08          	sub    rsp,0x8
33fc:	e8 bf e0 ff ff       	call   14c0 <abort@plt>
3401:	0f 1f 44 00 00       	nop    DWORD PTR [rax+rax*1+0x0]
3406:	66 2e 0f 1f 84 00 00 	nop    WORD PTR cs:[rax+rax*1+0x0]
340d:	00 00 00

0000000000003410 <hash_get_next>:
3410:	55                   	push   rbp
3411:	53                   	push   rbx
3412:	48 89 fd             	mov    rbp,rdi
3415:	48 89 f3             	mov    rbx,rsi
3418:	48 83 ec 08          	sub    rsp,0x8
341c:	e8 ff f9 ff ff       	call   2e20 <safe_hasher>
3421:	48 89 c2             	mov    rdx,rax
3424:	48 89 c1             	mov    rcx,rax
3427:	48 8b 02             	mov    rax,QWORD PTR [rdx]
342a:	48 8b 52 08          	mov    rdx,QWORD PTR [rdx+0x8]
342e:	48 39 d8             	cmp    rax,rbx
3431:	74 16                	je     3449 <hash_get_next+0x39>
3433:	0f 1f 44 00 00       	nop    DWORD PTR [rax+rax*1+0x0]
3438:	48 85 d2             	test   rdx,rdx
343b:	74 11                	je     344e <hash_get_next+0x3e>
343d:	48 8b 02             	mov    rax,QWORD PTR [rdx]
3440:	48 8b 52 08          	mov    rdx,QWORD PTR [rdx+0x8]
3444:	48 39 d8             	cmp    rax,rbx
3447:	75 ef                	jne    3438 <hash_get_next+0x28>
3449:	48 85 d2             	test   rdx,rdx
344c:	75 2a                	jne    3478 <hash_get_next+0x68>
344e:	48 8b 55 08          	mov    rdx,QWORD PTR [rbp+0x8]
3452:	eb 0c                	jmp    3460 <hash_get_next+0x50>
3454:	0f 1f 40 00          	nop    DWORD PTR [rax+0x0]
3458:	48 8b 01             	mov    rax,QWORD PTR [rcx]
345b:	48 85 c0             	test   rax,rax
345e:	75 0b                	jne    346b <hash_get_next+0x5b>
3460:	48 83 c1 10          	add    rcx,0x10
3464:	48 39 ca             	cmp    rdx,rcx
3467:	77 ef                	ja     3458 <hash_get_next+0x48>
3469:	31 c0                	xor    eax,eax
346b:	48 83 c4 08          	add    rsp,0x8
346f:	5b                   	pop    rbx
3470:	5d                   	pop    rbp
3471:	c3                   	ret
3472:	66 0f 1f 44 00 00    	nop    WORD PTR [rax+rax*1+0x0]
3478:	48 8b 02             	mov    rax,QWORD PTR [rdx]
347b:	48 83 c4 08          	add    rsp,0x8
347f:	5b                   	pop    rbx
3480:	5d                   	pop    rbp
3481:	c3                   	ret
3482:	0f 1f 40 00          	nop    DWORD PTR [rax+0x0]
3486:	66 2e 0f 1f 84 00 00 	nop    WORD PTR cs:[rax+rax*1+0x0]
348d:	00 00 00

0000000000003490 <hash_get_entries>:
3490:	4c 8b 0f             	mov    r9,QWORD PTR [rdi]
3493:	4c 39 4f 08          	cmp    QWORD PTR [rdi+0x8],r9
3497:	76 59                	jbe    34f2 <hash_get_entries+0x62>
3499:	45 31 c0             	xor    r8d,r8d
349c:	49 8b 09             	mov    rcx,QWORD PTR [r9]
349f:	48 85 c9             	test   rcx,rcx
34a2:	74 39                	je     34dd <hash_get_entries+0x4d>
34a4:	4c 39 c2             	cmp    rdx,r8
34a7:	76 3e                	jbe    34e7 <hash_get_entries+0x57>
34a9:	4a 89 0c c6          	mov    QWORD PTR [rsi+r8*8],rcx
34ad:	49 8b 49 08          	mov    rcx,QWORD PTR [r9+0x8]
34b1:	49 8d 40 01          	lea    rax,[r8+0x1]
34b5:	48 85 c9             	test   rcx,rcx
34b8:	74 20                	je     34da <hash_get_entries+0x4a>
34ba:	66 0f 1f 44 00 00    	nop    WORD PTR [rax+rax*1+0x0]
34c0:	48 39 c2             	cmp    rdx,rax
34c3:	74 2b                	je     34f0 <hash_get_entries+0x60>
34c5:	4c 8b 01             	mov    r8,QWORD PTR [rcx]
34c8:	48 83 c0 01          	add    rax,0x1
34cc:	4c 89 44 c6 f8       	mov    QWORD PTR [rsi+rax*8-0x8],r8
34d1:	48 8b 49 08          	mov    rcx,QWORD PTR [rcx+0x8]
34d5:	48 85 c9             	test   rcx,rcx
34d8:	75 e6                	jne    34c0 <hash_get_entries+0x30>
34da:	49 89 c0             	mov    r8,rax
34dd:	49 83 c1 10          	add    r9,0x10
34e1:	4c 39 4f 08          	cmp    QWORD PTR [rdi+0x8],r9
34e5:	77 b5                	ja     349c <hash_get_entries+0xc>
34e7:	4c 89 c0             	mov    rax,r8
34ea:	c3                   	ret
34eb:	0f 1f 44 00 00       	nop    DWORD PTR [rax+rax*1+0x0]
34f0:	f3 c3                	repz ret
34f2:	31 c0                	xor    eax,eax
34f4:	c3                   	ret
34f5:	90                   	nop
34f6:	66 2e 0f 1f 84 00 00 	nop    WORD PTR cs:[rax+rax*1+0x0]
34fd:	00 00 00

0000000000003500 <hash_do_for_each>:
3500:	41 57                	push   r15
3502:	41 56                	push   r14
3504:	41 55                	push   r13
3506:	41 54                	push   r12
3508:	55                   	push   rbp
3509:	53                   	push   rbx
350a:	48 83 ec 08          	sub    rsp,0x8
350e:	4c 8b 37             	mov    r14,QWORD PTR [rdi]
3511:	4c 39 77 08          	cmp    QWORD PTR [rdi+0x8],r14
3515:	76 4f                	jbe    3566 <hash_do_for_each+0x66>
3517:	49 89 d5             	mov    r13,rdx
351a:	49 89 f4             	mov    r12,rsi
351d:	49 89 ff             	mov    r15,rdi
3520:	31 ed                	xor    ebp,ebp
3522:	49 8b 3e             	mov    rdi,QWORD PTR [r14]
3525:	48 85 ff             	test   rdi,rdi
3528:	74 20                	je     354a <hash_do_for_each+0x4a>
352a:	4c 89 f3             	mov    rbx,r14
352d:	eb 04                	jmp    3533 <hash_do_for_each+0x33>
352f:	90                   	nop
3530:	48 8b 3b             	mov    rdi,QWORD PTR [rbx]
3533:	4c 89 ee             	mov    rsi,r13
3536:	41 ff d4             	call   r12
3539:	84 c0                	test   al,al
353b:	74 17                	je     3554 <hash_do_for_each+0x54>
353d:	48 8b 5b 08          	mov    rbx,QWORD PTR [rbx+0x8]
3541:	48 83 c5 01          	add    rbp,0x1
3545:	48 85 db             	test   rbx,rbx
3548:	75 e6                	jne    3530 <hash_do_for_each+0x30>
354a:	49 83 c6 10          	add    r14,0x10
354e:	4d 39 77 08          	cmp    QWORD PTR [r15+0x8],r14
3552:	77 ce                	ja     3522 <hash_do_for_each+0x22>
3554:	48 83 c4 08          	add    rsp,0x8
3558:	48 89 e8             	mov    rax,rbp
355b:	5b                   	pop    rbx
355c:	5d                   	pop    rbp
355d:	41 5c                	pop    r12
355f:	41 5d                	pop    r13
3561:	41 5e                	pop    r14
3563:	41 5f                	pop    r15
3565:	c3                   	ret
3566:	31 ed                	xor    ebp,ebp
3568:	eb ea                	jmp    3554 <hash_do_for_each+0x54>
356a:	66 0f 1f 44 00 00    	nop    WORD PTR [rax+rax*1+0x0]

0000000000003570 <hash_string>:
3570:	0f b6 0f             	movzx  ecx,BYTE PTR [rdi]
3573:	31 d2                	xor    edx,edx
3575:	84 c9                	test   cl,cl
3577:	74 24                	je     359d <hash_string+0x2d>
3579:	0f 1f 80 00 00 00 00 	nop    DWORD PTR [rax+0x0]
3580:	48 89 d0             	mov    rax,rdx
3583:	48 83 c7 01          	add    rdi,0x1
3587:	48 c1 e0 05          	shl    rax,0x5
358b:	48 29 d0             	sub    rax,rdx
358e:	31 d2                	xor    edx,edx
3590:	48 01 c8             	add    rax,rcx
3593:	0f b6 0f             	movzx  ecx,BYTE PTR [rdi]
3596:	48 f7 f6             	div    rsi
3599:	84 c9                	test   cl,cl
359b:	75 e3                	jne    3580 <hash_string+0x10>
359d:	48 89 d0             	mov    rax,rdx
35a0:	c3                   	ret
35a1:	0f 1f 44 00 00       	nop    DWORD PTR [rax+rax*1+0x0]
35a6:	66 2e 0f 1f 84 00 00 	nop    WORD PTR cs:[rax+rax*1+0x0]
35ad:	00 00 00

00000000000035b0 <hash_reset_tuning>:
35b0:	48 b8 00 00 00 00 00 	movabs rax,0x3f80000000000000
35b7:	00 80 3f
35ba:	c6 47 10 00          	mov    BYTE PTR [rdi+0x10],0x0
35be:	48 89 07             	mov    QWORD PTR [rdi],rax
35c1:	48 b8 cd cc 4c 3f f4 	movabs rax,0x3fb4fdf43f4ccccd
35c8:	fd b4 3f
35cb:	48 89 47 08          	mov    QWORD PTR [rdi+0x8],rax
35cf:	c3                   	ret

00000000000035d0 <hash_initialize>:
35d0:	41 57                	push   r15
35d2:	41 56                	push   r14
35d4:	48 8d 05 25 f8 ff ff 	lea    rax,[rip+0xfffffffffffff825]        # 2e00 <raw_hasher>
35db:	41 55                	push   r13
35dd:	41 54                	push   r12
35df:	49 89 d4             	mov    r12,rdx
35e2:	55                   	push   rbp
35e3:	53                   	push   rbx
35e4:	49 89 cd             	mov    r13,rcx
35e7:	48 89 fd             	mov    rbp,rdi
35ea:	bf 50 00 00 00       	mov    edi,0x50
35ef:	49 89 f7             	mov    r15,rsi
35f2:	48 83 ec 08          	sub    rsp,0x8
35f6:	48 85 d2             	test   rdx,rdx
35f9:	4d 89 c6             	mov    r14,r8
35fc:	4c 0f 44 e0          	cmove  r12,rax
3600:	48 8d 05 09 f8 ff ff 	lea    rax,[rip+0xfffffffffffff809]        # 2e10 <raw_comparator>
3607:	48 85 c9             	test   rcx,rcx
360a:	4c 0f 44 e8          	cmove  r13,rax
360e:	e8 8d e0 ff ff       	call   16a0 <malloc@plt>
3613:	48 85 c0             	test   rax,rax
3616:	48 89 c3             	mov    rbx,rax
3619:	0f 84 ab 00 00 00    	je     36ca <hash_initialize+0xfa>
361f:	4d 85 ff             	test   r15,r15
3622:	48 8d 78 28          	lea    rdi,[rax+0x28]
3626:	0f 84 b4 00 00 00    	je     36e0 <hash_initialize+0x110>
362c:	4c 89 78 28          	mov    QWORD PTR [rax+0x28],r15
3630:	e8 3b f9 ff ff       	call   2f70 <check_tuning.isra.0>
3635:	84 c0                	test   al,al
3637:	0f 84 83 00 00 00    	je     36c0 <hash_initialize+0xf0>
363d:	41 80 7f 10 00       	cmp    BYTE PTR [r15+0x10],0x0
3642:	0f 84 f8 00 00 00    	je     3740 <hash_initialize+0x170>
3648:	48 89 ef             	mov    rdi,rbp
364b:	e8 10 f7 ff ff       	call   2d60 <next_prime>
3650:	ba 08 00 00 00       	mov    edx,0x8
3655:	48 89 c5             	mov    rbp,rax
3658:	31 c9                	xor    ecx,ecx
365a:	48 89 d0             	mov    rax,rdx
365d:	48 f7 e5             	mul    rbp
3660:	0f 80 14 01 00 00    	jo     377a <hash_initialize+0x1aa>
3666:	48 85 c0             	test   rax,rax
3669:	78 55                	js     36c0 <hash_initialize+0xf0>
366b:	48 85 c9             	test   rcx,rcx
366e:	75 50                	jne    36c0 <hash_initialize+0xf0>
3670:	48 85 ed             	test   rbp,rbp
3673:	48 89 6b 10          	mov    QWORD PTR [rbx+0x10],rbp
3677:	74 47                	je     36c0 <hash_initialize+0xf0>
3679:	be 10 00 00 00       	mov    esi,0x10
367e:	48 89 ef             	mov    rdi,rbp
3681:	e8 ca df ff ff       	call   1650 <calloc@plt>
3686:	48 85 c0             	test   rax,rax
3689:	48 89 03             	mov    QWORD PTR [rbx],rax
368c:	74 32                	je     36c0 <hash_initialize+0xf0>
368e:	48 c1 e5 04          	shl    rbp,0x4
3692:	48 c7 43 18 00 00 00 	mov    QWORD PTR [rbx+0x18],0x0
3699:	00
369a:	48 c7 43 20 00 00 00 	mov    QWORD PTR [rbx+0x20],0x0
36a1:	00
36a2:	48 01 c5             	add    rbp,rax
36a5:	4c 89 63 30          	mov    QWORD PTR [rbx+0x30],r12
36a9:	4c 89 6b 38          	mov    QWORD PTR [rbx+0x38],r13
36ad:	48 89 6b 08          	mov    QWORD PTR [rbx+0x8],rbp
36b1:	4c 89 73 40          	mov    QWORD PTR [rbx+0x40],r14
36b5:	48 c7 43 48 00 00 00 	mov    QWORD PTR [rbx+0x48],0x0
36bc:	00
36bd:	eb 0b                	jmp    36ca <hash_initialize+0xfa>
36bf:	90                   	nop
36c0:	48 89 df             	mov    rdi,rbx
36c3:	31 db                	xor    ebx,ebx
36c5:	e8 e6 dd ff ff       	call   14b0 <free@plt>
36ca:	48 83 c4 08          	add    rsp,0x8
36ce:	48 89 d8             	mov    rax,rbx
36d1:	5b                   	pop    rbx
36d2:	5d                   	pop    rbp
36d3:	41 5c                	pop    r12
36d5:	41 5d                	pop    r13
36d7:	41 5e                	pop    r14
36d9:	41 5f                	pop    r15
36db:	c3                   	ret
36dc:	0f 1f 40 00          	nop    DWORD PTR [rax+0x0]
36e0:	48 8d 05 99 3e 00 00 	lea    rax,[rip+0x3e99]        # 7580 <default_tuning>
36e7:	48 89 43 28          	mov    QWORD PTR [rbx+0x28],rax
36eb:	e8 80 f8 ff ff       	call   2f70 <check_tuning.isra.0>
36f0:	84 c0                	test   al,al
36f2:	f3 0f 10 0d ae 3e 00 	movss  xmm1,DWORD PTR [rip+0x3eae]        # 75a8 <default_tuning+0x28>
36f9:	00
36fa:	74 c4                	je     36c0 <hash_initialize+0xf0>
36fc:	48 85 ed             	test   rbp,rbp
36ff:	78 4a                	js     374b <hash_initialize+0x17b>
3701:	66 0f ef c0          	pxor   xmm0,xmm0
3705:	f3 48 0f 2a c5       	cvtsi2ss xmm0,rbp
370a:	f3 0f 5e c1          	divss  xmm0,xmm1
370e:	0f 2e 05 97 3e 00 00 	ucomiss xmm0,DWORD PTR [rip+0x3e97]        # 75ac <default_tuning+0x2c>
3715:	73 a9                	jae    36c0 <hash_initialize+0xf0>
3717:	0f 2e 05 92 3e 00 00 	ucomiss xmm0,DWORD PTR [rip+0x3e92]        # 75b0 <default_tuning+0x30>
371e:	72 50                	jb     3770 <hash_initialize+0x1a0>
3720:	f3 0f 5c 05 88 3e 00 	subss  xmm0,DWORD PTR [rip+0x3e88]        # 75b0 <default_tuning+0x30>
3727:	00
3728:	48 b8 00 00 00 00 00 	movabs rax,0x8000000000000000
372f:	00 00 80
3732:	f3 48 0f 2c e8       	cvttss2si rbp,xmm0
3737:	48 31 c5             	xor    rbp,rax
373a:	e9 09 ff ff ff       	jmp    3648 <hash_initialize+0x78>
373f:	90                   	nop
3740:	48 85 ed             	test   rbp,rbp
3743:	f3 41 0f 10 4f 08    	movss  xmm1,DWORD PTR [r15+0x8]
3749:	79 b6                	jns    3701 <hash_initialize+0x131>
374b:	48 89 e8             	mov    rax,rbp
374e:	66 0f ef c0          	pxor   xmm0,xmm0
3752:	48 d1 e8             	shr    rax,1
3755:	83 e5 01             	and    ebp,0x1
3758:	48 09 e8             	or     rax,rbp
375b:	f3 48 0f 2a c0       	cvtsi2ss xmm0,rax
3760:	f3 0f 58 c0          	addss  xmm0,xmm0
3764:	eb a4                	jmp    370a <hash_initialize+0x13a>
3766:	66 2e 0f 1f 84 00 00 	nop    WORD PTR cs:[rax+rax*1+0x0]
376d:	00 00 00
3770:	f3 48 0f 2c e8       	cvttss2si rbp,xmm0
3775:	e9 ce fe ff ff       	jmp    3648 <hash_initialize+0x78>
377a:	b9 01 00 00 00       	mov    ecx,0x1
377f:	e9 e2 fe ff ff       	jmp    3666 <hash_initialize+0x96>
3784:	66 90                	xchg   ax,ax
3786:	66 2e 0f 1f 84 00 00 	nop    WORD PTR cs:[rax+rax*1+0x0]
378d:	00 00 00

0000000000003790 <hash_clear>:
3790:	41 54                	push   r12
3792:	55                   	push   rbp
3793:	48 89 fd             	mov    rbp,rdi
3796:	53                   	push   rbx
3797:	4c 8b 27             	mov    r12,QWORD PTR [rdi]
379a:	4c 3b 67 08          	cmp    r12,QWORD PTR [rdi+0x8]
379e:	73 6b                	jae    380b <hash_clear+0x7b>
37a0:	49 83 3c 24 00       	cmp    QWORD PTR [r12],0x0
37a5:	74 5a                	je     3801 <hash_clear+0x71>
37a7:	49 8b 5c 24 08       	mov    rbx,QWORD PTR [r12+0x8]
37ac:	48 8b 45 40          	mov    rax,QWORD PTR [rbp+0x40]
37b0:	48 85 db             	test   rbx,rbx
37b3:	74 30                	je     37e5 <hash_clear+0x55>
37b5:	0f 1f 00             	nop    DWORD PTR [rax]
37b8:	48 85 c0             	test   rax,rax
37bb:	74 09                	je     37c6 <hash_clear+0x36>
37bd:	48 8b 3b             	mov    rdi,QWORD PTR [rbx]
37c0:	ff d0                	call   rax
37c2:	48 8b 45 40          	mov    rax,QWORD PTR [rbp+0x40]
37c6:	48 8b 53 08          	mov    rdx,QWORD PTR [rbx+0x8]
37ca:	48 8b 4d 48          	mov    rcx,QWORD PTR [rbp+0x48]
37ce:	48 c7 03 00 00 00 00 	mov    QWORD PTR [rbx],0x0
37d5:	48 85 d2             	test   rdx,rdx
37d8:	48 89 4b 08          	mov    QWORD PTR [rbx+0x8],rcx
37dc:	48 89 5d 48          	mov    QWORD PTR [rbp+0x48],rbx
37e0:	48 89 d3             	mov    rbx,rdx
37e3:	75 d3                	jne    37b8 <hash_clear+0x28>
37e5:	48 85 c0             	test   rax,rax
37e8:	74 06                	je     37f0 <hash_clear+0x60>
37ea:	49 8b 3c 24          	mov    rdi,QWORD PTR [r12]
37ee:	ff d0                	call   rax
37f0:	49 c7 04 24 00 00 00 	mov    QWORD PTR [r12],0x0
37f7:	00
37f8:	49 c7 44 24 08 00 00 	mov    QWORD PTR [r12+0x8],0x0
37ff:	00 00
3801:	49 83 c4 10          	add    r12,0x10
3805:	4c 39 65 08          	cmp    QWORD PTR [rbp+0x8],r12
3809:	77 95                	ja     37a0 <hash_clear+0x10>
380b:	48 c7 45 18 00 00 00 	mov    QWORD PTR [rbp+0x18],0x0
3812:	00
3813:	48 c7 45 20 00 00 00 	mov    QWORD PTR [rbp+0x20],0x0
381a:	00
381b:	5b                   	pop    rbx
381c:	5d                   	pop    rbp
381d:	41 5c                	pop    r12
381f:	c3                   	ret

0000000000003820 <hash_free>:
3820:	41 54                	push   r12
3822:	55                   	push   rbp
3823:	49 89 fc             	mov    r12,rdi
3826:	53                   	push   rbx
3827:	48 83 7f 40 00       	cmp    QWORD PTR [rdi+0x40],0x0
382c:	48 8b 2f             	mov    rbp,QWORD PTR [rdi]
382f:	48 8b 47 08          	mov    rax,QWORD PTR [rdi+0x8]
3833:	74 4e                	je     3883 <hash_free+0x63>
3835:	48 83 7f 20 00       	cmp    QWORD PTR [rdi+0x20],0x0
383a:	74 47                	je     3883 <hash_free+0x63>
383c:	48 39 c5             	cmp    rbp,rax
383f:	73 7b                	jae    38bc <hash_free+0x9c>
3841:	0f 1f 80 00 00 00 00 	nop    DWORD PTR [rax+0x0]
3848:	48 8b 7d 00          	mov    rdi,QWORD PTR [rbp+0x0]
384c:	48 85 ff             	test   rdi,rdi
384f:	74 25                	je     3876 <hash_free+0x56>
3851:	48 89 eb             	mov    rbx,rbp
3854:	eb 0d                	jmp    3863 <hash_free+0x43>
3856:	66 2e 0f 1f 84 00 00 	nop    WORD PTR cs:[rax+rax*1+0x0]
385d:	00 00 00
3860:	48 8b 3b             	mov    rdi,QWORD PTR [rbx]
3863:	41 ff 54 24 40       	call   QWORD PTR [r12+0x40]
3868:	48 8b 5b 08          	mov    rbx,QWORD PTR [rbx+0x8]
386c:	48 85 db             	test   rbx,rbx
386f:	75 ef                	jne    3860 <hash_free+0x40>
3871:	49 8b 44 24 08       	mov    rax,QWORD PTR [r12+0x8]
3876:	48 83 c5 10          	add    rbp,0x10
387a:	48 39 e8             	cmp    rax,rbp
387d:	77 c9                	ja     3848 <hash_free+0x28>
387f:	49 8b 2c 24          	mov    rbp,QWORD PTR [r12]
3883:	48 39 c5             	cmp    rbp,rax
3886:	73 34                	jae    38bc <hash_free+0x9c>
3888:	0f 1f 84 00 00 00 00 	nop    DWORD PTR [rax+rax*1+0x0]
388f:	00
3890:	48 8b 7d 08          	mov    rdi,QWORD PTR [rbp+0x8]
3894:	48 85 ff             	test   rdi,rdi
3897:	74 18                	je     38b1 <hash_free+0x91>
3899:	0f 1f 80 00 00 00 00 	nop    DWORD PTR [rax+0x0]
38a0:	48 8b 5f 08          	mov    rbx,QWORD PTR [rdi+0x8]
38a4:	e8 07 dc ff ff       	call   14b0 <free@plt>
38a9:	48 85 db             	test   rbx,rbx
38ac:	48 89 df             	mov    rdi,rbx
38af:	75 ef                	jne    38a0 <hash_free+0x80>
38b1:	48 83 c5 10          	add    rbp,0x10
38b5:	49 39 6c 24 08       	cmp    QWORD PTR [r12+0x8],rbp
38ba:	77 d4                	ja     3890 <hash_free+0x70>
38bc:	49 8b 7c 24 48       	mov    rdi,QWORD PTR [r12+0x48]
38c1:	48 85 ff             	test   rdi,rdi
38c4:	74 1b                	je     38e1 <hash_free+0xc1>
38c6:	66 2e 0f 1f 84 00 00 	nop    WORD PTR cs:[rax+rax*1+0x0]
38cd:	00 00 00
38d0:	48 8b 5f 08          	mov    rbx,QWORD PTR [rdi+0x8]
38d4:	e8 d7 db ff ff       	call   14b0 <free@plt>
38d9:	48 85 db             	test   rbx,rbx
38dc:	48 89 df             	mov    rdi,rbx
38df:	75 ef                	jne    38d0 <hash_free+0xb0>
38e1:	49 8b 3c 24          	mov    rdi,QWORD PTR [r12]
38e5:	e8 c6 db ff ff       	call   14b0 <free@plt>
38ea:	5b                   	pop    rbx
38eb:	4c 89 e7             	mov    rdi,r12
38ee:	5d                   	pop    rbp
38ef:	41 5c                	pop    r12
38f1:	e9 ba db ff ff       	jmp    14b0 <free@plt>
38f6:	66 2e 0f 1f 84 00 00 	nop    WORD PTR cs:[rax+rax*1+0x0]
38fd:	00 00 00

0000000000003900 <hash_rehash>:
3900:	41 54                	push   r12
3902:	55                   	push   rbp
3903:	48 89 fd             	mov    rbp,rdi
3906:	53                   	push   rbx
3907:	48 83 ec 60          	sub    rsp,0x60
390b:	4c 8b 67 28          	mov    r12,QWORD PTR [rdi+0x28]
390f:	64 48 8b 04 25 28 00 	mov    rax,QWORD PTR fs:0x28
3916:	00 00
3918:	48 89 44 24 58       	mov    QWORD PTR [rsp+0x58],rax
391d:	31 c0                	xor    eax,eax
391f:	41 80 7c 24 10 00    	cmp    BYTE PTR [r12+0x10],0x0
3925:	75 51                	jne    3978 <hash_rehash+0x78>
3927:	48 85 f6             	test   rsi,rsi
392a:	0f 88 78 01 00 00    	js     3aa8 <hash_rehash+0x1a8>
3930:	66 0f ef c0          	pxor   xmm0,xmm0
3934:	f3 48 0f 2a c6       	cvtsi2ss xmm0,rsi
3939:	f3 41 0f 5e 44 24 08 	divss  xmm0,DWORD PTR [r12+0x8]
3940:	0f 2e 05 65 3c 00 00 	ucomiss xmm0,DWORD PTR [rip+0x3c65]        # 75ac <default_tuning+0x2c>
3947:	0f 83 33 01 00 00    	jae    3a80 <hash_rehash+0x180>
394d:	0f 2e 05 5c 3c 00 00 	ucomiss xmm0,DWORD PTR [rip+0x3c5c]        # 75b0 <default_tuning+0x30>
3954:	0f 82 76 01 00 00    	jb     3ad0 <hash_rehash+0x1d0>
395a:	f3 0f 5c 05 4e 3c 00 	subss  xmm0,DWORD PTR [rip+0x3c4e]        # 75b0 <default_tuning+0x30>
3961:	00
3962:	48 b8 00 00 00 00 00 	movabs rax,0x8000000000000000
3969:	00 00 80
396c:	f3 48 0f 2c f0       	cvttss2si rsi,xmm0
3971:	48 31 c6             	xor    rsi,rax
3974:	0f 1f 40 00          	nop    DWORD PTR [rax+0x0]
3978:	48 89 f7             	mov    rdi,rsi
397b:	e8 e0 f3 ff ff       	call   2d60 <next_prime>
3980:	ba 08 00 00 00       	mov    edx,0x8
3985:	48 89 c3             	mov    rbx,rax
3988:	31 c9                	xor    ecx,ecx
398a:	48 89 d0             	mov    rax,rdx
398d:	48 f7 e3             	mul    rbx
3990:	0f 80 99 01 00 00    	jo     3b2f <hash_rehash+0x22f>
3996:	48 85 c0             	test   rax,rax
3999:	b8 01 00 00 00       	mov    eax,0x1
399e:	48 0f 48 c8          	cmovs  rcx,rax
39a2:	48 85 db             	test   rbx,rbx
39a5:	0f 84 d5 00 00 00    	je     3a80 <hash_rehash+0x180>
39ab:	83 e1 01             	and    ecx,0x1
39ae:	0f 85 cc 00 00 00    	jne    3a80 <hash_rehash+0x180>
39b4:	48 39 5d 10          	cmp    QWORD PTR [rbp+0x10],rbx
39b8:	0f 84 22 01 00 00    	je     3ae0 <hash_rehash+0x1e0>
39be:	be 10 00 00 00       	mov    esi,0x10
39c3:	48 89 df             	mov    rdi,rbx
39c6:	e8 85 dc ff ff       	call   1650 <calloc@plt>
39cb:	48 85 c0             	test   rax,rax
39ce:	48 89 04 24          	mov    QWORD PTR [rsp],rax
39d2:	0f 84 a8 00 00 00    	je     3a80 <hash_rehash+0x180>
39d8:	48 89 5c 24 10       	mov    QWORD PTR [rsp+0x10],rbx
39dd:	48 c1 e3 04          	shl    rbx,0x4
39e1:	4c 89 64 24 28       	mov    QWORD PTR [rsp+0x28],r12
39e6:	48 01 c3             	add    rbx,rax
39e9:	48 8b 45 30          	mov    rax,QWORD PTR [rbp+0x30]
39ed:	49 89 e4             	mov    r12,rsp
39f0:	31 d2                	xor    edx,edx
39f2:	48 89 ee             	mov    rsi,rbp
39f5:	4c 89 e7             	mov    rdi,r12
39f8:	48 89 5c 24 08       	mov    QWORD PTR [rsp+0x8],rbx
39fd:	48 c7 44 24 18 00 00 	mov    QWORD PTR [rsp+0x18],0x0
3a04:	00 00
3a06:	48 89 44 24 30       	mov    QWORD PTR [rsp+0x30],rax
3a0b:	48 8b 45 38          	mov    rax,QWORD PTR [rbp+0x38]
3a0f:	48 c7 44 24 20 00 00 	mov    QWORD PTR [rsp+0x20],0x0
3a16:	00 00
3a18:	48 89 44 24 38       	mov    QWORD PTR [rsp+0x38],rax
3a1d:	48 8b 45 40          	mov    rax,QWORD PTR [rbp+0x40]
3a21:	48 89 44 24 40       	mov    QWORD PTR [rsp+0x40],rax
3a26:	48 8b 45 48          	mov    rax,QWORD PTR [rbp+0x48]
3a2a:	48 89 44 24 48       	mov    QWORD PTR [rsp+0x48],rax
3a2f:	e8 bc f5 ff ff       	call   2ff0 <transfer_entries>
3a34:	84 c0                	test   al,al
3a36:	89 c3                	mov    ebx,eax
3a38:	0f 85 b2 00 00 00    	jne    3af0 <hash_rehash+0x1f0>
3a3e:	48 8b 44 24 48       	mov    rax,QWORD PTR [rsp+0x48]
3a43:	ba 01 00 00 00       	mov    edx,0x1
3a48:	4c 89 e6             	mov    rsi,r12
3a4b:	48 89 ef             	mov    rdi,rbp
3a4e:	48 89 45 48          	mov    QWORD PTR [rbp+0x48],rax
3a52:	e8 99 f5 ff ff       	call   2ff0 <transfer_entries>
3a57:	84 c0                	test   al,al
3a59:	0f 84 da 00 00 00    	je     3b39 <hash_rehash+0x239>
3a5f:	31 d2                	xor    edx,edx
3a61:	4c 89 e6             	mov    rsi,r12
3a64:	48 89 ef             	mov    rdi,rbp
3a67:	e8 84 f5 ff ff       	call   2ff0 <transfer_entries>
3a6c:	84 c0                	test   al,al
3a6e:	0f 84 c5 00 00 00    	je     3b39 <hash_rehash+0x239>
3a74:	48 8b 3c 24          	mov    rdi,QWORD PTR [rsp]
3a78:	e8 33 da ff ff       	call   14b0 <free@plt>
3a7d:	eb 03                	jmp    3a82 <hash_rehash+0x182>
3a7f:	90                   	nop
3a80:	31 db                	xor    ebx,ebx
3a82:	48 8b 4c 24 58       	mov    rcx,QWORD PTR [rsp+0x58]
3a87:	64 48 33 0c 25 28 00 	xor    rcx,QWORD PTR fs:0x28
3a8e:	00 00
3a90:	89 d8                	mov    eax,ebx
3a92:	0f 85 92 00 00 00    	jne    3b2a <hash_rehash+0x22a>
3a98:	48 83 c4 60          	add    rsp,0x60
3a9c:	5b                   	pop    rbx
3a9d:	5d                   	pop    rbp
3a9e:	41 5c                	pop    r12
3aa0:	c3                   	ret
3aa1:	0f 1f 80 00 00 00 00 	nop    DWORD PTR [rax+0x0]
3aa8:	48 89 f0             	mov    rax,rsi
3aab:	66 0f ef c0          	pxor   xmm0,xmm0
3aaf:	48 d1 e8             	shr    rax,1
3ab2:	83 e6 01             	and    esi,0x1
3ab5:	48 09 f0             	or     rax,rsi
3ab8:	f3 48 0f 2a c0       	cvtsi2ss xmm0,rax
3abd:	f3 0f 58 c0          	addss  xmm0,xmm0
3ac1:	e9 73 fe ff ff       	jmp    3939 <hash_rehash+0x39>
3ac6:	66 2e 0f 1f 84 00 00 	nop    WORD PTR cs:[rax+rax*1+0x0]
3acd:	00 00 00
3ad0:	f3 48 0f 2c f0       	cvttss2si rsi,xmm0
3ad5:	e9 9e fe ff ff       	jmp    3978 <hash_rehash+0x78>
3ada:	66 0f 1f 44 00 00    	nop    WORD PTR [rax+rax*1+0x0]
3ae0:	bb 01 00 00 00       	mov    ebx,0x1
3ae5:	eb 9b                	jmp    3a82 <hash_rehash+0x182>
3ae7:	66 0f 1f 84 00 00 00 	nop    WORD PTR [rax+rax*1+0x0]
3aee:	00 00
3af0:	48 8b 7d 00          	mov    rdi,QWORD PTR [rbp+0x0]
3af4:	e8 b7 d9 ff ff       	call   14b0 <free@plt>
3af9:	48 8b 04 24          	mov    rax,QWORD PTR [rsp]
3afd:	48 89 45 00          	mov    QWORD PTR [rbp+0x0],rax
3b01:	48 8b 44 24 08       	mov    rax,QWORD PTR [rsp+0x8]
3b06:	48 89 45 08          	mov    QWORD PTR [rbp+0x8],rax
3b0a:	48 8b 44 24 10       	mov    rax,QWORD PTR [rsp+0x10]
3b0f:	48 89 45 10          	mov    QWORD PTR [rbp+0x10],rax
3b13:	48 8b 44 24 18       	mov    rax,QWORD PTR [rsp+0x18]
3b18:	48 89 45 18          	mov    QWORD PTR [rbp+0x18],rax
3b1c:	48 8b 44 24 48       	mov    rax,QWORD PTR [rsp+0x48]
3b21:	48 89 45 48          	mov    QWORD PTR [rbp+0x48],rax
3b25:	e9 58 ff ff ff       	jmp    3a82 <hash_rehash+0x182>
3b2a:	e8 61 da ff ff       	call   1590 <__stack_chk_fail@plt>
3b2f:	b9 01 00 00 00       	mov    ecx,0x1
3b34:	e9 5d fe ff ff       	jmp    3996 <hash_rehash+0x96>
3b39:	e8 82 d9 ff ff       	call   14c0 <abort@plt>
3b3e:	66 90                	xchg   ax,ax

0000000000003b40 <hash_insert_if_absent>:
3b40:	41 55                	push   r13
3b42:	41 54                	push   r12
3b44:	55                   	push   rbp
3b45:	53                   	push   rbx
3b46:	48 83 ec 18          	sub    rsp,0x18
3b4a:	64 48 8b 04 25 28 00 	mov    rax,QWORD PTR fs:0x28
3b51:	00 00
3b53:	48 89 44 24 08       	mov    QWORD PTR [rsp+0x8],rax
3b58:	31 c0                	xor    eax,eax
3b5a:	48 85 f6             	test   rsi,rsi
3b5d:	0f 84 ba 01 00 00    	je     3d1d <hash_insert_if_absent+0x1dd>
3b63:	49 89 e4             	mov    r12,rsp
3b66:	31 c9                	xor    ecx,ecx
3b68:	49 89 d5             	mov    r13,rdx
3b6b:	4c 89 e2             	mov    rdx,r12
3b6e:	48 89 fb             	mov    rbx,rdi
3b71:	48 89 f5             	mov    rbp,rsi
3b74:	e8 d7 f2 ff ff       	call   2e50 <hash_find_entry>
3b79:	48 85 c0             	test   rax,rax
3b7c:	48 89 c2             	mov    rdx,rax
3b7f:	74 2f                	je     3bb0 <hash_insert_if_absent+0x70>
3b81:	31 c0                	xor    eax,eax
3b83:	4d 85 ed             	test   r13,r13
3b86:	74 04                	je     3b8c <hash_insert_if_absent+0x4c>
3b88:	49 89 55 00          	mov    QWORD PTR [r13+0x0],rdx
3b8c:	48 8b 4c 24 08       	mov    rcx,QWORD PTR [rsp+0x8]
3b91:	64 48 33 0c 25 28 00 	xor    rcx,QWORD PTR fs:0x28
3b98:	00 00
3b9a:	0f 85 1f 02 00 00    	jne    3dbf <hash_insert_if_absent+0x27f>
3ba0:	48 83 c4 18          	add    rsp,0x18
3ba4:	5b                   	pop    rbx
3ba5:	5d                   	pop    rbp
3ba6:	41 5c                	pop    r12
3ba8:	41 5d                	pop    r13
3baa:	c3                   	ret
3bab:	0f 1f 44 00 00       	nop    DWORD PTR [rax+rax*1+0x0]
3bb0:	48 8b 43 18          	mov    rax,QWORD PTR [rbx+0x18]
3bb4:	48 85 c0             	test   rax,rax
3bb7:	78 77                	js     3c30 <hash_insert_if_absent+0xf0>
3bb9:	66 0f ef c9          	pxor   xmm1,xmm1
3bbd:	48 8b 53 28          	mov    rdx,QWORD PTR [rbx+0x28]
3bc1:	f3 48 0f 2a c8       	cvtsi2ss xmm1,rax
3bc6:	48 8b 43 10          	mov    rax,QWORD PTR [rbx+0x10]
3bca:	48 85 c0             	test   rax,rax
3bcd:	0f 88 87 00 00 00    	js     3c5a <hash_insert_if_absent+0x11a>
3bd3:	66 0f ef c0          	pxor   xmm0,xmm0
3bd7:	f3 48 0f 2a c0       	cvtsi2ss xmm0,rax
3bdc:	f3 0f 59 42 08       	mulss  xmm0,DWORD PTR [rdx+0x8]
3be1:	0f 2e c8             	ucomiss xmm1,xmm0
3be4:	0f 87 96 00 00 00    	ja     3c80 <hash_insert_if_absent+0x140>
3bea:	4c 8b 24 24          	mov    r12,QWORD PTR [rsp]
3bee:	49 83 3c 24 00       	cmp    QWORD PTR [r12],0x0
3bf3:	0f 84 2f 01 00 00    	je     3d28 <hash_insert_if_absent+0x1e8>
3bf9:	48 8b 43 48          	mov    rax,QWORD PTR [rbx+0x48]
3bfd:	48 85 c0             	test   rax,rax
3c00:	0f 84 3a 01 00 00    	je     3d40 <hash_insert_if_absent+0x200>
3c06:	48 8b 50 08          	mov    rdx,QWORD PTR [rax+0x8]
3c0a:	48 89 53 48          	mov    QWORD PTR [rbx+0x48],rdx
3c0e:	49 8b 54 24 08       	mov    rdx,QWORD PTR [r12+0x8]
3c13:	48 89 28             	mov    QWORD PTR [rax],rbp
3c16:	48 89 50 08          	mov    QWORD PTR [rax+0x8],rdx
3c1a:	49 89 44 24 08       	mov    QWORD PTR [r12+0x8],rax
3c1f:	b8 01 00 00 00       	mov    eax,0x1
3c24:	48 83 43 20 01       	add    QWORD PTR [rbx+0x20],0x1
3c29:	e9 5e ff ff ff       	jmp    3b8c <hash_insert_if_absent+0x4c>
3c2e:	66 90                	xchg   ax,ax
3c30:	48 89 c2             	mov    rdx,rax
3c33:	66 0f ef c9          	pxor   xmm1,xmm1
3c37:	83 e0 01             	and    eax,0x1
3c3a:	48 d1 ea             	shr    rdx,1
3c3d:	48 09 c2             	or     rdx,rax
3c40:	48 8b 43 10          	mov    rax,QWORD PTR [rbx+0x10]
3c44:	f3 48 0f 2a ca       	cvtsi2ss xmm1,rdx
3c49:	48 8b 53 28          	mov    rdx,QWORD PTR [rbx+0x28]
3c4d:	48 85 c0             	test   rax,rax
3c50:	f3 0f 58 c9          	addss  xmm1,xmm1
3c54:	0f 89 79 ff ff ff    	jns    3bd3 <hash_insert_if_absent+0x93>
3c5a:	48 89 c1             	mov    rcx,rax
3c5d:	66 0f ef c0          	pxor   xmm0,xmm0
3c61:	48 d1 e9             	shr    rcx,1
3c64:	83 e0 01             	and    eax,0x1
3c67:	48 09 c1             	or     rcx,rax
3c6a:	f3 48 0f 2a c1       	cvtsi2ss xmm0,rcx
3c6f:	f3 0f 58 c0          	addss  xmm0,xmm0
3c73:	e9 64 ff ff ff       	jmp    3bdc <hash_insert_if_absent+0x9c>
3c78:	0f 1f 84 00 00 00 00 	nop    DWORD PTR [rax+rax*1+0x0]
3c7f:	00
3c80:	48 8d 7b 28          	lea    rdi,[rbx+0x28]
3c84:	e8 e7 f2 ff ff       	call   2f70 <check_tuning.isra.0>
3c89:	48 8b 43 10          	mov    rax,QWORD PTR [rbx+0x10]
3c8d:	48 8b 53 28          	mov    rdx,QWORD PTR [rbx+0x28]
3c91:	48 85 c0             	test   rax,rax
3c94:	f3 0f 10 52 08       	movss  xmm2,DWORD PTR [rdx+0x8]
3c99:	0f 88 c1 00 00 00    	js     3d60 <hash_insert_if_absent+0x220>
3c9f:	66 0f ef c0          	pxor   xmm0,xmm0
3ca3:	f3 48 0f 2a c0       	cvtsi2ss xmm0,rax
3ca8:	48 8b 43 18          	mov    rax,QWORD PTR [rbx+0x18]
3cac:	48 85 c0             	test   rax,rax
3caf:	0f 88 cb 00 00 00    	js     3d80 <hash_insert_if_absent+0x240>
3cb5:	66 0f ef c9          	pxor   xmm1,xmm1
3cb9:	f3 48 0f 2a c8       	cvtsi2ss xmm1,rax
3cbe:	0f 28 da             	movaps xmm3,xmm2
3cc1:	f3 0f 59 d8          	mulss  xmm3,xmm0
3cc5:	0f 2e cb             	ucomiss xmm1,xmm3
3cc8:	0f 86 1c ff ff ff    	jbe    3bea <hash_insert_if_absent+0xaa>
3cce:	80 7a 10 00          	cmp    BYTE PTR [rdx+0x10],0x0
3cd2:	f3 0f 59 42 0c       	mulss  xmm0,DWORD PTR [rdx+0xc]
3cd7:	75 04                	jne    3cdd <hash_insert_if_absent+0x19d>
3cd9:	f3 0f 59 c2          	mulss  xmm0,xmm2
3cdd:	0f 2e 05 c8 38 00 00 	ucomiss xmm0,DWORD PTR [rip+0x38c8]        # 75ac <default_tuning+0x2c>
3ce4:	73 6d                	jae    3d53 <hash_insert_if_absent+0x213>
3ce6:	0f 2e 05 c3 38 00 00 	ucomiss xmm0,DWORD PTR [rip+0x38c3]        # 75b0 <default_tuning+0x30>
3ced:	0f 83 ad 00 00 00    	jae    3da0 <hash_insert_if_absent+0x260>
3cf3:	f3 48 0f 2c f0       	cvttss2si rsi,xmm0
3cf8:	48 89 df             	mov    rdi,rbx
3cfb:	e8 00 fc ff ff       	call   3900 <hash_rehash>
3d00:	84 c0                	test   al,al
3d02:	74 4f                	je     3d53 <hash_insert_if_absent+0x213>
3d04:	31 c9                	xor    ecx,ecx
3d06:	4c 89 e2             	mov    rdx,r12
3d09:	48 89 ee             	mov    rsi,rbp
3d0c:	48 89 df             	mov    rdi,rbx
3d0f:	e8 3c f1 ff ff       	call   2e50 <hash_find_entry>
3d14:	48 85 c0             	test   rax,rax
3d17:	0f 84 cd fe ff ff    	je     3bea <hash_insert_if_absent+0xaa>
3d1d:	e8 9e d7 ff ff       	call   14c0 <abort@plt>
3d22:	66 0f 1f 44 00 00    	nop    WORD PTR [rax+rax*1+0x0]
3d28:	49 89 2c 24          	mov    QWORD PTR [r12],rbp
3d2c:	b8 01 00 00 00       	mov    eax,0x1
3d31:	48 83 43 20 01       	add    QWORD PTR [rbx+0x20],0x1
3d36:	48 83 43 18 01       	add    QWORD PTR [rbx+0x18],0x1
3d3b:	e9 4c fe ff ff       	jmp    3b8c <hash_insert_if_absent+0x4c>
3d40:	bf 10 00 00 00       	mov    edi,0x10
3d45:	e8 56 d9 ff ff       	call   16a0 <malloc@plt>
3d4a:	48 85 c0             	test   rax,rax
3d4d:	0f 85 bb fe ff ff    	jne    3c0e <hash_insert_if_absent+0xce>
3d53:	b8 ff ff ff ff       	mov    eax,0xffffffff
3d58:	e9 2f fe ff ff       	jmp    3b8c <hash_insert_if_absent+0x4c>
3d5d:	0f 1f 00             	nop    DWORD PTR [rax]
3d60:	48 89 c1             	mov    rcx,rax
3d63:	66 0f ef c0          	pxor   xmm0,xmm0
3d67:	48 d1 e9             	shr    rcx,1
3d6a:	83 e0 01             	and    eax,0x1
3d6d:	48 09 c1             	or     rcx,rax
3d70:	f3 48 0f 2a c1       	cvtsi2ss xmm0,rcx
3d75:	f3 0f 58 c0          	addss  xmm0,xmm0
3d79:	e9 2a ff ff ff       	jmp    3ca8 <hash_insert_if_absent+0x168>
3d7e:	66 90                	xchg   ax,ax
3d80:	48 89 c1             	mov    rcx,rax
3d83:	66 0f ef c9          	pxor   xmm1,xmm1
3d87:	48 d1 e9             	shr    rcx,1
3d8a:	83 e0 01             	and    eax,0x1
3d8d:	48 09 c1             	or     rcx,rax
3d90:	f3 48 0f 2a c9       	cvtsi2ss xmm1,rcx
3d95:	f3 0f 58 c9          	addss  xmm1,xmm1
3d99:	e9 20 ff ff ff       	jmp    3cbe <hash_insert_if_absent+0x17e>
3d9e:	66 90                	xchg   ax,ax
3da0:	f3 0f 5c 05 08 38 00 	subss  xmm0,DWORD PTR [rip+0x3808]        # 75b0 <default_tuning+0x30>
3da7:	00
3da8:	48 b8 00 00 00 00 00 	movabs rax,0x8000000000000000
3daf:	00 00 80
3db2:	f3 48 0f 2c f0       	cvttss2si rsi,xmm0
3db7:	48 31 c6             	xor    rsi,rax
3dba:	e9 39 ff ff ff       	jmp    3cf8 <hash_insert_if_absent+0x1b8>
3dbf:	e8 cc d7 ff ff       	call   1590 <__stack_chk_fail@plt>
3dc4:	66 90                	xchg   ax,ax
3dc6:	66 2e 0f 1f 84 00 00 	nop    WORD PTR cs:[rax+rax*1+0x0]
3dcd:	00 00 00

0000000000003dd0 <hash_insert>:
3dd0:	53                   	push   rbx
3dd1:	48 89 f3             	mov    rbx,rsi
3dd4:	48 83 ec 10          	sub    rsp,0x10
3dd8:	48 89 e2             	mov    rdx,rsp
3ddb:	64 48 8b 04 25 28 00 	mov    rax,QWORD PTR fs:0x28
3de2:	00 00
3de4:	48 89 44 24 08       	mov    QWORD PTR [rsp+0x8],rax
3de9:	31 c0                	xor    eax,eax
3deb:	e8 50 fd ff ff       	call   3b40 <hash_insert_if_absent>
3df0:	83 f8 ff             	cmp    eax,0xffffffff
3df3:	74 2b                	je     3e20 <hash_insert+0x50>
3df5:	85 c0                	test   eax,eax
3df7:	75 04                	jne    3dfd <hash_insert+0x2d>
3df9:	48 8b 1c 24          	mov    rbx,QWORD PTR [rsp]
3dfd:	48 8b 4c 24 08       	mov    rcx,QWORD PTR [rsp+0x8]
3e02:	64 48 33 0c 25 28 00 	xor    rcx,QWORD PTR fs:0x28
3e09:	00 00
3e0b:	48 89 d8             	mov    rax,rbx
3e0e:	75 14                	jne    3e24 <hash_insert+0x54>
3e10:	48 83 c4 10          	add    rsp,0x10
3e14:	5b                   	pop    rbx
3e15:	c3                   	ret
3e16:	66 2e 0f 1f 84 00 00 	nop    WORD PTR cs:[rax+rax*1+0x0]
3e1d:	00 00 00
3e20:	31 db                	xor    ebx,ebx
3e22:	eb d9                	jmp    3dfd <hash_insert+0x2d>
3e24:	e8 67 d7 ff ff       	call   1590 <__stack_chk_fail@plt>
3e29:	0f 1f 80 00 00 00 00 	nop    DWORD PTR [rax+0x0]

0000000000003e30 <hash_delete>:
3e30:	41 54                	push   r12
3e32:	55                   	push   rbp
3e33:	b9 01 00 00 00       	mov    ecx,0x1
3e38:	53                   	push   rbx
3e39:	48 89 fb             	mov    rbx,rdi
3e3c:	48 83 ec 10          	sub    rsp,0x10
3e40:	48 89 e2             	mov    rdx,rsp
3e43:	64 48 8b 04 25 28 00 	mov    rax,QWORD PTR fs:0x28
3e4a:	00 00
3e4c:	48 89 44 24 08       	mov    QWORD PTR [rsp+0x8],rax
3e51:	31 c0                	xor    eax,eax
3e53:	e8 f8 ef ff ff       	call   2e50 <hash_find_entry>
3e58:	48 85 c0             	test   rax,rax
3e5b:	48 89 c5             	mov    rbp,rax
3e5e:	74 0f                	je     3e6f <hash_delete+0x3f>
3e60:	48 8b 04 24          	mov    rax,QWORD PTR [rsp]
3e64:	48 83 6b 20 01       	sub    QWORD PTR [rbx+0x20],0x1
3e69:	48 83 38 00          	cmp    QWORD PTR [rax],0x0
3e6d:	74 21                	je     3e90 <hash_delete+0x60>
3e6f:	48 8b 4c 24 08       	mov    rcx,QWORD PTR [rsp+0x8]
3e74:	64 48 33 0c 25 28 00 	xor    rcx,QWORD PTR fs:0x28
3e7b:	00 00
3e7d:	48 89 e8             	mov    rax,rbp
3e80:	0f 85 a8 01 00 00    	jne    402e <hash_delete+0x1fe>
3e86:	48 83 c4 10          	add    rsp,0x10
3e8a:	5b                   	pop    rbx
3e8b:	5d                   	pop    rbp
3e8c:	41 5c                	pop    r12
3e8e:	c3                   	ret
3e8f:	90                   	nop
3e90:	48 8b 43 18          	mov    rax,QWORD PTR [rbx+0x18]
3e94:	48 83 e8 01          	sub    rax,0x1
3e98:	48 85 c0             	test   rax,rax
3e9b:	48 89 43 18          	mov    QWORD PTR [rbx+0x18],rax
3e9f:	0f 88 fb 00 00 00    	js     3fa0 <hash_delete+0x170>
3ea5:	66 0f ef c0          	pxor   xmm0,xmm0
3ea9:	f3 48 0f 2a c0       	cvtsi2ss xmm0,rax
3eae:	48 8b 43 10          	mov    rax,QWORD PTR [rbx+0x10]
3eb2:	48 8b 53 28          	mov    rdx,QWORD PTR [rbx+0x28]
3eb6:	48 85 c0             	test   rax,rax
3eb9:	0f 88 c1 00 00 00    	js     3f80 <hash_delete+0x150>
3ebf:	66 0f ef c9          	pxor   xmm1,xmm1
3ec3:	f3 48 0f 2a c8       	cvtsi2ss xmm1,rax
3ec8:	f3 0f 59 0a          	mulss  xmm1,DWORD PTR [rdx]
3ecc:	0f 2e c8             	ucomiss xmm1,xmm0
3ecf:	76 9e                	jbe    3e6f <hash_delete+0x3f>
3ed1:	48 8d 7b 28          	lea    rdi,[rbx+0x28]
3ed5:	e8 96 f0 ff ff       	call   2f70 <check_tuning.isra.0>
3eda:	48 8b 43 10          	mov    rax,QWORD PTR [rbx+0x10]
3ede:	48 8b 53 28          	mov    rdx,QWORD PTR [rbx+0x28]
3ee2:	48 85 c0             	test   rax,rax
3ee5:	0f 88 25 01 00 00    	js     4010 <hash_delete+0x1e0>
3eeb:	66 0f ef c0          	pxor   xmm0,xmm0
3eef:	f3 48 0f 2a c0       	cvtsi2ss xmm0,rax
3ef4:	48 8b 43 18          	mov    rax,QWORD PTR [rbx+0x18]
3ef8:	48 85 c0             	test   rax,rax
3efb:	0f 88 ef 00 00 00    	js     3ff0 <hash_delete+0x1c0>
3f01:	66 0f ef c9          	pxor   xmm1,xmm1
3f05:	f3 48 0f 2a c8       	cvtsi2ss xmm1,rax
3f0a:	f3 0f 10 12          	movss  xmm2,DWORD PTR [rdx]
3f0e:	f3 0f 59 d0          	mulss  xmm2,xmm0
3f12:	0f 2e d1             	ucomiss xmm2,xmm1
3f15:	0f 86 54 ff ff ff    	jbe    3e6f <hash_delete+0x3f>
3f1b:	80 7a 10 00          	cmp    BYTE PTR [rdx+0x10],0x0
3f1f:	f3 0f 59 42 04       	mulss  xmm0,DWORD PTR [rdx+0x4]
3f24:	0f 84 b6 00 00 00    	je     3fe0 <hash_delete+0x1b0>
3f2a:	0f 2e 05 7f 36 00 00 	ucomiss xmm0,DWORD PTR [rip+0x367f]        # 75b0 <default_tuning+0x30>
3f31:	0f 83 89 00 00 00    	jae    3fc0 <hash_delete+0x190>
3f37:	f3 48 0f 2c f0       	cvttss2si rsi,xmm0
3f3c:	48 89 df             	mov    rdi,rbx
3f3f:	e8 bc f9 ff ff       	call   3900 <hash_rehash>
3f44:	84 c0                	test   al,al
3f46:	0f 85 23 ff ff ff    	jne    3e6f <hash_delete+0x3f>
3f4c:	48 8b 7b 48          	mov    rdi,QWORD PTR [rbx+0x48]
3f50:	48 85 ff             	test   rdi,rdi
3f53:	74 14                	je     3f69 <hash_delete+0x139>
3f55:	0f 1f 00             	nop    DWORD PTR [rax]
3f58:	4c 8b 67 08          	mov    r12,QWORD PTR [rdi+0x8]
3f5c:	e8 4f d5 ff ff       	call   14b0 <free@plt>
3f61:	4d 85 e4             	test   r12,r12
3f64:	4c 89 e7             	mov    rdi,r12
3f67:	75 ef                	jne    3f58 <hash_delete+0x128>
3f69:	48 c7 43 48 00 00 00 	mov    QWORD PTR [rbx+0x48],0x0
3f70:	00
3f71:	e9 f9 fe ff ff       	jmp    3e6f <hash_delete+0x3f>
3f76:	66 2e 0f 1f 84 00 00 	nop    WORD PTR cs:[rax+rax*1+0x0]
3f7d:	00 00 00
3f80:	48 89 c1             	mov    rcx,rax
3f83:	66 0f ef c9          	pxor   xmm1,xmm1
3f87:	48 d1 e9             	shr    rcx,1
3f8a:	83 e0 01             	and    eax,0x1
3f8d:	48 09 c1             	or     rcx,rax
3f90:	f3 48 0f 2a c9       	cvtsi2ss xmm1,rcx
3f95:	f3 0f 58 c9          	addss  xmm1,xmm1
3f99:	e9 2a ff ff ff       	jmp    3ec8 <hash_delete+0x98>
3f9e:	66 90                	xchg   ax,ax
3fa0:	48 89 c2             	mov    rdx,rax
3fa3:	66 0f ef c0          	pxor   xmm0,xmm0
3fa7:	48 d1 ea             	shr    rdx,1
3faa:	83 e0 01             	and    eax,0x1
3fad:	48 09 c2             	or     rdx,rax
3fb0:	f3 48 0f 2a c2       	cvtsi2ss xmm0,rdx
3fb5:	f3 0f 58 c0          	addss  xmm0,xmm0
3fb9:	e9 f0 fe ff ff       	jmp    3eae <hash_delete+0x7e>
3fbe:	66 90                	xchg   ax,ax
3fc0:	f3 0f 5c 05 e8 35 00 	subss  xmm0,DWORD PTR [rip+0x35e8]        # 75b0 <default_tuning+0x30>
3fc7:	00
3fc8:	48 b8 00 00 00 00 00 	movabs rax,0x8000000000000000
3fcf:	00 00 80
3fd2:	f3 48 0f 2c f0       	cvttss2si rsi,xmm0
3fd7:	48 31 c6             	xor    rsi,rax
3fda:	e9 5d ff ff ff       	jmp    3f3c <hash_delete+0x10c>
3fdf:	90                   	nop
3fe0:	f3 0f 59 42 08       	mulss  xmm0,DWORD PTR [rdx+0x8]
3fe5:	e9 40 ff ff ff       	jmp    3f2a <hash_delete+0xfa>
3fea:	66 0f 1f 44 00 00    	nop    WORD PTR [rax+rax*1+0x0]
3ff0:	48 89 c1             	mov    rcx,rax
3ff3:	66 0f ef c9          	pxor   xmm1,xmm1
3ff7:	48 d1 e9             	shr    rcx,1
3ffa:	83 e0 01             	and    eax,0x1
3ffd:	48 09 c1             	or     rcx,rax
4000:	f3 48 0f 2a c9       	cvtsi2ss xmm1,rcx
4005:	f3 0f 58 c9          	addss  xmm1,xmm1
4009:	e9 fc fe ff ff       	jmp    3f0a <hash_delete+0xda>
400e:	66 90                	xchg   ax,ax
4010:	48 89 c1             	mov    rcx,rax
4013:	66 0f ef c0          	pxor   xmm0,xmm0
4017:	48 d1 e9             	shr    rcx,1
401a:	83 e0 01             	and    eax,0x1
401d:	48 09 c1             	or     rcx,rax
4020:	f3 48 0f 2a c1       	cvtsi2ss xmm0,rcx
4025:	f3 0f 58 c0          	addss  xmm0,xmm0
4029:	e9 c6 fe ff ff       	jmp    3ef4 <hash_delete+0xc4>
402e:	e8 5d d5 ff ff       	call   1590 <__stack_chk_fail@plt>
4033:	66 2e 0f 1f 84 00 00 	nop    WORD PTR cs:[rax+rax*1+0x0]
403a:	00 00 00
403d:	0f 1f 00             	nop    DWORD PTR [rax]

0000000000004040 <triple_hash>:
4040:	55                   	push   rbp
4041:	53                   	push   rbx
4042:	48 89 fd             	mov    rbp,rdi
4045:	48 89 f3             	mov    rbx,rsi
4048:	48 83 ec 08          	sub    rsp,0x8
404c:	48 8b 3f             	mov    rdi,QWORD PTR [rdi]
404f:	e8 ac 2c 00 00       	call   6d00 <hash_pjw>
4054:	48 33 45 08          	xor    rax,QWORD PTR [rbp+0x8]
4058:	31 d2                	xor    edx,edx
405a:	48 83 c4 08          	add    rsp,0x8
405e:	48 f7 f3             	div    rbx
4061:	5b                   	pop    rbx
4062:	5d                   	pop    rbp
4063:	48 89 d0             	mov    rax,rdx
4066:	c3                   	ret
4067:	66 0f 1f 84 00 00 00 	nop    WORD PTR [rax+rax*1+0x0]
406e:	00 00

0000000000004070 <triple_hash_no_name>:
4070:	48 8b 47 08          	mov    rax,QWORD PTR [rdi+0x8]
4074:	31 d2                	xor    edx,edx
4076:	48 f7 f6             	div    rsi
4079:	48 89 d0             	mov    rax,rdx
407c:	c3                   	ret
407d:	0f 1f 00             	nop    DWORD PTR [rax]

0000000000004080 <triple_compare>:
4080:	31 c0                	xor    eax,eax
4082:	48 8b 56 08          	mov    rdx,QWORD PTR [rsi+0x8]
4086:	48 39 57 08          	cmp    QWORD PTR [rdi+0x8],rdx
408a:	74 04                	je     4090 <triple_compare+0x10>
408c:	f3 c3                	repz ret
408e:	66 90                	xchg   ax,ax
4090:	48 8b 4e 10          	mov    rcx,QWORD PTR [rsi+0x10]
4094:	48 39 4f 10          	cmp    QWORD PTR [rdi+0x10],rcx
4098:	75 f2                	jne    408c <triple_compare+0xc>
409a:	48 83 ec 08          	sub    rsp,0x8
409e:	48 8b 36             	mov    rsi,QWORD PTR [rsi]
40a1:	48 8b 3f             	mov    rdi,QWORD PTR [rdi]
40a4:	e8 67 1f 00 00       	call   6010 <same_name>
40a9:	48 83 c4 08          	add    rsp,0x8
40ad:	c3                   	ret
40ae:	66 90                	xchg   ax,ax

00000000000040b0 <triple_compare_ino_str>:
40b0:	31 c0                	xor    eax,eax
40b2:	48 8b 56 08          	mov    rdx,QWORD PTR [rsi+0x8]
40b6:	48 39 57 08          	cmp    QWORD PTR [rdi+0x8],rdx
40ba:	74 04                	je     40c0 <triple_compare_ino_str+0x10>
40bc:	f3 c3                	repz ret
40be:	66 90                	xchg   ax,ax
40c0:	48 8b 4e 10          	mov    rcx,QWORD PTR [rsi+0x10]
40c4:	48 39 4f 10          	cmp    QWORD PTR [rdi+0x10],rcx
40c8:	75 f2                	jne    40bc <triple_compare_ino_str+0xc>
40ca:	48 83 ec 08          	sub    rsp,0x8
40ce:	48 8b 36             	mov    rsi,QWORD PTR [rsi]
40d1:	48 8b 3f             	mov    rdi,QWORD PTR [rdi]
40d4:	e8 87 d5 ff ff       	call   1660 <strcmp@plt>
40d9:	85 c0                	test   eax,eax
40db:	0f 94 c0             	sete   al
40de:	48 83 c4 08          	add    rsp,0x8
40e2:	c3                   	ret
40e3:	0f 1f 00             	nop    DWORD PTR [rax]
40e6:	66 2e 0f 1f 84 00 00 	nop    WORD PTR cs:[rax+rax*1+0x0]
40ed:	00 00 00

00000000000040f0 <triple_free>:
40f0:	53                   	push   rbx
40f1:	48 89 fb             	mov    rbx,rdi
40f4:	48 8b 3f             	mov    rdi,QWORD PTR [rdi]
40f7:	e8 b4 d3 ff ff       	call   14b0 <free@plt>
40fc:	48 89 df             	mov    rdi,rbx
40ff:	5b                   	pop    rbx
4100:	e9 ab d3 ff ff       	jmp    14b0 <free@plt>
4105:	66 2e 0f 1f 84 00 00 	nop    WORD PTR cs:[rax+rax*1+0x0]
410c:	00 00 00
410f:	90                   	nop

0000000000004110 <set_program_name>:
4110:	48 85 ff             	test   rdi,rdi
4113:	53                   	push   rbx
4114:	74 77                	je     418d <set_program_name+0x7d>
4116:	be 2f 00 00 00       	mov    esi,0x2f
411b:	48 89 fb             	mov    rbx,rdi
411e:	e8 bd d4 ff ff       	call   15e0 <strrchr@plt>
4123:	48 85 c0             	test   rax,rax
4126:	74 55                	je     417d <set_program_name+0x6d>
4128:	4c 8d 40 01          	lea    r8,[rax+0x1]
412c:	4c 89 c2             	mov    rdx,r8
412f:	48 29 da             	sub    rdx,rbx
4132:	48 83 fa 06          	cmp    rdx,0x6
4136:	7e 45                	jle    417d <set_program_name+0x6d>
4138:	48 8d 70 fa          	lea    rsi,[rax-0x6]
413c:	48 8d 3d b5 34 00 00 	lea    rdi,[rip+0x34b5]        # 75f8 <default_tuning+0x78>
4143:	b9 07 00 00 00       	mov    ecx,0x7
4148:	f3 a6                	repz cmps BYTE PTR ds:[rsi],BYTE PTR es:[rdi]
414a:	0f 97 c2             	seta   dl
414d:	80 da 00             	sbb    dl,0x0
4150:	84 d2                	test   dl,dl
4152:	75 29                	jne    417d <set_program_name+0x6d>
4154:	48 8d 3d a5 34 00 00 	lea    rdi,[rip+0x34a5]        # 7600 <default_tuning+0x80>
415b:	b9 03 00 00 00       	mov    ecx,0x3
4160:	4c 89 c6             	mov    rsi,r8
4163:	4c 89 c3             	mov    rbx,r8
4166:	f3 a6                	repz cmps BYTE PTR ds:[rsi],BYTE PTR es:[rdi]
4168:	0f 97 c2             	seta   dl
416b:	80 da 00             	sbb    dl,0x0
416e:	84 d2                	test   dl,dl
4170:	75 0b                	jne    417d <set_program_name+0x6d>
4172:	48 8d 58 04          	lea    rbx,[rax+0x4]
4176:	48 89 1d 23 5f 20 00 	mov    QWORD PTR [rip+0x205f23],rbx        # 20a0a0 <__progname@@GLIBC_2.2.5>
417d:	48 89 1d 94 5f 20 00 	mov    QWORD PTR [rip+0x205f94],rbx        # 20a118 <program_name>
4184:	48 89 1d 35 5f 20 00 	mov    QWORD PTR [rip+0x205f35],rbx        # 20a0c0 <__progname_full@@GLIBC_2.2.5>
418b:	5b                   	pop    rbx
418c:	c3                   	ret
418d:	48 8b 0d 4c 5f 20 00 	mov    rcx,QWORD PTR [rip+0x205f4c]        # 20a0e0 <stderr@@GLIBC_2.2.5>
4194:	48 8d 3d 25 34 00 00 	lea    rdi,[rip+0x3425]        # 75c0 <default_tuning+0x40>
419b:	ba 37 00 00 00       	mov    edx,0x37
41a0:	be 01 00 00 00       	mov    esi,0x1
41a5:	e8 b6 d5 ff ff       	call   1760 <fwrite@plt>
41aa:	e8 11 d3 ff ff       	call   14c0 <abort@plt>
41af:	90                   	nop

00000000000041b0 <gettext_quote.part.1>:
41b0:	55                   	push   rbp
41b1:	53                   	push   rbx
41b2:	48 89 fd             	mov    rbp,rdi
41b5:	89 f3                	mov    ebx,esi
41b7:	48 83 ec 08          	sub    rsp,0x8
41bb:	e8 80 2b 00 00       	call   6d40 <locale_charset>
41c0:	0f b6 10             	movzx  edx,BYTE PTR [rax]
41c3:	83 e2 df             	and    edx,0xffffffdf
41c6:	80 fa 55             	cmp    dl,0x55
41c9:	74 75                	je     4240 <gettext_quote.part.1+0x90>
41cb:	80 fa 47             	cmp    dl,0x47
41ce:	74 20                	je     41f0 <gettext_quote.part.1+0x40>
41d0:	48 8d 05 3c 34 00 00 	lea    rax,[rip+0x343c]        # 7613 <default_tuning+0x93>
41d7:	48 8d 15 37 34 00 00 	lea    rdx,[rip+0x3437]        # 7615 <default_tuning+0x95>
41de:	83 fb 09             	cmp    ebx,0x9
41e1:	48 0f 45 c2          	cmovne rax,rdx
41e5:	48 83 c4 08          	add    rsp,0x8
41e9:	5b                   	pop    rbx
41ea:	5d                   	pop    rbp
41eb:	c3                   	ret
41ec:	0f 1f 40 00          	nop    DWORD PTR [rax+0x0]
41f0:	0f b6 50 01          	movzx  edx,BYTE PTR [rax+0x1]
41f4:	83 e2 df             	and    edx,0xffffffdf
41f7:	80 fa 42             	cmp    dl,0x42
41fa:	75 d4                	jne    41d0 <gettext_quote.part.1+0x20>
41fc:	80 78 02 31          	cmp    BYTE PTR [rax+0x2],0x31
4200:	75 ce                	jne    41d0 <gettext_quote.part.1+0x20>
4202:	80 78 03 38          	cmp    BYTE PTR [rax+0x3],0x38
4206:	75 c8                	jne    41d0 <gettext_quote.part.1+0x20>
4208:	80 78 04 30          	cmp    BYTE PTR [rax+0x4],0x30
420c:	75 c2                	jne    41d0 <gettext_quote.part.1+0x20>
420e:	80 78 05 33          	cmp    BYTE PTR [rax+0x5],0x33
4212:	75 bc                	jne    41d0 <gettext_quote.part.1+0x20>
4214:	80 78 06 30          	cmp    BYTE PTR [rax+0x6],0x30
4218:	75 b6                	jne    41d0 <gettext_quote.part.1+0x20>
421a:	80 78 07 00          	cmp    BYTE PTR [rax+0x7],0x0
421e:	75 b0                	jne    41d0 <gettext_quote.part.1+0x20>
4220:	80 7d 00 60          	cmp    BYTE PTR [rbp+0x0],0x60
4224:	48 8d 05 e1 33 00 00 	lea    rax,[rip+0x33e1]        # 760c <default_tuning+0x8c>
422b:	48 8d 15 de 33 00 00 	lea    rdx,[rip+0x33de]        # 7610 <default_tuning+0x90>
4232:	48 0f 45 c2          	cmovne rax,rdx
4236:	48 83 c4 08          	add    rsp,0x8
423a:	5b                   	pop    rbx
423b:	5d                   	pop    rbp
423c:	c3                   	ret
423d:	0f 1f 00             	nop    DWORD PTR [rax]
4240:	0f b6 50 01          	movzx  edx,BYTE PTR [rax+0x1]
4244:	83 e2 df             	and    edx,0xffffffdf
4247:	80 fa 54             	cmp    dl,0x54
424a:	75 84                	jne    41d0 <gettext_quote.part.1+0x20>
424c:	0f b6 50 02          	movzx  edx,BYTE PTR [rax+0x2]
4250:	83 e2 df             	and    edx,0xffffffdf
4253:	80 fa 46             	cmp    dl,0x46
4256:	0f 85 74 ff ff ff    	jne    41d0 <gettext_quote.part.1+0x20>
425c:	80 78 03 2d          	cmp    BYTE PTR [rax+0x3],0x2d
4260:	0f 85 6a ff ff ff    	jne    41d0 <gettext_quote.part.1+0x20>
4266:	80 78 04 38          	cmp    BYTE PTR [rax+0x4],0x38
426a:	0f 85 60 ff ff ff    	jne    41d0 <gettext_quote.part.1+0x20>
4270:	80 78 05 00          	cmp    BYTE PTR [rax+0x5],0x0
4274:	0f 85 56 ff ff ff    	jne    41d0 <gettext_quote.part.1+0x20>
427a:	80 7d 00 60          	cmp    BYTE PTR [rbp+0x0],0x60
427e:	48 8d 05 7f 33 00 00 	lea    rax,[rip+0x337f]        # 7604 <default_tuning+0x84>
4285:	48 8d 15 7c 33 00 00 	lea    rdx,[rip+0x337c]        # 7608 <default_tuning+0x88>
428c:	48 0f 45 c2          	cmovne rax,rdx
4290:	48 83 c4 08          	add    rsp,0x8
4294:	5b                   	pop    rbx
4295:	5d                   	pop    rbp
4296:	c3                   	ret
4297:	66 0f 1f 84 00 00 00 	nop    WORD PTR [rax+rax*1+0x0]
429e:	00 00

00000000000042a0 <quotearg_buffer_restyled>:
42a0:	41 57                	push   r15
42a2:	41 56                	push   r14
42a4:	45 89 c7             	mov    r15d,r8d
42a7:	41 55                	push   r13
42a9:	41 54                	push   r12
42ab:	49 89 fe             	mov    r14,rdi
42ae:	55                   	push   rbp
42af:	53                   	push   rbx
42b0:	44 89 cb             	mov    ebx,r9d
42b3:	49 89 f5             	mov    r13,rsi
42b6:	48 89 cd             	mov    rbp,rcx
42b9:	83 e3 02             	and    ebx,0x2
42bc:	48 81 ec b8 00 00 00 	sub    rsp,0xb8
42c3:	48 8b 84 24 f0 00 00 	mov    rax,QWORD PTR [rsp+0xf0]
42ca:	00
42cb:	48 89 54 24 10       	mov    QWORD PTR [rsp+0x10],rdx
42d0:	44 89 44 24 08       	mov    DWORD PTR [rsp+0x8],r8d
42d5:	44 89 4c 24 78       	mov    DWORD PTR [rsp+0x78],r9d
42da:	48 89 44 24 20       	mov    QWORD PTR [rsp+0x20],rax
42df:	48 8b 84 24 f8 00 00 	mov    rax,QWORD PTR [rsp+0xf8]
42e6:	00
42e7:	48 89 44 24 68       	mov    QWORD PTR [rsp+0x68],rax
42ec:	48 8b 84 24 00 01 00 	mov    rax,QWORD PTR [rsp+0x100]
42f3:	00
42f4:	48 89 44 24 60       	mov    QWORD PTR [rsp+0x60],rax
42f9:	64 48 8b 04 25 28 00 	mov    rax,QWORD PTR fs:0x28
4300:	00 00
4302:	48 89 84 24 a8 00 00 	mov    QWORD PTR [rsp+0xa8],rax
4309:	00
430a:	31 c0                	xor    eax,eax
430c:	e8 4f d2 ff ff       	call   1560 <__ctype_get_mb_cur_max@plt>
4311:	41 83 ff 0a          	cmp    r15d,0xa
4315:	48 89 44 24 58       	mov    QWORD PTR [rsp+0x58],rax
431a:	0f 87 af 11 00 00    	ja     54cf <quotearg_buffer_restyled+0x122f>
4320:	48 8d 0d 59 33 00 00 	lea    rcx,[rip+0x3359]        # 7680 <default_tuning+0x100>
4327:	44 89 fa             	mov    edx,r15d
432a:	48 63 04 91          	movsxd rax,DWORD PTR [rcx+rdx*4]
432e:	48 01 c8             	add    rax,rcx
4331:	ff e0                	jmp    rax
4333:	c6 44 24 0e 01       	mov    BYTE PTR [rsp+0xe],0x1
4338:	c6 44 24 7c 00       	mov    BYTE PTR [rsp+0x7c],0x0
433d:	45 31 e4             	xor    r12d,r12d
4340:	48 c7 44 24 50 00 00 	mov    QWORD PTR [rsp+0x50],0x0
4347:	00 00
4349:	c6 44 24 0f 01       	mov    BYTE PTR [rsp+0xf],0x1
434e:	c6 44 24 0d 00       	mov    BYTE PTR [rsp+0xd],0x0
4353:	48 8d 05 bb 32 00 00 	lea    rax,[rip+0x32bb]        # 7615 <default_tuning+0x95>
435a:	48 c7 44 24 18 01 00 	mov    QWORD PTR [rsp+0x18],0x1
4361:	00 00
4363:	45 31 ff             	xor    r15d,r15d
4366:	c7 44 24 08 02 00 00 	mov    DWORD PTR [rsp+0x8],0x2
436d:	00
436e:	48 89 44 24 48       	mov    QWORD PTR [rsp+0x48],rax
4373:	45 31 db             	xor    r11d,r11d
4376:	48 89 e8             	mov    rax,rbp
4379:	45 89 e0             	mov    r8d,r12d
437c:	4c 89 dd             	mov    rbp,r11
437f:	49 89 c3             	mov    r11,rax
4382:	66 0f 1f 44 00 00    	nop    WORD PTR [rax+rax*1+0x0]
4388:	49 39 eb             	cmp    r11,rbp
438b:	41 0f 95 c4          	setne  r12b
438f:	49 83 fb ff          	cmp    r11,0xffffffffffffffff
4393:	75 0d                	jne    43a2 <quotearg_buffer_restyled+0x102>
4395:	48 8b 44 24 10       	mov    rax,QWORD PTR [rsp+0x10]
439a:	80 3c 28 00          	cmp    BYTE PTR [rax+rbp*1],0x0
439e:	41 0f 95 c4          	setne  r12b
43a2:	45 84 e4             	test   r12b,r12b
43a5:	0f 84 55 06 00 00    	je     4a00 <quotearg_buffer_restyled+0x760>
43ab:	83 7c 24 08 02       	cmp    DWORD PTR [rsp+0x8],0x2
43b0:	48 8b 7c 24 10       	mov    rdi,QWORD PTR [rsp+0x10]
43b5:	4c 8d 0c 2f          	lea    r9,[rdi+rbp*1]
43b9:	0f 95 c0             	setne  al
43bc:	22 44 24 0d          	and    al,BYTE PTR [rsp+0xd]
43c0:	41 89 c2             	mov    r10d,eax
43c3:	0f 84 a7 00 00 00    	je     4470 <quotearg_buffer_restyled+0x1d0>
43c9:	48 8b 44 24 18       	mov    rax,QWORD PTR [rsp+0x18]
43ce:	48 85 c0             	test   rax,rax
43d1:	0f 84 29 04 00 00    	je     4800 <quotearg_buffer_restyled+0x560>
43d7:	49 83 fb ff          	cmp    r11,0xffffffffffffffff
43db:	48 8d 5c 05 00       	lea    rbx,[rbp+rax*1+0x0]
43e0:	75 2e                	jne    4410 <quotearg_buffer_restyled+0x170>
43e2:	48 83 f8 01          	cmp    rax,0x1
43e6:	76 28                	jbe    4410 <quotearg_buffer_restyled+0x170>
43e8:	44 88 44 24 38       	mov    BYTE PTR [rsp+0x38],r8b
43ed:	44 88 54 24 30       	mov    BYTE PTR [rsp+0x30],r10b
43f2:	4c 89 4c 24 28       	mov    QWORD PTR [rsp+0x28],r9
43f7:	e8 74 d1 ff ff       	call   1570 <strlen@plt>
43fc:	44 0f b6 44 24 38    	movzx  r8d,BYTE PTR [rsp+0x38]
4402:	44 0f b6 54 24 30    	movzx  r10d,BYTE PTR [rsp+0x30]
4408:	49 89 c3             	mov    r11,rax
440b:	4c 8b 4c 24 28       	mov    r9,QWORD PTR [rsp+0x28]
4410:	4c 39 db             	cmp    rbx,r11
4413:	44 88 54 24 28       	mov    BYTE PTR [rsp+0x28],r10b
4418:	0f 87 b2 05 00 00    	ja     49d0 <quotearg_buffer_restyled+0x730>
441e:	48 8b 54 24 18       	mov    rdx,QWORD PTR [rsp+0x18]
4423:	48 8b 74 24 48       	mov    rsi,QWORD PTR [rsp+0x48]
4428:	4c 89 cf             	mov    rdi,r9
442b:	4c 89 5c 24 40       	mov    QWORD PTR [rsp+0x40],r11
4430:	44 88 44 24 38       	mov    BYTE PTR [rsp+0x38],r8b
4435:	4c 89 4c 24 30       	mov    QWORD PTR [rsp+0x30],r9
443a:	e8 f1 d1 ff ff       	call   1630 <memcmp@plt>
443f:	85 c0                	test   eax,eax
4441:	4c 8b 4c 24 30       	mov    r9,QWORD PTR [rsp+0x30]
4446:	44 0f b6 44 24 38    	movzx  r8d,BYTE PTR [rsp+0x38]
444c:	4c 8b 5c 24 40       	mov    r11,QWORD PTR [rsp+0x40]
4451:	0f 85 79 05 00 00    	jne    49d0 <quotearg_buffer_restyled+0x730>
4457:	80 7c 24 0f 00       	cmp    BYTE PTR [rsp+0xf],0x0
445c:	44 0f b6 54 24 28    	movzx  r10d,BYTE PTR [rsp+0x28]
4462:	0f 85 7d 0f 00 00    	jne    53e5 <quotearg_buffer_restyled+0x1145>
4468:	0f 1f 84 00 00 00 00 	nop    DWORD PTR [rax+rax*1+0x0]
446f:	00
4470:	41 0f b6 19          	movzx  ebx,BYTE PTR [r9]
4474:	80 fb 7e             	cmp    bl,0x7e
4477:	0f 87 1b 03 00 00    	ja     4798 <quotearg_buffer_restyled+0x4f8>
447d:	48 8d 0d 28 32 00 00 	lea    rcx,[rip+0x3228]        # 76ac <default_tuning+0x12c>
4484:	0f b6 d3             	movzx  edx,bl
4487:	48 63 04 91          	movsxd rax,DWORD PTR [rcx+rdx*4]
448b:	48 01 c8             	add    rax,rcx
448e:	ff e0                	jmp    rax
4490:	45 31 d2             	xor    r10d,r10d
4493:	49 83 fb 01          	cmp    r11,0x1
4497:	0f 95 c0             	setne  al
449a:	49 83 fb ff          	cmp    r11,0xffffffffffffffff
449e:	75 0c                	jne    44ac <quotearg_buffer_restyled+0x20c>
44a0:	48 8b 44 24 10       	mov    rax,QWORD PTR [rsp+0x10]
44a5:	80 78 01 00          	cmp    BYTE PTR [rax+0x1],0x0
44a9:	0f 95 c0             	setne  al
44ac:	83 7c 24 08 02       	cmp    DWORD PTR [rsp+0x8],0x2
44b1:	0f 94 c2             	sete   dl
44b4:	84 c0                	test   al,al
44b6:	0f 84 4c 02 00 00    	je     4708 <quotearg_buffer_restyled+0x468>
44bc:	45 31 e4             	xor    r12d,r12d
44bf:	31 c0                	xor    eax,eax
44c1:	0f 1f 80 00 00 00 00 	nop    DWORD PTR [rax+0x0]
44c8:	80 7c 24 0d 01       	cmp    BYTE PTR [rsp+0xd],0x1
44cd:	0f 85 0f 01 00 00    	jne    45e2 <quotearg_buffer_restyled+0x342>
44d3:	84 d2                	test   dl,dl
44d5:	0f 85 07 01 00 00    	jne    45e2 <quotearg_buffer_restyled+0x342>
44db:	48 8b 74 24 20       	mov    rsi,QWORD PTR [rsp+0x20]
44e0:	48 85 f6             	test   rsi,rsi
44e3:	74 14                	je     44f9 <quotearg_buffer_restyled+0x259>
44e5:	89 da                	mov    edx,ebx
44e7:	c0 ea 05             	shr    dl,0x5
44ea:	0f b6 d2             	movzx  edx,dl
44ed:	8b 14 96             	mov    edx,DWORD PTR [rsi+rdx*4]
44f0:	0f a3 da             	bt     edx,ebx
44f3:	0f 82 4a 01 00 00    	jb     4643 <quotearg_buffer_restyled+0x3a3>
44f9:	45 84 d2             	test   r10b,r10b
44fc:	0f 85 41 01 00 00    	jne    4643 <quotearg_buffer_restyled+0x3a3>
4502:	83 f0 01             	xor    eax,0x1
4505:	48 83 c5 01          	add    rbp,0x1
4509:	44 21 c0             	and    eax,r8d
450c:	84 c0                	test   al,al
450e:	74 20                	je     4530 <quotearg_buffer_restyled+0x290>
4510:	4d 39 fd             	cmp    r13,r15
4513:	76 05                	jbe    451a <quotearg_buffer_restyled+0x27a>
4515:	43 c6 04 3e 27       	mov    BYTE PTR [r14+r15*1],0x27
451a:	49 8d 47 01          	lea    rax,[r15+0x1]
451e:	49 39 c5             	cmp    r13,rax
4521:	76 06                	jbe    4529 <quotearg_buffer_restyled+0x289>
4523:	43 c6 44 3e 01 27    	mov    BYTE PTR [r14+r15*1+0x1],0x27
4529:	49 83 c7 02          	add    r15,0x2
452d:	45 31 c0             	xor    r8d,r8d
4530:	4d 39 ef             	cmp    r15,r13
4533:	73 04                	jae    4539 <quotearg_buffer_restyled+0x299>
4535:	43 88 1c 3e          	mov    BYTE PTR [r14+r15*1],bl
4539:	0f b6 7c 24 0e       	movzx  edi,BYTE PTR [rsp+0xe]
453e:	49 83 c7 01          	add    r15,0x1
4542:	b8 00 00 00 00       	mov    eax,0x0
4547:	45 84 e4             	test   r12b,r12b
454a:	0f 44 f8             	cmove  edi,eax
454d:	40 88 7c 24 0e       	mov    BYTE PTR [rsp+0xe],dil
4552:	e9 31 fe ff ff       	jmp    4388 <quotearg_buffer_restyled+0xe8>
4557:	66 0f 1f 84 00 00 00 	nop    WORD PTR [rax+rax*1+0x0]
455e:	00 00
4560:	45 31 d2             	xor    r10d,r10d
4563:	8b 44 24 08          	mov    eax,DWORD PTR [rsp+0x8]
4567:	83 f8 02             	cmp    eax,0x2
456a:	0f 84 b8 05 00 00    	je     4b28 <quotearg_buffer_restyled+0x888>
4570:	83 f8 05             	cmp    eax,0x5
4573:	0f 84 6f 05 00 00    	je     4ae8 <quotearg_buffer_restyled+0x848>
4579:	83 f8 02             	cmp    eax,0x2
457c:	bb 3f 00 00 00       	mov    ebx,0x3f
4581:	0f 94 c2             	sete   dl
4584:	45 31 e4             	xor    r12d,r12d
4587:	31 c0                	xor    eax,eax
4589:	e9 3a ff ff ff       	jmp    44c8 <quotearg_buffer_restyled+0x228>
458e:	66 90                	xchg   ax,ax
4590:	45 31 d2             	xor    r10d,r10d
4593:	83 7c 24 08 02       	cmp    DWORD PTR [rsp+0x8],0x2
4598:	0f 84 02 05 00 00    	je     4aa0 <quotearg_buffer_restyled+0x800>
459e:	44 88 64 24 7c       	mov    BYTE PTR [rsp+0x7c],r12b
45a3:	31 d2                	xor    edx,edx
45a5:	31 c0                	xor    eax,eax
45a7:	bb 27 00 00 00       	mov    ebx,0x27
45ac:	e9 17 ff ff ff       	jmp    44c8 <quotearg_buffer_restyled+0x228>
45b1:	0f 1f 80 00 00 00 00 	nop    DWORD PTR [rax+0x0]
45b8:	ba 09 00 00 00       	mov    edx,0x9
45bd:	bb 74 00 00 00       	mov    ebx,0x74
45c2:	83 7c 24 08 02       	cmp    DWORD PTR [rsp+0x8],0x2
45c7:	0f 94 c0             	sete   al
45ca:	22 44 24 0f          	and    al,BYTE PTR [rsp+0xf]
45ce:	0f 85 4a 01 00 00    	jne    471e <quotearg_buffer_restyled+0x47e>
45d4:	80 7c 24 0d 00       	cmp    BYTE PTR [rsp+0xd],0x0
45d9:	75 65                	jne    4640 <quotearg_buffer_restyled+0x3a0>
45db:	89 d3                	mov    ebx,edx
45dd:	45 31 e4             	xor    r12d,r12d
45e0:	31 c0                	xor    eax,eax
45e2:	80 7c 24 0f 00       	cmp    BYTE PTR [rsp+0xf],0x0
45e7:	0f 85 ee fe ff ff    	jne    44db <quotearg_buffer_restyled+0x23b>
45ed:	e9 07 ff ff ff       	jmp    44f9 <quotearg_buffer_restyled+0x259>
45f2:	66 0f 1f 44 00 00    	nop    WORD PTR [rax+rax*1+0x0]
45f8:	ba 08 00 00 00       	mov    edx,0x8
45fd:	bb 62 00 00 00       	mov    ebx,0x62
4602:	eb d0                	jmp    45d4 <quotearg_buffer_restyled+0x334>
4604:	0f 1f 40 00          	nop    DWORD PTR [rax+0x0]
4608:	83 7c 24 08 02       	cmp    DWORD PTR [rsp+0x8],0x2
460d:	0f 84 cd 03 00 00    	je     49e0 <quotearg_buffer_restyled+0x740>
4613:	80 7c 24 0d 00       	cmp    BYTE PTR [rsp+0xd],0x0
4618:	0f 84 12 02 00 00    	je     4830 <quotearg_buffer_restyled+0x590>
461e:	80 7c 24 0f 00       	cmp    BYTE PTR [rsp+0xf],0x0
4623:	0f 84 07 02 00 00    	je     4830 <quotearg_buffer_restyled+0x590>
4629:	48 83 7c 24 18 00    	cmp    QWORD PTR [rsp+0x18],0x0
462f:	0f 85 b6 03 00 00    	jne    49eb <quotearg_buffer_restyled+0x74b>
4635:	bb 5c 00 00 00       	mov    ebx,0x5c
463a:	66 0f 1f 44 00 00    	nop    WORD PTR [rax+rax*1+0x0]
4640:	45 31 e4             	xor    r12d,r12d
4643:	83 7c 24 08 02       	cmp    DWORD PTR [rsp+0x8],0x2
4648:	0f 94 c2             	sete   dl
464b:	80 7c 24 0f 00       	cmp    BYTE PTR [rsp+0xf],0x0
4650:	89 d0                	mov    eax,edx
4652:	0f 85 50 08 00 00    	jne    4ea8 <quotearg_buffer_restyled+0xc08>
4658:	44 89 c0             	mov    eax,r8d
465b:	83 f0 01             	xor    eax,0x1
465e:	20 d0                	and    al,dl
4660:	74 2f                	je     4691 <quotearg_buffer_restyled+0x3f1>
4662:	4d 39 fd             	cmp    r13,r15
4665:	76 05                	jbe    466c <quotearg_buffer_restyled+0x3cc>
4667:	43 c6 04 3e 27       	mov    BYTE PTR [r14+r15*1],0x27
466c:	49 8d 57 01          	lea    rdx,[r15+0x1]
4670:	49 39 d5             	cmp    r13,rdx
4673:	76 06                	jbe    467b <quotearg_buffer_restyled+0x3db>
4675:	43 c6 44 3e 01 24    	mov    BYTE PTR [r14+r15*1+0x1],0x24
467b:	49 8d 57 02          	lea    rdx,[r15+0x2]
467f:	49 39 d5             	cmp    r13,rdx
4682:	76 06                	jbe    468a <quotearg_buffer_restyled+0x3ea>
4684:	43 c6 44 3e 02 27    	mov    BYTE PTR [r14+r15*1+0x2],0x27
468a:	49 83 c7 03          	add    r15,0x3
468e:	41 89 c0             	mov    r8d,eax
4691:	4d 39 fd             	cmp    r13,r15
4694:	76 05                	jbe    469b <quotearg_buffer_restyled+0x3fb>
4696:	43 c6 04 3e 5c       	mov    BYTE PTR [r14+r15*1],0x5c
469b:	49 83 c7 01          	add    r15,0x1
469f:	48 83 c5 01          	add    rbp,0x1
46a3:	e9 88 fe ff ff       	jmp    4530 <quotearg_buffer_restyled+0x290>
46a8:	0f 1f 84 00 00 00 00 	nop    DWORD PTR [rax+rax*1+0x0]
46af:	00
46b0:	80 7c 24 0d 00       	cmp    BYTE PTR [rsp+0xd],0x0
46b5:	0f 85 c8 01 00 00    	jne    4883 <quotearg_buffer_restyled+0x5e3>
46bb:	31 d2                	xor    edx,edx
46bd:	f6 44 24 78 01       	test   BYTE PTR [rsp+0x78],0x1
46c2:	0f 84 13 ff ff ff    	je     45db <quotearg_buffer_restyled+0x33b>
46c8:	48 83 c5 01          	add    rbp,0x1
46cc:	e9 b7 fc ff ff       	jmp    4388 <quotearg_buffer_restyled+0xe8>
46d1:	0f 1f 80 00 00 00 00 	nop    DWORD PTR [rax+0x0]
46d8:	83 7c 24 08 02       	cmp    DWORD PTR [rsp+0x8],0x2
46dd:	0f 94 c2             	sete   dl
46e0:	31 c0                	xor    eax,eax
46e2:	e9 e1 fd ff ff       	jmp    44c8 <quotearg_buffer_restyled+0x228>
46e7:	66 0f 1f 84 00 00 00 	nop    WORD PTR [rax+rax*1+0x0]
46ee:	00 00
46f0:	ba 07 00 00 00       	mov    edx,0x7
46f5:	bb 61 00 00 00       	mov    ebx,0x61
46fa:	e9 d5 fe ff ff       	jmp    45d4 <quotearg_buffer_restyled+0x334>
46ff:	90                   	nop
4700:	83 7c 24 08 02       	cmp    DWORD PTR [rsp+0x8],0x2
4705:	0f 94 c2             	sete   dl
4708:	48 85 ed             	test   rbp,rbp
470b:	0f 85 ab fd ff ff    	jne    44bc <quotearg_buffer_restyled+0x21c>
4711:	0f b6 44 24 0f       	movzx  eax,BYTE PTR [rsp+0xf]
4716:	20 d0                	and    al,dl
4718:	0f 84 aa fd ff ff    	je     44c8 <quotearg_buffer_restyled+0x228>
471e:	4c 89 dd             	mov    rbp,r11
4721:	c7 44 24 08 02 00 00 	mov    DWORD PTR [rsp+0x8],0x2
4728:	00
4729:	e9 fb 06 00 00       	jmp    4e29 <quotearg_buffer_restyled+0xb89>
472e:	66 90                	xchg   ax,ax
4730:	83 7c 24 08 02       	cmp    DWORD PTR [rsp+0x8],0x2
4735:	0f 94 c2             	sete   dl
4738:	45 31 e4             	xor    r12d,r12d
473b:	eb d4                	jmp    4711 <quotearg_buffer_restyled+0x471>
473d:	0f 1f 00             	nop    DWORD PTR [rax]
4740:	83 7c 24 08 02       	cmp    DWORD PTR [rsp+0x8],0x2
4745:	bb 20 00 00 00       	mov    ebx,0x20
474a:	0f 94 c2             	sete   dl
474d:	eb c2                	jmp    4711 <quotearg_buffer_restyled+0x471>
474f:	90                   	nop
4750:	ba 0d 00 00 00       	mov    edx,0xd
4755:	bb 72 00 00 00       	mov    ebx,0x72
475a:	e9 63 fe ff ff       	jmp    45c2 <quotearg_buffer_restyled+0x322>
475f:	90                   	nop
4760:	ba 0c 00 00 00       	mov    edx,0xc
4765:	bb 66 00 00 00       	mov    ebx,0x66
476a:	e9 65 fe ff ff       	jmp    45d4 <quotearg_buffer_restyled+0x334>
476f:	90                   	nop
4770:	ba 0b 00 00 00       	mov    edx,0xb
4775:	bb 76 00 00 00       	mov    ebx,0x76
477a:	e9 55 fe ff ff       	jmp    45d4 <quotearg_buffer_restyled+0x334>
477f:	90                   	nop
4780:	ba 0a 00 00 00       	mov    edx,0xa
4785:	bb 6e 00 00 00       	mov    ebx,0x6e
478a:	e9 33 fe ff ff       	jmp    45c2 <quotearg_buffer_restyled+0x322>
478f:	90                   	nop
4790:	45 31 d2             	xor    r10d,r10d
4793:	0f 1f 44 00 00       	nop    DWORD PTR [rax+rax*1+0x0]
4798:	48 83 7c 24 58 01    	cmp    QWORD PTR [rsp+0x58],0x1
479e:	0f 85 a4 03 00 00    	jne    4b48 <quotearg_buffer_restyled+0x8a8>
47a4:	4c 89 5c 24 38       	mov    QWORD PTR [rsp+0x38],r11
47a9:	44 88 44 24 30       	mov    BYTE PTR [rsp+0x30],r8b
47ae:	44 88 54 24 28       	mov    BYTE PTR [rsp+0x28],r10b
47b3:	e8 e8 cf ff ff       	call   17a0 <__ctype_b_loc@plt>
47b8:	48 8b 08             	mov    rcx,QWORD PTR [rax]
47bb:	0f b6 d3             	movzx  edx,bl
47be:	44 0f b6 54 24 28    	movzx  r10d,BYTE PTR [rsp+0x28]
47c4:	44 0f b6 44 24 30    	movzx  r8d,BYTE PTR [rsp+0x30]
47ca:	4c 8b 5c 24 38       	mov    r11,QWORD PTR [rsp+0x38]
47cf:	bf 01 00 00 00       	mov    edi,0x1
47d4:	0f b7 04 51          	movzx  eax,WORD PTR [rcx+rdx*2]
47d8:	66 25 00 40          	and    ax,0x4000
47dc:	41 0f 95 c4          	setne  r12b
47e0:	0f 94 c0             	sete   al
47e3:	22 44 24 0d          	and    al,BYTE PTR [rsp+0xd]
47e7:	84 c0                	test   al,al
47e9:	0f 85 92 09 00 00    	jne    5181 <quotearg_buffer_restyled+0xee1>
47ef:	83 7c 24 08 02       	cmp    DWORD PTR [rsp+0x8],0x2
47f4:	0f 94 c2             	sete   dl
47f7:	e9 cc fc ff ff       	jmp    44c8 <quotearg_buffer_restyled+0x228>
47fc:	0f 1f 40 00          	nop    DWORD PTR [rax+0x0]
4800:	41 0f b6 19          	movzx  ebx,BYTE PTR [r9]
4804:	80 fb 7e             	cmp    bl,0x7e
4807:	77 87                	ja     4790 <quotearg_buffer_restyled+0x4f0>
4809:	48 8d 0d 98 30 00 00 	lea    rcx,[rip+0x3098]        # 78a8 <default_tuning+0x328>
4810:	0f b6 d3             	movzx  edx,bl
4813:	48 63 04 91          	movsxd rax,DWORD PTR [rcx+rdx*4]
4817:	48 01 c8             	add    rax,rcx
481a:	ff e0                	jmp    rax
481c:	0f 1f 40 00          	nop    DWORD PTR [rax+0x0]
4820:	45 31 d2             	xor    r10d,r10d
4823:	80 7c 24 0d 00       	cmp    BYTE PTR [rsp+0xd],0x0
4828:	0f 85 f0 fd ff ff    	jne    461e <quotearg_buffer_restyled+0x37e>
482e:	66 90                	xchg   ax,ax
4830:	ba 5c 00 00 00       	mov    edx,0x5c
4835:	bb 5c 00 00 00       	mov    ebx,0x5c
483a:	e9 95 fd ff ff       	jmp    45d4 <quotearg_buffer_restyled+0x334>
483f:	90                   	nop
4840:	ba 0c 00 00 00       	mov    edx,0xc
4845:	45 31 d2             	xor    r10d,r10d
4848:	bb 66 00 00 00       	mov    ebx,0x66
484d:	e9 82 fd ff ff       	jmp    45d4 <quotearg_buffer_restyled+0x334>
4852:	66 0f 1f 44 00 00    	nop    WORD PTR [rax+rax*1+0x0]
4858:	ba 0a 00 00 00       	mov    edx,0xa
485d:	45 31 d2             	xor    r10d,r10d
4860:	bb 6e 00 00 00       	mov    ebx,0x6e
4865:	e9 58 fd ff ff       	jmp    45c2 <quotearg_buffer_restyled+0x322>
486a:	66 0f 1f 44 00 00    	nop    WORD PTR [rax+rax*1+0x0]
4870:	bb 61 00 00 00       	mov    ebx,0x61
4875:	e9 c6 fd ff ff       	jmp    4640 <quotearg_buffer_restyled+0x3a0>
487a:	66 0f 1f 44 00 00    	nop    WORD PTR [rax+rax*1+0x0]
4880:	45 31 d2             	xor    r10d,r10d
4883:	83 7c 24 08 02       	cmp    DWORD PTR [rsp+0x8],0x2
4888:	0f 94 c2             	sete   dl
488b:	80 7c 24 0f 00       	cmp    BYTE PTR [rsp+0xf],0x0
4890:	0f 85 94 0b 00 00    	jne    542a <quotearg_buffer_restyled+0x118a>
4896:	44 89 c0             	mov    eax,r8d
4899:	4c 89 f9             	mov    rcx,r15
489c:	83 f0 01             	xor    eax,0x1
489f:	20 d0                	and    al,dl
48a1:	74 2d                	je     48d0 <quotearg_buffer_restyled+0x630>
48a3:	4d 39 fd             	cmp    r13,r15
48a6:	76 05                	jbe    48ad <quotearg_buffer_restyled+0x60d>
48a8:	43 c6 04 3e 27       	mov    BYTE PTR [r14+r15*1],0x27
48ad:	49 8d 4f 01          	lea    rcx,[r15+0x1]
48b1:	49 39 cd             	cmp    r13,rcx
48b4:	76 06                	jbe    48bc <quotearg_buffer_restyled+0x61c>
48b6:	43 c6 44 3e 01 24    	mov    BYTE PTR [r14+r15*1+0x1],0x24
48bc:	49 8d 4f 02          	lea    rcx,[r15+0x2]
48c0:	49 39 cd             	cmp    r13,rcx
48c3:	0f 87 30 06 00 00    	ja     4ef9 <quotearg_buffer_restyled+0xc59>
48c9:	49 8d 4f 03          	lea    rcx,[r15+0x3]
48cd:	41 89 c0             	mov    r8d,eax
48d0:	49 39 cd             	cmp    r13,rcx
48d3:	76 05                	jbe    48da <quotearg_buffer_restyled+0x63a>
48d5:	41 c6 04 0e 5c       	mov    BYTE PTR [r14+rcx*1],0x5c
48da:	83 7c 24 08 02       	cmp    DWORD PTR [rsp+0x8],0x2
48df:	4c 8d 79 01          	lea    r15,[rcx+0x1]
48e3:	0f 84 00 06 00 00    	je     4ee9 <quotearg_buffer_restyled+0xc49>
48e9:	48 8d 45 01          	lea    rax,[rbp+0x1]
48ed:	4c 39 d8             	cmp    rax,r11
48f0:	73 19                	jae    490b <quotearg_buffer_restyled+0x66b>
48f2:	48 8b 44 24 10       	mov    rax,QWORD PTR [rsp+0x10]
48f7:	0f b6 44 28 01       	movzx  eax,BYTE PTR [rax+rbp*1+0x1]
48fc:	88 44 24 28          	mov    BYTE PTR [rsp+0x28],al
4900:	83 e8 30             	sub    eax,0x30
4903:	3c 09                	cmp    al,0x9
4905:	0f 86 2e 08 00 00    	jbe    5139 <quotearg_buffer_restyled+0xe99>
490b:	44 89 e0             	mov    eax,r12d
490e:	bb 30 00 00 00       	mov    ebx,0x30
4913:	45 31 e4             	xor    r12d,r12d
4916:	e9 ad fb ff ff       	jmp    44c8 <quotearg_buffer_restyled+0x228>
491b:	0f 1f 44 00 00       	nop    DWORD PTR [rax+rax*1+0x0]
4920:	83 7c 24 08 02       	cmp    DWORD PTR [rsp+0x8],0x2
4925:	45 89 d4             	mov    r12d,r10d
4928:	0f 94 c2             	sete   dl
492b:	45 31 d2             	xor    r10d,r10d
492e:	31 c0                	xor    eax,eax
4930:	e9 93 fb ff ff       	jmp    44c8 <quotearg_buffer_restyled+0x228>
4935:	0f 1f 00             	nop    DWORD PTR [rax]
4938:	83 7c 24 08 02       	cmp    DWORD PTR [rsp+0x8],0x2
493d:	0f 94 c2             	sete   dl
4940:	45 31 d2             	xor    r10d,r10d
4943:	e9 c0 fd ff ff       	jmp    4708 <quotearg_buffer_restyled+0x468>
4948:	0f 1f 84 00 00 00 00 	nop    DWORD PTR [rax+rax*1+0x0]
494f:	00
4950:	83 7c 24 08 02       	cmp    DWORD PTR [rsp+0x8],0x2
4955:	0f 94 c2             	sete   dl
4958:	45 31 d2             	xor    r10d,r10d
495b:	45 31 e4             	xor    r12d,r12d
495e:	e9 ae fd ff ff       	jmp    4711 <quotearg_buffer_restyled+0x471>
4963:	0f 1f 44 00 00       	nop    DWORD PTR [rax+rax*1+0x0]
4968:	83 7c 24 08 02       	cmp    DWORD PTR [rsp+0x8],0x2
496d:	45 89 d4             	mov    r12d,r10d
4970:	bb 20 00 00 00       	mov    ebx,0x20
4975:	0f 94 c2             	sete   dl
4978:	45 31 d2             	xor    r10d,r10d
497b:	e9 91 fd ff ff       	jmp    4711 <quotearg_buffer_restyled+0x471>
4980:	ba 0d 00 00 00       	mov    edx,0xd
4985:	45 31 d2             	xor    r10d,r10d
4988:	bb 72 00 00 00       	mov    ebx,0x72
498d:	e9 30 fc ff ff       	jmp    45c2 <quotearg_buffer_restyled+0x322>
4992:	66 0f 1f 44 00 00    	nop    WORD PTR [rax+rax*1+0x0]
4998:	bb 76 00 00 00       	mov    ebx,0x76
499d:	e9 9e fc ff ff       	jmp    4640 <quotearg_buffer_restyled+0x3a0>
49a2:	66 0f 1f 44 00 00    	nop    WORD PTR [rax+rax*1+0x0]
49a8:	ba 09 00 00 00       	mov    edx,0x9
49ad:	45 31 d2             	xor    r10d,r10d
49b0:	bb 74 00 00 00       	mov    ebx,0x74
49b5:	e9 08 fc ff ff       	jmp    45c2 <quotearg_buffer_restyled+0x322>
49ba:	66 0f 1f 44 00 00    	nop    WORD PTR [rax+rax*1+0x0]
49c0:	bb 62 00 00 00       	mov    ebx,0x62
49c5:	e9 76 fc ff ff       	jmp    4640 <quotearg_buffer_restyled+0x3a0>
49ca:	66 0f 1f 44 00 00    	nop    WORD PTR [rax+rax*1+0x0]
49d0:	45 31 d2             	xor    r10d,r10d
49d3:	e9 98 fa ff ff       	jmp    4470 <quotearg_buffer_restyled+0x1d0>
49d8:	0f 1f 84 00 00 00 00 	nop    DWORD PTR [rax+rax*1+0x0]
49df:	00
49e0:	80 7c 24 0f 00       	cmp    BYTE PTR [rsp+0xf],0x0
49e5:	0f 85 65 09 00 00    	jne    5350 <quotearg_buffer_restyled+0x10b0>
49eb:	48 83 c5 01          	add    rbp,0x1
49ef:	44 89 c0             	mov    eax,r8d
49f2:	45 31 e4             	xor    r12d,r12d
49f5:	bb 5c 00 00 00       	mov    ebx,0x5c
49fa:	e9 0d fb ff ff       	jmp    450c <quotearg_buffer_restyled+0x26c>
49ff:	90                   	nop
4a00:	83 7c 24 08 02       	cmp    DWORD PTR [rsp+0x8],0x2
4a05:	0f b6 5c 24 0f       	movzx  ebx,BYTE PTR [rsp+0xf]
4a0a:	45 89 c4             	mov    r12d,r8d
4a0d:	4c 89 dd             	mov    rbp,r11
4a10:	0f 94 c2             	sete   dl
4a13:	89 d8                	mov    eax,ebx
4a15:	4d 85 ff             	test   r15,r15
4a18:	0f 94 c1             	sete   cl
4a1b:	21 d0                	and    eax,edx
4a1d:	20 c8                	and    al,cl
4a1f:	0f 85 61 0a 00 00    	jne    5486 <quotearg_buffer_restyled+0x11e6>
4a25:	89 d8                	mov    eax,ebx
4a27:	83 f0 01             	xor    eax,0x1
4a2a:	20 c2                	and    dl,al
4a2c:	0f 84 6a 09 00 00    	je     539c <quotearg_buffer_restyled+0x10fc>
4a32:	80 7c 24 7c 00       	cmp    BYTE PTR [rsp+0x7c],0x0
4a37:	0f 84 5d 09 00 00    	je     539a <quotearg_buffer_restyled+0x10fa>
4a3d:	80 7c 24 0e 00       	cmp    BYTE PTR [rsp+0xe],0x0
4a42:	0f 85 f5 09 00 00    	jne    543d <quotearg_buffer_restyled+0x119d>
4a48:	4d 85 ed             	test   r13,r13
4a4b:	0f 94 c0             	sete   al
4a4e:	48 83 7c 24 50 00    	cmp    QWORD PTR [rsp+0x50],0x0
4a54:	0f 95 c2             	setne  dl
4a57:	20 d0                	and    al,dl
4a59:	0f 84 1d 0a 00 00    	je     547c <quotearg_buffer_restyled+0x11dc>
4a5f:	4c 8b 6c 24 50       	mov    r13,QWORD PTR [rsp+0x50]
4a64:	48 8d 1d aa 2b 00 00 	lea    rbx,[rip+0x2baa]        # 7615 <default_tuning+0x95>
4a6b:	41 c6 06 27          	mov    BYTE PTR [r14],0x27
4a6f:	c7 44 24 08 02 00 00 	mov    DWORD PTR [rsp+0x8],0x2
4a76:	00
4a77:	41 bf 01 00 00 00    	mov    r15d,0x1
4a7d:	48 c7 44 24 18 01 00 	mov    QWORD PTR [rsp+0x18],0x1
4a84:	00 00
4a86:	c6 44 24 0f 00       	mov    BYTE PTR [rsp+0xf],0x0
4a8b:	48 89 5c 24 48       	mov    QWORD PTR [rsp+0x48],rbx
4a90:	88 44 24 7c          	mov    BYTE PTR [rsp+0x7c],al
4a94:	e9 da f8 ff ff       	jmp    4373 <quotearg_buffer_restyled+0xd3>
4a99:	0f 1f 80 00 00 00 00 	nop    DWORD PTR [rax+0x0]
4aa0:	80 7c 24 0f 00       	cmp    BYTE PTR [rsp+0xf],0x0
4aa5:	0f 85 a5 08 00 00    	jne    5350 <quotearg_buffer_restyled+0x10b0>
4aab:	4d 85 ed             	test   r13,r13
4aae:	0f 84 fc 03 00 00    	je     4eb0 <quotearg_buffer_restyled+0xc10>
4ab4:	31 d2                	xor    edx,edx
4ab6:	48 83 7c 24 50 00    	cmp    QWORD PTR [rsp+0x50],0x0
4abc:	0f 85 ee 03 00 00    	jne    4eb0 <quotearg_buffer_restyled+0xc10>
4ac2:	4c 89 6c 24 50       	mov    QWORD PTR [rsp+0x50],r13
4ac7:	49 83 c7 03          	add    r15,0x3
4acb:	31 c0                	xor    eax,eax
4acd:	44 88 64 24 7c       	mov    BYTE PTR [rsp+0x7c],r12b
4ad2:	45 31 c0             	xor    r8d,r8d
4ad5:	49 89 d5             	mov    r13,rdx
4ad8:	bb 27 00 00 00       	mov    ebx,0x27
4add:	e9 17 fa ff ff       	jmp    44f9 <quotearg_buffer_restyled+0x259>
4ae2:	66 0f 1f 44 00 00    	nop    WORD PTR [rax+rax*1+0x0]
4ae8:	f6 44 24 78 04       	test   BYTE PTR [rsp+0x78],0x4
4aed:	74 21                	je     4b10 <quotearg_buffer_restyled+0x870>
4aef:	48 8d 4d 02          	lea    rcx,[rbp+0x2]
4af3:	4c 39 d9             	cmp    rcx,r11
4af6:	73 18                	jae    4b10 <quotearg_buffer_restyled+0x870>
4af8:	48 8b 44 24 10       	mov    rax,QWORD PTR [rsp+0x10]
4afd:	80 7c 28 01 3f       	cmp    BYTE PTR [rax+rbp*1+0x1],0x3f
4b02:	0f 84 8a 07 00 00    	je     5292 <quotearg_buffer_restyled+0xff2>
4b08:	0f 1f 84 00 00 00 00 	nop    DWORD PTR [rax+rax*1+0x0]
4b0f:	00
4b10:	31 d2                	xor    edx,edx
4b12:	45 31 e4             	xor    r12d,r12d
4b15:	31 c0                	xor    eax,eax
4b17:	bb 3f 00 00 00       	mov    ebx,0x3f
4b1c:	e9 a7 f9 ff ff       	jmp    44c8 <quotearg_buffer_restyled+0x228>
4b21:	0f 1f 80 00 00 00 00 	nop    DWORD PTR [rax+0x0]
4b28:	80 7c 24 0f 00       	cmp    BYTE PTR [rsp+0xf],0x0
4b2d:	0f 85 1d 08 00 00    	jne    5350 <quotearg_buffer_restyled+0x10b0>
4b33:	45 31 e4             	xor    r12d,r12d
4b36:	31 c0                	xor    eax,eax
4b38:	bb 3f 00 00 00       	mov    ebx,0x3f
4b3d:	e9 b7 f9 ff ff       	jmp    44f9 <quotearg_buffer_restyled+0x259>
4b42:	66 0f 1f 44 00 00    	nop    WORD PTR [rax+rax*1+0x0]
4b48:	48 8d 84 24 a0 00 00 	lea    rax,[rsp+0xa0]
4b4f:	00
4b50:	49 83 fb ff          	cmp    r11,0xffffffffffffffff
4b54:	48 c7 84 24 a0 00 00 	mov    QWORD PTR [rsp+0xa0],0x0
4b5b:	00 00 00 00 00
4b60:	48 89 44 24 28       	mov    QWORD PTR [rsp+0x28],rax
4b65:	75 2d                	jne    4b94 <quotearg_buffer_restyled+0x8f4>
4b67:	48 8b 7c 24 10       	mov    rdi,QWORD PTR [rsp+0x10]
4b6c:	44 88 44 24 40       	mov    BYTE PTR [rsp+0x40],r8b
4b71:	44 88 54 24 38       	mov    BYTE PTR [rsp+0x38],r10b
4b76:	4c 89 4c 24 30       	mov    QWORD PTR [rsp+0x30],r9
4b7b:	e8 f0 c9 ff ff       	call   1570 <strlen@plt>
4b80:	44 0f b6 44 24 40    	movzx  r8d,BYTE PTR [rsp+0x40]
4b86:	44 0f b6 54 24 38    	movzx  r10d,BYTE PTR [rsp+0x38]
4b8c:	49 89 c3             	mov    r11,rax
4b8f:	4c 8b 4c 24 30       	mov    r9,QWORD PTR [rsp+0x30]
4b94:	48 8d 84 24 9c 00 00 	lea    rax,[rsp+0x9c]
4b9b:	00
4b9c:	31 c9                	xor    ecx,ecx
4b9e:	88 5c 24 7e          	mov    BYTE PTR [rsp+0x7e],bl
4ba2:	44 88 44 24 7d       	mov    BYTE PTR [rsp+0x7d],r8b
4ba7:	48 89 cb             	mov    rbx,rcx
4baa:	4c 89 8c 24 88 00 00 	mov    QWORD PTR [rsp+0x88],r9
4bb1:	00
4bb2:	48 89 44 24 38       	mov    QWORD PTR [rsp+0x38],rax
4bb7:	44 88 54 24 7f       	mov    BYTE PTR [rsp+0x7f],r10b
4bbc:	4c 89 bc 24 80 00 00 	mov    QWORD PTR [rsp+0x80],r15
4bc3:	00
4bc4:	4c 89 74 24 40       	mov    QWORD PTR [rsp+0x40],r14
4bc9:	4c 89 6c 24 70       	mov    QWORD PTR [rsp+0x70],r13
4bce:	4c 89 5c 24 30       	mov    QWORD PTR [rsp+0x30],r11
4bd3:	48 8b 44 24 10       	mov    rax,QWORD PTR [rsp+0x10]
4bd8:	4c 8d 74 1d 00       	lea    r14,[rbp+rbx*1+0x0]
4bdd:	48 8b 54 24 30       	mov    rdx,QWORD PTR [rsp+0x30]
4be2:	48 8b 4c 24 28       	mov    rcx,QWORD PTR [rsp+0x28]
4be7:	48 8b 7c 24 38       	mov    rdi,QWORD PTR [rsp+0x38]
4bec:	4e 8d 2c 30          	lea    r13,[rax+r14*1]
4bf0:	4c 29 f2             	sub    rdx,r14
4bf3:	4c 89 ee             	mov    rsi,r13
4bf6:	e8 15 1d 00 00       	call   6910 <rpl_mbrtowc>
4bfb:	48 85 c0             	test   rax,rax
4bfe:	49 89 c7             	mov    r15,rax
4c01:	74 4e                	je     4c51 <quotearg_buffer_restyled+0x9b1>
4c03:	48 83 f8 ff          	cmp    rax,0xffffffffffffffff
4c07:	0f 84 18 06 00 00    	je     5225 <quotearg_buffer_restyled+0xf85>
4c0d:	48 83 f8 fe          	cmp    rax,0xfffffffffffffffe
4c11:	0f 84 9a 05 00 00    	je     51b1 <quotearg_buffer_restyled+0xf11>
4c17:	83 7c 24 08 02       	cmp    DWORD PTR [rsp+0x8],0x2
4c1c:	0f 94 c0             	sete   al
4c1f:	22 44 24 0f          	and    al,BYTE PTR [rsp+0xf]
4c23:	0f 85 97 01 00 00    	jne    4dc0 <quotearg_buffer_restyled+0xb20>
4c29:	8b bc 24 9c 00 00 00 	mov    edi,DWORD PTR [rsp+0x9c]
4c30:	e8 5b cb ff ff       	call   1790 <iswprint@plt>
4c35:	48 8b 7c 24 28       	mov    rdi,QWORD PTR [rsp+0x28]
4c3a:	85 c0                	test   eax,eax
4c3c:	b8 00 00 00 00       	mov    eax,0x0
4c41:	44 0f 44 e0          	cmove  r12d,eax
4c45:	4c 01 fb             	add    rbx,r15
4c48:	e8 33 cb ff ff       	call   1780 <mbsinit@plt>
4c4d:	85 c0                	test   eax,eax
4c4f:	74 82                	je     4bd3 <quotearg_buffer_restyled+0x933>
4c51:	44 89 e2             	mov    edx,r12d
4c54:	48 89 df             	mov    rdi,rbx
4c57:	44 0f b6 44 24 7d    	movzx  r8d,BYTE PTR [rsp+0x7d]
4c5d:	83 f2 01             	xor    edx,0x1
4c60:	0f b6 5c 24 7e       	movzx  ebx,BYTE PTR [rsp+0x7e]
4c65:	44 0f b6 54 24 7f    	movzx  r10d,BYTE PTR [rsp+0x7f]
4c6b:	22 54 24 0d          	and    dl,BYTE PTR [rsp+0xd]
4c6f:	4c 8b bc 24 80 00 00 	mov    r15,QWORD PTR [rsp+0x80]
4c76:	00
4c77:	4c 8b 74 24 40       	mov    r14,QWORD PTR [rsp+0x40]
4c7c:	4c 8b 6c 24 70       	mov    r13,QWORD PTR [rsp+0x70]
4c81:	4c 8b 5c 24 30       	mov    r11,QWORD PTR [rsp+0x30]
4c86:	48 83 ff 01          	cmp    rdi,0x1
4c8a:	0f 86 fb 05 00 00    	jbe    528b <quotearg_buffer_restyled+0xfeb>
4c90:	48 89 f9             	mov    rcx,rdi
4c93:	31 f6                	xor    esi,esi
4c95:	44 0f b6 4c 24 0f    	movzx  r9d,BYTE PTR [rsp+0xf]
4c9b:	48 01 e9             	add    rcx,rbp
4c9e:	48 8b 7c 24 10       	mov    rdi,QWORD PTR [rsp+0x10]
4ca3:	e9 b6 00 00 00       	jmp    4d5e <quotearg_buffer_restyled+0xabe>
4ca8:	0f 1f 84 00 00 00 00 	nop    DWORD PTR [rax+rax*1+0x0]
4caf:	00
4cb0:	83 7c 24 08 02       	cmp    DWORD PTR [rsp+0x8],0x2
4cb5:	0f 94 c0             	sete   al
4cb8:	45 84 c9             	test   r9b,r9b
4cbb:	0f 85 af 04 00 00    	jne    5170 <quotearg_buffer_restyled+0xed0>
4cc1:	44 89 c6             	mov    esi,r8d
4cc4:	83 f6 01             	xor    esi,0x1
4cc7:	40 20 f0             	and    al,sil
4cca:	74 2f                	je     4cfb <quotearg_buffer_restyled+0xa5b>
4ccc:	4d 39 fd             	cmp    r13,r15
4ccf:	76 05                	jbe    4cd6 <quotearg_buffer_restyled+0xa36>
4cd1:	43 c6 04 3e 27       	mov    BYTE PTR [r14+r15*1],0x27
4cd6:	49 8d 77 01          	lea    rsi,[r15+0x1]
4cda:	49 39 f5             	cmp    r13,rsi
4cdd:	76 06                	jbe    4ce5 <quotearg_buffer_restyled+0xa45>
4cdf:	43 c6 44 3e 01 24    	mov    BYTE PTR [r14+r15*1+0x1],0x24
4ce5:	49 8d 77 02          	lea    rsi,[r15+0x2]
4ce9:	49 39 f5             	cmp    r13,rsi
4cec:	76 06                	jbe    4cf4 <quotearg_buffer_restyled+0xa54>
4cee:	43 c6 44 3e 02 27    	mov    BYTE PTR [r14+r15*1+0x2],0x27
4cf4:	49 83 c7 03          	add    r15,0x3
4cf8:	41 89 c0             	mov    r8d,eax
4cfb:	4d 39 fd             	cmp    r13,r15
4cfe:	76 05                	jbe    4d05 <quotearg_buffer_restyled+0xa65>
4d00:	43 c6 04 3e 5c       	mov    BYTE PTR [r14+r15*1],0x5c
4d05:	49 8d 47 01          	lea    rax,[r15+0x1]
4d09:	49 39 c5             	cmp    r13,rax
4d0c:	76 0d                	jbe    4d1b <quotearg_buffer_restyled+0xa7b>
4d0e:	89 d8                	mov    eax,ebx
4d10:	c0 e8 06             	shr    al,0x6
4d13:	83 c0 30             	add    eax,0x30
4d16:	43 88 44 3e 01       	mov    BYTE PTR [r14+r15*1+0x1],al
4d1b:	49 8d 47 02          	lea    rax,[r15+0x2]
4d1f:	49 39 c5             	cmp    r13,rax
4d22:	76 10                	jbe    4d34 <quotearg_buffer_restyled+0xa94>
4d24:	89 d8                	mov    eax,ebx
4d26:	c0 e8 03             	shr    al,0x3
4d29:	83 e0 07             	and    eax,0x7
4d2c:	83 c0 30             	add    eax,0x30
4d2f:	43 88 44 3e 02       	mov    BYTE PTR [r14+r15*1+0x2],al
4d34:	83 e3 07             	and    ebx,0x7
4d37:	48 83 c5 01          	add    rbp,0x1
4d3b:	49 83 c7 03          	add    r15,0x3
4d3f:	83 c3 30             	add    ebx,0x30
4d42:	48 39 cd             	cmp    rbp,rcx
4d45:	0f 83 e5 f7 ff ff    	jae    4530 <quotearg_buffer_restyled+0x290>
4d4b:	89 d6                	mov    esi,edx
4d4d:	4d 39 fd             	cmp    r13,r15
4d50:	76 04                	jbe    4d56 <quotearg_buffer_restyled+0xab6>
4d52:	43 88 1c 3e          	mov    BYTE PTR [r14+r15*1],bl
4d56:	0f b6 1c 2f          	movzx  ebx,BYTE PTR [rdi+rbp*1]
4d5a:	49 83 c7 01          	add    r15,0x1
4d5e:	84 d2                	test   dl,dl
4d60:	0f 85 4a ff ff ff    	jne    4cb0 <quotearg_buffer_restyled+0xa10>
4d66:	89 f0                	mov    eax,esi
4d68:	83 f0 01             	xor    eax,0x1
4d6b:	44 21 c0             	and    eax,r8d
4d6e:	45 84 d2             	test   r10b,r10b
4d71:	74 0e                	je     4d81 <quotearg_buffer_restyled+0xae1>
4d73:	4d 39 fd             	cmp    r13,r15
4d76:	76 05                	jbe    4d7d <quotearg_buffer_restyled+0xadd>
4d78:	43 c6 04 3e 5c       	mov    BYTE PTR [r14+r15*1],0x5c
4d7d:	49 83 c7 01          	add    r15,0x1
4d81:	48 83 c5 01          	add    rbp,0x1
4d85:	48 39 cd             	cmp    rbp,rcx
4d88:	0f 83 7e f7 ff ff    	jae    450c <quotearg_buffer_restyled+0x26c>
4d8e:	84 c0                	test   al,al
4d90:	0f 84 f8 03 00 00    	je     518e <quotearg_buffer_restyled+0xeee>
4d96:	4d 39 fd             	cmp    r13,r15
4d99:	76 05                	jbe    4da0 <quotearg_buffer_restyled+0xb00>
4d9b:	43 c6 04 3e 27       	mov    BYTE PTR [r14+r15*1],0x27
4da0:	49 8d 47 01          	lea    rax,[r15+0x1]
4da4:	49 39 c5             	cmp    r13,rax
4da7:	76 06                	jbe    4daf <quotearg_buffer_restyled+0xb0f>
4da9:	43 c6 44 3e 01 27    	mov    BYTE PTR [r14+r15*1+0x1],0x27
4daf:	49 83 c7 02          	add    r15,0x2
4db3:	45 31 d2             	xor    r10d,r10d
4db6:	45 31 c0             	xor    r8d,r8d
4db9:	eb 92                	jmp    4d4d <quotearg_buffer_restyled+0xaad>
4dbb:	0f 1f 44 00 00       	nop    DWORD PTR [rax+rax*1+0x0]
4dc0:	49 83 ff 01          	cmp    r15,0x1
4dc4:	0f 84 5f fe ff ff    	je     4c29 <quotearg_buffer_restyled+0x989>
4dca:	48 8b 7c 24 10       	mov    rdi,QWORD PTR [rsp+0x10]
4dcf:	4a 8d 0c 3f          	lea    rcx,[rdi+r15*1]
4dd3:	4a 8d 54 37 01       	lea    rdx,[rdi+r14*1+0x1]
4dd8:	4e 8d 04 31          	lea    r8,[rcx+r14*1]
4ddc:	eb 0f                	jmp    4ded <quotearg_buffer_restyled+0xb4d>
4dde:	66 90                	xchg   ax,ax
4de0:	48 83 c2 01          	add    rdx,0x1
4de4:	49 39 d0             	cmp    r8,rdx
4de7:	0f 84 3c fe ff ff    	je     4c29 <quotearg_buffer_restyled+0x989>
4ded:	0f b6 0a             	movzx  ecx,BYTE PTR [rdx]
4df0:	83 e9 5b             	sub    ecx,0x5b
4df3:	80 f9 21             	cmp    cl,0x21
4df6:	77 e8                	ja     4de0 <quotearg_buffer_restyled+0xb40>
4df8:	be 01 00 00 00       	mov    esi,0x1
4dfd:	48 d3 e6             	shl    rsi,cl
4e00:	48 89 f1             	mov    rcx,rsi
4e03:	48 be 2b 00 00 00 02 	movabs rsi,0x20000002b
4e0a:	00 00 00
4e0d:	48 85 f1             	test   rcx,rsi
4e10:	74 ce                	je     4de0 <quotearg_buffer_restyled+0xb40>
4e12:	4c 8b 74 24 40       	mov    r14,QWORD PTR [rsp+0x40]
4e17:	4c 8b 6c 24 70       	mov    r13,QWORD PTR [rsp+0x70]
4e1c:	48 8b 6c 24 30       	mov    rbp,QWORD PTR [rsp+0x30]
4e21:	c7 44 24 08 02 00 00 	mov    DWORD PTR [rsp+0x8],0x2
4e28:	00
4e29:	80 7c 24 0d 00       	cmp    BYTE PTR [rsp+0xd],0x0
4e2e:	74 10                	je     4e40 <quotearg_buffer_restyled+0xba0>
4e30:	84 c0                	test   al,al
4e32:	b8 04 00 00 00       	mov    eax,0x4
4e37:	0f 44 44 24 08       	cmove  eax,DWORD PTR [rsp+0x8]
4e3c:	89 44 24 08          	mov    DWORD PTR [rsp+0x8],eax
4e40:	48 83 ec 08          	sub    rsp,0x8
4e44:	48 89 e9             	mov    rcx,rbp
4e47:	4c 89 ee             	mov    rsi,r13
4e4a:	ff 74 24 68          	push   QWORD PTR [rsp+0x68]
4e4e:	ff 74 24 78          	push   QWORD PTR [rsp+0x78]
4e52:	4c 89 f7             	mov    rdi,r14
4e55:	6a 00                	push   0x0
4e57:	44 8b 8c 24 98 00 00 	mov    r9d,DWORD PTR [rsp+0x98]
4e5e:	00
4e5f:	44 8b 44 24 28       	mov    r8d,DWORD PTR [rsp+0x28]
4e64:	48 8b 54 24 30       	mov    rdx,QWORD PTR [rsp+0x30]
4e69:	41 83 e1 fd          	and    r9d,0xfffffffd
4e6d:	e8 2e f4 ff ff       	call   42a0 <quotearg_buffer_restyled>
4e72:	48 83 c4 20          	add    rsp,0x20
4e76:	49 89 c7             	mov    r15,rax
4e79:	48 8b 9c 24 a8 00 00 	mov    rbx,QWORD PTR [rsp+0xa8]
4e80:	00
4e81:	64 48 33 1c 25 28 00 	xor    rbx,QWORD PTR fs:0x28
4e88:	00 00
4e8a:	4c 89 f8             	mov    rax,r15
4e8d:	0f 85 00 06 00 00    	jne    5493 <quotearg_buffer_restyled+0x11f3>
4e93:	48 81 c4 b8 00 00 00 	add    rsp,0xb8
4e9a:	5b                   	pop    rbx
4e9b:	5d                   	pop    rbp
4e9c:	41 5c                	pop    r12
4e9e:	41 5d                	pop    r13
4ea0:	41 5e                	pop    r14
4ea2:	41 5f                	pop    r15
4ea4:	c3                   	ret
4ea5:	0f 1f 00             	nop    DWORD PTR [rax]
4ea8:	4c 89 dd             	mov    rbp,r11
4eab:	e9 79 ff ff ff       	jmp    4e29 <quotearg_buffer_restyled+0xb89>
4eb0:	4d 39 fd             	cmp    r13,r15
4eb3:	76 05                	jbe    4eba <quotearg_buffer_restyled+0xc1a>
4eb5:	43 c6 04 3e 27       	mov    BYTE PTR [r14+r15*1],0x27
4eba:	49 8d 47 01          	lea    rax,[r15+0x1]
4ebe:	49 39 c5             	cmp    r13,rax
4ec1:	76 06                	jbe    4ec9 <quotearg_buffer_restyled+0xc29>
4ec3:	43 c6 44 3e 01 5c    	mov    BYTE PTR [r14+r15*1+0x1],0x5c
4ec9:	49 8d 47 02          	lea    rax,[r15+0x2]
4ecd:	49 39 c5             	cmp    r13,rax
4ed0:	0f 86 ec 05 00 00    	jbe    54c2 <quotearg_buffer_restyled+0x1222>
4ed6:	4c 89 ea             	mov    rdx,r13
4ed9:	43 c6 44 3e 02 27    	mov    BYTE PTR [r14+r15*1+0x2],0x27
4edf:	4c 8b 6c 24 50       	mov    r13,QWORD PTR [rsp+0x50]
4ee4:	e9 d9 fb ff ff       	jmp    4ac2 <quotearg_buffer_restyled+0x822>
4ee9:	44 89 e0             	mov    eax,r12d
4eec:	bb 30 00 00 00       	mov    ebx,0x30
4ef1:	45 31 e4             	xor    r12d,r12d
4ef4:	e9 00 f6 ff ff       	jmp    44f9 <quotearg_buffer_restyled+0x259>
4ef9:	43 c6 44 3e 02 27    	mov    BYTE PTR [r14+r15*1+0x2],0x27
4eff:	e9 c5 f9 ff ff       	jmp    48c9 <quotearg_buffer_restyled+0x629>
4f04:	85 db                	test   ebx,ebx
4f06:	0f 85 27 f4 ff ff    	jne    4333 <quotearg_buffer_restyled+0x93>
4f0c:	c6 44 24 0d 01       	mov    BYTE PTR [rsp+0xd],0x1
4f11:	4d 85 ed             	test   r13,r13
4f14:	0f 85 90 05 00 00    	jne    54aa <quotearg_buffer_restyled+0x120a>
4f1a:	48 8d 05 f4 26 00 00 	lea    rax,[rip+0x26f4]        # 7615 <default_tuning+0x95>
4f21:	48 c7 44 24 50 00 00 	mov    QWORD PTR [rsp+0x50],0x0
4f28:	00 00
4f2a:	c6 44 24 0e 01       	mov    BYTE PTR [rsp+0xe],0x1
4f2f:	c6 44 24 7c 00       	mov    BYTE PTR [rsp+0x7c],0x0
4f34:	45 31 e4             	xor    r12d,r12d
4f37:	c6 44 24 0f 00       	mov    BYTE PTR [rsp+0xf],0x0
4f3c:	48 c7 44 24 18 01 00 	mov    QWORD PTR [rsp+0x18],0x1
4f43:	00 00
4f45:	48 89 44 24 48       	mov    QWORD PTR [rsp+0x48],rax
4f4a:	41 bf 01 00 00 00    	mov    r15d,0x1
4f50:	c7 44 24 08 02 00 00 	mov    DWORD PTR [rsp+0x8],0x2
4f57:	00
4f58:	e9 16 f4 ff ff       	jmp    4373 <quotearg_buffer_restyled+0xd3>
4f5d:	0f 1f 00             	nop    DWORD PTR [rax]
4f60:	85 db                	test   ebx,ebx
4f62:	0f 85 f5 03 00 00    	jne    535d <quotearg_buffer_restyled+0x10bd>
4f68:	4d 85 ed             	test   r13,r13
4f6b:	0f 84 25 02 00 00    	je     5196 <quotearg_buffer_restyled+0xef6>
4f71:	41 c6 06 22          	mov    BYTE PTR [r14],0x22
4f75:	c6 44 24 0e 01       	mov    BYTE PTR [rsp+0xe],0x1
4f7a:	45 31 e4             	xor    r12d,r12d
4f7d:	c6 44 24 7c 00       	mov    BYTE PTR [rsp+0x7c],0x0
4f82:	48 c7 44 24 50 00 00 	mov    QWORD PTR [rsp+0x50],0x0
4f89:	00 00
4f8b:	48 8d 05 81 26 00 00 	lea    rax,[rip+0x2681]        # 7613 <default_tuning+0x93>
4f92:	c6 44 24 0f 00       	mov    BYTE PTR [rsp+0xf],0x0
4f97:	c6 44 24 0d 01       	mov    BYTE PTR [rsp+0xd],0x1
4f9c:	48 c7 44 24 18 01 00 	mov    QWORD PTR [rsp+0x18],0x1
4fa3:	00 00
4fa5:	41 bf 01 00 00 00    	mov    r15d,0x1
4fab:	48 89 44 24 48       	mov    QWORD PTR [rsp+0x48],rax
4fb0:	e9 be f3 ff ff       	jmp    4373 <quotearg_buffer_restyled+0xd3>
4fb5:	48 8d 05 57 26 00 00 	lea    rax,[rip+0x2657]        # 7613 <default_tuning+0x93>
4fbc:	c6 44 24 0e 01       	mov    BYTE PTR [rsp+0xe],0x1
4fc1:	c6 44 24 7c 00       	mov    BYTE PTR [rsp+0x7c],0x0
4fc6:	45 31 e4             	xor    r12d,r12d
4fc9:	48 c7 44 24 50 00 00 	mov    QWORD PTR [rsp+0x50],0x0
4fd0:	00 00
4fd2:	c6 44 24 0f 01       	mov    BYTE PTR [rsp+0xf],0x1
4fd7:	c6 44 24 0d 01       	mov    BYTE PTR [rsp+0xd],0x1
4fdc:	48 c7 44 24 18 01 00 	mov    QWORD PTR [rsp+0x18],0x1
4fe3:	00 00
4fe5:	45 31 ff             	xor    r15d,r15d
4fe8:	48 89 44 24 48       	mov    QWORD PTR [rsp+0x48],rax
4fed:	c7 44 24 08 05 00 00 	mov    DWORD PTR [rsp+0x8],0x5
4ff4:	00
4ff5:	e9 79 f3 ff ff       	jmp    4373 <quotearg_buffer_restyled+0xd3>
4ffa:	c6 44 24 0e 01       	mov    BYTE PTR [rsp+0xe],0x1
4fff:	c6 44 24 7c 00       	mov    BYTE PTR [rsp+0x7c],0x0
5004:	45 31 e4             	xor    r12d,r12d
5007:	48 c7 44 24 50 00 00 	mov    QWORD PTR [rsp+0x50],0x0
500e:	00 00
5010:	c6 44 24 0f 00       	mov    BYTE PTR [rsp+0xf],0x0
5015:	45 31 ff             	xor    r15d,r15d
5018:	c6 44 24 0d 01       	mov    BYTE PTR [rsp+0xd],0x1
501d:	48 c7 44 24 18 00 00 	mov    QWORD PTR [rsp+0x18],0x0
5024:	00 00
5026:	48 c7 44 24 48 00 00 	mov    QWORD PTR [rsp+0x48],0x0
502d:	00 00
502f:	e9 3f f3 ff ff       	jmp    4373 <quotearg_buffer_restyled+0xd3>
5034:	83 7c 24 08 0a       	cmp    DWORD PTR [rsp+0x8],0xa
5039:	74 56                	je     5091 <quotearg_buffer_restyled+0xdf1>
503b:	48 8d 35 d5 25 00 00 	lea    rsi,[rip+0x25d5]        # 7617 <default_tuning+0x97>
5042:	31 ff                	xor    edi,edi
5044:	ba 05 00 00 00       	mov    edx,0x5
5049:	e8 02 c5 ff ff       	call   1550 <dcgettext@plt>
504e:	48 89 c1             	mov    rcx,rax
5051:	48 89 44 24 68       	mov    QWORD PTR [rsp+0x68],rax
5056:	48 8d 05 ba 25 00 00 	lea    rax,[rip+0x25ba]        # 7617 <default_tuning+0x97>
505d:	48 39 c1             	cmp    rcx,rax
5060:	0f 84 98 03 00 00    	je     53fe <quotearg_buffer_restyled+0x115e>
5066:	48 8d 35 a8 25 00 00 	lea    rsi,[rip+0x25a8]        # 7615 <default_tuning+0x95>
506d:	31 ff                	xor    edi,edi
506f:	ba 05 00 00 00       	mov    edx,0x5
5074:	e8 d7 c4 ff ff       	call   1550 <dcgettext@plt>
5079:	48 89 c1             	mov    rcx,rax
507c:	48 89 44 24 60       	mov    QWORD PTR [rsp+0x60],rax
5081:	48 8d 05 8d 25 00 00 	lea    rax,[rip+0x258d]        # 7615 <default_tuning+0x95>
5088:	48 39 c1             	cmp    rcx,rax
508b:	0f 84 83 03 00 00    	je     5414 <quotearg_buffer_restyled+0x1174>
5091:	45 31 ff             	xor    r15d,r15d
5094:	85 db                	test   ebx,ebx
5096:	0f 84 c1 01 00 00    	je     525d <quotearg_buffer_restyled+0xfbd>
509c:	85 db                	test   ebx,ebx
509e:	48 8b 5c 24 60       	mov    rbx,QWORD PTR [rsp+0x60]
50a3:	0f 95 44 24 0f       	setne  BYTE PTR [rsp+0xf]
50a8:	45 31 e4             	xor    r12d,r12d
50ab:	48 89 df             	mov    rdi,rbx
50ae:	e8 bd c4 ff ff       	call   1570 <strlen@plt>
50b3:	48 89 5c 24 48       	mov    QWORD PTR [rsp+0x48],rbx
50b8:	48 89 44 24 18       	mov    QWORD PTR [rsp+0x18],rax
50bd:	c6 44 24 0e 01       	mov    BYTE PTR [rsp+0xe],0x1
50c2:	c6 44 24 7c 00       	mov    BYTE PTR [rsp+0x7c],0x0
50c7:	48 c7 44 24 50 00 00 	mov    QWORD PTR [rsp+0x50],0x0
50ce:	00 00
50d0:	c6 44 24 0d 01       	mov    BYTE PTR [rsp+0xd],0x1
50d5:	e9 99 f2 ff ff       	jmp    4373 <quotearg_buffer_restyled+0xd3>
50da:	c6 44 24 0e 01       	mov    BYTE PTR [rsp+0xe],0x1
50df:	c6 44 24 7c 00       	mov    BYTE PTR [rsp+0x7c],0x0
50e4:	45 31 e4             	xor    r12d,r12d
50e7:	48 c7 44 24 50 00 00 	mov    QWORD PTR [rsp+0x50],0x0
50ee:	00 00
50f0:	c6 44 24 0f 00       	mov    BYTE PTR [rsp+0xf],0x0
50f5:	45 31 ff             	xor    r15d,r15d
50f8:	c6 44 24 0d 00       	mov    BYTE PTR [rsp+0xd],0x0
50fd:	48 c7 44 24 18 00 00 	mov    QWORD PTR [rsp+0x18],0x0
5104:	00 00
5106:	48 c7 44 24 48 00 00 	mov    QWORD PTR [rsp+0x48],0x0
510d:	00 00
510f:	e9 5f f2 ff ff       	jmp    4373 <quotearg_buffer_restyled+0xd3>
5114:	c6 44 24 0e 01       	mov    BYTE PTR [rsp+0xe],0x1
5119:	c6 44 24 7c 00       	mov    BYTE PTR [rsp+0x7c],0x0
511e:	45 31 e4             	xor    r12d,r12d
5121:	48 c7 44 24 50 00 00 	mov    QWORD PTR [rsp+0x50],0x0
5128:	00 00
512a:	c6 44 24 0f 01       	mov    BYTE PTR [rsp+0xf],0x1
512f:	c6 44 24 0d 01       	mov    BYTE PTR [rsp+0xd],0x1
5134:	e9 1a f2 ff ff       	jmp    4353 <quotearg_buffer_restyled+0xb3>
5139:	4d 39 fd             	cmp    r13,r15
513c:	76 05                	jbe    5143 <quotearg_buffer_restyled+0xea3>
513e:	43 c6 04 3e 30       	mov    BYTE PTR [r14+r15*1],0x30
5143:	48 8d 41 02          	lea    rax,[rcx+0x2]
5147:	49 39 c5             	cmp    r13,rax
514a:	76 06                	jbe    5152 <quotearg_buffer_restyled+0xeb2>
514c:	41 c6 44 0e 02 30    	mov    BYTE PTR [r14+rcx*1+0x2],0x30
5152:	44 89 e0             	mov    eax,r12d
5155:	4c 8d 79 03          	lea    r15,[rcx+0x3]
5159:	45 31 e4             	xor    r12d,r12d
515c:	bb 30 00 00 00       	mov    ebx,0x30
5161:	e9 62 f3 ff ff       	jmp    44c8 <quotearg_buffer_restyled+0x228>
5166:	66 2e 0f 1f 84 00 00 	nop    WORD PTR cs:[rax+rax*1+0x0]
516d:	00 00 00
5170:	0f b6 5c 24 0f       	movzx  ebx,BYTE PTR [rsp+0xf]
5175:	4c 89 dd             	mov    rbp,r11
5178:	88 5c 24 0d          	mov    BYTE PTR [rsp+0xd],bl
517c:	e9 a8 fc ff ff       	jmp    4e29 <quotearg_buffer_restyled+0xb89>
5181:	0f b6 54 24 0d       	movzx  edx,BYTE PTR [rsp+0xd]
5186:	45 31 e4             	xor    r12d,r12d
5189:	e9 02 fb ff ff       	jmp    4c90 <quotearg_buffer_restyled+0x9f0>
518e:	45 31 d2             	xor    r10d,r10d
5191:	e9 b7 fb ff ff       	jmp    4d4d <quotearg_buffer_restyled+0xaad>
5196:	48 c7 44 24 50 00 00 	mov    QWORD PTR [rsp+0x50],0x0
519d:	00 00
519f:	c6 44 24 0e 01       	mov    BYTE PTR [rsp+0xe],0x1
51a4:	45 31 e4             	xor    r12d,r12d
51a7:	c6 44 24 7c 00       	mov    BYTE PTR [rsp+0x7c],0x0
51ac:	e9 da fd ff ff       	jmp    4f8b <quotearg_buffer_restyled+0xceb>
51b1:	4c 8b 5c 24 30       	mov    r11,QWORD PTR [rsp+0x30]
51b6:	4c 89 f6             	mov    rsi,r14
51b9:	4c 89 e9             	mov    rcx,r13
51bc:	48 89 d8             	mov    rax,rbx
51bf:	48 89 df             	mov    rdi,rbx
51c2:	44 0f b6 44 24 7d    	movzx  r8d,BYTE PTR [rsp+0x7d]
51c8:	0f b6 5c 24 7e       	movzx  ebx,BYTE PTR [rsp+0x7e]
51cd:	4c 8b 8c 24 88 00 00 	mov    r9,QWORD PTR [rsp+0x88]
51d4:	00
51d5:	4c 39 de             	cmp    rsi,r11
51d8:	44 0f b6 54 24 7f    	movzx  r10d,BYTE PTR [rsp+0x7f]
51de:	4c 8b bc 24 80 00 00 	mov    r15,QWORD PTR [rsp+0x80]
51e5:	00
51e6:	4c 8b 74 24 40       	mov    r14,QWORD PTR [rsp+0x40]
51eb:	4c 8b 6c 24 70       	mov    r13,QWORD PTR [rsp+0x70]
51f0:	73 26                	jae    5218 <quotearg_buffer_restyled+0xf78>
51f2:	80 39 00             	cmp    BYTE PTR [rcx],0x0
51f5:	75 10                	jne    5207 <quotearg_buffer_restyled+0xf67>
51f7:	eb 1f                	jmp    5218 <quotearg_buffer_restyled+0xf78>
51f9:	0f 1f 80 00 00 00 00 	nop    DWORD PTR [rax+0x0]
5200:	41 80 3c 01 00       	cmp    BYTE PTR [r9+rax*1],0x0
5205:	74 0e                	je     5215 <quotearg_buffer_restyled+0xf75>
5207:	48 83 c0 01          	add    rax,0x1
520b:	48 8d 54 05 00       	lea    rdx,[rbp+rax*1+0x0]
5210:	49 39 d3             	cmp    r11,rdx
5213:	77 eb                	ja     5200 <quotearg_buffer_restyled+0xf60>
5215:	48 89 c7             	mov    rdi,rax
5218:	0f b6 54 24 0d       	movzx  edx,BYTE PTR [rsp+0xd]
521d:	45 31 e4             	xor    r12d,r12d
5220:	e9 61 fa ff ff       	jmp    4c86 <quotearg_buffer_restyled+0x9e6>
5225:	48 89 df             	mov    rdi,rbx
5228:	44 0f b6 44 24 7d    	movzx  r8d,BYTE PTR [rsp+0x7d]
522e:	0f b6 5c 24 7e       	movzx  ebx,BYTE PTR [rsp+0x7e]
5233:	44 0f b6 54 24 7f    	movzx  r10d,BYTE PTR [rsp+0x7f]
5239:	4c 8b bc 24 80 00 00 	mov    r15,QWORD PTR [rsp+0x80]
5240:	00
5241:	45 31 e4             	xor    r12d,r12d
5244:	4c 8b 74 24 40       	mov    r14,QWORD PTR [rsp+0x40]
5249:	4c 8b 6c 24 70       	mov    r13,QWORD PTR [rsp+0x70]
524e:	4c 8b 5c 24 30       	mov    r11,QWORD PTR [rsp+0x30]
5253:	0f b6 54 24 0d       	movzx  edx,BYTE PTR [rsp+0xd]
5258:	e9 29 fa ff ff       	jmp    4c86 <quotearg_buffer_restyled+0x9e6>
525d:	48 8b 54 24 68       	mov    rdx,QWORD PTR [rsp+0x68]
5262:	0f b6 02             	movzx  eax,BYTE PTR [rdx]
5265:	84 c0                	test   al,al
5267:	0f 84 2f fe ff ff    	je     509c <quotearg_buffer_restyled+0xdfc>
526d:	0f 1f 00             	nop    DWORD PTR [rax]
5270:	4d 39 fd             	cmp    r13,r15
5273:	76 04                	jbe    5279 <quotearg_buffer_restyled+0xfd9>
5275:	43 88 04 3e          	mov    BYTE PTR [r14+r15*1],al
5279:	49 83 c7 01          	add    r15,0x1
527d:	42 0f b6 04 3a       	movzx  eax,BYTE PTR [rdx+r15*1]
5282:	84 c0                	test   al,al
5284:	75 ea                	jne    5270 <quotearg_buffer_restyled+0xfd0>
5286:	e9 11 fe ff ff       	jmp    509c <quotearg_buffer_restyled+0xdfc>
528b:	89 d0                	mov    eax,edx
528d:	e9 55 f5 ff ff       	jmp    47e7 <quotearg_buffer_restyled+0x547>
5292:	0f b6 1c 08          	movzx  ebx,BYTE PTR [rax+rcx*1]
5296:	80 fb 3e             	cmp    bl,0x3e
5299:	0f 87 71 f8 ff ff    	ja     4b10 <quotearg_buffer_restyled+0x870>
529f:	48 b8 00 00 00 00 82 	movabs rax,0x7000a38200000000
52a6:	a3 00 70
52a9:	48 0f a3 d8          	bt     rax,rbx
52ad:	0f 83 5d f8 ff ff    	jae    4b10 <quotearg_buffer_restyled+0x870>
52b3:	80 7c 24 0f 00       	cmp    BYTE PTR [rsp+0xf],0x0
52b8:	0f 85 e4 01 00 00    	jne    54a2 <quotearg_buffer_restyled+0x1202>
52be:	4d 39 fd             	cmp    r13,r15
52c1:	76 05                	jbe    52c8 <quotearg_buffer_restyled+0x1028>
52c3:	43 c6 04 3e 3f       	mov    BYTE PTR [r14+r15*1],0x3f
52c8:	49 8d 47 01          	lea    rax,[r15+0x1]
52cc:	49 39 c5             	cmp    r13,rax
52cf:	76 06                	jbe    52d7 <quotearg_buffer_restyled+0x1037>
52d1:	43 c6 44 3e 01 22    	mov    BYTE PTR [r14+r15*1+0x1],0x22
52d7:	49 8d 47 02          	lea    rax,[r15+0x2]
52db:	49 39 c5             	cmp    r13,rax
52de:	76 06                	jbe    52e6 <quotearg_buffer_restyled+0x1046>
52e0:	43 c6 44 3e 02 22    	mov    BYTE PTR [r14+r15*1+0x2],0x22
52e6:	49 8d 47 03          	lea    rax,[r15+0x3]
52ea:	49 39 c5             	cmp    r13,rax
52ed:	76 06                	jbe    52f5 <quotearg_buffer_restyled+0x1055>
52ef:	43 c6 44 3e 03 3f    	mov    BYTE PTR [r14+r15*1+0x3],0x3f
52f5:	49 83 c7 04          	add    r15,0x4
52f9:	31 d2                	xor    edx,edx
52fb:	45 31 e4             	xor    r12d,r12d
52fe:	31 c0                	xor    eax,eax
5300:	48 89 cd             	mov    rbp,rcx
5303:	e9 c0 f1 ff ff       	jmp    44c8 <quotearg_buffer_restyled+0x228>
5308:	85 db                	test   ebx,ebx
530a:	0f 84 88 01 00 00    	je     5498 <quotearg_buffer_restyled+0x11f8>
5310:	48 8d 05 fe 22 00 00 	lea    rax,[rip+0x22fe]        # 7615 <default_tuning+0x95>
5317:	c6 44 24 0e 01       	mov    BYTE PTR [rsp+0xe],0x1
531c:	c6 44 24 7c 00       	mov    BYTE PTR [rsp+0x7c],0x0
5321:	45 31 e4             	xor    r12d,r12d
5324:	48 c7 44 24 50 00 00 	mov    QWORD PTR [rsp+0x50],0x0
532b:	00 00
532d:	c6 44 24 0f 01       	mov    BYTE PTR [rsp+0xf],0x1
5332:	c6 44 24 0d 00       	mov    BYTE PTR [rsp+0xd],0x0
5337:	48 c7 44 24 18 01 00 	mov    QWORD PTR [rsp+0x18],0x1
533e:	00 00
5340:	45 31 ff             	xor    r15d,r15d
5343:	48 89 44 24 48       	mov    QWORD PTR [rsp+0x48],rax
5348:	e9 26 f0 ff ff       	jmp    4373 <quotearg_buffer_restyled+0xd3>
534d:	0f 1f 00             	nop    DWORD PTR [rax]
5350:	4c 89 dd             	mov    rbp,r11
5353:	0f b6 44 24 0f       	movzx  eax,BYTE PTR [rsp+0xf]
5358:	e9 cc fa ff ff       	jmp    4e29 <quotearg_buffer_restyled+0xb89>
535d:	48 8d 05 af 22 00 00 	lea    rax,[rip+0x22af]        # 7613 <default_tuning+0x93>
5364:	c6 44 24 0e 01       	mov    BYTE PTR [rsp+0xe],0x1
5369:	c6 44 24 7c 00       	mov    BYTE PTR [rsp+0x7c],0x0
536e:	45 31 e4             	xor    r12d,r12d
5371:	48 c7 44 24 50 00 00 	mov    QWORD PTR [rsp+0x50],0x0
5378:	00 00
537a:	c6 44 24 0f 01       	mov    BYTE PTR [rsp+0xf],0x1
537f:	c6 44 24 0d 01       	mov    BYTE PTR [rsp+0xd],0x1
5384:	48 c7 44 24 18 01 00 	mov    QWORD PTR [rsp+0x18],0x1
538b:	00 00
538d:	45 31 ff             	xor    r15d,r15d
5390:	48 89 44 24 48       	mov    QWORD PTR [rsp+0x48],rax
5395:	e9 d9 ef ff ff       	jmp    4373 <quotearg_buffer_restyled+0xd3>
539a:	89 d0                	mov    eax,edx
539c:	48 8b 5c 24 48       	mov    rbx,QWORD PTR [rsp+0x48]
53a1:	48 85 db             	test   rbx,rbx
53a4:	74 2c                	je     53d2 <quotearg_buffer_restyled+0x1132>
53a6:	84 c0                	test   al,al
53a8:	74 28                	je     53d2 <quotearg_buffer_restyled+0x1132>
53aa:	0f b6 0b             	movzx  ecx,BYTE PTR [rbx]
53ad:	48 89 d8             	mov    rax,rbx
53b0:	84 c9                	test   cl,cl
53b2:	74 1e                	je     53d2 <quotearg_buffer_restyled+0x1132>
53b4:	4c 89 fa             	mov    rdx,r15
53b7:	4c 29 f8             	sub    rax,r15
53ba:	49 39 d5             	cmp    r13,rdx
53bd:	76 04                	jbe    53c3 <quotearg_buffer_restyled+0x1123>
53bf:	41 88 0c 16          	mov    BYTE PTR [r14+rdx*1],cl
53c3:	48 83 c2 01          	add    rdx,0x1
53c7:	0f b6 0c 10          	movzx  ecx,BYTE PTR [rax+rdx*1]
53cb:	84 c9                	test   cl,cl
53cd:	75 eb                	jne    53ba <quotearg_buffer_restyled+0x111a>
53cf:	49 89 d7             	mov    r15,rdx
53d2:	4d 39 fd             	cmp    r13,r15
53d5:	0f 86 9e fa ff ff    	jbe    4e79 <quotearg_buffer_restyled+0xbd9>
53db:	43 c6 04 3e 00       	mov    BYTE PTR [r14+r15*1],0x0
53e0:	e9 94 fa ff ff       	jmp    4e79 <quotearg_buffer_restyled+0xbd9>
53e5:	83 7c 24 08 02       	cmp    DWORD PTR [rsp+0x8],0x2
53ea:	0f b6 5c 24 0f       	movzx  ebx,BYTE PTR [rsp+0xf]
53ef:	4c 89 dd             	mov    rbp,r11
53f2:	0f 94 c0             	sete   al
53f5:	88 5c 24 0d          	mov    BYTE PTR [rsp+0xd],bl
53f9:	e9 2b fa ff ff       	jmp    4e29 <quotearg_buffer_restyled+0xb89>
53fe:	8b 74 24 08          	mov    esi,DWORD PTR [rsp+0x8]
5402:	48 89 cf             	mov    rdi,rcx
5405:	e8 a6 ed ff ff       	call   41b0 <gettext_quote.part.1>
540a:	48 89 44 24 68       	mov    QWORD PTR [rsp+0x68],rax
540f:	e9 52 fc ff ff       	jmp    5066 <quotearg_buffer_restyled+0xdc6>
5414:	8b 74 24 08          	mov    esi,DWORD PTR [rsp+0x8]
5418:	48 89 cf             	mov    rdi,rcx
541b:	e8 90 ed ff ff       	call   41b0 <gettext_quote.part.1>
5420:	48 89 44 24 60       	mov    QWORD PTR [rsp+0x60],rax
5425:	e9 67 fc ff ff       	jmp    5091 <quotearg_buffer_restyled+0xdf1>
542a:	0f b6 5c 24 0f       	movzx  ebx,BYTE PTR [rsp+0xf]
542f:	4c 89 dd             	mov    rbp,r11
5432:	89 d0                	mov    eax,edx
5434:	88 5c 24 0d          	mov    BYTE PTR [rsp+0xd],bl
5438:	e9 ec f9 ff ff       	jmp    4e29 <quotearg_buffer_restyled+0xb89>
543d:	48 83 ec 08          	sub    rsp,0x8
5441:	41 b8 05 00 00 00    	mov    r8d,0x5
5447:	4c 89 d9             	mov    rcx,r11
544a:	ff 74 24 68          	push   QWORD PTR [rsp+0x68]
544e:	ff 74 24 78          	push   QWORD PTR [rsp+0x78]
5452:	4c 89 f7             	mov    rdi,r14
5455:	ff 74 24 38          	push   QWORD PTR [rsp+0x38]
5459:	44 8b 8c 24 98 00 00 	mov    r9d,DWORD PTR [rsp+0x98]
5460:	00
5461:	48 8b 54 24 30       	mov    rdx,QWORD PTR [rsp+0x30]
5466:	48 8b 74 24 70       	mov    rsi,QWORD PTR [rsp+0x70]
546b:	e8 30 ee ff ff       	call   42a0 <quotearg_buffer_restyled>
5470:	48 83 c4 20          	add    rsp,0x20
5474:	49 89 c7             	mov    r15,rax
5477:	e9 fd f9 ff ff       	jmp    4e79 <quotearg_buffer_restyled+0xbd9>
547c:	0f b6 44 24 7c       	movzx  eax,BYTE PTR [rsp+0x7c]
5481:	e9 16 ff ff ff       	jmp    539c <quotearg_buffer_restyled+0x10fc>
5486:	c7 44 24 08 02 00 00 	mov    DWORD PTR [rsp+0x8],0x2
548d:	00
548e:	e9 96 f9 ff ff       	jmp    4e29 <quotearg_buffer_restyled+0xb89>
5493:	e8 f8 c0 ff ff       	call   1590 <__stack_chk_fail@plt>
5498:	c6 44 24 0d 00       	mov    BYTE PTR [rsp+0xd],0x0
549d:	e9 6f fa ff ff       	jmp    4f11 <quotearg_buffer_restyled+0xc71>
54a2:	4c 89 dd             	mov    rbp,r11
54a5:	e9 96 f9 ff ff       	jmp    4e40 <quotearg_buffer_restyled+0xba0>
54aa:	c6 44 24 0e 01       	mov    BYTE PTR [rsp+0xe],0x1
54af:	31 c0                	xor    eax,eax
54b1:	45 31 e4             	xor    r12d,r12d
54b4:	48 c7 44 24 50 00 00 	mov    QWORD PTR [rsp+0x50],0x0
54bb:	00 00
54bd:	e9 a2 f5 ff ff       	jmp    4a64 <quotearg_buffer_restyled+0x7c4>
54c2:	4c 89 ea             	mov    rdx,r13
54c5:	4c 8b 6c 24 50       	mov    r13,QWORD PTR [rsp+0x50]
54ca:	e9 f3 f5 ff ff       	jmp    4ac2 <quotearg_buffer_restyled+0x822>
54cf:	e8 ec bf ff ff       	call   14c0 <abort@plt>
54d4:	66 90                	xchg   ax,ax
54d6:	66 2e 0f 1f 84 00 00 	nop    WORD PTR cs:[rax+rax*1+0x0]
54dd:	00 00 00

00000000000054e0 <quotearg_n_options>:
54e0:	41 57                	push   r15
54e2:	41 56                	push   r14
54e4:	4c 63 ff             	movsxd r15,edi
54e7:	41 55                	push   r13
54e9:	41 54                	push   r12
54eb:	49 89 d6             	mov    r14,rdx
54ee:	55                   	push   rbp
54ef:	53                   	push   rbx
54f0:	48 89 cd             	mov    rbp,rcx
54f3:	48 83 ec 28          	sub    rsp,0x28
54f7:	48 89 74 24 08       	mov    QWORD PTR [rsp+0x8],rsi
54fc:	e8 cf bf ff ff       	call   14d0 <__errno_location@plt>
5501:	49 89 c5             	mov    r13,rax
5504:	8b 00                	mov    eax,DWORD PTR [rax]
5506:	45 85 ff             	test   r15d,r15d
5509:	48 8b 1d 70 4b 20 00 	mov    rbx,QWORD PTR [rip+0x204b70]        # 20a080 <slotvec>
5510:	89 44 24 18          	mov    DWORD PTR [rsp+0x18],eax
5514:	0f 88 67 01 00 00    	js     5681 <quotearg_n_options+0x1a1>
551a:	44 39 3d 57 4b 20 00 	cmp    DWORD PTR [rip+0x204b57],r15d        # 20a078 <nslots>
5521:	7f 62                	jg     5585 <quotearg_n_options+0xa5>
5523:	41 81 ff ff ff ff 7f 	cmp    r15d,0x7fffffff
552a:	0f 84 56 01 00 00    	je     5686 <quotearg_n_options+0x1a6>
5530:	45 8d 67 01          	lea    r12d,[r15+0x1]
5534:	48 8d 05 55 4b 20 00 	lea    rax,[rip+0x204b55]        # 20a090 <slotvec0>
553b:	49 63 f4             	movsxd rsi,r12d
553e:	48 c1 e6 04          	shl    rsi,0x4
5542:	48 39 c3             	cmp    rbx,rax
5545:	0f 84 15 01 00 00    	je     5660 <quotearg_n_options+0x180>
554b:	48 89 df             	mov    rdi,rbx
554e:	e8 5d 11 00 00       	call   66b0 <xrealloc>
5553:	48 89 c3             	mov    rbx,rax
5556:	48 89 05 23 4b 20 00 	mov    QWORD PTR [rip+0x204b23],rax        # 20a080 <slotvec>
555d:	48 63 3d 14 4b 20 00 	movsxd rdi,DWORD PTR [rip+0x204b14]        # 20a078 <nslots>
5564:	44 89 e2             	mov    edx,r12d
5567:	31 f6                	xor    esi,esi
5569:	29 fa                	sub    edx,edi
556b:	48 c1 e7 04          	shl    rdi,0x4
556f:	48 63 d2             	movsxd rdx,edx
5572:	48 01 df             	add    rdi,rbx
5575:	48 c1 e2 04          	shl    rdx,0x4
5579:	e8 82 c0 ff ff       	call   1600 <memset@plt>
557e:	44 89 25 f3 4a 20 00 	mov    DWORD PTR [rip+0x204af3],r12d        # 20a078 <nslots>
5585:	8b 45 04             	mov    eax,DWORD PTR [rbp+0x4]
5588:	49 c1 e7 04          	shl    r15,0x4
558c:	48 83 ec 08          	sub    rsp,0x8
5590:	4c 01 fb             	add    rbx,r15
5593:	4c 8d 7d 08          	lea    r15,[rbp+0x8]
5597:	44 8b 45 00          	mov    r8d,DWORD PTR [rbp+0x0]
559b:	4c 8b 1b             	mov    r11,QWORD PTR [rbx]
559e:	4c 8b 63 08          	mov    r12,QWORD PTR [rbx+0x8]
55a2:	4c 89 f1             	mov    rcx,r14
55a5:	83 c8 01             	or     eax,0x1
55a8:	89 44 24 24          	mov    DWORD PTR [rsp+0x24],eax
55ac:	ff 75 30             	push   QWORD PTR [rbp+0x30]
55af:	41 89 c1             	mov    r9d,eax
55b2:	ff 75 28             	push   QWORD PTR [rbp+0x28]
55b5:	41 57                	push   r15
55b7:	4c 89 de             	mov    rsi,r11
55ba:	48 8b 54 24 28       	mov    rdx,QWORD PTR [rsp+0x28]
55bf:	4c 89 e7             	mov    rdi,r12
55c2:	4c 89 5c 24 30       	mov    QWORD PTR [rsp+0x30],r11
55c7:	e8 d4 ec ff ff       	call   42a0 <quotearg_buffer_restyled>
55cc:	48 83 c4 20          	add    rsp,0x20
55d0:	4c 8b 5c 24 10       	mov    r11,QWORD PTR [rsp+0x10]
55d5:	49 39 c3             	cmp    r11,rax
55d8:	77 67                	ja     5641 <quotearg_n_options+0x161>
55da:	48 8d 70 01          	lea    rsi,[rax+0x1]
55de:	48 8d 05 3b 4b 20 00 	lea    rax,[rip+0x204b3b]        # 20a120 <slot0>
55e5:	49 39 c4             	cmp    r12,rax
55e8:	48 89 33             	mov    QWORD PTR [rbx],rsi
55eb:	74 12                	je     55ff <quotearg_n_options+0x11f>
55ed:	4c 89 e7             	mov    rdi,r12
55f0:	48 89 74 24 10       	mov    QWORD PTR [rsp+0x10],rsi
55f5:	e8 b6 be ff ff       	call   14b0 <free@plt>
55fa:	48 8b 74 24 10       	mov    rsi,QWORD PTR [rsp+0x10]
55ff:	48 89 f7             	mov    rdi,rsi
5602:	48 89 74 24 10       	mov    QWORD PTR [rsp+0x10],rsi
5607:	e8 44 10 00 00       	call   6650 <xmalloc>
560c:	48 83 ec 08          	sub    rsp,0x8
5610:	48 89 43 08          	mov    QWORD PTR [rbx+0x8],rax
5614:	44 8b 45 00          	mov    r8d,DWORD PTR [rbp+0x0]
5618:	ff 75 30             	push   QWORD PTR [rbp+0x30]
561b:	ff 75 28             	push   QWORD PTR [rbp+0x28]
561e:	4c 89 f1             	mov    rcx,r14
5621:	41 57                	push   r15
5623:	44 8b 4c 24 3c       	mov    r9d,DWORD PTR [rsp+0x3c]
5628:	48 89 c7             	mov    rdi,rax
562b:	48 8b 54 24 28       	mov    rdx,QWORD PTR [rsp+0x28]
5630:	48 8b 74 24 30       	mov    rsi,QWORD PTR [rsp+0x30]
5635:	49 89 c4             	mov    r12,rax
5638:	e8 63 ec ff ff       	call   42a0 <quotearg_buffer_restyled>
563d:	48 83 c4 20          	add    rsp,0x20
5641:	8b 44 24 18          	mov    eax,DWORD PTR [rsp+0x18]
5645:	41 89 45 00          	mov    DWORD PTR [r13+0x0],eax
5649:	48 83 c4 28          	add    rsp,0x28
564d:	4c 89 e0             	mov    rax,r12
5650:	5b                   	pop    rbx
5651:	5d                   	pop    rbp
5652:	41 5c                	pop    r12
5654:	41 5d                	pop    r13
5656:	41 5e                	pop    r14
5658:	41 5f                	pop    r15
565a:	c3                   	ret
565b:	0f 1f 44 00 00       	nop    DWORD PTR [rax+rax*1+0x0]
5660:	31 ff                	xor    edi,edi
5662:	e8 49 10 00 00       	call   66b0 <xrealloc>
5667:	66 0f 6f 05 21 4a 20 	movdqa xmm0,XMMWORD PTR [rip+0x204a21]        # 20a090 <slotvec0>
566e:	00
566f:	48 89 c3             	mov    rbx,rax
5672:	48 89 05 07 4a 20 00 	mov    QWORD PTR [rip+0x204a07],rax        # 20a080 <slotvec>
5679:	0f 11 00             	movups XMMWORD PTR [rax],xmm0
567c:	e9 dc fe ff ff       	jmp    555d <quotearg_n_options+0x7d>
5681:	e8 3a be ff ff       	call   14c0 <abort@plt>
5686:	e8 15 12 00 00       	call   68a0 <xalloc_die>
568b:	0f 1f 44 00 00       	nop    DWORD PTR [rax+rax*1+0x0]

0000000000005690 <clone_quoting_options>:
5690:	41 54                	push   r12
5692:	55                   	push   rbp
5693:	53                   	push   rbx
5694:	48 89 fb             	mov    rbx,rdi
5697:	e8 34 be ff ff       	call   14d0 <__errno_location@plt>
569c:	44 8b 20             	mov    r12d,DWORD PTR [rax]
569f:	48 89 c5             	mov    rbp,rax
56a2:	48 8d 05 77 4b 20 00 	lea    rax,[rip+0x204b77]        # 20a220 <default_quoting_options>
56a9:	48 85 db             	test   rbx,rbx
56ac:	be 38 00 00 00       	mov    esi,0x38
56b1:	48 0f 44 d8          	cmove  rbx,rax
56b5:	48 89 df             	mov    rdi,rbx
56b8:	e8 93 11 00 00       	call   6850 <xmemdup>
56bd:	44 89 65 00          	mov    DWORD PTR [rbp+0x0],r12d
56c1:	5b                   	pop    rbx
56c2:	5d                   	pop    rbp
56c3:	41 5c                	pop    r12
56c5:	c3                   	ret
56c6:	66 2e 0f 1f 84 00 00 	nop    WORD PTR cs:[rax+rax*1+0x0]
56cd:	00 00 00

00000000000056d0 <get_quoting_style>:
56d0:	48 8d 05 49 4b 20 00 	lea    rax,[rip+0x204b49]        # 20a220 <default_quoting_options>
56d7:	48 85 ff             	test   rdi,rdi
56da:	48 0f 44 f8          	cmove  rdi,rax
56de:	8b 07                	mov    eax,DWORD PTR [rdi]
56e0:	c3                   	ret
56e1:	0f 1f 44 00 00       	nop    DWORD PTR [rax+rax*1+0x0]
56e6:	66 2e 0f 1f 84 00 00 	nop    WORD PTR cs:[rax+rax*1+0x0]
56ed:	00 00 00

00000000000056f0 <set_quoting_style>:
56f0:	48 8d 05 29 4b 20 00 	lea    rax,[rip+0x204b29]        # 20a220 <default_quoting_options>
56f7:	48 85 ff             	test   rdi,rdi
56fa:	48 0f 44 f8          	cmove  rdi,rax
56fe:	89 37                	mov    DWORD PTR [rdi],esi
5700:	c3                   	ret
5701:	0f 1f 44 00 00       	nop    DWORD PTR [rax+rax*1+0x0]
5706:	66 2e 0f 1f 84 00 00 	nop    WORD PTR cs:[rax+rax*1+0x0]
570d:	00 00 00

0000000000005710 <set_char_quoting>:
5710:	48 8d 05 09 4b 20 00 	lea    rax,[rip+0x204b09]        # 20a220 <default_quoting_options>
5717:	48 85 ff             	test   rdi,rdi
571a:	89 f1                	mov    ecx,esi
571c:	48 0f 44 f8          	cmove  rdi,rax
5720:	89 f0                	mov    eax,esi
5722:	83 e1 1f             	and    ecx,0x1f
5725:	c0 e8 05             	shr    al,0x5
5728:	0f b6 c0             	movzx  eax,al
572b:	48 8d 7c 87 08       	lea    rdi,[rdi+rax*4+0x8]
5730:	8b 37                	mov    esi,DWORD PTR [rdi]
5732:	89 f0                	mov    eax,esi
5734:	d3 e8                	shr    eax,cl
5736:	31 c2                	xor    edx,eax
5738:	83 e0 01             	and    eax,0x1
573b:	83 e2 01             	and    edx,0x1
573e:	d3 e2                	shl    edx,cl
5740:	31 f2                	xor    edx,esi
5742:	89 17                	mov    DWORD PTR [rdi],edx
5744:	c3                   	ret
5745:	90                   	nop
5746:	66 2e 0f 1f 84 00 00 	nop    WORD PTR cs:[rax+rax*1+0x0]
574d:	00 00 00

0000000000005750 <set_quoting_flags>:
5750:	48 8d 05 c9 4a 20 00 	lea    rax,[rip+0x204ac9]        # 20a220 <default_quoting_options>
5757:	48 85 ff             	test   rdi,rdi
575a:	48 0f 44 f8          	cmove  rdi,rax
575e:	8b 47 04             	mov    eax,DWORD PTR [rdi+0x4]
5761:	89 77 04             	mov    DWORD PTR [rdi+0x4],esi
5764:	c3                   	ret
5765:	90                   	nop
5766:	66 2e 0f 1f 84 00 00 	nop    WORD PTR cs:[rax+rax*1+0x0]
576d:	00 00 00

0000000000005770 <set_custom_quoting>:
5770:	48 8d 05 a9 4a 20 00 	lea    rax,[rip+0x204aa9]        # 20a220 <default_quoting_options>
5777:	48 85 ff             	test   rdi,rdi
577a:	48 0f 44 f8          	cmove  rdi,rax
577e:	48 85 f6             	test   rsi,rsi
5781:	c7 07 0a 00 00 00    	mov    DWORD PTR [rdi],0xa
5787:	74 0e                	je     5797 <set_custom_quoting+0x27>
5789:	48 85 d2             	test   rdx,rdx
578c:	74 09                	je     5797 <set_custom_quoting+0x27>
578e:	48 89 77 28          	mov    QWORD PTR [rdi+0x28],rsi
5792:	48 89 57 30          	mov    QWORD PTR [rdi+0x30],rdx
5796:	c3                   	ret
5797:	48 83 ec 08          	sub    rsp,0x8
579b:	e8 20 bd ff ff       	call   14c0 <abort@plt>

00000000000057a0 <quotearg_buffer>:
57a0:	41 57                	push   r15
57a2:	41 56                	push   r14
57a4:	48 8d 05 75 4a 20 00 	lea    rax,[rip+0x204a75]        # 20a220 <default_quoting_options>
57ab:	41 55                	push   r13
57ad:	41 54                	push   r12
57af:	49 89 fd             	mov    r13,rdi
57b2:	55                   	push   rbp
57b3:	53                   	push   rbx
57b4:	4c 89 c3             	mov    rbx,r8
57b7:	49 89 f6             	mov    r14,rsi
57ba:	49 89 d7             	mov    r15,rdx
57bd:	48 83 ec 18          	sub    rsp,0x18
57c1:	4d 85 c0             	test   r8,r8
57c4:	48 0f 44 d8          	cmove  rbx,rax
57c8:	48 89 4c 24 08       	mov    QWORD PTR [rsp+0x8],rcx
57cd:	e8 fe bc ff ff       	call   14d0 <__errno_location@plt>
57d2:	44 8b 20             	mov    r12d,DWORD PTR [rax]
57d5:	48 89 c5             	mov    rbp,rax
57d8:	48 8d 43 08          	lea    rax,[rbx+0x8]
57dc:	48 83 ec 08          	sub    rsp,0x8
57e0:	44 8b 4b 04          	mov    r9d,DWORD PTR [rbx+0x4]
57e4:	ff 73 30             	push   QWORD PTR [rbx+0x30]
57e7:	44 8b 03             	mov    r8d,DWORD PTR [rbx]
57ea:	ff 73 28             	push   QWORD PTR [rbx+0x28]
57ed:	4c 89 fa             	mov    rdx,r15
57f0:	50                   	push   rax
57f1:	48 8b 4c 24 28       	mov    rcx,QWORD PTR [rsp+0x28]
57f6:	4c 89 f6             	mov    rsi,r14
57f9:	4c 89 ef             	mov    rdi,r13
57fc:	e8 9f ea ff ff       	call   42a0 <quotearg_buffer_restyled>
5801:	44 89 65 00          	mov    DWORD PTR [rbp+0x0],r12d
5805:	48 83 c4 38          	add    rsp,0x38
5809:	5b                   	pop    rbx
580a:	5d                   	pop    rbp
580b:	41 5c                	pop    r12
580d:	41 5d                	pop    r13
580f:	41 5e                	pop    r14
5811:	41 5f                	pop    r15
5813:	c3                   	ret
5814:	66 90                	xchg   ax,ax
5816:	66 2e 0f 1f 84 00 00 	nop    WORD PTR cs:[rax+rax*1+0x0]
581d:	00 00 00

0000000000005820 <quotearg_alloc_mem>:
5820:	41 57                	push   r15
5822:	41 56                	push   r14
5824:	48 8d 05 f5 49 20 00 	lea    rax,[rip+0x2049f5]        # 20a220 <default_quoting_options>
582b:	41 55                	push   r13
582d:	41 54                	push   r12
582f:	49 89 d4             	mov    r12,rdx
5832:	55                   	push   rbp
5833:	53                   	push   rbx
5834:	48 89 cb             	mov    rbx,rcx
5837:	49 89 fe             	mov    r14,rdi
583a:	49 89 f7             	mov    r15,rsi
583d:	48 83 ec 38          	sub    rsp,0x38
5841:	48 85 c9             	test   rcx,rcx
5844:	48 0f 44 d8          	cmove  rbx,rax
5848:	31 ed                	xor    ebp,ebp
584a:	e8 81 bc ff ff       	call   14d0 <__errno_location@plt>
584f:	4d 85 e4             	test   r12,r12
5852:	49 89 c5             	mov    r13,rax
5855:	8b 00                	mov    eax,DWORD PTR [rax]
5857:	40 0f 94 c5          	sete   bpl
585b:	0b 6b 04             	or     ebp,DWORD PTR [rbx+0x4]
585e:	4c 8d 53 08          	lea    r10,[rbx+0x8]
5862:	48 83 ec 08          	sub    rsp,0x8
5866:	44 8b 03             	mov    r8d,DWORD PTR [rbx]
5869:	4c 89 f9             	mov    rcx,r15
586c:	89 44 24 14          	mov    DWORD PTR [rsp+0x14],eax
5870:	ff 73 30             	push   QWORD PTR [rbx+0x30]
5873:	4c 89 f2             	mov    rdx,r14
5876:	ff 73 28             	push   QWORD PTR [rbx+0x28]
5879:	41 52                	push   r10
587b:	31 f6                	xor    esi,esi
587d:	41 89 e9             	mov    r9d,ebp
5880:	31 ff                	xor    edi,edi
5882:	4c 89 54 24 40       	mov    QWORD PTR [rsp+0x40],r10
5887:	e8 14 ea ff ff       	call   42a0 <quotearg_buffer_restyled>
588c:	48 8d 70 01          	lea    rsi,[rax+0x1]
5890:	48 89 44 24 48       	mov    QWORD PTR [rsp+0x48],rax
5895:	48 83 c4 20          	add    rsp,0x20
5899:	48 89 f7             	mov    rdi,rsi
589c:	48 89 74 24 18       	mov    QWORD PTR [rsp+0x18],rsi
58a1:	e8 aa 0d 00 00       	call   6650 <xmalloc>
58a6:	48 89 44 24 10       	mov    QWORD PTR [rsp+0x10],rax
58ab:	48 83 ec 08          	sub    rsp,0x8
58af:	ff 73 30             	push   QWORD PTR [rbx+0x30]
58b2:	ff 73 28             	push   QWORD PTR [rbx+0x28]
58b5:	4c 8b 54 24 38       	mov    r10,QWORD PTR [rsp+0x38]
58ba:	41 89 e9             	mov    r9d,ebp
58bd:	44 8b 03             	mov    r8d,DWORD PTR [rbx]
58c0:	4c 89 f9             	mov    rcx,r15
58c3:	4c 89 f2             	mov    rdx,r14
58c6:	48 89 c7             	mov    rdi,rax
58c9:	41 52                	push   r10
58cb:	48 8b 74 24 38       	mov    rsi,QWORD PTR [rsp+0x38]
58d0:	e8 cb e9 ff ff       	call   42a0 <quotearg_buffer_restyled>
58d5:	8b 44 24 2c          	mov    eax,DWORD PTR [rsp+0x2c]
58d9:	48 83 c4 20          	add    rsp,0x20
58dd:	4d 85 e4             	test   r12,r12
58e0:	41 89 45 00          	mov    DWORD PTR [r13+0x0],eax
58e4:	74 09                	je     58ef <quotearg_alloc_mem+0xcf>
58e6:	4c 8b 5c 24 28       	mov    r11,QWORD PTR [rsp+0x28]
58eb:	4d 89 1c 24          	mov    QWORD PTR [r12],r11
58ef:	48 8b 44 24 10       	mov    rax,QWORD PTR [rsp+0x10]
58f4:	48 83 c4 38          	add    rsp,0x38
58f8:	5b                   	pop    rbx
58f9:	5d                   	pop    rbp
58fa:	41 5c                	pop    r12
58fc:	41 5d                	pop    r13
58fe:	41 5e                	pop    r14
5900:	41 5f                	pop    r15
5902:	c3                   	ret
5903:	0f 1f 00             	nop    DWORD PTR [rax]
5906:	66 2e 0f 1f 84 00 00 	nop    WORD PTR cs:[rax+rax*1+0x0]
590d:	00 00 00

0000000000005910 <quotearg_alloc>:
5910:	48 89 d1             	mov    rcx,rdx
5913:	31 d2                	xor    edx,edx
5915:	e9 06 ff ff ff       	jmp    5820 <quotearg_alloc_mem>
591a:	66 0f 1f 44 00 00    	nop    WORD PTR [rax+rax*1+0x0]

0000000000005920 <quotearg_free>:
5920:	8b 05 52 47 20 00    	mov    eax,DWORD PTR [rip+0x204752]        # 20a078 <nslots>
5926:	41 54                	push   r12
5928:	4c 8b 25 51 47 20 00 	mov    r12,QWORD PTR [rip+0x204751]        # 20a080 <slotvec>
592f:	55                   	push   rbp
5930:	53                   	push   rbx
5931:	83 f8 01             	cmp    eax,0x1
5934:	7e 2b                	jle    5961 <quotearg_free+0x41>
5936:	83 e8 02             	sub    eax,0x2
5939:	49 8d 5c 24 18       	lea    rbx,[r12+0x18]
593e:	48 c1 e0 04          	shl    rax,0x4
5942:	49 8d 6c 04 28       	lea    rbp,[r12+rax*1+0x28]
5947:	66 0f 1f 84 00 00 00 	nop    WORD PTR [rax+rax*1+0x0]
594e:	00 00
5950:	48 8b 3b             	mov    rdi,QWORD PTR [rbx]
5953:	48 83 c3 10          	add    rbx,0x10
5957:	e8 54 bb ff ff       	call   14b0 <free@plt>
595c:	48 39 eb             	cmp    rbx,rbp
595f:	75 ef                	jne    5950 <quotearg_free+0x30>
5961:	49 8b 7c 24 08       	mov    rdi,QWORD PTR [r12+0x8]
5966:	48 8d 1d b3 47 20 00 	lea    rbx,[rip+0x2047b3]        # 20a120 <slot0>
596d:	48 39 df             	cmp    rdi,rbx
5970:	74 17                	je     5989 <quotearg_free+0x69>
5972:	e8 39 bb ff ff       	call   14b0 <free@plt>
5977:	48 c7 05 0e 47 20 00 	mov    QWORD PTR [rip+0x20470e],0x100        # 20a090 <slotvec0>
597e:	00 01 00 00
5982:	48 89 1d 0f 47 20 00 	mov    QWORD PTR [rip+0x20470f],rbx        # 20a098 <slotvec0+0x8>
5989:	48 8d 1d 00 47 20 00 	lea    rbx,[rip+0x204700]        # 20a090 <slotvec0>
5990:	49 39 dc             	cmp    r12,rbx
5993:	74 0f                	je     59a4 <quotearg_free+0x84>
5995:	4c 89 e7             	mov    rdi,r12
5998:	e8 13 bb ff ff       	call   14b0 <free@plt>
599d:	48 89 1d dc 46 20 00 	mov    QWORD PTR [rip+0x2046dc],rbx        # 20a080 <slotvec>
59a4:	5b                   	pop    rbx
59a5:	c7 05 c9 46 20 00 01 	mov    DWORD PTR [rip+0x2046c9],0x1        # 20a078 <nslots>
59ac:	00 00 00
59af:	5d                   	pop    rbp
59b0:	41 5c                	pop    r12
59b2:	c3                   	ret
59b3:	0f 1f 00             	nop    DWORD PTR [rax]
59b6:	66 2e 0f 1f 84 00 00 	nop    WORD PTR cs:[rax+rax*1+0x0]
59bd:	00 00 00

00000000000059c0 <quotearg_n>:
59c0:	48 8d 0d 59 48 20 00 	lea    rcx,[rip+0x204859]        # 20a220 <default_quoting_options>
59c7:	48 c7 c2 ff ff ff ff 	mov    rdx,0xffffffffffffffff
59ce:	e9 0d fb ff ff       	jmp    54e0 <quotearg_n_options>
59d3:	0f 1f 00             	nop    DWORD PTR [rax]
59d6:	66 2e 0f 1f 84 00 00 	nop    WORD PTR cs:[rax+rax*1+0x0]
59dd:	00 00 00

00000000000059e0 <quotearg_n_mem>:
59e0:	48 8d 0d 39 48 20 00 	lea    rcx,[rip+0x204839]        # 20a220 <default_quoting_options>
59e7:	e9 f4 fa ff ff       	jmp    54e0 <quotearg_n_options>
59ec:	0f 1f 40 00          	nop    DWORD PTR [rax+0x0]

00000000000059f0 <quotearg>:
59f0:	48 8d 0d 29 48 20 00 	lea    rcx,[rip+0x204829]        # 20a220 <default_quoting_options>
59f7:	48 89 fe             	mov    rsi,rdi
59fa:	48 c7 c2 ff ff ff ff 	mov    rdx,0xffffffffffffffff
5a01:	31 ff                	xor    edi,edi
5a03:	e9 d8 fa ff ff       	jmp    54e0 <quotearg_n_options>
5a08:	0f 1f 84 00 00 00 00 	nop    DWORD PTR [rax+rax*1+0x0]
5a0f:	00

0000000000005a10 <quotearg_mem>:
5a10:	48 8d 0d 09 48 20 00 	lea    rcx,[rip+0x204809]        # 20a220 <default_quoting_options>
5a17:	48 89 f2             	mov    rdx,rsi
5a1a:	48 89 fe             	mov    rsi,rdi
5a1d:	31 ff                	xor    edi,edi
5a1f:	e9 bc fa ff ff       	jmp    54e0 <quotearg_n_options>
5a24:	66 90                	xchg   ax,ax
5a26:	66 2e 0f 1f 84 00 00 	nop    WORD PTR cs:[rax+rax*1+0x0]
5a2d:	00 00 00

0000000000005a30 <quotearg_n_style>:
5a30:	48 83 ec 48          	sub    rsp,0x48
5a34:	48 89 d0             	mov    rax,rdx
5a37:	64 48 8b 14 25 28 00 	mov    rdx,QWORD PTR fs:0x28
5a3e:	00 00
5a40:	48 89 54 24 38       	mov    QWORD PTR [rsp+0x38],rdx
5a45:	31 d2                	xor    edx,edx
5a47:	83 fe 0a             	cmp    esi,0xa
5a4a:	74 68                	je     5ab4 <quotearg_n_style+0x84>
5a4c:	89 34 24             	mov    DWORD PTR [rsp],esi
5a4f:	48 89 e1             	mov    rcx,rsp
5a52:	48 c7 c2 ff ff ff ff 	mov    rdx,0xffffffffffffffff
5a59:	48 89 c6             	mov    rsi,rax
5a5c:	48 c7 44 24 04 00 00 	mov    QWORD PTR [rsp+0x4],0x0
5a63:	00 00
5a65:	48 c7 44 24 0c 00 00 	mov    QWORD PTR [rsp+0xc],0x0
5a6c:	00 00
5a6e:	48 c7 44 24 14 00 00 	mov    QWORD PTR [rsp+0x14],0x0
5a75:	00 00
5a77:	48 c7 44 24 1c 00 00 	mov    QWORD PTR [rsp+0x1c],0x0
5a7e:	00 00
5a80:	48 c7 44 24 24 00 00 	mov    QWORD PTR [rsp+0x24],0x0
5a87:	00 00
5a89:	48 c7 44 24 2c 00 00 	mov    QWORD PTR [rsp+0x2c],0x0
5a90:	00 00
5a92:	c7 44 24 34 00 00 00 	mov    DWORD PTR [rsp+0x34],0x0
5a99:	00
5a9a:	e8 41 fa ff ff       	call   54e0 <quotearg_n_options>
5a9f:	48 8b 4c 24 38       	mov    rcx,QWORD PTR [rsp+0x38]
5aa4:	64 48 33 0c 25 28 00 	xor    rcx,QWORD PTR fs:0x28
5aab:	00 00
5aad:	75 0a                	jne    5ab9 <quotearg_n_style+0x89>
5aaf:	48 83 c4 48          	add    rsp,0x48
5ab3:	c3                   	ret
5ab4:	e8 07 ba ff ff       	call   14c0 <abort@plt>
5ab9:	e8 d2 ba ff ff       	call   1590 <__stack_chk_fail@plt>
5abe:	66 90                	xchg   ax,ax

0000000000005ac0 <quotearg_n_style_mem>:
5ac0:	48 83 ec 48          	sub    rsp,0x48
5ac4:	48 89 d0             	mov    rax,rdx
5ac7:	48 89 ca             	mov    rdx,rcx
5aca:	64 48 8b 0c 25 28 00 	mov    rcx,QWORD PTR fs:0x28
5ad1:	00 00
5ad3:	48 89 4c 24 38       	mov    QWORD PTR [rsp+0x38],rcx
5ad8:	31 c9                	xor    ecx,ecx
5ada:	83 fe 0a             	cmp    esi,0xa
5add:	74 61                	je     5b40 <quotearg_n_style_mem+0x80>
5adf:	89 34 24             	mov    DWORD PTR [rsp],esi
5ae2:	48 89 e1             	mov    rcx,rsp
5ae5:	48 89 c6             	mov    rsi,rax
5ae8:	48 c7 44 24 04 00 00 	mov    QWORD PTR [rsp+0x4],0x0
5aef:	00 00
5af1:	48 c7 44 24 0c 00 00 	mov    QWORD PTR [rsp+0xc],0x0
5af8:	00 00
5afa:	48 c7 44 24 14 00 00 	mov    QWORD PTR [rsp+0x14],0x0
5b01:	00 00
5b03:	48 c7 44 24 1c 00 00 	mov    QWORD PTR [rsp+0x1c],0x0
5b0a:	00 00
5b0c:	48 c7 44 24 24 00 00 	mov    QWORD PTR [rsp+0x24],0x0
5b13:	00 00
5b15:	48 c7 44 24 2c 00 00 	mov    QWORD PTR [rsp+0x2c],0x0
5b1c:	00 00
5b1e:	c7 44 24 34 00 00 00 	mov    DWORD PTR [rsp+0x34],0x0
5b25:	00
5b26:	e8 b5 f9 ff ff       	call   54e0 <quotearg_n_options>
5b2b:	48 8b 54 24 38       	mov    rdx,QWORD PTR [rsp+0x38]
5b30:	64 48 33 14 25 28 00 	xor    rdx,QWORD PTR fs:0x28
5b37:	00 00
5b39:	75 0a                	jne    5b45 <quotearg_n_style_mem+0x85>
5b3b:	48 83 c4 48          	add    rsp,0x48
5b3f:	c3                   	ret
5b40:	e8 7b b9 ff ff       	call   14c0 <abort@plt>
5b45:	e8 46 ba ff ff       	call   1590 <__stack_chk_fail@plt>
5b4a:	66 0f 1f 44 00 00    	nop    WORD PTR [rax+rax*1+0x0]

0000000000005b50 <quotearg_style>:
5b50:	48 89 f2             	mov    rdx,rsi
5b53:	89 fe                	mov    esi,edi
5b55:	31 ff                	xor    edi,edi
5b57:	e9 d4 fe ff ff       	jmp    5a30 <quotearg_n_style>
5b5c:	0f 1f 40 00          	nop    DWORD PTR [rax+0x0]

0000000000005b60 <quotearg_style_mem>:
5b60:	48 89 d1             	mov    rcx,rdx
5b63:	48 89 f2             	mov    rdx,rsi
5b66:	89 fe                	mov    esi,edi
5b68:	31 ff                	xor    edi,edi
5b6a:	e9 51 ff ff ff       	jmp    5ac0 <quotearg_n_style_mem>
5b6f:	90                   	nop

0000000000005b70 <quotearg_char_mem>:
5b70:	48 83 ec 48          	sub    rsp,0x48
5b74:	89 d1                	mov    ecx,edx
5b76:	64 48 8b 04 25 28 00 	mov    rax,QWORD PTR fs:0x28
5b7d:	00 00
5b7f:	48 89 44 24 38       	mov    QWORD PTR [rsp+0x38],rax
5b84:	31 c0                	xor    eax,eax
5b86:	48 8b 05 c3 46 20 00 	mov    rax,QWORD PTR [rip+0x2046c3]        # 20a250 <default_quoting_options+0x30>
5b8d:	49 89 e0             	mov    r8,rsp
5b90:	83 e1 1f             	and    ecx,0x1f
5b93:	66 0f 6f 05 85 46 20 	movdqa xmm0,XMMWORD PTR [rip+0x204685]        # 20a220 <default_quoting_options>
5b9a:	00
5b9b:	48 89 44 24 30       	mov    QWORD PTR [rsp+0x30],rax
5ba0:	89 d0                	mov    eax,edx
5ba2:	0f 29 04 24          	movaps XMMWORD PTR [rsp],xmm0
5ba6:	c0 e8 05             	shr    al,0x5
5ba9:	0f b6 c0             	movzx  eax,al
5bac:	4d 8d 4c 80 08       	lea    r9,[r8+rax*4+0x8]
5bb1:	66 0f 6f 05 77 46 20 	movdqa xmm0,XMMWORD PTR [rip+0x204677]        # 20a230 <default_quoting_options+0x10>
5bb8:	00
5bb9:	0f 29 44 24 10       	movaps XMMWORD PTR [rsp+0x10],xmm0
5bbe:	66 0f 6f 05 7a 46 20 	movdqa xmm0,XMMWORD PTR [rip+0x20467a]        # 20a240 <default_quoting_options+0x20>
5bc5:	00
5bc6:	0f 29 44 24 20       	movaps XMMWORD PTR [rsp+0x20],xmm0
5bcb:	41 8b 11             	mov    edx,DWORD PTR [r9]
5bce:	89 d0                	mov    eax,edx
5bd0:	d3 e8                	shr    eax,cl
5bd2:	f7 d0                	not    eax
5bd4:	83 e0 01             	and    eax,0x1
5bd7:	d3 e0                	shl    eax,cl
5bd9:	4c 89 c1             	mov    rcx,r8
5bdc:	31 d0                	xor    eax,edx
5bde:	48 89 f2             	mov    rdx,rsi
5be1:	48 89 fe             	mov    rsi,rdi
5be4:	41 89 01             	mov    DWORD PTR [r9],eax
5be7:	31 ff                	xor    edi,edi
5be9:	e8 f2 f8 ff ff       	call   54e0 <quotearg_n_options>
5bee:	48 8b 74 24 38       	mov    rsi,QWORD PTR [rsp+0x38]
5bf3:	64 48 33 34 25 28 00 	xor    rsi,QWORD PTR fs:0x28
5bfa:	00 00
5bfc:	75 05                	jne    5c03 <quotearg_char_mem+0x93>
5bfe:	48 83 c4 48          	add    rsp,0x48
5c02:	c3                   	ret
5c03:	e8 88 b9 ff ff       	call   1590 <__stack_chk_fail@plt>
5c08:	0f 1f 84 00 00 00 00 	nop    DWORD PTR [rax+rax*1+0x0]
5c0f:	00

0000000000005c10 <quotearg_char>:
5c10:	40 0f be d6          	movsx  edx,sil
5c14:	48 c7 c6 ff ff ff ff 	mov    rsi,0xffffffffffffffff
5c1b:	e9 50 ff ff ff       	jmp    5b70 <quotearg_char_mem>

0000000000005c20 <quotearg_colon>:
5c20:	ba 3a 00 00 00       	mov    edx,0x3a
5c25:	48 c7 c6 ff ff ff ff 	mov    rsi,0xffffffffffffffff
5c2c:	e9 3f ff ff ff       	jmp    5b70 <quotearg_char_mem>
5c31:	0f 1f 44 00 00       	nop    DWORD PTR [rax+rax*1+0x0]
5c36:	66 2e 0f 1f 84 00 00 	nop    WORD PTR cs:[rax+rax*1+0x0]
5c3d:	00 00 00

0000000000005c40 <quotearg_colon_mem>:
5c40:	ba 3a 00 00 00       	mov    edx,0x3a
5c45:	e9 26 ff ff ff       	jmp    5b70 <quotearg_char_mem>
5c4a:	66 0f 1f 44 00 00    	nop    WORD PTR [rax+rax*1+0x0]

0000000000005c50 <quotearg_n_style_colon>:
5c50:	48 83 ec 48          	sub    rsp,0x48
5c54:	48 89 d0             	mov    rax,rdx
5c57:	64 48 8b 14 25 28 00 	mov    rdx,QWORD PTR fs:0x28
5c5e:	00 00
5c60:	48 89 54 24 38       	mov    QWORD PTR [rsp+0x38],rdx
5c65:	31 d2                	xor    edx,edx
5c67:	83 fe 0a             	cmp    esi,0xa
5c6a:	74 68                	je     5cd4 <quotearg_n_style_colon+0x84>
5c6c:	89 34 24             	mov    DWORD PTR [rsp],esi
5c6f:	48 89 e1             	mov    rcx,rsp
5c72:	48 c7 c2 ff ff ff ff 	mov    rdx,0xffffffffffffffff
5c79:	48 89 c6             	mov    rsi,rax
5c7c:	48 c7 44 24 04 00 00 	mov    QWORD PTR [rsp+0x4],0x0
5c83:	00 00
5c85:	48 c7 44 24 0c 00 00 	mov    QWORD PTR [rsp+0xc],0x4000000
5c8c:	00 04
5c8e:	48 c7 44 24 14 00 00 	mov    QWORD PTR [rsp+0x14],0x0
5c95:	00 00
5c97:	48 c7 44 24 1c 00 00 	mov    QWORD PTR [rsp+0x1c],0x0
5c9e:	00 00
5ca0:	48 c7 44 24 24 00 00 	mov    QWORD PTR [rsp+0x24],0x0
5ca7:	00 00
5ca9:	48 c7 44 24 2c 00 00 	mov    QWORD PTR [rsp+0x2c],0x0
5cb0:	00 00
5cb2:	c7 44 24 34 00 00 00 	mov    DWORD PTR [rsp+0x34],0x0
5cb9:	00
5cba:	e8 21 f8 ff ff       	call   54e0 <quotearg_n_options>
5cbf:	48 8b 4c 24 38       	mov    rcx,QWORD PTR [rsp+0x38]
5cc4:	64 48 33 0c 25 28 00 	xor    rcx,QWORD PTR fs:0x28
5ccb:	00 00
5ccd:	75 0a                	jne    5cd9 <quotearg_n_style_colon+0x89>
5ccf:	48 83 c4 48          	add    rsp,0x48
5cd3:	c3                   	ret
5cd4:	e8 e7 b7 ff ff       	call   14c0 <abort@plt>
5cd9:	e8 b2 b8 ff ff       	call   1590 <__stack_chk_fail@plt>
5cde:	66 90                	xchg   ax,ax

0000000000005ce0 <quotearg_n_custom_mem>:
5ce0:	48 83 ec 48          	sub    rsp,0x48
5ce4:	49 89 c9             	mov    r9,rcx
5ce7:	48 8b 0d 62 45 20 00 	mov    rcx,QWORD PTR [rip+0x204562]        # 20a250 <default_quoting_options+0x30>
5cee:	66 0f 6f 05 2a 45 20 	movdqa xmm0,XMMWORD PTR [rip+0x20452a]        # 20a220 <default_quoting_options>
5cf5:	00
5cf6:	64 48 8b 04 25 28 00 	mov    rax,QWORD PTR fs:0x28
5cfd:	00 00
5cff:	48 89 44 24 38       	mov    QWORD PTR [rsp+0x38],rax
5d04:	31 c0                	xor    eax,eax
5d06:	0f 29 04 24          	movaps XMMWORD PTR [rsp],xmm0
5d0a:	48 85 f6             	test   rsi,rsi
5d0d:	48 89 4c 24 30       	mov    QWORD PTR [rsp+0x30],rcx
5d12:	c7 04 24 0a 00 00 00 	mov    DWORD PTR [rsp],0xa
5d19:	66 0f 6f 05 0f 45 20 	movdqa xmm0,XMMWORD PTR [rip+0x20450f]        # 20a230 <default_quoting_options+0x10>
5d20:	00
5d21:	0f 29 44 24 10       	movaps XMMWORD PTR [rsp+0x10],xmm0
5d26:	66 0f 6f 05 12 45 20 	movdqa xmm0,XMMWORD PTR [rip+0x204512]        # 20a240 <default_quoting_options+0x20>
5d2d:	00
5d2e:	0f 29 44 24 20       	movaps XMMWORD PTR [rsp+0x20],xmm0
5d33:	74 32                	je     5d67 <quotearg_n_custom_mem+0x87>
5d35:	48 85 d2             	test   rdx,rdx
5d38:	74 2d                	je     5d67 <quotearg_n_custom_mem+0x87>
5d3a:	48 89 74 24 28       	mov    QWORD PTR [rsp+0x28],rsi
5d3f:	48 89 54 24 30       	mov    QWORD PTR [rsp+0x30],rdx
5d44:	48 89 e1             	mov    rcx,rsp
5d47:	4c 89 c2             	mov    rdx,r8
5d4a:	4c 89 ce             	mov    rsi,r9
5d4d:	e8 8e f7 ff ff       	call   54e0 <quotearg_n_options>
5d52:	48 8b 7c 24 38       	mov    rdi,QWORD PTR [rsp+0x38]
5d57:	64 48 33 3c 25 28 00 	xor    rdi,QWORD PTR fs:0x28
5d5e:	00 00
5d60:	75 0a                	jne    5d6c <quotearg_n_custom_mem+0x8c>
5d62:	48 83 c4 48          	add    rsp,0x48
5d66:	c3                   	ret
5d67:	e8 54 b7 ff ff       	call   14c0 <abort@plt>
5d6c:	e8 1f b8 ff ff       	call   1590 <__stack_chk_fail@plt>
5d71:	0f 1f 44 00 00       	nop    DWORD PTR [rax+rax*1+0x0]
5d76:	66 2e 0f 1f 84 00 00 	nop    WORD PTR cs:[rax+rax*1+0x0]
5d7d:	00 00 00

0000000000005d80 <quotearg_n_custom>:
5d80:	49 c7 c0 ff ff ff ff 	mov    r8,0xffffffffffffffff
5d87:	e9 54 ff ff ff       	jmp    5ce0 <quotearg_n_custom_mem>
5d8c:	0f 1f 40 00          	nop    DWORD PTR [rax+0x0]

0000000000005d90 <quotearg_custom>:
5d90:	48 89 d1             	mov    rcx,rdx
5d93:	49 c7 c0 ff ff ff ff 	mov    r8,0xffffffffffffffff
5d9a:	48 89 f2             	mov    rdx,rsi
5d9d:	48 89 fe             	mov    rsi,rdi
5da0:	31 ff                	xor    edi,edi
5da2:	e9 39 ff ff ff       	jmp    5ce0 <quotearg_n_custom_mem>
5da7:	66 0f 1f 84 00 00 00 	nop    WORD PTR [rax+rax*1+0x0]
5dae:	00 00

0000000000005db0 <quotearg_custom_mem>:
5db0:	49 89 c8             	mov    r8,rcx
5db3:	48 89 d1             	mov    rcx,rdx
5db6:	48 89 f2             	mov    rdx,rsi
5db9:	48 89 fe             	mov    rsi,rdi
5dbc:	31 ff                	xor    edi,edi
5dbe:	e9 1d ff ff ff       	jmp    5ce0 <quotearg_n_custom_mem>
5dc3:	0f 1f 00             	nop    DWORD PTR [rax]
5dc6:	66 2e 0f 1f 84 00 00 	nop    WORD PTR cs:[rax+rax*1+0x0]
5dcd:	00 00 00

0000000000005dd0 <quote_n_mem>:
5dd0:	48 8d 0d 69 42 20 00 	lea    rcx,[rip+0x204269]        # 20a040 <quote_quoting_options>
5dd7:	e9 04 f7 ff ff       	jmp    54e0 <quotearg_n_options>
5ddc:	0f 1f 40 00          	nop    DWORD PTR [rax+0x0]

0000000000005de0 <quote_mem>:
5de0:	48 8d 0d 59 42 20 00 	lea    rcx,[rip+0x204259]        # 20a040 <quote_quoting_options>
5de7:	48 89 f2             	mov    rdx,rsi
5dea:	48 89 fe             	mov    rsi,rdi
5ded:	31 ff                	xor    edi,edi
5def:	e9 ec f6 ff ff       	jmp    54e0 <quotearg_n_options>
5df4:	66 90                	xchg   ax,ax
5df6:	66 2e 0f 1f 84 00 00 	nop    WORD PTR cs:[rax+rax*1+0x0]
5dfd:	00 00 00

0000000000005e00 <quote_n>:
5e00:	48 8d 0d 39 42 20 00 	lea    rcx,[rip+0x204239]        # 20a040 <quote_quoting_options>
5e07:	48 c7 c2 ff ff ff ff 	mov    rdx,0xffffffffffffffff
5e0e:	e9 cd f6 ff ff       	jmp    54e0 <quotearg_n_options>
5e13:	0f 1f 00             	nop    DWORD PTR [rax]
5e16:	66 2e 0f 1f 84 00 00 	nop    WORD PTR cs:[rax+rax*1+0x0]
5e1d:	00 00 00

0000000000005e20 <quote>:
5e20:	48 8d 0d 19 42 20 00 	lea    rcx,[rip+0x204219]        # 20a040 <quote_quoting_options>
5e27:	48 89 fe             	mov    rsi,rdi
5e2a:	48 c7 c2 ff ff ff ff 	mov    rdx,0xffffffffffffffff
5e31:	31 ff                	xor    edi,edi
5e33:	e9 a8 f6 ff ff       	jmp    54e0 <quotearg_n_options>
5e38:	0f 1f 84 00 00 00 00 	nop    DWORD PTR [rax+rax*1+0x0]
5e3f:	00

0000000000005e40 <same_nameat.part.0>:
5e40:	41 55                	push   r13
5e42:	41 54                	push   r12
5e44:	41 89 fd             	mov    r13d,edi
5e47:	55                   	push   rbp
5e48:	53                   	push   rbx
5e49:	48 89 f7             	mov    rdi,rsi
5e4c:	89 d5                	mov    ebp,edx
5e4e:	49 89 cc             	mov    r12,rcx
5e51:	48 81 ec 38 01 00 00 	sub    rsp,0x138
5e58:	64 48 8b 04 25 28 00 	mov    rax,QWORD PTR fs:0x28
5e5f:	00 00
5e61:	48 89 84 24 28 01 00 	mov    QWORD PTR [rsp+0x128],rax
5e68:	00
5e69:	31 c0                	xor    eax,eax
5e6b:	e8 a0 0c 00 00       	call   6b10 <dir_name>
5e70:	48 89 e1             	mov    rcx,rsp
5e73:	41 b8 00 01 00 00    	mov    r8d,0x100
5e79:	48 89 c2             	mov    rdx,rax
5e7c:	44 89 ee             	mov    esi,r13d
5e7f:	bf 01 00 00 00       	mov    edi,0x1
5e84:	48 89 c3             	mov    rbx,rax
5e87:	e8 34 b7 ff ff       	call   15c0 <__fxstatat@plt>
5e8c:	85 c0                	test   eax,eax
5e8e:	0f 85 ac 00 00 00    	jne    5f40 <same_nameat.part.0+0x100>
5e94:	48 89 df             	mov    rdi,rbx
5e97:	e8 14 b6 ff ff       	call   14b0 <free@plt>
5e9c:	4c 89 e7             	mov    rdi,r12
5e9f:	e8 6c 0c 00 00       	call   6b10 <dir_name>
5ea4:	48 8d 8c 24 90 00 00 	lea    rcx,[rsp+0x90]
5eab:	00
5eac:	41 b8 00 01 00 00    	mov    r8d,0x100
5eb2:	48 89 c2             	mov    rdx,rax
5eb5:	89 ee                	mov    esi,ebp
5eb7:	bf 01 00 00 00       	mov    edi,0x1
5ebc:	48 89 c3             	mov    rbx,rax
5ebf:	e8 fc b6 ff ff       	call   15c0 <__fxstatat@plt>
5ec4:	85 c0                	test   eax,eax
5ec6:	75 50                	jne    5f18 <same_nameat.part.0+0xd8>
5ec8:	31 ed                	xor    ebp,ebp
5eca:	48 8b 84 24 98 00 00 	mov    rax,QWORD PTR [rsp+0x98]
5ed1:	00
5ed2:	48 39 44 24 08       	cmp    QWORD PTR [rsp+0x8],rax
5ed7:	75 10                	jne    5ee9 <same_nameat.part.0+0xa9>
5ed9:	48 8b 84 24 90 00 00 	mov    rax,QWORD PTR [rsp+0x90]
5ee0:	00
5ee1:	48 39 04 24          	cmp    QWORD PTR [rsp],rax
5ee5:	40 0f 94 c5          	sete   bpl
5ee9:	48 89 df             	mov    rdi,rbx
5eec:	e8 bf b5 ff ff       	call   14b0 <free@plt>
5ef1:	48 8b 94 24 28 01 00 	mov    rdx,QWORD PTR [rsp+0x128]
5ef8:	00
5ef9:	64 48 33 14 25 28 00 	xor    rdx,QWORD PTR fs:0x28
5f00:	00 00
5f02:	89 e8                	mov    eax,ebp
5f04:	75 5c                	jne    5f62 <same_nameat.part.0+0x122>
5f06:	48 81 c4 38 01 00 00 	add    rsp,0x138
5f0d:	5b                   	pop    rbx
5f0e:	5d                   	pop    rbp
5f0f:	41 5c                	pop    r12
5f11:	41 5d                	pop    r13
5f13:	c3                   	ret
5f14:	0f 1f 40 00          	nop    DWORD PTR [rax+0x0]
5f18:	e8 b3 b5 ff ff       	call   14d0 <__errno_location@plt>
5f1d:	8b 30                	mov    esi,DWORD PTR [rax]
5f1f:	48 8d 15 e7 15 00 00 	lea    rdx,[rip+0x15e7]        # 750d <_IO_stdin_used+0x5cd>
5f26:	48 89 d9             	mov    rcx,rbx
5f29:	bf 01 00 00 00       	mov    edi,0x1
5f2e:	31 c0                	xor    eax,eax
5f30:	e8 eb b7 ff ff       	call   1720 <error@plt>
5f35:	eb 91                	jmp    5ec8 <same_nameat.part.0+0x88>
5f37:	66 0f 1f 84 00 00 00 	nop    WORD PTR [rax+rax*1+0x0]
5f3e:	00 00
5f40:	e8 8b b5 ff ff       	call   14d0 <__errno_location@plt>
5f45:	8b 30                	mov    esi,DWORD PTR [rax]
5f47:	48 8d 15 bf 15 00 00 	lea    rdx,[rip+0x15bf]        # 750d <_IO_stdin_used+0x5cd>
5f4e:	48 89 d9             	mov    rcx,rbx
5f51:	bf 01 00 00 00       	mov    edi,0x1
5f56:	31 c0                	xor    eax,eax
5f58:	e8 c3 b7 ff ff       	call   1720 <error@plt>
5f5d:	e9 32 ff ff ff       	jmp    5e94 <same_nameat.part.0+0x54>
5f62:	e8 29 b6 ff ff       	call   1590 <__stack_chk_fail@plt>
5f67:	66 0f 1f 84 00 00 00 	nop    WORD PTR [rax+rax*1+0x0]
5f6e:	00 00

0000000000005f70 <same_nameat>:
5f70:	41 57                	push   r15
5f72:	41 56                	push   r14
5f74:	41 89 d7             	mov    r15d,edx
5f77:	41 55                	push   r13
5f79:	41 54                	push   r12
5f7b:	55                   	push   rbp
5f7c:	53                   	push   rbx
5f7d:	48 89 cd             	mov    rbp,rcx
5f80:	48 89 f3             	mov    rbx,rsi
5f83:	48 83 ec 18          	sub    rsp,0x18
5f87:	89 7c 24 0c          	mov    DWORD PTR [rsp+0xc],edi
5f8b:	48 89 f7             	mov    rdi,rsi
5f8e:	e8 5d 0c 00 00       	call   6bf0 <last_component>
5f93:	48 89 ef             	mov    rdi,rbp
5f96:	49 89 c4             	mov    r12,rax
5f99:	e8 52 0c 00 00       	call   6bf0 <last_component>
5f9e:	4c 89 e7             	mov    rdi,r12
5fa1:	49 89 c5             	mov    r13,rax
5fa4:	e8 a7 0c 00 00       	call   6c50 <base_len>
5fa9:	4c 89 ef             	mov    rdi,r13
5fac:	49 89 c6             	mov    r14,rax
5faf:	e8 9c 0c 00 00       	call   6c50 <base_len>
5fb4:	49 39 c6             	cmp    r14,rax
5fb7:	74 17                	je     5fd0 <same_nameat+0x60>
5fb9:	48 83 c4 18          	add    rsp,0x18
5fbd:	31 c0                	xor    eax,eax
5fbf:	5b                   	pop    rbx
5fc0:	5d                   	pop    rbp
5fc1:	41 5c                	pop    r12
5fc3:	41 5d                	pop    r13
5fc5:	41 5e                	pop    r14
5fc7:	41 5f                	pop    r15
5fc9:	c3                   	ret
5fca:	66 0f 1f 44 00 00    	nop    WORD PTR [rax+rax*1+0x0]
5fd0:	4c 89 f2             	mov    rdx,r14
5fd3:	4c 89 ee             	mov    rsi,r13
5fd6:	4c 89 e7             	mov    rdi,r12
5fd9:	e8 52 b6 ff ff       	call   1630 <memcmp@plt>
5fde:	85 c0                	test   eax,eax
5fe0:	75 d7                	jne    5fb9 <same_nameat+0x49>
5fe2:	8b 7c 24 0c          	mov    edi,DWORD PTR [rsp+0xc]
5fe6:	48 83 c4 18          	add    rsp,0x18
5fea:	48 89 e9             	mov    rcx,rbp
5fed:	44 89 fa             	mov    edx,r15d
5ff0:	48 89 de             	mov    rsi,rbx
5ff3:	5b                   	pop    rbx
5ff4:	5d                   	pop    rbp
5ff5:	41 5c                	pop    r12
5ff7:	41 5d                	pop    r13
5ff9:	41 5e                	pop    r14
5ffb:	41 5f                	pop    r15
5ffd:	e9 3e fe ff ff       	jmp    5e40 <same_nameat.part.0>
6002:	0f 1f 40 00          	nop    DWORD PTR [rax+0x0]
6006:	66 2e 0f 1f 84 00 00 	nop    WORD PTR cs:[rax+rax*1+0x0]
600d:	00 00 00

0000000000006010 <same_name>:
6010:	ba 9c ff ff ff       	mov    edx,0xffffff9c
6015:	48 89 f1             	mov    rcx,rsi
6018:	48 89 fe             	mov    rsi,rdi
601b:	89 d7                	mov    edi,edx
601d:	e9 4e ff ff ff       	jmp    5f70 <same_nameat>
6022:	66 2e 0f 1f 84 00 00 	nop    WORD PTR cs:[rax+rax*1+0x0]
6029:	00 00 00
602c:	0f 1f 40 00          	nop    DWORD PTR [rax+0x0]

0000000000006030 <version_etc_arn>:
6030:	41 57                	push   r15
6032:	41 56                	push   r14
6034:	41 55                	push   r13
6036:	41 54                	push   r12
6038:	4d 89 cc             	mov    r12,r9
603b:	55                   	push   rbp
603c:	53                   	push   rbx
603d:	48 89 fd             	mov    rbp,rdi
6040:	4c 89 c3             	mov    rbx,r8
6043:	48 83 ec 28          	sub    rsp,0x28
6047:	48 85 f6             	test   rsi,rsi
604a:	0f 84 18 01 00 00    	je     6168 <version_etc_arn+0x138>
6050:	49 89 d0             	mov    r8,rdx
6053:	48 8d 15 8e 1a 00 00 	lea    rdx,[rip+0x1a8e]        # 7ae8 <quoting_style_vals+0x28>
605a:	49 89 c9             	mov    r9,rcx
605d:	31 c0                	xor    eax,eax
605f:	48 89 f1             	mov    rcx,rsi
6062:	be 01 00 00 00       	mov    esi,0x1
6067:	e8 04 b7 ff ff       	call   1770 <__fprintf_chk@plt>
606c:	48 8d 35 88 1a 00 00 	lea    rsi,[rip+0x1a88]        # 7afb <quoting_style_vals+0x3b>
6073:	31 ff                	xor    edi,edi
6075:	ba 05 00 00 00       	mov    edx,0x5
607a:	e8 d1 b4 ff ff       	call   1550 <dcgettext@plt>
607f:	48 8d 15 9a 1d 00 00 	lea    rdx,[rip+0x1d9a]        # 7e20 <version_etc_copyright>
6086:	48 89 c1             	mov    rcx,rax
6089:	41 b8 e3 07 00 00    	mov    r8d,0x7e3
608f:	be 01 00 00 00       	mov    esi,0x1
6094:	48 89 ef             	mov    rdi,rbp
6097:	31 c0                	xor    eax,eax
6099:	e8 d2 b6 ff ff       	call   1770 <__fprintf_chk@plt>
609e:	48 8d 35 e3 1a 00 00 	lea    rsi,[rip+0x1ae3]        # 7b88 <quoting_style_vals+0xc8>
60a5:	31 ff                	xor    edi,edi
60a7:	ba 05 00 00 00       	mov    edx,0x5
60ac:	e8 9f b4 ff ff       	call   1550 <dcgettext@plt>
60b1:	48 89 ee             	mov    rsi,rbp
60b4:	48 89 c7             	mov    rdi,rax
60b7:	e8 84 b5 ff ff       	call   1640 <fputs_unlocked@plt>
60bc:	49 83 fc 09          	cmp    r12,0x9
60c0:	0f 87 3a 03 00 00    	ja     6400 <version_etc_arn+0x3d0>
60c6:	48 8d 15 1b 1d 00 00 	lea    rdx,[rip+0x1d1b]        # 7de8 <quoting_style_vals+0x328>
60cd:	4a 63 04 a2          	movsxd rax,DWORD PTR [rdx+r12*4]
60d1:	48 01 d0             	add    rax,rdx
60d4:	ff e0                	jmp    rax
60d6:	66 2e 0f 1f 84 00 00 	nop    WORD PTR cs:[rax+rax*1+0x0]
60dd:	00 00 00
60e0:	4c 8b 4b 38          	mov    r9,QWORD PTR [rbx+0x38]
60e4:	48 8b 43 10          	mov    rax,QWORD PTR [rbx+0x10]
60e8:	48 8d 35 09 1c 00 00 	lea    rsi,[rip+0x1c09]        # 7cf8 <quoting_style_vals+0x238>
60ef:	4c 8b 43 08          	mov    r8,QWORD PTR [rbx+0x8]
60f3:	ba 05 00 00 00       	mov    edx,0x5
60f8:	31 ff                	xor    edi,edi
60fa:	4c 8b 6b 30          	mov    r13,QWORD PTR [rbx+0x30]
60fe:	4c 8b 63 28          	mov    r12,QWORD PTR [rbx+0x28]
6102:	4c 89 4c 24 10       	mov    QWORD PTR [rsp+0x10],r9
6107:	4c 8b 7b 20          	mov    r15,QWORD PTR [rbx+0x20]
610b:	4c 8b 73 18          	mov    r14,QWORD PTR [rbx+0x18]
610f:	48 89 04 24          	mov    QWORD PTR [rsp],rax
6113:	4c 89 44 24 08       	mov    QWORD PTR [rsp+0x8],r8
6118:	48 8b 1b             	mov    rbx,QWORD PTR [rbx]
611b:	e8 30 b4 ff ff       	call   1550 <dcgettext@plt>
6120:	48 83 ec 08          	sub    rsp,0x8
6124:	4c 8b 4c 24 18       	mov    r9,QWORD PTR [rsp+0x18]
6129:	48 89 c2             	mov    rdx,rax
612c:	48 89 d9             	mov    rcx,rbx
612f:	be 01 00 00 00       	mov    esi,0x1
6134:	48 89 ef             	mov    rdi,rbp
6137:	31 c0                	xor    eax,eax
6139:	41 51                	push   r9
613b:	41 55                	push   r13
613d:	41 54                	push   r12
613f:	41 57                	push   r15
6141:	41 56                	push   r14
6143:	4c 8b 4c 24 30       	mov    r9,QWORD PTR [rsp+0x30]
6148:	4c 8b 44 24 38       	mov    r8,QWORD PTR [rsp+0x38]
614d:	e8 1e b6 ff ff       	call   1770 <__fprintf_chk@plt>
6152:	48 83 c4 30          	add    rsp,0x30
6156:	48 83 c4 28          	add    rsp,0x28
615a:	5b                   	pop    rbx
615b:	5d                   	pop    rbp
615c:	41 5c                	pop    r12
615e:	41 5d                	pop    r13
6160:	41 5e                	pop    r14
6162:	41 5f                	pop    r15
6164:	c3                   	ret
6165:	0f 1f 00             	nop    DWORD PTR [rax]
6168:	49 89 c8             	mov    r8,rcx
616b:	48 89 d1             	mov    rcx,rdx
616e:	48 8d 15 7f 19 00 00 	lea    rdx,[rip+0x197f]        # 7af4 <quoting_style_vals+0x34>
6175:	be 01 00 00 00       	mov    esi,0x1
617a:	31 c0                	xor    eax,eax
617c:	e8 ef b5 ff ff       	call   1770 <__fprintf_chk@plt>
6181:	e9 e6 fe ff ff       	jmp    606c <version_etc_arn+0x3c>
6186:	66 2e 0f 1f 84 00 00 	nop    WORD PTR cs:[rax+rax*1+0x0]
618d:	00 00 00
6190:	4c 8b 53 40          	mov    r10,QWORD PTR [rbx+0x40]
6194:	4c 8b 4b 38          	mov    r9,QWORD PTR [rbx+0x38]
6198:	48 8d 35 89 1b 00 00 	lea    rsi,[rip+0x1b89]        # 7d28 <quoting_style_vals+0x268>
619f:	48 8b 43 10          	mov    rax,QWORD PTR [rbx+0x10]
61a3:	4c 8b 43 08          	mov    r8,QWORD PTR [rbx+0x8]
61a7:	ba 05 00 00 00       	mov    edx,0x5
61ac:	4c 8b 6b 30          	mov    r13,QWORD PTR [rbx+0x30]
61b0:	4c 8b 63 28          	mov    r12,QWORD PTR [rbx+0x28]
61b4:	4c 8b 7b 20          	mov    r15,QWORD PTR [rbx+0x20]
61b8:	4c 8b 73 18          	mov    r14,QWORD PTR [rbx+0x18]
61bc:	48 8b 1b             	mov    rbx,QWORD PTR [rbx]
61bf:	4c 89 54 24 18       	mov    QWORD PTR [rsp+0x18],r10
61c4:	4c 89 4c 24 10       	mov    QWORD PTR [rsp+0x10],r9
61c9:	48 89 04 24          	mov    QWORD PTR [rsp],rax
61cd:	4c 89 44 24 08       	mov    QWORD PTR [rsp+0x8],r8
61d2:	31 ff                	xor    edi,edi
61d4:	e8 77 b3 ff ff       	call   1550 <dcgettext@plt>
61d9:	4c 8b 54 24 18       	mov    r10,QWORD PTR [rsp+0x18]
61de:	41 52                	push   r10
61e0:	e9 3f ff ff ff       	jmp    6124 <version_etc_arn+0xf4>
61e5:	0f 1f 00             	nop    DWORD PTR [rax]
61e8:	48 8b 1b             	mov    rbx,QWORD PTR [rbx]
61eb:	48 8d 35 0d 19 00 00 	lea    rsi,[rip+0x190d]        # 7aff <quoting_style_vals+0x3f>
61f2:	ba 05 00 00 00       	mov    edx,0x5
61f7:	31 ff                	xor    edi,edi
61f9:	e8 52 b3 ff ff       	call   1550 <dcgettext@plt>
61fe:	48 83 c4 28          	add    rsp,0x28
6202:	48 89 d9             	mov    rcx,rbx
6205:	48 89 ef             	mov    rdi,rbp
6208:	5b                   	pop    rbx
6209:	5d                   	pop    rbp
620a:	41 5c                	pop    r12
620c:	41 5d                	pop    r13
620e:	41 5e                	pop    r14
6210:	41 5f                	pop    r15
6212:	48 89 c2             	mov    rdx,rax
6215:	be 01 00 00 00       	mov    esi,0x1
621a:	31 c0                	xor    eax,eax
621c:	e9 4f b5 ff ff       	jmp    1770 <__fprintf_chk@plt>
6221:	0f 1f 80 00 00 00 00 	nop    DWORD PTR [rax+0x0]
6228:	4c 8b 63 08          	mov    r12,QWORD PTR [rbx+0x8]
622c:	48 8d 35 dc 18 00 00 	lea    rsi,[rip+0x18dc]        # 7b0f <quoting_style_vals+0x4f>
6233:	48 8b 1b             	mov    rbx,QWORD PTR [rbx]
6236:	ba 05 00 00 00       	mov    edx,0x5
623b:	31 ff                	xor    edi,edi
623d:	e8 0e b3 ff ff       	call   1550 <dcgettext@plt>
6242:	48 83 c4 28          	add    rsp,0x28
6246:	4d 89 e0             	mov    r8,r12
6249:	48 89 d9             	mov    rcx,rbx
624c:	48 89 ef             	mov    rdi,rbp
624f:	48 89 c2             	mov    rdx,rax
6252:	be 01 00 00 00       	mov    esi,0x1
6257:	5b                   	pop    rbx
6258:	5d                   	pop    rbp
6259:	41 5c                	pop    r12
625b:	41 5d                	pop    r13
625d:	41 5e                	pop    r14
625f:	41 5f                	pop    r15
6261:	31 c0                	xor    eax,eax
6263:	e9 08 b5 ff ff       	jmp    1770 <__fprintf_chk@plt>
6268:	0f 1f 84 00 00 00 00 	nop    DWORD PTR [rax+rax*1+0x0]
626f:	00
6270:	4c 8b 6b 10          	mov    r13,QWORD PTR [rbx+0x10]
6274:	4c 8b 63 08          	mov    r12,QWORD PTR [rbx+0x8]
6278:	48 8d 35 a7 18 00 00 	lea    rsi,[rip+0x18a7]        # 7b26 <quoting_style_vals+0x66>
627f:	48 8b 1b             	mov    rbx,QWORD PTR [rbx]
6282:	ba 05 00 00 00       	mov    edx,0x5
6287:	31 ff                	xor    edi,edi
6289:	e8 c2 b2 ff ff       	call   1550 <dcgettext@plt>
628e:	48 83 c4 28          	add    rsp,0x28
6292:	4d 89 e9             	mov    r9,r13
6295:	4d 89 e0             	mov    r8,r12
6298:	48 89 d9             	mov    rcx,rbx
629b:	48 89 ef             	mov    rdi,rbp
629e:	48 89 c2             	mov    rdx,rax
62a1:	5b                   	pop    rbx
62a2:	5d                   	pop    rbp
62a3:	41 5c                	pop    r12
62a5:	41 5d                	pop    r13
62a7:	41 5e                	pop    r14
62a9:	41 5f                	pop    r15
62ab:	be 01 00 00 00       	mov    esi,0x1
62b0:	31 c0                	xor    eax,eax
62b2:	e9 b9 b4 ff ff       	jmp    1770 <__fprintf_chk@plt>
62b7:	66 0f 1f 84 00 00 00 	nop    WORD PTR [rax+rax*1+0x0]
62be:	00 00
62c0:	48 8d 35 91 19 00 00 	lea    rsi,[rip+0x1991]        # 7c58 <quoting_style_vals+0x198>
62c7:	ba 05 00 00 00       	mov    edx,0x5
62cc:	31 ff                	xor    edi,edi
62ce:	4c 8b 73 18          	mov    r14,QWORD PTR [rbx+0x18]
62d2:	4c 8b 6b 10          	mov    r13,QWORD PTR [rbx+0x10]
62d6:	4c 8b 63 08          	mov    r12,QWORD PTR [rbx+0x8]
62da:	48 8b 1b             	mov    rbx,QWORD PTR [rbx]
62dd:	e8 6e b2 ff ff       	call   1550 <dcgettext@plt>
62e2:	48 83 ec 08          	sub    rsp,0x8
62e6:	41 56                	push   r14
62e8:	48 89 c2             	mov    rdx,rax
62eb:	4d 89 e9             	mov    r9,r13
62ee:	4d 89 e0             	mov    r8,r12
62f1:	48 89 d9             	mov    rcx,rbx
62f4:	48 89 ef             	mov    rdi,rbp
62f7:	be 01 00 00 00       	mov    esi,0x1
62fc:	31 c0                	xor    eax,eax
62fe:	e8 6d b4 ff ff       	call   1770 <__fprintf_chk@plt>
6303:	58                   	pop    rax
6304:	5a                   	pop    rdx
6305:	48 83 c4 28          	add    rsp,0x28
6309:	5b                   	pop    rbx
630a:	5d                   	pop    rbp
630b:	41 5c                	pop    r12
630d:	41 5d                	pop    r13
630f:	41 5e                	pop    r14
6311:	41 5f                	pop    r15
6313:	c3                   	ret
6314:	0f 1f 40 00          	nop    DWORD PTR [rax+0x0]
6318:	4c 8b 7b 20          	mov    r15,QWORD PTR [rbx+0x20]
631c:	48 8d 35 55 19 00 00 	lea    rsi,[rip+0x1955]        # 7c78 <quoting_style_vals+0x1b8>
6323:	ba 05 00 00 00       	mov    edx,0x5
6328:	31 ff                	xor    edi,edi
632a:	4c 8b 73 18          	mov    r14,QWORD PTR [rbx+0x18]
632e:	4c 8b 6b 10          	mov    r13,QWORD PTR [rbx+0x10]
6332:	4c 8b 63 08          	mov    r12,QWORD PTR [rbx+0x8]
6336:	48 8b 1b             	mov    rbx,QWORD PTR [rbx]
6339:	e8 12 b2 ff ff       	call   1550 <dcgettext@plt>
633e:	41 57                	push   r15
6340:	eb a4                	jmp    62e6 <version_etc_arn+0x2b6>
6342:	66 0f 1f 44 00 00    	nop    WORD PTR [rax+rax*1+0x0]
6348:	4c 8b 43 08          	mov    r8,QWORD PTR [rbx+0x8]
634c:	4c 8b 63 28          	mov    r12,QWORD PTR [rbx+0x28]
6350:	48 8d 35 49 19 00 00 	lea    rsi,[rip+0x1949]        # 7ca0 <quoting_style_vals+0x1e0>
6357:	4c 8b 7b 20          	mov    r15,QWORD PTR [rbx+0x20]
635b:	4c 8b 73 18          	mov    r14,QWORD PTR [rbx+0x18]
635f:	ba 05 00 00 00       	mov    edx,0x5
6364:	4c 8b 6b 10          	mov    r13,QWORD PTR [rbx+0x10]
6368:	31 ff                	xor    edi,edi
636a:	48 8b 1b             	mov    rbx,QWORD PTR [rbx]
636d:	4c 89 04 24          	mov    QWORD PTR [rsp],r8
6371:	e8 da b1 ff ff       	call   1550 <dcgettext@plt>
6376:	48 83 ec 08          	sub    rsp,0x8
637a:	4d 89 e9             	mov    r9,r13
637d:	41 54                	push   r12
637f:	41 57                	push   r15
6381:	41 56                	push   r14
6383:	4c 8b 44 24 20       	mov    r8,QWORD PTR [rsp+0x20]
6388:	48 89 d9             	mov    rcx,rbx
638b:	48 89 c2             	mov    rdx,rax
638e:	48 89 ef             	mov    rdi,rbp
6391:	be 01 00 00 00       	mov    esi,0x1
6396:	31 c0                	xor    eax,eax
6398:	e8 d3 b3 ff ff       	call   1770 <__fprintf_chk@plt>
639d:	48 83 c4 20          	add    rsp,0x20
63a1:	48 83 c4 28          	add    rsp,0x28
63a5:	5b                   	pop    rbx
63a6:	5d                   	pop    rbp
63a7:	41 5c                	pop    r12
63a9:	41 5d                	pop    r13
63ab:	41 5e                	pop    r14
63ad:	41 5f                	pop    r15
63af:	c3                   	ret
63b0:	4c 8b 4b 10          	mov    r9,QWORD PTR [rbx+0x10]
63b4:	4c 8b 6b 30          	mov    r13,QWORD PTR [rbx+0x30]
63b8:	48 8d 35 09 19 00 00 	lea    rsi,[rip+0x1909]        # 7cc8 <quoting_style_vals+0x208>
63bf:	4c 8b 63 28          	mov    r12,QWORD PTR [rbx+0x28]
63c3:	4c 8b 7b 20          	mov    r15,QWORD PTR [rbx+0x20]
63c7:	ba 05 00 00 00       	mov    edx,0x5
63cc:	4c 8b 73 18          	mov    r14,QWORD PTR [rbx+0x18]
63d0:	4c 8b 43 08          	mov    r8,QWORD PTR [rbx+0x8]
63d4:	31 ff                	xor    edi,edi
63d6:	4c 89 4c 24 08       	mov    QWORD PTR [rsp+0x8],r9
63db:	48 8b 1b             	mov    rbx,QWORD PTR [rbx]
63de:	4c 89 04 24          	mov    QWORD PTR [rsp],r8
63e2:	e8 69 b1 ff ff       	call   1550 <dcgettext@plt>
63e7:	41 55                	push   r13
63e9:	41 54                	push   r12
63eb:	41 57                	push   r15
63ed:	41 56                	push   r14
63ef:	4c 8b 4c 24 28       	mov    r9,QWORD PTR [rsp+0x28]
63f4:	eb 8d                	jmp    6383 <version_etc_arn+0x353>
63f6:	66 2e 0f 1f 84 00 00 	nop    WORD PTR cs:[rax+rax*1+0x0]
63fd:	00 00 00
6400:	4c 8b 53 40          	mov    r10,QWORD PTR [rbx+0x40]
6404:	4c 8b 4b 38          	mov    r9,QWORD PTR [rbx+0x38]
6408:	ba 05 00 00 00       	mov    edx,0x5
640d:	48 8b 43 10          	mov    rax,QWORD PTR [rbx+0x10]
6411:	4c 8b 43 08          	mov    r8,QWORD PTR [rbx+0x8]
6415:	48 8d 35 44 19 00 00 	lea    rsi,[rip+0x1944]        # 7d60 <quoting_style_vals+0x2a0>
641c:	4c 8b 6b 30          	mov    r13,QWORD PTR [rbx+0x30]
6420:	4c 8b 63 28          	mov    r12,QWORD PTR [rbx+0x28]
6424:	4c 8b 7b 20          	mov    r15,QWORD PTR [rbx+0x20]
6428:	4c 8b 73 18          	mov    r14,QWORD PTR [rbx+0x18]
642c:	4c 89 54 24 18       	mov    QWORD PTR [rsp+0x18],r10
6431:	4c 89 4c 24 10       	mov    QWORD PTR [rsp+0x10],r9
6436:	48 89 04 24          	mov    QWORD PTR [rsp],rax
643a:	4c 89 44 24 08       	mov    QWORD PTR [rsp+0x8],r8
643f:	48 8b 1b             	mov    rbx,QWORD PTR [rbx]
6442:	e9 8b fd ff ff       	jmp    61d2 <version_etc_arn+0x1a2>
6447:	66 0f 1f 84 00 00 00 	nop    WORD PTR [rax+rax*1+0x0]
644e:	00 00

0000000000006450 <version_etc_ar>:
6450:	45 31 c9             	xor    r9d,r9d
6453:	49 83 38 00          	cmp    QWORD PTR [r8],0x0
6457:	74 12                	je     646b <version_etc_ar+0x1b>
6459:	0f 1f 80 00 00 00 00 	nop    DWORD PTR [rax+0x0]
6460:	49 83 c1 01          	add    r9,0x1
6464:	4b 83 3c c8 00       	cmp    QWORD PTR [r8+r9*8],0x0
6469:	75 f5                	jne    6460 <version_etc_ar+0x10>
646b:	e9 c0 fb ff ff       	jmp    6030 <version_etc_arn>

0000000000006470 <version_etc_va>:
6470:	48 83 ec 68          	sub    rsp,0x68
6474:	4d 89 c2             	mov    r10,r8
6477:	45 31 c9             	xor    r9d,r9d
647a:	64 48 8b 04 25 28 00 	mov    rax,QWORD PTR fs:0x28
6481:	00 00
6483:	48 89 44 24 58       	mov    QWORD PTR [rsp+0x58],rax
6488:	31 c0                	xor    eax,eax
648a:	49 89 e0             	mov    r8,rsp
648d:	0f 1f 00             	nop    DWORD PTR [rax]
6490:	41 8b 02             	mov    eax,DWORD PTR [r10]
6493:	83 f8 2f             	cmp    eax,0x2f
6496:	77 42                	ja     64da <version_etc_va+0x6a>
6498:	41 89 c3             	mov    r11d,eax
649b:	4d 03 5a 10          	add    r11,QWORD PTR [r10+0x10]
649f:	83 c0 08             	add    eax,0x8
64a2:	41 89 02             	mov    DWORD PTR [r10],eax
64a5:	49 8b 03             	mov    rax,QWORD PTR [r11]
64a8:	48 85 c0             	test   rax,rax
64ab:	4b 89 04 c8          	mov    QWORD PTR [r8+r9*8],rax
64af:	74 0a                	je     64bb <version_etc_va+0x4b>
64b1:	49 83 c1 01          	add    r9,0x1
64b5:	49 83 f9 0a          	cmp    r9,0xa
64b9:	75 d5                	jne    6490 <version_etc_va+0x20>
64bb:	e8 70 fb ff ff       	call   6030 <version_etc_arn>
64c0:	48 8b 44 24 58       	mov    rax,QWORD PTR [rsp+0x58]
64c5:	64 48 33 04 25 28 00 	xor    rax,QWORD PTR fs:0x28
64cc:	00 00
64ce:	75 05                	jne    64d5 <version_etc_va+0x65>
64d0:	48 83 c4 68          	add    rsp,0x68
64d4:	c3                   	ret
64d5:	e8 b6 b0 ff ff       	call   1590 <__stack_chk_fail@plt>
64da:	4d 8b 5a 08          	mov    r11,QWORD PTR [r10+0x8]
64de:	49 8d 43 08          	lea    rax,[r11+0x8]
64e2:	49 89 42 08          	mov    QWORD PTR [r10+0x8],rax
64e6:	eb bd                	jmp    64a5 <version_etc_va+0x35>
64e8:	0f 1f 84 00 00 00 00 	nop    DWORD PTR [rax+rax*1+0x0]
64ef:	00

00000000000064f0 <version_etc>:
64f0:	55                   	push   rbp
64f1:	53                   	push   rbx
64f2:	41 ba 20 00 00 00    	mov    r10d,0x20
64f8:	45 31 db             	xor    r11d,r11d
64fb:	48 81 ec b8 00 00 00 	sub    rsp,0xb8
6502:	64 48 8b 04 25 28 00 	mov    rax,QWORD PTR fs:0x28
6509:	00 00
650b:	48 89 44 24 78       	mov    QWORD PTR [rsp+0x78],rax
6510:	31 c0                	xor    eax,eax
6512:	48 8d 84 24 d0 00 00 	lea    rax,[rsp+0xd0]
6519:	00
651a:	4c 89 84 24 a0 00 00 	mov    QWORD PTR [rsp+0xa0],r8
6521:	00
6522:	48 8d 9c 24 d0 00 00 	lea    rbx,[rsp+0xd0]
6529:	00
652a:	4c 8d 44 24 20       	lea    r8,[rsp+0x20]
652f:	4c 89 8c 24 a8 00 00 	mov    QWORD PTR [rsp+0xa8],r9
6536:	00
6537:	c7 44 24 08 20 00 00 	mov    DWORD PTR [rsp+0x8],0x20
653e:	00
653f:	48 89 44 24 10       	mov    QWORD PTR [rsp+0x10],rax
6544:	48 8d 84 24 80 00 00 	lea    rax,[rsp+0x80]
654b:	00
654c:	45 31 c9             	xor    r9d,r9d
654f:	48 89 44 24 18       	mov    QWORD PTR [rsp+0x18],rax
6554:	48 89 c5             	mov    rbp,rax
6557:	66 0f 1f 84 00 00 00 	nop    WORD PTR [rax+rax*1+0x0]
655e:	00 00
6560:	41 83 fa 2f          	cmp    r10d,0x2f
6564:	77 56                	ja     65bc <version_etc+0xcc>
6566:	44 89 d0             	mov    eax,r10d
6569:	41 bb 01 00 00 00    	mov    r11d,0x1
656f:	41 83 c2 08          	add    r10d,0x8
6573:	48 01 e8             	add    rax,rbp
6576:	48 8b 00             	mov    rax,QWORD PTR [rax]
6579:	48 85 c0             	test   rax,rax
657c:	4b 89 04 c8          	mov    QWORD PTR [r8+r9*8],rax
6580:	74 0a                	je     658c <version_etc+0x9c>
6582:	49 83 c1 01          	add    r9,0x1
6586:	49 83 f9 0a          	cmp    r9,0xa
658a:	75 d4                	jne    6560 <version_etc+0x70>
658c:	45 84 db             	test   r11b,r11b
658f:	75 24                	jne    65b5 <version_etc+0xc5>
6591:	e8 9a fa ff ff       	call   6030 <version_etc_arn>
6596:	48 8b 44 24 78       	mov    rax,QWORD PTR [rsp+0x78]
659b:	64 48 33 04 25 28 00 	xor    rax,QWORD PTR fs:0x28
65a2:	00 00
65a4:	75 0a                	jne    65b0 <version_etc+0xc0>
65a6:	48 81 c4 b8 00 00 00 	add    rsp,0xb8
65ad:	5b                   	pop    rbx
65ae:	5d                   	pop    rbp
65af:	c3                   	ret
65b0:	e8 db af ff ff       	call   1590 <__stack_chk_fail@plt>
65b5:	44 89 54 24 08       	mov    DWORD PTR [rsp+0x8],r10d
65ba:	eb d5                	jmp    6591 <version_etc+0xa1>
65bc:	48 89 d8             	mov    rax,rbx
65bf:	48 83 c3 08          	add    rbx,0x8
65c3:	eb b1                	jmp    6576 <version_etc+0x86>
65c5:	90                   	nop
65c6:	66 2e 0f 1f 84 00 00 	nop    WORD PTR cs:[rax+rax*1+0x0]
65cd:	00 00 00

00000000000065d0 <emit_bug_reporting_address>:
65d0:	53                   	push   rbx
65d1:	48 8d 35 6a 15 00 00 	lea    rsi,[rip+0x156a]        # 7b42 <quoting_style_vals+0x82>
65d8:	ba 05 00 00 00       	mov    edx,0x5
65dd:	31 ff                	xor    edi,edi
65df:	e8 6c af ff ff       	call   1550 <dcgettext@plt>
65e4:	48 8d 15 6c 15 00 00 	lea    rdx,[rip+0x156c]        # 7b57 <quoting_style_vals+0x97>
65eb:	48 89 c6             	mov    rsi,rax
65ee:	bf 01 00 00 00       	mov    edi,0x1
65f3:	31 c0                	xor    eax,eax
65f5:	e8 06 b1 ff ff       	call   1700 <__printf_chk@plt>
65fa:	48 8d 35 6c 15 00 00 	lea    rsi,[rip+0x156c]        # 7b6d <quoting_style_vals+0xad>
6601:	ba 05 00 00 00       	mov    edx,0x5
6606:	31 ff                	xor    edi,edi
6608:	e8 43 af ff ff       	call   1550 <dcgettext@plt>
660d:	48 8d 0d 24 0e 00 00 	lea    rcx,[rip+0xe24]        # 7438 <_IO_stdin_used+0x4f8>
6614:	48 8d 15 b7 09 00 00 	lea    rdx,[rip+0x9b7]        # 6fd2 <_IO_stdin_used+0x92>
661b:	48 89 c6             	mov    rsi,rax
661e:	bf 01 00 00 00       	mov    edi,0x1
6623:	31 c0                	xor    eax,eax
6625:	e8 d6 b0 ff ff       	call   1700 <__printf_chk@plt>
662a:	48 8b 1d 77 3a 20 00 	mov    rbx,QWORD PTR [rip+0x203a77]        # 20a0a8 <stdout@@GLIBC_2.2.5>
6631:	48 8d 35 68 17 00 00 	lea    rsi,[rip+0x1768]        # 7da0 <quoting_style_vals+0x2e0>
6638:	31 ff                	xor    edi,edi
663a:	ba 05 00 00 00       	mov    edx,0x5
663f:	e8 0c af ff ff       	call   1550 <dcgettext@plt>
6644:	48 89 de             	mov    rsi,rbx
6647:	48 89 c7             	mov    rdi,rax
664a:	5b                   	pop    rbx
664b:	e9 f0 af ff ff       	jmp    1640 <fputs_unlocked@plt>

0000000000006650 <xmalloc>:
6650:	53                   	push   rbx
6651:	48 89 fb             	mov    rbx,rdi
6654:	e8 47 b0 ff ff       	call   16a0 <malloc@plt>
6659:	48 85 c0             	test   rax,rax
665c:	75 05                	jne    6663 <xmalloc+0x13>
665e:	48 85 db             	test   rbx,rbx
6661:	75 02                	jne    6665 <xmalloc+0x15>
6663:	5b                   	pop    rbx
6664:	c3                   	ret
6665:	e8 36 02 00 00       	call   68a0 <xalloc_die>
666a:	66 0f 1f 44 00 00    	nop    WORD PTR [rax+rax*1+0x0]

0000000000006670 <xnmalloc>:
6670:	48 89 f8             	mov    rax,rdi
6673:	48 f7 e6             	mul    rsi
6676:	48 89 c7             	mov    rdi,rax
6679:	0f 90 c0             	seto   al
667c:	48 85 ff             	test   rdi,rdi
667f:	78 0a                	js     668b <xnmalloc+0x1b>
6681:	0f b6 c0             	movzx  eax,al
6684:	48 85 c0             	test   rax,rax
6687:	75 02                	jne    668b <xnmalloc+0x1b>
6689:	eb c5                	jmp    6650 <xmalloc>
668b:	48 83 ec 08          	sub    rsp,0x8
668f:	e8 0c 02 00 00       	call   68a0 <xalloc_die>
6694:	66 90                	xchg   ax,ax
6696:	66 2e 0f 1f 84 00 00 	nop    WORD PTR cs:[rax+rax*1+0x0]
669d:	00 00 00

00000000000066a0 <xcharalloc>:
66a0:	eb ae                	jmp    6650 <xmalloc>
66a2:	0f 1f 40 00          	nop    DWORD PTR [rax+0x0]
66a6:	66 2e 0f 1f 84 00 00 	nop    WORD PTR cs:[rax+rax*1+0x0]
66ad:	00 00 00

00000000000066b0 <xrealloc>:
66b0:	48 85 f6             	test   rsi,rsi
66b3:	53                   	push   rbx
66b4:	48 89 f3             	mov    rbx,rsi
66b7:	75 05                	jne    66be <xrealloc+0xe>
66b9:	48 85 ff             	test   rdi,rdi
66bc:	75 1a                	jne    66d8 <xrealloc+0x28>
66be:	48 89 de             	mov    rsi,rbx
66c1:	e8 1a b0 ff ff       	call   16e0 <realloc@plt>
66c6:	48 85 c0             	test   rax,rax
66c9:	75 05                	jne    66d0 <xrealloc+0x20>
66cb:	48 85 db             	test   rbx,rbx
66ce:	75 11                	jne    66e1 <xrealloc+0x31>
66d0:	5b                   	pop    rbx
66d1:	c3                   	ret
66d2:	66 0f 1f 44 00 00    	nop    WORD PTR [rax+rax*1+0x0]
66d8:	e8 d3 ad ff ff       	call   14b0 <free@plt>
66dd:	31 c0                	xor    eax,eax
66df:	5b                   	pop    rbx
66e0:	c3                   	ret
66e1:	e8 ba 01 00 00       	call   68a0 <xalloc_die>
66e6:	66 2e 0f 1f 84 00 00 	nop    WORD PTR cs:[rax+rax*1+0x0]
66ed:	00 00 00

00000000000066f0 <xnrealloc>:
66f0:	48 89 f0             	mov    rax,rsi
66f3:	48 f7 e2             	mul    rdx
66f6:	48 89 c6             	mov    rsi,rax
66f9:	0f 90 c0             	seto   al
66fc:	48 85 f6             	test   rsi,rsi
66ff:	78 0a                	js     670b <xnrealloc+0x1b>
6701:	0f b6 c0             	movzx  eax,al
6704:	48 85 c0             	test   rax,rax
6707:	75 02                	jne    670b <xnrealloc+0x1b>
6709:	eb a5                	jmp    66b0 <xrealloc>
670b:	48 83 ec 08          	sub    rsp,0x8
670f:	e8 8c 01 00 00       	call   68a0 <xalloc_die>
6714:	66 90                	xchg   ax,ax
6716:	66 2e 0f 1f 84 00 00 	nop    WORD PTR cs:[rax+rax*1+0x0]
671d:	00 00 00

0000000000006720 <x2nrealloc>:
6720:	48 85 ff             	test   rdi,rdi
6723:	49 89 d1             	mov    r9,rdx
6726:	48 8b 0e             	mov    rcx,QWORD PTR [rsi]
6729:	74 35                	je     6760 <x2nrealloc+0x40>
672b:	31 d2                	xor    edx,edx
672d:	48 b8 54 55 55 55 55 	movabs rax,0x5555555555555554
6734:	55 55 55
6737:	49 f7 f1             	div    r9
673a:	48 39 c8             	cmp    rax,rcx
673d:	76 3c                	jbe    677b <x2nrealloc+0x5b>
673f:	48 89 c8             	mov    rax,rcx
6742:	48 d1 e8             	shr    rax,1
6745:	48 8d 4c 08 01       	lea    rcx,[rax+rcx*1+0x1]
674a:	48 89 0e             	mov    QWORD PTR [rsi],rcx
674d:	49 0f af c9          	imul   rcx,r9
6751:	48 89 ce             	mov    rsi,rcx
6754:	e9 57 ff ff ff       	jmp    66b0 <xrealloc>
6759:	0f 1f 80 00 00 00 00 	nop    DWORD PTR [rax+0x0]
6760:	48 85 c9             	test   rcx,rcx
6763:	74 23                	je     6788 <x2nrealloc+0x68>
6765:	48 89 c8             	mov    rax,rcx
6768:	49 f7 e1             	mul    r9
676b:	0f 90 c2             	seto   dl
676e:	48 85 c0             	test   rax,rax
6771:	0f b6 d2             	movzx  edx,dl
6774:	78 05                	js     677b <x2nrealloc+0x5b>
6776:	48 85 d2             	test   rdx,rdx
6779:	74 cf                	je     674a <x2nrealloc+0x2a>
677b:	48 83 ec 08          	sub    rsp,0x8
677f:	e8 1c 01 00 00       	call   68a0 <xalloc_die>
6784:	0f 1f 40 00          	nop    DWORD PTR [rax+0x0]
6788:	31 d2                	xor    edx,edx
678a:	b8 80 00 00 00       	mov    eax,0x80
678f:	45 31 c0             	xor    r8d,r8d
6792:	49 f7 f1             	div    r9
6795:	48 85 c0             	test   rax,rax
6798:	41 0f 94 c0          	sete   r8b
679c:	49 8d 0c 00          	lea    rcx,[r8+rax*1]
67a0:	eb c3                	jmp    6765 <x2nrealloc+0x45>
67a2:	0f 1f 40 00          	nop    DWORD PTR [rax+0x0]
67a6:	66 2e 0f 1f 84 00 00 	nop    WORD PTR cs:[rax+rax*1+0x0]
67ad:	00 00 00

00000000000067b0 <x2realloc>:
67b0:	48 85 ff             	test   rdi,rdi
67b3:	48 8b 06             	mov    rax,QWORD PTR [rsi]
67b6:	74 28                	je     67e0 <x2realloc+0x30>
67b8:	48 ba 53 55 55 55 55 	movabs rdx,0x5555555555555553
67bf:	55 55 55
67c2:	48 39 d0             	cmp    rax,rdx
67c5:	77 2a                	ja     67f1 <x2realloc+0x41>
67c7:	48 89 c2             	mov    rdx,rax
67ca:	48 d1 ea             	shr    rdx,1
67cd:	48 8d 44 02 01       	lea    rax,[rdx+rax*1+0x1]
67d2:	48 89 06             	mov    QWORD PTR [rsi],rax
67d5:	48 89 c6             	mov    rsi,rax
67d8:	e9 d3 fe ff ff       	jmp    66b0 <xrealloc>
67dd:	0f 1f 00             	nop    DWORD PTR [rax]
67e0:	48 85 c0             	test   rax,rax
67e3:	ba 80 00 00 00       	mov    edx,0x80
67e8:	48 0f 44 c2          	cmove  rax,rdx
67ec:	48 85 c0             	test   rax,rax
67ef:	79 e1                	jns    67d2 <x2realloc+0x22>
67f1:	48 83 ec 08          	sub    rsp,0x8
67f5:	e8 a6 00 00 00       	call   68a0 <xalloc_die>
67fa:	66 0f 1f 44 00 00    	nop    WORD PTR [rax+rax*1+0x0]

0000000000006800 <xzalloc>:
6800:	53                   	push   rbx
6801:	48 89 fb             	mov    rbx,rdi
6804:	e8 47 fe ff ff       	call   6650 <xmalloc>
6809:	48 89 da             	mov    rdx,rbx
680c:	31 f6                	xor    esi,esi
680e:	48 89 c7             	mov    rdi,rax
6811:	5b                   	pop    rbx
6812:	e9 e9 ad ff ff       	jmp    1600 <memset@plt>
6817:	66 0f 1f 84 00 00 00 	nop    WORD PTR [rax+rax*1+0x0]
681e:	00 00

0000000000006820 <xcalloc>:
6820:	48 89 f8             	mov    rax,rdi
6823:	48 83 ec 08          	sub    rsp,0x8
6827:	48 f7 e6             	mul    rsi
682a:	0f 90 c2             	seto   dl
682d:	48 85 c0             	test   rax,rax
6830:	78 17                	js     6849 <xcalloc+0x29>
6832:	0f b6 d2             	movzx  edx,dl
6835:	48 85 d2             	test   rdx,rdx
6838:	75 0f                	jne    6849 <xcalloc+0x29>
683a:	e8 11 ae ff ff       	call   1650 <calloc@plt>
683f:	48 85 c0             	test   rax,rax
6842:	74 05                	je     6849 <xcalloc+0x29>
6844:	48 83 c4 08          	add    rsp,0x8
6848:	c3                   	ret
6849:	e8 52 00 00 00       	call   68a0 <xalloc_die>
684e:	66 90                	xchg   ax,ax

0000000000006850 <xmemdup>:
6850:	55                   	push   rbp
6851:	53                   	push   rbx
6852:	48 89 fd             	mov    rbp,rdi
6855:	48 89 f7             	mov    rdi,rsi
6858:	48 89 f3             	mov    rbx,rsi
685b:	48 83 ec 08          	sub    rsp,0x8
685f:	e8 ec fd ff ff       	call   6650 <xmalloc>
6864:	48 83 c4 08          	add    rsp,0x8
6868:	48 89 da             	mov    rdx,rbx
686b:	48 89 ee             	mov    rsi,rbp
686e:	5b                   	pop    rbx
686f:	5d                   	pop    rbp
6870:	48 89 c7             	mov    rdi,rax
6873:	e9 f8 ad ff ff       	jmp    1670 <memcpy@plt>
6878:	0f 1f 84 00 00 00 00 	nop    DWORD PTR [rax+rax*1+0x0]
687f:	00

0000000000006880 <xstrdup>:
6880:	53                   	push   rbx
6881:	48 89 fb             	mov    rbx,rdi
6884:	e8 e7 ac ff ff       	call   1570 <strlen@plt>
6889:	48 89 df             	mov    rdi,rbx
688c:	48 8d 70 01          	lea    rsi,[rax+0x1]
6890:	5b                   	pop    rbx
6891:	eb bd                	jmp    6850 <xmemdup>
6893:	66 2e 0f 1f 84 00 00 	nop    WORD PTR cs:[rax+rax*1+0x0]
689a:	00 00 00
689d:	0f 1f 00             	nop    DWORD PTR [rax]

00000000000068a0 <xalloc_die>:
68a0:	48 8d 35 a8 15 00 00 	lea    rsi,[rip+0x15a8]        # 7e4f <version_etc_copyright+0x2f>
68a7:	48 83 ec 08          	sub    rsp,0x8
68ab:	ba 05 00 00 00       	mov    edx,0x5
68b0:	31 ff                	xor    edi,edi
68b2:	e8 99 ac ff ff       	call   1550 <dcgettext@plt>
68b7:	8b 3d 63 37 20 00    	mov    edi,DWORD PTR [rip+0x203763]        # 20a020 <exit_failure>
68bd:	48 8d 15 49 0c 00 00 	lea    rdx,[rip+0xc49]        # 750d <_IO_stdin_used+0x5cd>
68c4:	48 89 c1             	mov    rcx,rax
68c7:	31 f6                	xor    esi,esi
68c9:	31 c0                	xor    eax,eax
68cb:	e8 50 ae ff ff       	call   1720 <error@plt>
68d0:	e8 eb ab ff ff       	call   14c0 <abort@plt>
68d5:	66 2e 0f 1f 84 00 00 	nop    WORD PTR cs:[rax+rax*1+0x0]
68dc:	00 00 00
68df:	90                   	nop

00000000000068e0 <xgetcwd>:
68e0:	53                   	push   rbx
68e1:	31 f6                	xor    esi,esi
68e3:	31 ff                	xor    edi,edi
68e5:	e8 26 ad ff ff       	call   1610 <getcwd@plt>
68ea:	48 85 c0             	test   rax,rax
68ed:	48 89 c3             	mov    rbx,rax
68f0:	74 0e                	je     6900 <xgetcwd+0x20>
68f2:	48 89 d8             	mov    rax,rbx
68f5:	5b                   	pop    rbx
68f6:	c3                   	ret
68f7:	66 0f 1f 84 00 00 00 	nop    WORD PTR [rax+rax*1+0x0]
68fe:	00 00
6900:	e8 cb ab ff ff       	call   14d0 <__errno_location@plt>
6905:	83 38 0c             	cmp    DWORD PTR [rax],0xc
6908:	75 e8                	jne    68f2 <xgetcwd+0x12>
690a:	e8 91 ff ff ff       	call   68a0 <xalloc_die>
690f:	90                   	nop

0000000000006910 <rpl_mbrtowc>:
6910:	41 55                	push   r13
6912:	41 54                	push   r12
6914:	49 89 f5             	mov    r13,rsi
6917:	55                   	push   rbp
6918:	53                   	push   rbx
6919:	48 89 fb             	mov    rbx,rdi
691c:	49 89 d4             	mov    r12,rdx
691f:	48 83 ec 18          	sub    rsp,0x18
6923:	64 48 8b 04 25 28 00 	mov    rax,QWORD PTR fs:0x28
692a:	00 00
692c:	48 89 44 24 08       	mov    QWORD PTR [rsp+0x8],rax
6931:	31 c0                	xor    eax,eax
6933:	48 8d 44 24 04       	lea    rax,[rsp+0x4]
6938:	48 85 ff             	test   rdi,rdi
693b:	48 0f 44 d8          	cmove  rbx,rax
693f:	48 89 df             	mov    rdi,rbx
6942:	e8 69 ac ff ff       	call   15b0 <mbrtowc@plt>
6947:	48 83 f8 fd          	cmp    rax,0xfffffffffffffffd
694b:	48 89 c5             	mov    rbp,rax
694e:	76 20                	jbe    6970 <rpl_mbrtowc+0x60>
6950:	4d 85 e4             	test   r12,r12
6953:	74 1b                	je     6970 <rpl_mbrtowc+0x60>
6955:	31 ff                	xor    edi,edi
6957:	e8 44 03 00 00       	call   6ca0 <hard_locale>
695c:	84 c0                	test   al,al
695e:	75 10                	jne    6970 <rpl_mbrtowc+0x60>
6960:	41 0f b6 45 00       	movzx  eax,BYTE PTR [r13+0x0]
6965:	bd 01 00 00 00       	mov    ebp,0x1
696a:	89 03                	mov    DWORD PTR [rbx],eax
696c:	0f 1f 40 00          	nop    DWORD PTR [rax+0x0]
6970:	48 8b 54 24 08       	mov    rdx,QWORD PTR [rsp+0x8]
6975:	64 48 33 14 25 28 00 	xor    rdx,QWORD PTR fs:0x28
697c:	00 00
697e:	48 89 e8             	mov    rax,rbp
6981:	75 0b                	jne    698e <rpl_mbrtowc+0x7e>
6983:	48 83 c4 18          	add    rsp,0x18
6987:	5b                   	pop    rbx
6988:	5d                   	pop    rbp
6989:	41 5c                	pop    r12
698b:	41 5d                	pop    r13
698d:	c3                   	ret
698e:	e8 fd ab ff ff       	call   1590 <__stack_chk_fail@plt>
6993:	66 2e 0f 1f 84 00 00 	nop    WORD PTR cs:[rax+rax*1+0x0]
699a:	00 00 00
699d:	0f 1f 00             	nop    DWORD PTR [rax]

00000000000069a0 <areadlink_with_size>:
69a0:	41 57                	push   r15
69a2:	41 56                	push   r14
69a4:	b8 01 04 00 00       	mov    eax,0x401
69a9:	41 55                	push   r13
69ab:	41 54                	push   r12
69ad:	49 89 fd             	mov    r13,rdi
69b0:	55                   	push   rbp
69b1:	53                   	push   rbx
69b2:	48 8d 5e 01          	lea    rbx,[rsi+0x1]
69b6:	49 be ff ff ff ff ff 	movabs r14,0x3fffffffffffffff
69bd:	ff ff 3f
69c0:	49 bf fe ff ff ff ff 	movabs r15,0x7ffffffffffffffe
69c7:	ff ff 7f
69ca:	48 83 ec 08          	sub    rsp,0x8
69ce:	48 81 fe 01 04 00 00 	cmp    rsi,0x401
69d5:	48 0f 43 d8          	cmovae rbx,rax
69d9:	0f 1f 80 00 00 00 00 	nop    DWORD PTR [rax+0x0]
69e0:	48 89 df             	mov    rdi,rbx
69e3:	e8 b8 ac ff ff       	call   16a0 <malloc@plt>
69e8:	48 85 c0             	test   rax,rax
69eb:	48 89 c5             	mov    rbp,rax
69ee:	74 3b                	je     6a2b <areadlink_with_size+0x8b>
69f0:	48 89 da             	mov    rdx,rbx
69f3:	48 89 c6             	mov    rsi,rax
69f6:	4c 89 ef             	mov    rdi,r13
69f9:	e8 12 ab ff ff       	call   1510 <readlink@plt>
69fe:	48 85 c0             	test   rax,rax
6a01:	49 89 c4             	mov    r12,rax
6a04:	78 52                	js     6a58 <areadlink_with_size+0xb8>
6a06:	4c 39 e3             	cmp    rbx,r12
6a09:	77 65                	ja     6a70 <areadlink_with_size+0xd0>
6a0b:	48 89 ef             	mov    rdi,rbp
6a0e:	e8 9d aa ff ff       	call   14b0 <free@plt>
6a13:	4c 39 f3             	cmp    rbx,r14
6a16:	77 28                	ja     6a40 <areadlink_with_size+0xa0>
6a18:	48 01 db             	add    rbx,rbx
6a1b:	48 89 df             	mov    rdi,rbx
6a1e:	e8 7d ac ff ff       	call   16a0 <malloc@plt>
6a23:	48 85 c0             	test   rax,rax
6a26:	48 89 c5             	mov    rbp,rax
6a29:	75 c5                	jne    69f0 <areadlink_with_size+0x50>
6a2b:	48 83 c4 08          	add    rsp,0x8
6a2f:	48 89 e8             	mov    rax,rbp
6a32:	5b                   	pop    rbx
6a33:	5d                   	pop    rbp
6a34:	41 5c                	pop    r12
6a36:	41 5d                	pop    r13
6a38:	41 5e                	pop    r14
6a3a:	41 5f                	pop    r15
6a3c:	c3                   	ret
6a3d:	0f 1f 00             	nop    DWORD PTR [rax]
6a40:	4c 39 fb             	cmp    rbx,r15
6a43:	77 3b                	ja     6a80 <areadlink_with_size+0xe0>
6a45:	48 bb ff ff ff ff ff 	movabs rbx,0x7fffffffffffffff
6a4c:	ff ff 7f
6a4f:	eb 8f                	jmp    69e0 <areadlink_with_size+0x40>
6a51:	0f 1f 80 00 00 00 00 	nop    DWORD PTR [rax+0x0]
6a58:	e8 73 aa ff ff       	call   14d0 <__errno_location@plt>
6a5d:	83 38 22             	cmp    DWORD PTR [rax],0x22
6a60:	74 a4                	je     6a06 <areadlink_with_size+0x66>
6a62:	48 89 ef             	mov    rdi,rbp
6a65:	31 ed                	xor    ebp,ebp
6a67:	e8 44 aa ff ff       	call   14b0 <free@plt>
6a6c:	eb bd                	jmp    6a2b <areadlink_with_size+0x8b>
6a6e:	66 90                	xchg   ax,ax
6a70:	42 c6 44 25 00 00    	mov    BYTE PTR [rbp+r12*1+0x0],0x0
6a76:	eb b3                	jmp    6a2b <areadlink_with_size+0x8b>
6a78:	0f 1f 84 00 00 00 00 	nop    DWORD PTR [rax+rax*1+0x0]
6a7f:	00
6a80:	e8 4b aa ff ff       	call   14d0 <__errno_location@plt>
6a85:	31 ed                	xor    ebp,ebp
6a87:	c7 00 0c 00 00 00    	mov    DWORD PTR [rax],0xc
6a8d:	eb 9c                	jmp    6a2b <areadlink_with_size+0x8b>
6a8f:	90                   	nop

0000000000006a90 <close_stream>:
6a90:	41 54                	push   r12
6a92:	55                   	push   rbp
6a93:	48 89 fd             	mov    rbp,rdi
6a96:	53                   	push   rbx
6a97:	e8 64 aa ff ff       	call   1500 <__fpending@plt>
6a9c:	8b 5d 00             	mov    ebx,DWORD PTR [rbp+0x0]
6a9f:	48 89 ef             	mov    rdi,rbp
6aa2:	49 89 c4             	mov    r12,rax
6aa5:	e8 d6 02 00 00       	call   6d80 <rpl_fclose>
6aaa:	83 e3 20             	and    ebx,0x20
6aad:	85 db                	test   ebx,ebx
6aaf:	75 17                	jne    6ac8 <close_stream+0x38>
6ab1:	85 c0                	test   eax,eax
6ab3:	74 0a                	je     6abf <close_stream+0x2f>
6ab5:	4d 85 e4             	test   r12,r12
6ab8:	b8 ff ff ff ff       	mov    eax,0xffffffff
6abd:	74 39                	je     6af8 <close_stream+0x68>
6abf:	5b                   	pop    rbx
6ac0:	5d                   	pop    rbp
6ac1:	41 5c                	pop    r12
6ac3:	c3                   	ret
6ac4:	0f 1f 40 00          	nop    DWORD PTR [rax+0x0]
6ac8:	85 c0                	test   eax,eax
6aca:	75 1c                	jne    6ae8 <close_stream+0x58>
6acc:	e8 ff a9 ff ff       	call   14d0 <__errno_location@plt>
6ad1:	c7 00 00 00 00 00    	mov    DWORD PTR [rax],0x0
6ad7:	b8 ff ff ff ff       	mov    eax,0xffffffff
6adc:	5b                   	pop    rbx
6add:	5d                   	pop    rbp
6ade:	41 5c                	pop    r12
6ae0:	c3                   	ret
6ae1:	0f 1f 80 00 00 00 00 	nop    DWORD PTR [rax+0x0]
6ae8:	5b                   	pop    rbx
6ae9:	b8 ff ff ff ff       	mov    eax,0xffffffff
6aee:	5d                   	pop    rbp
6aef:	41 5c                	pop    r12
6af1:	c3                   	ret
6af2:	66 0f 1f 44 00 00    	nop    WORD PTR [rax+rax*1+0x0]
6af8:	e8 d3 a9 ff ff       	call   14d0 <__errno_location@plt>
6afd:	83 38 09             	cmp    DWORD PTR [rax],0x9
6b00:	5b                   	pop    rbx
6b01:	5d                   	pop    rbp
6b02:	41 5c                	pop    r12
6b04:	0f 95 c0             	setne  al
6b07:	0f b6 c0             	movzx  eax,al
6b0a:	f7 d8                	neg    eax
6b0c:	c3                   	ret
6b0d:	0f 1f 00             	nop    DWORD PTR [rax]

0000000000006b10 <dir_name>:
6b10:	48 83 ec 08          	sub    rsp,0x8
6b14:	e8 77 00 00 00       	call   6b90 <mdir_name>
6b19:	48 85 c0             	test   rax,rax
6b1c:	74 05                	je     6b23 <dir_name+0x13>
6b1e:	48 83 c4 08          	add    rsp,0x8
6b22:	c3                   	ret
6b23:	e8 78 fd ff ff       	call   68a0 <xalloc_die>
6b28:	0f 1f 84 00 00 00 00 	nop    DWORD PTR [rax+rax*1+0x0]
6b2f:	00

0000000000006b30 <dir_len>:
6b30:	55                   	push   rbp
6b31:	53                   	push   rbx
6b32:	31 ed                	xor    ebp,ebp
6b34:	48 89 fb             	mov    rbx,rdi
6b37:	48 83 ec 08          	sub    rsp,0x8
6b3b:	80 3f 2f             	cmp    BYTE PTR [rdi],0x2f
6b3e:	40 0f 94 c5          	sete   bpl
6b42:	e8 a9 00 00 00       	call   6bf0 <last_component>
6b47:	48 89 c1             	mov    rcx,rax
6b4a:	48 29 d9             	sub    rcx,rbx
6b4d:	48 39 e9             	cmp    rcx,rbp
6b50:	76 2e                	jbe    6b80 <dir_len+0x50>
6b52:	80 78 ff 2f          	cmp    BYTE PTR [rax-0x1],0x2f
6b56:	48 8d 51 ff          	lea    rdx,[rcx-0x1]
6b5a:	74 12                	je     6b6e <dir_len+0x3e>
6b5c:	eb 22                	jmp    6b80 <dir_len+0x50>
6b5e:	66 90                	xchg   ax,ax
6b60:	80 7c 13 ff 2f       	cmp    BYTE PTR [rbx+rdx*1-0x1],0x2f
6b65:	48 8d 42 ff          	lea    rax,[rdx-0x1]
6b69:	75 08                	jne    6b73 <dir_len+0x43>
6b6b:	48 89 c2             	mov    rdx,rax
6b6e:	48 39 d5             	cmp    rbp,rdx
6b71:	75 ed                	jne    6b60 <dir_len+0x30>
6b73:	48 83 c4 08          	add    rsp,0x8
6b77:	48 89 d0             	mov    rax,rdx
6b7a:	5b                   	pop    rbx
6b7b:	5d                   	pop    rbp
6b7c:	c3                   	ret
6b7d:	0f 1f 00             	nop    DWORD PTR [rax]
6b80:	48 83 c4 08          	add    rsp,0x8
6b84:	48 89 ca             	mov    rdx,rcx
6b87:	48 89 d0             	mov    rax,rdx
6b8a:	5b                   	pop    rbx
6b8b:	5d                   	pop    rbp
6b8c:	c3                   	ret
6b8d:	0f 1f 00             	nop    DWORD PTR [rax]

0000000000006b90 <mdir_name>:
6b90:	55                   	push   rbp
6b91:	53                   	push   rbx
6b92:	48 89 fd             	mov    rbp,rdi
6b95:	48 83 ec 08          	sub    rsp,0x8
6b99:	e8 92 ff ff ff       	call   6b30 <dir_len>
6b9e:	48 85 c0             	test   rax,rax
6ba1:	48 89 c3             	mov    rbx,rax
6ba4:	0f 94 c0             	sete   al
6ba7:	0f b6 c0             	movzx  eax,al
6baa:	48 8d 7c 03 01       	lea    rdi,[rbx+rax*1+0x1]
6baf:	e8 ec aa ff ff       	call   16a0 <malloc@plt>
6bb4:	48 85 c0             	test   rax,rax
6bb7:	48 89 c1             	mov    rcx,rax
6bba:	74 1a                	je     6bd6 <mdir_name+0x46>
6bbc:	48 89 da             	mov    rdx,rbx
6bbf:	48 89 ee             	mov    rsi,rbp
6bc2:	48 89 c7             	mov    rdi,rax
6bc5:	e8 a6 aa ff ff       	call   1670 <memcpy@plt>
6bca:	48 85 db             	test   rbx,rbx
6bcd:	48 89 c1             	mov    rcx,rax
6bd0:	74 0e                	je     6be0 <mdir_name+0x50>
6bd2:	c6 04 19 00          	mov    BYTE PTR [rcx+rbx*1],0x0
6bd6:	48 83 c4 08          	add    rsp,0x8
6bda:	48 89 c8             	mov    rax,rcx
6bdd:	5b                   	pop    rbx
6bde:	5d                   	pop    rbp
6bdf:	c3                   	ret
6be0:	c6 00 2e             	mov    BYTE PTR [rax],0x2e
6be3:	bb 01 00 00 00       	mov    ebx,0x1
6be8:	eb e8                	jmp    6bd2 <mdir_name+0x42>
6bea:	66 0f 1f 44 00 00    	nop    WORD PTR [rax+rax*1+0x0]

0000000000006bf0 <last_component>:
6bf0:	0f b6 17             	movzx  edx,BYTE PTR [rdi]
6bf3:	48 89 f8             	mov    rax,rdi
6bf6:	80 fa 2f             	cmp    dl,0x2f
6bf9:	75 11                	jne    6c0c <last_component+0x1c>
6bfb:	0f 1f 44 00 00       	nop    DWORD PTR [rax+rax*1+0x0]
6c00:	48 83 c0 01          	add    rax,0x1
6c04:	0f b6 10             	movzx  edx,BYTE PTR [rax]
6c07:	80 fa 2f             	cmp    dl,0x2f
6c0a:	74 f4                	je     6c00 <last_component+0x10>
6c0c:	84 d2                	test   dl,dl
6c0e:	74 3a                	je     6c4a <last_component+0x5a>
6c10:	48 89 c1             	mov    rcx,rax
6c13:	31 f6                	xor    esi,esi
6c15:	eb 1e                	jmp    6c35 <last_component+0x45>
6c17:	66 0f 1f 84 00 00 00 	nop    WORD PTR [rax+rax*1+0x0]
6c1e:	00 00
6c20:	40 84 f6             	test   sil,sil
6c23:	74 05                	je     6c2a <last_component+0x3a>
6c25:	48 89 c8             	mov    rax,rcx
6c28:	31 f6                	xor    esi,esi
6c2a:	48 83 c1 01          	add    rcx,0x1
6c2e:	0f b6 11             	movzx  edx,BYTE PTR [rcx]
6c31:	84 d2                	test   dl,dl
6c33:	74 15                	je     6c4a <last_component+0x5a>
6c35:	80 fa 2f             	cmp    dl,0x2f
6c38:	75 e6                	jne    6c20 <last_component+0x30>
6c3a:	48 83 c1 01          	add    rcx,0x1
6c3e:	0f b6 11             	movzx  edx,BYTE PTR [rcx]
6c41:	be 01 00 00 00       	mov    esi,0x1
6c46:	84 d2                	test   dl,dl
6c48:	75 eb                	jne    6c35 <last_component+0x45>
6c4a:	f3 c3                	repz ret
6c4c:	0f 1f 40 00          	nop    DWORD PTR [rax+0x0]

0000000000006c50 <base_len>:
6c50:	53                   	push   rbx
6c51:	48 89 fb             	mov    rbx,rdi
6c54:	e8 17 a9 ff ff       	call   1570 <strlen@plt>
6c59:	48 83 f8 01          	cmp    rax,0x1
6c5d:	76 0b                	jbe    6c6a <base_len+0x1a>
6c5f:	80 7c 03 ff 2f       	cmp    BYTE PTR [rbx+rax*1-0x1],0x2f
6c64:	48 8d 50 ff          	lea    rdx,[rax-0x1]
6c68:	74 0e                	je     6c78 <base_len+0x28>
6c6a:	5b                   	pop    rbx
6c6b:	c3                   	ret
6c6c:	0f 1f 40 00          	nop    DWORD PTR [rax+0x0]
6c70:	48 89 c2             	mov    rdx,rax
6c73:	0f 1f 44 00 00       	nop    DWORD PTR [rax+rax*1+0x0]
6c78:	48 83 fa 01          	cmp    rdx,0x1
6c7c:	74 12                	je     6c90 <base_len+0x40>
6c7e:	80 7c 13 ff 2f       	cmp    BYTE PTR [rbx+rdx*1-0x1],0x2f
6c83:	48 8d 42 ff          	lea    rax,[rdx-0x1]
6c87:	74 e7                	je     6c70 <base_len+0x20>
6c89:	48 89 d0             	mov    rax,rdx
6c8c:	5b                   	pop    rbx
6c8d:	c3                   	ret
6c8e:	66 90                	xchg   ax,ax
6c90:	b8 01 00 00 00       	mov    eax,0x1
6c95:	5b                   	pop    rbx
6c96:	c3                   	ret
6c97:	66 0f 1f 84 00 00 00 	nop    WORD PTR [rax+rax*1+0x0]
6c9e:	00 00

0000000000006ca0 <hard_locale>:
6ca0:	48 83 ec 08          	sub    rsp,0x8
6ca4:	31 f6                	xor    esi,esi
6ca6:	e8 45 aa ff ff       	call   16f0 <setlocale@plt>
6cab:	48 89 c2             	mov    rdx,rax
6cae:	b8 01 00 00 00       	mov    eax,0x1
6cb3:	48 85 d2             	test   rdx,rdx
6cb6:	74 1d                	je     6cd5 <hard_locale+0x35>
6cb8:	48 8d 3d a1 11 00 00 	lea    rdi,[rip+0x11a1]        # 7e60 <version_etc_copyright+0x40>
6cbf:	b9 02 00 00 00       	mov    ecx,0x2
6cc4:	48 89 d6             	mov    rsi,rdx
6cc7:	f3 a6                	repz cmps BYTE PTR ds:[rsi],BYTE PTR es:[rdi]
6cc9:	0f 97 c1             	seta   cl
6ccc:	80 d9 00             	sbb    cl,0x0
6ccf:	31 c0                	xor    eax,eax
6cd1:	84 c9                	test   cl,cl
6cd3:	75 0b                	jne    6ce0 <hard_locale+0x40>
6cd5:	48 83 c4 08          	add    rsp,0x8
6cd9:	c3                   	ret
6cda:	66 0f 1f 44 00 00    	nop    WORD PTR [rax+rax*1+0x0]
6ce0:	48 8d 3d 7b 11 00 00 	lea    rdi,[rip+0x117b]        # 7e62 <version_etc_copyright+0x42>
6ce7:	b9 06 00 00 00       	mov    ecx,0x6
6cec:	48 89 d6             	mov    rsi,rdx
6cef:	f3 a6                	repz cmps BYTE PTR ds:[rsi],BYTE PTR es:[rdi]
6cf1:	0f 97 c0             	seta   al
6cf4:	1c 00                	sbb    al,0x0
6cf6:	84 c0                	test   al,al
6cf8:	0f 95 c0             	setne  al
6cfb:	48 83 c4 08          	add    rsp,0x8
6cff:	c3                   	ret

0000000000006d00 <hash_pjw>:
6d00:	48 0f be 0f          	movsx  rcx,BYTE PTR [rdi]
6d04:	84 c9                	test   cl,cl
6d06:	74 28                	je     6d30 <hash_pjw+0x30>
6d08:	31 c0                	xor    eax,eax
6d0a:	66 0f 1f 44 00 00    	nop    WORD PTR [rax+rax*1+0x0]
6d10:	48 c1 c0 09          	rol    rax,0x9
6d14:	48 83 c7 01          	add    rdi,0x1
6d18:	48 01 c8             	add    rax,rcx
6d1b:	48 0f be 0f          	movsx  rcx,BYTE PTR [rdi]
6d1f:	84 c9                	test   cl,cl
6d21:	75 ed                	jne    6d10 <hash_pjw+0x10>
6d23:	31 d2                	xor    edx,edx
6d25:	48 f7 f6             	div    rsi
6d28:	48 89 d0             	mov    rax,rdx
6d2b:	c3                   	ret
6d2c:	0f 1f 40 00          	nop    DWORD PTR [rax+0x0]
6d30:	31 d2                	xor    edx,edx
6d32:	48 89 d0             	mov    rax,rdx
6d35:	c3                   	ret
6d36:	66 2e 0f 1f 84 00 00 	nop    WORD PTR cs:[rax+rax*1+0x0]
6d3d:	00 00 00

0000000000006d40 <locale_charset>:
6d40:	48 83 ec 08          	sub    rsp,0x8
6d44:	bf 0e 00 00 00       	mov    edi,0xe
6d49:	e8 72 a9 ff ff       	call   16c0 <nl_langinfo@plt>
6d4e:	48 85 c0             	test   rax,rax
6d51:	74 1d                	je     6d70 <locale_charset+0x30>
6d53:	80 38 00             	cmp    BYTE PTR [rax],0x0
6d56:	48 8d 15 0b 11 00 00 	lea    rdx,[rip+0x110b]        # 7e68 <version_etc_copyright+0x48>
6d5d:	48 0f 44 c2          	cmove  rax,rdx
6d61:	48 83 c4 08          	add    rsp,0x8
6d65:	c3                   	ret
6d66:	66 2e 0f 1f 84 00 00 	nop    WORD PTR cs:[rax+rax*1+0x0]
6d6d:	00 00 00
6d70:	48 8d 05 f1 10 00 00 	lea    rax,[rip+0x10f1]        # 7e68 <version_etc_copyright+0x48>
6d77:	48 83 c4 08          	add    rsp,0x8
6d7b:	c3                   	ret
6d7c:	0f 1f 40 00          	nop    DWORD PTR [rax+0x0]

0000000000006d80 <rpl_fclose>:
6d80:	41 54                	push   r12
6d82:	55                   	push   rbp
6d83:	53                   	push   rbx
6d84:	48 89 fb             	mov    rbx,rdi
6d87:	e8 f4 a8 ff ff       	call   1680 <fileno@plt>
6d8c:	85 c0                	test   eax,eax
6d8e:	48 89 df             	mov    rdi,rbx
6d91:	78 54                	js     6de7 <rpl_fclose+0x67>
6d93:	e8 38 a9 ff ff       	call   16d0 <__freading@plt>
6d98:	85 c0                	test   eax,eax
6d9a:	75 2c                	jne    6dc8 <rpl_fclose+0x48>
6d9c:	48 89 df             	mov    rdi,rbx
6d9f:	e8 5c 00 00 00       	call   6e00 <rpl_fflush>
6da4:	85 c0                	test   eax,eax
6da6:	74 3c                	je     6de4 <rpl_fclose+0x64>
6da8:	e8 23 a7 ff ff       	call   14d0 <__errno_location@plt>
6dad:	44 8b 20             	mov    r12d,DWORD PTR [rax]
6db0:	48 89 df             	mov    rdi,rbx
6db3:	48 89 c5             	mov    rbp,rax
6db6:	e8 75 a7 ff ff       	call   1530 <fclose@plt>
6dbb:	45 85 e4             	test   r12d,r12d
6dbe:	75 30                	jne    6df0 <rpl_fclose+0x70>
6dc0:	5b                   	pop    rbx
6dc1:	5d                   	pop    rbp
6dc2:	41 5c                	pop    r12
6dc4:	c3                   	ret
6dc5:	0f 1f 00             	nop    DWORD PTR [rax]
6dc8:	48 89 df             	mov    rdi,rbx
6dcb:	e8 b0 a8 ff ff       	call   1680 <fileno@plt>
6dd0:	31 f6                	xor    esi,esi
6dd2:	ba 01 00 00 00       	mov    edx,0x1
6dd7:	89 c7                	mov    edi,eax
6dd9:	e8 12 a8 ff ff       	call   15f0 <lseek@plt>
6dde:	48 83 f8 ff          	cmp    rax,0xffffffffffffffff
6de2:	75 b8                	jne    6d9c <rpl_fclose+0x1c>
6de4:	48 89 df             	mov    rdi,rbx
6de7:	5b                   	pop    rbx
6de8:	5d                   	pop    rbp
6de9:	41 5c                	pop    r12
6deb:	e9 40 a7 ff ff       	jmp    1530 <fclose@plt>
6df0:	44 89 65 00          	mov    DWORD PTR [rbp+0x0],r12d
6df4:	b8 ff ff ff ff       	mov    eax,0xffffffff
6df9:	eb c5                	jmp    6dc0 <rpl_fclose+0x40>
6dfb:	0f 1f 44 00 00       	nop    DWORD PTR [rax+rax*1+0x0]

0000000000006e00 <rpl_fflush>:
6e00:	48 85 ff             	test   rdi,rdi
6e03:	53                   	push   rbx
6e04:	48 89 fb             	mov    rbx,rdi
6e07:	74 11                	je     6e1a <rpl_fflush+0x1a>
6e09:	e8 c2 a8 ff ff       	call   16d0 <__freading@plt>
6e0e:	85 c0                	test   eax,eax
6e10:	74 08                	je     6e1a <rpl_fflush+0x1a>
6e12:	f7 03 00 01 00 00    	test   DWORD PTR [rbx],0x100
6e18:	75 0e                	jne    6e28 <rpl_fflush+0x28>
6e1a:	48 89 df             	mov    rdi,rbx
6e1d:	5b                   	pop    rbx
6e1e:	e9 8d a8 ff ff       	jmp    16b0 <fflush@plt>
6e23:	0f 1f 44 00 00       	nop    DWORD PTR [rax+rax*1+0x0]
6e28:	48 89 df             	mov    rdi,rbx
6e2b:	ba 01 00 00 00       	mov    edx,0x1
6e30:	31 f6                	xor    esi,esi
6e32:	e8 09 00 00 00       	call   6e40 <rpl_fseeko>
6e37:	48 89 df             	mov    rdi,rbx
6e3a:	5b                   	pop    rbx
6e3b:	e9 70 a8 ff ff       	jmp    16b0 <fflush@plt>

0000000000006e40 <rpl_fseeko>:
6e40:	48 8b 47 08          	mov    rax,QWORD PTR [rdi+0x8]
6e44:	48 39 47 10          	cmp    QWORD PTR [rdi+0x10],rax
6e48:	74 06                	je     6e50 <rpl_fseeko+0x10>
6e4a:	e9 e1 a8 ff ff       	jmp    1730 <fseeko@plt>
6e4f:	90                   	nop
6e50:	48 8b 47 20          	mov    rax,QWORD PTR [rdi+0x20]
6e54:	48 39 47 28          	cmp    QWORD PTR [rdi+0x28],rax
6e58:	75 f0                	jne    6e4a <rpl_fseeko+0xa>
6e5a:	48 83 7f 48 00       	cmp    QWORD PTR [rdi+0x48],0x0
6e5f:	75 e9                	jne    6e4a <rpl_fseeko+0xa>
6e61:	41 54                	push   r12
6e63:	55                   	push   rbp
6e64:	41 89 d4             	mov    r12d,edx
6e67:	53                   	push   rbx
6e68:	48 89 f5             	mov    rbp,rsi
6e6b:	48 89 fb             	mov    rbx,rdi
6e6e:	e8 0d a8 ff ff       	call   1680 <fileno@plt>
6e73:	44 89 e2             	mov    edx,r12d
6e76:	48 89 ee             	mov    rsi,rbp
6e79:	89 c7                	mov    edi,eax
6e7b:	e8 70 a7 ff ff       	call   15f0 <lseek@plt>
6e80:	48 83 f8 ff          	cmp    rax,0xffffffffffffffff
6e84:	74 0c                	je     6e92 <rpl_fseeko+0x52>
6e86:	83 23 ef             	and    DWORD PTR [rbx],0xffffffef
6e89:	48 89 83 90 00 00 00 	mov    QWORD PTR [rbx+0x90],rax
6e90:	31 c0                	xor    eax,eax
6e92:	5b                   	pop    rbx
6e93:	5d                   	pop    rbp
6e94:	41 5c                	pop    r12
6e96:	c3                   	ret
6e97:	66 0f 1f 84 00 00 00 	nop    WORD PTR [rax+rax*1+0x0]
6e9e:	00 00

0000000000006ea0 <__libc_csu_init>:
6ea0:	41 57                	push   r15
6ea2:	41 56                	push   r14
6ea4:	49 89 d7             	mov    r15,rdx
6ea7:	41 55                	push   r13
6ea9:	41 54                	push   r12
6eab:	4c 8d 25 7e 2b 20 00 	lea    r12,[rip+0x202b7e]        # 209a30 <__frame_dummy_init_array_entry>
6eb2:	55                   	push   rbp
6eb3:	48 8d 2d 7e 2b 20 00 	lea    rbp,[rip+0x202b7e]        # 209a38 <__init_array_end>
6eba:	53                   	push   rbx
6ebb:	41 89 fd             	mov    r13d,edi
6ebe:	49 89 f6             	mov    r14,rsi
6ec1:	4c 29 e5             	sub    rbp,r12
6ec4:	48 83 ec 08          	sub    rsp,0x8
6ec8:	48 c1 fd 03          	sar    rbp,0x3
6ecc:	e8 af a5 ff ff       	call   1480 <_init>
6ed1:	48 85 ed             	test   rbp,rbp
6ed4:	74 20                	je     6ef6 <__libc_csu_init+0x56>
6ed6:	31 db                	xor    ebx,ebx
6ed8:	0f 1f 84 00 00 00 00 	nop    DWORD PTR [rax+rax*1+0x0]
6edf:	00
6ee0:	4c 89 fa             	mov    rdx,r15
6ee3:	4c 89 f6             	mov    rsi,r14
6ee6:	44 89 ef             	mov    edi,r13d
6ee9:	41 ff 14 dc          	call   QWORD PTR [r12+rbx*8]
6eed:	48 83 c3 01          	add    rbx,0x1
6ef1:	48 39 dd             	cmp    rbp,rbx
6ef4:	75 ea                	jne    6ee0 <__libc_csu_init+0x40>
6ef6:	48 83 c4 08          	add    rsp,0x8
6efa:	5b                   	pop    rbx
6efb:	5d                   	pop    rbp
6efc:	41 5c                	pop    r12
6efe:	41 5d                	pop    r13
6f00:	41 5e                	pop    r14
6f02:	41 5f                	pop    r15
6f04:	c3                   	ret
6f05:	90                   	nop
6f06:	66 2e 0f 1f 84 00 00 	nop    WORD PTR cs:[rax+rax*1+0x0]
6f0d:	00 00 00

0000000000006f10 <__libc_csu_fini>:
6f10:	f3 c3                	repz ret
6f12:	66 2e 0f 1f 84 00 00 	nop    WORD PTR cs:[rax+rax*1+0x0]
6f19:	00 00 00
6f1c:	0f 1f 40 00          	nop    DWORD PTR [rax+0x0]

0000000000006f20 <atexit>:
6f20:	48 8b 15 e1 30 20 00 	mov    rdx,QWORD PTR [rip+0x2030e1]        # 20a008 <__dso_handle>
6f27:	31 f6                	xor    esi,esi
6f29:	e9 12 a8 ff ff       	jmp    1740 <__cxa_atexit@plt>

Disassembly of section .fini:

0000000000006f30 <_fini>:
6f30:	48 83 ec 08          	sub    rsp,0x8
6f34:	48 83 c4 08          	add    rsp,0x8
6f38:	c3                   	ret
