


Disassembly of section .init:

0000000000001b08 <_init>:
1b08:	48 83 ec 08          	sub    rsp,0x8
1b0c:	48 8b 05 cd a4 20 00 	mov    rax,QWORD PTR [rip+0x20a4cd]        # 20bfe0 <__gmon_start__>
1b13:	48 85 c0             	test   rax,rax
1b16:	74 02                	je     1b1a <_init+0x12>
1b18:	ff d0                	call   rax
1b1a:	48 83 c4 08          	add    rsp,0x8
1b1e:	c3                   	ret

Disassembly of section .plt:

0000000000001b20 <.plt>:
1b20:	ff 35 4a a2 20 00    	push   QWORD PTR [rip+0x20a24a]        # 20bd70 <_GLOBAL_OFFSET_TABLE_+0x8>
1b26:	ff 25 4c a2 20 00    	jmp    QWORD PTR [rip+0x20a24c]        # 20bd78 <_GLOBAL_OFFSET_TABLE_+0x10>
1b2c:	0f 1f 40 00          	nop    DWORD PTR [rax+0x0]

0000000000001b30 <getenv@plt>:
1b30:	ff 25 4a a2 20 00    	jmp    QWORD PTR [rip+0x20a24a]        # 20bd80 <getenv@GLIBC_2.2.5>
1b36:	68 00 00 00 00       	push   0x0
1b3b:	e9 e0 ff ff ff       	jmp    1b20 <.plt>

0000000000001b40 <sigprocmask@plt>:
1b40:	ff 25 42 a2 20 00    	jmp    QWORD PTR [rip+0x20a242]        # 20bd88 <sigprocmask@GLIBC_2.2.5>
1b46:	68 01 00 00 00       	push   0x1
1b4b:	e9 d0 ff ff ff       	jmp    1b20 <.plt>

0000000000001b50 <free@plt>:
1b50:	ff 25 3a a2 20 00    	jmp    QWORD PTR [rip+0x20a23a]        # 20bd90 <free@GLIBC_2.2.5>
1b56:	68 02 00 00 00       	push   0x2
1b5b:	e9 c0 ff ff ff       	jmp    1b20 <.plt>

0000000000001b60 <abort@plt>:
1b60:	ff 25 32 a2 20 00    	jmp    QWORD PTR [rip+0x20a232]        # 20bd98 <abort@GLIBC_2.2.5>
1b66:	68 03 00 00 00       	push   0x3
1b6b:	e9 b0 ff ff ff       	jmp    1b20 <.plt>

0000000000001b70 <__errno_location@plt>:
1b70:	ff 25 2a a2 20 00    	jmp    QWORD PTR [rip+0x20a22a]        # 20bda0 <__errno_location@GLIBC_2.2.5>
1b76:	68 04 00 00 00       	push   0x4
1b7b:	e9 a0 ff ff ff       	jmp    1b20 <.plt>

0000000000001b80 <strncmp@plt>:
1b80:	ff 25 22 a2 20 00    	jmp    QWORD PTR [rip+0x20a222]        # 20bda8 <strncmp@GLIBC_2.2.5>
1b86:	68 05 00 00 00       	push   0x5
1b8b:	e9 90 ff ff ff       	jmp    1b20 <.plt>

0000000000001b90 <_exit@plt>:
1b90:	ff 25 1a a2 20 00    	jmp    QWORD PTR [rip+0x20a21a]        # 20bdb0 <_exit@GLIBC_2.2.5>
1b96:	68 06 00 00 00       	push   0x6
1b9b:	e9 80 ff ff ff       	jmp    1b20 <.plt>

0000000000001ba0 <strcpy@plt>:
1ba0:	ff 25 12 a2 20 00    	jmp    QWORD PTR [rip+0x20a212]        # 20bdb8 <strcpy@GLIBC_2.2.5>
1ba6:	68 07 00 00 00       	push   0x7
1bab:	e9 70 ff ff ff       	jmp    1b20 <.plt>

0000000000001bb0 <__fpending@plt>:
1bb0:	ff 25 0a a2 20 00    	jmp    QWORD PTR [rip+0x20a20a]        # 20bdc0 <__fpending@GLIBC_2.2.5>
1bb6:	68 08 00 00 00       	push   0x8
1bbb:	e9 60 ff ff ff       	jmp    1b20 <.plt>

0000000000001bc0 <sigaction@plt>:
1bc0:	ff 25 02 a2 20 00    	jmp    QWORD PTR [rip+0x20a202]        # 20bdc8 <sigaction@GLIBC_2.2.5>
1bc6:	68 09 00 00 00       	push   0x9
1bcb:	e9 50 ff ff ff       	jmp    1b20 <.plt>

0000000000001bd0 <fcntl@plt>:
1bd0:	ff 25 fa a1 20 00    	jmp    QWORD PTR [rip+0x20a1fa]        # 20bdd0 <fcntl@GLIBC_2.2.5>
1bd6:	68 0a 00 00 00       	push   0xa
1bdb:	e9 40 ff ff ff       	jmp    1b20 <.plt>

0000000000001be0 <setenv@plt>:
1be0:	ff 25 f2 a1 20 00    	jmp    QWORD PTR [rip+0x20a1f2]        # 20bdd8 <setenv@GLIBC_2.2.5>
1be6:	68 0b 00 00 00       	push   0xb
1beb:	e9 30 ff ff ff       	jmp    1b20 <.plt>

0000000000001bf0 <clearerr_unlocked@plt>:
1bf0:	ff 25 ea a1 20 00    	jmp    QWORD PTR [rip+0x20a1ea]        # 20bde0 <clearerr_unlocked@GLIBC_2.2.5>
1bf6:	68 0c 00 00 00       	push   0xc
1bfb:	e9 20 ff ff ff       	jmp    1b20 <.plt>

0000000000001c00 <write@plt>:
1c00:	ff 25 e2 a1 20 00    	jmp    QWORD PTR [rip+0x20a1e2]        # 20bde8 <write@GLIBC_2.2.5>
1c06:	68 0d 00 00 00       	push   0xd
1c0b:	e9 10 ff ff ff       	jmp    1b20 <.plt>

0000000000001c10 <textdomain@plt>:
1c10:	ff 25 da a1 20 00    	jmp    QWORD PTR [rip+0x20a1da]        # 20bdf0 <textdomain@GLIBC_2.2.5>
1c16:	68 0e 00 00 00       	push   0xe
1c1b:	e9 00 ff ff ff       	jmp    1b20 <.plt>

0000000000001c20 <fclose@plt>:
1c20:	ff 25 d2 a1 20 00    	jmp    QWORD PTR [rip+0x20a1d2]        # 20bdf8 <fclose@GLIBC_2.2.5>
1c26:	68 0f 00 00 00       	push   0xf
1c2b:	e9 f0 fe ff ff       	jmp    1b20 <.plt>

0000000000001c30 <bindtextdomain@plt>:
1c30:	ff 25 ca a1 20 00    	jmp    QWORD PTR [rip+0x20a1ca]        # 20be00 <bindtextdomain@GLIBC_2.2.5>
1c36:	68 10 00 00 00       	push   0x10
1c3b:	e9 e0 fe ff ff       	jmp    1b20 <.plt>

0000000000001c40 <dcgettext@plt>:
1c40:	ff 25 c2 a1 20 00    	jmp    QWORD PTR [rip+0x20a1c2]        # 20be08 <dcgettext@GLIBC_2.2.5>
1c46:	68 11 00 00 00       	push   0x11
1c4b:	e9 d0 fe ff ff       	jmp    1b20 <.plt>

0000000000001c50 <__ctype_get_mb_cur_max@plt>:
1c50:	ff 25 ba a1 20 00    	jmp    QWORD PTR [rip+0x20a1ba]        # 20be10 <__ctype_get_mb_cur_max@GLIBC_2.2.5>
1c56:	68 12 00 00 00       	push   0x12
1c5b:	e9 c0 fe ff ff       	jmp    1b20 <.plt>

0000000000001c60 <strlen@plt>:
1c60:	ff 25 b2 a1 20 00    	jmp    QWORD PTR [rip+0x20a1b2]        # 20be18 <strlen@GLIBC_2.2.5>
1c66:	68 13 00 00 00       	push   0x13
1c6b:	e9 b0 fe ff ff       	jmp    1b20 <.plt>

0000000000001c70 <__stack_chk_fail@plt>:
1c70:	ff 25 aa a1 20 00    	jmp    QWORD PTR [rip+0x20a1aa]        # 20be20 <__stack_chk_fail@GLIBC_2.4>
1c76:	68 14 00 00 00       	push   0x14
1c7b:	e9 a0 fe ff ff       	jmp    1b20 <.plt>

0000000000001c80 <getopt_long@plt>:
1c80:	ff 25 a2 a1 20 00    	jmp    QWORD PTR [rip+0x20a1a2]        # 20be28 <getopt_long@GLIBC_2.2.5>
1c86:	68 15 00 00 00       	push   0x15
1c8b:	e9 90 fe ff ff       	jmp    1b20 <.plt>

0000000000001c90 <mbrtowc@plt>:
1c90:	ff 25 9a a1 20 00    	jmp    QWORD PTR [rip+0x20a19a]        # 20be30 <mbrtowc@GLIBC_2.2.5>
1c96:	68 16 00 00 00       	push   0x16
1c9b:	e9 80 fe ff ff       	jmp    1b20 <.plt>

0000000000001ca0 <dup2@plt>:
1ca0:	ff 25 92 a1 20 00    	jmp    QWORD PTR [rip+0x20a192]        # 20be38 <dup2@GLIBC_2.2.5>
1ca6:	68 17 00 00 00       	push   0x17
1cab:	e9 70 fe ff ff       	jmp    1b20 <.plt>

0000000000001cb0 <strchr@plt>:
1cb0:	ff 25 8a a1 20 00    	jmp    QWORD PTR [rip+0x20a18a]        # 20be40 <strchr@GLIBC_2.2.5>
1cb6:	68 18 00 00 00       	push   0x18
1cbb:	e9 60 fe ff ff       	jmp    1b20 <.plt>

0000000000001cc0 <strrchr@plt>:
1cc0:	ff 25 82 a1 20 00    	jmp    QWORD PTR [rip+0x20a182]        # 20be48 <strrchr@GLIBC_2.2.5>
1cc6:	68 19 00 00 00       	push   0x19
1ccb:	e9 50 fe ff ff       	jmp    1b20 <.plt>

0000000000001cd0 <ftruncate@plt>:
1cd0:	ff 25 7a a1 20 00    	jmp    QWORD PTR [rip+0x20a17a]        # 20be50 <ftruncate@GLIBC_2.2.5>
1cd6:	68 1a 00 00 00       	push   0x1a
1cdb:	e9 40 fe ff ff       	jmp    1b20 <.plt>

0000000000001ce0 <lseek@plt>:
1ce0:	ff 25 72 a1 20 00    	jmp    QWORD PTR [rip+0x20a172]        # 20be58 <lseek@GLIBC_2.2.5>
1ce6:	68 1b 00 00 00       	push   0x1b
1ceb:	e9 30 fe ff ff       	jmp    1b20 <.plt>

0000000000001cf0 <__assert_fail@plt>:
1cf0:	ff 25 6a a1 20 00    	jmp    QWORD PTR [rip+0x20a16a]        # 20be60 <__assert_fail@GLIBC_2.2.5>
1cf6:	68 1c 00 00 00       	push   0x1c
1cfb:	e9 20 fe ff ff       	jmp    1b20 <.plt>

0000000000001d00 <__strtoul_internal@plt>:
1d00:	ff 25 62 a1 20 00    	jmp    QWORD PTR [rip+0x20a162]        # 20be68 <__strtoul_internal@GLIBC_2.2.5>
1d06:	68 1d 00 00 00       	push   0x1d
1d0b:	e9 10 fe ff ff       	jmp    1b20 <.plt>

0000000000001d10 <memset@plt>:
1d10:	ff 25 5a a1 20 00    	jmp    QWORD PTR [rip+0x20a15a]        # 20be70 <memset@GLIBC_2.2.5>
1d16:	68 1e 00 00 00       	push   0x1e
1d1b:	e9 00 fe ff ff       	jmp    1b20 <.plt>

0000000000001d20 <close@plt>:
1d20:	ff 25 52 a1 20 00    	jmp    QWORD PTR [rip+0x20a152]        # 20be78 <close@GLIBC_2.2.5>
1d26:	68 1f 00 00 00       	push   0x1f
1d2b:	e9 f0 fd ff ff       	jmp    1b20 <.plt>

0000000000001d30 <pipe@plt>:
1d30:	ff 25 4a a1 20 00    	jmp    QWORD PTR [rip+0x20a14a]        # 20be80 <pipe@GLIBC_2.2.5>
1d36:	68 20 00 00 00       	push   0x20
1d3b:	e9 e0 fd ff ff       	jmp    1b20 <.plt>

0000000000001d40 <strspn@plt>:
1d40:	ff 25 42 a1 20 00    	jmp    QWORD PTR [rip+0x20a142]        # 20be88 <strspn@GLIBC_2.2.5>
1d46:	68 21 00 00 00       	push   0x21
1d4b:	e9 d0 fd ff ff       	jmp    1b20 <.plt>

0000000000001d50 <memchr@plt>:
1d50:	ff 25 3a a1 20 00    	jmp    QWORD PTR [rip+0x20a13a]        # 20be90 <memchr@GLIBC_2.2.5>
1d56:	68 22 00 00 00       	push   0x22
1d5b:	e9 c0 fd ff ff       	jmp    1b20 <.plt>

0000000000001d60 <read@plt>:
1d60:	ff 25 32 a1 20 00    	jmp    QWORD PTR [rip+0x20a132]        # 20be98 <read@GLIBC_2.2.5>
1d66:	68 23 00 00 00       	push   0x23
1d6b:	e9 b0 fd ff ff       	jmp    1b20 <.plt>

0000000000001d70 <memcmp@plt>:
1d70:	ff 25 2a a1 20 00    	jmp    QWORD PTR [rip+0x20a12a]        # 20bea0 <memcmp@GLIBC_2.2.5>
1d76:	68 24 00 00 00       	push   0x24
1d7b:	e9 a0 fd ff ff       	jmp    1b20 <.plt>

0000000000001d80 <fputs_unlocked@plt>:
1d80:	ff 25 22 a1 20 00    	jmp    QWORD PTR [rip+0x20a122]        # 20bea8 <fputs_unlocked@GLIBC_2.2.5>
1d86:	68 25 00 00 00       	push   0x25
1d8b:	e9 90 fd ff ff       	jmp    1b20 <.plt>

0000000000001d90 <calloc@plt>:
1d90:	ff 25 1a a1 20 00    	jmp    QWORD PTR [rip+0x20a11a]        # 20beb0 <calloc@GLIBC_2.2.5>
1d96:	68 26 00 00 00       	push   0x26
1d9b:	e9 80 fd ff ff       	jmp    1b20 <.plt>

0000000000001da0 <strcmp@plt>:
1da0:	ff 25 12 a1 20 00    	jmp    QWORD PTR [rip+0x20a112]        # 20beb8 <strcmp@GLIBC_2.2.5>
1da6:	68 27 00 00 00       	push   0x27
1dab:	e9 70 fd ff ff       	jmp    1b20 <.plt>

0000000000001db0 <sigemptyset@plt>:
1db0:	ff 25 0a a1 20 00    	jmp    QWORD PTR [rip+0x20a10a]        # 20bec0 <sigemptyset@GLIBC_2.2.5>
1db6:	68 28 00 00 00       	push   0x28
1dbb:	e9 60 fd ff ff       	jmp    1b20 <.plt>

0000000000001dc0 <strtol@plt>:
1dc0:	ff 25 02 a1 20 00    	jmp    QWORD PTR [rip+0x20a102]        # 20bec8 <strtol@GLIBC_2.2.5>
1dc6:	68 29 00 00 00       	push   0x29
1dcb:	e9 50 fd ff ff       	jmp    1b20 <.plt>

0000000000001dd0 <memcpy@plt>:
1dd0:	ff 25 fa a0 20 00    	jmp    QWORD PTR [rip+0x20a0fa]        # 20bed0 <memcpy@GLIBC_2.14>
1dd6:	68 2a 00 00 00       	push   0x2a
1ddb:	e9 40 fd ff ff       	jmp    1b20 <.plt>

0000000000001de0 <fileno@plt>:
1de0:	ff 25 f2 a0 20 00    	jmp    QWORD PTR [rip+0x20a0f2]        # 20bed8 <fileno@GLIBC_2.2.5>
1de6:	68 2b 00 00 00       	push   0x2b
1deb:	e9 30 fd ff ff       	jmp    1b20 <.plt>

0000000000001df0 <malloc@plt>:
1df0:	ff 25 ea a0 20 00    	jmp    QWORD PTR [rip+0x20a0ea]        # 20bee0 <malloc@GLIBC_2.2.5>
1df6:	68 2c 00 00 00       	push   0x2c
1dfb:	e9 20 fd ff ff       	jmp    1b20 <.plt>

0000000000001e00 <fflush@plt>:
1e00:	ff 25 e2 a0 20 00    	jmp    QWORD PTR [rip+0x20a0e2]        # 20bee8 <fflush@GLIBC_2.2.5>
1e06:	68 2d 00 00 00       	push   0x2d
1e0b:	e9 10 fd ff ff       	jmp    1b20 <.plt>

0000000000001e10 <nl_langinfo@plt>:
1e10:	ff 25 da a0 20 00    	jmp    QWORD PTR [rip+0x20a0da]        # 20bef0 <nl_langinfo@GLIBC_2.2.5>
1e16:	68 2e 00 00 00       	push   0x2e
1e1b:	e9 00 fd ff ff       	jmp    1b20 <.plt>

0000000000001e20 <__fxstat@plt>:
1e20:	ff 25 d2 a0 20 00    	jmp    QWORD PTR [rip+0x20a0d2]        # 20bef8 <__fxstat@GLIBC_2.2.5>
1e26:	68 2f 00 00 00       	push   0x2f
1e2b:	e9 f0 fc ff ff       	jmp    1b20 <.plt>

0000000000001e30 <__freading@plt>:
1e30:	ff 25 ca a0 20 00    	jmp    QWORD PTR [rip+0x20a0ca]        # 20bf00 <__freading@GLIBC_2.2.5>
1e36:	68 30 00 00 00       	push   0x30
1e3b:	e9 e0 fc ff ff       	jmp    1b20 <.plt>

0000000000001e40 <fwrite_unlocked@plt>:
1e40:	ff 25 c2 a0 20 00    	jmp    QWORD PTR [rip+0x20a0c2]        # 20bf08 <fwrite_unlocked@GLIBC_2.2.5>
1e46:	68 31 00 00 00       	push   0x31
1e4b:	e9 d0 fc ff ff       	jmp    1b20 <.plt>

0000000000001e50 <realloc@plt>:
1e50:	ff 25 ba a0 20 00    	jmp    QWORD PTR [rip+0x20a0ba]        # 20bf10 <realloc@GLIBC_2.2.5>
1e56:	68 32 00 00 00       	push   0x32
1e5b:	e9 c0 fc ff ff       	jmp    1b20 <.plt>

0000000000001e60 <fdopen@plt>:
1e60:	ff 25 b2 a0 20 00    	jmp    QWORD PTR [rip+0x20a0b2]        # 20bf18 <fdopen@GLIBC_2.2.5>
1e66:	68 33 00 00 00       	push   0x33
1e6b:	e9 b0 fc ff ff       	jmp    1b20 <.plt>

0000000000001e70 <setlocale@plt>:
1e70:	ff 25 aa a0 20 00    	jmp    QWORD PTR [rip+0x20a0aa]        # 20bf20 <setlocale@GLIBC_2.2.5>
1e76:	68 34 00 00 00       	push   0x34
1e7b:	e9 a0 fc ff ff       	jmp    1b20 <.plt>

0000000000001e80 <__printf_chk@plt>:
1e80:	ff 25 a2 a0 20 00    	jmp    QWORD PTR [rip+0x20a0a2]        # 20bf28 <__printf_chk@GLIBC_2.3.4>
1e86:	68 35 00 00 00       	push   0x35
1e8b:	e9 90 fc ff ff       	jmp    1b20 <.plt>

0000000000001e90 <memmove@plt>:
1e90:	ff 25 9a a0 20 00    	jmp    QWORD PTR [rip+0x20a09a]        # 20bf30 <memmove@GLIBC_2.2.5>
1e96:	68 36 00 00 00       	push   0x36
1e9b:	e9 80 fc ff ff       	jmp    1b20 <.plt>

0000000000001ea0 <error@plt>:
1ea0:	ff 25 92 a0 20 00    	jmp    QWORD PTR [rip+0x20a092]        # 20bf38 <error@GLIBC_2.2.5>
1ea6:	68 37 00 00 00       	push   0x37
1eab:	e9 70 fc ff ff       	jmp    1b20 <.plt>

0000000000001eb0 <memrchr@plt>:
1eb0:	ff 25 8a a0 20 00    	jmp    QWORD PTR [rip+0x20a08a]        # 20bf40 <memrchr@GLIBC_2.2.5>
1eb6:	68 38 00 00 00       	push   0x38
1ebb:	e9 60 fc ff ff       	jmp    1b20 <.plt>

0000000000001ec0 <waitpid@plt>:
1ec0:	ff 25 82 a0 20 00    	jmp    QWORD PTR [rip+0x20a082]        # 20bf48 <waitpid@GLIBC_2.2.5>
1ec6:	68 39 00 00 00       	push   0x39
1ecb:	e9 50 fc ff ff       	jmp    1b20 <.plt>

0000000000001ed0 <open@plt>:
1ed0:	ff 25 7a a0 20 00    	jmp    QWORD PTR [rip+0x20a07a]        # 20bf50 <open@GLIBC_2.2.5>
1ed6:	68 3a 00 00 00       	push   0x3a
1edb:	e9 40 fc ff ff       	jmp    1b20 <.plt>

0000000000001ee0 <fseeko@plt>:
1ee0:	ff 25 72 a0 20 00    	jmp    QWORD PTR [rip+0x20a072]        # 20bf58 <fseeko@GLIBC_2.2.5>
1ee6:	68 3b 00 00 00       	push   0x3b
1eeb:	e9 30 fc ff ff       	jmp    1b20 <.plt>

0000000000001ef0 <__cxa_atexit@plt>:
1ef0:	ff 25 6a a0 20 00    	jmp    QWORD PTR [rip+0x20a06a]        # 20bf60 <__cxa_atexit@GLIBC_2.2.5>
1ef6:	68 3c 00 00 00       	push   0x3c
1efb:	e9 20 fc ff ff       	jmp    1b20 <.plt>

0000000000001f00 <getpagesize@plt>:
1f00:	ff 25 62 a0 20 00    	jmp    QWORD PTR [rip+0x20a062]        # 20bf68 <getpagesize@GLIBC_2.2.5>
1f06:	68 3d 00 00 00       	push   0x3d
1f0b:	e9 10 fc ff ff       	jmp    1b20 <.plt>

0000000000001f10 <__libc_current_sigrtmin@plt>:
1f10:	ff 25 5a a0 20 00    	jmp    QWORD PTR [rip+0x20a05a]        # 20bf70 <__libc_current_sigrtmin@GLIBC_2.2.5>
1f16:	68 3e 00 00 00       	push   0x3e
1f1b:	e9 00 fc ff ff       	jmp    1b20 <.plt>

0000000000001f20 <exit@plt>:
1f20:	ff 25 52 a0 20 00    	jmp    QWORD PTR [rip+0x20a052]        # 20bf78 <exit@GLIBC_2.2.5>
1f26:	68 3f 00 00 00       	push   0x3f
1f2b:	e9 f0 fb ff ff       	jmp    1b20 <.plt>

0000000000001f30 <fwrite@plt>:
1f30:	ff 25 4a a0 20 00    	jmp    QWORD PTR [rip+0x20a04a]        # 20bf80 <fwrite@GLIBC_2.2.5>
1f36:	68 40 00 00 00       	push   0x40
1f3b:	e9 e0 fb ff ff       	jmp    1b20 <.plt>

0000000000001f40 <__fprintf_chk@plt>:
1f40:	ff 25 42 a0 20 00    	jmp    QWORD PTR [rip+0x20a042]        # 20bf88 <__fprintf_chk@GLIBC_2.3.4>
1f46:	68 41 00 00 00       	push   0x41
1f4b:	e9 d0 fb ff ff       	jmp    1b20 <.plt>

0000000000001f50 <__libc_current_sigrtmax@plt>:
1f50:	ff 25 3a a0 20 00    	jmp    QWORD PTR [rip+0x20a03a]        # 20bf90 <__libc_current_sigrtmax@GLIBC_2.2.5>
1f56:	68 42 00 00 00       	push   0x42
1f5b:	e9 c0 fb ff ff       	jmp    1b20 <.plt>

0000000000001f60 <mbsinit@plt>:
1f60:	ff 25 32 a0 20 00    	jmp    QWORD PTR [rip+0x20a032]        # 20bf98 <mbsinit@GLIBC_2.2.5>
1f66:	68 43 00 00 00       	push   0x43
1f6b:	e9 b0 fb ff ff       	jmp    1b20 <.plt>

0000000000001f70 <execl@plt>:
1f70:	ff 25 2a a0 20 00    	jmp    QWORD PTR [rip+0x20a02a]        # 20bfa0 <execl@GLIBC_2.2.5>
1f76:	68 44 00 00 00       	push   0x44
1f7b:	e9 a0 fb ff ff       	jmp    1b20 <.plt>

0000000000001f80 <iswprint@plt>:
1f80:	ff 25 22 a0 20 00    	jmp    QWORD PTR [rip+0x20a022]        # 20bfa8 <iswprint@GLIBC_2.2.5>
1f86:	68 45 00 00 00       	push   0x45
1f8b:	e9 90 fb ff ff       	jmp    1b20 <.plt>

0000000000001f90 <sigaddset@plt>:
1f90:	ff 25 1a a0 20 00    	jmp    QWORD PTR [rip+0x20a01a]        # 20bfb0 <sigaddset@GLIBC_2.2.5>
1f96:	68 46 00 00 00       	push   0x46
1f9b:	e9 80 fb ff ff       	jmp    1b20 <.plt>

0000000000001fa0 <fork@plt>:
1fa0:	ff 25 12 a0 20 00    	jmp    QWORD PTR [rip+0x20a012]        # 20bfb8 <fork@GLIBC_2.2.5>
1fa6:	68 47 00 00 00       	push   0x47
1fab:	e9 70 fb ff ff       	jmp    1b20 <.plt>

0000000000001fb0 <__ctype_b_loc@plt>:
1fb0:	ff 25 0a a0 20 00    	jmp    QWORD PTR [rip+0x20a00a]        # 20bfc0 <__ctype_b_loc@GLIBC_2.3>
1fb6:	68 48 00 00 00       	push   0x48
1fbb:	e9 60 fb ff ff       	jmp    1b20 <.plt>

0000000000001fc0 <__sprintf_chk@plt>:
1fc0:	ff 25 02 a0 20 00    	jmp    QWORD PTR [rip+0x20a002]        # 20bfc8 <__sprintf_chk@GLIBC_2.3.4>
1fc6:	68 49 00 00 00       	push   0x49
1fcb:	e9 50 fb ff ff       	jmp    1b20 <.plt>

Disassembly of section .plt.got:

0000000000001fd0 <__cxa_finalize@plt>:
1fd0:	ff 25 1a a0 20 00    	jmp    QWORD PTR [rip+0x20a01a]        # 20bff0 <__cxa_finalize@GLIBC_2.2.5>
1fd6:	66 90                	xchg   ax,ax

Disassembly of section .text:

0000000000001fe0 <main>:
1fe0:	41 57                	push   r15
1fe2:	41 56                	push   r14
1fe4:	45 31 f6             	xor    r14d,r14d
1fe7:	41 55                	push   r13
1fe9:	41 54                	push   r12
1feb:	45 31 e4             	xor    r12d,r12d
1fee:	55                   	push   rbp
1fef:	53                   	push   rbx
1ff0:	48 89 f3             	mov    rbx,rsi
1ff3:	89 fd                	mov    ebp,edi
1ff5:	48 81 ec 48 01 00 00 	sub    rsp,0x148
1ffc:	64 48 8b 04 25 28 00 	mov    rax,QWORD PTR fs:0x28
2003:	00 00
2005:	48 89 84 24 38 01 00 	mov    QWORD PTR [rsp+0x138],rax
200c:	00
200d:	31 c0                	xor    eax,eax
200f:	e8 ec fe ff ff       	call   1f00 <getpagesize@plt>
2014:	48 8b 3b             	mov    rdi,QWORD PTR [rbx]
2017:	48 98                	cdqe
2019:	48 89 44 24 08       	mov    QWORD PTR [rsp+0x8],rax
201e:	e8 ed 35 00 00       	call   5610 <set_program_name>
2023:	48 8d 35 17 81 00 00 	lea    rsi,[rip+0x8117]        # a141 <quoting_style_vals+0x81>
202a:	bf 06 00 00 00       	mov    edi,0x6
202f:	e8 3c fe ff ff       	call   1e70 <setlocale@plt>
2034:	48 8d 35 73 6c 00 00 	lea    rsi,[rip+0x6c73]        # 8cae <_IO_stdin_used+0x1ee>
203b:	48 8d 3d 43 6c 00 00 	lea    rdi,[rip+0x6c43]        # 8c85 <_IO_stdin_used+0x1c5>
2042:	e8 e9 fb ff ff       	call   1c30 <bindtextdomain@plt>
2047:	48 8d 3d 37 6c 00 00 	lea    rdi,[rip+0x6c37]        # 8c85 <_IO_stdin_used+0x1c5>
204e:	e8 bd fb ff ff       	call   1c10 <textdomain@plt>
2053:	48 8d 3d b6 32 00 00 	lea    rdi,[rip+0x32b6]        # 5310 <close_stdout>
205a:	e8 31 6a 00 00       	call   8a90 <atexit>
205f:	48 8d 05 ac 7b 00 00 	lea    rax,[rip+0x7bac]        # 9c12 <multipliers.7397+0x5a>
2066:	48 c7 04 24 00 00 00 	mov    QWORD PTR [rsp],0x0
206d:	00
206e:	48 c7 44 24 10 00 00 	mov    QWORD PTR [rsp+0x10],0x0
2075:	00 00
2077:	48 c7 44 24 40 00 00 	mov    QWORD PTR [rsp+0x40],0x0
207e:	00 00
2080:	48 89 05 09 a3 20 00 	mov    QWORD PTR [rip+0x20a309],rax        # 20c390 <infile>
2087:	48 8d 05 ff 6d 00 00 	lea    rax,[rip+0x6dff]        # 8e8d <_IO_stdin_used+0x3cd>
208e:	48 89 05 2b a3 20 00 	mov    QWORD PTR [rip+0x20a32b],rax        # 20c3c0 <outbase>
2095:	0f 1f 00             	nop    DWORD PTR [rax]
2098:	44 8b 2d d1 a1 20 00 	mov    r13d,DWORD PTR [rip+0x20a1d1]        # 20c270 <optind@@GLIBC_2.2.5>
209f:	b8 01 00 00 00       	mov    eax,0x1
20a4:	48 8d 0d 55 98 20 00 	lea    rcx,[rip+0x209855]        # 20b900 <longopts>
20ab:	48 8d 15 14 6c 00 00 	lea    rdx,[rip+0x6c14]        # 8cc6 <_IO_stdin_used+0x206>
20b2:	48 89 de             	mov    rsi,rbx
20b5:	89 ef                	mov    edi,ebp
20b7:	45 85 ed             	test   r13d,r13d
20ba:	44 0f 44 e8          	cmove  r13d,eax
20be:	45 31 c0             	xor    r8d,r8d
20c1:	e8 ba fb ff ff       	call   1c80 <getopt_long@plt>
20c6:	83 f8 ff             	cmp    eax,0xffffffff
20c9:	41 89 c7             	mov    r15d,eax
20cc:	0f 84 96 05 00 00    	je     2668 <main+0x688>
20d2:	83 f8 65             	cmp    eax,0x65
20d5:	0f 84 65 01 00 00    	je     2240 <main+0x260>
20db:	7e 43                	jle    2120 <main+0x140>
20dd:	83 f8 78             	cmp    eax,0x78
20e0:	0f 84 d5 04 00 00    	je     25bb <main+0x5db>
20e6:	0f 8f ac 00 00 00    	jg     2198 <main+0x1b8>
20ec:	83 f8 6e             	cmp    eax,0x6e
20ef:	0f 84 53 02 00 00    	je     2348 <main+0x368>
20f5:	0f 8e ed 01 00 00    	jle    22e8 <main+0x308>
20fb:	83 f8 74             	cmp    eax,0x74
20fe:	0f 84 8c 01 00 00    	je     2290 <main+0x2b0>
2104:	83 f8 75             	cmp    eax,0x75
2107:	0f 85 1f 18 00 00    	jne    392c <main+0x194c>
210d:	c6 05 cc a1 20 00 01 	mov    BYTE PTR [rip+0x20a1cc],0x1        # 20c2e0 <unbuffered>
2114:	eb 82                	jmp    2098 <main+0xb8>
2116:	66 2e 0f 1f 84 00 00 	nop    WORD PTR cs:[rax+rax*1+0x0]
211d:	00 00 00
2120:	83 f8 39             	cmp    eax,0x39
2123:	0f 8e bf 00 00 00    	jle    21e8 <main+0x208>
2129:	83 f8 61             	cmp    eax,0x61
212c:	0f 84 8e 03 00 00    	je     24c0 <main+0x4e0>
2132:	0f 8e 28 03 00 00    	jle    2460 <main+0x480>
2138:	83 f8 62             	cmp    eax,0x62
213b:	0f 85 0b 05 00 00    	jne    264c <main+0x66c>
2141:	45 85 e4             	test   r12d,r12d
2144:	0f 85 5e 1b 00 00    	jne    3ca8 <main+0x1cc8>
214a:	48 8d 35 a6 6b 00 00 	lea    rsi,[rip+0x6ba6]        # 8cf7 <_IO_stdin_used+0x237>
2151:	ba 05 00 00 00       	mov    edx,0x5
2156:	31 ff                	xor    edi,edi
2158:	41 bc 01 00 00 00    	mov    r12d,0x1
215e:	e8 dd fa ff ff       	call   1c40 <dcgettext@plt>
2163:	48 8b 3d 0e a1 20 00 	mov    rdi,QWORD PTR [rip+0x20a10e]        # 20c278 <optarg@@GLIBC_2.2.5>
216a:	48 8d 0d 47 7a 00 00 	lea    rcx,[rip+0x7a47]        # 9bb8 <multipliers.7397>
2171:	49 89 c0             	mov    r8,rax
2174:	45 31 c9             	xor    r9d,r9d
2177:	48 ba ff ff ff ff ff 	movabs rdx,0x7fffffffffffffff
217e:	ff ff 7f
2181:	be 01 00 00 00       	mov    esi,0x1
2186:	e8 65 5c 00 00       	call   7df0 <xdectoumax>
218b:	48 89 04 24          	mov    QWORD PTR [rsp],rax
218f:	e9 04 ff ff ff       	jmp    2098 <main+0xb8>
2194:	0f 1f 40 00          	nop    DWORD PTR [rax+0x0]
2198:	3d 81 00 00 00       	cmp    eax,0x81
219d:	0f 84 cd 03 00 00    	je     2570 <main+0x590>
21a3:	0f 8e a7 03 00 00    	jle    2550 <main+0x570>
21a9:	3d 82 00 00 00       	cmp    eax,0x82
21ae:	0f 84 54 03 00 00    	je     2508 <main+0x528>
21b4:	3d 83 00 00 00       	cmp    eax,0x83
21b9:	0f 85 6d 17 00 00    	jne    392c <main+0x194c>
21bf:	4c 8b 2d b2 a0 20 00 	mov    r13,QWORD PTR [rip+0x20a0b2]        # 20c278 <optarg@@GLIBC_2.2.5>
21c6:	4c 89 ef             	mov    rdi,r13
21c9:	e8 f2 31 00 00       	call   53c0 <last_component>
21ce:	49 39 c5             	cmp    r13,rax
21d1:	0f 85 c7 18 00 00    	jne    3a9e <main+0x1abe>
21d7:	4c 89 2d ba a1 20 00 	mov    QWORD PTR [rip+0x20a1ba],r13        # 20c398 <additional_suffix>
21de:	e9 b5 fe ff ff       	jmp    2098 <main+0xb8>
21e3:	0f 1f 44 00 00       	nop    DWORD PTR [rax+rax*1+0x0]
21e8:	83 f8 30             	cmp    eax,0x30
21eb:	7d 63                	jge    2250 <main+0x270>
21ed:	3d 7d ff ff ff       	cmp    eax,0xffffff7d
21f2:	0f 85 4a 16 00 00    	jne    3842 <main+0x1862>
21f8:	48 83 ec 08          	sub    rsp,0x8
21fc:	48 8b 3d 65 a0 20 00 	mov    rdi,QWORD PTR [rip+0x20a065]        # 20c268 <stdout@@GLIBC_2.2.5>
2203:	48 8b 0d 1e 9e 20 00 	mov    rcx,QWORD PTR [rip+0x209e1e]        # 20c028 <Version>
220a:	6a 00                	push   0x0
220c:	4c 8d 0d b1 6b 00 00 	lea    r9,[rip+0x6bb1]        # 8dc4 <_IO_stdin_used+0x304>
2213:	4c 8d 05 be 6b 00 00 	lea    r8,[rip+0x6bbe]        # 8dd8 <_IO_stdin_used+0x318>
221a:	48 8d 15 60 6a 00 00 	lea    rdx,[rip+0x6a60]        # 8c81 <_IO_stdin_used+0x1c1>
2221:	48 8d 35 dd 69 00 00 	lea    rsi,[rip+0x69dd]        # 8c05 <_IO_stdin_used+0x145>
2228:	31 c0                	xor    eax,eax
222a:	e8 d1 56 00 00       	call   7900 <version_etc>
222f:	31 ff                	xor    edi,edi
2231:	e8 ea fc ff ff       	call   1f20 <exit@plt>
2236:	66 2e 0f 1f 84 00 00 	nop    WORD PTR cs:[rax+rax*1+0x0]
223d:	00 00 00
2240:	c6 05 9a a0 20 00 01 	mov    BYTE PTR [rip+0x20a09a],0x1        # 20c2e1 <elide_empty_files>
2247:	e9 4c fe ff ff       	jmp    2098 <main+0xb8>
224c:	0f 1f 40 00          	nop    DWORD PTR [rax+0x0]
2250:	45 85 e4             	test   r12d,r12d
2253:	74 1c                	je     2271 <main+0x291>
2255:	41 83 fc 04          	cmp    r12d,0x4
2259:	0f 85 49 1a 00 00    	jne    3ca8 <main+0x1cc8>
225f:	45 85 f6             	test   r14d,r14d
2262:	0f 84 85 06 00 00    	je     28ed <main+0x90d>
2268:	45 39 ee             	cmp    r14d,r13d
226b:	0f 84 7c 06 00 00    	je     28ed <main+0x90d>
2271:	41 83 ef 30          	sub    r15d,0x30
2275:	45 89 ee             	mov    r14d,r13d
2278:	41 bc 04 00 00 00    	mov    r12d,0x4
227e:	49 63 c7             	movsxd rax,r15d
2281:	48 89 04 24          	mov    QWORD PTR [rsp],rax
2285:	e9 0e fe ff ff       	jmp    2098 <main+0xb8>
228a:	66 0f 1f 44 00 00    	nop    WORD PTR [rax+rax*1+0x0]
2290:	4c 8b 2d e1 9f 20 00 	mov    r13,QWORD PTR [rip+0x209fe1]        # 20c278 <optarg@@GLIBC_2.2.5>
2297:	41 0f be 45 00       	movsx  eax,BYTE PTR [r13+0x0]
229c:	84 c0                	test   al,al
229e:	0f 84 9c 19 00 00    	je     3c40 <main+0x1c60>
22a4:	41 80 7d 01 00       	cmp    BYTE PTR [r13+0x1],0x0
22a9:	74 19                	je     22c4 <main+0x2e4>
22ab:	48 8d 35 c0 6a 00 00 	lea    rsi,[rip+0x6ac0]        # 8d72 <_IO_stdin_used+0x2b2>
22b2:	4c 89 ef             	mov    rdi,r13
22b5:	e8 e6 fa ff ff       	call   1da0 <strcmp@plt>
22ba:	85 c0                	test   eax,eax
22bc:	0f 85 1b 1a 00 00    	jne    3cdd <main+0x1cfd>
22c2:	31 c0                	xor    eax,eax
22c4:	8b 15 46 9d 20 00    	mov    edx,DWORD PTR [rip+0x209d46]        # 20c010 <eolchar>
22ca:	85 d2                	test   edx,edx
22cc:	78 08                	js     22d6 <main+0x2f6>
22ce:	39 c2                	cmp    edx,eax
22d0:	0f 85 e3 19 00 00    	jne    3cb9 <main+0x1cd9>
22d6:	89 05 34 9d 20 00    	mov    DWORD PTR [rip+0x209d34],eax        # 20c010 <eolchar>
22dc:	e9 b7 fd ff ff       	jmp    2098 <main+0xb8>
22e1:	0f 1f 80 00 00 00 00 	nop    DWORD PTR [rax+0x0]
22e8:	83 f8 6c             	cmp    eax,0x6c
22eb:	0f 85 3b 16 00 00    	jne    392c <main+0x194c>
22f1:	45 85 e4             	test   r12d,r12d
22f4:	0f 85 ae 19 00 00    	jne    3ca8 <main+0x1cc8>
22fa:	48 8d 35 0e 6a 00 00 	lea    rsi,[rip+0x6a0e]        # 8d0f <_IO_stdin_used+0x24f>
2301:	ba 05 00 00 00       	mov    edx,0x5
2306:	31 ff                	xor    edi,edi
2308:	41 bc 03 00 00 00    	mov    r12d,0x3
230e:	e8 2d f9 ff ff       	call   1c40 <dcgettext@plt>
2313:	48 8b 3d 5e 9f 20 00 	mov    rdi,QWORD PTR [rip+0x209f5e]        # 20c278 <optarg@@GLIBC_2.2.5>
231a:	48 8d 0d 20 7e 00 00 	lea    rcx,[rip+0x7e20]        # a141 <quoting_style_vals+0x81>
2321:	49 89 c0             	mov    r8,rax
2324:	45 31 c9             	xor    r9d,r9d
2327:	48 c7 c2 ff ff ff ff 	mov    rdx,0xffffffffffffffff
232e:	be 01 00 00 00       	mov    esi,0x1
2333:	e8 b8 5a 00 00       	call   7df0 <xdectoumax>
2338:	48 89 04 24          	mov    QWORD PTR [rsp],rax
233c:	e9 57 fd ff ff       	jmp    2098 <main+0xb8>
2341:	0f 1f 80 00 00 00 00 	nop    DWORD PTR [rax+0x0]
2348:	45 85 e4             	test   r12d,r12d
234b:	0f 85 57 19 00 00    	jne    3ca8 <main+0x1cc8>
2351:	e8 5a fc ff ff       	call   1fb0 <__ctype_b_loc@plt>
2356:	48 8b 08             	mov    rcx,QWORD PTR [rax]
2359:	48 8b 05 18 9f 20 00 	mov    rax,QWORD PTR [rip+0x209f18]        # 20c278 <optarg@@GLIBC_2.2.5>
2360:	eb 0d                	jmp    236f <main+0x38f>
2362:	66 0f 1f 44 00 00    	nop    WORD PTR [rax+rax*1+0x0]
2368:	48 89 05 09 9f 20 00 	mov    QWORD PTR [rip+0x209f09],rax        # 20c278 <optarg@@GLIBC_2.2.5>
236f:	49 89 c5             	mov    r13,rax
2372:	48 83 c0 01          	add    rax,0x1
2376:	41 0f b6 55 00       	movzx  edx,BYTE PTR [r13+0x0]
237b:	f6 44 51 01 20       	test   BYTE PTR [rcx+rdx*2+0x1],0x20
2380:	75 e6                	jne    2368 <main+0x388>
2382:	48 8d 3d 9e 69 00 00 	lea    rdi,[rip+0x699e]        # 8d27 <_IO_stdin_used+0x267>
2389:	b9 02 00 00 00       	mov    ecx,0x2
238e:	4c 89 ee             	mov    rsi,r13
2391:	f3 a6                	repz cmps BYTE PTR ds:[rsi],BYTE PTR es:[rdi]
2393:	0f 97 c0             	seta   al
2396:	1c 00                	sbb    al,0x0
2398:	84 c0                	test   al,al
239a:	0f 85 e3 01 00 00    	jne    2583 <main+0x5a3>
23a0:	49 83 c5 02          	add    r13,0x2
23a4:	41 bc 07 00 00 00    	mov    r12d,0x7
23aa:	4c 89 2d c7 9e 20 00 	mov    QWORD PTR [rip+0x209ec7],r13        # 20c278 <optarg@@GLIBC_2.2.5>
23b1:	48 8b 3d c0 9e 20 00 	mov    rdi,QWORD PTR [rip+0x209ec0]        # 20c278 <optarg@@GLIBC_2.2.5>
23b8:	be 2f 00 00 00       	mov    esi,0x2f
23bd:	e8 ee f8 ff ff       	call   1cb0 <strchr@plt>
23c2:	31 ff                	xor    edi,edi
23c4:	48 85 c0             	test   rax,rax
23c7:	49 89 c5             	mov    r13,rax
23ca:	ba 05 00 00 00       	mov    edx,0x5
23cf:	48 8d 35 57 69 00 00 	lea    rsi,[rip+0x6957]        # 8d2d <_IO_stdin_used+0x26d>
23d6:	0f 84 ce 04 00 00    	je     28aa <main+0x8ca>
23dc:	e8 5f f8 ff ff       	call   1c40 <dcgettext@plt>
23e1:	49 8d 7d 01          	lea    rdi,[r13+0x1]
23e5:	48 8d 0d 55 7d 00 00 	lea    rcx,[rip+0x7d55]        # a141 <quoting_style_vals+0x81>
23ec:	45 31 c9             	xor    r9d,r9d
23ef:	48 83 ca ff          	or     rdx,0xffffffffffffffff
23f3:	49 89 c0             	mov    r8,rax
23f6:	be 01 00 00 00       	mov    esi,0x1
23fb:	e8 f0 59 00 00       	call   7df0 <xdectoumax>
2400:	4c 3b 2d 71 9e 20 00 	cmp    r13,QWORD PTR [rip+0x209e71]        # 20c278 <optarg@@GLIBC_2.2.5>
2407:	49 89 c7             	mov    r15,rax
240a:	48 89 04 24          	mov    QWORD PTR [rsp],rax
240e:	0f 84 84 fc ff ff    	je     2098 <main+0xb8>
2414:	48 8d 35 2b 69 00 00 	lea    rsi,[rip+0x692b]        # 8d46 <_IO_stdin_used+0x286>
241b:	ba 05 00 00 00       	mov    edx,0x5
2420:	31 ff                	xor    edi,edi
2422:	41 c6 45 00 00       	mov    BYTE PTR [r13+0x0],0x0
2427:	e8 14 f8 ff ff       	call   1c40 <dcgettext@plt>
242c:	48 8b 3d 45 9e 20 00 	mov    rdi,QWORD PTR [rip+0x209e45]        # 20c278 <optarg@@GLIBC_2.2.5>
2433:	48 8d 0d 07 7d 00 00 	lea    rcx,[rip+0x7d07]        # a141 <quoting_style_vals+0x81>
243a:	49 89 c0             	mov    r8,rax
243d:	45 31 c9             	xor    r9d,r9d
2440:	4c 89 fa             	mov    rdx,r15
2443:	be 01 00 00 00       	mov    esi,0x1
2448:	e8 a3 59 00 00       	call   7df0 <xdectoumax>
244d:	48 89 44 24 10       	mov    QWORD PTR [rsp+0x10],rax
2452:	e9 41 fc ff ff       	jmp    2098 <main+0xb8>
2457:	66 0f 1f 84 00 00 00 	nop    WORD PTR [rax+rax*1+0x0]
245e:	00 00
2460:	83 f8 43             	cmp    eax,0x43
2463:	0f 85 c3 14 00 00    	jne    392c <main+0x194c>
2469:	45 85 e4             	test   r12d,r12d
246c:	0f 85 36 18 00 00    	jne    3ca8 <main+0x1cc8>
2472:	48 8d 35 7e 68 00 00 	lea    rsi,[rip+0x687e]        # 8cf7 <_IO_stdin_used+0x237>
2479:	ba 05 00 00 00       	mov    edx,0x5
247e:	31 ff                	xor    edi,edi
2480:	41 bc 02 00 00 00    	mov    r12d,0x2
2486:	e8 b5 f7 ff ff       	call   1c40 <dcgettext@plt>
248b:	48 8b 3d e6 9d 20 00 	mov    rdi,QWORD PTR [rip+0x209de6]        # 20c278 <optarg@@GLIBC_2.2.5>
2492:	48 8d 0d 1f 77 00 00 	lea    rcx,[rip+0x771f]        # 9bb8 <multipliers.7397>
2499:	49 89 c0             	mov    r8,rax
249c:	45 31 c9             	xor    r9d,r9d
249f:	48 ba ff ff ff ff ff 	movabs rdx,0x7fffffffffffffff
24a6:	ff ff 7f
24a9:	be 01 00 00 00       	mov    esi,0x1
24ae:	e8 3d 59 00 00       	call   7df0 <xdectoumax>
24b3:	48 89 04 24          	mov    QWORD PTR [rsp],rax
24b7:	e9 dc fb ff ff       	jmp    2098 <main+0xb8>
24bc:	0f 1f 40 00          	nop    DWORD PTR [rax+0x0]
24c0:	48 8d 35 1a 68 00 00 	lea    rsi,[rip+0x681a]        # 8ce1 <_IO_stdin_used+0x221>
24c7:	ba 05 00 00 00       	mov    edx,0x5
24cc:	31 ff                	xor    edi,edi
24ce:	e8 6d f7 ff ff       	call   1c40 <dcgettext@plt>
24d3:	48 8b 3d 9e 9d 20 00 	mov    rdi,QWORD PTR [rip+0x209d9e]        # 20c278 <optarg@@GLIBC_2.2.5>
24da:	48 8d 0d 60 7c 00 00 	lea    rcx,[rip+0x7c60]        # a141 <quoting_style_vals+0x81>
24e1:	49 89 c0             	mov    r8,rax
24e4:	45 31 c9             	xor    r9d,r9d
24e7:	48 ba ff ff ff ff ff 	movabs rdx,0x1fffffffffffffff
24ee:	ff ff 1f
24f1:	31 f6                	xor    esi,esi
24f3:	e8 f8 58 00 00       	call   7df0 <xdectoumax>
24f8:	48 89 05 a9 9e 20 00 	mov    QWORD PTR [rip+0x209ea9],rax        # 20c3a8 <suffix_length>
24ff:	e9 94 fb ff ff       	jmp    2098 <main+0xb8>
2504:	0f 1f 40 00          	nop    DWORD PTR [rax+0x0]
2508:	48 8d 35 9f 68 00 00 	lea    rsi,[rip+0x689f]        # 8dae <_IO_stdin_used+0x2ee>
250f:	ba 05 00 00 00       	mov    edx,0x5
2514:	31 ff                	xor    edi,edi
2516:	e8 25 f7 ff ff       	call   1c40 <dcgettext@plt>
251b:	48 8b 54 24 08       	mov    rdx,QWORD PTR [rsp+0x8]
2520:	48 8b 3d 51 9d 20 00 	mov    rdi,QWORD PTR [rip+0x209d51]        # 20c278 <optarg@@GLIBC_2.2.5>
2527:	48 8d 0d 8a 76 00 00 	lea    rcx,[rip+0x768a]        # 9bb8 <multipliers.7397>
252e:	49 89 c0             	mov    r8,rax
2531:	45 31 c9             	xor    r9d,r9d
2534:	be 01 00 00 00       	mov    esi,0x1
2539:	48 f7 d2             	not    rdx
253c:	e8 af 58 00 00       	call   7df0 <xdectoumax>
2541:	48 89 44 24 40       	mov    QWORD PTR [rsp+0x40],rax
2546:	e9 4d fb ff ff       	jmp    2098 <main+0xb8>
254b:	0f 1f 44 00 00       	nop    DWORD PTR [rax+rax*1+0x0]
2550:	41 83 c7 80          	add    r15d,0xffffff80
2554:	0f 85 d2 13 00 00    	jne    392c <main+0x194c>
255a:	c6 05 81 9d 20 00 01 	mov    BYTE PTR [rip+0x209d81],0x1        # 20c2e2 <verbose>
2561:	e9 32 fb ff ff       	jmp    2098 <main+0xb8>
2566:	66 2e 0f 1f 84 00 00 	nop    WORD PTR cs:[rax+rax*1+0x0]
256d:	00 00 00
2570:	48 8b 05 01 9d 20 00 	mov    rax,QWORD PTR [rip+0x209d01]        # 20c278 <optarg@@GLIBC_2.2.5>
2577:	48 89 05 82 9f 20 00 	mov    QWORD PTR [rip+0x209f82],rax        # 20c500 <filter_command>
257e:	e9 15 fb ff ff       	jmp    2098 <main+0xb8>
2583:	48 8d 35 a0 67 00 00 	lea    rsi,[rip+0x67a0]        # 8d2a <_IO_stdin_used+0x26a>
258a:	ba 02 00 00 00       	mov    edx,0x2
258f:	4c 89 ef             	mov    rdi,r13
2592:	41 bc 05 00 00 00    	mov    r12d,0x5
2598:	e8 e3 f5 ff ff       	call   1b80 <strncmp@plt>
259d:	85 c0                	test   eax,eax
259f:	0f 85 0c fe ff ff    	jne    23b1 <main+0x3d1>
25a5:	49 83 c5 02          	add    r13,0x2
25a9:	41 bc 06 00 00 00    	mov    r12d,0x6
25af:	4c 89 2d c2 9c 20 00 	mov    QWORD PTR [rip+0x209cc2],r13        # 20c278 <optarg@@GLIBC_2.2.5>
25b6:	e9 f6 fd ff ff       	jmp    23b1 <main+0x3d1>
25bb:	48 8d 05 db 67 00 00 	lea    rax,[rip+0x67db]        # 8d9d <_IO_stdin_used+0x2dd>
25c2:	48 89 05 57 9a 20 00 	mov    QWORD PTR [rip+0x209a57],rax        # 20c020 <suffix_alphabet>
25c9:	4c 8b 2d a8 9c 20 00 	mov    r13,QWORD PTR [rip+0x209ca8]        # 20c278 <optarg@@GLIBC_2.2.5>
25d0:	4d 85 ed             	test   r13,r13
25d3:	0f 84 bf fa ff ff    	je     2098 <main+0xb8>
25d9:	31 c0                	xor    eax,eax
25db:	48 83 c9 ff          	or     rcx,0xffffffffffffffff
25df:	4c 89 ef             	mov    rdi,r13
25e2:	f2 ae                	repnz scas al,BYTE PTR es:[rdi]
25e4:	4c 89 ef             	mov    rdi,r13
25e7:	48 89 ce             	mov    rsi,rcx
25ea:	48 f7 d6             	not    rsi
25ed:	48 8d 46 ff          	lea    rax,[rsi-0x1]
25f1:	48 8b 35 28 9a 20 00 	mov    rsi,QWORD PTR [rip+0x209a28]        # 20c020 <suffix_alphabet>
25f8:	48 89 44 24 18       	mov    QWORD PTR [rsp+0x18],rax
25fd:	e8 3e f7 ff ff       	call   1d40 <strspn@plt>
2602:	48 39 44 24 18       	cmp    QWORD PTR [rsp+0x18],rax
2607:	0f 85 f7 15 00 00    	jne    3c04 <main+0x1c24>
260d:	41 80 7d 00 30       	cmp    BYTE PTR [r13+0x0],0x30
2612:	75 2c                	jne    2640 <main+0x660>
2614:	41 80 7d 01 00       	cmp    BYTE PTR [r13+0x1],0x0
2619:	49 8d 45 01          	lea    rax,[r13+0x1]
261d:	75 12                	jne    2631 <main+0x651>
261f:	eb 1f                	jmp    2640 <main+0x660>
2621:	0f 1f 80 00 00 00 00 	nop    DWORD PTR [rax+0x0]
2628:	48 83 c0 01          	add    rax,0x1
262c:	80 38 00             	cmp    BYTE PTR [rax],0x0
262f:	74 0f                	je     2640 <main+0x660>
2631:	48 89 05 40 9c 20 00 	mov    QWORD PTR [rip+0x209c40],rax        # 20c278 <optarg@@GLIBC_2.2.5>
2638:	80 38 30             	cmp    BYTE PTR [rax],0x30
263b:	49 89 c5             	mov    r13,rax
263e:	74 e8                	je     2628 <main+0x648>
2640:	4c 89 2d 59 9d 20 00 	mov    QWORD PTR [rip+0x209d59],r13        # 20c3a0 <numeric_suffix_start>
2647:	e9 4c fa ff ff       	jmp    2098 <main+0xb8>
264c:	83 f8 64             	cmp    eax,0x64
264f:	0f 85 d7 12 00 00    	jne    392c <main+0x194c>
2655:	48 8d 05 36 67 00 00 	lea    rax,[rip+0x6736]        # 8d92 <_IO_stdin_used+0x2d2>
265c:	48 89 05 bd 99 20 00 	mov    QWORD PTR [rip+0x2099bd],rax        # 20c020 <suffix_alphabet>
2663:	e9 61 ff ff ff       	jmp    25c9 <main+0x5e9>
2668:	48 83 7c 24 10 00    	cmp    QWORD PTR [rsp+0x10],0x0
266e:	74 0e                	je     267e <main+0x69e>
2670:	48 83 3d 88 9e 20 00 	cmp    QWORD PTR [rip+0x209e88],0x0        # 20c500 <filter_command>
2677:	00
2678:	0f 85 8d 12 00 00    	jne    390b <main+0x192b>
267e:	45 85 e4             	test   r12d,r12d
2681:	0f 84 53 02 00 00    	je     28da <main+0x8fa>
2687:	48 83 3c 24 00       	cmp    QWORD PTR [rsp],0x0
268c:	0f 84 d2 15 00 00    	je     3c64 <main+0x1c84>
2692:	83 3d 77 99 20 00 00 	cmp    DWORD PTR [rip+0x209977],0x0        # 20c010 <eolchar>
2699:	79 0a                	jns    26a5 <main+0x6c5>
269b:	c7 05 6b 99 20 00 0a 	mov    DWORD PTR [rip+0x20996b],0xa        # 20c010 <eolchar>
26a2:	00 00 00
26a5:	48 8b 3d f4 9c 20 00 	mov    rdi,QWORD PTR [rip+0x209cf4]        # 20c3a0 <numeric_suffix_start>
26ac:	45 8d 6c 24 fb       	lea    r13d,[r12-0x5]
26b1:	48 85 ff             	test   rdi,rdi
26b4:	0f 84 6d 02 00 00    	je     2927 <main+0x947>
26ba:	41 83 fd 02          	cmp    r13d,0x2
26be:	c6 05 53 99 20 00 00 	mov    BYTE PTR [rip+0x209953],0x0        # 20c018 <suffix_auto>
26c5:	0f 86 db 02 00 00    	jbe    29a6 <main+0x9c6>
26cb:	45 31 f6             	xor    r14d,r14d
26ce:	48 83 3d d2 9c 20 00 	cmp    QWORD PTR [rip+0x209cd2],0x0        # 20c3a8 <suffix_length>
26d5:	00
26d6:	0f 85 be 02 00 00    	jne    299a <main+0x9ba>
26dc:	49 83 fe 02          	cmp    r14,0x2
26e0:	b8 02 00 00 00       	mov    eax,0x2
26e5:	49 0f 43 c6          	cmovae rax,r14
26e9:	48 89 05 b8 9c 20 00 	mov    QWORD PTR [rip+0x209cb8],rax        # 20c3a8 <suffix_length>
26f0:	8b 05 7a 9b 20 00    	mov    eax,DWORD PTR [rip+0x209b7a]        # 20c270 <optind@@GLIBC_2.2.5>
26f6:	39 e8                	cmp    eax,ebp
26f8:	7d 40                	jge    273a <main+0x75a>
26fa:	48 63 c8             	movsxd rcx,eax
26fd:	8d 50 01             	lea    edx,[rax+0x1]
2700:	48 8d 34 cd 00 00 00 	lea    rsi,[rcx*8+0x0]
2707:	00
2708:	48 8b 0c cb          	mov    rcx,QWORD PTR [rbx+rcx*8]
270c:	39 ea                	cmp    edx,ebp
270e:	89 15 5c 9b 20 00    	mov    DWORD PTR [rip+0x209b5c],edx        # 20c270 <optind@@GLIBC_2.2.5>
2714:	48 89 0d 75 9c 20 00 	mov    QWORD PTR [rip+0x209c75],rcx        # 20c390 <infile>
271b:	7d 1d                	jge    273a <main+0x75a>
271d:	48 8b 54 33 08       	mov    rdx,QWORD PTR [rbx+rsi*1+0x8]
2722:	83 c0 02             	add    eax,0x2
2725:	39 e8                	cmp    eax,ebp
2727:	89 05 43 9b 20 00    	mov    DWORD PTR [rip+0x209b43],eax        # 20c270 <optind@@GLIBC_2.2.5>
272d:	48 89 15 8c 9c 20 00 	mov    QWORD PTR [rip+0x209c8c],rdx        # 20c3c0 <outbase>
2734:	0f 8c 28 13 00 00    	jl     3a62 <main+0x1a82>
273a:	48 8b 3d 5f 9c 20 00 	mov    rdi,QWORD PTR [rip+0x209c5f]        # 20c3a0 <numeric_suffix_start>
2741:	48 85 ff             	test   rdi,rdi
2744:	74 2b                	je     2771 <main+0x791>
2746:	31 c0                	xor    eax,eax
2748:	48 83 c9 ff          	or     rcx,0xffffffffffffffff
274c:	ba 05 00 00 00       	mov    edx,0x5
2751:	f2 ae                	repnz scas al,BYTE PTR es:[rdi]
2753:	48 8d 35 66 73 00 00 	lea    rsi,[rip+0x7366]        # 9ac0 <_IO_stdin_used+0x1000>
275a:	48 89 c8             	mov    rax,rcx
275d:	48 f7 d0             	not    rax
2760:	48 83 e8 01          	sub    rax,0x1
2764:	48 3b 05 3d 9c 20 00 	cmp    rax,QWORD PTR [rip+0x209c3d]        # 20c3a8 <suffix_length>
276b:	0f 87 a6 11 00 00    	ja     3917 <main+0x1937>
2771:	48 8b 1d 18 9c 20 00 	mov    rbx,QWORD PTR [rip+0x209c18]        # 20c390 <infile>
2778:	48 8d 35 93 74 00 00 	lea    rsi,[rip+0x7493]        # 9c12 <multipliers.7397+0x5a>
277f:	48 89 df             	mov    rdi,rbx
2782:	e8 19 f6 ff ff       	call   1da0 <strcmp@plt>
2787:	85 c0                	test   eax,eax
2789:	74 16                	je     27a1 <main+0x7c1>
278b:	31 c9                	xor    ecx,ecx
278d:	31 d2                	xor    edx,edx
278f:	31 ff                	xor    edi,edi
2791:	48 89 de             	mov    rsi,rbx
2794:	e8 47 2d 00 00       	call   54e0 <fd_reopen>
2799:	85 c0                	test   eax,eax
279b:	0f 88 7e 12 00 00    	js     3a1f <main+0x1a3f>
27a1:	48 8d 15 58 9b 20 00 	lea    rdx,[rip+0x209b58]        # 20c300 <in_stat_buf>
27a8:	31 f6                	xor    esi,esi
27aa:	bf 01 00 00 00       	mov    edi,0x1
27af:	e8 6c f6 ff ff       	call   1e20 <__fxstat@plt>
27b4:	85 c0                	test   eax,eax
27b6:	0f 85 30 12 00 00    	jne    39ec <main+0x1a0c>
27bc:	48 83 7c 24 40 00    	cmp    QWORD PTR [rsp+0x40],0x0
27c2:	75 29                	jne    27ed <main+0x80d>
27c4:	48 8b 35 6d 9b 20 00 	mov    rsi,QWORD PTR [rip+0x209b6d]        # 20c338 <in_stat_buf+0x38>
27cb:	48 b8 00 00 fe ff ff 	movabs rax,0x1ffffffffffe0000
27d2:	ff ff 1f
27d5:	48 8d 96 00 00 fe ff 	lea    rdx,[rsi-0x20000]
27dc:	48 39 c2             	cmp    rdx,rax
27df:	b8 00 00 02 00       	mov    eax,0x20000
27e4:	48 0f 46 c6          	cmovbe rax,rsi
27e8:	48 89 44 24 40       	mov    QWORD PTR [rsp+0x40],rax
27ed:	48 8b 5c 24 08       	mov    rbx,QWORD PTR [rsp+0x8]
27f2:	48 8b 7c 24 40       	mov    rdi,QWORD PTR [rsp+0x40]
27f7:	48 83 cd ff          	or     rbp,0xffffffffffffffff
27fb:	48 01 df             	add    rdi,rbx
27fe:	e8 5d 52 00 00       	call   7a60 <xmalloc>
2803:	48 8d 4c 18 ff       	lea    rcx,[rax+rbx*1-0x1]
2808:	31 d2                	xor    edx,edx
280a:	48 89 c8             	mov    rax,rcx
280d:	48 f7 f3             	div    rbx
2810:	48 b8 ff ff ff ff ff 	movabs rax,0x7fffffffffffffff
2817:	ff ff 7f
281a:	48 89 44 24 18       	mov    QWORD PTR [rsp+0x18],rax
281f:	48 29 d1             	sub    rcx,rdx
2822:	41 83 fd 01          	cmp    r13d,0x1
2826:	48 89 4c 24 48       	mov    QWORD PTR [rsp+0x48],rcx
282b:	0f 86 be 01 00 00    	jbe    29ef <main+0xa0f>
2831:	48 83 3d c7 9c 20 00 	cmp    QWORD PTR [rip+0x209cc7],0x0        # 20c500 <filter_command>
2838:	00
2839:	74 51                	je     288c <main+0x8ac>
283b:	48 8d 3d 9e 9b 20 00 	lea    rdi,[rip+0x209b9e]        # 20c3e0 <newblocked>
2842:	e8 69 f5 ff ff       	call   1db0 <sigemptyset@plt>
2847:	48 8d 94 24 80 00 00 	lea    rdx,[rsp+0x80]
284e:	00
284f:	31 f6                	xor    esi,esi
2851:	bf 0d 00 00 00       	mov    edi,0xd
2856:	e8 65 f3 ff ff       	call   1bc0 <sigaction@plt>
285b:	48 83 bc 24 80 00 00 	cmp    QWORD PTR [rsp+0x80],0x1
2862:	00 01
2864:	74 11                	je     2877 <main+0x897>
2866:	48 8d 3d 73 9b 20 00 	lea    rdi,[rip+0x209b73]        # 20c3e0 <newblocked>
286d:	be 0d 00 00 00       	mov    esi,0xd
2872:	e8 19 f7 ff ff       	call   1f90 <sigaddset@plt>
2877:	48 8d 15 e2 9b 20 00 	lea    rdx,[rip+0x209be2]        # 20c460 <oldblocked>
287e:	48 8d 35 5b 9b 20 00 	lea    rsi,[rip+0x209b5b]        # 20c3e0 <newblocked>
2885:	31 ff                	xor    edi,edi
2887:	e8 b4 f2 ff ff       	call   1b40 <sigprocmask@plt>
288c:	41 83 ec 02          	sub    r12d,0x2
2890:	41 83 fc 05          	cmp    r12d,0x5
2894:	0f 87 f2 0b 00 00    	ja     348c <main+0x14ac>
289a:	48 8d 15 af 72 00 00 	lea    rdx,[rip+0x72af]        # 9b50 <_IO_stdin_used+0x1090>
28a1:	4a 63 04 a2          	movsxd rax,DWORD PTR [rdx+r12*4]
28a5:	48 01 d0             	add    rax,rdx
28a8:	ff e0                	jmp    rax
28aa:	e8 91 f3 ff ff       	call   1c40 <dcgettext@plt>
28af:	48 8b 3d c2 99 20 00 	mov    rdi,QWORD PTR [rip+0x2099c2]        # 20c278 <optarg@@GLIBC_2.2.5>
28b6:	48 8d 0d 84 78 00 00 	lea    rcx,[rip+0x7884]        # a141 <quoting_style_vals+0x81>
28bd:	49 89 c0             	mov    r8,rax
28c0:	45 31 c9             	xor    r9d,r9d
28c3:	48 83 ca ff          	or     rdx,0xffffffffffffffff
28c7:	be 01 00 00 00       	mov    esi,0x1
28cc:	e8 1f 55 00 00       	call   7df0 <xdectoumax>
28d1:	48 89 04 24          	mov    QWORD PTR [rsp],rax
28d5:	e9 be f7 ff ff       	jmp    2098 <main+0xb8>
28da:	48 c7 04 24 e8 03 00 	mov    QWORD PTR [rsp],0x3e8
28e1:	00
28e2:	41 bc 03 00 00 00    	mov    r12d,0x3
28e8:	e9 a5 fd ff ff       	jmp    2692 <main+0x6b2>
28ed:	48 8b 3c 24          	mov    rdi,QWORD PTR [rsp]
28f1:	48 b8 99 99 99 99 99 	movabs rax,0x1999999999999999
28f8:	99 99 19
28fb:	48 39 c7             	cmp    rdi,rax
28fe:	0f 87 5f 12 00 00    	ja     3b63 <main+0x1b83>
2904:	48 6b c7 0a          	imul   rax,rdi,0xa
2908:	41 8d 57 d0          	lea    edx,[r15-0x30]
290c:	48 63 d2             	movsxd rdx,edx
290f:	48 01 d0             	add    rax,rdx
2912:	48 39 f8             	cmp    rax,rdi
2915:	0f 82 48 12 00 00    	jb     3b63 <main+0x1b83>
291b:	48 89 04 24          	mov    QWORD PTR [rsp],rax
291f:	45 89 ee             	mov    r14d,r13d
2922:	e9 71 f7 ff ff       	jmp    2098 <main+0xb8>
2927:	41 83 fd 02          	cmp    r13d,0x2
292b:	48 8b 14 24          	mov    rdx,QWORD PTR [rsp]
292f:	0f 87 96 fd ff ff    	ja     26cb <main+0x6eb>
2935:	48 8b 3d e4 96 20 00 	mov    rdi,QWORD PTR [rip+0x2096e4]        # 20c020 <suffix_alphabet>
293c:	31 c0                	xor    eax,eax
293e:	48 83 c9 ff          	or     rcx,0xffffffffffffffff
2942:	f2 ae                	repnz scas al,BYTE PTR es:[rdi]
2944:	48 89 d0             	mov    rax,rdx
2947:	31 d2                	xor    edx,edx
2949:	48 f7 d1             	not    rcx
294c:	48 83 e9 01          	sub    rcx,0x1
2950:	48 f7 f1             	div    rcx
2953:	48 85 d2             	test   rdx,rdx
2956:	40 0f 95 c7          	setne  dil
295a:	48 85 c0             	test   rax,rax
295d:	74 13                	je     2972 <main+0x992>
295f:	31 f6                	xor    esi,esi
2961:	31 d2                	xor    edx,edx
2963:	48 83 c6 01          	add    rsi,0x1
2967:	48 f7 f1             	div    rcx
296a:	48 85 c0             	test   rax,rax
296d:	75 f2                	jne    2961 <main+0x981>
296f:	48 89 f0             	mov    rax,rsi
2972:	40 0f b6 ff          	movzx  edi,dil
2976:	c6 05 9b 96 20 00 00 	mov    BYTE PTR [rip+0x20969b],0x0        # 20c018 <suffix_auto>
297d:	4c 8d 34 07          	lea    r14,[rdi+rax*1]
2981:	48 8b 05 20 9a 20 00 	mov    rax,QWORD PTR [rip+0x209a20]        # 20c3a8 <suffix_length>
2988:	48 85 c0             	test   rax,rax
298b:	0f 84 4b fd ff ff    	je     26dc <main+0x6fc>
2991:	49 39 c6             	cmp    r14,rax
2994:	0f 87 a2 11 00 00    	ja     3b3c <main+0x1b5c>
299a:	c6 05 77 96 20 00 00 	mov    BYTE PTR [rip+0x209677],0x0        # 20c018 <suffix_auto>
29a1:	e9 4a fd ff ff       	jmp    26f0 <main+0x710>
29a6:	48 8d 4c 24 78       	lea    rcx,[rsp+0x78]
29ab:	4c 8d 05 8f 77 00 00 	lea    r8,[rip+0x778f]        # a141 <quoting_style_vals+0x81>
29b2:	ba 0a 00 00 00       	mov    edx,0xa
29b7:	31 f6                	xor    esi,esi
29b9:	e8 62 54 00 00       	call   7e20 <xstrtoumax>
29be:	48 8b 0c 24          	mov    rcx,QWORD PTR [rsp]
29c2:	85 c0                	test   eax,eax
29c4:	48 89 ca             	mov    rdx,rcx
29c7:	0f 85 68 ff ff ff    	jne    2935 <main+0x955>
29cd:	48 8b 54 24 78       	mov    rdx,QWORD PTR [rsp+0x78]
29d2:	48 89 c8             	mov    rax,rcx
29d5:	48 f7 d0             	not    rax
29d8:	48 39 d0             	cmp    rax,rdx
29db:	72 09                	jb     29e6 <main+0xa06>
29dd:	48 39 ca             	cmp    rdx,rcx
29e0:	0f 82 6e 0e 00 00    	jb     3854 <main+0x1874>
29e6:	48 8b 14 24          	mov    rdx,QWORD PTR [rsp]
29ea:	e9 46 ff ff ff       	jmp    2935 <main+0x955>
29ef:	31 f6                	xor    esi,esi
29f1:	31 ff                	xor    edi,edi
29f3:	ba 01 00 00 00       	mov    edx,0x1
29f8:	e8 e3 f2 ff ff       	call   1ce0 <lseek@plt>
29fd:	45 31 ed             	xor    r13d,r13d
2a00:	48 85 c0             	test   rax,rax
2a03:	48 89 c3             	mov    rbx,rax
2a06:	0f 88 5e 05 00 00    	js     2f6a <main+0xf8a>
2a0c:	4c 8b 74 24 40       	mov    r14,QWORD PTR [rsp+0x40]
2a11:	4c 8b 7c 24 48       	mov    r15,QWORD PTR [rsp+0x48]
2a16:	eb 1b                	jmp    2a33 <main+0xa53>
2a18:	48 83 f8 ff          	cmp    rax,0xffffffffffffffff
2a1c:	0f 84 58 05 00 00    	je     2f7a <main+0xf9a>
2a22:	49 8d 6c 05 00       	lea    rbp,[r13+rax*1+0x0]
2a27:	49 39 ee             	cmp    r14,rbp
2a2a:	49 89 ed             	mov    r13,rbp
2a2d:	0f 86 82 0d 00 00    	jbe    37b5 <main+0x17d5>
2a33:	4c 89 f2             	mov    rdx,r14
2a36:	4b 8d 34 2f          	lea    rsi,[r15+r13*1]
2a3a:	31 ff                	xor    edi,edi
2a3c:	4c 29 ea             	sub    rdx,r13
2a3f:	e8 fc 48 00 00       	call   7340 <safe_read>
2a44:	48 85 c0             	test   rax,rax
2a47:	75 cf                	jne    2a18 <main+0xa38>
2a49:	4d 85 ed             	test   r13,r13
2a4c:	0f 88 28 05 00 00    	js     2f7a <main+0xf9a>
2a52:	48 8b 44 24 40       	mov    rax,QWORD PTR [rsp+0x40]
2a57:	49 39 c5             	cmp    r13,rax
2a5a:	48 89 c5             	mov    rbp,rax
2a5d:	49 0f 46 ed          	cmovbe rbp,r13
2a61:	48 83 3c 24 00       	cmp    QWORD PTR [rsp],0x0
2a66:	0f 88 4b 10 00 00    	js     3ab7 <main+0x1ad7>
2a6c:	48 8b 04 24          	mov    rax,QWORD PTR [rsp]
2a70:	49 39 c5             	cmp    r13,rax
2a73:	4c 0f 42 e8          	cmovb  r13,rax
2a77:	4c 89 6c 24 18       	mov    QWORD PTR [rsp+0x18],r13
2a7c:	e9 b0 fd ff ff       	jmp    2831 <main+0x851>
2a81:	4c 8b 3c 24          	mov    r15,QWORD PTR [rsp]
2a85:	31 db                	xor    ebx,ebx
2a87:	41 bd 01 00 00 00    	mov    r13d,0x1
2a8d:	48 8b 54 24 40       	mov    rdx,QWORD PTR [rsp+0x40]
2a92:	48 8b 74 24 48       	mov    rsi,QWORD PTR [rsp+0x48]
2a97:	31 ff                	xor    edi,edi
2a99:	e8 a2 48 00 00       	call   7340 <safe_read>
2a9e:	48 89 44 24 08       	mov    QWORD PTR [rsp+0x8],rax
2aa3:	48 83 c0 01          	add    rax,0x1
2aa7:	0f 84 ad 0e 00 00    	je     395a <main+0x197a>
2aad:	48 8b 44 24 48       	mov    rax,QWORD PTR [rsp+0x48]
2ab2:	48 8b 6c 24 08       	mov    rbp,QWORD PTR [rsp+0x8]
2ab7:	44 8b 25 52 95 20 00 	mov    r12d,DWORD PTR [rip+0x209552]        # 20c010 <eolchar>
2abe:	48 01 c5             	add    rbp,rax
2ac1:	49 89 c6             	mov    r14,rax
2ac4:	48 89 c1             	mov    rcx,rax
2ac7:	44 88 65 00          	mov    BYTE PTR [rbp+0x0],r12b
2acb:	0f 1f 44 00 00       	nop    DWORD PTR [rax+rax*1+0x0]
2ad0:	48 89 ea             	mov    rdx,rbp
2ad3:	44 89 e6             	mov    esi,r12d
2ad6:	48 89 cf             	mov    rdi,rcx
2ad9:	48 29 ca             	sub    rdx,rcx
2adc:	48 83 c2 01          	add    rdx,0x1
2ae0:	e8 6b f2 ff ff       	call   1d50 <memchr@plt>
2ae5:	48 39 c5             	cmp    rbp,rax
2ae8:	0f 84 72 05 00 00    	je     3060 <main+0x1080>
2aee:	48 83 c3 01          	add    rbx,0x1
2af2:	48 8d 48 01          	lea    rcx,[rax+0x1]
2af6:	4c 39 fb             	cmp    rbx,r15
2af9:	72 d5                	jb     2ad0 <main+0xaf0>
2afb:	48 89 ca             	mov    rdx,rcx
2afe:	41 0f b6 fd          	movzx  edi,r13b
2b02:	4c 89 f6             	mov    rsi,r14
2b05:	4c 29 f2             	sub    rdx,r14
2b08:	48 89 0c 24          	mov    QWORD PTR [rsp],rcx
2b0c:	31 db                	xor    ebx,ebx
2b0e:	e8 6d 20 00 00       	call   4b80 <cwrite>
2b13:	48 8b 0c 24          	mov    rcx,QWORD PTR [rsp]
2b17:	44 8b 25 f2 94 20 00 	mov    r12d,DWORD PTR [rip+0x2094f2]        # 20c010 <eolchar>
2b1e:	41 bd 01 00 00 00    	mov    r13d,0x1
2b24:	49 89 ce             	mov    r14,rcx
2b27:	eb a7                	jmp    2ad0 <main+0xaf0>
2b29:	c6 44 24 10 00       	mov    BYTE PTR [rsp+0x10],0x0
2b2e:	48 c7 44 24 18 00 00 	mov    QWORD PTR [rsp+0x18],0x0
2b35:	00 00
2b37:	45 31 e4             	xor    r12d,r12d
2b3a:	48 c7 44 24 08 00 00 	mov    QWORD PTR [rsp+0x8],0x0
2b41:	00 00
2b43:	45 31 ed             	xor    r13d,r13d
2b46:	66 2e 0f 1f 84 00 00 	nop    WORD PTR cs:[rax+rax*1+0x0]
2b4d:	00 00 00
2b50:	48 8b 54 24 40       	mov    rdx,QWORD PTR [rsp+0x40]
2b55:	48 8b 74 24 48       	mov    rsi,QWORD PTR [rsp+0x48]
2b5a:	31 ff                	xor    edi,edi
2b5c:	e8 df 47 00 00       	call   7340 <safe_read>
2b61:	48 83 f8 ff          	cmp    rax,0xffffffffffffffff
2b65:	48 89 c5             	mov    rbp,rax
2b68:	0f 84 4b 0e 00 00    	je     39b9 <main+0x19d9>
2b6e:	48 85 c0             	test   rax,rax
2b71:	0f 84 3b 05 00 00    	je     30b2 <main+0x10d2>
2b77:	48 8b 5c 24 48       	mov    rbx,QWORD PTR [rsp+0x48]
2b7c:	eb 71                	jmp    2bef <main+0xc0f>
2b7e:	66 90                	xchg   ax,ax
2b80:	48 89 ca             	mov    rdx,rcx
2b83:	48 89 df             	mov    rdi,rbx
2b86:	4c 8d 74 0b ff       	lea    r14,[rbx+rcx*1-0x1]
2b8b:	e8 20 f3 ff ff       	call   1eb0 <memrchr@plt>
2b90:	4d 85 e4             	test   r12,r12
2b93:	49 89 c0             	mov    r8,rax
2b96:	0f 84 8c 00 00 00    	je     2c28 <main+0xc48>
2b9c:	4d 85 ed             	test   r13,r13
2b9f:	40 0f 94 c7          	sete   dil
2ba3:	4d 85 c0             	test   r8,r8
2ba6:	0f 85 3c 04 00 00    	jne    2fe8 <main+0x1008>
2bac:	40 84 ff             	test   dil,dil
2baf:	0f 85 33 04 00 00    	jne    2fe8 <main+0x1008>
2bb5:	80 7c 24 10 00       	cmp    BYTE PTR [rsp+0x10],0x0
2bba:	0f 85 a9 00 00 00    	jne    2c69 <main+0xc89>
2bc0:	31 ff                	xor    edi,edi
2bc2:	4d 85 ed             	test   r13,r13
2bc5:	40 0f 94 c7          	sete   dil
2bc9:	4d 85 f6             	test   r14,r14
2bcc:	0f 84 6e 04 00 00    	je     3040 <main+0x1060>
2bd2:	48 89 de             	mov    rsi,rbx
2bd5:	4c 89 fa             	mov    rdx,r15
2bd8:	4c 29 fd             	sub    rbp,r15
2bdb:	4c 01 fb             	add    rbx,r15
2bde:	45 31 ed             	xor    r13d,r13d
2be1:	e8 9a 1f 00 00       	call   4b80 <cwrite>
2be6:	48 85 ed             	test   rbp,rbp
2be9:	0f 84 61 ff ff ff    	je     2b50 <main+0xb70>
2bef:	48 8b 0c 24          	mov    rcx,QWORD PTR [rsp]
2bf3:	8b 35 17 94 20 00    	mov    esi,DWORD PTR [rip+0x209417]        # 20c010 <eolchar>
2bf9:	4c 29 e9             	sub    rcx,r13
2bfc:	4c 29 e1             	sub    rcx,r12
2bff:	48 39 cd             	cmp    rbp,rcx
2c02:	49 89 cf             	mov    r15,rcx
2c05:	0f 83 75 ff ff ff    	jae    2b80 <main+0xba0>
2c0b:	48 89 ea             	mov    rdx,rbp
2c0e:	48 89 df             	mov    rdi,rbx
2c11:	45 31 f6             	xor    r14d,r14d
2c14:	e8 97 f2 ff ff       	call   1eb0 <memrchr@plt>
2c19:	45 31 ff             	xor    r15d,r15d
2c1c:	4d 85 e4             	test   r12,r12
2c1f:	49 89 c0             	mov    r8,rax
2c22:	0f 85 74 ff ff ff    	jne    2b9c <main+0xbbc>
2c28:	4d 85 c0             	test   r8,r8
2c2b:	0f 84 27 04 00 00    	je     3058 <main+0x1078>
2c31:	49 29 d8             	sub    r8,rbx
2c34:	31 ff                	xor    edi,edi
2c36:	4d 85 ed             	test   r13,r13
2c39:	4d 8d 60 01          	lea    r12,[r8+0x1]
2c3d:	40 0f 94 c7          	sete   dil
2c41:	48 89 de             	mov    rsi,rbx
2c44:	4c 89 e2             	mov    rdx,r12
2c47:	4d 01 e5             	add    r13,r12
2c4a:	4c 29 e5             	sub    rbp,r12
2c4d:	e8 2e 1f 00 00       	call   4b80 <cwrite>
2c52:	4c 01 e3             	add    rbx,r12
2c55:	4d 85 f6             	test   r14,r14
2c58:	0f 84 62 03 00 00    	je     2fc0 <main+0xfe0>
2c5e:	4d 29 e7             	sub    r15,r12
2c61:	c6 44 24 10 01       	mov    BYTE PTR [rsp+0x10],0x1
2c66:	45 31 e4             	xor    r12d,r12d
2c69:	4d 85 f6             	test   r14,r14
2c6c:	0f 84 56 03 00 00    	je     2fc8 <main+0xfe8>
2c72:	4d 85 ff             	test   r15,r15
2c75:	0f 84 4d 03 00 00    	je     2fc8 <main+0xfe8>
2c7b:	48 8b 4c 24 18       	mov    rcx,QWORD PTR [rsp+0x18]
2c80:	48 89 c8             	mov    rax,rcx
2c83:	4c 29 e0             	sub    rax,r12
2c86:	4c 39 f8             	cmp    rax,r15
2c89:	73 2e                	jae    2cb9 <main+0xcd9>
2c8b:	48 8b 74 24 40       	mov    rsi,QWORD PTR [rsp+0x40]
2c90:	48 89 f0             	mov    rax,rsi
2c93:	48 f7 d0             	not    rax
2c96:	48 39 c8             	cmp    rax,rcx
2c99:	0f 82 97 0c 00 00    	jb     3936 <main+0x1956>
2c9f:	48 8b 7c 24 08       	mov    rdi,QWORD PTR [rsp+0x8]
2ca4:	48 01 f1             	add    rcx,rsi
2ca7:	48 89 ce             	mov    rsi,rcx
2caa:	48 89 4c 24 18       	mov    QWORD PTR [rsp+0x18],rcx
2caf:	e8 0c 4e 00 00       	call   7ac0 <xrealloc>
2cb4:	48 89 44 24 08       	mov    QWORD PTR [rsp+0x8],rax
2cb9:	48 8b 44 24 08       	mov    rax,QWORD PTR [rsp+0x8]
2cbe:	48 89 de             	mov    rsi,rbx
2cc1:	4c 89 fa             	mov    rdx,r15
2cc4:	4c 29 fd             	sub    rbp,r15
2cc7:	4c 01 fb             	add    rbx,r15
2cca:	4a 8d 3c 20          	lea    rdi,[rax+r12*1]
2cce:	4d 01 fc             	add    r12,r15
2cd1:	e8 fa f0 ff ff       	call   1dd0 <memcpy@plt>
2cd6:	0f b6 7c 24 10       	movzx  edi,BYTE PTR [rsp+0x10]
2cdb:	4d 85 f6             	test   r14,r14
2cde:	b8 00 00 00 00       	mov    eax,0x0
2ce3:	0f 45 f8             	cmovne edi,eax
2ce6:	b8 00 00 00 00       	mov    eax,0x0
2ceb:	40 88 7c 24 10       	mov    BYTE PTR [rsp+0x10],dil
2cf0:	4c 0f 45 e8          	cmovne r13,rax
2cf4:	e9 ed fe ff ff       	jmp    2be6 <main+0xc06>
2cf9:	48 8b 04 24          	mov    rax,QWORD PTR [rsp]
2cfd:	48 39 44 24 10       	cmp    QWORD PTR [rsp+0x10],rax
2d02:	0f 87 a0 0e 00 00    	ja     3ba8 <main+0x1bc8>
2d08:	48 39 44 24 18       	cmp    QWORD PTR [rsp+0x18],rax
2d0d:	0f 82 95 0e 00 00    	jb     3ba8 <main+0x1bc8>
2d13:	48 8b 44 24 18       	mov    rax,QWORD PTR [rsp+0x18]
2d18:	31 d2                	xor    edx,edx
2d1a:	48 8b 74 24 10       	mov    rsi,QWORD PTR [rsp+0x10]
2d1f:	48 f7 34 24          	div    QWORD PTR [rsp]
2d23:	48 83 fe 01          	cmp    rsi,0x1
2d27:	48 89 44 24 08       	mov    QWORD PTR [rsp+0x8],rax
2d2c:	0f 86 1a 0a 00 00    	jbe    374c <main+0x176c>
2d32:	4c 8d 66 ff          	lea    r12,[rsi-0x1]
2d36:	49 0f af c4          	imul   rax,r12
2d3a:	48 89 c3             	mov    rbx,rax
2d3d:	48 83 eb 01          	sub    rbx,0x1
2d41:	48 39 dd             	cmp    rbp,rbx
2d44:	49 89 dd             	mov    r13,rbx
2d47:	0f 86 a8 09 00 00    	jbe    36f5 <main+0x1715>
2d4d:	48 8b 7c 24 48       	mov    rdi,QWORD PTR [rsp+0x48]
2d52:	48 29 dd             	sub    rbp,rbx
2d55:	48 89 ea             	mov    rdx,rbp
2d58:	48 8d 34 1f          	lea    rsi,[rdi+rbx*1]
2d5c:	e8 2f f1 ff ff       	call   1e90 <memmove@plt>
2d61:	48 89 5c 24 20       	mov    QWORD PTR [rsp+0x20],rbx
2d66:	48 8b 44 24 18       	mov    rax,QWORD PTR [rsp+0x18]
2d6b:	48 8b 5c 24 10       	mov    rbx,QWORD PTR [rsp+0x10]
2d70:	c6 44 24 67 00       	mov    BYTE PTR [rsp+0x67],0x0
2d75:	c6 44 24 50 01       	mov    BYTE PTR [rsp+0x50],0x1
2d7a:	48 83 e8 01          	sub    rax,0x1
2d7e:	48 89 44 24 68       	mov    QWORD PTR [rsp+0x68],rax
2d83:	48 8b 7c 24 20       	mov    rdi,QWORD PTR [rsp+0x20]
2d88:	48 39 7c 24 18       	cmp    QWORD PTR [rsp+0x18],rdi
2d8d:	0f 8e 43 0b 00 00    	jle    38d6 <main+0x18f6>
2d93:	48 83 fd ff          	cmp    rbp,0xffffffffffffffff
2d97:	0f 84 bf 0a 00 00    	je     385c <main+0x187c>
2d9d:	48 85 ed             	test   rbp,rbp
2da0:	0f 84 30 0b 00 00    	je     38d6 <main+0x18f6>
2da6:	48 8b 44 24 18       	mov    rax,QWORD PTR [rsp+0x18]
2dab:	48 2b 44 24 20       	sub    rax,QWORD PTR [rsp+0x20]
2db0:	4c 8b 44 24 48       	mov    r8,QWORD PTR [rsp+0x48]
2db5:	c6 44 24 67 00       	mov    BYTE PTR [rsp+0x67],0x0
2dba:	48 39 e8             	cmp    rax,rbp
2dbd:	4d 89 c6             	mov    r14,r8
2dc0:	48 0f 46 e8          	cmovbe rbp,rax
2dc4:	49 01 ee             	add    r14,rbp
2dc7:	48 89 6c 24 38       	mov    QWORD PTR [rsp+0x38],rbp
2dcc:	48 8b 2c 24          	mov    rbp,QWORD PTR [rsp]
2dd0:	4d 89 f7             	mov    r15,r14
2dd3:	4c 8b 74 24 68       	mov    r14,QWORD PTR [rsp+0x68]
2dd8:	48 83 c8 ff          	or     rax,0xffffffffffffffff
2ddc:	4d 39 c7             	cmp    r15,r8
2ddf:	0f 84 e9 0a 00 00    	je     38ce <main+0x18ee>
2de5:	4c 89 e8             	mov    rax,r13
2de8:	48 2b 44 24 20       	sub    rax,QWORD PTR [rsp+0x20]
2ded:	48 8b 74 24 38       	mov    rsi,QWORD PTR [rsp+0x38]
2df2:	ba 00 00 00 00       	mov    edx,0x0
2df7:	4c 89 44 24 28       	mov    QWORD PTR [rsp+0x28],r8
2dfc:	48 0f 48 c2          	cmovs  rax,rdx
2e00:	48 39 f0             	cmp    rax,rsi
2e03:	48 0f 47 c6          	cmova  rax,rsi
2e07:	48 29 c6             	sub    rsi,rax
2e0a:	49 8d 3c 00          	lea    rdi,[r8+rax*1]
2e0e:	48 89 f2             	mov    rdx,rsi
2e11:	8b 35 f9 91 20 00    	mov    esi,DWORD PTR [rip+0x2091f9]        # 20c010 <eolchar>
2e17:	e8 34 ef ff ff       	call   1d50 <memchr@plt>
2e1c:	48 85 c0             	test   rax,rax
2e1f:	4c 8b 44 24 28       	mov    r8,QWORD PTR [rsp+0x28]
2e24:	0f 84 81 06 00 00    	je     34ab <main+0x14cb>
2e2a:	4c 8d 48 01          	lea    r9,[rax+0x1]
2e2e:	c6 44 24 30 01       	mov    BYTE PTR [rsp+0x30],0x1
2e33:	4c 89 c8             	mov    rax,r9
2e36:	4c 29 c0             	sub    rax,r8
2e39:	49 39 dc             	cmp    r12,rbx
2e3c:	48 89 44 24 28       	mov    QWORD PTR [rsp+0x28],rax
2e41:	0f 84 92 06 00 00    	je     34d9 <main+0x14f9>
2e47:	48 85 db             	test   rbx,rbx
2e4a:	0f 84 68 06 00 00    	je     34b8 <main+0x14d8>
2e50:	48 8b 4c 24 20       	mov    rcx,QWORD PTR [rsp+0x20]
2e55:	48 03 4c 24 28       	add    rcx,QWORD PTR [rsp+0x28]
2e5a:	44 0f b6 44 24 30    	movzx  r8d,BYTE PTR [rsp+0x30]
2e60:	48 89 4c 24 20       	mov    QWORD PTR [rsp+0x20],rcx
2e65:	0f 1f 00             	nop    DWORD PTR [rax]
2e68:	4c 39 e9             	cmp    rcx,r13
2e6b:	7f 09                	jg     2e76 <main+0xe96>
2e6d:	45 84 c0             	test   r8b,r8b
2e70:	0f 84 21 02 00 00    	je     3097 <main+0x10b7>
2e76:	44 89 c0             	mov    eax,r8d
2e79:	83 f0 01             	xor    eax,0x1
2e7c:	4d 39 cf             	cmp    r15,r9
2e7f:	0f 94 c2             	sete   dl
2e82:	20 d0                	and    al,dl
2e84:	0f 85 09 02 00 00    	jne    3093 <main+0x10b3>
2e8a:	49 83 c4 01          	add    r12,0x1
2e8e:	48 85 db             	test   rbx,rbx
2e91:	0f 95 c2             	setne  dl
2e94:	49 39 dc             	cmp    r12,rbx
2e97:	0f 97 c0             	seta   al
2e9a:	84 c2                	test   dl,al
2e9c:	75 78                	jne    2f16 <main+0xf36>
2e9e:	4c 03 6c 24 08       	add    r13,QWORD PTR [rsp+0x8]
2ea3:	49 39 ec             	cmp    r12,rbp
2ea6:	4d 0f 44 ee          	cmove  r13,r14
2eaa:	4c 39 e9             	cmp    rcx,r13
2ead:	0f 8e d8 01 00 00    	jle    308b <main+0x10ab>
2eb3:	48 85 db             	test   rbx,rbx
2eb6:	75 b0                	jne    2e68 <main+0xe88>
2eb8:	31 d2                	xor    edx,edx
2eba:	31 f6                	xor    esi,esi
2ebc:	bf 01 00 00 00       	mov    edi,0x1
2ec1:	44 88 44 24 66       	mov    BYTE PTR [rsp+0x66],r8b
2ec6:	48 89 4c 24 58       	mov    QWORD PTR [rsp+0x58],rcx
2ecb:	4c 89 4c 24 50       	mov    QWORD PTR [rsp+0x50],r9
2ed0:	e8 ab 1c 00 00       	call   4b80 <cwrite>
2ed5:	4c 8b 4c 24 50       	mov    r9,QWORD PTR [rsp+0x50]
2eda:	48 8b 4c 24 58       	mov    rcx,QWORD PTR [rsp+0x58]
2edf:	44 0f b6 44 24 66    	movzx  r8d,BYTE PTR [rsp+0x66]
2ee5:	eb 81                	jmp    2e68 <main+0xe88>
2ee7:	48 83 7c 24 10 00    	cmp    QWORD PTR [rsp+0x10],0x0
2eed:	0f 85 9c 06 00 00    	jne    358f <main+0x15af>
2ef3:	48 8b 44 24 18       	mov    rax,QWORD PTR [rsp+0x18]
2ef8:	4c 8b 04 24          	mov    r8,QWORD PTR [rsp]
2efc:	31 d2                	xor    edx,edx
2efe:	48 8b 74 24 48       	mov    rsi,QWORD PTR [rsp+0x48]
2f03:	48 89 e9             	mov    rcx,rbp
2f06:	49 f7 f0             	div    r8
2f09:	48 8b 54 24 40       	mov    rdx,QWORD PTR [rsp+0x40]
2f0e:	48 89 c7             	mov    rdi,rax
2f11:	e8 7a 1d 00 00       	call   4c90 <bytes_split>
2f16:	31 ff                	xor    edi,edi
2f18:	e8 03 ee ff ff       	call   1d20 <close@plt>
2f1d:	85 c0                	test   eax,eax
2f1f:	0f 85 e4 0b 00 00    	jne    3b09 <main+0x1b29>
2f25:	48 8b 0d 8c 94 20 00 	mov    rcx,QWORD PTR [rip+0x20948c]        # 20c3b8 <outfile>
2f2c:	8b 15 c6 95 20 00    	mov    edx,DWORD PTR [rip+0x2095c6]        # 20c4f8 <filter_pid>
2f32:	31 ff                	xor    edi,edi
2f34:	8b 35 da 90 20 00    	mov    esi,DWORD PTR [rip+0x2090da]        # 20c014 <output_desc>
2f3a:	e8 41 19 00 00       	call   4880 <closeout>
2f3f:	31 c0                	xor    eax,eax
2f41:	48 8b 8c 24 38 01 00 	mov    rcx,QWORD PTR [rsp+0x138]
2f48:	00
2f49:	64 48 33 0c 25 28 00 	xor    rcx,QWORD PTR fs:0x28
2f50:	00 00
2f52:	0f 85 ac 0b 00 00    	jne    3b04 <main+0x1b24>
2f58:	48 81 c4 48 01 00 00 	add    rsp,0x148
2f5f:	5b                   	pop    rbx
2f60:	5d                   	pop    rbp
2f61:	41 5c                	pop    r12
2f63:	41 5d                	pop    r13
2f65:	41 5e                	pop    r14
2f67:	41 5f                	pop    r15
2f69:	c3                   	ret
2f6a:	e8 01 ec ff ff       	call   1b70 <__errno_location@plt>
2f6f:	83 38 1d             	cmp    DWORD PTR [rax],0x1d
2f72:	75 06                	jne    2f7a <main+0xf9a>
2f74:	c7 00 00 00 00 00    	mov    DWORD PTR [rax],0x0
2f7a:	48 8b 15 0f 94 20 00 	mov    rdx,QWORD PTR [rip+0x20940f]        # 20c390 <infile>
2f81:	be 03 00 00 00       	mov    esi,0x3
2f86:	31 ff                	xor    edi,edi
2f88:	e8 c3 41 00 00       	call   7150 <quotearg_n_style_colon>
2f8d:	48 8d 35 6c 6b 00 00 	lea    rsi,[rip+0x6b6c]        # 9b00 <_IO_stdin_used+0x1040>
2f94:	ba 05 00 00 00       	mov    edx,0x5
2f99:	31 ff                	xor    edi,edi
2f9b:	48 89 c5             	mov    rbp,rax
2f9e:	e8 9d ec ff ff       	call   1c40 <dcgettext@plt>
2fa3:	48 89 c3             	mov    rbx,rax
2fa6:	e8 c5 eb ff ff       	call   1b70 <__errno_location@plt>
2fab:	8b 30                	mov    esi,DWORD PTR [rax]
2fad:	48 89 e9             	mov    rcx,rbp
2fb0:	48 89 da             	mov    rdx,rbx
2fb3:	bf 01 00 00 00       	mov    edi,0x1
2fb8:	31 c0                	xor    eax,eax
2fba:	e8 e1 ee ff ff       	call   1ea0 <error@plt>
2fbf:	90                   	nop
2fc0:	45 31 e4             	xor    r12d,r12d
2fc3:	c6 44 24 10 01       	mov    BYTE PTR [rsp+0x10],0x1
2fc8:	4d 85 f6             	test   r14,r14
2fcb:	0f 85 05 fd ff ff    	jne    2cd6 <main+0xcf6>
2fd1:	48 85 ed             	test   rbp,rbp
2fd4:	0f 84 fc fc ff ff    	je     2cd6 <main+0xcf6>
2fda:	49 89 ef             	mov    r15,rbp
2fdd:	e9 99 fc ff ff       	jmp    2c7b <main+0xc9b>
2fe2:	66 0f 1f 44 00 00    	nop    WORD PTR [rax+rax*1+0x0]
2fe8:	48 8b 74 24 08       	mov    rsi,QWORD PTR [rsp+0x8]
2fed:	40 0f b6 ff          	movzx  edi,dil
2ff1:	4c 89 e2             	mov    rdx,r12
2ff4:	4c 89 44 24 20       	mov    QWORD PTR [rsp+0x20],r8
2ff9:	4d 01 e5             	add    r13,r12
2ffc:	e8 7f 1b 00 00       	call   4b80 <cwrite>
3001:	48 8b 44 24 40       	mov    rax,QWORD PTR [rsp+0x40]
3006:	4c 8b 44 24 20       	mov    r8,QWORD PTR [rsp+0x20]
300b:	4c 39 e0             	cmp    rax,r12
300e:	48 89 44 24 18       	mov    QWORD PTR [rsp+0x18],rax
3013:	0f 83 0f fc ff ff    	jae    2c28 <main+0xc48>
3019:	48 8b 7c 24 08       	mov    rdi,QWORD PTR [rsp+0x8]
301e:	49 89 c4             	mov    r12,rax
3021:	48 89 c6             	mov    rsi,rax
3024:	e8 97 4a 00 00       	call   7ac0 <xrealloc>
3029:	4c 89 64 24 18       	mov    QWORD PTR [rsp+0x18],r12
302e:	48 89 44 24 08       	mov    QWORD PTR [rsp+0x8],rax
3033:	4c 8b 44 24 20       	mov    r8,QWORD PTR [rsp+0x20]
3038:	e9 eb fb ff ff       	jmp    2c28 <main+0xc48>
303d:	0f 1f 00             	nop    DWORD PTR [rax]
3040:	48 89 ea             	mov    rdx,rbp
3043:	48 89 de             	mov    rsi,rbx
3046:	49 01 ed             	add    r13,rbp
3049:	e8 32 1b 00 00       	call   4b80 <cwrite>
304e:	e9 fd fa ff ff       	jmp    2b50 <main+0xb70>
3053:	0f 1f 44 00 00       	nop    DWORD PTR [rax+rax*1+0x0]
3058:	45 31 e4             	xor    r12d,r12d
305b:	e9 55 fb ff ff       	jmp    2bb5 <main+0xbd5>
3060:	4c 39 f5             	cmp    rbp,r14
3063:	74 15                	je     307a <main+0x109a>
3065:	48 89 ea             	mov    rdx,rbp
3068:	41 0f b6 fd          	movzx  edi,r13b
306c:	4c 89 f6             	mov    rsi,r14
306f:	4c 29 f2             	sub    rdx,r14
3072:	45 31 ed             	xor    r13d,r13d
3075:	e8 06 1b 00 00       	call   4b80 <cwrite>
307a:	48 83 7c 24 08 00    	cmp    QWORD PTR [rsp+0x8],0x0
3080:	0f 85 07 fa ff ff    	jne    2a8d <main+0xaad>
3086:	e9 8b fe ff ff       	jmp    2f16 <main+0xf36>
308b:	45 31 c0             	xor    r8d,r8d
308e:	e9 d5 fd ff ff       	jmp    2e68 <main+0xe88>
3093:	88 44 24 67          	mov    BYTE PTR [rsp+0x67],al
3097:	0f b6 44 24 30       	movzx  eax,BYTE PTR [rsp+0x30]
309c:	48 8b 4c 24 28       	mov    rcx,QWORD PTR [rsp+0x28]
30a1:	4d 89 c8             	mov    r8,r9
30a4:	48 29 4c 24 38       	sub    QWORD PTR [rsp+0x38],rcx
30a9:	88 44 24 50          	mov    BYTE PTR [rsp+0x50],al
30ad:	e9 26 fd ff ff       	jmp    2dd8 <main+0xdf8>
30b2:	4d 85 e4             	test   r12,r12
30b5:	0f 85 1f 06 00 00    	jne    36da <main+0x16fa>
30bb:	48 8b 7c 24 08       	mov    rdi,QWORD PTR [rsp+0x8]
30c0:	e8 8b ea ff ff       	call   1b50 <free@plt>
30c5:	e9 4c fe ff ff       	jmp    2f16 <main+0xf36>
30ca:	48 83 7c 24 10 00    	cmp    QWORD PTR [rsp+0x10],0x0
30d0:	75 78                	jne    314a <main+0x116a>
30d2:	ba 20 00 00 00       	mov    edx,0x20
30d7:	31 c9                	xor    ecx,ecx
30d9:	48 89 d0             	mov    rax,rdx
30dc:	48 f7 24 24          	mul    QWORD PTR [rsp]
30e0:	0f 80 14 0b 00 00    	jo     3bfa <main+0x1c1a>
30e6:	48 85 c0             	test   rax,rax
30e9:	0f 88 47 08 00 00    	js     3936 <main+0x1956>
30ef:	48 85 c9             	test   rcx,rcx
30f2:	0f 85 3e 08 00 00    	jne    3936 <main+0x1956>
30f8:	4c 8b 24 24          	mov    r12,QWORD PTR [rsp]
30fc:	31 ed                	xor    ebp,ebp
30fe:	4c 89 e7             	mov    rdi,r12
3101:	48 c1 e7 05          	shl    rdi,0x5
3105:	e8 56 49 00 00       	call   7a60 <xmalloc>
310a:	48 89 44 24 30       	mov    QWORD PTR [rsp+0x30],rax
310f:	48 89 c3             	mov    rbx,rax
3112:	e8 09 0d 00 00       	call   3e20 <next_file_name>
3117:	48 8b 3d 9a 92 20 00 	mov    rdi,QWORD PTR [rip+0x20929a]        # 20c3b8 <outfile>
311e:	48 83 c5 01          	add    rbp,0x1
3122:	48 83 c3 20          	add    rbx,0x20
3126:	e8 65 4b 00 00       	call   7c90 <xstrdup>
312b:	c7 43 e8 ff ff ff ff 	mov    DWORD PTR [rbx-0x18],0xffffffff
3132:	48 89 43 e0          	mov    QWORD PTR [rbx-0x20],rax
3136:	48 c7 43 f0 00 00 00 	mov    QWORD PTR [rbx-0x10],0x0
313d:	00
313e:	c7 43 f8 00 00 00 00 	mov    DWORD PTR [rbx-0x8],0x0
3145:	4c 39 e5             	cmp    rbp,r12
3148:	75 c8                	jne    3112 <main+0x1132>
314a:	48 c7 44 24 08 01 00 	mov    QWORD PTR [rsp+0x8],0x1
3151:	00 00
3153:	48 c7 44 24 18 00 00 	mov    QWORD PTR [rsp+0x18],0x0
315a:	00 00
315c:	c6 44 24 38 00       	mov    BYTE PTR [rsp+0x38],0x0
3161:	c6 44 24 28 00       	mov    BYTE PTR [rsp+0x28],0x0
3166:	c6 44 24 50 00       	mov    BYTE PTR [rsp+0x50],0x0
316b:	48 8b 54 24 40       	mov    rdx,QWORD PTR [rsp+0x40]
3170:	48 8b 74 24 48       	mov    rsi,QWORD PTR [rsp+0x48]
3175:	31 ff                	xor    edi,edi
3177:	e8 c4 41 00 00       	call   7340 <safe_read>
317c:	48 83 f8 ff          	cmp    rax,0xffffffffffffffff
3180:	0f 84 41 0a 00 00    	je     3bc7 <main+0x1be7>
3186:	48 85 c0             	test   rax,rax
3189:	0f 84 1e 07 00 00    	je     38ad <main+0x18cd>
318f:	48 8b 7c 24 48       	mov    rdi,QWORD PTR [rsp+0x48]
3194:	48 8d 2c 07          	lea    rbp,[rdi+rax*1]
3198:	48 39 ef             	cmp    rdi,rbp
319b:	74 ce                	je     316b <main+0x118b>
319d:	49 89 fd             	mov    r13,rdi
31a0:	eb 3a                	jmp    31dc <main+0x11fc>
31a2:	66 0f 1f 44 00 00    	nop    WORD PTR [rax+rax*1+0x0]
31a8:	48 39 44 24 08       	cmp    QWORD PTR [rsp+0x8],rax
31ad:	0f 84 4d 01 00 00    	je     3300 <main+0x1320>
31b3:	45 84 ff             	test   r15b,r15b
31b6:	74 1c                	je     31d4 <main+0x11f4>
31b8:	48 8b 54 24 08       	mov    rdx,QWORD PTR [rsp+0x8]
31bd:	48 3b 14 24          	cmp    rdx,QWORD PTR [rsp]
31c1:	41 bd 01 00 00 00    	mov    r13d,0x1
31c7:	48 8d 42 01          	lea    rax,[rdx+0x1]
31cb:	4c 0f 45 e8          	cmovne r13,rax
31cf:	4c 89 6c 24 08       	mov    QWORD PTR [rsp+0x8],r13
31d4:	4c 39 e5             	cmp    rbp,r12
31d7:	4d 89 e5             	mov    r13,r12
31da:	74 8f                	je     316b <main+0x118b>
31dc:	48 89 eb             	mov    rbx,rbp
31df:	8b 35 2b 8e 20 00    	mov    esi,DWORD PTR [rip+0x208e2b]        # 20c010 <eolchar>
31e5:	4c 89 ef             	mov    rdi,r13
31e8:	4c 29 eb             	sub    rbx,r13
31eb:	48 89 da             	mov    rdx,rbx
31ee:	e8 5d eb ff ff       	call   1d50 <memchr@plt>
31f3:	48 85 c0             	test   rax,rax
31f6:	0f 84 f4 00 00 00    	je     32f0 <main+0x1310>
31fc:	4c 8d 60 01          	lea    r12,[rax+0x1]
3200:	41 bf 01 00 00 00    	mov    r15d,0x1
3206:	4c 89 e3             	mov    rbx,r12
3209:	4c 29 eb             	sub    rbx,r13
320c:	48 8b 44 24 10       	mov    rax,QWORD PTR [rsp+0x10]
3211:	48 85 c0             	test   rax,rax
3214:	75 92                	jne    31a8 <main+0x11c8>
3216:	4c 8b 74 24 18       	mov    r14,QWORD PTR [rsp+0x18]
321b:	48 8b 14 24          	mov    rdx,QWORD PTR [rsp]
321f:	48 8b 7c 24 30       	mov    rdi,QWORD PTR [rsp+0x30]
3224:	4c 89 f6             	mov    rsi,r14
3227:	49 c1 e6 05          	shl    r14,0x5
322b:	e8 50 14 00 00       	call   4680 <ofile_open>
3230:	4c 03 74 24 30       	add    r14,QWORD PTR [rsp+0x30]
3235:	08 44 24 38          	or     BYTE PTR [rsp+0x38],al
3239:	e8 32 e9 ff ff       	call   1b70 <__errno_location@plt>
323e:	80 3d 9b 90 20 00 00 	cmp    BYTE PTR [rip+0x20909b],0x0        # 20c2e0 <unbuffered>
3245:	48 89 44 24 20       	mov    QWORD PTR [rsp+0x20],rax
324a:	0f 85 90 01 00 00    	jne    33e0 <main+0x1400>
3250:	49 8b 4e 10          	mov    rcx,QWORD PTR [r14+0x10]
3254:	ba 01 00 00 00       	mov    edx,0x1
3259:	48 89 de             	mov    rsi,rbx
325c:	4c 89 ef             	mov    rdi,r13
325f:	e8 dc eb ff ff       	call   1e40 <fwrite_unlocked@plt>
3264:	48 83 f8 01          	cmp    rax,0x1
3268:	48 8b 44 24 20       	mov    rax,QWORD PTR [rsp+0x20]
326d:	0f 85 fd 00 00 00    	jne    3370 <main+0x1390>
3273:	83 38 20             	cmp    DWORD PTR [rax],0x20
3276:	0f 94 c0             	sete   al
3279:	48 83 3d 7f 92 20 00 	cmp    QWORD PTR [rip+0x20927f],0x0        # 20c500 <filter_command>
3280:	00
3281:	0f 95 c2             	setne  dl
3284:	21 d0                	and    eax,edx
3286:	ba 01 00 00 00       	mov    edx,0x1
328b:	84 c0                	test   al,al
328d:	0f b6 44 24 28       	movzx  eax,BYTE PTR [rsp+0x28]
3292:	0f 44 c2             	cmove  eax,edx
3295:	88 44 24 28          	mov    BYTE PTR [rsp+0x28],al
3299:	80 7c 24 38 00       	cmp    BYTE PTR [rsp+0x38],0x0
329e:	0f 85 0c 01 00 00    	jne    33b0 <main+0x13d0>
32a4:	45 84 ff             	test   r15b,r15b
32a7:	0f 84 27 ff ff ff    	je     31d4 <main+0x11f4>
32ad:	48 83 44 24 18 01    	add    QWORD PTR [rsp+0x18],0x1
32b3:	48 8b 44 24 18       	mov    rax,QWORD PTR [rsp+0x18]
32b8:	48 3b 04 24          	cmp    rax,QWORD PTR [rsp]
32bc:	0f 85 12 ff ff ff    	jne    31d4 <main+0x11f4>
32c2:	80 7c 24 28 00       	cmp    BYTE PTR [rsp+0x28],0x0
32c7:	0f 84 64 02 00 00    	je     3531 <main+0x1551>
32cd:	0f b6 44 24 28       	movzx  eax,BYTE PTR [rsp+0x28]
32d2:	48 c7 44 24 18 00 00 	mov    QWORD PTR [rsp+0x18],0x0
32d9:	00 00
32db:	c6 44 24 28 00       	mov    BYTE PTR [rsp+0x28],0x0
32e0:	88 44 24 50          	mov    BYTE PTR [rsp+0x50],al
32e4:	e9 eb fe ff ff       	jmp    31d4 <main+0x11f4>
32e9:	0f 1f 80 00 00 00 00 	nop    DWORD PTR [rax+0x0]
32f0:	49 89 ec             	mov    r12,rbp
32f3:	45 31 ff             	xor    r15d,r15d
32f6:	e9 11 ff ff ff       	jmp    320c <main+0x122c>
32fb:	0f 1f 44 00 00       	nop    DWORD PTR [rax+rax*1+0x0]
3300:	80 3d d9 8f 20 00 00 	cmp    BYTE PTR [rip+0x208fd9],0x0        # 20c2e0 <unbuffered>
3307:	0f 85 33 01 00 00    	jne    3440 <main+0x1460>
330d:	48 8b 0d 54 8f 20 00 	mov    rcx,QWORD PTR [rip+0x208f54]        # 20c268 <stdout@@GLIBC_2.2.5>
3314:	ba 01 00 00 00       	mov    edx,0x1
3319:	48 89 de             	mov    rsi,rbx
331c:	4c 89 ef             	mov    rdi,r13
331f:	e8 1c eb ff ff       	call   1e40 <fwrite_unlocked@plt>
3324:	48 83 f8 01          	cmp    rax,0x1
3328:	0f 84 85 fe ff ff    	je     31b3 <main+0x11d3>
332e:	48 8b 3d 33 8f 20 00 	mov    rdi,QWORD PTR [rip+0x208f33]        # 20c268 <stdout@@GLIBC_2.2.5>
3335:	e8 b6 e8 ff ff       	call   1bf0 <clearerr_unlocked@plt>
333a:	48 8d 35 fa 5a 00 00 	lea    rsi,[rip+0x5afa]        # 8e3b <_IO_stdin_used+0x37b>
3341:	ba 05 00 00 00       	mov    edx,0x5
3346:	31 ff                	xor    edi,edi
3348:	e8 f3 e8 ff ff       	call   1c40 <dcgettext@plt>
334d:	48 89 c3             	mov    rbx,rax
3350:	e8 1b e8 ff ff       	call   1b70 <__errno_location@plt>
3355:	8b 30                	mov    esi,DWORD PTR [rax]
3357:	48 8d 15 90 5a 00 00 	lea    rdx,[rip+0x5a90]        # 8dee <_IO_stdin_used+0x32e>
335e:	48 89 d9             	mov    rcx,rbx
3361:	bf 01 00 00 00       	mov    edi,0x1
3366:	31 c0                	xor    eax,eax
3368:	e8 33 eb ff ff       	call   1ea0 <error@plt>
336d:	0f 1f 00             	nop    DWORD PTR [rax]
3370:	83 38 20             	cmp    DWORD PTR [rax],0x20
3373:	75 0e                	jne    3383 <main+0x13a3>
3375:	48 83 3d 83 91 20 00 	cmp    QWORD PTR [rip+0x209183],0x0        # 20c500 <filter_command>
337c:	00
337d:	0f 85 16 ff ff ff    	jne    3299 <main+0x12b9>
3383:	49 8b 16             	mov    rdx,QWORD PTR [r14]
3386:	be 03 00 00 00       	mov    esi,0x3
338b:	31 ff                	xor    edi,edi
338d:	e8 be 3d 00 00       	call   7150 <quotearg_n_style_colon>
3392:	48 89 c1             	mov    rcx,rax
3395:	48 8b 44 24 20       	mov    rax,QWORD PTR [rsp+0x20]
339a:	48 8d 15 4d 5a 00 00 	lea    rdx,[rip+0x5a4d]        # 8dee <_IO_stdin_used+0x32e>
33a1:	bf 01 00 00 00       	mov    edi,0x1
33a6:	8b 30                	mov    esi,DWORD PTR [rax]
33a8:	31 c0                	xor    eax,eax
33aa:	e8 f1 ea ff ff       	call   1ea0 <error@plt>
33af:	90                   	nop
33b0:	49 8b 7e 10          	mov    rdi,QWORD PTR [r14+0x10]
33b4:	e8 87 4e 00 00       	call   8240 <rpl_fclose>
33b9:	85 c0                	test   eax,eax
33bb:	0f 85 cc 05 00 00    	jne    398d <main+0x19ad>
33c1:	49 c7 46 10 00 00 00 	mov    QWORD PTR [r14+0x10],0x0
33c8:	00
33c9:	41 c7 46 08 fe ff ff 	mov    DWORD PTR [r14+0x8],0xfffffffe
33d0:	ff
33d1:	e9 ce fe ff ff       	jmp    32a4 <main+0x12c4>
33d6:	66 2e 0f 1f 84 00 00 	nop    WORD PTR cs:[rax+rax*1+0x0]
33dd:	00 00 00
33e0:	41 8b 7e 08          	mov    edi,DWORD PTR [r14+0x8]
33e4:	48 89 da             	mov    rdx,rbx
33e7:	4c 89 ee             	mov    rsi,r13
33ea:	e8 51 21 00 00       	call   5540 <full_write>
33ef:	48 39 d8             	cmp    rax,rbx
33f2:	48 8b 44 24 20       	mov    rax,QWORD PTR [rsp+0x20]
33f7:	0f 84 76 fe ff ff    	je     3273 <main+0x1293>
33fd:	83 38 20             	cmp    DWORD PTR [rax],0x20
3400:	75 0e                	jne    3410 <main+0x1430>
3402:	48 83 3d f6 90 20 00 	cmp    QWORD PTR [rip+0x2090f6],0x0        # 20c500 <filter_command>
3409:	00
340a:	0f 85 89 fe ff ff    	jne    3299 <main+0x12b9>
3410:	49 8b 16             	mov    rdx,QWORD PTR [r14]
3413:	be 03 00 00 00       	mov    esi,0x3
3418:	31 ff                	xor    edi,edi
341a:	e8 31 3d 00 00       	call   7150 <quotearg_n_style_colon>
341f:	48 89 c1             	mov    rcx,rax
3422:	48 8b 44 24 20       	mov    rax,QWORD PTR [rsp+0x20]
3427:	48 8d 15 c0 59 00 00 	lea    rdx,[rip+0x59c0]        # 8dee <_IO_stdin_used+0x32e>
342e:	bf 01 00 00 00       	mov    edi,0x1
3433:	8b 30                	mov    esi,DWORD PTR [rax]
3435:	31 c0                	xor    eax,eax
3437:	e8 64 ea ff ff       	call   1ea0 <error@plt>
343c:	0f 1f 40 00          	nop    DWORD PTR [rax+0x0]
3440:	48 89 da             	mov    rdx,rbx
3443:	4c 89 ee             	mov    rsi,r13
3446:	bf 01 00 00 00       	mov    edi,0x1
344b:	e8 f0 20 00 00       	call   5540 <full_write>
3450:	48 39 d8             	cmp    rax,rbx
3453:	0f 84 5a fd ff ff    	je     31b3 <main+0x11d3>
3459:	48 8d 35 db 59 00 00 	lea    rsi,[rip+0x59db]        # 8e3b <_IO_stdin_used+0x37b>
3460:	ba 05 00 00 00       	mov    edx,0x5
3465:	31 ff                	xor    edi,edi
3467:	e8 d4 e7 ff ff       	call   1c40 <dcgettext@plt>
346c:	48 89 c3             	mov    rbx,rax
346f:	e8 fc e6 ff ff       	call   1b70 <__errno_location@plt>
3474:	8b 30                	mov    esi,DWORD PTR [rax]
3476:	48 8d 15 71 59 00 00 	lea    rdx,[rip+0x5971]        # 8dee <_IO_stdin_used+0x32e>
347d:	48 89 d9             	mov    rcx,rbx
3480:	bf 01 00 00 00       	mov    edi,0x1
3485:	31 c0                	xor    eax,eax
3487:	e8 14 ea ff ff       	call   1ea0 <error@plt>
348c:	48 8b 54 24 40       	mov    rdx,QWORD PTR [rsp+0x40]
3491:	48 8b 74 24 48       	mov    rsi,QWORD PTR [rsp+0x48]
3496:	45 31 c0             	xor    r8d,r8d
3499:	48 8b 3c 24          	mov    rdi,QWORD PTR [rsp]
349d:	48 83 c9 ff          	or     rcx,0xffffffffffffffff
34a1:	e8 ea 17 00 00       	call   4c90 <bytes_split>
34a6:	e9 6b fa ff ff       	jmp    2f16 <main+0xf36>
34ab:	4d 89 f9             	mov    r9,r15
34ae:	c6 44 24 30 00       	mov    BYTE PTR [rsp+0x30],0x0
34b3:	e9 7b f9 ff ff       	jmp    2e33 <main+0xe53>
34b8:	0f b6 7c 24 50       	movzx  edi,BYTE PTR [rsp+0x50]
34bd:	48 8b 54 24 28       	mov    rdx,QWORD PTR [rsp+0x28]
34c2:	4c 89 c6             	mov    rsi,r8
34c5:	4c 89 4c 24 58       	mov    QWORD PTR [rsp+0x58],r9
34ca:	e8 b1 16 00 00       	call   4b80 <cwrite>
34cf:	4c 8b 4c 24 58       	mov    r9,QWORD PTR [rsp+0x58]
34d4:	e9 77 f9 ff ff       	jmp    2e50 <main+0xe70>
34d9:	48 89 c2             	mov    rdx,rax
34dc:	4c 89 c6             	mov    rsi,r8
34df:	bf 01 00 00 00       	mov    edi,0x1
34e4:	4c 89 4c 24 50       	mov    QWORD PTR [rsp+0x50],r9
34e9:	e8 52 20 00 00       	call   5540 <full_write>
34ee:	48 39 44 24 28       	cmp    QWORD PTR [rsp+0x28],rax
34f3:	4c 8b 4c 24 50       	mov    r9,QWORD PTR [rsp+0x50]
34f8:	0f 84 52 f9 ff ff    	je     2e50 <main+0xe70>
34fe:	48 8d 35 36 59 00 00 	lea    rsi,[rip+0x5936]        # 8e3b <_IO_stdin_used+0x37b>
3505:	ba 05 00 00 00       	mov    edx,0x5
350a:	31 ff                	xor    edi,edi
350c:	e8 2f e7 ff ff       	call   1c40 <dcgettext@plt>
3511:	48 89 c3             	mov    rbx,rax
3514:	e8 57 e6 ff ff       	call   1b70 <__errno_location@plt>
3519:	8b 30                	mov    esi,DWORD PTR [rax]
351b:	48 8d 15 cc 58 00 00 	lea    rdx,[rip+0x58cc]        # 8dee <_IO_stdin_used+0x32e>
3522:	48 89 d9             	mov    rcx,rbx
3525:	bf 01 00 00 00       	mov    edi,0x1
352a:	31 c0                	xor    eax,eax
352c:	e8 6f e9 ff ff       	call   1ea0 <error@plt>
3531:	48 63 1c 24          	movsxd rbx,DWORD PTR [rsp]
3535:	48 8b 6c 24 30       	mov    rbp,QWORD PTR [rsp+0x30]
353a:	4c 8b 2c 24          	mov    r13,QWORD PTR [rsp]
353e:	45 31 e4             	xor    r12d,r12d
3541:	4c 39 e3             	cmp    rbx,r12
3544:	77 19                	ja     355f <main+0x157f>
3546:	80 3d 94 8d 20 00 00 	cmp    BYTE PTR [rip+0x208d94],0x0        # 20c2e1 <elide_empty_files>
354d:	75 10                	jne    355f <main+0x157f>
354f:	48 8b 7c 24 30       	mov    rdi,QWORD PTR [rsp+0x30]
3554:	4c 89 ea             	mov    rdx,r13
3557:	4c 89 e6             	mov    rsi,r12
355a:	e8 21 11 00 00       	call   4680 <ofile_open>
355f:	8b 75 08             	mov    esi,DWORD PTR [rbp+0x8]
3562:	85 f6                	test   esi,esi
3564:	78 10                	js     3576 <main+0x1596>
3566:	8b 55 18             	mov    edx,DWORD PTR [rbp+0x18]
3569:	48 8b 7d 10          	mov    rdi,QWORD PTR [rbp+0x10]
356d:	48 8b 4d 00          	mov    rcx,QWORD PTR [rbp+0x0]
3571:	e8 0a 13 00 00       	call   4880 <closeout>
3576:	49 83 c4 01          	add    r12,0x1
357a:	c7 45 08 fe ff ff ff 	mov    DWORD PTR [rbp+0x8],0xfffffffe
3581:	48 83 c5 20          	add    rbp,0x20
3585:	4d 39 ec             	cmp    r12,r13
3588:	75 b7                	jne    3541 <main+0x1561>
358a:	e9 87 f9 ff ff       	jmp    2f16 <main+0xf36>
358f:	48 8b 04 24          	mov    rax,QWORD PTR [rsp]
3593:	48 39 44 24 10       	cmp    QWORD PTR [rsp+0x10],rax
3598:	0f 87 9d 03 00 00    	ja     393b <main+0x195b>
359e:	48 8b 4c 24 18       	mov    rcx,QWORD PTR [rsp+0x18]
35a3:	48 39 c8             	cmp    rax,rcx
35a6:	0f 87 8f 03 00 00    	ja     393b <main+0x195b>
35ac:	48 8b 3c 24          	mov    rdi,QWORD PTR [rsp]
35b0:	48 8b 44 24 18       	mov    rax,QWORD PTR [rsp+0x18]
35b5:	31 d2                	xor    edx,edx
35b7:	48 8b 4c 24 10       	mov    rcx,QWORD PTR [rsp+0x10]
35bc:	48 f7 f7             	div    rdi
35bf:	48 8d 71 ff          	lea    rsi,[rcx-0x1]
35c3:	48 0f af f0          	imul   rsi,rax
35c7:	48 39 f9             	cmp    rcx,rdi
35ca:	48 89 f3             	mov    rbx,rsi
35cd:	74 09                	je     35d8 <main+0x15f8>
35cf:	48 0f af c1          	imul   rax,rcx
35d3:	48 89 44 24 18       	mov    QWORD PTR [rsp+0x18],rax
35d8:	48 39 f5             	cmp    rbp,rsi
35db:	0f 86 88 01 00 00    	jbe    3769 <main+0x1789>
35e1:	48 8b 7c 24 48       	mov    rdi,QWORD PTR [rsp+0x48]
35e6:	48 29 f5             	sub    rbp,rsi
35e9:	48 89 ea             	mov    rdx,rbp
35ec:	48 01 fe             	add    rsi,rdi
35ef:	e8 9c e8 ff ff       	call   1e90 <memmove@plt>
35f4:	4c 8b 74 24 18       	mov    r14,QWORD PTR [rsp+0x18]
35f9:	4c 8b 7c 24 48       	mov    r15,QWORD PTR [rsp+0x48]
35fe:	49 83 cc ff          	or     r12,0xffffffffffffffff
3602:	48 89 e8             	mov    rax,rbp
3605:	49 39 de             	cmp    r14,rbx
3608:	0f 8e 08 f9 ff ff    	jle    2f16 <main+0xf36>
360e:	48 83 f8 ff          	cmp    rax,0xffffffffffffffff
3612:	74 7a                	je     368e <main+0x16ae>
3614:	48 85 c0             	test   rax,rax
3617:	0f 84 f9 f8 ff ff    	je     2f16 <main+0xf36>
361d:	4c 89 f5             	mov    rbp,r14
3620:	4c 89 fe             	mov    rsi,r15
3623:	bf 01 00 00 00       	mov    edi,0x1
3628:	48 29 dd             	sub    rbp,rbx
362b:	48 39 c5             	cmp    rbp,rax
362e:	48 0f 47 e8          	cmova  rbp,rax
3632:	48 89 ea             	mov    rdx,rbp
3635:	e8 06 1f 00 00       	call   5540 <full_write>
363a:	48 39 c5             	cmp    rbp,rax
363d:	74 44                	je     3683 <main+0x16a3>
363f:	e8 2c e5 ff ff       	call   1b70 <__errno_location@plt>
3644:	48 83 3d b4 8e 20 00 	cmp    QWORD PTR [rip+0x208eb4],0x0        # 20c500 <filter_command>
364b:	00
364c:	74 05                	je     3653 <main+0x1673>
364e:	83 38 20             	cmp    DWORD PTR [rax],0x20
3651:	74 30                	je     3683 <main+0x16a3>
3653:	48 8d 15 b8 65 00 00 	lea    rdx,[rip+0x65b8]        # 9c12 <multipliers.7397+0x5a>
365a:	49 89 c5             	mov    r13,rax
365d:	be 03 00 00 00       	mov    esi,0x3
3662:	31 ff                	xor    edi,edi
3664:	e8 e7 3a 00 00       	call   7150 <quotearg_n_style_colon>
3669:	41 8b 75 00          	mov    esi,DWORD PTR [r13+0x0]
366d:	48 8d 15 7a 57 00 00 	lea    rdx,[rip+0x577a]        # 8dee <_IO_stdin_used+0x32e>
3674:	48 89 c1             	mov    rcx,rax
3677:	bf 01 00 00 00       	mov    edi,0x1
367c:	31 c0                	xor    eax,eax
367e:	e8 1d e8 ff ff       	call   1ea0 <error@plt>
3683:	48 01 eb             	add    rbx,rbp
3686:	4c 89 e0             	mov    rax,r12
3689:	e9 77 ff ff ff       	jmp    3605 <main+0x1625>
368e:	48 8b 54 24 40       	mov    rdx,QWORD PTR [rsp+0x40]
3693:	31 ff                	xor    edi,edi
3695:	4c 89 fe             	mov    rsi,r15
3698:	e8 a3 3c 00 00       	call   7340 <safe_read>
369d:	48 83 f8 ff          	cmp    rax,0xffffffffffffffff
36a1:	0f 85 6d ff ff ff    	jne    3614 <main+0x1634>
36a7:	48 8b 15 e2 8c 20 00 	mov    rdx,QWORD PTR [rip+0x208ce2]        # 20c390 <infile>
36ae:	be 03 00 00 00       	mov    esi,0x3
36b3:	31 ff                	xor    edi,edi
36b5:	e8 96 3a 00 00       	call   7150 <quotearg_n_style_colon>
36ba:	48 89 c3             	mov    rbx,rax
36bd:	e8 ae e4 ff ff       	call   1b70 <__errno_location@plt>
36c2:	8b 30                	mov    esi,DWORD PTR [rax]
36c4:	48 8d 15 23 57 00 00 	lea    rdx,[rip+0x5723]        # 8dee <_IO_stdin_used+0x32e>
36cb:	48 89 d9             	mov    rcx,rbx
36ce:	bf 01 00 00 00       	mov    edi,0x1
36d3:	31 c0                	xor    eax,eax
36d5:	e8 c6 e7 ff ff       	call   1ea0 <error@plt>
36da:	48 8b 74 24 08       	mov    rsi,QWORD PTR [rsp+0x8]
36df:	31 ff                	xor    edi,edi
36e1:	4d 85 ed             	test   r13,r13
36e4:	40 0f 94 c7          	sete   dil
36e8:	4c 89 e2             	mov    rdx,r12
36eb:	e8 90 14 00 00       	call   4b80 <cwrite>
36f0:	e9 c6 f9 ff ff       	jmp    30bb <main+0x10db>
36f5:	48 89 de             	mov    rsi,rbx
36f8:	31 ff                	xor    edi,edi
36fa:	ba 01 00 00 00       	mov    edx,0x1
36ff:	48 29 ee             	sub    rsi,rbp
3702:	48 83 cd ff          	or     rbp,0xffffffffffffffff
3706:	e8 d5 e5 ff ff       	call   1ce0 <lseek@plt>
370b:	48 85 c0             	test   rax,rax
370e:	48 89 5c 24 20       	mov    QWORD PTR [rsp+0x20],rbx
3713:	0f 89 4d f6 ff ff    	jns    2d66 <main+0xd86>
3719:	48 8b 15 70 8c 20 00 	mov    rdx,QWORD PTR [rip+0x208c70]        # 20c390 <infile>
3720:	be 03 00 00 00       	mov    esi,0x3
3725:	31 ff                	xor    edi,edi
3727:	e8 24 3a 00 00       	call   7150 <quotearg_n_style_colon>
372c:	48 89 c3             	mov    rbx,rax
372f:	e8 3c e4 ff ff       	call   1b70 <__errno_location@plt>
3734:	8b 30                	mov    esi,DWORD PTR [rax]
3736:	48 8d 15 b1 56 00 00 	lea    rdx,[rip+0x56b1]        # 8dee <_IO_stdin_used+0x32e>
373d:	48 89 d9             	mov    rcx,rbx
3740:	bf 01 00 00 00       	mov    edi,0x1
3745:	31 c0                	xor    eax,eax
3747:	e8 54 e7 ff ff       	call   1ea0 <error@plt>
374c:	48 8b 44 24 08       	mov    rax,QWORD PTR [rsp+0x8]
3751:	48 c7 44 24 20 00 00 	mov    QWORD PTR [rsp+0x20],0x0
3758:	00 00
375a:	41 bc 01 00 00 00    	mov    r12d,0x1
3760:	4c 8d 68 ff          	lea    r13,[rax-0x1]
3764:	e9 fd f5 ff ff       	jmp    2d66 <main+0xd86>
3769:	31 ff                	xor    edi,edi
376b:	ba 01 00 00 00       	mov    edx,0x1
3770:	48 83 cd ff          	or     rbp,0xffffffffffffffff
3774:	e8 67 e5 ff ff       	call   1ce0 <lseek@plt>
3779:	48 85 c0             	test   rax,rax
377c:	0f 89 72 fe ff ff    	jns    35f4 <main+0x1614>
3782:	48 8b 15 07 8c 20 00 	mov    rdx,QWORD PTR [rip+0x208c07]        # 20c390 <infile>
3789:	be 03 00 00 00       	mov    esi,0x3
378e:	31 ff                	xor    edi,edi
3790:	e8 bb 39 00 00       	call   7150 <quotearg_n_style_colon>
3795:	48 89 c3             	mov    rbx,rax
3798:	e8 d3 e3 ff ff       	call   1b70 <__errno_location@plt>
379d:	8b 30                	mov    esi,DWORD PTR [rax]
379f:	48 8d 15 48 56 00 00 	lea    rdx,[rip+0x5648]        # 8dee <_IO_stdin_used+0x32e>
37a6:	48 89 d9             	mov    rcx,rbx
37a9:	bf 01 00 00 00       	mov    edi,0x1
37ae:	31 c0                	xor    eax,eax
37b0:	e8 eb e6 ff ff       	call   1ea0 <error@plt>
37b5:	4c 8b 35 74 8b 20 00 	mov    r14,QWORD PTR [rip+0x208b74]        # 20c330 <in_stat_buf+0x30>
37bc:	4d 85 f6             	test   r14,r14
37bf:	74 71                	je     3832 <main+0x1852>
37c1:	8b 05 51 8b 20 00    	mov    eax,DWORD PTR [rip+0x208b51]        # 20c318 <in_stat_buf+0x18>
37c7:	48 01 eb             	add    rbx,rbp
37ca:	25 00 d0 00 00       	and    eax,0xd000
37cf:	3d 00 80 00 00       	cmp    eax,0x8000
37d4:	75 05                	jne    37db <main+0x17fb>
37d6:	49 39 de             	cmp    r14,rbx
37d9:	7d 3b                	jge    3816 <main+0x1836>
37db:	31 f6                	xor    esi,esi
37dd:	31 ff                	xor    edi,edi
37df:	ba 02 00 00 00       	mov    edx,0x2
37e4:	e8 f7 e4 ff ff       	call   1ce0 <lseek@plt>
37e9:	48 85 c0             	test   rax,rax
37ec:	49 89 c6             	mov    r14,rax
37ef:	0f 88 85 f7 ff ff    	js     2f7a <main+0xf9a>
37f5:	48 39 c3             	cmp    rbx,rax
37f8:	74 1c                	je     3816 <main+0x1836>
37fa:	31 d2                	xor    edx,edx
37fc:	31 ff                	xor    edi,edi
37fe:	48 89 de             	mov    rsi,rbx
3801:	e8 da e4 ff ff       	call   1ce0 <lseek@plt>
3806:	48 85 c0             	test   rax,rax
3809:	0f 88 6b f7 ff ff    	js     2f7a <main+0xf9a>
380f:	49 39 de             	cmp    r14,rbx
3812:	4c 0f 4c f3          	cmovl  r14,rbx
3816:	49 29 de             	sub    r14,rbx
3819:	48 b8 ff ff ff ff ff 	movabs rax,0x7fffffffffffffff
3820:	ff ff 7f
3823:	4d 89 f5             	mov    r13,r14
3826:	49 01 ed             	add    r13,rbp
3829:	49 39 c5             	cmp    r13,rax
382c:	0f 85 17 f2 ff ff    	jne    2a49 <main+0xa69>
3832:	e8 39 e3 ff ff       	call   1b70 <__errno_location@plt>
3837:	c7 00 4b 00 00 00    	mov    DWORD PTR [rax],0x4b
383d:	e9 38 f7 ff ff       	jmp    2f7a <main+0xf9a>
3842:	3d 7e ff ff ff       	cmp    eax,0xffffff7e
3847:	0f 85 df 00 00 00    	jne    392c <main+0x194c>
384d:	31 ff                	xor    edi,edi
384f:	e8 6c 16 00 00       	call   4ec0 <usage>
3854:	48 01 ca             	add    rdx,rcx
3857:	e9 d9 f0 ff ff       	jmp    2935 <main+0x955>
385c:	48 8b 54 24 40       	mov    rdx,QWORD PTR [rsp+0x40]
3861:	48 8b 74 24 48       	mov    rsi,QWORD PTR [rsp+0x48]
3866:	31 ff                	xor    edi,edi
3868:	e8 d3 3a 00 00       	call   7340 <safe_read>
386d:	48 83 f8 ff          	cmp    rax,0xffffffffffffffff
3871:	48 89 c5             	mov    rbp,rax
3874:	0f 85 23 f5 ff ff    	jne    2d9d <main+0xdbd>
387a:	48 8b 15 0f 8b 20 00 	mov    rdx,QWORD PTR [rip+0x208b0f]        # 20c390 <infile>
3881:	be 03 00 00 00       	mov    esi,0x3
3886:	31 ff                	xor    edi,edi
3888:	e8 c3 38 00 00       	call   7150 <quotearg_n_style_colon>
388d:	48 89 c3             	mov    rbx,rax
3890:	e8 db e2 ff ff       	call   1b70 <__errno_location@plt>
3895:	8b 30                	mov    esi,DWORD PTR [rax]
3897:	48 8d 15 50 55 00 00 	lea    rdx,[rip+0x5550]        # 8dee <_IO_stdin_used+0x32e>
389e:	48 89 d9             	mov    rcx,rbx
38a1:	bf 01 00 00 00       	mov    edi,0x1
38a6:	31 c0                	xor    eax,eax
38a8:	e8 f3 e5 ff ff       	call   1ea0 <error@plt>
38ad:	48 83 7c 24 10 00    	cmp    QWORD PTR [rsp+0x10],0x0
38b3:	0f 85 5d f6 ff ff    	jne    2f16 <main+0xf36>
38b9:	80 7c 24 50 00       	cmp    BYTE PTR [rsp+0x50],0x0
38be:	0f 85 6d fc ff ff    	jne    3531 <main+0x1551>
38c4:	48 63 5c 24 18       	movsxd rbx,DWORD PTR [rsp+0x18]
38c9:	e9 67 fc ff ff       	jmp    3535 <main+0x1555>
38ce:	48 89 c5             	mov    rbp,rax
38d1:	e9 ad f4 ff ff       	jmp    2d83 <main+0xda3>
38d6:	80 7c 24 67 00       	cmp    BYTE PTR [rsp+0x67],0x0
38db:	74 04                	je     38e1 <main+0x1901>
38dd:	49 83 c4 01          	add    r12,0x1
38e1:	48 83 7c 24 10 00    	cmp    QWORD PTR [rsp+0x10],0x0
38e7:	74 17                	je     3900 <main+0x1920>
38e9:	e9 28 f6 ff ff       	jmp    2f16 <main+0xf36>
38ee:	31 d2                	xor    edx,edx
38f0:	31 f6                	xor    esi,esi
38f2:	bf 01 00 00 00       	mov    edi,0x1
38f7:	49 83 c4 01          	add    r12,0x1
38fb:	e8 80 12 00 00       	call   4b80 <cwrite>
3900:	4c 3b 24 24          	cmp    r12,QWORD PTR [rsp]
3904:	76 e8                	jbe    38ee <main+0x190e>
3906:	e9 0b f6 ff ff       	jmp    2f16 <main+0xf36>
390b:	48 8d 35 46 61 00 00 	lea    rsi,[rip+0x6146]        # 9a58 <_IO_stdin_used+0xf98>
3912:	ba 05 00 00 00       	mov    edx,0x5
3917:	31 ff                	xor    edi,edi
3919:	e8 22 e3 ff ff       	call   1c40 <dcgettext@plt>
391e:	31 f6                	xor    esi,esi
3920:	48 89 c2             	mov    rdx,rax
3923:	31 ff                	xor    edi,edi
3925:	31 c0                	xor    eax,eax
3927:	e8 74 e5 ff ff       	call   1ea0 <error@plt>
392c:	bf 01 00 00 00       	mov    edi,0x1
3931:	e8 8a 15 00 00       	call   4ec0 <usage>
3936:	e8 75 43 00 00       	call   7cb0 <xalloc_die>
393b:	48 8d 0d 4e 62 00 00 	lea    rcx,[rip+0x624e]        # 9b90 <__PRETTY_FUNCTION__.7285>
3942:	48 8d 35 7b 51 00 00 	lea    rsi,[rip+0x517b]        # 8ac4 <_IO_stdin_used+0x4>
3949:	48 8d 3d d0 61 00 00 	lea    rdi,[rip+0x61d0]        # 9b20 <_IO_stdin_used+0x1060>
3950:	ba e0 03 00 00       	mov    edx,0x3e0
3955:	e8 96 e3 ff ff       	call   1cf0 <__assert_fail@plt>
395a:	48 8b 15 2f 8a 20 00 	mov    rdx,QWORD PTR [rip+0x208a2f]        # 20c390 <infile>
3961:	be 03 00 00 00       	mov    esi,0x3
3966:	31 ff                	xor    edi,edi
3968:	e8 e3 37 00 00       	call   7150 <quotearg_n_style_colon>
396d:	48 89 c3             	mov    rbx,rax
3970:	e8 fb e1 ff ff       	call   1b70 <__errno_location@plt>
3975:	8b 30                	mov    esi,DWORD PTR [rax]
3977:	48 8d 15 70 54 00 00 	lea    rdx,[rip+0x5470]        # 8dee <_IO_stdin_used+0x32e>
397e:	48 89 d9             	mov    rcx,rbx
3981:	bf 01 00 00 00       	mov    edi,0x1
3986:	31 c0                	xor    eax,eax
3988:	e8 13 e5 ff ff       	call   1ea0 <error@plt>
398d:	49 8b 16             	mov    rdx,QWORD PTR [r14]
3990:	be 03 00 00 00       	mov    esi,0x3
3995:	31 ff                	xor    edi,edi
3997:	e8 b4 37 00 00       	call   7150 <quotearg_n_style_colon>
399c:	48 89 c1             	mov    rcx,rax
399f:	48 8b 44 24 20       	mov    rax,QWORD PTR [rsp+0x20]
39a4:	48 8d 15 43 54 00 00 	lea    rdx,[rip+0x5443]        # 8dee <_IO_stdin_used+0x32e>
39ab:	bf 01 00 00 00       	mov    edi,0x1
39b0:	8b 30                	mov    esi,DWORD PTR [rax]
39b2:	31 c0                	xor    eax,eax
39b4:	e8 e7 e4 ff ff       	call   1ea0 <error@plt>
39b9:	48 8b 15 d0 89 20 00 	mov    rdx,QWORD PTR [rip+0x2089d0]        # 20c390 <infile>
39c0:	be 03 00 00 00       	mov    esi,0x3
39c5:	31 ff                	xor    edi,edi
39c7:	e8 84 37 00 00       	call   7150 <quotearg_n_style_colon>
39cc:	48 89 c3             	mov    rbx,rax
39cf:	e8 9c e1 ff ff       	call   1b70 <__errno_location@plt>
39d4:	8b 30                	mov    esi,DWORD PTR [rax]
39d6:	48 8d 15 11 54 00 00 	lea    rdx,[rip+0x5411]        # 8dee <_IO_stdin_used+0x32e>
39dd:	48 89 d9             	mov    rcx,rbx
39e0:	bf 01 00 00 00       	mov    edi,0x1
39e5:	31 c0                	xor    eax,eax
39e7:	e8 b4 e4 ff ff       	call   1ea0 <error@plt>
39ec:	48 8b 15 9d 89 20 00 	mov    rdx,QWORD PTR [rip+0x20899d]        # 20c390 <infile>
39f3:	be 03 00 00 00       	mov    esi,0x3
39f8:	31 ff                	xor    edi,edi
39fa:	e8 51 37 00 00       	call   7150 <quotearg_n_style_colon>
39ff:	48 89 c3             	mov    rbx,rax
3a02:	e8 69 e1 ff ff       	call   1b70 <__errno_location@plt>
3a07:	8b 30                	mov    esi,DWORD PTR [rax]
3a09:	48 8d 15 de 53 00 00 	lea    rdx,[rip+0x53de]        # 8dee <_IO_stdin_used+0x32e>
3a10:	48 89 d9             	mov    rcx,rbx
3a13:	bf 01 00 00 00       	mov    edi,0x1
3a18:	31 c0                	xor    eax,eax
3a1a:	e8 81 e4 ff ff       	call   1ea0 <error@plt>
3a1f:	48 8b 35 6a 89 20 00 	mov    rsi,QWORD PTR [rip+0x20896a]        # 20c390 <infile>
3a26:	bf 04 00 00 00       	mov    edi,0x4
3a2b:	e8 20 36 00 00       	call   7050 <quotearg_style>
3a30:	48 8d 35 cb 53 00 00 	lea    rsi,[rip+0x53cb]        # 8e02 <_IO_stdin_used+0x342>
3a37:	ba 05 00 00 00       	mov    edx,0x5
3a3c:	31 ff                	xor    edi,edi
3a3e:	48 89 c5             	mov    rbp,rax
3a41:	e8 fa e1 ff ff       	call   1c40 <dcgettext@plt>
3a46:	48 89 c3             	mov    rbx,rax
3a49:	e8 22 e1 ff ff       	call   1b70 <__errno_location@plt>
3a4e:	8b 30                	mov    esi,DWORD PTR [rax]
3a50:	48 89 e9             	mov    rcx,rbp
3a53:	48 89 da             	mov    rdx,rbx
3a56:	bf 01 00 00 00       	mov    edi,0x1
3a5b:	31 c0                	xor    eax,eax
3a5d:	e8 3e e4 ff ff       	call   1ea0 <error@plt>
3a62:	48 98                	cdqe
3a64:	48 8b 3c c3          	mov    rdi,QWORD PTR [rbx+rax*8]
3a68:	e8 b3 38 00 00       	call   7320 <quote>
3a6d:	48 8d 35 7d 53 00 00 	lea    rsi,[rip+0x537d]        # 8df1 <_IO_stdin_used+0x331>
3a74:	48 89 c3             	mov    rbx,rax
3a77:	ba 05 00 00 00       	mov    edx,0x5
3a7c:	31 ff                	xor    edi,edi
3a7e:	e8 bd e1 ff ff       	call   1c40 <dcgettext@plt>
3a83:	48 89 c2             	mov    rdx,rax
3a86:	31 ff                	xor    edi,edi
3a88:	48 89 d9             	mov    rcx,rbx
3a8b:	31 f6                	xor    esi,esi
3a8d:	31 c0                	xor    eax,eax
3a8f:	e8 0c e4 ff ff       	call   1ea0 <error@plt>
3a94:	bf 01 00 00 00       	mov    edi,0x1
3a99:	e8 22 14 00 00       	call   4ec0 <usage>
3a9e:	4c 89 ef             	mov    rdi,r13
3aa1:	e8 7a 38 00 00       	call   7320 <quote>
3aa6:	ba 05 00 00 00       	mov    edx,0x5
3aab:	48 89 c3             	mov    rbx,rax
3aae:	48 8d 35 9b 5e 00 00 	lea    rsi,[rip+0x5e9b]        # 9950 <_IO_stdin_used+0xe90>
3ab5:	eb c5                	jmp    3a7c <main+0x1a9c>
3ab7:	48 8b 3c 24          	mov    rdi,QWORD PTR [rsp]
3abb:	48 8d b4 24 20 01 00 	lea    rsi,[rsp+0x120]
3ac2:	00
3ac3:	e8 f8 1a 00 00       	call   55c0 <umaxtostr>
3ac8:	48 89 c7             	mov    rdi,rax
3acb:	e8 50 38 00 00       	call   7320 <quote>
3ad0:	48 8d 35 56 52 00 00 	lea    rsi,[rip+0x5256]        # 8d2d <_IO_stdin_used+0x26d>
3ad7:	ba 05 00 00 00       	mov    edx,0x5
3adc:	31 ff                	xor    edi,edi
3ade:	48 89 c3             	mov    rbx,rax
3ae1:	e8 5a e1 ff ff       	call   1c40 <dcgettext@plt>
3ae6:	48 8d 15 fd 52 00 00 	lea    rdx,[rip+0x52fd]        # 8dea <_IO_stdin_used+0x32a>
3aed:	48 89 c1             	mov    rcx,rax
3af0:	49 89 d8             	mov    r8,rbx
3af3:	be 4b 00 00 00       	mov    esi,0x4b
3af8:	bf 01 00 00 00       	mov    edi,0x1
3afd:	31 c0                	xor    eax,eax
3aff:	e8 9c e3 ff ff       	call   1ea0 <error@plt>
3b04:	e8 67 e1 ff ff       	call   1c70 <__stack_chk_fail@plt>
3b09:	48 8b 15 80 88 20 00 	mov    rdx,QWORD PTR [rip+0x208880]        # 20c390 <infile>
3b10:	be 03 00 00 00       	mov    esi,0x3
3b15:	31 ff                	xor    edi,edi
3b17:	e8 34 36 00 00       	call   7150 <quotearg_n_style_colon>
3b1c:	48 89 c3             	mov    rbx,rax
3b1f:	e8 4c e0 ff ff       	call   1b70 <__errno_location@plt>
3b24:	8b 30                	mov    esi,DWORD PTR [rax]
3b26:	48 8d 15 c1 52 00 00 	lea    rdx,[rip+0x52c1]        # 8dee <_IO_stdin_used+0x32e>
3b2d:	48 89 d9             	mov    rcx,rbx
3b30:	bf 01 00 00 00       	mov    edi,0x1
3b35:	31 c0                	xor    eax,eax
3b37:	e8 64 e3 ff ff       	call   1ea0 <error@plt>
3b3c:	48 8d 35 4d 5f 00 00 	lea    rsi,[rip+0x5f4d]        # 9a90 <_IO_stdin_used+0xfd0>
3b43:	ba 05 00 00 00       	mov    edx,0x5
3b48:	31 ff                	xor    edi,edi
3b4a:	e8 f1 e0 ff ff       	call   1c40 <dcgettext@plt>
3b4f:	4c 89 f1             	mov    rcx,r14
3b52:	48 89 c2             	mov    rdx,rax
3b55:	31 f6                	xor    esi,esi
3b57:	bf 01 00 00 00       	mov    edi,0x1
3b5c:	31 c0                	xor    eax,eax
3b5e:	e8 3d e3 ff ff       	call   1ea0 <error@plt>
3b63:	48 8b 3c 24          	mov    rdi,QWORD PTR [rsp]
3b67:	48 8d b4 24 20 01 00 	lea    rsi,[rsp+0x120]
3b6e:	00
3b6f:	44 89 7c 24 08       	mov    DWORD PTR [rsp+0x8],r15d
3b74:	e8 47 1a 00 00       	call   55c0 <umaxtostr>
3b79:	48 8d 35 50 5e 00 00 	lea    rsi,[rip+0x5e50]        # 99d0 <_IO_stdin_used+0xf10>
3b80:	ba 05 00 00 00       	mov    edx,0x5
3b85:	31 ff                	xor    edi,edi
3b87:	48 89 c3             	mov    rbx,rax
3b8a:	e8 b1 e0 ff ff       	call   1c40 <dcgettext@plt>
3b8f:	44 8b 44 24 08       	mov    r8d,DWORD PTR [rsp+0x8]
3b94:	48 89 c2             	mov    rdx,rax
3b97:	48 89 d9             	mov    rcx,rbx
3b9a:	31 f6                	xor    esi,esi
3b9c:	bf 01 00 00 00       	mov    edi,0x1
3ba1:	31 c0                	xor    eax,eax
3ba3:	e8 f8 e2 ff ff       	call   1ea0 <error@plt>
3ba8:	48 8d 0d c1 5f 00 00 	lea    rcx,[rip+0x5fc1]        # 9b70 <__PRETTY_FUNCTION__.7242>
3baf:	48 8d 35 0e 4f 00 00 	lea    rsi,[rip+0x4f0e]        # 8ac4 <_IO_stdin_used+0x4>
3bb6:	48 8d 3d 60 52 00 00 	lea    rdi,[rip+0x5260]        # 8e1d <_IO_stdin_used+0x35d>
3bbd:	ba 62 03 00 00       	mov    edx,0x362
3bc2:	e8 29 e1 ff ff       	call   1cf0 <__assert_fail@plt>
3bc7:	48 8b 15 c2 87 20 00 	mov    rdx,QWORD PTR [rip+0x2087c2]        # 20c390 <infile>
3bce:	be 03 00 00 00       	mov    esi,0x3
3bd3:	31 ff                	xor    edi,edi
3bd5:	e8 76 35 00 00       	call   7150 <quotearg_n_style_colon>
3bda:	48 89 c3             	mov    rbx,rax
3bdd:	e8 8e df ff ff       	call   1b70 <__errno_location@plt>
3be2:	8b 30                	mov    esi,DWORD PTR [rax]
3be4:	48 8d 15 03 52 00 00 	lea    rdx,[rip+0x5203]        # 8dee <_IO_stdin_used+0x32e>
3beb:	48 89 d9             	mov    rcx,rbx
3bee:	bf 01 00 00 00       	mov    edi,0x1
3bf3:	31 c0                	xor    eax,eax
3bf5:	e8 a6 e2 ff ff       	call   1ea0 <error@plt>
3bfa:	b9 01 00 00 00       	mov    ecx,0x1
3bff:	e9 e2 f4 ff ff       	jmp    30e6 <main+0x1106>
3c04:	4c 89 ef             	mov    rdi,r13
3c07:	44 89 3c 24          	mov    DWORD PTR [rsp],r15d
3c0b:	e8 10 37 00 00       	call   7320 <quote>
3c10:	44 8b 04 24          	mov    r8d,DWORD PTR [rsp]
3c14:	48 89 c3             	mov    rbx,rax
3c17:	ba 05 00 00 00       	mov    edx,0x5
3c1c:	48 8d 35 05 5e 00 00 	lea    rsi,[rip+0x5e05]        # 9a28 <_IO_stdin_used+0xf68>
3c23:	41 83 f8 64          	cmp    r8d,0x64
3c27:	0f 85 4f fe ff ff    	jne    3a7c <main+0x1a9c>
3c2d:	48 8d 35 c4 5d 00 00 	lea    rsi,[rip+0x5dc4]        # 99f8 <_IO_stdin_used+0xf38>
3c34:	31 ff                	xor    edi,edi
3c36:	e8 05 e0 ff ff       	call   1c40 <dcgettext@plt>
3c3b:	e9 43 fe ff ff       	jmp    3a83 <main+0x1aa3>
3c40:	48 8d 35 14 51 00 00 	lea    rsi,[rip+0x5114]        # 8d5b <_IO_stdin_used+0x29b>
3c47:	ba 05 00 00 00       	mov    edx,0x5
3c4c:	31 ff                	xor    edi,edi
3c4e:	e8 ed df ff ff       	call   1c40 <dcgettext@plt>
3c53:	31 f6                	xor    esi,esi
3c55:	48 89 c2             	mov    rdx,rax
3c58:	bf 01 00 00 00       	mov    edi,0x1
3c5d:	31 c0                	xor    eax,eax
3c5f:	e8 3c e2 ff ff       	call   1ea0 <error@plt>
3c64:	48 8d 3d 08 51 00 00 	lea    rdi,[rip+0x5108]        # 8d73 <_IO_stdin_used+0x2b3>
3c6b:	e8 b0 36 00 00       	call   7320 <quote>
3c70:	48 8d 35 98 50 00 00 	lea    rsi,[rip+0x5098]        # 8d0f <_IO_stdin_used+0x24f>
3c77:	ba 05 00 00 00       	mov    edx,0x5
3c7c:	31 ff                	xor    edi,edi
3c7e:	48 89 c3             	mov    rbx,rax
3c81:	e8 ba df ff ff       	call   1c40 <dcgettext@plt>
3c86:	48 8d 15 5d 51 00 00 	lea    rdx,[rip+0x515d]        # 8dea <_IO_stdin_used+0x32a>
3c8d:	48 89 c1             	mov    rcx,rax
3c90:	31 ff                	xor    edi,edi
3c92:	49 89 d8             	mov    r8,rbx
3c95:	31 f6                	xor    esi,esi
3c97:	31 c0                	xor    eax,eax
3c99:	e8 02 e2 ff ff       	call   1ea0 <error@plt>
3c9e:	bf 01 00 00 00       	mov    edi,0x1
3ca3:	e8 18 12 00 00       	call   4ec0 <usage>
3ca8:	ba 05 00 00 00       	mov    edx,0x5
3cad:	48 8d 35 cc 5c 00 00 	lea    rsi,[rip+0x5ccc]        # 9980 <_IO_stdin_used+0xec0>
3cb4:	e9 5e fc ff ff       	jmp    3917 <main+0x1937>
3cb9:	48 8d 35 e8 5c 00 00 	lea    rsi,[rip+0x5ce8]        # 99a8 <_IO_stdin_used+0xee8>
3cc0:	ba 05 00 00 00       	mov    edx,0x5
3cc5:	31 ff                	xor    edi,edi
3cc7:	e8 74 df ff ff       	call   1c40 <dcgettext@plt>
3ccc:	31 f6                	xor    esi,esi
3cce:	48 89 c2             	mov    rdx,rax
3cd1:	bf 01 00 00 00       	mov    edi,0x1
3cd6:	31 c0                	xor    eax,eax
3cd8:	e8 c3 e1 ff ff       	call   1ea0 <error@plt>
3cdd:	4c 89 ef             	mov    rdi,r13
3ce0:	e8 3b 36 00 00       	call   7320 <quote>
3ce5:	48 8d 35 89 50 00 00 	lea    rsi,[rip+0x5089]        # 8d75 <_IO_stdin_used+0x2b5>
3cec:	48 89 c3             	mov    rbx,rax
3cef:	ba 05 00 00 00       	mov    edx,0x5
3cf4:	31 ff                	xor    edi,edi
3cf6:	e8 45 df ff ff       	call   1c40 <dcgettext@plt>
3cfb:	48 89 d9             	mov    rcx,rbx
3cfe:	48 89 c2             	mov    rdx,rax
3d01:	31 f6                	xor    esi,esi
3d03:	bf 01 00 00 00       	mov    edi,0x1
3d08:	31 c0                	xor    eax,eax
3d0a:	e8 91 e1 ff ff       	call   1ea0 <error@plt>
3d0f:	90                   	nop

0000000000003d10 <_start>:
3d10:	31 ed                	xor    ebp,ebp
3d12:	49 89 d1             	mov    r9,rdx
3d15:	5e                   	pop    rsi
3d16:	48 89 e2             	mov    rdx,rsp
3d19:	48 83 e4 f0          	and    rsp,0xfffffffffffffff0
3d1d:	50                   	push   rax
3d1e:	54                   	push   rsp
3d1f:	4c 8d 05 5a 4d 00 00 	lea    r8,[rip+0x4d5a]        # 8a80 <__libc_csu_fini>
3d26:	48 8d 0d e3 4c 00 00 	lea    rcx,[rip+0x4ce3]        # 8a10 <__libc_csu_init>
3d2d:	48 8d 3d ac e2 ff ff 	lea    rdi,[rip+0xffffffffffffe2ac]        # 1fe0 <main>
3d34:	ff 15 9e 82 20 00    	call   QWORD PTR [rip+0x20829e]        # 20bfd8 <__libc_start_main@GLIBC_2.2.5>
3d3a:	f4                   	hlt
3d3b:	0f 1f 44 00 00       	nop    DWORD PTR [rax+rax*1+0x0]

0000000000003d40 <deregister_tm_clones>:
3d40:	48 8d 3d 01 85 20 00 	lea    rdi,[rip+0x208501]        # 20c248 <__TMC_END__>
3d47:	55                   	push   rbp
3d48:	48 8d 05 f9 84 20 00 	lea    rax,[rip+0x2084f9]        # 20c248 <__TMC_END__>
3d4f:	48 39 f8             	cmp    rax,rdi
3d52:	48 89 e5             	mov    rbp,rsp
3d55:	74 19                	je     3d70 <deregister_tm_clones+0x30>
3d57:	48 8b 05 72 82 20 00 	mov    rax,QWORD PTR [rip+0x208272]        # 20bfd0 <_ITM_deregisterTMCloneTable>
3d5e:	48 85 c0             	test   rax,rax
3d61:	74 0d                	je     3d70 <deregister_tm_clones+0x30>
3d63:	5d                   	pop    rbp
3d64:	ff e0                	jmp    rax
3d66:	66 2e 0f 1f 84 00 00 	nop    WORD PTR cs:[rax+rax*1+0x0]
3d6d:	00 00 00
3d70:	5d                   	pop    rbp
3d71:	c3                   	ret
3d72:	0f 1f 40 00          	nop    DWORD PTR [rax+0x0]
3d76:	66 2e 0f 1f 84 00 00 	nop    WORD PTR cs:[rax+rax*1+0x0]
3d7d:	00 00 00

0000000000003d80 <register_tm_clones>:
3d80:	48 8d 3d c1 84 20 00 	lea    rdi,[rip+0x2084c1]        # 20c248 <__TMC_END__>
3d87:	48 8d 35 ba 84 20 00 	lea    rsi,[rip+0x2084ba]        # 20c248 <__TMC_END__>
3d8e:	55                   	push   rbp
3d8f:	48 29 fe             	sub    rsi,rdi
3d92:	48 89 e5             	mov    rbp,rsp
3d95:	48 c1 fe 03          	sar    rsi,0x3
3d99:	48 89 f0             	mov    rax,rsi
3d9c:	48 c1 e8 3f          	shr    rax,0x3f
3da0:	48 01 c6             	add    rsi,rax
3da3:	48 d1 fe             	sar    rsi,1
3da6:	74 18                	je     3dc0 <register_tm_clones+0x40>
3da8:	48 8b 05 39 82 20 00 	mov    rax,QWORD PTR [rip+0x208239]        # 20bfe8 <_ITM_registerTMCloneTable>
3daf:	48 85 c0             	test   rax,rax
3db2:	74 0c                	je     3dc0 <register_tm_clones+0x40>
3db4:	5d                   	pop    rbp
3db5:	ff e0                	jmp    rax
3db7:	66 0f 1f 84 00 00 00 	nop    WORD PTR [rax+rax*1+0x0]
3dbe:	00 00
3dc0:	5d                   	pop    rbp
3dc1:	c3                   	ret
3dc2:	0f 1f 40 00          	nop    DWORD PTR [rax+0x0]
3dc6:	66 2e 0f 1f 84 00 00 	nop    WORD PTR cs:[rax+rax*1+0x0]
3dcd:	00 00 00

0000000000003dd0 <__do_global_dtors_aux>:
3dd0:	80 3d d1 84 20 00 00 	cmp    BYTE PTR [rip+0x2084d1],0x0        # 20c2a8 <completed.7697>
3dd7:	75 2f                	jne    3e08 <__do_global_dtors_aux+0x38>
3dd9:	48 83 3d 0f 82 20 00 	cmp    QWORD PTR [rip+0x20820f],0x0        # 20bff0 <__cxa_finalize@GLIBC_2.2.5>
3de0:	00
3de1:	55                   	push   rbp
3de2:	48 89 e5             	mov    rbp,rsp
3de5:	74 0c                	je     3df3 <__do_global_dtors_aux+0x23>
3de7:	48 8b 3d 1a 82 20 00 	mov    rdi,QWORD PTR [rip+0x20821a]        # 20c008 <__dso_handle>
3dee:	e8 dd e1 ff ff       	call   1fd0 <__cxa_finalize@plt>
3df3:	e8 48 ff ff ff       	call   3d40 <deregister_tm_clones>
3df8:	c6 05 a9 84 20 00 01 	mov    BYTE PTR [rip+0x2084a9],0x1        # 20c2a8 <completed.7697>
3dff:	5d                   	pop    rbp
3e00:	c3                   	ret
3e01:	0f 1f 80 00 00 00 00 	nop    DWORD PTR [rax+0x0]
3e08:	f3 c3                	repz ret
3e0a:	66 0f 1f 44 00 00    	nop    WORD PTR [rax+rax*1+0x0]

0000000000003e10 <frame_dummy>:
3e10:	55                   	push   rbp
3e11:	48 89 e5             	mov    rbp,rsp
3e14:	5d                   	pop    rbp
3e15:	e9 66 ff ff ff       	jmp    3d80 <register_tm_clones>
3e1a:	66 0f 1f 44 00 00    	nop    WORD PTR [rax+rax*1+0x0]

0000000000003e20 <next_file_name>:
3e20:	41 55                	push   r13
3e22:	41 54                	push   r12
3e24:	55                   	push   rbp
3e25:	53                   	push   rbx
3e26:	48 83 ec 08          	sub    rsp,0x8
3e2a:	4c 8b 25 87 85 20 00 	mov    r12,QWORD PTR [rip+0x208587]        # 20c3b8 <outfile>
3e31:	48 8b 1d 70 85 20 00 	mov    rbx,QWORD PTR [rip+0x208570]        # 20c3a8 <suffix_length>
3e38:	4d 85 e4             	test   r12,r12
3e3b:	74 7f                	je     3ebc <next_file_name+0x9c>
3e3d:	48 85 db             	test   rbx,rbx
3e40:	48 8d 43 ff          	lea    rax,[rbx-0x1]
3e44:	0f 84 54 02 00 00    	je     409e <next_file_name+0x27e>
3e4a:	48 8b 0d 6f 84 20 00 	mov    rcx,QWORD PTR [rip+0x20846f]        # 20c2c0 <sufindex.7081>
3e51:	44 0f b6 05 bf 81 20 	movzx  r8d,BYTE PTR [rip+0x2081bf]        # 20c018 <suffix_auto>
3e58:	00
3e59:	48 8b 35 c0 81 20 00 	mov    rsi,QWORD PTR [rip+0x2081c0]        # 20c020 <suffix_alphabet>
3e60:	48 8b 3d 49 85 20 00 	mov    rdi,QWORD PTR [rip+0x208549]        # 20c3b0 <outfile_mid>
3e67:	eb 32                	jmp    3e9b <next_file_name+0x7b>
3e69:	0f 1f 80 00 00 00 00 	nop    DWORD PTR [rax+0x0]
3e70:	0f b6 14 16          	movzx  edx,BYTE PTR [rsi+rdx*1]
3e74:	84 d2                	test   dl,dl
3e76:	88 14 07             	mov    BYTE PTR [rdi+rax*1],dl
3e79:	0f 85 aa 01 00 00    	jne    4029 <next_file_name+0x209>
3e7f:	48 c7 04 c1 00 00 00 	mov    QWORD PTR [rcx+rax*8],0x0
3e86:	00
3e87:	0f b6 16             	movzx  edx,BYTE PTR [rsi]
3e8a:	88 14 07             	mov    BYTE PTR [rdi+rax*1],dl
3e8d:	48 83 e8 01          	sub    rax,0x1
3e91:	48 83 f8 ff          	cmp    rax,0xffffffffffffffff
3e95:	0f 84 03 02 00 00    	je     409e <next_file_name+0x27e>
3e9b:	48 8b 14 c1          	mov    rdx,QWORD PTR [rcx+rax*8]
3e9f:	48 83 c2 01          	add    rdx,0x1
3ea3:	48 85 c0             	test   rax,rax
3ea6:	48 89 14 c1          	mov    QWORD PTR [rcx+rax*8],rdx
3eaa:	75 c4                	jne    3e70 <next_file_name+0x50>
3eac:	45 84 c0             	test   r8b,r8b
3eaf:	74 bf                	je     3e70 <next_file_name+0x50>
3eb1:	4c 8b 09             	mov    r9,QWORD PTR [rcx]
3eb4:	42 80 7c 0e 01 00    	cmp    BYTE PTR [rsi+r9*1+0x1],0x0
3eba:	75 b4                	jne    3e70 <next_file_name+0x50>
3ebc:	48 8b 2d 15 84 20 00 	mov    rbp,QWORD PTR [rip+0x208415]        # 20c2d8 <outfile_length.7083>
3ec3:	48 85 ed             	test   rbp,rbp
3ec6:	0f 85 6c 01 00 00    	jne    4038 <next_file_name+0x218>
3ecc:	48 8b 3d ed 84 20 00 	mov    rdi,QWORD PTR [rip+0x2084ed]        # 20c3c0 <outbase>
3ed3:	e8 88 dd ff ff       	call   1c60 <strlen@plt>
3ed8:	48 8b 3d b9 84 20 00 	mov    rdi,QWORD PTR [rip+0x2084b9]        # 20c398 <additional_suffix>
3edf:	49 89 c5             	mov    r13,rax
3ee2:	48 89 05 e7 83 20 00 	mov    QWORD PTR [rip+0x2083e7],rax        # 20c2d0 <outbase_length.7082>
3ee9:	31 c0                	xor    eax,eax
3eeb:	48 85 ff             	test   rdi,rdi
3eee:	74 05                	je     3ef5 <next_file_name+0xd5>
3ef0:	e8 6b dd ff ff       	call   1c60 <strlen@plt>
3ef5:	49 8d 74 1d 00       	lea    rsi,[r13+rbx*1+0x0]
3efa:	48 89 05 c7 83 20 00 	mov    QWORD PTR [rip+0x2083c7],rax        # 20c2c8 <addsuf_length.7084>
3f01:	48 01 c6             	add    rsi,rax
3f04:	48 89 35 cd 83 20 00 	mov    QWORD PTR [rip+0x2083cd],rsi        # 20c2d8 <outfile_length.7083>
3f0b:	48 83 c6 01          	add    rsi,0x1
3f0f:	49 39 f5             	cmp    r13,rsi
3f12:	0f 87 aa 01 00 00    	ja     40c2 <next_file_name+0x2a2>
3f18:	4c 89 e7             	mov    rdi,r12
3f1b:	e8 a0 3b 00 00       	call   7ac0 <xrealloc>
3f20:	48 8b 1d a9 83 20 00 	mov    rbx,QWORD PTR [rip+0x2083a9]        # 20c2d0 <outbase_length.7082>
3f27:	48 8b 35 92 84 20 00 	mov    rsi,QWORD PTR [rip+0x208492]        # 20c3c0 <outbase>
3f2e:	48 89 c7             	mov    rdi,rax
3f31:	49 89 c4             	mov    r12,rax
3f34:	48 89 05 7d 84 20 00 	mov    QWORD PTR [rip+0x20847d],rax        # 20c3b8 <outfile>
3f3b:	48 89 da             	mov    rdx,rbx
3f3e:	e8 8d de ff ff       	call   1dd0 <memcpy@plt>
3f43:	48 8b 05 d6 80 20 00 	mov    rax,QWORD PTR [rip+0x2080d6]        # 20c020 <suffix_alphabet>
3f4a:	4c 8b 2d 6f 83 20 00 	mov    r13,QWORD PTR [rip+0x20836f]        # 20c2c0 <sufindex.7081>
3f51:	49 8d 0c 1c          	lea    rcx,[r12+rbx*1]
3f55:	0f be 30             	movsx  esi,BYTE PTR [rax]
3f58:	48 8b 1d 49 84 20 00 	mov    rbx,QWORD PTR [rip+0x208449]        # 20c3a8 <suffix_length>
3f5f:	48 89 cf             	mov    rdi,rcx
3f62:	48 89 0d 47 84 20 00 	mov    QWORD PTR [rip+0x208447],rcx        # 20c3b0 <outfile_mid>
3f69:	48 89 da             	mov    rdx,rbx
3f6c:	e8 9f dd ff ff       	call   1d10 <memset@plt>
3f71:	48 8b 35 20 84 20 00 	mov    rsi,QWORD PTR [rip+0x208420]        # 20c398 <additional_suffix>
3f78:	48 85 f6             	test   rsi,rsi
3f7b:	74 10                	je     3f8d <next_file_name+0x16d>
3f7d:	48 8b 15 44 83 20 00 	mov    rdx,QWORD PTR [rip+0x208344]        # 20c2c8 <addsuf_length.7084>
3f84:	48 8d 3c 18          	lea    rdi,[rax+rbx*1]
3f88:	e8 43 de ff ff       	call   1dd0 <memcpy@plt>
3f8d:	48 8b 05 44 83 20 00 	mov    rax,QWORD PTR [rip+0x208344]        # 20c2d8 <outfile_length.7083>
3f94:	4c 89 ef             	mov    rdi,r13
3f97:	41 c6 04 04 00       	mov    BYTE PTR [r12+rax*1],0x0
3f9c:	e8 af db ff ff       	call   1b50 <free@plt>
3fa1:	48 89 df             	mov    rdi,rbx
3fa4:	be 08 00 00 00       	mov    esi,0x8
3fa9:	e8 82 3c 00 00       	call   7c30 <xcalloc>
3fae:	4c 8b 25 eb 83 20 00 	mov    r12,QWORD PTR [rip+0x2083eb]        # 20c3a0 <numeric_suffix_start>
3fb5:	48 89 c3             	mov    rbx,rax
3fb8:	48 89 05 01 83 20 00 	mov    QWORD PTR [rip+0x208301],rax        # 20c2c0 <sufindex.7081>
3fbf:	4d 85 e4             	test   r12,r12
3fc2:	74 65                	je     4029 <next_file_name+0x209>
3fc4:	48 85 ed             	test   rbp,rbp
3fc7:	0f 85 fa 00 00 00    	jne    40c7 <next_file_name+0x2a7>
3fcd:	4c 89 e7             	mov    rdi,r12
3fd0:	e8 8b dc ff ff       	call   1c60 <strlen@plt>
3fd5:	4c 8b 2d cc 83 20 00 	mov    r13,QWORD PTR [rip+0x2083cc]        # 20c3a8 <suffix_length>
3fdc:	48 89 c5             	mov    rbp,rax
3fdf:	48 89 c2             	mov    rdx,rax
3fe2:	4c 89 e6             	mov    rsi,r12
3fe5:	4c 89 ef             	mov    rdi,r13
3fe8:	49 c1 e5 03          	shl    r13,0x3
3fec:	48 29 c7             	sub    rdi,rax
3fef:	48 03 3d ba 83 20 00 	add    rdi,QWORD PTR [rip+0x2083ba]        # 20c3b0 <outfile_mid>
3ff6:	e8 d5 dd ff ff       	call   1dd0 <memcpy@plt>
3ffb:	48 85 ed             	test   rbp,rbp
3ffe:	48 8d 4d ff          	lea    rcx,[rbp-0x1]
4002:	74 25                	je     4029 <next_file_name+0x209>
4004:	48 f7 dd             	neg    rbp
4007:	49 8d 44 ed 00       	lea    rax,[r13+rbp*8+0x0]
400c:	48 01 d8             	add    rax,rbx
400f:	90                   	nop
4010:	41 0f be 14 0c       	movsx  edx,BYTE PTR [r12+rcx*1]
4015:	83 ea 30             	sub    edx,0x30
4018:	48 63 d2             	movsxd rdx,edx
401b:	48 89 14 c8          	mov    QWORD PTR [rax+rcx*8],rdx
401f:	48 83 e9 01          	sub    rcx,0x1
4023:	48 83 f9 ff          	cmp    rcx,0xffffffffffffffff
4027:	75 e7                	jne    4010 <next_file_name+0x1f0>
4029:	48 83 c4 08          	add    rsp,0x8
402d:	5b                   	pop    rbx
402e:	5d                   	pop    rbp
402f:	41 5c                	pop    r12
4031:	41 5d                	pop    r13
4033:	c3                   	ret
4034:	0f 1f 40 00          	nop    DWORD PTR [rax+0x0]
4038:	48 83 c3 01          	add    rbx,0x1
403c:	48 8d 75 03          	lea    rsi,[rbp+0x3]
4040:	48 3b 35 89 82 20 00 	cmp    rsi,QWORD PTR [rip+0x208289]        # 20c2d0 <outbase_length.7082>
4047:	48 8d 45 02          	lea    rax,[rbp+0x2]
404b:	48 89 1d 56 83 20 00 	mov    QWORD PTR [rip+0x208356],rbx        # 20c3a8 <suffix_length>
4052:	48 89 05 7f 82 20 00 	mov    QWORD PTR [rip+0x20827f],rax        # 20c2d8 <outfile_length.7083>
4059:	72 67                	jb     40c2 <next_file_name+0x2a2>
405b:	4c 89 e7             	mov    rdi,r12
405e:	e8 5d 3a 00 00       	call   7ac0 <xrealloc>
4063:	4c 8b 2d 56 82 20 00 	mov    r13,QWORD PTR [rip+0x208256]        # 20c2c0 <sufindex.7081>
406a:	49 89 c4             	mov    r12,rax
406d:	48 89 05 44 83 20 00 	mov    QWORD PTR [rip+0x208344],rax        # 20c3b8 <outfile>
4074:	48 8b 05 a5 7f 20 00 	mov    rax,QWORD PTR [rip+0x207fa5]        # 20c020 <suffix_alphabet>
407b:	48 8b 0d 4e 82 20 00 	mov    rcx,QWORD PTR [rip+0x20824e]        # 20c2d0 <outbase_length.7082>
4082:	49 8b 55 00          	mov    rdx,QWORD PTR [r13+0x0]
4086:	48 8d 59 01          	lea    rbx,[rcx+0x1]
408a:	0f b6 14 10          	movzx  edx,BYTE PTR [rax+rdx*1]
408e:	48 89 1d 3b 82 20 00 	mov    QWORD PTR [rip+0x20823b],rbx        # 20c2d0 <outbase_length.7082>
4095:	41 88 14 0c          	mov    BYTE PTR [r12+rcx*1],dl
4099:	e9 b3 fe ff ff       	jmp    3f51 <next_file_name+0x131>
409e:	48 8d 35 4b 4e 00 00 	lea    rsi,[rip+0x4e4b]        # 8ef0 <_IO_stdin_used+0x430>
40a5:	ba 05 00 00 00       	mov    edx,0x5
40aa:	31 ff                	xor    edi,edi
40ac:	e8 8f db ff ff       	call   1c40 <dcgettext@plt>
40b1:	31 f6                	xor    esi,esi
40b3:	48 89 c2             	mov    rdx,rax
40b6:	bf 01 00 00 00       	mov    edi,0x1
40bb:	31 c0                	xor    eax,eax
40bd:	e8 de dd ff ff       	call   1ea0 <error@plt>
40c2:	e8 e9 3b 00 00       	call   7cb0 <xalloc_die>
40c7:	48 8d 0d da 5a 00 00 	lea    rcx,[rip+0x5ada]        # 9ba8 <__PRETTY_FUNCTION__.7087>
40ce:	48 8d 35 ef 49 00 00 	lea    rsi,[rip+0x49ef]        # 8ac4 <_IO_stdin_used+0x4>
40d5:	48 8d 3d 06 4a 00 00 	lea    rdi,[rip+0x4a06]        # 8ae2 <_IO_stdin_used+0x22>
40dc:	ba 98 01 00 00       	mov    edx,0x198
40e1:	e8 0a dc ff ff       	call   1cf0 <__assert_fail@plt>
40e6:	66 2e 0f 1f 84 00 00 	nop    WORD PTR cs:[rax+rax*1+0x0]
40ed:	00 00 00

00000000000040f0 <create>:
40f0:	41 54                	push   r12
40f2:	55                   	push   rbp
40f3:	49 89 fc             	mov    r12,rdi
40f6:	53                   	push   rbx
40f7:	48 81 ec a0 00 00 00 	sub    rsp,0xa0
40fe:	64 48 8b 04 25 28 00 	mov    rax,QWORD PTR fs:0x28
4105:	00 00
4107:	48 89 84 24 98 00 00 	mov    QWORD PTR [rsp+0x98],rax
410e:	00
410f:	31 c0                	xor    eax,eax
4111:	48 83 3d e7 83 20 00 	cmp    QWORD PTR [rip+0x2083e7],0x0        # 20c500 <filter_command>
4118:	00
4119:	0f 84 b9 01 00 00    	je     42d8 <create+0x1e8>
411f:	48 8d 3d 05 4a 00 00 	lea    rdi,[rip+0x4a05]        # 8b2b <_IO_stdin_used+0x6b>
4126:	e8 05 da ff ff       	call   1b30 <getenv@plt>
412b:	48 8d 3d ff 49 00 00 	lea    rdi,[rip+0x49ff]        # 8b31 <_IO_stdin_used+0x71>
4132:	48 85 c0             	test   rax,rax
4135:	48 89 c5             	mov    rbp,rax
4138:	48 8d 05 ab 49 00 00 	lea    rax,[rip+0x49ab]        # 8aea <_IO_stdin_used+0x2a>
413f:	ba 01 00 00 00       	mov    edx,0x1
4144:	4c 89 e6             	mov    rsi,r12
4147:	48 0f 44 e8          	cmove  rbp,rax
414b:	e8 90 da ff ff       	call   1be0 <setenv@plt>
4150:	85 c0                	test   eax,eax
4152:	0f 85 a9 03 00 00    	jne    4501 <create+0x411>
4158:	80 3d 83 81 20 00 00 	cmp    BYTE PTR [rip+0x208183],0x0        # 20c2e2 <verbose>
415f:	0f 85 3b 02 00 00    	jne    43a0 <create+0x2b0>
4165:	48 89 e7             	mov    rdi,rsp
4168:	e8 c3 db ff ff       	call   1d30 <pipe@plt>
416d:	85 c0                	test   eax,eax
416f:	0f 85 b8 03 00 00    	jne    452d <create+0x43d>
4175:	e8 26 de ff ff       	call   1fa0 <fork@plt>
417a:	85 c0                	test   eax,eax
417c:	89 c3                	mov    ebx,eax
417e:	74 78                	je     41f8 <create+0x108>
4180:	83 f8 ff             	cmp    eax,0xffffffff
4183:	0f 84 c4 04 00 00    	je     464d <create+0x55d>
4189:	8b 3c 24             	mov    edi,DWORD PTR [rsp]
418c:	e8 8f db ff ff       	call   1d20 <close@plt>
4191:	85 c0                	test   eax,eax
4193:	0f 85 88 04 00 00    	jne    4621 <create+0x531>
4199:	48 8b 0d 40 83 20 00 	mov    rcx,QWORD PTR [rip+0x208340]        # 20c4e0 <n_open_pipes>
41a0:	48 3b 0d 41 83 20 00 	cmp    rcx,QWORD PTR [rip+0x208341]        # 20c4e8 <open_pipes_alloc>
41a7:	89 1d 4b 83 20 00    	mov    DWORD PTR [rip+0x20834b],ebx        # 20c4f8 <filter_pid>
41ad:	48 8b 3d 3c 83 20 00 	mov    rdi,QWORD PTR [rip+0x20833c]        # 20c4f0 <open_pipes>
41b4:	0f 84 9e 02 00 00    	je     4458 <create+0x368>
41ba:	48 8d 41 01          	lea    rax,[rcx+0x1]
41be:	48 89 05 1b 83 20 00 	mov    QWORD PTR [rip+0x20831b],rax        # 20c4e0 <n_open_pipes>
41c5:	8b 44 24 04          	mov    eax,DWORD PTR [rsp+0x4]
41c9:	89 04 8f             	mov    DWORD PTR [rdi+rcx*4],eax
41cc:	8b 5c 24 04          	mov    ebx,DWORD PTR [rsp+0x4]
41d0:	48 8b 8c 24 98 00 00 	mov    rcx,QWORD PTR [rsp+0x98]
41d7:	00
41d8:	64 48 33 0c 25 28 00 	xor    rcx,QWORD PTR fs:0x28
41df:	00 00
41e1:	89 d8                	mov    eax,ebx
41e3:	0f 85 13 03 00 00    	jne    44fc <create+0x40c>
41e9:	48 81 c4 a0 00 00 00 	add    rsp,0xa0
41f0:	5b                   	pop    rbx
41f1:	5d                   	pop    rbp
41f2:	41 5c                	pop    r12
41f4:	c3                   	ret
41f5:	0f 1f 00             	nop    DWORD PTR [rax]
41f8:	48 83 3d e0 82 20 00 	cmp    QWORD PTR [rip+0x2082e0],0x0        # 20c4e0 <n_open_pipes>
41ff:	00
4200:	74 2a                	je     422c <create+0x13c>
4202:	31 db                	xor    ebx,ebx
4204:	0f 1f 40 00          	nop    DWORD PTR [rax+0x0]
4208:	48 8b 05 e1 82 20 00 	mov    rax,QWORD PTR [rip+0x2082e1]        # 20c4f0 <open_pipes>
420f:	8b 3c 98             	mov    edi,DWORD PTR [rax+rbx*4]
4212:	e8 09 db ff ff       	call   1d20 <close@plt>
4217:	85 c0                	test   eax,eax
4219:	0f 85 b1 02 00 00    	jne    44d0 <create+0x3e0>
421f:	48 83 c3 01          	add    rbx,0x1
4223:	48 39 1d b6 82 20 00 	cmp    QWORD PTR [rip+0x2082b6],rbx        # 20c4e0 <n_open_pipes>
422a:	77 dc                	ja     4208 <create+0x118>
422c:	8b 7c 24 04          	mov    edi,DWORD PTR [rsp+0x4]
4230:	e8 eb da ff ff       	call   1d20 <close@plt>
4235:	41 89 c4             	mov    r12d,eax
4238:	e8 33 d9 ff ff       	call   1b70 <__errno_location@plt>
423d:	45 85 e4             	test   r12d,r12d
4240:	48 89 c3             	mov    rbx,rax
4243:	0f 85 51 03 00 00    	jne    459a <create+0x4aa>
4249:	8b 3c 24             	mov    edi,DWORD PTR [rsp]
424c:	85 ff                	test   edi,edi
424e:	74 1f                	je     426f <create+0x17f>
4250:	31 f6                	xor    esi,esi
4252:	e8 49 da ff ff       	call   1ca0 <dup2@plt>
4257:	85 c0                	test   eax,eax
4259:	0f 85 5f 03 00 00    	jne    45be <create+0x4ce>
425f:	8b 3c 24             	mov    edi,DWORD PTR [rsp]
4262:	e8 b9 da ff ff       	call   1d20 <close@plt>
4267:	85 c0                	test   eax,eax
4269:	0f 85 79 01 00 00    	jne    43e8 <create+0x2f8>
426f:	48 8d 35 ea 81 20 00 	lea    rsi,[rip+0x2081ea]        # 20c460 <oldblocked>
4276:	31 d2                	xor    edx,edx
4278:	bf 02 00 00 00       	mov    edi,0x2
427d:	e8 be d8 ff ff       	call   1b40 <sigprocmask@plt>
4282:	4c 8b 25 77 82 20 00 	mov    r12,QWORD PTR [rip+0x208277]        # 20c500 <filter_command>
4289:	48 89 ef             	mov    rdi,rbp
428c:	e8 2f 11 00 00       	call   53c0 <last_component>
4291:	48 8d 15 18 49 00 00 	lea    rdx,[rip+0x4918]        # 8bb0 <_IO_stdin_used+0xf0>
4298:	45 31 c0             	xor    r8d,r8d
429b:	48 89 c6             	mov    rsi,rax
429e:	4c 89 e1             	mov    rcx,r12
42a1:	48 89 ef             	mov    rdi,rbp
42a4:	31 c0                	xor    eax,eax
42a6:	e8 c5 dc ff ff       	call   1f70 <execl@plt>
42ab:	48 8d 35 ae 4c 00 00 	lea    rsi,[rip+0x4cae]        # 8f60 <_IO_stdin_used+0x4a0>
42b2:	ba 05 00 00 00       	mov    edx,0x5
42b7:	31 ff                	xor    edi,edi
42b9:	e8 82 d9 ff ff       	call   1c40 <dcgettext@plt>
42be:	8b 33                	mov    esi,DWORD PTR [rbx]
42c0:	48 89 c2             	mov    rdx,rax
42c3:	4d 89 e0             	mov    r8,r12
42c6:	48 89 e9             	mov    rcx,rbp
42c9:	bf 01 00 00 00       	mov    edi,0x1
42ce:	31 c0                	xor    eax,eax
42d0:	e8 cb db ff ff       	call   1ea0 <error@plt>
42d5:	0f 1f 00             	nop    DWORD PTR [rax]
42d8:	80 3d 03 80 20 00 00 	cmp    BYTE PTR [rip+0x208003],0x0        # 20c2e2 <verbose>
42df:	0f 85 2b 01 00 00    	jne    4410 <create+0x320>
42e5:	31 c0                	xor    eax,eax
42e7:	ba b6 01 00 00       	mov    edx,0x1b6
42ec:	be 41 00 00 00       	mov    esi,0x41
42f1:	4c 89 e7             	mov    rdi,r12
42f4:	e8 77 11 00 00       	call   5470 <open_safer>
42f9:	85 c0                	test   eax,eax
42fb:	89 c3                	mov    ebx,eax
42fd:	0f 88 cd fe ff ff    	js     41d0 <create+0xe0>
4303:	48 89 e2             	mov    rdx,rsp
4306:	89 c6                	mov    esi,eax
4308:	bf 01 00 00 00       	mov    edi,0x1
430d:	e8 0e db ff ff       	call   1e20 <__fxstat@plt>
4312:	85 c0                	test   eax,eax
4314:	0f 85 c8 02 00 00    	jne    45e2 <create+0x4f2>
431a:	48 8b 44 24 08       	mov    rax,QWORD PTR [rsp+0x8]
431f:	48 39 05 e2 7f 20 00 	cmp    QWORD PTR [rip+0x207fe2],rax        # 20c308 <in_stat_buf+0x8>
4326:	75 11                	jne    4339 <create+0x249>
4328:	48 8b 04 24          	mov    rax,QWORD PTR [rsp]
432c:	48 39 05 cd 7f 20 00 	cmp    QWORD PTR [rip+0x207fcd],rax        # 20c300 <in_stat_buf>
4333:	0f 84 2a 02 00 00    	je     4563 <create+0x473>
4339:	31 f6                	xor    esi,esi
433b:	89 df                	mov    edi,ebx
433d:	e8 8e d9 ff ff       	call   1cd0 <ftruncate@plt>
4342:	85 c0                	test   eax,eax
4344:	0f 84 86 fe ff ff    	je     41d0 <create+0xe0>
434a:	8b 44 24 18          	mov    eax,DWORD PTR [rsp+0x18]
434e:	25 00 f0 00 00       	and    eax,0xf000
4353:	3d 00 80 00 00       	cmp    eax,0x8000
4358:	0f 85 72 fe ff ff    	jne    41d0 <create+0xe0>
435e:	4c 89 e2             	mov    rdx,r12
4361:	be 03 00 00 00       	mov    esi,0x3
4366:	31 ff                	xor    edi,edi
4368:	e8 e3 2d 00 00       	call   7150 <quotearg_n_style_colon>
436d:	48 8d 35 a2 47 00 00 	lea    rsi,[rip+0x47a2]        # 8b16 <_IO_stdin_used+0x56>
4374:	ba 05 00 00 00       	mov    edx,0x5
4379:	31 ff                	xor    edi,edi
437b:	48 89 c5             	mov    rbp,rax
437e:	e8 bd d8 ff ff       	call   1c40 <dcgettext@plt>
4383:	48 89 c3             	mov    rbx,rax
4386:	e8 e5 d7 ff ff       	call   1b70 <__errno_location@plt>
438b:	8b 30                	mov    esi,DWORD PTR [rax]
438d:	48 89 e9             	mov    rcx,rbp
4390:	48 89 da             	mov    rdx,rbx
4393:	bf 01 00 00 00       	mov    edi,0x1
4398:	31 c0                	xor    eax,eax
439a:	e8 01 db ff ff       	call   1ea0 <error@plt>
439f:	90                   	nop
43a0:	4c 89 e2             	mov    rdx,r12
43a3:	31 ff                	xor    edi,edi
43a5:	be 03 00 00 00       	mov    esi,0x3
43aa:	e8 a1 2d 00 00       	call   7150 <quotearg_n_style_colon>
43af:	48 8d 35 80 47 00 00 	lea    rsi,[rip+0x4780]        # 8b36 <_IO_stdin_used+0x76>
43b6:	31 ff                	xor    edi,edi
43b8:	ba 05 00 00 00       	mov    edx,0x5
43bd:	48 89 c3             	mov    rbx,rax
43c0:	e8 7b d8 ff ff       	call   1c40 <dcgettext@plt>
43c5:	48 8b 3d 9c 7e 20 00 	mov    rdi,QWORD PTR [rip+0x207e9c]        # 20c268 <stdout@@GLIBC_2.2.5>
43cc:	48 89 c2             	mov    rdx,rax
43cf:	48 89 d9             	mov    rcx,rbx
43d2:	be 01 00 00 00       	mov    esi,0x1
43d7:	31 c0                	xor    eax,eax
43d9:	e8 62 db ff ff       	call   1f40 <__fprintf_chk@plt>
43de:	e9 82 fd ff ff       	jmp    4165 <create+0x75>
43e3:	0f 1f 44 00 00       	nop    DWORD PTR [rax+rax*1+0x0]
43e8:	48 8d 35 ae 47 00 00 	lea    rsi,[rip+0x47ae]        # 8b9d <_IO_stdin_used+0xdd>
43ef:	ba 05 00 00 00       	mov    edx,0x5
43f4:	31 ff                	xor    edi,edi
43f6:	e8 45 d8 ff ff       	call   1c40 <dcgettext@plt>
43fb:	8b 33                	mov    esi,DWORD PTR [rbx]
43fd:	48 89 c2             	mov    rdx,rax
4400:	bf 01 00 00 00       	mov    edi,0x1
4405:	31 c0                	xor    eax,eax
4407:	e8 94 da ff ff       	call   1ea0 <error@plt>
440c:	0f 1f 40 00          	nop    DWORD PTR [rax+0x0]
4410:	48 89 fe             	mov    rsi,rdi
4413:	bf 04 00 00 00       	mov    edi,0x4
4418:	e8 33 2c 00 00       	call   7050 <quotearg_style>
441d:	48 8d 35 ce 46 00 00 	lea    rsi,[rip+0x46ce]        # 8af2 <_IO_stdin_used+0x32>
4424:	31 ff                	xor    edi,edi
4426:	ba 05 00 00 00       	mov    edx,0x5
442b:	48 89 c3             	mov    rbx,rax
442e:	e8 0d d8 ff ff       	call   1c40 <dcgettext@plt>
4433:	48 8b 3d 2e 7e 20 00 	mov    rdi,QWORD PTR [rip+0x207e2e]        # 20c268 <stdout@@GLIBC_2.2.5>
443a:	48 89 c2             	mov    rdx,rax
443d:	48 89 d9             	mov    rcx,rbx
4440:	be 01 00 00 00       	mov    esi,0x1
4445:	31 c0                	xor    eax,eax
4447:	e8 f4 da ff ff       	call   1f40 <__fprintf_chk@plt>
444c:	e9 94 fe ff ff       	jmp    42e5 <create+0x1f5>
4451:	0f 1f 80 00 00 00 00 	nop    DWORD PTR [rax+0x0]
4458:	48 85 ff             	test   rdi,rdi
445b:	74 44                	je     44a1 <create+0x3b1>
445d:	48 b8 54 55 55 55 55 	movabs rax,0x1555555555555554
4464:	55 55 15
4467:	48 39 c1             	cmp    rcx,rax
446a:	77 5e                	ja     44ca <create+0x3da>
446c:	48 89 c8             	mov    rax,rcx
446f:	48 d1 e8             	shr    rax,1
4472:	48 8d 4c 01 01       	lea    rcx,[rcx+rax*1+0x1]
4477:	48 8d 34 8d 00 00 00 	lea    rsi,[rcx*4+0x0]
447e:	00
447f:	48 89 0d 62 80 20 00 	mov    QWORD PTR [rip+0x208062],rcx        # 20c4e8 <open_pipes_alloc>
4486:	e8 35 36 00 00       	call   7ac0 <xrealloc>
448b:	48 8b 0d 4e 80 20 00 	mov    rcx,QWORD PTR [rip+0x20804e]        # 20c4e0 <n_open_pipes>
4492:	48 89 c7             	mov    rdi,rax
4495:	48 89 05 54 80 20 00 	mov    QWORD PTR [rip+0x208054],rax        # 20c4f0 <open_pipes>
449c:	e9 19 fd ff ff       	jmp    41ba <create+0xca>
44a1:	48 85 c9             	test   rcx,rcx
44a4:	b8 20 00 00 00       	mov    eax,0x20
44a9:	ba 04 00 00 00       	mov    edx,0x4
44ae:	48 0f 44 c8          	cmove  rcx,rax
44b2:	48 89 d0             	mov    rax,rdx
44b5:	31 f6                	xor    esi,esi
44b7:	48 f7 e1             	mul    rcx
44ba:	0f 80 99 00 00 00    	jo     4559 <create+0x469>
44c0:	48 85 c0             	test   rax,rax
44c3:	78 05                	js     44ca <create+0x3da>
44c5:	48 85 f6             	test   rsi,rsi
44c8:	74 ad                	je     4477 <create+0x387>
44ca:	e8 e1 37 00 00       	call   7cb0 <xalloc_die>
44cf:	90                   	nop
44d0:	48 8d 35 8d 46 00 00 	lea    rsi,[rip+0x468d]        # 8b64 <_IO_stdin_used+0xa4>
44d7:	ba 05 00 00 00       	mov    edx,0x5
44dc:	31 ff                	xor    edi,edi
44de:	e8 5d d7 ff ff       	call   1c40 <dcgettext@plt>
44e3:	48 89 c3             	mov    rbx,rax
44e6:	e8 85 d6 ff ff       	call   1b70 <__errno_location@plt>
44eb:	8b 30                	mov    esi,DWORD PTR [rax]
44ed:	48 89 da             	mov    rdx,rbx
44f0:	bf 01 00 00 00       	mov    edi,0x1
44f5:	31 c0                	xor    eax,eax
44f7:	e8 a4 d9 ff ff       	call   1ea0 <error@plt>
44fc:	e8 6f d7 ff ff       	call   1c70 <__stack_chk_fail@plt>
4501:	48 8d 35 30 4a 00 00 	lea    rsi,[rip+0x4a30]        # 8f38 <_IO_stdin_used+0x478>
4508:	ba 05 00 00 00       	mov    edx,0x5
450d:	31 ff                	xor    edi,edi
450f:	e8 2c d7 ff ff       	call   1c40 <dcgettext@plt>
4514:	48 89 c3             	mov    rbx,rax
4517:	e8 54 d6 ff ff       	call   1b70 <__errno_location@plt>
451c:	8b 30                	mov    esi,DWORD PTR [rax]
451e:	48 89 da             	mov    rdx,rbx
4521:	bf 01 00 00 00       	mov    edi,0x1
4526:	31 c0                	xor    eax,eax
4528:	e8 73 d9 ff ff       	call   1ea0 <error@plt>
452d:	48 8d 35 1a 46 00 00 	lea    rsi,[rip+0x461a]        # 8b4e <_IO_stdin_used+0x8e>
4534:	ba 05 00 00 00       	mov    edx,0x5
4539:	31 ff                	xor    edi,edi
453b:	e8 00 d7 ff ff       	call   1c40 <dcgettext@plt>
4540:	48 89 c3             	mov    rbx,rax
4543:	e8 28 d6 ff ff       	call   1b70 <__errno_location@plt>
4548:	8b 30                	mov    esi,DWORD PTR [rax]
454a:	48 89 da             	mov    rdx,rbx
454d:	bf 01 00 00 00       	mov    edi,0x1
4552:	31 c0                	xor    eax,eax
4554:	e8 47 d9 ff ff       	call   1ea0 <error@plt>
4559:	be 01 00 00 00       	mov    esi,0x1
455e:	e9 5d ff ff ff       	jmp    44c0 <create+0x3d0>
4563:	4c 89 e6             	mov    rsi,r12
4566:	bf 04 00 00 00       	mov    edi,0x4
456b:	e8 e0 2a 00 00       	call   7050 <quotearg_style>
4570:	48 8d 35 99 49 00 00 	lea    rsi,[rip+0x4999]        # 8f10 <_IO_stdin_used+0x450>
4577:	48 89 c3             	mov    rbx,rax
457a:	ba 05 00 00 00       	mov    edx,0x5
457f:	31 ff                	xor    edi,edi
4581:	e8 ba d6 ff ff       	call   1c40 <dcgettext@plt>
4586:	48 89 d9             	mov    rcx,rbx
4589:	48 89 c2             	mov    rdx,rax
458c:	31 f6                	xor    esi,esi
458e:	bf 01 00 00 00       	mov    edi,0x1
4593:	31 c0                	xor    eax,eax
4595:	e8 06 d9 ff ff       	call   1ea0 <error@plt>
459a:	48 8d 35 d6 45 00 00 	lea    rsi,[rip+0x45d6]        # 8b77 <_IO_stdin_used+0xb7>
45a1:	ba 05 00 00 00       	mov    edx,0x5
45a6:	31 ff                	xor    edi,edi
45a8:	e8 93 d6 ff ff       	call   1c40 <dcgettext@plt>
45ad:	8b 33                	mov    esi,DWORD PTR [rbx]
45af:	48 89 c2             	mov    rdx,rax
45b2:	bf 01 00 00 00       	mov    edi,0x1
45b7:	31 c0                	xor    eax,eax
45b9:	e8 e2 d8 ff ff       	call   1ea0 <error@plt>
45be:	48 8d 35 c6 45 00 00 	lea    rsi,[rip+0x45c6]        # 8b8b <_IO_stdin_used+0xcb>
45c5:	ba 05 00 00 00       	mov    edx,0x5
45ca:	31 ff                	xor    edi,edi
45cc:	e8 6f d6 ff ff       	call   1c40 <dcgettext@plt>
45d1:	8b 33                	mov    esi,DWORD PTR [rbx]
45d3:	48 89 c2             	mov    rdx,rax
45d6:	bf 01 00 00 00       	mov    edi,0x1
45db:	31 c0                	xor    eax,eax
45dd:	e8 be d8 ff ff       	call   1ea0 <error@plt>
45e2:	4c 89 e6             	mov    rsi,r12
45e5:	bf 04 00 00 00       	mov    edi,0x4
45ea:	e8 61 2a 00 00       	call   7050 <quotearg_style>
45ef:	48 8d 35 0e 45 00 00 	lea    rsi,[rip+0x450e]        # 8b04 <_IO_stdin_used+0x44>
45f6:	ba 05 00 00 00       	mov    edx,0x5
45fb:	31 ff                	xor    edi,edi
45fd:	48 89 c5             	mov    rbp,rax
4600:	e8 3b d6 ff ff       	call   1c40 <dcgettext@plt>
4605:	48 89 c3             	mov    rbx,rax
4608:	e8 63 d5 ff ff       	call   1b70 <__errno_location@plt>
460d:	8b 30                	mov    esi,DWORD PTR [rax]
460f:	48 89 e9             	mov    rcx,rbp
4612:	48 89 da             	mov    rdx,rbx
4615:	bf 01 00 00 00       	mov    edi,0x1
461a:	31 c0                	xor    eax,eax
461c:	e8 7f d8 ff ff       	call   1ea0 <error@plt>
4621:	48 8d 35 a3 45 00 00 	lea    rsi,[rip+0x45a3]        # 8bcb <_IO_stdin_used+0x10b>
4628:	ba 05 00 00 00       	mov    edx,0x5
462d:	31 ff                	xor    edi,edi
462f:	e8 0c d6 ff ff       	call   1c40 <dcgettext@plt>
4634:	48 89 c3             	mov    rbx,rax
4637:	e8 34 d5 ff ff       	call   1b70 <__errno_location@plt>
463c:	8b 30                	mov    esi,DWORD PTR [rax]
463e:	48 89 da             	mov    rdx,rbx
4641:	bf 01 00 00 00       	mov    edi,0x1
4646:	31 c0                	xor    eax,eax
4648:	e8 53 d8 ff ff       	call   1ea0 <error@plt>
464d:	48 8d 35 5f 45 00 00 	lea    rsi,[rip+0x455f]        # 8bb3 <_IO_stdin_used+0xf3>
4654:	ba 05 00 00 00       	mov    edx,0x5
4659:	31 ff                	xor    edi,edi
465b:	e8 e0 d5 ff ff       	call   1c40 <dcgettext@plt>
4660:	48 89 c3             	mov    rbx,rax
4663:	e8 08 d5 ff ff       	call   1b70 <__errno_location@plt>
4668:	8b 30                	mov    esi,DWORD PTR [rax]
466a:	48 89 da             	mov    rdx,rbx
466d:	bf 01 00 00 00       	mov    edi,0x1
4672:	31 c0                	xor    eax,eax
4674:	e8 27 d8 ff ff       	call   1ea0 <error@plt>
4679:	0f 1f 80 00 00 00 00 	nop    DWORD PTR [rax+0x0]

0000000000004680 <ofile_open>:
4680:	41 57                	push   r15
4682:	41 56                	push   r14
4684:	41 55                	push   r13
4686:	49 89 f5             	mov    r13,rsi
4689:	41 54                	push   r12
468b:	49 c1 e5 05          	shl    r13,0x5
468f:	55                   	push   rbp
4690:	53                   	push   rbx
4691:	49 01 fd             	add    r13,rdi
4694:	31 ed                	xor    ebp,ebp
4696:	48 83 ec 18          	sub    rsp,0x18
469a:	41 8b 45 08          	mov    eax,DWORD PTR [r13+0x8]
469e:	85 c0                	test   eax,eax
46a0:	78 11                	js     46b3 <ofile_open+0x33>
46a2:	48 83 c4 18          	add    rsp,0x18
46a6:	89 e8                	mov    eax,ebp
46a8:	5b                   	pop    rbx
46a9:	5d                   	pop    rbp
46aa:	41 5c                	pop    r12
46ac:	41 5d                	pop    r13
46ae:	41 5e                	pop    r14
46b0:	41 5f                	pop    r15
46b2:	c3                   	ret
46b3:	48 8d 5e ff          	lea    rbx,[rsi-0x1]
46b7:	4c 8d 72 ff          	lea    r14,[rdx-0x1]
46bb:	48 85 f6             	test   rsi,rsi
46be:	49 89 fc             	mov    r12,rdi
46c1:	49 89 f7             	mov    r15,rsi
46c4:	49 8b 7d 00          	mov    rdi,QWORD PTR [r13+0x0]
46c8:	49 0f 44 de          	cmove  rbx,r14
46cc:	83 f8 ff             	cmp    eax,0xffffffff
46cf:	0f 84 96 00 00 00    	je     476b <ofile_open+0xeb>
46d5:	0f 1f 00             	nop    DWORD PTR [rax]
46d8:	31 c0                	xor    eax,eax
46da:	be 01 0c 00 00       	mov    esi,0xc01
46df:	e8 8c 0d 00 00       	call   5470 <open_safer>
46e4:	85 c0                	test   eax,eax
46e6:	0f 89 8c 00 00 00    	jns    4778 <ofile_open+0xf8>
46ec:	e8 7f d4 ff ff       	call   1b70 <__errno_location@plt>
46f1:	49 89 c0             	mov    r8,rax
46f4:	8b 00                	mov    eax,DWORD PTR [rax]
46f6:	83 e8 17             	sub    eax,0x17
46f9:	83 f8 01             	cmp    eax,0x1
46fc:	76 21                	jbe    471f <ofile_open+0x9f>
46fe:	e9 e0 00 00 00       	jmp    47e3 <ofile_open+0x163>
4703:	0f 1f 44 00 00       	nop    DWORD PTR [rax+rax*1+0x0]
4708:	48 8d 43 ff          	lea    rax,[rbx-0x1]
470c:	48 85 db             	test   rbx,rbx
470f:	49 0f 44 c6          	cmove  rax,r14
4713:	4c 39 f8             	cmp    rax,r15
4716:	48 89 c3             	mov    rbx,rax
4719:	0f 84 91 00 00 00    	je     47b0 <ofile_open+0x130>
471f:	48 89 dd             	mov    rbp,rbx
4722:	48 c1 e5 05          	shl    rbp,0x5
4726:	4c 01 e5             	add    rbp,r12
4729:	8b 45 08             	mov    eax,DWORD PTR [rbp+0x8]
472c:	85 c0                	test   eax,eax
472e:	78 d8                	js     4708 <ofile_open+0x88>
4730:	48 8b 7d 10          	mov    rdi,QWORD PTR [rbp+0x10]
4734:	4c 89 44 24 08       	mov    QWORD PTR [rsp+0x8],r8
4739:	e8 02 3b 00 00       	call   8240 <rpl_fclose>
473e:	85 c0                	test   eax,eax
4740:	0f 85 d0 00 00 00    	jne    4816 <ofile_open+0x196>
4746:	c7 45 08 fe ff ff ff 	mov    DWORD PTR [rbp+0x8],0xfffffffe
474d:	41 8b 45 08          	mov    eax,DWORD PTR [r13+0x8]
4751:	48 c7 45 10 00 00 00 	mov    QWORD PTR [rbp+0x10],0x0
4758:	00
4759:	49 8b 7d 00          	mov    rdi,QWORD PTR [r13+0x0]
475d:	bd 01 00 00 00       	mov    ebp,0x1
4762:	83 f8 ff             	cmp    eax,0xffffffff
4765:	0f 85 6d ff ff ff    	jne    46d8 <ofile_open+0x58>
476b:	e8 80 f9 ff ff       	call   40f0 <create>
4770:	85 c0                	test   eax,eax
4772:	0f 88 74 ff ff ff    	js     46ec <ofile_open+0x6c>
4778:	48 8d 35 67 44 00 00 	lea    rsi,[rip+0x4467]        # 8be6 <_IO_stdin_used+0x126>
477f:	41 89 45 08          	mov    DWORD PTR [r13+0x8],eax
4783:	89 c7                	mov    edi,eax
4785:	e8 d6 d6 ff ff       	call   1e60 <fdopen@plt>
478a:	48 85 c0             	test   rax,rax
478d:	49 89 45 10          	mov    QWORD PTR [r13+0x10],rax
4791:	0f 84 ad 00 00 00    	je     4844 <ofile_open+0x1c4>
4797:	8b 05 5b 7d 20 00    	mov    eax,DWORD PTR [rip+0x207d5b]        # 20c4f8 <filter_pid>
479d:	c7 05 51 7d 20 00 00 	mov    DWORD PTR [rip+0x207d51],0x0        # 20c4f8 <filter_pid>
47a4:	00 00 00
47a7:	41 89 45 18          	mov    DWORD PTR [r13+0x18],eax
47ab:	e9 f2 fe ff ff       	jmp    46a2 <ofile_open+0x22>
47b0:	49 8b 55 00          	mov    rdx,QWORD PTR [r13+0x0]
47b4:	be 03 00 00 00       	mov    esi,0x3
47b9:	31 ff                	xor    edi,edi
47bb:	4c 89 44 24 08       	mov    QWORD PTR [rsp+0x8],r8
47c0:	e8 8b 29 00 00       	call   7150 <quotearg_n_style_colon>
47c5:	4c 8b 44 24 08       	mov    r8,QWORD PTR [rsp+0x8]
47ca:	48 8d 15 1d 46 00 00 	lea    rdx,[rip+0x461d]        # 8dee <_IO_stdin_used+0x32e>
47d1:	48 89 c1             	mov    rcx,rax
47d4:	bf 01 00 00 00       	mov    edi,0x1
47d9:	31 c0                	xor    eax,eax
47db:	41 8b 30             	mov    esi,DWORD PTR [r8]
47de:	e8 bd d6 ff ff       	call   1ea0 <error@plt>
47e3:	49 8b 55 00          	mov    rdx,QWORD PTR [r13+0x0]
47e7:	be 03 00 00 00       	mov    esi,0x3
47ec:	31 ff                	xor    edi,edi
47ee:	4c 89 44 24 08       	mov    QWORD PTR [rsp+0x8],r8
47f3:	e8 58 29 00 00       	call   7150 <quotearg_n_style_colon>
47f8:	4c 8b 44 24 08       	mov    r8,QWORD PTR [rsp+0x8]
47fd:	48 8d 15 ea 45 00 00 	lea    rdx,[rip+0x45ea]        # 8dee <_IO_stdin_used+0x32e>
4804:	48 89 c1             	mov    rcx,rax
4807:	bf 01 00 00 00       	mov    edi,0x1
480c:	31 c0                	xor    eax,eax
480e:	41 8b 30             	mov    esi,DWORD PTR [r8]
4811:	e8 8a d6 ff ff       	call   1ea0 <error@plt>
4816:	48 8b 55 00          	mov    rdx,QWORD PTR [rbp+0x0]
481a:	be 03 00 00 00       	mov    esi,0x3
481f:	31 ff                	xor    edi,edi
4821:	e8 2a 29 00 00       	call   7150 <quotearg_n_style_colon>
4826:	4c 8b 44 24 08       	mov    r8,QWORD PTR [rsp+0x8]
482b:	48 8d 15 bc 45 00 00 	lea    rdx,[rip+0x45bc]        # 8dee <_IO_stdin_used+0x32e>
4832:	48 89 c1             	mov    rcx,rax
4835:	bf 01 00 00 00       	mov    edi,0x1
483a:	31 c0                	xor    eax,eax
483c:	41 8b 30             	mov    esi,DWORD PTR [r8]
483f:	e8 5c d6 ff ff       	call   1ea0 <error@plt>
4844:	49 8b 55 00          	mov    rdx,QWORD PTR [r13+0x0]
4848:	be 03 00 00 00       	mov    esi,0x3
484d:	31 ff                	xor    edi,edi
484f:	e8 fc 28 00 00       	call   7150 <quotearg_n_style_colon>
4854:	48 89 c3             	mov    rbx,rax
4857:	e8 14 d3 ff ff       	call   1b70 <__errno_location@plt>
485c:	8b 30                	mov    esi,DWORD PTR [rax]
485e:	48 8d 15 89 45 00 00 	lea    rdx,[rip+0x4589]        # 8dee <_IO_stdin_used+0x32e>
4865:	48 89 d9             	mov    rcx,rbx
4868:	bf 01 00 00 00       	mov    edi,0x1
486d:	31 c0                	xor    eax,eax
486f:	e8 2c d6 ff ff       	call   1ea0 <error@plt>
4874:	66 90                	xchg   ax,ax
4876:	66 2e 0f 1f 84 00 00 	nop    WORD PTR cs:[rax+rax*1+0x0]
487d:	00 00 00

0000000000004880 <closeout>:
4880:	41 55                	push   r13
4882:	41 54                	push   r12
4884:	41 89 d4             	mov    r12d,edx
4887:	55                   	push   rbp
4888:	53                   	push   rbx
4889:	89 f5                	mov    ebp,esi
488b:	48 89 cb             	mov    rbx,rcx
488e:	48 83 ec 48          	sub    rsp,0x48
4892:	64 48 8b 04 25 28 00 	mov    rax,QWORD PTR fs:0x28
4899:	00 00
489b:	48 89 44 24 38       	mov    QWORD PTR [rsp+0x38],rax
48a0:	31 c0                	xor    eax,eax
48a2:	48 85 ff             	test   rdi,rdi
48a5:	0f 84 0d 01 00 00    	je     49b8 <closeout+0x138>
48ab:	e8 90 39 00 00       	call   8240 <rpl_fclose>
48b0:	85 c0                	test   eax,eax
48b2:	0f 85 b8 00 00 00    	jne    4970 <closeout+0xf0>
48b8:	85 ed                	test   ebp,ebp
48ba:	78 44                	js     4900 <closeout+0x80>
48bc:	48 8b 3d 1d 7c 20 00 	mov    rdi,QWORD PTR [rip+0x207c1d]        # 20c4e0 <n_open_pipes>
48c3:	48 85 ff             	test   rdi,rdi
48c6:	74 38                	je     4900 <closeout+0x80>
48c8:	48 8b 35 21 7c 20 00 	mov    rsi,QWORD PTR [rip+0x207c21]        # 20c4f0 <open_pipes>
48cf:	3b 2e                	cmp    ebp,DWORD PTR [rsi]
48d1:	0f 84 29 01 00 00    	je     4a00 <closeout+0x180>
48d7:	48 8d 56 04          	lea    rdx,[rsi+0x4]
48db:	48 83 ef 01          	sub    rdi,0x1
48df:	31 c0                	xor    eax,eax
48e1:	eb 18                	jmp    48fb <closeout+0x7b>
48e3:	0f 1f 44 00 00       	nop    DWORD PTR [rax+rax*1+0x0]
48e8:	48 89 d1             	mov    rcx,rdx
48eb:	48 83 c0 01          	add    rax,0x1
48ef:	48 83 c2 04          	add    rdx,0x4
48f3:	39 29                	cmp    DWORD PTR [rcx],ebp
48f5:	0f 84 15 01 00 00    	je     4a10 <closeout+0x190>
48fb:	48 39 c7             	cmp    rdi,rax
48fe:	75 e8                	jne    48e8 <closeout+0x68>
4900:	45 85 e4             	test   r12d,r12d
4903:	7e 43                	jle    4948 <closeout+0xc8>
4905:	48 8d 74 24 1c       	lea    rsi,[rsp+0x1c]
490a:	31 d2                	xor    edx,edx
490c:	44 89 e7             	mov    edi,r12d
490f:	c7 44 24 1c 00 00 00 	mov    DWORD PTR [rsp+0x1c],0x0
4916:	00
4917:	e8 a4 d5 ff ff       	call   1ec0 <waitpid@plt>
491c:	83 f8 ff             	cmp    eax,0xffffffff
491f:	0f 84 63 01 00 00    	je     4a88 <closeout+0x208>
4925:	8b 4c 24 1c          	mov    ecx,DWORD PTR [rsp+0x1c]
4929:	89 cd                	mov    ebp,ecx
492b:	83 e5 7f             	and    ebp,0x7f
492e:	8d 45 01             	lea    eax,[rbp+0x1]
4931:	3c 01                	cmp    al,0x1
4933:	0f 8e ef 00 00 00    	jle    4a28 <closeout+0x1a8>
4939:	83 fd 0d             	cmp    ebp,0xd
493c:	0f 85 7e 01 00 00    	jne    4ac0 <closeout+0x240>
4942:	66 0f 1f 44 00 00    	nop    WORD PTR [rax+rax*1+0x0]
4948:	48 8b 44 24 38       	mov    rax,QWORD PTR [rsp+0x38]
494d:	64 48 33 04 25 28 00 	xor    rax,QWORD PTR fs:0x28
4954:	00 00
4956:	0f 85 e4 01 00 00    	jne    4b40 <closeout+0x2c0>
495c:	48 83 c4 48          	add    rsp,0x48
4960:	5b                   	pop    rbx
4961:	5d                   	pop    rbp
4962:	41 5c                	pop    r12
4964:	41 5d                	pop    r13
4966:	c3                   	ret
4967:	66 0f 1f 84 00 00 00 	nop    WORD PTR [rax+rax*1+0x0]
496e:	00 00
4970:	e8 fb d1 ff ff       	call   1b70 <__errno_location@plt>
4975:	48 83 3d 83 7b 20 00 	cmp    QWORD PTR [rip+0x207b83],0x0        # 20c500 <filter_command>
497c:	00
497d:	49 89 c5             	mov    r13,rax
4980:	74 09                	je     498b <closeout+0x10b>
4982:	83 38 20             	cmp    DWORD PTR [rax],0x20
4985:	0f 84 2d ff ff ff    	je     48b8 <closeout+0x38>
498b:	48 89 da             	mov    rdx,rbx
498e:	be 03 00 00 00       	mov    esi,0x3
4993:	31 ff                	xor    edi,edi
4995:	e8 b6 27 00 00       	call   7150 <quotearg_n_style_colon>
499a:	41 8b 75 00          	mov    esi,DWORD PTR [r13+0x0]
499e:	48 8d 15 49 44 00 00 	lea    rdx,[rip+0x4449]        # 8dee <_IO_stdin_used+0x32e>
49a5:	48 89 c1             	mov    rcx,rax
49a8:	bf 01 00 00 00       	mov    edi,0x1
49ad:	31 c0                	xor    eax,eax
49af:	e8 ec d4 ff ff       	call   1ea0 <error@plt>
49b4:	0f 1f 40 00          	nop    DWORD PTR [rax+0x0]
49b8:	85 f6                	test   esi,esi
49ba:	0f 88 40 ff ff ff    	js     4900 <closeout+0x80>
49c0:	89 ef                	mov    edi,ebp
49c2:	e8 59 d3 ff ff       	call   1d20 <close@plt>
49c7:	85 c0                	test   eax,eax
49c9:	0f 89 ed fe ff ff    	jns    48bc <closeout+0x3c>
49cf:	48 89 da             	mov    rdx,rbx
49d2:	be 03 00 00 00       	mov    esi,0x3
49d7:	31 ff                	xor    edi,edi
49d9:	e8 72 27 00 00       	call   7150 <quotearg_n_style_colon>
49de:	48 89 c3             	mov    rbx,rax
49e1:	e8 8a d1 ff ff       	call   1b70 <__errno_location@plt>
49e6:	8b 30                	mov    esi,DWORD PTR [rax]
49e8:	48 8d 15 ff 43 00 00 	lea    rdx,[rip+0x43ff]        # 8dee <_IO_stdin_used+0x32e>
49ef:	48 89 d9             	mov    rcx,rbx
49f2:	bf 01 00 00 00       	mov    edi,0x1
49f7:	31 c0                	xor    eax,eax
49f9:	e8 a2 d4 ff ff       	call   1ea0 <error@plt>
49fe:	66 90                	xchg   ax,ax
4a00:	48 89 f1             	mov    rcx,rsi
4a03:	48 83 ef 01          	sub    rdi,0x1
4a07:	66 0f 1f 84 00 00 00 	nop    WORD PTR [rax+rax*1+0x0]
4a0e:	00 00
4a10:	8b 04 be             	mov    eax,DWORD PTR [rsi+rdi*4]
4a13:	48 89 3d c6 7a 20 00 	mov    QWORD PTR [rip+0x207ac6],rdi        # 20c4e0 <n_open_pipes>
4a1a:	89 01                	mov    DWORD PTR [rcx],eax
4a1c:	e9 df fe ff ff       	jmp    4900 <closeout+0x80>
4a21:	0f 1f 80 00 00 00 00 	nop    DWORD PTR [rax+0x0]
4a28:	85 ed                	test   ebp,ebp
4a2a:	0f 85 15 01 00 00    	jne    4b45 <closeout+0x2c5>
4a30:	0f b6 ed             	movzx  ebp,ch
4a33:	85 ed                	test   ebp,ebp
4a35:	0f 84 0d ff ff ff    	je     4948 <closeout+0xc8>
4a3b:	4c 8b 25 be 7a 20 00 	mov    r12,QWORD PTR [rip+0x207abe]        # 20c500 <filter_command>
4a42:	48 89 da             	mov    rdx,rbx
4a45:	31 ff                	xor    edi,edi
4a47:	be 03 00 00 00       	mov    esi,0x3
4a4c:	e8 ff 26 00 00       	call   7150 <quotearg_n_style_colon>
4a51:	48 8d 35 60 45 00 00 	lea    rsi,[rip+0x4560]        # 8fb8 <_IO_stdin_used+0x4f8>
4a58:	48 89 c3             	mov    rbx,rax
4a5b:	31 ff                	xor    edi,edi
4a5d:	ba 05 00 00 00       	mov    edx,0x5
4a62:	e8 d9 d1 ff ff       	call   1c40 <dcgettext@plt>
4a67:	4d 89 e1             	mov    r9,r12
4a6a:	48 89 c2             	mov    rdx,rax
4a6d:	41 89 e8             	mov    r8d,ebp
4a70:	48 89 d9             	mov    rcx,rbx
4a73:	31 f6                	xor    esi,esi
4a75:	89 ef                	mov    edi,ebp
4a77:	31 c0                	xor    eax,eax
4a79:	e8 22 d4 ff ff       	call   1ea0 <error@plt>
4a7e:	e9 c5 fe ff ff       	jmp    4948 <closeout+0xc8>
4a83:	0f 1f 44 00 00       	nop    DWORD PTR [rax+rax*1+0x0]
4a88:	e8 e3 d0 ff ff       	call   1b70 <__errno_location@plt>
4a8d:	83 38 0a             	cmp    DWORD PTR [rax],0xa
4a90:	48 89 c5             	mov    rbp,rax
4a93:	0f 84 8c fe ff ff    	je     4925 <closeout+0xa5>
4a99:	48 8d 35 48 41 00 00 	lea    rsi,[rip+0x4148]        # 8be8 <_IO_stdin_used+0x128>
4aa0:	ba 05 00 00 00       	mov    edx,0x5
4aa5:	31 ff                	xor    edi,edi
4aa7:	e8 94 d1 ff ff       	call   1c40 <dcgettext@plt>
4aac:	8b 75 00             	mov    esi,DWORD PTR [rbp+0x0]
4aaf:	48 89 c2             	mov    rdx,rax
4ab2:	bf 01 00 00 00       	mov    edi,0x1
4ab7:	31 c0                	xor    eax,eax
4ab9:	e8 e2 d3 ff ff       	call   1ea0 <error@plt>
4abe:	66 90                	xchg   ax,ax
4ac0:	4c 8d 64 24 20       	lea    r12,[rsp+0x20]
4ac5:	89 ef                	mov    edi,ebp
4ac7:	4c 89 e6             	mov    rsi,r12
4aca:	e8 b1 3a 00 00       	call   8580 <sig2str>
4acf:	85 c0                	test   eax,eax
4ad1:	75 4d                	jne    4b20 <closeout+0x2a0>
4ad3:	48 89 da             	mov    rdx,rbx
4ad6:	31 ff                	xor    edi,edi
4ad8:	be 03 00 00 00       	mov    esi,0x3
4add:	4c 8b 2d 1c 7a 20 00 	mov    r13,QWORD PTR [rip+0x207a1c]        # 20c500 <filter_command>
4ae4:	e8 67 26 00 00       	call   7150 <quotearg_n_style_colon>
4ae9:	48 8d 35 98 44 00 00 	lea    rsi,[rip+0x4498]        # 8f88 <_IO_stdin_used+0x4c8>
4af0:	31 ff                	xor    edi,edi
4af2:	ba 05 00 00 00       	mov    edx,0x5
4af7:	48 89 c3             	mov    rbx,rax
4afa:	e8 41 d1 ff ff       	call   1c40 <dcgettext@plt>
4aff:	8d bd 80 00 00 00    	lea    edi,[rbp+0x80]
4b05:	48 89 c2             	mov    rdx,rax
4b08:	4d 89 e9             	mov    r9,r13
4b0b:	4d 89 e0             	mov    r8,r12
4b0e:	48 89 d9             	mov    rcx,rbx
4b11:	31 f6                	xor    esi,esi
4b13:	31 c0                	xor    eax,eax
4b15:	e8 86 d3 ff ff       	call   1ea0 <error@plt>
4b1a:	e9 29 fe ff ff       	jmp    4948 <closeout+0xc8>
4b1f:	90                   	nop
4b20:	48 8d 0d db 40 00 00 	lea    rcx,[rip+0x40db]        # 8c02 <_IO_stdin_used+0x142>
4b27:	41 89 e8             	mov    r8d,ebp
4b2a:	ba 13 00 00 00       	mov    edx,0x13
4b2f:	be 01 00 00 00       	mov    esi,0x1
4b34:	4c 89 e7             	mov    rdi,r12
4b37:	31 c0                	xor    eax,eax
4b39:	e8 82 d4 ff ff       	call   1fc0 <__sprintf_chk@plt>
4b3e:	eb 93                	jmp    4ad3 <closeout+0x253>
4b40:	e8 2b d1 ff ff       	call   1c70 <__stack_chk_fail@plt>
4b45:	48 8d 35 94 44 00 00 	lea    rsi,[rip+0x4494]        # 8fe0 <_IO_stdin_used+0x520>
4b4c:	ba 05 00 00 00       	mov    edx,0x5
4b51:	31 ff                	xor    edi,edi
4b53:	89 4c 24 0c          	mov    DWORD PTR [rsp+0xc],ecx
4b57:	e8 e4 d0 ff ff       	call   1c40 <dcgettext@plt>
4b5c:	8b 4c 24 0c          	mov    ecx,DWORD PTR [rsp+0xc]
4b60:	48 89 c2             	mov    rdx,rax
4b63:	31 f6                	xor    esi,esi
4b65:	bf 01 00 00 00       	mov    edi,0x1
4b6a:	31 c0                	xor    eax,eax
4b6c:	e8 2f d3 ff ff       	call   1ea0 <error@plt>
4b71:	0f 1f 44 00 00       	nop    DWORD PTR [rax+rax*1+0x0]
4b76:	66 2e 0f 1f 84 00 00 	nop    WORD PTR cs:[rax+rax*1+0x0]
4b7d:	00 00 00

0000000000004b80 <cwrite>:
4b80:	55                   	push   rbp
4b81:	53                   	push   rbx
4b82:	48 89 f5             	mov    rbp,rsi
4b85:	48 89 d3             	mov    rbx,rdx
4b88:	48 83 ec 08          	sub    rsp,0x8
4b8c:	40 84 ff             	test   dil,dil
4b8f:	0f 84 bb 00 00 00    	je     4c50 <cwrite+0xd0>
4b95:	48 85 f6             	test   rsi,rsi
4b98:	75 12                	jne    4bac <cwrite+0x2c>
4b9a:	48 85 d2             	test   rdx,rdx
4b9d:	75 0d                	jne    4bac <cwrite+0x2c>
4b9f:	80 3d 3b 77 20 00 00 	cmp    BYTE PTR [rip+0x20773b],0x0        # 20c2e1 <elide_empty_files>
4ba6:	0f 85 94 00 00 00    	jne    4c40 <cwrite+0xc0>
4bac:	48 8b 0d 05 78 20 00 	mov    rcx,QWORD PTR [rip+0x207805]        # 20c3b8 <outfile>
4bb3:	8b 15 3f 79 20 00    	mov    edx,DWORD PTR [rip+0x20793f]        # 20c4f8 <filter_pid>
4bb9:	31 ff                	xor    edi,edi
4bbb:	8b 35 53 74 20 00    	mov    esi,DWORD PTR [rip+0x207453]        # 20c014 <output_desc>
4bc1:	e8 ba fc ff ff       	call   4880 <closeout>
4bc6:	e8 55 f2 ff ff       	call   3e20 <next_file_name>
4bcb:	48 8b 3d e6 77 20 00 	mov    rdi,QWORD PTR [rip+0x2077e6]        # 20c3b8 <outfile>
4bd2:	e8 19 f5 ff ff       	call   40f0 <create>
4bd7:	85 c0                	test   eax,eax
4bd9:	89 c7                	mov    edi,eax
4bdb:	89 05 33 74 20 00    	mov    DWORD PTR [rip+0x207433],eax        # 20c014 <output_desc>
4be1:	78 75                	js     4c58 <cwrite+0xd8>
4be3:	48 89 da             	mov    rdx,rbx
4be6:	48 89 ee             	mov    rsi,rbp
4be9:	e8 52 09 00 00       	call   5540 <full_write>
4bee:	48 39 d8             	cmp    rax,rbx
4bf1:	74 4d                	je     4c40 <cwrite+0xc0>
4bf3:	e8 78 cf ff ff       	call   1b70 <__errno_location@plt>
4bf8:	48 83 3d 00 79 20 00 	cmp    QWORD PTR [rip+0x207900],0x0        # 20c500 <filter_command>
4bff:	00
4c00:	48 89 c3             	mov    rbx,rax
4c03:	74 07                	je     4c0c <cwrite+0x8c>
4c05:	31 c0                	xor    eax,eax
4c07:	83 3b 20             	cmp    DWORD PTR [rbx],0x20
4c0a:	74 39                	je     4c45 <cwrite+0xc5>
4c0c:	48 8b 15 a5 77 20 00 	mov    rdx,QWORD PTR [rip+0x2077a5]        # 20c3b8 <outfile>
4c13:	be 03 00 00 00       	mov    esi,0x3
4c18:	31 ff                	xor    edi,edi
4c1a:	e8 31 25 00 00       	call   7150 <quotearg_n_style_colon>
4c1f:	8b 33                	mov    esi,DWORD PTR [rbx]
4c21:	48 8d 15 c6 41 00 00 	lea    rdx,[rip+0x41c6]        # 8dee <_IO_stdin_used+0x32e>
4c28:	48 89 c1             	mov    rcx,rax
4c2b:	bf 01 00 00 00       	mov    edi,0x1
4c30:	31 c0                	xor    eax,eax
4c32:	e8 69 d2 ff ff       	call   1ea0 <error@plt>
4c37:	66 0f 1f 84 00 00 00 	nop    WORD PTR [rax+rax*1+0x0]
4c3e:	00 00
4c40:	b8 01 00 00 00       	mov    eax,0x1
4c45:	48 83 c4 08          	add    rsp,0x8
4c49:	5b                   	pop    rbx
4c4a:	5d                   	pop    rbp
4c4b:	c3                   	ret
4c4c:	0f 1f 40 00          	nop    DWORD PTR [rax+0x0]
4c50:	8b 3d be 73 20 00    	mov    edi,DWORD PTR [rip+0x2073be]        # 20c014 <output_desc>
4c56:	eb 8b                	jmp    4be3 <cwrite+0x63>
4c58:	48 8b 15 59 77 20 00 	mov    rdx,QWORD PTR [rip+0x207759]        # 20c3b8 <outfile>
4c5f:	be 03 00 00 00       	mov    esi,0x3
4c64:	31 ff                	xor    edi,edi
4c66:	e8 e5 24 00 00       	call   7150 <quotearg_n_style_colon>
4c6b:	48 89 c3             	mov    rbx,rax
4c6e:	e8 fd ce ff ff       	call   1b70 <__errno_location@plt>
4c73:	8b 30                	mov    esi,DWORD PTR [rax]
4c75:	48 8d 15 72 41 00 00 	lea    rdx,[rip+0x4172]        # 8dee <_IO_stdin_used+0x32e>
4c7c:	48 89 d9             	mov    rcx,rbx
4c7f:	bf 01 00 00 00       	mov    edi,0x1
4c84:	31 c0                	xor    eax,eax
4c86:	e8 15 d2 ff ff       	call   1ea0 <error@plt>
4c8b:	0f 1f 44 00 00       	nop    DWORD PTR [rax+rax*1+0x0]

0000000000004c90 <bytes_split>:
4c90:	41 57                	push   r15
4c92:	41 56                	push   r14
4c94:	45 31 f6             	xor    r14d,r14d
4c97:	41 55                	push   r13
4c99:	41 54                	push   r12
4c9b:	49 89 ff             	mov    r15,rdi
4c9e:	55                   	push   rbp
4c9f:	53                   	push   rbx
4ca0:	49 89 fc             	mov    r12,rdi
4ca3:	bd 01 00 00 00       	mov    ebp,0x1
4ca8:	bb 01 00 00 00       	mov    ebx,0x1
4cad:	48 83 ec 38          	sub    rsp,0x38
4cb1:	48 83 f9 ff          	cmp    rcx,0xffffffffffffffff
4cb5:	48 89 74 24 20       	mov    QWORD PTR [rsp+0x20],rsi
4cba:	48 89 54 24 28       	mov    QWORD PTR [rsp+0x28],rdx
4cbf:	0f 84 9f 00 00 00    	je     4d64 <bytes_split+0xd4>
4cc5:	48 39 d1             	cmp    rcx,rdx
4cc8:	49 89 cd             	mov    r13,rcx
4ccb:	0f 92 44 24 1f       	setb   BYTE PTR [rsp+0x1f]
4cd0:	4d 39 e5             	cmp    r13,r12
4cd3:	0f 82 cd 00 00 00    	jb     4da6 <bytes_split+0x116>
4cd9:	4d 85 c0             	test   r8,r8
4cdc:	4c 8b 4c 24 20       	mov    r9,QWORD PTR [rsp+0x20]
4ce1:	41 0f 94 c3          	sete   r11b
4ce5:	eb 31                	jmp    4d18 <bytes_split+0x88>
4ce7:	66 0f 1f 84 00 00 00 	nop    WORD PTR [rax+rax*1+0x0]
4cee:	00 00
4cf0:	0f b6 db             	movzx  ebx,bl
4cf3:	49 01 de             	add    r14,rbx
4cf6:	4d 39 c6             	cmp    r14,r8
4cf9:	0f 92 c3             	setb   bl
4cfc:	44 08 db             	or     bl,r11b
4cff:	75 09                	jne    4d0a <bytes_split+0x7a>
4d01:	40 84 ed             	test   bpl,bpl
4d04:	0f 84 be 00 00 00    	je     4dc8 <bytes_split+0x138>
4d0a:	4d 29 e5             	sub    r13,r12
4d0d:	4d 01 e1             	add    r9,r12
4d10:	4d 89 fc             	mov    r12,r15
4d13:	4d 39 ef             	cmp    r15,r13
4d16:	77 38                	ja     4d50 <bytes_split+0xc0>
4d18:	40 08 dd             	or     bpl,bl
4d1b:	74 d3                	je     4cf0 <bytes_split+0x60>
4d1d:	4c 89 ce             	mov    rsi,r9
4d20:	0f b6 fb             	movzx  edi,bl
4d23:	4c 89 e2             	mov    rdx,r12
4d26:	4c 89 44 24 10       	mov    QWORD PTR [rsp+0x10],r8
4d2b:	44 88 5c 24 1e       	mov    BYTE PTR [rsp+0x1e],r11b
4d30:	4c 89 4c 24 08       	mov    QWORD PTR [rsp+0x8],r9
4d35:	e8 46 fe ff ff       	call   4b80 <cwrite>
4d3a:	4c 8b 44 24 10       	mov    r8,QWORD PTR [rsp+0x10]
4d3f:	89 c5                	mov    ebp,eax
4d41:	44 0f b6 5c 24 1e    	movzx  r11d,BYTE PTR [rsp+0x1e]
4d47:	4c 8b 4c 24 08       	mov    r9,QWORD PTR [rsp+0x8]
4d4c:	eb a2                	jmp    4cf0 <bytes_split+0x60>
4d4e:	66 90                	xchg   ax,ax
4d50:	4d 85 ed             	test   r13,r13
4d53:	0f 85 87 00 00 00    	jne    4de0 <bytes_split+0x150>
4d59:	80 7c 24 1f 00       	cmp    BYTE PTR [rsp+0x1f],0x0
4d5e:	0f 85 ea 00 00 00    	jne    4e4e <bytes_split+0x1be>
4d64:	40 84 ed             	test   bpl,bpl
4d67:	0f 84 b3 00 00 00    	je     4e20 <bytes_split+0x190>
4d6d:	48 8b 54 24 28       	mov    rdx,QWORD PTR [rsp+0x28]
4d72:	48 8b 74 24 20       	mov    rsi,QWORD PTR [rsp+0x20]
4d77:	31 ff                	xor    edi,edi
4d79:	4c 89 44 24 08       	mov    QWORD PTR [rsp+0x8],r8
4d7e:	e8 bd 25 00 00       	call   7340 <safe_read>
4d83:	48 83 f8 ff          	cmp    rax,0xffffffffffffffff
4d87:	49 89 c5             	mov    r13,rax
4d8a:	4c 8b 44 24 08       	mov    r8,QWORD PTR [rsp+0x8]
4d8f:	0f 84 f1 00 00 00    	je     4e86 <bytes_split+0x1f6>
4d95:	48 85 c0             	test   rax,rax
4d98:	0f 94 44 24 1f       	sete   BYTE PTR [rsp+0x1f]
4d9d:	4d 39 e5             	cmp    r13,r12
4da0:	0f 83 33 ff ff ff    	jae    4cd9 <bytes_split+0x49>
4da6:	4d 85 ed             	test   r13,r13
4da9:	74 ae                	je     4d59 <bytes_split+0xc9>
4dab:	89 e8                	mov    eax,ebp
4dad:	08 d8                	or     al,bl
4daf:	75 26                	jne    4dd7 <bytes_split+0x147>
4db1:	0f b6 c0             	movzx  eax,al
4db4:	31 ed                	xor    ebp,ebp
4db6:	ba 01 00 00 00       	mov    edx,0x1
4dbb:	49 01 c6             	add    r14,rax
4dbe:	4d 39 f0             	cmp    r8,r14
4dc1:	0f 94 c3             	sete   bl
4dc4:	20 d3                	and    bl,dl
4dc6:	74 49                	je     4e11 <bytes_split+0x181>
4dc8:	48 83 c4 38          	add    rsp,0x38
4dcc:	5b                   	pop    rbx
4dcd:	5d                   	pop    rbp
4dce:	41 5c                	pop    r12
4dd0:	41 5d                	pop    r13
4dd2:	41 5e                	pop    r14
4dd4:	41 5f                	pop    r15
4dd6:	c3                   	ret
4dd7:	4c 8b 4c 24 20       	mov    r9,QWORD PTR [rsp+0x20]
4ddc:	0f 1f 40 00          	nop    DWORD PTR [rax+0x0]
4de0:	0f b6 fb             	movzx  edi,bl
4de3:	4c 89 ea             	mov    rdx,r13
4de6:	4c 89 ce             	mov    rsi,r9
4de9:	4c 89 44 24 08       	mov    QWORD PTR [rsp+0x8],r8
4dee:	e8 8d fd ff ff       	call   4b80 <cwrite>
4df3:	4c 8b 44 24 08       	mov    r8,QWORD PTR [rsp+0x8]
4df8:	89 c2                	mov    edx,eax
4dfa:	89 c5                	mov    ebp,eax
4dfc:	89 d8                	mov    eax,ebx
4dfe:	83 f2 01             	xor    edx,0x1
4e01:	0f b6 c0             	movzx  eax,al
4e04:	49 01 c6             	add    r14,rax
4e07:	4d 39 f0             	cmp    r8,r14
4e0a:	0f 94 c3             	sete   bl
4e0d:	20 d3                	and    bl,dl
4e0f:	75 b7                	jne    4dc8 <bytes_split+0x138>
4e11:	4d 29 ec             	sub    r12,r13
4e14:	e9 40 ff ff ff       	jmp    4d59 <bytes_split+0xc9>
4e19:	0f 1f 80 00 00 00 00 	nop    DWORD PTR [rax+0x0]
4e20:	4c 89 e6             	mov    rsi,r12
4e23:	31 ff                	xor    edi,edi
4e25:	ba 01 00 00 00       	mov    edx,0x1
4e2a:	4c 89 44 24 08       	mov    QWORD PTR [rsp+0x8],r8
4e2f:	e8 ac ce ff ff       	call   1ce0 <lseek@plt>
4e34:	48 83 f8 ff          	cmp    rax,0xffffffffffffffff
4e38:	b8 01 00 00 00       	mov    eax,0x1
4e3d:	4c 8b 44 24 08       	mov    r8,QWORD PTR [rsp+0x8]
4e42:	4d 0f 45 e7          	cmovne r12,r15
4e46:	0f 45 d8             	cmovne ebx,eax
4e49:	e9 1f ff ff ff       	jmp    4d6d <bytes_split+0xdd>
4e4e:	4d 39 c6             	cmp    r14,r8
4e51:	49 8d 5e 01          	lea    rbx,[r14+0x1]
4e55:	0f 83 6d ff ff ff    	jae    4dc8 <bytes_split+0x138>
4e5b:	49 8d 68 01          	lea    rbp,[r8+0x1]
4e5f:	90                   	nop
4e60:	31 d2                	xor    edx,edx
4e62:	31 f6                	xor    esi,esi
4e64:	bf 01 00 00 00       	mov    edi,0x1
4e69:	48 83 c3 01          	add    rbx,0x1
4e6d:	e8 0e fd ff ff       	call   4b80 <cwrite>
4e72:	48 39 dd             	cmp    rbp,rbx
4e75:	75 e9                	jne    4e60 <bytes_split+0x1d0>
4e77:	48 83 c4 38          	add    rsp,0x38
4e7b:	5b                   	pop    rbx
4e7c:	5d                   	pop    rbp
4e7d:	41 5c                	pop    r12
4e7f:	41 5d                	pop    r13
4e81:	41 5e                	pop    r14
4e83:	41 5f                	pop    r15
4e85:	c3                   	ret
4e86:	48 8b 15 03 75 20 00 	mov    rdx,QWORD PTR [rip+0x207503]        # 20c390 <infile>
4e8d:	be 03 00 00 00       	mov    esi,0x3
4e92:	31 ff                	xor    edi,edi
4e94:	e8 b7 22 00 00       	call   7150 <quotearg_n_style_colon>
4e99:	48 89 c3             	mov    rbx,rax
4e9c:	e8 cf cc ff ff       	call   1b70 <__errno_location@plt>
4ea1:	8b 30                	mov    esi,DWORD PTR [rax]
4ea3:	48 8d 15 44 3f 00 00 	lea    rdx,[rip+0x3f44]        # 8dee <_IO_stdin_used+0x32e>
4eaa:	48 89 d9             	mov    rcx,rbx
4ead:	bf 01 00 00 00       	mov    edi,0x1
4eb2:	31 c0                	xor    eax,eax
4eb4:	e8 e7 cf ff ff       	call   1ea0 <error@plt>
4eb9:	0f 1f 80 00 00 00 00 	nop    DWORD PTR [rax+0x0]

0000000000004ec0 <usage>:
4ec0:	41 55                	push   r13
4ec2:	41 54                	push   r12
4ec4:	ba 05 00 00 00       	mov    edx,0x5
4ec9:	55                   	push   rbp
4eca:	53                   	push   rbx
4ecb:	89 fd                	mov    ebp,edi
4ecd:	48 81 ec 88 00 00 00 	sub    rsp,0x88
4ed4:	48 8b 1d 3d 76 20 00 	mov    rbx,QWORD PTR [rip+0x20763d]        # 20c518 <program_name>
4edb:	64 48 8b 04 25 28 00 	mov    rax,QWORD PTR fs:0x28
4ee2:	00 00
4ee4:	48 89 44 24 78       	mov    QWORD PTR [rsp+0x78],rax
4ee9:	31 c0                	xor    eax,eax
4eeb:	85 ff                	test   edi,edi
4eed:	74 2e                	je     4f1d <usage+0x5d>
4eef:	48 8d 35 12 41 00 00 	lea    rsi,[rip+0x4112]        # 9008 <_IO_stdin_used+0x548>
4ef6:	31 ff                	xor    edi,edi
4ef8:	e8 43 cd ff ff       	call   1c40 <dcgettext@plt>
4efd:	48 8b 3d 9c 73 20 00 	mov    rdi,QWORD PTR [rip+0x20739c]        # 20c2a0 <stderr@@GLIBC_2.2.5>
4f04:	48 89 c2             	mov    rdx,rax
4f07:	48 89 d9             	mov    rcx,rbx
4f0a:	be 01 00 00 00       	mov    esi,0x1
4f0f:	31 c0                	xor    eax,eax
4f11:	e8 2a d0 ff ff       	call   1f40 <__fprintf_chk@plt>
4f16:	89 ef                	mov    edi,ebp
4f18:	e8 03 d0 ff ff       	call   1f20 <exit@plt>
4f1d:	48 8d 35 0c 41 00 00 	lea    rsi,[rip+0x410c]        # 9030 <_IO_stdin_used+0x570>
4f24:	31 ff                	xor    edi,edi
4f26:	e8 15 cd ff ff       	call   1c40 <dcgettext@plt>
4f2b:	48 89 da             	mov    rdx,rbx
4f2e:	48 89 c6             	mov    rsi,rax
4f31:	bf 01 00 00 00       	mov    edi,0x1
4f36:	31 c0                	xor    eax,eax
4f38:	e8 43 cf ff ff       	call   1e80 <__printf_chk@plt>
4f3d:	48 8b 1d 24 73 20 00 	mov    rbx,QWORD PTR [rip+0x207324]        # 20c268 <stdout@@GLIBC_2.2.5>
4f44:	48 8d 35 0d 41 00 00 	lea    rsi,[rip+0x410d]        # 9058 <_IO_stdin_used+0x598>
4f4b:	ba 05 00 00 00       	mov    edx,0x5
4f50:	31 ff                	xor    edi,edi
4f52:	e8 e9 cc ff ff       	call   1c40 <dcgettext@plt>
4f57:	48 89 de             	mov    rsi,rbx
4f5a:	48 89 c7             	mov    rdi,rax
4f5d:	e8 1e ce ff ff       	call   1d80 <fputs_unlocked@plt>
4f62:	48 8b 1d ff 72 20 00 	mov    rbx,QWORD PTR [rip+0x2072ff]        # 20c268 <stdout@@GLIBC_2.2.5>
4f69:	48 8d 35 58 41 00 00 	lea    rsi,[rip+0x4158]        # 90c8 <_IO_stdin_used+0x608>
4f70:	ba 05 00 00 00       	mov    edx,0x5
4f75:	31 ff                	xor    edi,edi
4f77:	e8 c4 cc ff ff       	call   1c40 <dcgettext@plt>
4f7c:	48 89 de             	mov    rsi,rbx
4f7f:	48 89 c7             	mov    rdi,rax
4f82:	e8 f9 cd ff ff       	call   1d80 <fputs_unlocked@plt>
4f87:	48 8b 1d da 72 20 00 	mov    rbx,QWORD PTR [rip+0x2072da]        # 20c268 <stdout@@GLIBC_2.2.5>
4f8e:	48 8d 35 6b 41 00 00 	lea    rsi,[rip+0x416b]        # 9100 <_IO_stdin_used+0x640>
4f95:	ba 05 00 00 00       	mov    edx,0x5
4f9a:	31 ff                	xor    edi,edi
4f9c:	e8 9f cc ff ff       	call   1c40 <dcgettext@plt>
4fa1:	48 89 de             	mov    rsi,rbx
4fa4:	48 89 c7             	mov    rdi,rax
4fa7:	e8 d4 cd ff ff       	call   1d80 <fputs_unlocked@plt>
4fac:	48 8d 35 9d 41 00 00 	lea    rsi,[rip+0x419d]        # 9150 <_IO_stdin_used+0x690>
4fb3:	ba 05 00 00 00       	mov    edx,0x5
4fb8:	31 ff                	xor    edi,edi
4fba:	e8 81 cc ff ff       	call   1c40 <dcgettext@plt>
4fbf:	48 8b 3d a2 72 20 00 	mov    rdi,QWORD PTR [rip+0x2072a2]        # 20c268 <stdout@@GLIBC_2.2.5>
4fc6:	b9 02 00 00 00       	mov    ecx,0x2
4fcb:	48 89 c2             	mov    rdx,rax
4fce:	be 01 00 00 00       	mov    esi,0x1
4fd3:	31 c0                	xor    eax,eax
4fd5:	e8 66 cf ff ff       	call   1f40 <__fprintf_chk@plt>
4fda:	48 8b 1d 87 72 20 00 	mov    rbx,QWORD PTR [rip+0x207287]        # 20c268 <stdout@@GLIBC_2.2.5>
4fe1:	48 8d 35 b0 45 00 00 	lea    rsi,[rip+0x45b0]        # 9598 <_IO_stdin_used+0xad8>
4fe8:	ba 05 00 00 00       	mov    edx,0x5
4fed:	31 ff                	xor    edi,edi
4fef:	e8 4c cc ff ff       	call   1c40 <dcgettext@plt>
4ff4:	48 89 de             	mov    rsi,rbx
4ff7:	48 89 c7             	mov    rdi,rax
4ffa:	e8 81 cd ff ff       	call   1d80 <fputs_unlocked@plt>
4fff:	48 8b 1d 62 72 20 00 	mov    rbx,QWORD PTR [rip+0x207262]        # 20c268 <stdout@@GLIBC_2.2.5>
5006:	48 8d 35 03 46 00 00 	lea    rsi,[rip+0x4603]        # 9610 <_IO_stdin_used+0xb50>
500d:	ba 05 00 00 00       	mov    edx,0x5
5012:	31 ff                	xor    edi,edi
5014:	e8 27 cc ff ff       	call   1c40 <dcgettext@plt>
5019:	48 89 de             	mov    rsi,rbx
501c:	48 89 c7             	mov    rdi,rax
501f:	e8 5c cd ff ff       	call   1d80 <fputs_unlocked@plt>
5024:	48 8b 1d 3d 72 20 00 	mov    rbx,QWORD PTR [rip+0x20723d]        # 20c268 <stdout@@GLIBC_2.2.5>
502b:	48 8d 35 0e 46 00 00 	lea    rsi,[rip+0x460e]        # 9640 <_IO_stdin_used+0xb80>
5032:	ba 05 00 00 00       	mov    edx,0x5
5037:	31 ff                	xor    edi,edi
5039:	e8 02 cc ff ff       	call   1c40 <dcgettext@plt>
503e:	48 89 de             	mov    rsi,rbx
5041:	48 89 c7             	mov    rdi,rax
5044:	e8 37 cd ff ff       	call   1d80 <fputs_unlocked@plt>
5049:	48 8b 1d 18 72 20 00 	mov    rbx,QWORD PTR [rip+0x207218]        # 20c268 <stdout@@GLIBC_2.2.5>
5050:	48 8d 35 21 46 00 00 	lea    rsi,[rip+0x4621]        # 9678 <_IO_stdin_used+0xbb8>
5057:	ba 05 00 00 00       	mov    edx,0x5
505c:	31 ff                	xor    edi,edi
505e:	e8 dd cb ff ff       	call   1c40 <dcgettext@plt>
5063:	48 89 de             	mov    rsi,rbx
5066:	48 89 c7             	mov    rdi,rax
5069:	e8 12 cd ff ff       	call   1d80 <fputs_unlocked@plt>
506e:	48 8b 1d f3 71 20 00 	mov    rbx,QWORD PTR [rip+0x2071f3]        # 20c268 <stdout@@GLIBC_2.2.5>
5075:	48 8d 35 d4 46 00 00 	lea    rsi,[rip+0x46d4]        # 9750 <_IO_stdin_used+0xc90>
507c:	ba 05 00 00 00       	mov    edx,0x5
5081:	31 ff                	xor    edi,edi
5083:	e8 b8 cb ff ff       	call   1c40 <dcgettext@plt>
5088:	48 89 de             	mov    rsi,rbx
508b:	48 89 c7             	mov    rdi,rax
508e:	48 8d 1d 70 3b 00 00 	lea    rbx,[rip+0x3b70]        # 8c05 <_IO_stdin_used+0x145>
5095:	e8 e6 cc ff ff       	call   1d80 <fputs_unlocked@plt>
509a:	48 8d 05 6a 3b 00 00 	lea    rax,[rip+0x3b6a]        # 8c0b <_IO_stdin_used+0x14b>
50a1:	48 8d 0d a4 3b 00 00 	lea    rcx,[rip+0x3ba4]        # 8c4c <_IO_stdin_used+0x18c>
50a8:	48 c7 44 24 60 00 00 	mov    QWORD PTR [rsp+0x60],0x0
50af:	00 00
50b1:	48 c7 44 24 68 00 00 	mov    QWORD PTR [rsp+0x68],0x0
50b8:	00 00
50ba:	48 89 e2             	mov    rdx,rsp
50bd:	48 89 04 24          	mov    QWORD PTR [rsp],rax
50c1:	48 8d 05 45 3b 00 00 	lea    rax,[rip+0x3b45]        # 8c0d <_IO_stdin_used+0x14d>
50c8:	48 89 4c 24 30       	mov    QWORD PTR [rsp+0x30],rcx
50cd:	48 8d 0d 82 3b 00 00 	lea    rcx,[rip+0x3b82]        # 8c56 <_IO_stdin_used+0x196>
50d4:	48 89 44 24 08       	mov    QWORD PTR [rsp+0x8],rax
50d9:	48 8d 05 a5 3b 00 00 	lea    rax,[rip+0x3ba5]        # 8c85 <_IO_stdin_used+0x1c5>
50e0:	48 89 4c 24 40       	mov    QWORD PTR [rsp+0x40],rcx
50e5:	48 8d 0d 74 3b 00 00 	lea    rcx,[rip+0x3b74]        # 8c60 <_IO_stdin_used+0x1a0>
50ec:	48 89 44 24 10       	mov    QWORD PTR [rsp+0x10],rax
50f1:	48 8d 05 25 3b 00 00 	lea    rax,[rip+0x3b25]        # 8c1d <_IO_stdin_used+0x15d>
50f8:	48 89 4c 24 50       	mov    QWORD PTR [rsp+0x50],rcx
50fd:	48 89 44 24 18       	mov    QWORD PTR [rsp+0x18],rax
5102:	48 8d 05 2a 3b 00 00 	lea    rax,[rip+0x3b2a]        # 8c33 <_IO_stdin_used+0x173>
5109:	48 89 44 24 20       	mov    QWORD PTR [rsp+0x20],rax
510e:	48 8d 05 28 3b 00 00 	lea    rax,[rip+0x3b28]        # 8c3d <_IO_stdin_used+0x17d>
5115:	48 89 44 24 28       	mov    QWORD PTR [rsp+0x28],rax
511a:	48 89 44 24 38       	mov    QWORD PTR [rsp+0x38],rax
511f:	48 89 44 24 48       	mov    QWORD PTR [rsp+0x48],rax
5124:	48 89 44 24 58       	mov    QWORD PTR [rsp+0x58],rax
5129:	0f 1f 80 00 00 00 00 	nop    DWORD PTR [rax+0x0]
5130:	48 83 c2 10          	add    rdx,0x10
5134:	48 8b 3a             	mov    rdi,QWORD PTR [rdx]
5137:	48 85 ff             	test   rdi,rdi
513a:	74 13                	je     514f <usage+0x28f>
513c:	b9 06 00 00 00       	mov    ecx,0x6
5141:	48 89 de             	mov    rsi,rbx
5144:	f3 a6                	repz cmps BYTE PTR ds:[rsi],BYTE PTR es:[rdi]
5146:	0f 97 c0             	seta   al
5149:	1c 00                	sbb    al,0x0
514b:	84 c0                	test   al,al
514d:	75 e1                	jne    5130 <usage+0x270>
514f:	4c 8b 62 08          	mov    r12,QWORD PTR [rdx+0x8]
5153:	31 ff                	xor    edi,edi
5155:	ba 05 00 00 00       	mov    edx,0x5
515a:	48 8d 35 09 3b 00 00 	lea    rsi,[rip+0x3b09]        # 8c6a <_IO_stdin_used+0x1aa>
5161:	4d 85 e4             	test   r12,r12
5164:	0f 84 c1 00 00 00    	je     522b <usage+0x36b>
516a:	e8 d1 ca ff ff       	call   1c40 <dcgettext@plt>
516f:	48 8d 0d 32 47 00 00 	lea    rcx,[rip+0x4732]        # 98a8 <_IO_stdin_used+0xde8>
5176:	48 8d 15 04 3b 00 00 	lea    rdx,[rip+0x3b04]        # 8c81 <_IO_stdin_used+0x1c1>
517d:	48 89 c6             	mov    rsi,rax
5180:	bf 01 00 00 00       	mov    edi,0x1
5185:	31 c0                	xor    eax,eax
5187:	e8 f4 cc ff ff       	call   1e80 <__printf_chk@plt>
518c:	31 f6                	xor    esi,esi
518e:	bf 05 00 00 00       	mov    edi,0x5
5193:	e8 d8 cc ff ff       	call   1e70 <setlocale@plt>
5198:	48 85 c0             	test   rax,rax
519b:	74 1c                	je     51b9 <usage+0x2f9>
519d:	48 8d 35 eb 3a 00 00 	lea    rsi,[rip+0x3aeb]        # 8c8f <_IO_stdin_used+0x1cf>
51a4:	ba 03 00 00 00       	mov    edx,0x3
51a9:	48 89 c7             	mov    rdi,rax
51ac:	e8 cf c9 ff ff       	call   1b80 <strncmp@plt>
51b1:	85 c0                	test   eax,eax
51b3:	0f 85 07 01 00 00    	jne    52c0 <usage+0x400>
51b9:	48 8d 35 d3 3a 00 00 	lea    rsi,[rip+0x3ad3]        # 8c93 <_IO_stdin_used+0x1d3>
51c0:	31 ff                	xor    edi,edi
51c2:	ba 05 00 00 00       	mov    edx,0x5
51c7:	e8 74 ca ff ff       	call   1c40 <dcgettext@plt>
51cc:	48 8d 0d 32 3a 00 00 	lea    rcx,[rip+0x3a32]        # 8c05 <_IO_stdin_used+0x145>
51d3:	48 8d 15 ce 46 00 00 	lea    rdx,[rip+0x46ce]        # 98a8 <_IO_stdin_used+0xde8>
51da:	48 89 c6             	mov    rsi,rax
51dd:	bf 01 00 00 00       	mov    edi,0x1
51e2:	31 c0                	xor    eax,eax
51e4:	e8 97 cc ff ff       	call   1e80 <__printf_chk@plt>
51e9:	49 39 dc             	cmp    r12,rbx
51ec:	48 8d 0d 34 3a 00 00 	lea    rcx,[rip+0x3a34]        # 8c27 <_IO_stdin_used+0x167>
51f3:	48 8d 1d 47 4f 00 00 	lea    rbx,[rip+0x4f47]        # a141 <quoting_style_vals+0x81>
51fa:	48 0f 44 d9          	cmove  rbx,rcx
51fe:	48 8d 35 13 47 00 00 	lea    rsi,[rip+0x4713]        # 9918 <_IO_stdin_used+0xe58>
5205:	31 ff                	xor    edi,edi
5207:	ba 05 00 00 00       	mov    edx,0x5
520c:	e8 2f ca ff ff       	call   1c40 <dcgettext@plt>
5211:	48 89 d9             	mov    rcx,rbx
5214:	48 89 c6             	mov    rsi,rax
5217:	4c 89 e2             	mov    rdx,r12
521a:	bf 01 00 00 00       	mov    edi,0x1
521f:	31 c0                	xor    eax,eax
5221:	e8 5a cc ff ff       	call   1e80 <__printf_chk@plt>
5226:	e9 eb fc ff ff       	jmp    4f16 <usage+0x56>
522b:	e8 10 ca ff ff       	call   1c40 <dcgettext@plt>
5230:	48 8d 0d 71 46 00 00 	lea    rcx,[rip+0x4671]        # 98a8 <_IO_stdin_used+0xde8>
5237:	48 8d 15 43 3a 00 00 	lea    rdx,[rip+0x3a43]        # 8c81 <_IO_stdin_used+0x1c1>
523e:	48 89 c6             	mov    rsi,rax
5241:	bf 01 00 00 00       	mov    edi,0x1
5246:	31 c0                	xor    eax,eax
5248:	e8 33 cc ff ff       	call   1e80 <__printf_chk@plt>
524d:	31 f6                	xor    esi,esi
524f:	bf 05 00 00 00       	mov    edi,0x5
5254:	e8 17 cc ff ff       	call   1e70 <setlocale@plt>
5259:	48 85 c0             	test   rax,rax
525c:	74 18                	je     5276 <usage+0x3b6>
525e:	48 8d 35 2a 3a 00 00 	lea    rsi,[rip+0x3a2a]        # 8c8f <_IO_stdin_used+0x1cf>
5265:	ba 03 00 00 00       	mov    edx,0x3
526a:	48 89 c7             	mov    rdi,rax
526d:	e8 0e c9 ff ff       	call   1b80 <strncmp@plt>
5272:	85 c0                	test   eax,eax
5274:	75 43                	jne    52b9 <usage+0x3f9>
5276:	48 8d 35 16 3a 00 00 	lea    rsi,[rip+0x3a16]        # 8c93 <_IO_stdin_used+0x1d3>
527d:	ba 05 00 00 00       	mov    edx,0x5
5282:	31 ff                	xor    edi,edi
5284:	4c 8d 25 7a 39 00 00 	lea    r12,[rip+0x397a]        # 8c05 <_IO_stdin_used+0x145>
528b:	48 8d 1d 95 39 00 00 	lea    rbx,[rip+0x3995]        # 8c27 <_IO_stdin_used+0x167>
5292:	e8 a9 c9 ff ff       	call   1c40 <dcgettext@plt>
5297:	48 8d 0d 67 39 00 00 	lea    rcx,[rip+0x3967]        # 8c05 <_IO_stdin_used+0x145>
529e:	48 8d 15 03 46 00 00 	lea    rdx,[rip+0x4603]        # 98a8 <_IO_stdin_used+0xde8>
52a5:	48 89 c6             	mov    rsi,rax
52a8:	bf 01 00 00 00       	mov    edi,0x1
52ad:	31 c0                	xor    eax,eax
52af:	e8 cc cb ff ff       	call   1e80 <__printf_chk@plt>
52b4:	e9 45 ff ff ff       	jmp    51fe <usage+0x33e>
52b9:	4c 8d 25 45 39 00 00 	lea    r12,[rip+0x3945]        # 8c05 <_IO_stdin_used+0x145>
52c0:	4c 8b 2d a1 6f 20 00 	mov    r13,QWORD PTR [rip+0x206fa1]        # 20c268 <stdout@@GLIBC_2.2.5>
52c7:	48 8d 35 02 46 00 00 	lea    rsi,[rip+0x4602]        # 98d0 <_IO_stdin_used+0xe10>
52ce:	31 ff                	xor    edi,edi
52d0:	ba 05 00 00 00       	mov    edx,0x5
52d5:	e8 66 c9 ff ff       	call   1c40 <dcgettext@plt>
52da:	4c 89 ee             	mov    rsi,r13
52dd:	48 89 c7             	mov    rdi,rax
52e0:	e8 9b ca ff ff       	call   1d80 <fputs_unlocked@plt>
52e5:	e9 cf fe ff ff       	jmp    51b9 <usage+0x2f9>
52ea:	66 0f 1f 44 00 00    	nop    WORD PTR [rax+rax*1+0x0]

00000000000052f0 <close_stdout_set_file_name>:
52f0:	48 89 3d 19 72 20 00 	mov    QWORD PTR [rip+0x207219],rdi        # 20c510 <file_name>
52f7:	c3                   	ret
52f8:	0f 1f 84 00 00 00 00 	nop    DWORD PTR [rax+rax*1+0x0]
52ff:	00

0000000000005300 <close_stdout_set_ignore_EPIPE>:
5300:	40 88 3d 01 72 20 00 	mov    BYTE PTR [rip+0x207201],dil        # 20c508 <ignore_EPIPE>
5307:	c3                   	ret
5308:	0f 1f 84 00 00 00 00 	nop    DWORD PTR [rax+rax*1+0x0]
530f:	00

0000000000005310 <close_stdout>:
5310:	55                   	push   rbp
5311:	53                   	push   rbx
5312:	48 83 ec 08          	sub    rsp,0x8
5316:	48 8b 3d 4b 6f 20 00 	mov    rdi,QWORD PTR [rip+0x206f4b]        # 20c268 <stdout@@GLIBC_2.2.5>
531d:	e8 3e 33 00 00       	call   8660 <close_stream>
5322:	85 c0                	test   eax,eax
5324:	74 16                	je     533c <close_stdout+0x2c>
5326:	e8 45 c8 ff ff       	call   1b70 <__errno_location@plt>
532b:	80 3d d6 71 20 00 00 	cmp    BYTE PTR [rip+0x2071d6],0x0        # 20c508 <ignore_EPIPE>
5332:	48 89 c3             	mov    rbx,rax
5335:	74 1c                	je     5353 <close_stdout+0x43>
5337:	83 38 20             	cmp    DWORD PTR [rax],0x20
533a:	75 17                	jne    5353 <close_stdout+0x43>
533c:	48 8b 3d 5d 6f 20 00 	mov    rdi,QWORD PTR [rip+0x206f5d]        # 20c2a0 <stderr@@GLIBC_2.2.5>
5343:	e8 18 33 00 00       	call   8660 <close_stream>
5348:	85 c0                	test   eax,eax
534a:	75 46                	jne    5392 <close_stdout+0x82>
534c:	48 83 c4 08          	add    rsp,0x8
5350:	5b                   	pop    rbx
5351:	5d                   	pop    rbp
5352:	c3                   	ret
5353:	48 8d 35 e1 3a 00 00 	lea    rsi,[rip+0x3ae1]        # 8e3b <_IO_stdin_used+0x37b>
535a:	31 ff                	xor    edi,edi
535c:	ba 05 00 00 00       	mov    edx,0x5
5361:	e8 da c8 ff ff       	call   1c40 <dcgettext@plt>
5366:	48 8b 3d a3 71 20 00 	mov    rdi,QWORD PTR [rip+0x2071a3]        # 20c510 <file_name>
536d:	48 89 c5             	mov    rbp,rax
5370:	48 85 ff             	test   rdi,rdi
5373:	74 28                	je     539d <close_stdout+0x8d>
5375:	e8 a6 1d 00 00       	call   7120 <quotearg_colon>
537a:	8b 33                	mov    esi,DWORD PTR [rbx]
537c:	48 8d 15 67 3a 00 00 	lea    rdx,[rip+0x3a67]        # 8dea <_IO_stdin_used+0x32a>
5383:	48 89 c1             	mov    rcx,rax
5386:	49 89 e8             	mov    r8,rbp
5389:	31 ff                	xor    edi,edi
538b:	31 c0                	xor    eax,eax
538d:	e8 0e cb ff ff       	call   1ea0 <error@plt>
5392:	8b 3d 98 6c 20 00    	mov    edi,DWORD PTR [rip+0x206c98]        # 20c030 <exit_failure>
5398:	e8 f3 c7 ff ff       	call   1b90 <_exit@plt>
539d:	8b 33                	mov    esi,DWORD PTR [rbx]
539f:	48 8d 15 48 3a 00 00 	lea    rdx,[rip+0x3a48]        # 8dee <_IO_stdin_used+0x32e>
53a6:	48 89 c1             	mov    rcx,rax
53a9:	31 ff                	xor    edi,edi
53ab:	31 c0                	xor    eax,eax
53ad:	e8 ee ca ff ff       	call   1ea0 <error@plt>
53b2:	eb de                	jmp    5392 <close_stdout+0x82>
53b4:	66 2e 0f 1f 84 00 00 	nop    WORD PTR cs:[rax+rax*1+0x0]
53bb:	00 00 00
53be:	66 90                	xchg   ax,ax

00000000000053c0 <last_component>:
53c0:	0f b6 17             	movzx  edx,BYTE PTR [rdi]
53c3:	48 89 f8             	mov    rax,rdi
53c6:	80 fa 2f             	cmp    dl,0x2f
53c9:	75 11                	jne    53dc <last_component+0x1c>
53cb:	0f 1f 44 00 00       	nop    DWORD PTR [rax+rax*1+0x0]
53d0:	48 83 c0 01          	add    rax,0x1
53d4:	0f b6 10             	movzx  edx,BYTE PTR [rax]
53d7:	80 fa 2f             	cmp    dl,0x2f
53da:	74 f4                	je     53d0 <last_component+0x10>
53dc:	84 d2                	test   dl,dl
53de:	74 3a                	je     541a <last_component+0x5a>
53e0:	48 89 c1             	mov    rcx,rax
53e3:	31 f6                	xor    esi,esi
53e5:	eb 1e                	jmp    5405 <last_component+0x45>
53e7:	66 0f 1f 84 00 00 00 	nop    WORD PTR [rax+rax*1+0x0]
53ee:	00 00
53f0:	40 84 f6             	test   sil,sil
53f3:	74 05                	je     53fa <last_component+0x3a>
53f5:	48 89 c8             	mov    rax,rcx
53f8:	31 f6                	xor    esi,esi
53fa:	48 83 c1 01          	add    rcx,0x1
53fe:	0f b6 11             	movzx  edx,BYTE PTR [rcx]
5401:	84 d2                	test   dl,dl
5403:	74 15                	je     541a <last_component+0x5a>
5405:	80 fa 2f             	cmp    dl,0x2f
5408:	75 e6                	jne    53f0 <last_component+0x30>
540a:	48 83 c1 01          	add    rcx,0x1
540e:	0f b6 11             	movzx  edx,BYTE PTR [rcx]
5411:	be 01 00 00 00       	mov    esi,0x1
5416:	84 d2                	test   dl,dl
5418:	75 eb                	jne    5405 <last_component+0x45>
541a:	f3 c3                	repz ret
541c:	0f 1f 40 00          	nop    DWORD PTR [rax+0x0]

0000000000005420 <base_len>:
5420:	53                   	push   rbx
5421:	48 89 fb             	mov    rbx,rdi
5424:	e8 37 c8 ff ff       	call   1c60 <strlen@plt>
5429:	48 83 f8 01          	cmp    rax,0x1
542d:	76 0b                	jbe    543a <base_len+0x1a>
542f:	80 7c 03 ff 2f       	cmp    BYTE PTR [rbx+rax*1-0x1],0x2f
5434:	48 8d 50 ff          	lea    rdx,[rax-0x1]
5438:	74 0e                	je     5448 <base_len+0x28>
543a:	5b                   	pop    rbx
543b:	c3                   	ret
543c:	0f 1f 40 00          	nop    DWORD PTR [rax+0x0]
5440:	48 89 c2             	mov    rdx,rax
5443:	0f 1f 44 00 00       	nop    DWORD PTR [rax+rax*1+0x0]
5448:	48 83 fa 01          	cmp    rdx,0x1
544c:	74 12                	je     5460 <base_len+0x40>
544e:	80 7c 13 ff 2f       	cmp    BYTE PTR [rbx+rdx*1-0x1],0x2f
5453:	48 8d 42 ff          	lea    rax,[rdx-0x1]
5457:	74 e7                	je     5440 <base_len+0x20>
5459:	48 89 d0             	mov    rax,rdx
545c:	5b                   	pop    rbx
545d:	c3                   	ret
545e:	66 90                	xchg   ax,ax
5460:	b8 01 00 00 00       	mov    eax,0x1
5465:	5b                   	pop    rbx
5466:	c3                   	ret
5467:	66 0f 1f 84 00 00 00 	nop    WORD PTR [rax+rax*1+0x0]
546e:	00 00

0000000000005470 <open_safer>:
5470:	48 83 ec 58          	sub    rsp,0x58
5474:	48 89 54 24 30       	mov    QWORD PTR [rsp+0x30],rdx
5479:	31 d2                	xor    edx,edx
547b:	64 48 8b 04 25 28 00 	mov    rax,QWORD PTR fs:0x28
5482:	00 00
5484:	48 89 44 24 18       	mov    QWORD PTR [rsp+0x18],rax
5489:	31 c0                	xor    eax,eax
548b:	40 f6 c6 40          	test   sil,0x40
548f:	75 27                	jne    54b8 <open_safer+0x48>
5491:	31 c0                	xor    eax,eax
5493:	e8 38 ca ff ff       	call   1ed0 <open@plt>
5498:	89 c7                	mov    edi,eax
549a:	e8 61 1f 00 00       	call   7400 <fd_safer>
549f:	48 8b 4c 24 18       	mov    rcx,QWORD PTR [rsp+0x18]
54a4:	64 48 33 0c 25 28 00 	xor    rcx,QWORD PTR fs:0x28
54ab:	00 00
54ad:	75 2a                	jne    54d9 <open_safer+0x69>
54af:	48 83 c4 58          	add    rsp,0x58
54b3:	c3                   	ret
54b4:	0f 1f 40 00          	nop    DWORD PTR [rax+0x0]
54b8:	48 8d 44 24 60       	lea    rax,[rsp+0x60]
54bd:	c7 04 24 10 00 00 00 	mov    DWORD PTR [rsp],0x10
54c4:	8b 54 24 30          	mov    edx,DWORD PTR [rsp+0x30]
54c8:	48 89 44 24 08       	mov    QWORD PTR [rsp+0x8],rax
54cd:	48 8d 44 24 20       	lea    rax,[rsp+0x20]
54d2:	48 89 44 24 10       	mov    QWORD PTR [rsp+0x10],rax
54d7:	eb b8                	jmp    5491 <open_safer+0x21>
54d9:	e8 92 c7 ff ff       	call   1c70 <__stack_chk_fail@plt>
54de:	66 90                	xchg   ax,ax

00000000000054e0 <fd_reopen>:
54e0:	41 55                	push   r13
54e2:	41 54                	push   r12
54e4:	31 c0                	xor    eax,eax
54e6:	55                   	push   rbp
54e7:	53                   	push   rbx
54e8:	89 fd                	mov    ebp,edi
54ea:	48 89 f7             	mov    rdi,rsi
54ed:	89 d6                	mov    esi,edx
54ef:	89 ca                	mov    edx,ecx
54f1:	48 83 ec 08          	sub    rsp,0x8
54f5:	e8 d6 c9 ff ff       	call   1ed0 <open@plt>
54fa:	39 c5                	cmp    ebp,eax
54fc:	89 c3                	mov    ebx,eax
54fe:	74 29                	je     5529 <fd_reopen+0x49>
5500:	85 c0                	test   eax,eax
5502:	78 25                	js     5529 <fd_reopen+0x49>
5504:	89 ee                	mov    esi,ebp
5506:	89 c7                	mov    edi,eax
5508:	e8 93 c7 ff ff       	call   1ca0 <dup2@plt>
550d:	41 89 c4             	mov    r12d,eax
5510:	e8 5b c6 ff ff       	call   1b70 <__errno_location@plt>
5515:	44 8b 28             	mov    r13d,DWORD PTR [rax]
5518:	48 89 c5             	mov    rbp,rax
551b:	89 df                	mov    edi,ebx
551d:	e8 fe c7 ff ff       	call   1d20 <close@plt>
5522:	44 89 e3             	mov    ebx,r12d
5525:	44 89 6d 00          	mov    DWORD PTR [rbp+0x0],r13d
5529:	48 83 c4 08          	add    rsp,0x8
552d:	89 d8                	mov    eax,ebx
552f:	5b                   	pop    rbx
5530:	5d                   	pop    rbp
5531:	41 5c                	pop    r12
5533:	41 5d                	pop    r13
5535:	c3                   	ret
5536:	66 2e 0f 1f 84 00 00 	nop    WORD PTR cs:[rax+rax*1+0x0]
553d:	00 00 00

0000000000005540 <full_write>:
5540:	41 55                	push   r13
5542:	41 54                	push   r12
5544:	55                   	push   rbp
5545:	53                   	push   rbx
5546:	48 83 ec 08          	sub    rsp,0x8
554a:	48 85 d2             	test   rdx,rdx
554d:	74 62                	je     55b1 <full_write+0x71>
554f:	41 89 fd             	mov    r13d,edi
5552:	48 89 f5             	mov    rbp,rsi
5555:	48 89 d3             	mov    rbx,rdx
5558:	45 31 e4             	xor    r12d,r12d
555b:	eb 13                	jmp    5570 <full_write+0x30>
555d:	0f 1f 00             	nop    DWORD PTR [rax]
5560:	48 85 c0             	test   rax,rax
5563:	74 33                	je     5598 <full_write+0x58>
5565:	49 01 c4             	add    r12,rax
5568:	48 01 c5             	add    rbp,rax
556b:	48 29 c3             	sub    rbx,rax
556e:	74 14                	je     5584 <full_write+0x44>
5570:	48 89 da             	mov    rdx,rbx
5573:	48 89 ee             	mov    rsi,rbp
5576:	44 89 ef             	mov    edi,r13d
5579:	e8 22 1e 00 00       	call   73a0 <safe_write>
557e:	48 83 f8 ff          	cmp    rax,0xffffffffffffffff
5582:	75 dc                	jne    5560 <full_write+0x20>
5584:	48 83 c4 08          	add    rsp,0x8
5588:	4c 89 e0             	mov    rax,r12
558b:	5b                   	pop    rbx
558c:	5d                   	pop    rbp
558d:	41 5c                	pop    r12
558f:	41 5d                	pop    r13
5591:	c3                   	ret
5592:	66 0f 1f 44 00 00    	nop    WORD PTR [rax+rax*1+0x0]
5598:	e8 d3 c5 ff ff       	call   1b70 <__errno_location@plt>
559d:	c7 00 1c 00 00 00    	mov    DWORD PTR [rax],0x1c
55a3:	48 83 c4 08          	add    rsp,0x8
55a7:	4c 89 e0             	mov    rax,r12
55aa:	5b                   	pop    rbx
55ab:	5d                   	pop    rbp
55ac:	41 5c                	pop    r12
55ae:	41 5d                	pop    r13
55b0:	c3                   	ret
55b1:	45 31 e4             	xor    r12d,r12d
55b4:	eb ce                	jmp    5584 <full_write+0x44>
55b6:	66 2e 0f 1f 84 00 00 	nop    WORD PTR cs:[rax+rax*1+0x0]
55bd:	00 00 00

00000000000055c0 <umaxtostr>:
55c0:	48 8d 4e 14          	lea    rcx,[rsi+0x14]
55c4:	c6 46 14 00          	mov    BYTE PTR [rsi+0x14],0x0
55c8:	48 be cd cc cc cc cc 	movabs rsi,0xcccccccccccccccd
55cf:	cc cc cc
55d2:	66 0f 1f 44 00 00    	nop    WORD PTR [rax+rax*1+0x0]
55d8:	48 89 f8             	mov    rax,rdi
55db:	48 83 e9 01          	sub    rcx,0x1
55df:	48 f7 e6             	mul    rsi
55e2:	48 c1 ea 03          	shr    rdx,0x3
55e6:	48 8d 04 92          	lea    rax,[rdx+rdx*4]
55ea:	48 01 c0             	add    rax,rax
55ed:	48 29 c7             	sub    rdi,rax
55f0:	83 c7 30             	add    edi,0x30
55f3:	48 85 d2             	test   rdx,rdx
55f6:	40 88 39             	mov    BYTE PTR [rcx],dil
55f9:	48 89 d7             	mov    rdi,rdx
55fc:	75 da                	jne    55d8 <umaxtostr+0x18>
55fe:	48 89 c8             	mov    rax,rcx
5601:	c3                   	ret
5602:	66 2e 0f 1f 84 00 00 	nop    WORD PTR cs:[rax+rax*1+0x0]
5609:	00 00 00
560c:	0f 1f 40 00          	nop    DWORD PTR [rax+0x0]

0000000000005610 <set_program_name>:
5610:	48 85 ff             	test   rdi,rdi
5613:	53                   	push   rbx
5614:	74 77                	je     568d <set_program_name+0x7d>
5616:	be 2f 00 00 00       	mov    esi,0x2f
561b:	48 89 fb             	mov    rbx,rdi
561e:	e8 9d c6 ff ff       	call   1cc0 <strrchr@plt>
5623:	48 85 c0             	test   rax,rax
5626:	74 55                	je     567d <set_program_name+0x6d>
5628:	4c 8d 40 01          	lea    r8,[rax+0x1]
562c:	4c 89 c2             	mov    rdx,r8
562f:	48 29 da             	sub    rdx,rbx
5632:	48 83 fa 06          	cmp    rdx,0x6
5636:	7e 45                	jle    567d <set_program_name+0x6d>
5638:	48 8d 70 fa          	lea    rsi,[rax-0x6]
563c:	48 8d 3d c5 45 00 00 	lea    rdi,[rip+0x45c5]        # 9c08 <multipliers.7397+0x50>
5643:	b9 07 00 00 00       	mov    ecx,0x7
5648:	f3 a6                	repz cmps BYTE PTR ds:[rsi],BYTE PTR es:[rdi]
564a:	0f 97 c2             	seta   dl
564d:	80 da 00             	sbb    dl,0x0
5650:	84 d2                	test   dl,dl
5652:	75 29                	jne    567d <set_program_name+0x6d>
5654:	48 8d 3d b5 45 00 00 	lea    rdi,[rip+0x45b5]        # 9c10 <multipliers.7397+0x58>
565b:	b9 03 00 00 00       	mov    ecx,0x3
5660:	4c 89 c6             	mov    rsi,r8
5663:	4c 89 c3             	mov    rbx,r8
5666:	f3 a6                	repz cmps BYTE PTR ds:[rsi],BYTE PTR es:[rdi]
5668:	0f 97 c2             	seta   dl
566b:	80 da 00             	sbb    dl,0x0
566e:	84 d2                	test   dl,dl
5670:	75 0b                	jne    567d <set_program_name+0x6d>
5672:	48 8d 58 04          	lea    rbx,[rax+0x4]
5676:	48 89 1d e3 6b 20 00 	mov    QWORD PTR [rip+0x206be3],rbx        # 20c260 <__progname@@GLIBC_2.2.5>
567d:	48 89 1d 94 6e 20 00 	mov    QWORD PTR [rip+0x206e94],rbx        # 20c518 <program_name>
5684:	48 89 1d f5 6b 20 00 	mov    QWORD PTR [rip+0x206bf5],rbx        # 20c280 <__progname_full@@GLIBC_2.2.5>
568b:	5b                   	pop    rbx
568c:	c3                   	ret
568d:	48 8b 0d 0c 6c 20 00 	mov    rcx,QWORD PTR [rip+0x206c0c]        # 20c2a0 <stderr@@GLIBC_2.2.5>
5694:	48 8d 3d 35 45 00 00 	lea    rdi,[rip+0x4535]        # 9bd0 <multipliers.7397+0x18>
569b:	ba 37 00 00 00       	mov    edx,0x37
56a0:	be 01 00 00 00       	mov    esi,0x1
56a5:	e8 86 c8 ff ff       	call   1f30 <fwrite@plt>
56aa:	e8 b1 c4 ff ff       	call   1b60 <abort@plt>
56af:	90                   	nop

00000000000056b0 <gettext_quote.part.1>:
56b0:	55                   	push   rbp
56b1:	53                   	push   rbx
56b2:	48 89 fd             	mov    rbp,rdi
56b5:	89 f3                	mov    ebx,esi
56b7:	48 83 ec 08          	sub    rsp,0x8
56bb:	e8 80 30 00 00       	call   8740 <locale_charset>
56c0:	0f b6 10             	movzx  edx,BYTE PTR [rax]
56c3:	83 e2 df             	and    edx,0xffffffdf
56c6:	80 fa 55             	cmp    dl,0x55
56c9:	74 75                	je     5740 <gettext_quote.part.1+0x90>
56cb:	80 fa 47             	cmp    dl,0x47
56ce:	74 20                	je     56f0 <gettext_quote.part.1+0x40>
56d0:	48 8d 05 4c 45 00 00 	lea    rax,[rip+0x454c]        # 9c23 <multipliers.7397+0x6b>
56d7:	48 8d 15 47 45 00 00 	lea    rdx,[rip+0x4547]        # 9c25 <multipliers.7397+0x6d>
56de:	83 fb 09             	cmp    ebx,0x9
56e1:	48 0f 45 c2          	cmovne rax,rdx
56e5:	48 83 c4 08          	add    rsp,0x8
56e9:	5b                   	pop    rbx
56ea:	5d                   	pop    rbp
56eb:	c3                   	ret
56ec:	0f 1f 40 00          	nop    DWORD PTR [rax+0x0]
56f0:	0f b6 50 01          	movzx  edx,BYTE PTR [rax+0x1]
56f4:	83 e2 df             	and    edx,0xffffffdf
56f7:	80 fa 42             	cmp    dl,0x42
56fa:	75 d4                	jne    56d0 <gettext_quote.part.1+0x20>
56fc:	80 78 02 31          	cmp    BYTE PTR [rax+0x2],0x31
5700:	75 ce                	jne    56d0 <gettext_quote.part.1+0x20>
5702:	80 78 03 38          	cmp    BYTE PTR [rax+0x3],0x38
5706:	75 c8                	jne    56d0 <gettext_quote.part.1+0x20>
5708:	80 78 04 30          	cmp    BYTE PTR [rax+0x4],0x30
570c:	75 c2                	jne    56d0 <gettext_quote.part.1+0x20>
570e:	80 78 05 33          	cmp    BYTE PTR [rax+0x5],0x33
5712:	75 bc                	jne    56d0 <gettext_quote.part.1+0x20>
5714:	80 78 06 30          	cmp    BYTE PTR [rax+0x6],0x30
5718:	75 b6                	jne    56d0 <gettext_quote.part.1+0x20>
571a:	80 78 07 00          	cmp    BYTE PTR [rax+0x7],0x0
571e:	75 b0                	jne    56d0 <gettext_quote.part.1+0x20>
5720:	80 7d 00 60          	cmp    BYTE PTR [rbp+0x0],0x60
5724:	48 8d 05 f1 44 00 00 	lea    rax,[rip+0x44f1]        # 9c1c <multipliers.7397+0x64>
572b:	48 8d 15 ee 44 00 00 	lea    rdx,[rip+0x44ee]        # 9c20 <multipliers.7397+0x68>
5732:	48 0f 45 c2          	cmovne rax,rdx
5736:	48 83 c4 08          	add    rsp,0x8
573a:	5b                   	pop    rbx
573b:	5d                   	pop    rbp
573c:	c3                   	ret
573d:	0f 1f 00             	nop    DWORD PTR [rax]
5740:	0f b6 50 01          	movzx  edx,BYTE PTR [rax+0x1]
5744:	83 e2 df             	and    edx,0xffffffdf
5747:	80 fa 54             	cmp    dl,0x54
574a:	75 84                	jne    56d0 <gettext_quote.part.1+0x20>
574c:	0f b6 50 02          	movzx  edx,BYTE PTR [rax+0x2]
5750:	83 e2 df             	and    edx,0xffffffdf
5753:	80 fa 46             	cmp    dl,0x46
5756:	0f 85 74 ff ff ff    	jne    56d0 <gettext_quote.part.1+0x20>
575c:	80 78 03 2d          	cmp    BYTE PTR [rax+0x3],0x2d
5760:	0f 85 6a ff ff ff    	jne    56d0 <gettext_quote.part.1+0x20>
5766:	80 78 04 38          	cmp    BYTE PTR [rax+0x4],0x38
576a:	0f 85 60 ff ff ff    	jne    56d0 <gettext_quote.part.1+0x20>
5770:	80 78 05 00          	cmp    BYTE PTR [rax+0x5],0x0
5774:	0f 85 56 ff ff ff    	jne    56d0 <gettext_quote.part.1+0x20>
577a:	80 7d 00 60          	cmp    BYTE PTR [rbp+0x0],0x60
577e:	48 8d 05 8f 44 00 00 	lea    rax,[rip+0x448f]        # 9c14 <multipliers.7397+0x5c>
5785:	48 8d 15 8c 44 00 00 	lea    rdx,[rip+0x448c]        # 9c18 <multipliers.7397+0x60>
578c:	48 0f 45 c2          	cmovne rax,rdx
5790:	48 83 c4 08          	add    rsp,0x8
5794:	5b                   	pop    rbx
5795:	5d                   	pop    rbp
5796:	c3                   	ret
5797:	66 0f 1f 84 00 00 00 	nop    WORD PTR [rax+rax*1+0x0]
579e:	00 00

00000000000057a0 <quotearg_buffer_restyled>:
57a0:	41 57                	push   r15
57a2:	41 56                	push   r14
57a4:	45 89 c7             	mov    r15d,r8d
57a7:	41 55                	push   r13
57a9:	41 54                	push   r12
57ab:	49 89 fe             	mov    r14,rdi
57ae:	55                   	push   rbp
57af:	53                   	push   rbx
57b0:	44 89 cb             	mov    ebx,r9d
57b3:	49 89 f5             	mov    r13,rsi
57b6:	48 89 cd             	mov    rbp,rcx
57b9:	83 e3 02             	and    ebx,0x2
57bc:	48 81 ec b8 00 00 00 	sub    rsp,0xb8
57c3:	48 8b 84 24 f0 00 00 	mov    rax,QWORD PTR [rsp+0xf0]
57ca:	00
57cb:	48 89 54 24 10       	mov    QWORD PTR [rsp+0x10],rdx
57d0:	44 89 44 24 08       	mov    DWORD PTR [rsp+0x8],r8d
57d5:	44 89 4c 24 78       	mov    DWORD PTR [rsp+0x78],r9d
57da:	48 89 44 24 20       	mov    QWORD PTR [rsp+0x20],rax
57df:	48 8b 84 24 f8 00 00 	mov    rax,QWORD PTR [rsp+0xf8]
57e6:	00
57e7:	48 89 44 24 68       	mov    QWORD PTR [rsp+0x68],rax
57ec:	48 8b 84 24 00 01 00 	mov    rax,QWORD PTR [rsp+0x100]
57f3:	00
57f4:	48 89 44 24 60       	mov    QWORD PTR [rsp+0x60],rax
57f9:	64 48 8b 04 25 28 00 	mov    rax,QWORD PTR fs:0x28
5800:	00 00
5802:	48 89 84 24 a8 00 00 	mov    QWORD PTR [rsp+0xa8],rax
5809:	00
580a:	31 c0                	xor    eax,eax
580c:	e8 3f c4 ff ff       	call   1c50 <__ctype_get_mb_cur_max@plt>
5811:	41 83 ff 0a          	cmp    r15d,0xa
5815:	48 89 44 24 58       	mov    QWORD PTR [rsp+0x58],rax
581a:	0f 87 af 11 00 00    	ja     69cf <quotearg_buffer_restyled+0x122f>
5820:	48 8d 0d 59 44 00 00 	lea    rcx,[rip+0x4459]        # 9c80 <multipliers.7397+0xc8>
5827:	44 89 fa             	mov    edx,r15d
582a:	48 63 04 91          	movsxd rax,DWORD PTR [rcx+rdx*4]
582e:	48 01 c8             	add    rax,rcx
5831:	ff e0                	jmp    rax
5833:	c6 44 24 0e 01       	mov    BYTE PTR [rsp+0xe],0x1
5838:	c6 44 24 7c 00       	mov    BYTE PTR [rsp+0x7c],0x0
583d:	45 31 e4             	xor    r12d,r12d
5840:	48 c7 44 24 50 00 00 	mov    QWORD PTR [rsp+0x50],0x0
5847:	00 00
5849:	c6 44 24 0f 01       	mov    BYTE PTR [rsp+0xf],0x1
584e:	c6 44 24 0d 00       	mov    BYTE PTR [rsp+0xd],0x0
5853:	48 8d 05 cb 43 00 00 	lea    rax,[rip+0x43cb]        # 9c25 <multipliers.7397+0x6d>
585a:	48 c7 44 24 18 01 00 	mov    QWORD PTR [rsp+0x18],0x1
5861:	00 00
5863:	45 31 ff             	xor    r15d,r15d
5866:	c7 44 24 08 02 00 00 	mov    DWORD PTR [rsp+0x8],0x2
586d:	00
586e:	48 89 44 24 48       	mov    QWORD PTR [rsp+0x48],rax
5873:	45 31 db             	xor    r11d,r11d
5876:	48 89 e8             	mov    rax,rbp
5879:	45 89 e0             	mov    r8d,r12d
587c:	4c 89 dd             	mov    rbp,r11
587f:	49 89 c3             	mov    r11,rax
5882:	66 0f 1f 44 00 00    	nop    WORD PTR [rax+rax*1+0x0]
5888:	49 39 eb             	cmp    r11,rbp
588b:	41 0f 95 c4          	setne  r12b
588f:	49 83 fb ff          	cmp    r11,0xffffffffffffffff
5893:	75 0d                	jne    58a2 <quotearg_buffer_restyled+0x102>
5895:	48 8b 44 24 10       	mov    rax,QWORD PTR [rsp+0x10]
589a:	80 3c 28 00          	cmp    BYTE PTR [rax+rbp*1],0x0
589e:	41 0f 95 c4          	setne  r12b
58a2:	45 84 e4             	test   r12b,r12b
58a5:	0f 84 55 06 00 00    	je     5f00 <quotearg_buffer_restyled+0x760>
58ab:	83 7c 24 08 02       	cmp    DWORD PTR [rsp+0x8],0x2
58b0:	48 8b 7c 24 10       	mov    rdi,QWORD PTR [rsp+0x10]
58b5:	4c 8d 0c 2f          	lea    r9,[rdi+rbp*1]
58b9:	0f 95 c0             	setne  al
58bc:	22 44 24 0d          	and    al,BYTE PTR [rsp+0xd]
58c0:	41 89 c2             	mov    r10d,eax
58c3:	0f 84 a7 00 00 00    	je     5970 <quotearg_buffer_restyled+0x1d0>
58c9:	48 8b 44 24 18       	mov    rax,QWORD PTR [rsp+0x18]
58ce:	48 85 c0             	test   rax,rax
58d1:	0f 84 29 04 00 00    	je     5d00 <quotearg_buffer_restyled+0x560>
58d7:	49 83 fb ff          	cmp    r11,0xffffffffffffffff
58db:	48 8d 5c 05 00       	lea    rbx,[rbp+rax*1+0x0]
58e0:	75 2e                	jne    5910 <quotearg_buffer_restyled+0x170>
58e2:	48 83 f8 01          	cmp    rax,0x1
58e6:	76 28                	jbe    5910 <quotearg_buffer_restyled+0x170>
58e8:	44 88 44 24 38       	mov    BYTE PTR [rsp+0x38],r8b
58ed:	44 88 54 24 30       	mov    BYTE PTR [rsp+0x30],r10b
58f2:	4c 89 4c 24 28       	mov    QWORD PTR [rsp+0x28],r9
58f7:	e8 64 c3 ff ff       	call   1c60 <strlen@plt>
58fc:	44 0f b6 44 24 38    	movzx  r8d,BYTE PTR [rsp+0x38]
5902:	44 0f b6 54 24 30    	movzx  r10d,BYTE PTR [rsp+0x30]
5908:	49 89 c3             	mov    r11,rax
590b:	4c 8b 4c 24 28       	mov    r9,QWORD PTR [rsp+0x28]
5910:	4c 39 db             	cmp    rbx,r11
5913:	44 88 54 24 28       	mov    BYTE PTR [rsp+0x28],r10b
5918:	0f 87 b2 05 00 00    	ja     5ed0 <quotearg_buffer_restyled+0x730>
591e:	48 8b 54 24 18       	mov    rdx,QWORD PTR [rsp+0x18]
5923:	48 8b 74 24 48       	mov    rsi,QWORD PTR [rsp+0x48]
5928:	4c 89 cf             	mov    rdi,r9
592b:	4c 89 5c 24 40       	mov    QWORD PTR [rsp+0x40],r11
5930:	44 88 44 24 38       	mov    BYTE PTR [rsp+0x38],r8b
5935:	4c 89 4c 24 30       	mov    QWORD PTR [rsp+0x30],r9
593a:	e8 31 c4 ff ff       	call   1d70 <memcmp@plt>
593f:	85 c0                	test   eax,eax
5941:	4c 8b 4c 24 30       	mov    r9,QWORD PTR [rsp+0x30]
5946:	44 0f b6 44 24 38    	movzx  r8d,BYTE PTR [rsp+0x38]
594c:	4c 8b 5c 24 40       	mov    r11,QWORD PTR [rsp+0x40]
5951:	0f 85 79 05 00 00    	jne    5ed0 <quotearg_buffer_restyled+0x730>
5957:	80 7c 24 0f 00       	cmp    BYTE PTR [rsp+0xf],0x0
595c:	44 0f b6 54 24 28    	movzx  r10d,BYTE PTR [rsp+0x28]
5962:	0f 85 7d 0f 00 00    	jne    68e5 <quotearg_buffer_restyled+0x1145>
5968:	0f 1f 84 00 00 00 00 	nop    DWORD PTR [rax+rax*1+0x0]
596f:	00
5970:	41 0f b6 19          	movzx  ebx,BYTE PTR [r9]
5974:	80 fb 7e             	cmp    bl,0x7e
5977:	0f 87 1b 03 00 00    	ja     5c98 <quotearg_buffer_restyled+0x4f8>
597d:	48 8d 0d 28 43 00 00 	lea    rcx,[rip+0x4328]        # 9cac <multipliers.7397+0xf4>
5984:	0f b6 d3             	movzx  edx,bl
5987:	48 63 04 91          	movsxd rax,DWORD PTR [rcx+rdx*4]
598b:	48 01 c8             	add    rax,rcx
598e:	ff e0                	jmp    rax
5990:	45 31 d2             	xor    r10d,r10d
5993:	49 83 fb 01          	cmp    r11,0x1
5997:	0f 95 c0             	setne  al
599a:	49 83 fb ff          	cmp    r11,0xffffffffffffffff
599e:	75 0c                	jne    59ac <quotearg_buffer_restyled+0x20c>
59a0:	48 8b 44 24 10       	mov    rax,QWORD PTR [rsp+0x10]
59a5:	80 78 01 00          	cmp    BYTE PTR [rax+0x1],0x0
59a9:	0f 95 c0             	setne  al
59ac:	83 7c 24 08 02       	cmp    DWORD PTR [rsp+0x8],0x2
59b1:	0f 94 c2             	sete   dl
59b4:	84 c0                	test   al,al
59b6:	0f 84 4c 02 00 00    	je     5c08 <quotearg_buffer_restyled+0x468>
59bc:	45 31 e4             	xor    r12d,r12d
59bf:	31 c0                	xor    eax,eax
59c1:	0f 1f 80 00 00 00 00 	nop    DWORD PTR [rax+0x0]
59c8:	80 7c 24 0d 01       	cmp    BYTE PTR [rsp+0xd],0x1
59cd:	0f 85 0f 01 00 00    	jne    5ae2 <quotearg_buffer_restyled+0x342>
59d3:	84 d2                	test   dl,dl
59d5:	0f 85 07 01 00 00    	jne    5ae2 <quotearg_buffer_restyled+0x342>
59db:	48 8b 74 24 20       	mov    rsi,QWORD PTR [rsp+0x20]
59e0:	48 85 f6             	test   rsi,rsi
59e3:	74 14                	je     59f9 <quotearg_buffer_restyled+0x259>
59e5:	89 da                	mov    edx,ebx
59e7:	c0 ea 05             	shr    dl,0x5
59ea:	0f b6 d2             	movzx  edx,dl
59ed:	8b 14 96             	mov    edx,DWORD PTR [rsi+rdx*4]
59f0:	0f a3 da             	bt     edx,ebx
59f3:	0f 82 4a 01 00 00    	jb     5b43 <quotearg_buffer_restyled+0x3a3>
59f9:	45 84 d2             	test   r10b,r10b
59fc:	0f 85 41 01 00 00    	jne    5b43 <quotearg_buffer_restyled+0x3a3>
5a02:	83 f0 01             	xor    eax,0x1
5a05:	48 83 c5 01          	add    rbp,0x1
5a09:	44 21 c0             	and    eax,r8d
5a0c:	84 c0                	test   al,al
5a0e:	74 20                	je     5a30 <quotearg_buffer_restyled+0x290>
5a10:	4d 39 fd             	cmp    r13,r15
5a13:	76 05                	jbe    5a1a <quotearg_buffer_restyled+0x27a>
5a15:	43 c6 04 3e 27       	mov    BYTE PTR [r14+r15*1],0x27
5a1a:	49 8d 47 01          	lea    rax,[r15+0x1]
5a1e:	49 39 c5             	cmp    r13,rax
5a21:	76 06                	jbe    5a29 <quotearg_buffer_restyled+0x289>
5a23:	43 c6 44 3e 01 27    	mov    BYTE PTR [r14+r15*1+0x1],0x27
5a29:	49 83 c7 02          	add    r15,0x2
5a2d:	45 31 c0             	xor    r8d,r8d
5a30:	4d 39 ef             	cmp    r15,r13
5a33:	73 04                	jae    5a39 <quotearg_buffer_restyled+0x299>
5a35:	43 88 1c 3e          	mov    BYTE PTR [r14+r15*1],bl
5a39:	0f b6 7c 24 0e       	movzx  edi,BYTE PTR [rsp+0xe]
5a3e:	49 83 c7 01          	add    r15,0x1
5a42:	b8 00 00 00 00       	mov    eax,0x0
5a47:	45 84 e4             	test   r12b,r12b
5a4a:	0f 44 f8             	cmove  edi,eax
5a4d:	40 88 7c 24 0e       	mov    BYTE PTR [rsp+0xe],dil
5a52:	e9 31 fe ff ff       	jmp    5888 <quotearg_buffer_restyled+0xe8>
5a57:	66 0f 1f 84 00 00 00 	nop    WORD PTR [rax+rax*1+0x0]
5a5e:	00 00
5a60:	45 31 d2             	xor    r10d,r10d
5a63:	8b 44 24 08          	mov    eax,DWORD PTR [rsp+0x8]
5a67:	83 f8 02             	cmp    eax,0x2
5a6a:	0f 84 b8 05 00 00    	je     6028 <quotearg_buffer_restyled+0x888>
5a70:	83 f8 05             	cmp    eax,0x5
5a73:	0f 84 6f 05 00 00    	je     5fe8 <quotearg_buffer_restyled+0x848>
5a79:	83 f8 02             	cmp    eax,0x2
5a7c:	bb 3f 00 00 00       	mov    ebx,0x3f
5a81:	0f 94 c2             	sete   dl
5a84:	45 31 e4             	xor    r12d,r12d
5a87:	31 c0                	xor    eax,eax
5a89:	e9 3a ff ff ff       	jmp    59c8 <quotearg_buffer_restyled+0x228>
5a8e:	66 90                	xchg   ax,ax
5a90:	45 31 d2             	xor    r10d,r10d
5a93:	83 7c 24 08 02       	cmp    DWORD PTR [rsp+0x8],0x2
5a98:	0f 84 02 05 00 00    	je     5fa0 <quotearg_buffer_restyled+0x800>
5a9e:	44 88 64 24 7c       	mov    BYTE PTR [rsp+0x7c],r12b
5aa3:	31 d2                	xor    edx,edx
5aa5:	31 c0                	xor    eax,eax
5aa7:	bb 27 00 00 00       	mov    ebx,0x27
5aac:	e9 17 ff ff ff       	jmp    59c8 <quotearg_buffer_restyled+0x228>
5ab1:	0f 1f 80 00 00 00 00 	nop    DWORD PTR [rax+0x0]
5ab8:	ba 09 00 00 00       	mov    edx,0x9
5abd:	bb 74 00 00 00       	mov    ebx,0x74
5ac2:	83 7c 24 08 02       	cmp    DWORD PTR [rsp+0x8],0x2
5ac7:	0f 94 c0             	sete   al
5aca:	22 44 24 0f          	and    al,BYTE PTR [rsp+0xf]
5ace:	0f 85 4a 01 00 00    	jne    5c1e <quotearg_buffer_restyled+0x47e>
5ad4:	80 7c 24 0d 00       	cmp    BYTE PTR [rsp+0xd],0x0
5ad9:	75 65                	jne    5b40 <quotearg_buffer_restyled+0x3a0>
5adb:	89 d3                	mov    ebx,edx
5add:	45 31 e4             	xor    r12d,r12d
5ae0:	31 c0                	xor    eax,eax
5ae2:	80 7c 24 0f 00       	cmp    BYTE PTR [rsp+0xf],0x0
5ae7:	0f 85 ee fe ff ff    	jne    59db <quotearg_buffer_restyled+0x23b>
5aed:	e9 07 ff ff ff       	jmp    59f9 <quotearg_buffer_restyled+0x259>
5af2:	66 0f 1f 44 00 00    	nop    WORD PTR [rax+rax*1+0x0]
5af8:	ba 08 00 00 00       	mov    edx,0x8
5afd:	bb 62 00 00 00       	mov    ebx,0x62
5b02:	eb d0                	jmp    5ad4 <quotearg_buffer_restyled+0x334>
5b04:	0f 1f 40 00          	nop    DWORD PTR [rax+0x0]
5b08:	83 7c 24 08 02       	cmp    DWORD PTR [rsp+0x8],0x2
5b0d:	0f 84 cd 03 00 00    	je     5ee0 <quotearg_buffer_restyled+0x740>
5b13:	80 7c 24 0d 00       	cmp    BYTE PTR [rsp+0xd],0x0
5b18:	0f 84 12 02 00 00    	je     5d30 <quotearg_buffer_restyled+0x590>
5b1e:	80 7c 24 0f 00       	cmp    BYTE PTR [rsp+0xf],0x0
5b23:	0f 84 07 02 00 00    	je     5d30 <quotearg_buffer_restyled+0x590>
5b29:	48 83 7c 24 18 00    	cmp    QWORD PTR [rsp+0x18],0x0
5b2f:	0f 85 b6 03 00 00    	jne    5eeb <quotearg_buffer_restyled+0x74b>
5b35:	bb 5c 00 00 00       	mov    ebx,0x5c
5b3a:	66 0f 1f 44 00 00    	nop    WORD PTR [rax+rax*1+0x0]
5b40:	45 31 e4             	xor    r12d,r12d
5b43:	83 7c 24 08 02       	cmp    DWORD PTR [rsp+0x8],0x2
5b48:	0f 94 c2             	sete   dl
5b4b:	80 7c 24 0f 00       	cmp    BYTE PTR [rsp+0xf],0x0
5b50:	89 d0                	mov    eax,edx
5b52:	0f 85 50 08 00 00    	jne    63a8 <quotearg_buffer_restyled+0xc08>
5b58:	44 89 c0             	mov    eax,r8d
5b5b:	83 f0 01             	xor    eax,0x1
5b5e:	20 d0                	and    al,dl
5b60:	74 2f                	je     5b91 <quotearg_buffer_restyled+0x3f1>
5b62:	4d 39 fd             	cmp    r13,r15
5b65:	76 05                	jbe    5b6c <quotearg_buffer_restyled+0x3cc>
5b67:	43 c6 04 3e 27       	mov    BYTE PTR [r14+r15*1],0x27
5b6c:	49 8d 57 01          	lea    rdx,[r15+0x1]
5b70:	49 39 d5             	cmp    r13,rdx
5b73:	76 06                	jbe    5b7b <quotearg_buffer_restyled+0x3db>
5b75:	43 c6 44 3e 01 24    	mov    BYTE PTR [r14+r15*1+0x1],0x24
5b7b:	49 8d 57 02          	lea    rdx,[r15+0x2]
5b7f:	49 39 d5             	cmp    r13,rdx
5b82:	76 06                	jbe    5b8a <quotearg_buffer_restyled+0x3ea>
5b84:	43 c6 44 3e 02 27    	mov    BYTE PTR [r14+r15*1+0x2],0x27
5b8a:	49 83 c7 03          	add    r15,0x3
5b8e:	41 89 c0             	mov    r8d,eax
5b91:	4d 39 fd             	cmp    r13,r15
5b94:	76 05                	jbe    5b9b <quotearg_buffer_restyled+0x3fb>
5b96:	43 c6 04 3e 5c       	mov    BYTE PTR [r14+r15*1],0x5c
5b9b:	49 83 c7 01          	add    r15,0x1
5b9f:	48 83 c5 01          	add    rbp,0x1
5ba3:	e9 88 fe ff ff       	jmp    5a30 <quotearg_buffer_restyled+0x290>
5ba8:	0f 1f 84 00 00 00 00 	nop    DWORD PTR [rax+rax*1+0x0]
5baf:	00
5bb0:	80 7c 24 0d 00       	cmp    BYTE PTR [rsp+0xd],0x0
5bb5:	0f 85 c8 01 00 00    	jne    5d83 <quotearg_buffer_restyled+0x5e3>
5bbb:	31 d2                	xor    edx,edx
5bbd:	f6 44 24 78 01       	test   BYTE PTR [rsp+0x78],0x1
5bc2:	0f 84 13 ff ff ff    	je     5adb <quotearg_buffer_restyled+0x33b>
5bc8:	48 83 c5 01          	add    rbp,0x1
5bcc:	e9 b7 fc ff ff       	jmp    5888 <quotearg_buffer_restyled+0xe8>
5bd1:	0f 1f 80 00 00 00 00 	nop    DWORD PTR [rax+0x0]
5bd8:	83 7c 24 08 02       	cmp    DWORD PTR [rsp+0x8],0x2
5bdd:	0f 94 c2             	sete   dl
5be0:	31 c0                	xor    eax,eax
5be2:	e9 e1 fd ff ff       	jmp    59c8 <quotearg_buffer_restyled+0x228>
5be7:	66 0f 1f 84 00 00 00 	nop    WORD PTR [rax+rax*1+0x0]
5bee:	00 00
5bf0:	ba 07 00 00 00       	mov    edx,0x7
5bf5:	bb 61 00 00 00       	mov    ebx,0x61
5bfa:	e9 d5 fe ff ff       	jmp    5ad4 <quotearg_buffer_restyled+0x334>
5bff:	90                   	nop
5c00:	83 7c 24 08 02       	cmp    DWORD PTR [rsp+0x8],0x2
5c05:	0f 94 c2             	sete   dl
5c08:	48 85 ed             	test   rbp,rbp
5c0b:	0f 85 ab fd ff ff    	jne    59bc <quotearg_buffer_restyled+0x21c>
5c11:	0f b6 44 24 0f       	movzx  eax,BYTE PTR [rsp+0xf]
5c16:	20 d0                	and    al,dl
5c18:	0f 84 aa fd ff ff    	je     59c8 <quotearg_buffer_restyled+0x228>
5c1e:	4c 89 dd             	mov    rbp,r11
5c21:	c7 44 24 08 02 00 00 	mov    DWORD PTR [rsp+0x8],0x2
5c28:	00
5c29:	e9 fb 06 00 00       	jmp    6329 <quotearg_buffer_restyled+0xb89>
5c2e:	66 90                	xchg   ax,ax
5c30:	83 7c 24 08 02       	cmp    DWORD PTR [rsp+0x8],0x2
5c35:	0f 94 c2             	sete   dl
5c38:	45 31 e4             	xor    r12d,r12d
5c3b:	eb d4                	jmp    5c11 <quotearg_buffer_restyled+0x471>
5c3d:	0f 1f 00             	nop    DWORD PTR [rax]
5c40:	83 7c 24 08 02       	cmp    DWORD PTR [rsp+0x8],0x2
5c45:	bb 20 00 00 00       	mov    ebx,0x20
5c4a:	0f 94 c2             	sete   dl
5c4d:	eb c2                	jmp    5c11 <quotearg_buffer_restyled+0x471>
5c4f:	90                   	nop
5c50:	ba 0d 00 00 00       	mov    edx,0xd
5c55:	bb 72 00 00 00       	mov    ebx,0x72
5c5a:	e9 63 fe ff ff       	jmp    5ac2 <quotearg_buffer_restyled+0x322>
5c5f:	90                   	nop
5c60:	ba 0c 00 00 00       	mov    edx,0xc
5c65:	bb 66 00 00 00       	mov    ebx,0x66
5c6a:	e9 65 fe ff ff       	jmp    5ad4 <quotearg_buffer_restyled+0x334>
5c6f:	90                   	nop
5c70:	ba 0b 00 00 00       	mov    edx,0xb
5c75:	bb 76 00 00 00       	mov    ebx,0x76
5c7a:	e9 55 fe ff ff       	jmp    5ad4 <quotearg_buffer_restyled+0x334>
5c7f:	90                   	nop
5c80:	ba 0a 00 00 00       	mov    edx,0xa
5c85:	bb 6e 00 00 00       	mov    ebx,0x6e
5c8a:	e9 33 fe ff ff       	jmp    5ac2 <quotearg_buffer_restyled+0x322>
5c8f:	90                   	nop
5c90:	45 31 d2             	xor    r10d,r10d
5c93:	0f 1f 44 00 00       	nop    DWORD PTR [rax+rax*1+0x0]
5c98:	48 83 7c 24 58 01    	cmp    QWORD PTR [rsp+0x58],0x1
5c9e:	0f 85 a4 03 00 00    	jne    6048 <quotearg_buffer_restyled+0x8a8>
5ca4:	4c 89 5c 24 38       	mov    QWORD PTR [rsp+0x38],r11
5ca9:	44 88 44 24 30       	mov    BYTE PTR [rsp+0x30],r8b
5cae:	44 88 54 24 28       	mov    BYTE PTR [rsp+0x28],r10b
5cb3:	e8 f8 c2 ff ff       	call   1fb0 <__ctype_b_loc@plt>
5cb8:	48 8b 08             	mov    rcx,QWORD PTR [rax]
5cbb:	0f b6 d3             	movzx  edx,bl
5cbe:	44 0f b6 54 24 28    	movzx  r10d,BYTE PTR [rsp+0x28]
5cc4:	44 0f b6 44 24 30    	movzx  r8d,BYTE PTR [rsp+0x30]
5cca:	4c 8b 5c 24 38       	mov    r11,QWORD PTR [rsp+0x38]
5ccf:	bf 01 00 00 00       	mov    edi,0x1
5cd4:	0f b7 04 51          	movzx  eax,WORD PTR [rcx+rdx*2]
5cd8:	66 25 00 40          	and    ax,0x4000
5cdc:	41 0f 95 c4          	setne  r12b
5ce0:	0f 94 c0             	sete   al
5ce3:	22 44 24 0d          	and    al,BYTE PTR [rsp+0xd]
5ce7:	84 c0                	test   al,al
5ce9:	0f 85 92 09 00 00    	jne    6681 <quotearg_buffer_restyled+0xee1>
5cef:	83 7c 24 08 02       	cmp    DWORD PTR [rsp+0x8],0x2
5cf4:	0f 94 c2             	sete   dl
5cf7:	e9 cc fc ff ff       	jmp    59c8 <quotearg_buffer_restyled+0x228>
5cfc:	0f 1f 40 00          	nop    DWORD PTR [rax+0x0]
5d00:	41 0f b6 19          	movzx  ebx,BYTE PTR [r9]
5d04:	80 fb 7e             	cmp    bl,0x7e
5d07:	77 87                	ja     5c90 <quotearg_buffer_restyled+0x4f0>
5d09:	48 8d 0d 98 41 00 00 	lea    rcx,[rip+0x4198]        # 9ea8 <multipliers.7397+0x2f0>
5d10:	0f b6 d3             	movzx  edx,bl
5d13:	48 63 04 91          	movsxd rax,DWORD PTR [rcx+rdx*4]
5d17:	48 01 c8             	add    rax,rcx
5d1a:	ff e0                	jmp    rax
5d1c:	0f 1f 40 00          	nop    DWORD PTR [rax+0x0]
5d20:	45 31 d2             	xor    r10d,r10d
5d23:	80 7c 24 0d 00       	cmp    BYTE PTR [rsp+0xd],0x0
5d28:	0f 85 f0 fd ff ff    	jne    5b1e <quotearg_buffer_restyled+0x37e>
5d2e:	66 90                	xchg   ax,ax
5d30:	ba 5c 00 00 00       	mov    edx,0x5c
5d35:	bb 5c 00 00 00       	mov    ebx,0x5c
5d3a:	e9 95 fd ff ff       	jmp    5ad4 <quotearg_buffer_restyled+0x334>
5d3f:	90                   	nop
5d40:	ba 0c 00 00 00       	mov    edx,0xc
5d45:	45 31 d2             	xor    r10d,r10d
5d48:	bb 66 00 00 00       	mov    ebx,0x66
5d4d:	e9 82 fd ff ff       	jmp    5ad4 <quotearg_buffer_restyled+0x334>
5d52:	66 0f 1f 44 00 00    	nop    WORD PTR [rax+rax*1+0x0]
5d58:	ba 0a 00 00 00       	mov    edx,0xa
5d5d:	45 31 d2             	xor    r10d,r10d
5d60:	bb 6e 00 00 00       	mov    ebx,0x6e
5d65:	e9 58 fd ff ff       	jmp    5ac2 <quotearg_buffer_restyled+0x322>
5d6a:	66 0f 1f 44 00 00    	nop    WORD PTR [rax+rax*1+0x0]
5d70:	bb 61 00 00 00       	mov    ebx,0x61
5d75:	e9 c6 fd ff ff       	jmp    5b40 <quotearg_buffer_restyled+0x3a0>
5d7a:	66 0f 1f 44 00 00    	nop    WORD PTR [rax+rax*1+0x0]
5d80:	45 31 d2             	xor    r10d,r10d
5d83:	83 7c 24 08 02       	cmp    DWORD PTR [rsp+0x8],0x2
5d88:	0f 94 c2             	sete   dl
5d8b:	80 7c 24 0f 00       	cmp    BYTE PTR [rsp+0xf],0x0
5d90:	0f 85 94 0b 00 00    	jne    692a <quotearg_buffer_restyled+0x118a>
5d96:	44 89 c0             	mov    eax,r8d
5d99:	4c 89 f9             	mov    rcx,r15
5d9c:	83 f0 01             	xor    eax,0x1
5d9f:	20 d0                	and    al,dl
5da1:	74 2d                	je     5dd0 <quotearg_buffer_restyled+0x630>
5da3:	4d 39 fd             	cmp    r13,r15
5da6:	76 05                	jbe    5dad <quotearg_buffer_restyled+0x60d>
5da8:	43 c6 04 3e 27       	mov    BYTE PTR [r14+r15*1],0x27
5dad:	49 8d 4f 01          	lea    rcx,[r15+0x1]
5db1:	49 39 cd             	cmp    r13,rcx
5db4:	76 06                	jbe    5dbc <quotearg_buffer_restyled+0x61c>
5db6:	43 c6 44 3e 01 24    	mov    BYTE PTR [r14+r15*1+0x1],0x24
5dbc:	49 8d 4f 02          	lea    rcx,[r15+0x2]
5dc0:	49 39 cd             	cmp    r13,rcx
5dc3:	0f 87 30 06 00 00    	ja     63f9 <quotearg_buffer_restyled+0xc59>
5dc9:	49 8d 4f 03          	lea    rcx,[r15+0x3]
5dcd:	41 89 c0             	mov    r8d,eax
5dd0:	49 39 cd             	cmp    r13,rcx
5dd3:	76 05                	jbe    5dda <quotearg_buffer_restyled+0x63a>
5dd5:	41 c6 04 0e 5c       	mov    BYTE PTR [r14+rcx*1],0x5c
5dda:	83 7c 24 08 02       	cmp    DWORD PTR [rsp+0x8],0x2
5ddf:	4c 8d 79 01          	lea    r15,[rcx+0x1]
5de3:	0f 84 00 06 00 00    	je     63e9 <quotearg_buffer_restyled+0xc49>
5de9:	48 8d 45 01          	lea    rax,[rbp+0x1]
5ded:	4c 39 d8             	cmp    rax,r11
5df0:	73 19                	jae    5e0b <quotearg_buffer_restyled+0x66b>
5df2:	48 8b 44 24 10       	mov    rax,QWORD PTR [rsp+0x10]
5df7:	0f b6 44 28 01       	movzx  eax,BYTE PTR [rax+rbp*1+0x1]
5dfc:	88 44 24 28          	mov    BYTE PTR [rsp+0x28],al
5e00:	83 e8 30             	sub    eax,0x30
5e03:	3c 09                	cmp    al,0x9
5e05:	0f 86 2e 08 00 00    	jbe    6639 <quotearg_buffer_restyled+0xe99>
5e0b:	44 89 e0             	mov    eax,r12d
5e0e:	bb 30 00 00 00       	mov    ebx,0x30
5e13:	45 31 e4             	xor    r12d,r12d
5e16:	e9 ad fb ff ff       	jmp    59c8 <quotearg_buffer_restyled+0x228>
5e1b:	0f 1f 44 00 00       	nop    DWORD PTR [rax+rax*1+0x0]
5e20:	83 7c 24 08 02       	cmp    DWORD PTR [rsp+0x8],0x2
5e25:	45 89 d4             	mov    r12d,r10d
5e28:	0f 94 c2             	sete   dl
5e2b:	45 31 d2             	xor    r10d,r10d
5e2e:	31 c0                	xor    eax,eax
5e30:	e9 93 fb ff ff       	jmp    59c8 <quotearg_buffer_restyled+0x228>
5e35:	0f 1f 00             	nop    DWORD PTR [rax]
5e38:	83 7c 24 08 02       	cmp    DWORD PTR [rsp+0x8],0x2
5e3d:	0f 94 c2             	sete   dl
5e40:	45 31 d2             	xor    r10d,r10d
5e43:	e9 c0 fd ff ff       	jmp    5c08 <quotearg_buffer_restyled+0x468>
5e48:	0f 1f 84 00 00 00 00 	nop    DWORD PTR [rax+rax*1+0x0]
5e4f:	00
5e50:	83 7c 24 08 02       	cmp    DWORD PTR [rsp+0x8],0x2
5e55:	0f 94 c2             	sete   dl
5e58:	45 31 d2             	xor    r10d,r10d
5e5b:	45 31 e4             	xor    r12d,r12d
5e5e:	e9 ae fd ff ff       	jmp    5c11 <quotearg_buffer_restyled+0x471>
5e63:	0f 1f 44 00 00       	nop    DWORD PTR [rax+rax*1+0x0]
5e68:	83 7c 24 08 02       	cmp    DWORD PTR [rsp+0x8],0x2
5e6d:	45 89 d4             	mov    r12d,r10d
5e70:	bb 20 00 00 00       	mov    ebx,0x20
5e75:	0f 94 c2             	sete   dl
5e78:	45 31 d2             	xor    r10d,r10d
5e7b:	e9 91 fd ff ff       	jmp    5c11 <quotearg_buffer_restyled+0x471>
5e80:	ba 0d 00 00 00       	mov    edx,0xd
5e85:	45 31 d2             	xor    r10d,r10d
5e88:	bb 72 00 00 00       	mov    ebx,0x72
5e8d:	e9 30 fc ff ff       	jmp    5ac2 <quotearg_buffer_restyled+0x322>
5e92:	66 0f 1f 44 00 00    	nop    WORD PTR [rax+rax*1+0x0]
5e98:	bb 76 00 00 00       	mov    ebx,0x76
5e9d:	e9 9e fc ff ff       	jmp    5b40 <quotearg_buffer_restyled+0x3a0>
5ea2:	66 0f 1f 44 00 00    	nop    WORD PTR [rax+rax*1+0x0]
5ea8:	ba 09 00 00 00       	mov    edx,0x9
5ead:	45 31 d2             	xor    r10d,r10d
5eb0:	bb 74 00 00 00       	mov    ebx,0x74
5eb5:	e9 08 fc ff ff       	jmp    5ac2 <quotearg_buffer_restyled+0x322>
5eba:	66 0f 1f 44 00 00    	nop    WORD PTR [rax+rax*1+0x0]
5ec0:	bb 62 00 00 00       	mov    ebx,0x62
5ec5:	e9 76 fc ff ff       	jmp    5b40 <quotearg_buffer_restyled+0x3a0>
5eca:	66 0f 1f 44 00 00    	nop    WORD PTR [rax+rax*1+0x0]
5ed0:	45 31 d2             	xor    r10d,r10d
5ed3:	e9 98 fa ff ff       	jmp    5970 <quotearg_buffer_restyled+0x1d0>
5ed8:	0f 1f 84 00 00 00 00 	nop    DWORD PTR [rax+rax*1+0x0]
5edf:	00
5ee0:	80 7c 24 0f 00       	cmp    BYTE PTR [rsp+0xf],0x0
5ee5:	0f 85 65 09 00 00    	jne    6850 <quotearg_buffer_restyled+0x10b0>
5eeb:	48 83 c5 01          	add    rbp,0x1
5eef:	44 89 c0             	mov    eax,r8d
5ef2:	45 31 e4             	xor    r12d,r12d
5ef5:	bb 5c 00 00 00       	mov    ebx,0x5c
5efa:	e9 0d fb ff ff       	jmp    5a0c <quotearg_buffer_restyled+0x26c>
5eff:	90                   	nop
5f00:	83 7c 24 08 02       	cmp    DWORD PTR [rsp+0x8],0x2
5f05:	0f b6 5c 24 0f       	movzx  ebx,BYTE PTR [rsp+0xf]
5f0a:	45 89 c4             	mov    r12d,r8d
5f0d:	4c 89 dd             	mov    rbp,r11
5f10:	0f 94 c2             	sete   dl
5f13:	89 d8                	mov    eax,ebx
5f15:	4d 85 ff             	test   r15,r15
5f18:	0f 94 c1             	sete   cl
5f1b:	21 d0                	and    eax,edx
5f1d:	20 c8                	and    al,cl
5f1f:	0f 85 61 0a 00 00    	jne    6986 <quotearg_buffer_restyled+0x11e6>
5f25:	89 d8                	mov    eax,ebx
5f27:	83 f0 01             	xor    eax,0x1
5f2a:	20 c2                	and    dl,al
5f2c:	0f 84 6a 09 00 00    	je     689c <quotearg_buffer_restyled+0x10fc>
5f32:	80 7c 24 7c 00       	cmp    BYTE PTR [rsp+0x7c],0x0
5f37:	0f 84 5d 09 00 00    	je     689a <quotearg_buffer_restyled+0x10fa>
5f3d:	80 7c 24 0e 00       	cmp    BYTE PTR [rsp+0xe],0x0
5f42:	0f 85 f5 09 00 00    	jne    693d <quotearg_buffer_restyled+0x119d>
5f48:	4d 85 ed             	test   r13,r13
5f4b:	0f 94 c0             	sete   al
5f4e:	48 83 7c 24 50 00    	cmp    QWORD PTR [rsp+0x50],0x0
5f54:	0f 95 c2             	setne  dl
5f57:	20 d0                	and    al,dl
5f59:	0f 84 1d 0a 00 00    	je     697c <quotearg_buffer_restyled+0x11dc>
5f5f:	4c 8b 6c 24 50       	mov    r13,QWORD PTR [rsp+0x50]
5f64:	48 8d 1d ba 3c 00 00 	lea    rbx,[rip+0x3cba]        # 9c25 <multipliers.7397+0x6d>
5f6b:	41 c6 06 27          	mov    BYTE PTR [r14],0x27
5f6f:	c7 44 24 08 02 00 00 	mov    DWORD PTR [rsp+0x8],0x2
5f76:	00
5f77:	41 bf 01 00 00 00    	mov    r15d,0x1
5f7d:	48 c7 44 24 18 01 00 	mov    QWORD PTR [rsp+0x18],0x1
5f84:	00 00
5f86:	c6 44 24 0f 00       	mov    BYTE PTR [rsp+0xf],0x0
5f8b:	48 89 5c 24 48       	mov    QWORD PTR [rsp+0x48],rbx
5f90:	88 44 24 7c          	mov    BYTE PTR [rsp+0x7c],al
5f94:	e9 da f8 ff ff       	jmp    5873 <quotearg_buffer_restyled+0xd3>
5f99:	0f 1f 80 00 00 00 00 	nop    DWORD PTR [rax+0x0]
5fa0:	80 7c 24 0f 00       	cmp    BYTE PTR [rsp+0xf],0x0
5fa5:	0f 85 a5 08 00 00    	jne    6850 <quotearg_buffer_restyled+0x10b0>
5fab:	4d 85 ed             	test   r13,r13
5fae:	0f 84 fc 03 00 00    	je     63b0 <quotearg_buffer_restyled+0xc10>
5fb4:	31 d2                	xor    edx,edx
5fb6:	48 83 7c 24 50 00    	cmp    QWORD PTR [rsp+0x50],0x0
5fbc:	0f 85 ee 03 00 00    	jne    63b0 <quotearg_buffer_restyled+0xc10>
5fc2:	4c 89 6c 24 50       	mov    QWORD PTR [rsp+0x50],r13
5fc7:	49 83 c7 03          	add    r15,0x3
5fcb:	31 c0                	xor    eax,eax
5fcd:	44 88 64 24 7c       	mov    BYTE PTR [rsp+0x7c],r12b
5fd2:	45 31 c0             	xor    r8d,r8d
5fd5:	49 89 d5             	mov    r13,rdx
5fd8:	bb 27 00 00 00       	mov    ebx,0x27
5fdd:	e9 17 fa ff ff       	jmp    59f9 <quotearg_buffer_restyled+0x259>
5fe2:	66 0f 1f 44 00 00    	nop    WORD PTR [rax+rax*1+0x0]
5fe8:	f6 44 24 78 04       	test   BYTE PTR [rsp+0x78],0x4
5fed:	74 21                	je     6010 <quotearg_buffer_restyled+0x870>
5fef:	48 8d 4d 02          	lea    rcx,[rbp+0x2]
5ff3:	4c 39 d9             	cmp    rcx,r11
5ff6:	73 18                	jae    6010 <quotearg_buffer_restyled+0x870>
5ff8:	48 8b 44 24 10       	mov    rax,QWORD PTR [rsp+0x10]
5ffd:	80 7c 28 01 3f       	cmp    BYTE PTR [rax+rbp*1+0x1],0x3f
6002:	0f 84 8a 07 00 00    	je     6792 <quotearg_buffer_restyled+0xff2>
6008:	0f 1f 84 00 00 00 00 	nop    DWORD PTR [rax+rax*1+0x0]
600f:	00
6010:	31 d2                	xor    edx,edx
6012:	45 31 e4             	xor    r12d,r12d
6015:	31 c0                	xor    eax,eax
6017:	bb 3f 00 00 00       	mov    ebx,0x3f
601c:	e9 a7 f9 ff ff       	jmp    59c8 <quotearg_buffer_restyled+0x228>
6021:	0f 1f 80 00 00 00 00 	nop    DWORD PTR [rax+0x0]
6028:	80 7c 24 0f 00       	cmp    BYTE PTR [rsp+0xf],0x0
602d:	0f 85 1d 08 00 00    	jne    6850 <quotearg_buffer_restyled+0x10b0>
6033:	45 31 e4             	xor    r12d,r12d
6036:	31 c0                	xor    eax,eax
6038:	bb 3f 00 00 00       	mov    ebx,0x3f
603d:	e9 b7 f9 ff ff       	jmp    59f9 <quotearg_buffer_restyled+0x259>
6042:	66 0f 1f 44 00 00    	nop    WORD PTR [rax+rax*1+0x0]
6048:	48 8d 84 24 a0 00 00 	lea    rax,[rsp+0xa0]
604f:	00
6050:	49 83 fb ff          	cmp    r11,0xffffffffffffffff
6054:	48 c7 84 24 a0 00 00 	mov    QWORD PTR [rsp+0xa0],0x0
605b:	00 00 00 00 00
6060:	48 89 44 24 28       	mov    QWORD PTR [rsp+0x28],rax
6065:	75 2d                	jne    6094 <quotearg_buffer_restyled+0x8f4>
6067:	48 8b 7c 24 10       	mov    rdi,QWORD PTR [rsp+0x10]
606c:	44 88 44 24 40       	mov    BYTE PTR [rsp+0x40],r8b
6071:	44 88 54 24 38       	mov    BYTE PTR [rsp+0x38],r10b
6076:	4c 89 4c 24 30       	mov    QWORD PTR [rsp+0x30],r9
607b:	e8 e0 bb ff ff       	call   1c60 <strlen@plt>
6080:	44 0f b6 44 24 40    	movzx  r8d,BYTE PTR [rsp+0x40]
6086:	44 0f b6 54 24 38    	movzx  r10d,BYTE PTR [rsp+0x38]
608c:	49 89 c3             	mov    r11,rax
608f:	4c 8b 4c 24 30       	mov    r9,QWORD PTR [rsp+0x30]
6094:	48 8d 84 24 9c 00 00 	lea    rax,[rsp+0x9c]
609b:	00
609c:	31 c9                	xor    ecx,ecx
609e:	88 5c 24 7e          	mov    BYTE PTR [rsp+0x7e],bl
60a2:	44 88 44 24 7d       	mov    BYTE PTR [rsp+0x7d],r8b
60a7:	48 89 cb             	mov    rbx,rcx
60aa:	4c 89 8c 24 88 00 00 	mov    QWORD PTR [rsp+0x88],r9
60b1:	00
60b2:	48 89 44 24 38       	mov    QWORD PTR [rsp+0x38],rax
60b7:	44 88 54 24 7f       	mov    BYTE PTR [rsp+0x7f],r10b
60bc:	4c 89 bc 24 80 00 00 	mov    QWORD PTR [rsp+0x80],r15
60c3:	00
60c4:	4c 89 74 24 40       	mov    QWORD PTR [rsp+0x40],r14
60c9:	4c 89 6c 24 70       	mov    QWORD PTR [rsp+0x70],r13
60ce:	4c 89 5c 24 30       	mov    QWORD PTR [rsp+0x30],r11
60d3:	48 8b 44 24 10       	mov    rax,QWORD PTR [rsp+0x10]
60d8:	4c 8d 74 1d 00       	lea    r14,[rbp+rbx*1+0x0]
60dd:	48 8b 54 24 30       	mov    rdx,QWORD PTR [rsp+0x30]
60e2:	48 8b 4c 24 28       	mov    rcx,QWORD PTR [rsp+0x28]
60e7:	48 8b 7c 24 38       	mov    rdi,QWORD PTR [rsp+0x38]
60ec:	4e 8d 2c 30          	lea    r13,[rax+r14*1]
60f0:	4c 29 f2             	sub    rdx,r14
60f3:	4c 89 ee             	mov    rsi,r13
60f6:	e8 65 22 00 00       	call   8360 <rpl_mbrtowc>
60fb:	48 85 c0             	test   rax,rax
60fe:	49 89 c7             	mov    r15,rax
6101:	74 4e                	je     6151 <quotearg_buffer_restyled+0x9b1>
6103:	48 83 f8 ff          	cmp    rax,0xffffffffffffffff
6107:	0f 84 18 06 00 00    	je     6725 <quotearg_buffer_restyled+0xf85>
610d:	48 83 f8 fe          	cmp    rax,0xfffffffffffffffe
6111:	0f 84 9a 05 00 00    	je     66b1 <quotearg_buffer_restyled+0xf11>
6117:	83 7c 24 08 02       	cmp    DWORD PTR [rsp+0x8],0x2
611c:	0f 94 c0             	sete   al
611f:	22 44 24 0f          	and    al,BYTE PTR [rsp+0xf]
6123:	0f 85 97 01 00 00    	jne    62c0 <quotearg_buffer_restyled+0xb20>
6129:	8b bc 24 9c 00 00 00 	mov    edi,DWORD PTR [rsp+0x9c]
6130:	e8 4b be ff ff       	call   1f80 <iswprint@plt>
6135:	48 8b 7c 24 28       	mov    rdi,QWORD PTR [rsp+0x28]
613a:	85 c0                	test   eax,eax
613c:	b8 00 00 00 00       	mov    eax,0x0
6141:	44 0f 44 e0          	cmove  r12d,eax
6145:	4c 01 fb             	add    rbx,r15
6148:	e8 13 be ff ff       	call   1f60 <mbsinit@plt>
614d:	85 c0                	test   eax,eax
614f:	74 82                	je     60d3 <quotearg_buffer_restyled+0x933>
6151:	44 89 e2             	mov    edx,r12d
6154:	48 89 df             	mov    rdi,rbx
6157:	44 0f b6 44 24 7d    	movzx  r8d,BYTE PTR [rsp+0x7d]
615d:	83 f2 01             	xor    edx,0x1
6160:	0f b6 5c 24 7e       	movzx  ebx,BYTE PTR [rsp+0x7e]
6165:	44 0f b6 54 24 7f    	movzx  r10d,BYTE PTR [rsp+0x7f]
616b:	22 54 24 0d          	and    dl,BYTE PTR [rsp+0xd]
616f:	4c 8b bc 24 80 00 00 	mov    r15,QWORD PTR [rsp+0x80]
6176:	00
6177:	4c 8b 74 24 40       	mov    r14,QWORD PTR [rsp+0x40]
617c:	4c 8b 6c 24 70       	mov    r13,QWORD PTR [rsp+0x70]
6181:	4c 8b 5c 24 30       	mov    r11,QWORD PTR [rsp+0x30]
6186:	48 83 ff 01          	cmp    rdi,0x1
618a:	0f 86 fb 05 00 00    	jbe    678b <quotearg_buffer_restyled+0xfeb>
6190:	48 89 f9             	mov    rcx,rdi
6193:	31 f6                	xor    esi,esi
6195:	44 0f b6 4c 24 0f    	movzx  r9d,BYTE PTR [rsp+0xf]
619b:	48 01 e9             	add    rcx,rbp
619e:	48 8b 7c 24 10       	mov    rdi,QWORD PTR [rsp+0x10]
61a3:	e9 b6 00 00 00       	jmp    625e <quotearg_buffer_restyled+0xabe>
61a8:	0f 1f 84 00 00 00 00 	nop    DWORD PTR [rax+rax*1+0x0]
61af:	00
61b0:	83 7c 24 08 02       	cmp    DWORD PTR [rsp+0x8],0x2
61b5:	0f 94 c0             	sete   al
61b8:	45 84 c9             	test   r9b,r9b
61bb:	0f 85 af 04 00 00    	jne    6670 <quotearg_buffer_restyled+0xed0>
61c1:	44 89 c6             	mov    esi,r8d
61c4:	83 f6 01             	xor    esi,0x1
61c7:	40 20 f0             	and    al,sil
61ca:	74 2f                	je     61fb <quotearg_buffer_restyled+0xa5b>
61cc:	4d 39 fd             	cmp    r13,r15
61cf:	76 05                	jbe    61d6 <quotearg_buffer_restyled+0xa36>
61d1:	43 c6 04 3e 27       	mov    BYTE PTR [r14+r15*1],0x27
61d6:	49 8d 77 01          	lea    rsi,[r15+0x1]
61da:	49 39 f5             	cmp    r13,rsi
61dd:	76 06                	jbe    61e5 <quotearg_buffer_restyled+0xa45>
61df:	43 c6 44 3e 01 24    	mov    BYTE PTR [r14+r15*1+0x1],0x24
61e5:	49 8d 77 02          	lea    rsi,[r15+0x2]
61e9:	49 39 f5             	cmp    r13,rsi
61ec:	76 06                	jbe    61f4 <quotearg_buffer_restyled+0xa54>
61ee:	43 c6 44 3e 02 27    	mov    BYTE PTR [r14+r15*1+0x2],0x27
61f4:	49 83 c7 03          	add    r15,0x3
61f8:	41 89 c0             	mov    r8d,eax
61fb:	4d 39 fd             	cmp    r13,r15
61fe:	76 05                	jbe    6205 <quotearg_buffer_restyled+0xa65>
6200:	43 c6 04 3e 5c       	mov    BYTE PTR [r14+r15*1],0x5c
6205:	49 8d 47 01          	lea    rax,[r15+0x1]
6209:	49 39 c5             	cmp    r13,rax
620c:	76 0d                	jbe    621b <quotearg_buffer_restyled+0xa7b>
620e:	89 d8                	mov    eax,ebx
6210:	c0 e8 06             	shr    al,0x6
6213:	83 c0 30             	add    eax,0x30
6216:	43 88 44 3e 01       	mov    BYTE PTR [r14+r15*1+0x1],al
621b:	49 8d 47 02          	lea    rax,[r15+0x2]
621f:	49 39 c5             	cmp    r13,rax
6222:	76 10                	jbe    6234 <quotearg_buffer_restyled+0xa94>
6224:	89 d8                	mov    eax,ebx
6226:	c0 e8 03             	shr    al,0x3
6229:	83 e0 07             	and    eax,0x7
622c:	83 c0 30             	add    eax,0x30
622f:	43 88 44 3e 02       	mov    BYTE PTR [r14+r15*1+0x2],al
6234:	83 e3 07             	and    ebx,0x7
6237:	48 83 c5 01          	add    rbp,0x1
623b:	49 83 c7 03          	add    r15,0x3
623f:	83 c3 30             	add    ebx,0x30
6242:	48 39 cd             	cmp    rbp,rcx
6245:	0f 83 e5 f7 ff ff    	jae    5a30 <quotearg_buffer_restyled+0x290>
624b:	89 d6                	mov    esi,edx
624d:	4d 39 fd             	cmp    r13,r15
6250:	76 04                	jbe    6256 <quotearg_buffer_restyled+0xab6>
6252:	43 88 1c 3e          	mov    BYTE PTR [r14+r15*1],bl
6256:	0f b6 1c 2f          	movzx  ebx,BYTE PTR [rdi+rbp*1]
625a:	49 83 c7 01          	add    r15,0x1
625e:	84 d2                	test   dl,dl
6260:	0f 85 4a ff ff ff    	jne    61b0 <quotearg_buffer_restyled+0xa10>
6266:	89 f0                	mov    eax,esi
6268:	83 f0 01             	xor    eax,0x1
626b:	44 21 c0             	and    eax,r8d
626e:	45 84 d2             	test   r10b,r10b
6271:	74 0e                	je     6281 <quotearg_buffer_restyled+0xae1>
6273:	4d 39 fd             	cmp    r13,r15
6276:	76 05                	jbe    627d <quotearg_buffer_restyled+0xadd>
6278:	43 c6 04 3e 5c       	mov    BYTE PTR [r14+r15*1],0x5c
627d:	49 83 c7 01          	add    r15,0x1
6281:	48 83 c5 01          	add    rbp,0x1
6285:	48 39 cd             	cmp    rbp,rcx
6288:	0f 83 7e f7 ff ff    	jae    5a0c <quotearg_buffer_restyled+0x26c>
628e:	84 c0                	test   al,al
6290:	0f 84 f8 03 00 00    	je     668e <quotearg_buffer_restyled+0xeee>
6296:	4d 39 fd             	cmp    r13,r15
6299:	76 05                	jbe    62a0 <quotearg_buffer_restyled+0xb00>
629b:	43 c6 04 3e 27       	mov    BYTE PTR [r14+r15*1],0x27
62a0:	49 8d 47 01          	lea    rax,[r15+0x1]
62a4:	49 39 c5             	cmp    r13,rax
62a7:	76 06                	jbe    62af <quotearg_buffer_restyled+0xb0f>
62a9:	43 c6 44 3e 01 27    	mov    BYTE PTR [r14+r15*1+0x1],0x27
62af:	49 83 c7 02          	add    r15,0x2
62b3:	45 31 d2             	xor    r10d,r10d
62b6:	45 31 c0             	xor    r8d,r8d
62b9:	eb 92                	jmp    624d <quotearg_buffer_restyled+0xaad>
62bb:	0f 1f 44 00 00       	nop    DWORD PTR [rax+rax*1+0x0]
62c0:	49 83 ff 01          	cmp    r15,0x1
62c4:	0f 84 5f fe ff ff    	je     6129 <quotearg_buffer_restyled+0x989>
62ca:	48 8b 7c 24 10       	mov    rdi,QWORD PTR [rsp+0x10]
62cf:	4a 8d 0c 3f          	lea    rcx,[rdi+r15*1]
62d3:	4a 8d 54 37 01       	lea    rdx,[rdi+r14*1+0x1]
62d8:	4e 8d 04 31          	lea    r8,[rcx+r14*1]
62dc:	eb 0f                	jmp    62ed <quotearg_buffer_restyled+0xb4d>
62de:	66 90                	xchg   ax,ax
62e0:	48 83 c2 01          	add    rdx,0x1
62e4:	49 39 d0             	cmp    r8,rdx
62e7:	0f 84 3c fe ff ff    	je     6129 <quotearg_buffer_restyled+0x989>
62ed:	0f b6 0a             	movzx  ecx,BYTE PTR [rdx]
62f0:	83 e9 5b             	sub    ecx,0x5b
62f3:	80 f9 21             	cmp    cl,0x21
62f6:	77 e8                	ja     62e0 <quotearg_buffer_restyled+0xb40>
62f8:	be 01 00 00 00       	mov    esi,0x1
62fd:	48 d3 e6             	shl    rsi,cl
6300:	48 89 f1             	mov    rcx,rsi
6303:	48 be 2b 00 00 00 02 	movabs rsi,0x20000002b
630a:	00 00 00
630d:	48 85 f1             	test   rcx,rsi
6310:	74 ce                	je     62e0 <quotearg_buffer_restyled+0xb40>
6312:	4c 8b 74 24 40       	mov    r14,QWORD PTR [rsp+0x40]
6317:	4c 8b 6c 24 70       	mov    r13,QWORD PTR [rsp+0x70]
631c:	48 8b 6c 24 30       	mov    rbp,QWORD PTR [rsp+0x30]
6321:	c7 44 24 08 02 00 00 	mov    DWORD PTR [rsp+0x8],0x2
6328:	00
6329:	80 7c 24 0d 00       	cmp    BYTE PTR [rsp+0xd],0x0
632e:	74 10                	je     6340 <quotearg_buffer_restyled+0xba0>
6330:	84 c0                	test   al,al
6332:	b8 04 00 00 00       	mov    eax,0x4
6337:	0f 44 44 24 08       	cmove  eax,DWORD PTR [rsp+0x8]
633c:	89 44 24 08          	mov    DWORD PTR [rsp+0x8],eax
6340:	48 83 ec 08          	sub    rsp,0x8
6344:	48 89 e9             	mov    rcx,rbp
6347:	4c 89 ee             	mov    rsi,r13
634a:	ff 74 24 68          	push   QWORD PTR [rsp+0x68]
634e:	ff 74 24 78          	push   QWORD PTR [rsp+0x78]
6352:	4c 89 f7             	mov    rdi,r14
6355:	6a 00                	push   0x0
6357:	44 8b 8c 24 98 00 00 	mov    r9d,DWORD PTR [rsp+0x98]
635e:	00
635f:	44 8b 44 24 28       	mov    r8d,DWORD PTR [rsp+0x28]
6364:	48 8b 54 24 30       	mov    rdx,QWORD PTR [rsp+0x30]
6369:	41 83 e1 fd          	and    r9d,0xfffffffd
636d:	e8 2e f4 ff ff       	call   57a0 <quotearg_buffer_restyled>
6372:	48 83 c4 20          	add    rsp,0x20
6376:	49 89 c7             	mov    r15,rax
6379:	48 8b 9c 24 a8 00 00 	mov    rbx,QWORD PTR [rsp+0xa8]
6380:	00
6381:	64 48 33 1c 25 28 00 	xor    rbx,QWORD PTR fs:0x28
6388:	00 00
638a:	4c 89 f8             	mov    rax,r15
638d:	0f 85 00 06 00 00    	jne    6993 <quotearg_buffer_restyled+0x11f3>
6393:	48 81 c4 b8 00 00 00 	add    rsp,0xb8
639a:	5b                   	pop    rbx
639b:	5d                   	pop    rbp
639c:	41 5c                	pop    r12
639e:	41 5d                	pop    r13
63a0:	41 5e                	pop    r14
63a2:	41 5f                	pop    r15
63a4:	c3                   	ret
63a5:	0f 1f 00             	nop    DWORD PTR [rax]
63a8:	4c 89 dd             	mov    rbp,r11
63ab:	e9 79 ff ff ff       	jmp    6329 <quotearg_buffer_restyled+0xb89>
63b0:	4d 39 fd             	cmp    r13,r15
63b3:	76 05                	jbe    63ba <quotearg_buffer_restyled+0xc1a>
63b5:	43 c6 04 3e 27       	mov    BYTE PTR [r14+r15*1],0x27
63ba:	49 8d 47 01          	lea    rax,[r15+0x1]
63be:	49 39 c5             	cmp    r13,rax
63c1:	76 06                	jbe    63c9 <quotearg_buffer_restyled+0xc29>
63c3:	43 c6 44 3e 01 5c    	mov    BYTE PTR [r14+r15*1+0x1],0x5c
63c9:	49 8d 47 02          	lea    rax,[r15+0x2]
63cd:	49 39 c5             	cmp    r13,rax
63d0:	0f 86 ec 05 00 00    	jbe    69c2 <quotearg_buffer_restyled+0x1222>
63d6:	4c 89 ea             	mov    rdx,r13
63d9:	43 c6 44 3e 02 27    	mov    BYTE PTR [r14+r15*1+0x2],0x27
63df:	4c 8b 6c 24 50       	mov    r13,QWORD PTR [rsp+0x50]
63e4:	e9 d9 fb ff ff       	jmp    5fc2 <quotearg_buffer_restyled+0x822>
63e9:	44 89 e0             	mov    eax,r12d
63ec:	bb 30 00 00 00       	mov    ebx,0x30
63f1:	45 31 e4             	xor    r12d,r12d
63f4:	e9 00 f6 ff ff       	jmp    59f9 <quotearg_buffer_restyled+0x259>
63f9:	43 c6 44 3e 02 27    	mov    BYTE PTR [r14+r15*1+0x2],0x27
63ff:	e9 c5 f9 ff ff       	jmp    5dc9 <quotearg_buffer_restyled+0x629>
6404:	85 db                	test   ebx,ebx
6406:	0f 85 27 f4 ff ff    	jne    5833 <quotearg_buffer_restyled+0x93>
640c:	c6 44 24 0d 01       	mov    BYTE PTR [rsp+0xd],0x1
6411:	4d 85 ed             	test   r13,r13
6414:	0f 85 90 05 00 00    	jne    69aa <quotearg_buffer_restyled+0x120a>
641a:	48 8d 05 04 38 00 00 	lea    rax,[rip+0x3804]        # 9c25 <multipliers.7397+0x6d>
6421:	48 c7 44 24 50 00 00 	mov    QWORD PTR [rsp+0x50],0x0
6428:	00 00
642a:	c6 44 24 0e 01       	mov    BYTE PTR [rsp+0xe],0x1
642f:	c6 44 24 7c 00       	mov    BYTE PTR [rsp+0x7c],0x0
6434:	45 31 e4             	xor    r12d,r12d
6437:	c6 44 24 0f 00       	mov    BYTE PTR [rsp+0xf],0x0
643c:	48 c7 44 24 18 01 00 	mov    QWORD PTR [rsp+0x18],0x1
6443:	00 00
6445:	48 89 44 24 48       	mov    QWORD PTR [rsp+0x48],rax
644a:	41 bf 01 00 00 00    	mov    r15d,0x1
6450:	c7 44 24 08 02 00 00 	mov    DWORD PTR [rsp+0x8],0x2
6457:	00
6458:	e9 16 f4 ff ff       	jmp    5873 <quotearg_buffer_restyled+0xd3>
645d:	0f 1f 00             	nop    DWORD PTR [rax]
6460:	85 db                	test   ebx,ebx
6462:	0f 85 f5 03 00 00    	jne    685d <quotearg_buffer_restyled+0x10bd>
6468:	4d 85 ed             	test   r13,r13
646b:	0f 84 25 02 00 00    	je     6696 <quotearg_buffer_restyled+0xef6>
6471:	41 c6 06 22          	mov    BYTE PTR [r14],0x22
6475:	c6 44 24 0e 01       	mov    BYTE PTR [rsp+0xe],0x1
647a:	45 31 e4             	xor    r12d,r12d
647d:	c6 44 24 7c 00       	mov    BYTE PTR [rsp+0x7c],0x0
6482:	48 c7 44 24 50 00 00 	mov    QWORD PTR [rsp+0x50],0x0
6489:	00 00
648b:	48 8d 05 91 37 00 00 	lea    rax,[rip+0x3791]        # 9c23 <multipliers.7397+0x6b>
6492:	c6 44 24 0f 00       	mov    BYTE PTR [rsp+0xf],0x0
6497:	c6 44 24 0d 01       	mov    BYTE PTR [rsp+0xd],0x1
649c:	48 c7 44 24 18 01 00 	mov    QWORD PTR [rsp+0x18],0x1
64a3:	00 00
64a5:	41 bf 01 00 00 00    	mov    r15d,0x1
64ab:	48 89 44 24 48       	mov    QWORD PTR [rsp+0x48],rax
64b0:	e9 be f3 ff ff       	jmp    5873 <quotearg_buffer_restyled+0xd3>
64b5:	48 8d 05 67 37 00 00 	lea    rax,[rip+0x3767]        # 9c23 <multipliers.7397+0x6b>
64bc:	c6 44 24 0e 01       	mov    BYTE PTR [rsp+0xe],0x1
64c1:	c6 44 24 7c 00       	mov    BYTE PTR [rsp+0x7c],0x0
64c6:	45 31 e4             	xor    r12d,r12d
64c9:	48 c7 44 24 50 00 00 	mov    QWORD PTR [rsp+0x50],0x0
64d0:	00 00
64d2:	c6 44 24 0f 01       	mov    BYTE PTR [rsp+0xf],0x1
64d7:	c6 44 24 0d 01       	mov    BYTE PTR [rsp+0xd],0x1
64dc:	48 c7 44 24 18 01 00 	mov    QWORD PTR [rsp+0x18],0x1
64e3:	00 00
64e5:	45 31 ff             	xor    r15d,r15d
64e8:	48 89 44 24 48       	mov    QWORD PTR [rsp+0x48],rax
64ed:	c7 44 24 08 05 00 00 	mov    DWORD PTR [rsp+0x8],0x5
64f4:	00
64f5:	e9 79 f3 ff ff       	jmp    5873 <quotearg_buffer_restyled+0xd3>
64fa:	c6 44 24 0e 01       	mov    BYTE PTR [rsp+0xe],0x1
64ff:	c6 44 24 7c 00       	mov    BYTE PTR [rsp+0x7c],0x0
6504:	45 31 e4             	xor    r12d,r12d
6507:	48 c7 44 24 50 00 00 	mov    QWORD PTR [rsp+0x50],0x0
650e:	00 00
6510:	c6 44 24 0f 00       	mov    BYTE PTR [rsp+0xf],0x0
6515:	45 31 ff             	xor    r15d,r15d
6518:	c6 44 24 0d 01       	mov    BYTE PTR [rsp+0xd],0x1
651d:	48 c7 44 24 18 00 00 	mov    QWORD PTR [rsp+0x18],0x0
6524:	00 00
6526:	48 c7 44 24 48 00 00 	mov    QWORD PTR [rsp+0x48],0x0
652d:	00 00
652f:	e9 3f f3 ff ff       	jmp    5873 <quotearg_buffer_restyled+0xd3>
6534:	83 7c 24 08 0a       	cmp    DWORD PTR [rsp+0x8],0xa
6539:	74 56                	je     6591 <quotearg_buffer_restyled+0xdf1>
653b:	48 8d 35 e5 36 00 00 	lea    rsi,[rip+0x36e5]        # 9c27 <multipliers.7397+0x6f>
6542:	31 ff                	xor    edi,edi
6544:	ba 05 00 00 00       	mov    edx,0x5
6549:	e8 f2 b6 ff ff       	call   1c40 <dcgettext@plt>
654e:	48 89 c1             	mov    rcx,rax
6551:	48 89 44 24 68       	mov    QWORD PTR [rsp+0x68],rax
6556:	48 8d 05 ca 36 00 00 	lea    rax,[rip+0x36ca]        # 9c27 <multipliers.7397+0x6f>
655d:	48 39 c1             	cmp    rcx,rax
6560:	0f 84 98 03 00 00    	je     68fe <quotearg_buffer_restyled+0x115e>
6566:	48 8d 35 b8 36 00 00 	lea    rsi,[rip+0x36b8]        # 9c25 <multipliers.7397+0x6d>
656d:	31 ff                	xor    edi,edi
656f:	ba 05 00 00 00       	mov    edx,0x5
6574:	e8 c7 b6 ff ff       	call   1c40 <dcgettext@plt>
6579:	48 89 c1             	mov    rcx,rax
657c:	48 89 44 24 60       	mov    QWORD PTR [rsp+0x60],rax
6581:	48 8d 05 9d 36 00 00 	lea    rax,[rip+0x369d]        # 9c25 <multipliers.7397+0x6d>
6588:	48 39 c1             	cmp    rcx,rax
658b:	0f 84 83 03 00 00    	je     6914 <quotearg_buffer_restyled+0x1174>
6591:	45 31 ff             	xor    r15d,r15d
6594:	85 db                	test   ebx,ebx
6596:	0f 84 c1 01 00 00    	je     675d <quotearg_buffer_restyled+0xfbd>
659c:	85 db                	test   ebx,ebx
659e:	48 8b 5c 24 60       	mov    rbx,QWORD PTR [rsp+0x60]
65a3:	0f 95 44 24 0f       	setne  BYTE PTR [rsp+0xf]
65a8:	45 31 e4             	xor    r12d,r12d
65ab:	48 89 df             	mov    rdi,rbx
65ae:	e8 ad b6 ff ff       	call   1c60 <strlen@plt>
65b3:	48 89 5c 24 48       	mov    QWORD PTR [rsp+0x48],rbx
65b8:	48 89 44 24 18       	mov    QWORD PTR [rsp+0x18],rax
65bd:	c6 44 24 0e 01       	mov    BYTE PTR [rsp+0xe],0x1
65c2:	c6 44 24 7c 00       	mov    BYTE PTR [rsp+0x7c],0x0
65c7:	48 c7 44 24 50 00 00 	mov    QWORD PTR [rsp+0x50],0x0
65ce:	00 00
65d0:	c6 44 24 0d 01       	mov    BYTE PTR [rsp+0xd],0x1
65d5:	e9 99 f2 ff ff       	jmp    5873 <quotearg_buffer_restyled+0xd3>
65da:	c6 44 24 0e 01       	mov    BYTE PTR [rsp+0xe],0x1
65df:	c6 44 24 7c 00       	mov    BYTE PTR [rsp+0x7c],0x0
65e4:	45 31 e4             	xor    r12d,r12d
65e7:	48 c7 44 24 50 00 00 	mov    QWORD PTR [rsp+0x50],0x0
65ee:	00 00
65f0:	c6 44 24 0f 00       	mov    BYTE PTR [rsp+0xf],0x0
65f5:	45 31 ff             	xor    r15d,r15d
65f8:	c6 44 24 0d 00       	mov    BYTE PTR [rsp+0xd],0x0
65fd:	48 c7 44 24 18 00 00 	mov    QWORD PTR [rsp+0x18],0x0
6604:	00 00
6606:	48 c7 44 24 48 00 00 	mov    QWORD PTR [rsp+0x48],0x0
660d:	00 00
660f:	e9 5f f2 ff ff       	jmp    5873 <quotearg_buffer_restyled+0xd3>
6614:	c6 44 24 0e 01       	mov    BYTE PTR [rsp+0xe],0x1
6619:	c6 44 24 7c 00       	mov    BYTE PTR [rsp+0x7c],0x0
661e:	45 31 e4             	xor    r12d,r12d
6621:	48 c7 44 24 50 00 00 	mov    QWORD PTR [rsp+0x50],0x0
6628:	00 00
662a:	c6 44 24 0f 01       	mov    BYTE PTR [rsp+0xf],0x1
662f:	c6 44 24 0d 01       	mov    BYTE PTR [rsp+0xd],0x1
6634:	e9 1a f2 ff ff       	jmp    5853 <quotearg_buffer_restyled+0xb3>
6639:	4d 39 fd             	cmp    r13,r15
663c:	76 05                	jbe    6643 <quotearg_buffer_restyled+0xea3>
663e:	43 c6 04 3e 30       	mov    BYTE PTR [r14+r15*1],0x30
6643:	48 8d 41 02          	lea    rax,[rcx+0x2]
6647:	49 39 c5             	cmp    r13,rax
664a:	76 06                	jbe    6652 <quotearg_buffer_restyled+0xeb2>
664c:	41 c6 44 0e 02 30    	mov    BYTE PTR [r14+rcx*1+0x2],0x30
6652:	44 89 e0             	mov    eax,r12d
6655:	4c 8d 79 03          	lea    r15,[rcx+0x3]
6659:	45 31 e4             	xor    r12d,r12d
665c:	bb 30 00 00 00       	mov    ebx,0x30
6661:	e9 62 f3 ff ff       	jmp    59c8 <quotearg_buffer_restyled+0x228>
6666:	66 2e 0f 1f 84 00 00 	nop    WORD PTR cs:[rax+rax*1+0x0]
666d:	00 00 00
6670:	0f b6 5c 24 0f       	movzx  ebx,BYTE PTR [rsp+0xf]
6675:	4c 89 dd             	mov    rbp,r11
6678:	88 5c 24 0d          	mov    BYTE PTR [rsp+0xd],bl
667c:	e9 a8 fc ff ff       	jmp    6329 <quotearg_buffer_restyled+0xb89>
6681:	0f b6 54 24 0d       	movzx  edx,BYTE PTR [rsp+0xd]
6686:	45 31 e4             	xor    r12d,r12d
6689:	e9 02 fb ff ff       	jmp    6190 <quotearg_buffer_restyled+0x9f0>
668e:	45 31 d2             	xor    r10d,r10d
6691:	e9 b7 fb ff ff       	jmp    624d <quotearg_buffer_restyled+0xaad>
6696:	48 c7 44 24 50 00 00 	mov    QWORD PTR [rsp+0x50],0x0
669d:	00 00
669f:	c6 44 24 0e 01       	mov    BYTE PTR [rsp+0xe],0x1
66a4:	45 31 e4             	xor    r12d,r12d
66a7:	c6 44 24 7c 00       	mov    BYTE PTR [rsp+0x7c],0x0
66ac:	e9 da fd ff ff       	jmp    648b <quotearg_buffer_restyled+0xceb>
66b1:	4c 8b 5c 24 30       	mov    r11,QWORD PTR [rsp+0x30]
66b6:	4c 89 f6             	mov    rsi,r14
66b9:	4c 89 e9             	mov    rcx,r13
66bc:	48 89 d8             	mov    rax,rbx
66bf:	48 89 df             	mov    rdi,rbx
66c2:	44 0f b6 44 24 7d    	movzx  r8d,BYTE PTR [rsp+0x7d]
66c8:	0f b6 5c 24 7e       	movzx  ebx,BYTE PTR [rsp+0x7e]
66cd:	4c 8b 8c 24 88 00 00 	mov    r9,QWORD PTR [rsp+0x88]
66d4:	00
66d5:	4c 39 de             	cmp    rsi,r11
66d8:	44 0f b6 54 24 7f    	movzx  r10d,BYTE PTR [rsp+0x7f]
66de:	4c 8b bc 24 80 00 00 	mov    r15,QWORD PTR [rsp+0x80]
66e5:	00
66e6:	4c 8b 74 24 40       	mov    r14,QWORD PTR [rsp+0x40]
66eb:	4c 8b 6c 24 70       	mov    r13,QWORD PTR [rsp+0x70]
66f0:	73 26                	jae    6718 <quotearg_buffer_restyled+0xf78>
66f2:	80 39 00             	cmp    BYTE PTR [rcx],0x0
66f5:	75 10                	jne    6707 <quotearg_buffer_restyled+0xf67>
66f7:	eb 1f                	jmp    6718 <quotearg_buffer_restyled+0xf78>
66f9:	0f 1f 80 00 00 00 00 	nop    DWORD PTR [rax+0x0]
6700:	41 80 3c 01 00       	cmp    BYTE PTR [r9+rax*1],0x0
6705:	74 0e                	je     6715 <quotearg_buffer_restyled+0xf75>
6707:	48 83 c0 01          	add    rax,0x1
670b:	48 8d 54 05 00       	lea    rdx,[rbp+rax*1+0x0]
6710:	49 39 d3             	cmp    r11,rdx
6713:	77 eb                	ja     6700 <quotearg_buffer_restyled+0xf60>
6715:	48 89 c7             	mov    rdi,rax
6718:	0f b6 54 24 0d       	movzx  edx,BYTE PTR [rsp+0xd]
671d:	45 31 e4             	xor    r12d,r12d
6720:	e9 61 fa ff ff       	jmp    6186 <quotearg_buffer_restyled+0x9e6>
6725:	48 89 df             	mov    rdi,rbx
6728:	44 0f b6 44 24 7d    	movzx  r8d,BYTE PTR [rsp+0x7d]
672e:	0f b6 5c 24 7e       	movzx  ebx,BYTE PTR [rsp+0x7e]
6733:	44 0f b6 54 24 7f    	movzx  r10d,BYTE PTR [rsp+0x7f]
6739:	4c 8b bc 24 80 00 00 	mov    r15,QWORD PTR [rsp+0x80]
6740:	00
6741:	45 31 e4             	xor    r12d,r12d
6744:	4c 8b 74 24 40       	mov    r14,QWORD PTR [rsp+0x40]
6749:	4c 8b 6c 24 70       	mov    r13,QWORD PTR [rsp+0x70]
674e:	4c 8b 5c 24 30       	mov    r11,QWORD PTR [rsp+0x30]
6753:	0f b6 54 24 0d       	movzx  edx,BYTE PTR [rsp+0xd]
6758:	e9 29 fa ff ff       	jmp    6186 <quotearg_buffer_restyled+0x9e6>
675d:	48 8b 54 24 68       	mov    rdx,QWORD PTR [rsp+0x68]
6762:	0f b6 02             	movzx  eax,BYTE PTR [rdx]
6765:	84 c0                	test   al,al
6767:	0f 84 2f fe ff ff    	je     659c <quotearg_buffer_restyled+0xdfc>
676d:	0f 1f 00             	nop    DWORD PTR [rax]
6770:	4d 39 fd             	cmp    r13,r15
6773:	76 04                	jbe    6779 <quotearg_buffer_restyled+0xfd9>
6775:	43 88 04 3e          	mov    BYTE PTR [r14+r15*1],al
6779:	49 83 c7 01          	add    r15,0x1
677d:	42 0f b6 04 3a       	movzx  eax,BYTE PTR [rdx+r15*1]
6782:	84 c0                	test   al,al
6784:	75 ea                	jne    6770 <quotearg_buffer_restyled+0xfd0>
6786:	e9 11 fe ff ff       	jmp    659c <quotearg_buffer_restyled+0xdfc>
678b:	89 d0                	mov    eax,edx
678d:	e9 55 f5 ff ff       	jmp    5ce7 <quotearg_buffer_restyled+0x547>
6792:	0f b6 1c 08          	movzx  ebx,BYTE PTR [rax+rcx*1]
6796:	80 fb 3e             	cmp    bl,0x3e
6799:	0f 87 71 f8 ff ff    	ja     6010 <quotearg_buffer_restyled+0x870>
679f:	48 b8 00 00 00 00 82 	movabs rax,0x7000a38200000000
67a6:	a3 00 70
67a9:	48 0f a3 d8          	bt     rax,rbx
67ad:	0f 83 5d f8 ff ff    	jae    6010 <quotearg_buffer_restyled+0x870>
67b3:	80 7c 24 0f 00       	cmp    BYTE PTR [rsp+0xf],0x0
67b8:	0f 85 e4 01 00 00    	jne    69a2 <quotearg_buffer_restyled+0x1202>
67be:	4d 39 fd             	cmp    r13,r15
67c1:	76 05                	jbe    67c8 <quotearg_buffer_restyled+0x1028>
67c3:	43 c6 04 3e 3f       	mov    BYTE PTR [r14+r15*1],0x3f
67c8:	49 8d 47 01          	lea    rax,[r15+0x1]
67cc:	49 39 c5             	cmp    r13,rax
67cf:	76 06                	jbe    67d7 <quotearg_buffer_restyled+0x1037>
67d1:	43 c6 44 3e 01 22    	mov    BYTE PTR [r14+r15*1+0x1],0x22
67d7:	49 8d 47 02          	lea    rax,[r15+0x2]
67db:	49 39 c5             	cmp    r13,rax
67de:	76 06                	jbe    67e6 <quotearg_buffer_restyled+0x1046>
67e0:	43 c6 44 3e 02 22    	mov    BYTE PTR [r14+r15*1+0x2],0x22
67e6:	49 8d 47 03          	lea    rax,[r15+0x3]
67ea:	49 39 c5             	cmp    r13,rax
67ed:	76 06                	jbe    67f5 <quotearg_buffer_restyled+0x1055>
67ef:	43 c6 44 3e 03 3f    	mov    BYTE PTR [r14+r15*1+0x3],0x3f
67f5:	49 83 c7 04          	add    r15,0x4
67f9:	31 d2                	xor    edx,edx
67fb:	45 31 e4             	xor    r12d,r12d
67fe:	31 c0                	xor    eax,eax
6800:	48 89 cd             	mov    rbp,rcx
6803:	e9 c0 f1 ff ff       	jmp    59c8 <quotearg_buffer_restyled+0x228>
6808:	85 db                	test   ebx,ebx
680a:	0f 84 88 01 00 00    	je     6998 <quotearg_buffer_restyled+0x11f8>
6810:	48 8d 05 0e 34 00 00 	lea    rax,[rip+0x340e]        # 9c25 <multipliers.7397+0x6d>
6817:	c6 44 24 0e 01       	mov    BYTE PTR [rsp+0xe],0x1
681c:	c6 44 24 7c 00       	mov    BYTE PTR [rsp+0x7c],0x0
6821:	45 31 e4             	xor    r12d,r12d
6824:	48 c7 44 24 50 00 00 	mov    QWORD PTR [rsp+0x50],0x0
682b:	00 00
682d:	c6 44 24 0f 01       	mov    BYTE PTR [rsp+0xf],0x1
6832:	c6 44 24 0d 00       	mov    BYTE PTR [rsp+0xd],0x0
6837:	48 c7 44 24 18 01 00 	mov    QWORD PTR [rsp+0x18],0x1
683e:	00 00
6840:	45 31 ff             	xor    r15d,r15d
6843:	48 89 44 24 48       	mov    QWORD PTR [rsp+0x48],rax
6848:	e9 26 f0 ff ff       	jmp    5873 <quotearg_buffer_restyled+0xd3>
684d:	0f 1f 00             	nop    DWORD PTR [rax]
6850:	4c 89 dd             	mov    rbp,r11
6853:	0f b6 44 24 0f       	movzx  eax,BYTE PTR [rsp+0xf]
6858:	e9 cc fa ff ff       	jmp    6329 <quotearg_buffer_restyled+0xb89>
685d:	48 8d 05 bf 33 00 00 	lea    rax,[rip+0x33bf]        # 9c23 <multipliers.7397+0x6b>
6864:	c6 44 24 0e 01       	mov    BYTE PTR [rsp+0xe],0x1
6869:	c6 44 24 7c 00       	mov    BYTE PTR [rsp+0x7c],0x0
686e:	45 31 e4             	xor    r12d,r12d
6871:	48 c7 44 24 50 00 00 	mov    QWORD PTR [rsp+0x50],0x0
6878:	00 00
687a:	c6 44 24 0f 01       	mov    BYTE PTR [rsp+0xf],0x1
687f:	c6 44 24 0d 01       	mov    BYTE PTR [rsp+0xd],0x1
6884:	48 c7 44 24 18 01 00 	mov    QWORD PTR [rsp+0x18],0x1
688b:	00 00
688d:	45 31 ff             	xor    r15d,r15d
6890:	48 89 44 24 48       	mov    QWORD PTR [rsp+0x48],rax
6895:	e9 d9 ef ff ff       	jmp    5873 <quotearg_buffer_restyled+0xd3>
689a:	89 d0                	mov    eax,edx
689c:	48 8b 5c 24 48       	mov    rbx,QWORD PTR [rsp+0x48]
68a1:	48 85 db             	test   rbx,rbx
68a4:	74 2c                	je     68d2 <quotearg_buffer_restyled+0x1132>
68a6:	84 c0                	test   al,al
68a8:	74 28                	je     68d2 <quotearg_buffer_restyled+0x1132>
68aa:	0f b6 0b             	movzx  ecx,BYTE PTR [rbx]
68ad:	48 89 d8             	mov    rax,rbx
68b0:	84 c9                	test   cl,cl
68b2:	74 1e                	je     68d2 <quotearg_buffer_restyled+0x1132>
68b4:	4c 89 fa             	mov    rdx,r15
68b7:	4c 29 f8             	sub    rax,r15
68ba:	49 39 d5             	cmp    r13,rdx
68bd:	76 04                	jbe    68c3 <quotearg_buffer_restyled+0x1123>
68bf:	41 88 0c 16          	mov    BYTE PTR [r14+rdx*1],cl
68c3:	48 83 c2 01          	add    rdx,0x1
68c7:	0f b6 0c 10          	movzx  ecx,BYTE PTR [rax+rdx*1]
68cb:	84 c9                	test   cl,cl
68cd:	75 eb                	jne    68ba <quotearg_buffer_restyled+0x111a>
68cf:	49 89 d7             	mov    r15,rdx
68d2:	4d 39 fd             	cmp    r13,r15
68d5:	0f 86 9e fa ff ff    	jbe    6379 <quotearg_buffer_restyled+0xbd9>
68db:	43 c6 04 3e 00       	mov    BYTE PTR [r14+r15*1],0x0
68e0:	e9 94 fa ff ff       	jmp    6379 <quotearg_buffer_restyled+0xbd9>
68e5:	83 7c 24 08 02       	cmp    DWORD PTR [rsp+0x8],0x2
68ea:	0f b6 5c 24 0f       	movzx  ebx,BYTE PTR [rsp+0xf]
68ef:	4c 89 dd             	mov    rbp,r11
68f2:	0f 94 c0             	sete   al
68f5:	88 5c 24 0d          	mov    BYTE PTR [rsp+0xd],bl
68f9:	e9 2b fa ff ff       	jmp    6329 <quotearg_buffer_restyled+0xb89>
68fe:	8b 74 24 08          	mov    esi,DWORD PTR [rsp+0x8]
6902:	48 89 cf             	mov    rdi,rcx
6905:	e8 a6 ed ff ff       	call   56b0 <gettext_quote.part.1>
690a:	48 89 44 24 68       	mov    QWORD PTR [rsp+0x68],rax
690f:	e9 52 fc ff ff       	jmp    6566 <quotearg_buffer_restyled+0xdc6>
6914:	8b 74 24 08          	mov    esi,DWORD PTR [rsp+0x8]
6918:	48 89 cf             	mov    rdi,rcx
691b:	e8 90 ed ff ff       	call   56b0 <gettext_quote.part.1>
6920:	48 89 44 24 60       	mov    QWORD PTR [rsp+0x60],rax
6925:	e9 67 fc ff ff       	jmp    6591 <quotearg_buffer_restyled+0xdf1>
692a:	0f b6 5c 24 0f       	movzx  ebx,BYTE PTR [rsp+0xf]
692f:	4c 89 dd             	mov    rbp,r11
6932:	89 d0                	mov    eax,edx
6934:	88 5c 24 0d          	mov    BYTE PTR [rsp+0xd],bl
6938:	e9 ec f9 ff ff       	jmp    6329 <quotearg_buffer_restyled+0xb89>
693d:	48 83 ec 08          	sub    rsp,0x8
6941:	41 b8 05 00 00 00    	mov    r8d,0x5
6947:	4c 89 d9             	mov    rcx,r11
694a:	ff 74 24 68          	push   QWORD PTR [rsp+0x68]
694e:	ff 74 24 78          	push   QWORD PTR [rsp+0x78]
6952:	4c 89 f7             	mov    rdi,r14
6955:	ff 74 24 38          	push   QWORD PTR [rsp+0x38]
6959:	44 8b 8c 24 98 00 00 	mov    r9d,DWORD PTR [rsp+0x98]
6960:	00
6961:	48 8b 54 24 30       	mov    rdx,QWORD PTR [rsp+0x30]
6966:	48 8b 74 24 70       	mov    rsi,QWORD PTR [rsp+0x70]
696b:	e8 30 ee ff ff       	call   57a0 <quotearg_buffer_restyled>
6970:	48 83 c4 20          	add    rsp,0x20
6974:	49 89 c7             	mov    r15,rax
6977:	e9 fd f9 ff ff       	jmp    6379 <quotearg_buffer_restyled+0xbd9>
697c:	0f b6 44 24 7c       	movzx  eax,BYTE PTR [rsp+0x7c]
6981:	e9 16 ff ff ff       	jmp    689c <quotearg_buffer_restyled+0x10fc>
6986:	c7 44 24 08 02 00 00 	mov    DWORD PTR [rsp+0x8],0x2
698d:	00
698e:	e9 96 f9 ff ff       	jmp    6329 <quotearg_buffer_restyled+0xb89>
6993:	e8 d8 b2 ff ff       	call   1c70 <__stack_chk_fail@plt>
6998:	c6 44 24 0d 00       	mov    BYTE PTR [rsp+0xd],0x0
699d:	e9 6f fa ff ff       	jmp    6411 <quotearg_buffer_restyled+0xc71>
69a2:	4c 89 dd             	mov    rbp,r11
69a5:	e9 96 f9 ff ff       	jmp    6340 <quotearg_buffer_restyled+0xba0>
69aa:	c6 44 24 0e 01       	mov    BYTE PTR [rsp+0xe],0x1
69af:	31 c0                	xor    eax,eax
69b1:	45 31 e4             	xor    r12d,r12d
69b4:	48 c7 44 24 50 00 00 	mov    QWORD PTR [rsp+0x50],0x0
69bb:	00 00
69bd:	e9 a2 f5 ff ff       	jmp    5f64 <quotearg_buffer_restyled+0x7c4>
69c2:	4c 89 ea             	mov    rdx,r13
69c5:	4c 8b 6c 24 50       	mov    r13,QWORD PTR [rsp+0x50]
69ca:	e9 f3 f5 ff ff       	jmp    5fc2 <quotearg_buffer_restyled+0x822>
69cf:	e8 8c b1 ff ff       	call   1b60 <abort@plt>
69d4:	66 90                	xchg   ax,ax
69d6:	66 2e 0f 1f 84 00 00 	nop    WORD PTR cs:[rax+rax*1+0x0]
69dd:	00 00 00

00000000000069e0 <quotearg_n_options>:
69e0:	41 57                	push   r15
69e2:	41 56                	push   r14
69e4:	4c 63 ff             	movsxd r15,edi
69e7:	41 55                	push   r13
69e9:	41 54                	push   r12
69eb:	49 89 d6             	mov    r14,rdx
69ee:	55                   	push   rbp
69ef:	53                   	push   rbx
69f0:	48 89 cd             	mov    rbp,rcx
69f3:	48 83 ec 28          	sub    rsp,0x28
69f7:	48 89 74 24 08       	mov    QWORD PTR [rsp+0x8],rsi
69fc:	e8 6f b1 ff ff       	call   1b70 <__errno_location@plt>
6a01:	49 89 c5             	mov    r13,rax
6a04:	8b 00                	mov    eax,DWORD PTR [rax]
6a06:	45 85 ff             	test   r15d,r15d
6a09:	48 8b 1d 70 56 20 00 	mov    rbx,QWORD PTR [rip+0x205670]        # 20c080 <slotvec>
6a10:	89 44 24 18          	mov    DWORD PTR [rsp+0x18],eax
6a14:	0f 88 67 01 00 00    	js     6b81 <quotearg_n_options+0x1a1>
6a1a:	44 39 3d 57 56 20 00 	cmp    DWORD PTR [rip+0x205657],r15d        # 20c078 <nslots>
6a21:	7f 62                	jg     6a85 <quotearg_n_options+0xa5>
6a23:	41 81 ff ff ff ff 7f 	cmp    r15d,0x7fffffff
6a2a:	0f 84 56 01 00 00    	je     6b86 <quotearg_n_options+0x1a6>
6a30:	45 8d 67 01          	lea    r12d,[r15+0x1]
6a34:	48 8d 05 55 56 20 00 	lea    rax,[rip+0x205655]        # 20c090 <slotvec0>
6a3b:	49 63 f4             	movsxd rsi,r12d
6a3e:	48 c1 e6 04          	shl    rsi,0x4
6a42:	48 39 c3             	cmp    rbx,rax
6a45:	0f 84 15 01 00 00    	je     6b60 <quotearg_n_options+0x180>
6a4b:	48 89 df             	mov    rdi,rbx
6a4e:	e8 6d 10 00 00       	call   7ac0 <xrealloc>
6a53:	48 89 c3             	mov    rbx,rax
6a56:	48 89 05 23 56 20 00 	mov    QWORD PTR [rip+0x205623],rax        # 20c080 <slotvec>
6a5d:	48 63 3d 14 56 20 00 	movsxd rdi,DWORD PTR [rip+0x205614]        # 20c078 <nslots>
6a64:	44 89 e2             	mov    edx,r12d
6a67:	31 f6                	xor    esi,esi
6a69:	29 fa                	sub    edx,edi
6a6b:	48 c1 e7 04          	shl    rdi,0x4
6a6f:	48 63 d2             	movsxd rdx,edx
6a72:	48 01 df             	add    rdi,rbx
6a75:	48 c1 e2 04          	shl    rdx,0x4
6a79:	e8 92 b2 ff ff       	call   1d10 <memset@plt>
6a7e:	44 89 25 f3 55 20 00 	mov    DWORD PTR [rip+0x2055f3],r12d        # 20c078 <nslots>
6a85:	8b 45 04             	mov    eax,DWORD PTR [rbp+0x4]
6a88:	49 c1 e7 04          	shl    r15,0x4
6a8c:	48 83 ec 08          	sub    rsp,0x8
6a90:	4c 01 fb             	add    rbx,r15
6a93:	4c 8d 7d 08          	lea    r15,[rbp+0x8]
6a97:	44 8b 45 00          	mov    r8d,DWORD PTR [rbp+0x0]
6a9b:	4c 8b 1b             	mov    r11,QWORD PTR [rbx]
6a9e:	4c 8b 63 08          	mov    r12,QWORD PTR [rbx+0x8]
6aa2:	4c 89 f1             	mov    rcx,r14
6aa5:	83 c8 01             	or     eax,0x1
6aa8:	89 44 24 24          	mov    DWORD PTR [rsp+0x24],eax
6aac:	ff 75 30             	push   QWORD PTR [rbp+0x30]
6aaf:	41 89 c1             	mov    r9d,eax
6ab2:	ff 75 28             	push   QWORD PTR [rbp+0x28]
6ab5:	41 57                	push   r15
6ab7:	4c 89 de             	mov    rsi,r11
6aba:	48 8b 54 24 28       	mov    rdx,QWORD PTR [rsp+0x28]
6abf:	4c 89 e7             	mov    rdi,r12
6ac2:	4c 89 5c 24 30       	mov    QWORD PTR [rsp+0x30],r11
6ac7:	e8 d4 ec ff ff       	call   57a0 <quotearg_buffer_restyled>
6acc:	48 83 c4 20          	add    rsp,0x20
6ad0:	4c 8b 5c 24 10       	mov    r11,QWORD PTR [rsp+0x10]
6ad5:	49 39 c3             	cmp    r11,rax
6ad8:	77 67                	ja     6b41 <quotearg_n_options+0x161>
6ada:	48 8d 70 01          	lea    rsi,[rax+0x1]
6ade:	48 8d 05 3b 5a 20 00 	lea    rax,[rip+0x205a3b]        # 20c520 <slot0>
6ae5:	49 39 c4             	cmp    r12,rax
6ae8:	48 89 33             	mov    QWORD PTR [rbx],rsi
6aeb:	74 12                	je     6aff <quotearg_n_options+0x11f>
6aed:	4c 89 e7             	mov    rdi,r12
6af0:	48 89 74 24 10       	mov    QWORD PTR [rsp+0x10],rsi
6af5:	e8 56 b0 ff ff       	call   1b50 <free@plt>
6afa:	48 8b 74 24 10       	mov    rsi,QWORD PTR [rsp+0x10]
6aff:	48 89 f7             	mov    rdi,rsi
6b02:	48 89 74 24 10       	mov    QWORD PTR [rsp+0x10],rsi
6b07:	e8 54 0f 00 00       	call   7a60 <xmalloc>
6b0c:	48 83 ec 08          	sub    rsp,0x8
6b10:	48 89 43 08          	mov    QWORD PTR [rbx+0x8],rax
6b14:	44 8b 45 00          	mov    r8d,DWORD PTR [rbp+0x0]
6b18:	ff 75 30             	push   QWORD PTR [rbp+0x30]
6b1b:	ff 75 28             	push   QWORD PTR [rbp+0x28]
6b1e:	4c 89 f1             	mov    rcx,r14
6b21:	41 57                	push   r15
6b23:	44 8b 4c 24 3c       	mov    r9d,DWORD PTR [rsp+0x3c]
6b28:	48 89 c7             	mov    rdi,rax
6b2b:	48 8b 54 24 28       	mov    rdx,QWORD PTR [rsp+0x28]
6b30:	48 8b 74 24 30       	mov    rsi,QWORD PTR [rsp+0x30]
6b35:	49 89 c4             	mov    r12,rax
6b38:	e8 63 ec ff ff       	call   57a0 <quotearg_buffer_restyled>
6b3d:	48 83 c4 20          	add    rsp,0x20
6b41:	8b 44 24 18          	mov    eax,DWORD PTR [rsp+0x18]
6b45:	41 89 45 00          	mov    DWORD PTR [r13+0x0],eax
6b49:	48 83 c4 28          	add    rsp,0x28
6b4d:	4c 89 e0             	mov    rax,r12
6b50:	5b                   	pop    rbx
6b51:	5d                   	pop    rbp
6b52:	41 5c                	pop    r12
6b54:	41 5d                	pop    r13
6b56:	41 5e                	pop    r14
6b58:	41 5f                	pop    r15
6b5a:	c3                   	ret
6b5b:	0f 1f 44 00 00       	nop    DWORD PTR [rax+rax*1+0x0]
6b60:	31 ff                	xor    edi,edi
6b62:	e8 59 0f 00 00       	call   7ac0 <xrealloc>
6b67:	66 0f 6f 05 21 55 20 	movdqa xmm0,XMMWORD PTR [rip+0x205521]        # 20c090 <slotvec0>
6b6e:	00
6b6f:	48 89 c3             	mov    rbx,rax
6b72:	48 89 05 07 55 20 00 	mov    QWORD PTR [rip+0x205507],rax        # 20c080 <slotvec>
6b79:	0f 11 00             	movups XMMWORD PTR [rax],xmm0
6b7c:	e9 dc fe ff ff       	jmp    6a5d <quotearg_n_options+0x7d>
6b81:	e8 da af ff ff       	call   1b60 <abort@plt>
6b86:	e8 25 11 00 00       	call   7cb0 <xalloc_die>
6b8b:	0f 1f 44 00 00       	nop    DWORD PTR [rax+rax*1+0x0]

0000000000006b90 <clone_quoting_options>:
6b90:	41 54                	push   r12
6b92:	55                   	push   rbp
6b93:	53                   	push   rbx
6b94:	48 89 fb             	mov    rbx,rdi
6b97:	e8 d4 af ff ff       	call   1b70 <__errno_location@plt>
6b9c:	44 8b 20             	mov    r12d,DWORD PTR [rax]
6b9f:	48 89 c5             	mov    rbp,rax
6ba2:	48 8d 05 77 5a 20 00 	lea    rax,[rip+0x205a77]        # 20c620 <default_quoting_options>
6ba9:	48 85 db             	test   rbx,rbx
6bac:	be 38 00 00 00       	mov    esi,0x38
6bb1:	48 0f 44 d8          	cmove  rbx,rax
6bb5:	48 89 df             	mov    rdi,rbx
6bb8:	e8 a3 10 00 00       	call   7c60 <xmemdup>
6bbd:	44 89 65 00          	mov    DWORD PTR [rbp+0x0],r12d
6bc1:	5b                   	pop    rbx
6bc2:	5d                   	pop    rbp
6bc3:	41 5c                	pop    r12
6bc5:	c3                   	ret
6bc6:	66 2e 0f 1f 84 00 00 	nop    WORD PTR cs:[rax+rax*1+0x0]
6bcd:	00 00 00

0000000000006bd0 <get_quoting_style>:
6bd0:	48 8d 05 49 5a 20 00 	lea    rax,[rip+0x205a49]        # 20c620 <default_quoting_options>
6bd7:	48 85 ff             	test   rdi,rdi
6bda:	48 0f 44 f8          	cmove  rdi,rax
6bde:	8b 07                	mov    eax,DWORD PTR [rdi]
6be0:	c3                   	ret
6be1:	0f 1f 44 00 00       	nop    DWORD PTR [rax+rax*1+0x0]
6be6:	66 2e 0f 1f 84 00 00 	nop    WORD PTR cs:[rax+rax*1+0x0]
6bed:	00 00 00

0000000000006bf0 <set_quoting_style>:
6bf0:	48 8d 05 29 5a 20 00 	lea    rax,[rip+0x205a29]        # 20c620 <default_quoting_options>
6bf7:	48 85 ff             	test   rdi,rdi
6bfa:	48 0f 44 f8          	cmove  rdi,rax
6bfe:	89 37                	mov    DWORD PTR [rdi],esi
6c00:	c3                   	ret
6c01:	0f 1f 44 00 00       	nop    DWORD PTR [rax+rax*1+0x0]
6c06:	66 2e 0f 1f 84 00 00 	nop    WORD PTR cs:[rax+rax*1+0x0]
6c0d:	00 00 00

0000000000006c10 <set_char_quoting>:
6c10:	48 8d 05 09 5a 20 00 	lea    rax,[rip+0x205a09]        # 20c620 <default_quoting_options>
6c17:	48 85 ff             	test   rdi,rdi
6c1a:	89 f1                	mov    ecx,esi
6c1c:	48 0f 44 f8          	cmove  rdi,rax
6c20:	89 f0                	mov    eax,esi
6c22:	83 e1 1f             	and    ecx,0x1f
6c25:	c0 e8 05             	shr    al,0x5
6c28:	0f b6 c0             	movzx  eax,al
6c2b:	48 8d 7c 87 08       	lea    rdi,[rdi+rax*4+0x8]
6c30:	8b 37                	mov    esi,DWORD PTR [rdi]
6c32:	89 f0                	mov    eax,esi
6c34:	d3 e8                	shr    eax,cl
6c36:	31 c2                	xor    edx,eax
6c38:	83 e0 01             	and    eax,0x1
6c3b:	83 e2 01             	and    edx,0x1
6c3e:	d3 e2                	shl    edx,cl
6c40:	31 f2                	xor    edx,esi
6c42:	89 17                	mov    DWORD PTR [rdi],edx
6c44:	c3                   	ret
6c45:	90                   	nop
6c46:	66 2e 0f 1f 84 00 00 	nop    WORD PTR cs:[rax+rax*1+0x0]
6c4d:	00 00 00

0000000000006c50 <set_quoting_flags>:
6c50:	48 8d 05 c9 59 20 00 	lea    rax,[rip+0x2059c9]        # 20c620 <default_quoting_options>
6c57:	48 85 ff             	test   rdi,rdi
6c5a:	48 0f 44 f8          	cmove  rdi,rax
6c5e:	8b 47 04             	mov    eax,DWORD PTR [rdi+0x4]
6c61:	89 77 04             	mov    DWORD PTR [rdi+0x4],esi
6c64:	c3                   	ret
6c65:	90                   	nop
6c66:	66 2e 0f 1f 84 00 00 	nop    WORD PTR cs:[rax+rax*1+0x0]
6c6d:	00 00 00

0000000000006c70 <set_custom_quoting>:
6c70:	48 8d 05 a9 59 20 00 	lea    rax,[rip+0x2059a9]        # 20c620 <default_quoting_options>
6c77:	48 85 ff             	test   rdi,rdi
6c7a:	48 0f 44 f8          	cmove  rdi,rax
6c7e:	48 85 f6             	test   rsi,rsi
6c81:	c7 07 0a 00 00 00    	mov    DWORD PTR [rdi],0xa
6c87:	74 0e                	je     6c97 <set_custom_quoting+0x27>
6c89:	48 85 d2             	test   rdx,rdx
6c8c:	74 09                	je     6c97 <set_custom_quoting+0x27>
6c8e:	48 89 77 28          	mov    QWORD PTR [rdi+0x28],rsi
6c92:	48 89 57 30          	mov    QWORD PTR [rdi+0x30],rdx
6c96:	c3                   	ret
6c97:	48 83 ec 08          	sub    rsp,0x8
6c9b:	e8 c0 ae ff ff       	call   1b60 <abort@plt>

0000000000006ca0 <quotearg_buffer>:
6ca0:	41 57                	push   r15
6ca2:	41 56                	push   r14
6ca4:	48 8d 05 75 59 20 00 	lea    rax,[rip+0x205975]        # 20c620 <default_quoting_options>
6cab:	41 55                	push   r13
6cad:	41 54                	push   r12
6caf:	49 89 fd             	mov    r13,rdi
6cb2:	55                   	push   rbp
6cb3:	53                   	push   rbx
6cb4:	4c 89 c3             	mov    rbx,r8
6cb7:	49 89 f6             	mov    r14,rsi
6cba:	49 89 d7             	mov    r15,rdx
6cbd:	48 83 ec 18          	sub    rsp,0x18
6cc1:	4d 85 c0             	test   r8,r8
6cc4:	48 0f 44 d8          	cmove  rbx,rax
6cc8:	48 89 4c 24 08       	mov    QWORD PTR [rsp+0x8],rcx
6ccd:	e8 9e ae ff ff       	call   1b70 <__errno_location@plt>
6cd2:	44 8b 20             	mov    r12d,DWORD PTR [rax]
6cd5:	48 89 c5             	mov    rbp,rax
6cd8:	48 8d 43 08          	lea    rax,[rbx+0x8]
6cdc:	48 83 ec 08          	sub    rsp,0x8
6ce0:	44 8b 4b 04          	mov    r9d,DWORD PTR [rbx+0x4]
6ce4:	ff 73 30             	push   QWORD PTR [rbx+0x30]
6ce7:	44 8b 03             	mov    r8d,DWORD PTR [rbx]
6cea:	ff 73 28             	push   QWORD PTR [rbx+0x28]
6ced:	4c 89 fa             	mov    rdx,r15
6cf0:	50                   	push   rax
6cf1:	48 8b 4c 24 28       	mov    rcx,QWORD PTR [rsp+0x28]
6cf6:	4c 89 f6             	mov    rsi,r14
6cf9:	4c 89 ef             	mov    rdi,r13
6cfc:	e8 9f ea ff ff       	call   57a0 <quotearg_buffer_restyled>
6d01:	44 89 65 00          	mov    DWORD PTR [rbp+0x0],r12d
6d05:	48 83 c4 38          	add    rsp,0x38
6d09:	5b                   	pop    rbx
6d0a:	5d                   	pop    rbp
6d0b:	41 5c                	pop    r12
6d0d:	41 5d                	pop    r13
6d0f:	41 5e                	pop    r14
6d11:	41 5f                	pop    r15
6d13:	c3                   	ret
6d14:	66 90                	xchg   ax,ax
6d16:	66 2e 0f 1f 84 00 00 	nop    WORD PTR cs:[rax+rax*1+0x0]
6d1d:	00 00 00

0000000000006d20 <quotearg_alloc_mem>:
6d20:	41 57                	push   r15
6d22:	41 56                	push   r14
6d24:	48 8d 05 f5 58 20 00 	lea    rax,[rip+0x2058f5]        # 20c620 <default_quoting_options>
6d2b:	41 55                	push   r13
6d2d:	41 54                	push   r12
6d2f:	49 89 d4             	mov    r12,rdx
6d32:	55                   	push   rbp
6d33:	53                   	push   rbx
6d34:	48 89 cb             	mov    rbx,rcx
6d37:	49 89 fe             	mov    r14,rdi
6d3a:	49 89 f7             	mov    r15,rsi
6d3d:	48 83 ec 38          	sub    rsp,0x38
6d41:	48 85 c9             	test   rcx,rcx
6d44:	48 0f 44 d8          	cmove  rbx,rax
6d48:	31 ed                	xor    ebp,ebp
6d4a:	e8 21 ae ff ff       	call   1b70 <__errno_location@plt>
6d4f:	4d 85 e4             	test   r12,r12
6d52:	49 89 c5             	mov    r13,rax
6d55:	8b 00                	mov    eax,DWORD PTR [rax]
6d57:	40 0f 94 c5          	sete   bpl
6d5b:	0b 6b 04             	or     ebp,DWORD PTR [rbx+0x4]
6d5e:	4c 8d 53 08          	lea    r10,[rbx+0x8]
6d62:	48 83 ec 08          	sub    rsp,0x8
6d66:	44 8b 03             	mov    r8d,DWORD PTR [rbx]
6d69:	4c 89 f9             	mov    rcx,r15
6d6c:	89 44 24 14          	mov    DWORD PTR [rsp+0x14],eax
6d70:	ff 73 30             	push   QWORD PTR [rbx+0x30]
6d73:	4c 89 f2             	mov    rdx,r14
6d76:	ff 73 28             	push   QWORD PTR [rbx+0x28]
6d79:	41 52                	push   r10
6d7b:	31 f6                	xor    esi,esi
6d7d:	41 89 e9             	mov    r9d,ebp
6d80:	31 ff                	xor    edi,edi
6d82:	4c 89 54 24 40       	mov    QWORD PTR [rsp+0x40],r10
6d87:	e8 14 ea ff ff       	call   57a0 <quotearg_buffer_restyled>
6d8c:	48 8d 70 01          	lea    rsi,[rax+0x1]
6d90:	48 89 44 24 48       	mov    QWORD PTR [rsp+0x48],rax
6d95:	48 83 c4 20          	add    rsp,0x20
6d99:	48 89 f7             	mov    rdi,rsi
6d9c:	48 89 74 24 18       	mov    QWORD PTR [rsp+0x18],rsi
6da1:	e8 ba 0c 00 00       	call   7a60 <xmalloc>
6da6:	48 89 44 24 10       	mov    QWORD PTR [rsp+0x10],rax
6dab:	48 83 ec 08          	sub    rsp,0x8
6daf:	ff 73 30             	push   QWORD PTR [rbx+0x30]
6db2:	ff 73 28             	push   QWORD PTR [rbx+0x28]
6db5:	4c 8b 54 24 38       	mov    r10,QWORD PTR [rsp+0x38]
6dba:	41 89 e9             	mov    r9d,ebp
6dbd:	44 8b 03             	mov    r8d,DWORD PTR [rbx]
6dc0:	4c 89 f9             	mov    rcx,r15
6dc3:	4c 89 f2             	mov    rdx,r14
6dc6:	48 89 c7             	mov    rdi,rax
6dc9:	41 52                	push   r10
6dcb:	48 8b 74 24 38       	mov    rsi,QWORD PTR [rsp+0x38]
6dd0:	e8 cb e9 ff ff       	call   57a0 <quotearg_buffer_restyled>
6dd5:	8b 44 24 2c          	mov    eax,DWORD PTR [rsp+0x2c]
6dd9:	48 83 c4 20          	add    rsp,0x20
6ddd:	4d 85 e4             	test   r12,r12
6de0:	41 89 45 00          	mov    DWORD PTR [r13+0x0],eax
6de4:	74 09                	je     6def <quotearg_alloc_mem+0xcf>
6de6:	4c 8b 5c 24 28       	mov    r11,QWORD PTR [rsp+0x28]
6deb:	4d 89 1c 24          	mov    QWORD PTR [r12],r11
6def:	48 8b 44 24 10       	mov    rax,QWORD PTR [rsp+0x10]
6df4:	48 83 c4 38          	add    rsp,0x38
6df8:	5b                   	pop    rbx
6df9:	5d                   	pop    rbp
6dfa:	41 5c                	pop    r12
6dfc:	41 5d                	pop    r13
6dfe:	41 5e                	pop    r14
6e00:	41 5f                	pop    r15
6e02:	c3                   	ret
6e03:	0f 1f 00             	nop    DWORD PTR [rax]
6e06:	66 2e 0f 1f 84 00 00 	nop    WORD PTR cs:[rax+rax*1+0x0]
6e0d:	00 00 00

0000000000006e10 <quotearg_alloc>:
6e10:	48 89 d1             	mov    rcx,rdx
6e13:	31 d2                	xor    edx,edx
6e15:	e9 06 ff ff ff       	jmp    6d20 <quotearg_alloc_mem>
6e1a:	66 0f 1f 44 00 00    	nop    WORD PTR [rax+rax*1+0x0]

0000000000006e20 <quotearg_free>:
6e20:	8b 05 52 52 20 00    	mov    eax,DWORD PTR [rip+0x205252]        # 20c078 <nslots>
6e26:	41 54                	push   r12
6e28:	4c 8b 25 51 52 20 00 	mov    r12,QWORD PTR [rip+0x205251]        # 20c080 <slotvec>
6e2f:	55                   	push   rbp
6e30:	53                   	push   rbx
6e31:	83 f8 01             	cmp    eax,0x1
6e34:	7e 2b                	jle    6e61 <quotearg_free+0x41>
6e36:	83 e8 02             	sub    eax,0x2
6e39:	49 8d 5c 24 18       	lea    rbx,[r12+0x18]
6e3e:	48 c1 e0 04          	shl    rax,0x4
6e42:	49 8d 6c 04 28       	lea    rbp,[r12+rax*1+0x28]
6e47:	66 0f 1f 84 00 00 00 	nop    WORD PTR [rax+rax*1+0x0]
6e4e:	00 00
6e50:	48 8b 3b             	mov    rdi,QWORD PTR [rbx]
6e53:	48 83 c3 10          	add    rbx,0x10
6e57:	e8 f4 ac ff ff       	call   1b50 <free@plt>
6e5c:	48 39 eb             	cmp    rbx,rbp
6e5f:	75 ef                	jne    6e50 <quotearg_free+0x30>
6e61:	49 8b 7c 24 08       	mov    rdi,QWORD PTR [r12+0x8]
6e66:	48 8d 1d b3 56 20 00 	lea    rbx,[rip+0x2056b3]        # 20c520 <slot0>
6e6d:	48 39 df             	cmp    rdi,rbx
6e70:	74 17                	je     6e89 <quotearg_free+0x69>
6e72:	e8 d9 ac ff ff       	call   1b50 <free@plt>
6e77:	48 c7 05 0e 52 20 00 	mov    QWORD PTR [rip+0x20520e],0x100        # 20c090 <slotvec0>
6e7e:	00 01 00 00
6e82:	48 89 1d 0f 52 20 00 	mov    QWORD PTR [rip+0x20520f],rbx        # 20c098 <slotvec0+0x8>
6e89:	48 8d 1d 00 52 20 00 	lea    rbx,[rip+0x205200]        # 20c090 <slotvec0>
6e90:	49 39 dc             	cmp    r12,rbx
6e93:	74 0f                	je     6ea4 <quotearg_free+0x84>
6e95:	4c 89 e7             	mov    rdi,r12
6e98:	e8 b3 ac ff ff       	call   1b50 <free@plt>
6e9d:	48 89 1d dc 51 20 00 	mov    QWORD PTR [rip+0x2051dc],rbx        # 20c080 <slotvec>
6ea4:	5b                   	pop    rbx
6ea5:	c7 05 c9 51 20 00 01 	mov    DWORD PTR [rip+0x2051c9],0x1        # 20c078 <nslots>
6eac:	00 00 00
6eaf:	5d                   	pop    rbp
6eb0:	41 5c                	pop    r12
6eb2:	c3                   	ret
6eb3:	0f 1f 00             	nop    DWORD PTR [rax]
6eb6:	66 2e 0f 1f 84 00 00 	nop    WORD PTR cs:[rax+rax*1+0x0]
6ebd:	00 00 00

0000000000006ec0 <quotearg_n>:
6ec0:	48 8d 0d 59 57 20 00 	lea    rcx,[rip+0x205759]        # 20c620 <default_quoting_options>
6ec7:	48 c7 c2 ff ff ff ff 	mov    rdx,0xffffffffffffffff
6ece:	e9 0d fb ff ff       	jmp    69e0 <quotearg_n_options>
6ed3:	0f 1f 00             	nop    DWORD PTR [rax]
6ed6:	66 2e 0f 1f 84 00 00 	nop    WORD PTR cs:[rax+rax*1+0x0]
6edd:	00 00 00

0000000000006ee0 <quotearg_n_mem>:
6ee0:	48 8d 0d 39 57 20 00 	lea    rcx,[rip+0x205739]        # 20c620 <default_quoting_options>
6ee7:	e9 f4 fa ff ff       	jmp    69e0 <quotearg_n_options>
6eec:	0f 1f 40 00          	nop    DWORD PTR [rax+0x0]

0000000000006ef0 <quotearg>:
6ef0:	48 8d 0d 29 57 20 00 	lea    rcx,[rip+0x205729]        # 20c620 <default_quoting_options>
6ef7:	48 89 fe             	mov    rsi,rdi
6efa:	48 c7 c2 ff ff ff ff 	mov    rdx,0xffffffffffffffff
6f01:	31 ff                	xor    edi,edi
6f03:	e9 d8 fa ff ff       	jmp    69e0 <quotearg_n_options>
6f08:	0f 1f 84 00 00 00 00 	nop    DWORD PTR [rax+rax*1+0x0]
6f0f:	00

0000000000006f10 <quotearg_mem>:
6f10:	48 8d 0d 09 57 20 00 	lea    rcx,[rip+0x205709]        # 20c620 <default_quoting_options>
6f17:	48 89 f2             	mov    rdx,rsi
6f1a:	48 89 fe             	mov    rsi,rdi
6f1d:	31 ff                	xor    edi,edi
6f1f:	e9 bc fa ff ff       	jmp    69e0 <quotearg_n_options>
6f24:	66 90                	xchg   ax,ax
6f26:	66 2e 0f 1f 84 00 00 	nop    WORD PTR cs:[rax+rax*1+0x0]
6f2d:	00 00 00

0000000000006f30 <quotearg_n_style>:
6f30:	48 83 ec 48          	sub    rsp,0x48
6f34:	48 89 d0             	mov    rax,rdx
6f37:	64 48 8b 14 25 28 00 	mov    rdx,QWORD PTR fs:0x28
6f3e:	00 00
6f40:	48 89 54 24 38       	mov    QWORD PTR [rsp+0x38],rdx
6f45:	31 d2                	xor    edx,edx
6f47:	83 fe 0a             	cmp    esi,0xa
6f4a:	74 68                	je     6fb4 <quotearg_n_style+0x84>
6f4c:	89 34 24             	mov    DWORD PTR [rsp],esi
6f4f:	48 89 e1             	mov    rcx,rsp
6f52:	48 c7 c2 ff ff ff ff 	mov    rdx,0xffffffffffffffff
6f59:	48 89 c6             	mov    rsi,rax
6f5c:	48 c7 44 24 04 00 00 	mov    QWORD PTR [rsp+0x4],0x0
6f63:	00 00
6f65:	48 c7 44 24 0c 00 00 	mov    QWORD PTR [rsp+0xc],0x0
6f6c:	00 00
6f6e:	48 c7 44 24 14 00 00 	mov    QWORD PTR [rsp+0x14],0x0
6f75:	00 00
6f77:	48 c7 44 24 1c 00 00 	mov    QWORD PTR [rsp+0x1c],0x0
6f7e:	00 00
6f80:	48 c7 44 24 24 00 00 	mov    QWORD PTR [rsp+0x24],0x0
6f87:	00 00
6f89:	48 c7 44 24 2c 00 00 	mov    QWORD PTR [rsp+0x2c],0x0
6f90:	00 00
6f92:	c7 44 24 34 00 00 00 	mov    DWORD PTR [rsp+0x34],0x0
6f99:	00
6f9a:	e8 41 fa ff ff       	call   69e0 <quotearg_n_options>
6f9f:	48 8b 4c 24 38       	mov    rcx,QWORD PTR [rsp+0x38]
6fa4:	64 48 33 0c 25 28 00 	xor    rcx,QWORD PTR fs:0x28
6fab:	00 00
6fad:	75 0a                	jne    6fb9 <quotearg_n_style+0x89>
6faf:	48 83 c4 48          	add    rsp,0x48
6fb3:	c3                   	ret
6fb4:	e8 a7 ab ff ff       	call   1b60 <abort@plt>
6fb9:	e8 b2 ac ff ff       	call   1c70 <__stack_chk_fail@plt>
6fbe:	66 90                	xchg   ax,ax

0000000000006fc0 <quotearg_n_style_mem>:
6fc0:	48 83 ec 48          	sub    rsp,0x48
6fc4:	48 89 d0             	mov    rax,rdx
6fc7:	48 89 ca             	mov    rdx,rcx
6fca:	64 48 8b 0c 25 28 00 	mov    rcx,QWORD PTR fs:0x28
6fd1:	00 00
6fd3:	48 89 4c 24 38       	mov    QWORD PTR [rsp+0x38],rcx
6fd8:	31 c9                	xor    ecx,ecx
6fda:	83 fe 0a             	cmp    esi,0xa
6fdd:	74 61                	je     7040 <quotearg_n_style_mem+0x80>
6fdf:	89 34 24             	mov    DWORD PTR [rsp],esi
6fe2:	48 89 e1             	mov    rcx,rsp
6fe5:	48 89 c6             	mov    rsi,rax
6fe8:	48 c7 44 24 04 00 00 	mov    QWORD PTR [rsp+0x4],0x0
6fef:	00 00
6ff1:	48 c7 44 24 0c 00 00 	mov    QWORD PTR [rsp+0xc],0x0
6ff8:	00 00
6ffa:	48 c7 44 24 14 00 00 	mov    QWORD PTR [rsp+0x14],0x0
7001:	00 00
7003:	48 c7 44 24 1c 00 00 	mov    QWORD PTR [rsp+0x1c],0x0
700a:	00 00
700c:	48 c7 44 24 24 00 00 	mov    QWORD PTR [rsp+0x24],0x0
7013:	00 00
7015:	48 c7 44 24 2c 00 00 	mov    QWORD PTR [rsp+0x2c],0x0
701c:	00 00
701e:	c7 44 24 34 00 00 00 	mov    DWORD PTR [rsp+0x34],0x0
7025:	00
7026:	e8 b5 f9 ff ff       	call   69e0 <quotearg_n_options>
702b:	48 8b 54 24 38       	mov    rdx,QWORD PTR [rsp+0x38]
7030:	64 48 33 14 25 28 00 	xor    rdx,QWORD PTR fs:0x28
7037:	00 00
7039:	75 0a                	jne    7045 <quotearg_n_style_mem+0x85>
703b:	48 83 c4 48          	add    rsp,0x48
703f:	c3                   	ret
7040:	e8 1b ab ff ff       	call   1b60 <abort@plt>
7045:	e8 26 ac ff ff       	call   1c70 <__stack_chk_fail@plt>
704a:	66 0f 1f 44 00 00    	nop    WORD PTR [rax+rax*1+0x0]

0000000000007050 <quotearg_style>:
7050:	48 89 f2             	mov    rdx,rsi
7053:	89 fe                	mov    esi,edi
7055:	31 ff                	xor    edi,edi
7057:	e9 d4 fe ff ff       	jmp    6f30 <quotearg_n_style>
705c:	0f 1f 40 00          	nop    DWORD PTR [rax+0x0]

0000000000007060 <quotearg_style_mem>:
7060:	48 89 d1             	mov    rcx,rdx
7063:	48 89 f2             	mov    rdx,rsi
7066:	89 fe                	mov    esi,edi
7068:	31 ff                	xor    edi,edi
706a:	e9 51 ff ff ff       	jmp    6fc0 <quotearg_n_style_mem>
706f:	90                   	nop

0000000000007070 <quotearg_char_mem>:
7070:	48 83 ec 48          	sub    rsp,0x48
7074:	89 d1                	mov    ecx,edx
7076:	64 48 8b 04 25 28 00 	mov    rax,QWORD PTR fs:0x28
707d:	00 00
707f:	48 89 44 24 38       	mov    QWORD PTR [rsp+0x38],rax
7084:	31 c0                	xor    eax,eax
7086:	48 8b 05 c3 55 20 00 	mov    rax,QWORD PTR [rip+0x2055c3]        # 20c650 <default_quoting_options+0x30>
708d:	49 89 e0             	mov    r8,rsp
7090:	83 e1 1f             	and    ecx,0x1f
7093:	66 0f 6f 05 85 55 20 	movdqa xmm0,XMMWORD PTR [rip+0x205585]        # 20c620 <default_quoting_options>
709a:	00
709b:	48 89 44 24 30       	mov    QWORD PTR [rsp+0x30],rax
70a0:	89 d0                	mov    eax,edx
70a2:	0f 29 04 24          	movaps XMMWORD PTR [rsp],xmm0
70a6:	c0 e8 05             	shr    al,0x5
70a9:	0f b6 c0             	movzx  eax,al
70ac:	4d 8d 4c 80 08       	lea    r9,[r8+rax*4+0x8]
70b1:	66 0f 6f 05 77 55 20 	movdqa xmm0,XMMWORD PTR [rip+0x205577]        # 20c630 <default_quoting_options+0x10>
70b8:	00
70b9:	0f 29 44 24 10       	movaps XMMWORD PTR [rsp+0x10],xmm0
70be:	66 0f 6f 05 7a 55 20 	movdqa xmm0,XMMWORD PTR [rip+0x20557a]        # 20c640 <default_quoting_options+0x20>
70c5:	00
70c6:	0f 29 44 24 20       	movaps XMMWORD PTR [rsp+0x20],xmm0
70cb:	41 8b 11             	mov    edx,DWORD PTR [r9]
70ce:	89 d0                	mov    eax,edx
70d0:	d3 e8                	shr    eax,cl
70d2:	f7 d0                	not    eax
70d4:	83 e0 01             	and    eax,0x1
70d7:	d3 e0                	shl    eax,cl
70d9:	4c 89 c1             	mov    rcx,r8
70dc:	31 d0                	xor    eax,edx
70de:	48 89 f2             	mov    rdx,rsi
70e1:	48 89 fe             	mov    rsi,rdi
70e4:	41 89 01             	mov    DWORD PTR [r9],eax
70e7:	31 ff                	xor    edi,edi
70e9:	e8 f2 f8 ff ff       	call   69e0 <quotearg_n_options>
70ee:	48 8b 74 24 38       	mov    rsi,QWORD PTR [rsp+0x38]
70f3:	64 48 33 34 25 28 00 	xor    rsi,QWORD PTR fs:0x28
70fa:	00 00
70fc:	75 05                	jne    7103 <quotearg_char_mem+0x93>
70fe:	48 83 c4 48          	add    rsp,0x48
7102:	c3                   	ret
7103:	e8 68 ab ff ff       	call   1c70 <__stack_chk_fail@plt>
7108:	0f 1f 84 00 00 00 00 	nop    DWORD PTR [rax+rax*1+0x0]
710f:	00

0000000000007110 <quotearg_char>:
7110:	40 0f be d6          	movsx  edx,sil
7114:	48 c7 c6 ff ff ff ff 	mov    rsi,0xffffffffffffffff
711b:	e9 50 ff ff ff       	jmp    7070 <quotearg_char_mem>

0000000000007120 <quotearg_colon>:
7120:	ba 3a 00 00 00       	mov    edx,0x3a
7125:	48 c7 c6 ff ff ff ff 	mov    rsi,0xffffffffffffffff
712c:	e9 3f ff ff ff       	jmp    7070 <quotearg_char_mem>
7131:	0f 1f 44 00 00       	nop    DWORD PTR [rax+rax*1+0x0]
7136:	66 2e 0f 1f 84 00 00 	nop    WORD PTR cs:[rax+rax*1+0x0]
713d:	00 00 00

0000000000007140 <quotearg_colon_mem>:
7140:	ba 3a 00 00 00       	mov    edx,0x3a
7145:	e9 26 ff ff ff       	jmp    7070 <quotearg_char_mem>
714a:	66 0f 1f 44 00 00    	nop    WORD PTR [rax+rax*1+0x0]

0000000000007150 <quotearg_n_style_colon>:
7150:	48 83 ec 48          	sub    rsp,0x48
7154:	48 89 d0             	mov    rax,rdx
7157:	64 48 8b 14 25 28 00 	mov    rdx,QWORD PTR fs:0x28
715e:	00 00
7160:	48 89 54 24 38       	mov    QWORD PTR [rsp+0x38],rdx
7165:	31 d2                	xor    edx,edx
7167:	83 fe 0a             	cmp    esi,0xa
716a:	74 68                	je     71d4 <quotearg_n_style_colon+0x84>
716c:	89 34 24             	mov    DWORD PTR [rsp],esi
716f:	48 89 e1             	mov    rcx,rsp
7172:	48 c7 c2 ff ff ff ff 	mov    rdx,0xffffffffffffffff
7179:	48 89 c6             	mov    rsi,rax
717c:	48 c7 44 24 04 00 00 	mov    QWORD PTR [rsp+0x4],0x0
7183:	00 00
7185:	48 c7 44 24 0c 00 00 	mov    QWORD PTR [rsp+0xc],0x4000000
718c:	00 04
718e:	48 c7 44 24 14 00 00 	mov    QWORD PTR [rsp+0x14],0x0
7195:	00 00
7197:	48 c7 44 24 1c 00 00 	mov    QWORD PTR [rsp+0x1c],0x0
719e:	00 00
71a0:	48 c7 44 24 24 00 00 	mov    QWORD PTR [rsp+0x24],0x0
71a7:	00 00
71a9:	48 c7 44 24 2c 00 00 	mov    QWORD PTR [rsp+0x2c],0x0
71b0:	00 00
71b2:	c7 44 24 34 00 00 00 	mov    DWORD PTR [rsp+0x34],0x0
71b9:	00
71ba:	e8 21 f8 ff ff       	call   69e0 <quotearg_n_options>
71bf:	48 8b 4c 24 38       	mov    rcx,QWORD PTR [rsp+0x38]
71c4:	64 48 33 0c 25 28 00 	xor    rcx,QWORD PTR fs:0x28
71cb:	00 00
71cd:	75 0a                	jne    71d9 <quotearg_n_style_colon+0x89>
71cf:	48 83 c4 48          	add    rsp,0x48
71d3:	c3                   	ret
71d4:	e8 87 a9 ff ff       	call   1b60 <abort@plt>
71d9:	e8 92 aa ff ff       	call   1c70 <__stack_chk_fail@plt>
71de:	66 90                	xchg   ax,ax

00000000000071e0 <quotearg_n_custom_mem>:
71e0:	48 83 ec 48          	sub    rsp,0x48
71e4:	49 89 c9             	mov    r9,rcx
71e7:	48 8b 0d 62 54 20 00 	mov    rcx,QWORD PTR [rip+0x205462]        # 20c650 <default_quoting_options+0x30>
71ee:	66 0f 6f 05 2a 54 20 	movdqa xmm0,XMMWORD PTR [rip+0x20542a]        # 20c620 <default_quoting_options>
71f5:	00
71f6:	64 48 8b 04 25 28 00 	mov    rax,QWORD PTR fs:0x28
71fd:	00 00
71ff:	48 89 44 24 38       	mov    QWORD PTR [rsp+0x38],rax
7204:	31 c0                	xor    eax,eax
7206:	0f 29 04 24          	movaps XMMWORD PTR [rsp],xmm0
720a:	48 85 f6             	test   rsi,rsi
720d:	48 89 4c 24 30       	mov    QWORD PTR [rsp+0x30],rcx
7212:	c7 04 24 0a 00 00 00 	mov    DWORD PTR [rsp],0xa
7219:	66 0f 6f 05 0f 54 20 	movdqa xmm0,XMMWORD PTR [rip+0x20540f]        # 20c630 <default_quoting_options+0x10>
7220:	00
7221:	0f 29 44 24 10       	movaps XMMWORD PTR [rsp+0x10],xmm0
7226:	66 0f 6f 05 12 54 20 	movdqa xmm0,XMMWORD PTR [rip+0x205412]        # 20c640 <default_quoting_options+0x20>
722d:	00
722e:	0f 29 44 24 20       	movaps XMMWORD PTR [rsp+0x20],xmm0
7233:	74 32                	je     7267 <quotearg_n_custom_mem+0x87>
7235:	48 85 d2             	test   rdx,rdx
7238:	74 2d                	je     7267 <quotearg_n_custom_mem+0x87>
723a:	48 89 74 24 28       	mov    QWORD PTR [rsp+0x28],rsi
723f:	48 89 54 24 30       	mov    QWORD PTR [rsp+0x30],rdx
7244:	48 89 e1             	mov    rcx,rsp
7247:	4c 89 c2             	mov    rdx,r8
724a:	4c 89 ce             	mov    rsi,r9
724d:	e8 8e f7 ff ff       	call   69e0 <quotearg_n_options>
7252:	48 8b 7c 24 38       	mov    rdi,QWORD PTR [rsp+0x38]
7257:	64 48 33 3c 25 28 00 	xor    rdi,QWORD PTR fs:0x28
725e:	00 00
7260:	75 0a                	jne    726c <quotearg_n_custom_mem+0x8c>
7262:	48 83 c4 48          	add    rsp,0x48
7266:	c3                   	ret
7267:	e8 f4 a8 ff ff       	call   1b60 <abort@plt>
726c:	e8 ff a9 ff ff       	call   1c70 <__stack_chk_fail@plt>
7271:	0f 1f 44 00 00       	nop    DWORD PTR [rax+rax*1+0x0]
7276:	66 2e 0f 1f 84 00 00 	nop    WORD PTR cs:[rax+rax*1+0x0]
727d:	00 00 00

0000000000007280 <quotearg_n_custom>:
7280:	49 c7 c0 ff ff ff ff 	mov    r8,0xffffffffffffffff
7287:	e9 54 ff ff ff       	jmp    71e0 <quotearg_n_custom_mem>
728c:	0f 1f 40 00          	nop    DWORD PTR [rax+0x0]

0000000000007290 <quotearg_custom>:
7290:	48 89 d1             	mov    rcx,rdx
7293:	49 c7 c0 ff ff ff ff 	mov    r8,0xffffffffffffffff
729a:	48 89 f2             	mov    rdx,rsi
729d:	48 89 fe             	mov    rsi,rdi
72a0:	31 ff                	xor    edi,edi
72a2:	e9 39 ff ff ff       	jmp    71e0 <quotearg_n_custom_mem>
72a7:	66 0f 1f 84 00 00 00 	nop    WORD PTR [rax+rax*1+0x0]
72ae:	00 00

00000000000072b0 <quotearg_custom_mem>:
72b0:	49 89 c8             	mov    r8,rcx
72b3:	48 89 d1             	mov    rcx,rdx
72b6:	48 89 f2             	mov    rdx,rsi
72b9:	48 89 fe             	mov    rsi,rdi
72bc:	31 ff                	xor    edi,edi
72be:	e9 1d ff ff ff       	jmp    71e0 <quotearg_n_custom_mem>
72c3:	0f 1f 00             	nop    DWORD PTR [rax]
72c6:	66 2e 0f 1f 84 00 00 	nop    WORD PTR cs:[rax+rax*1+0x0]
72cd:	00 00 00

00000000000072d0 <quote_n_mem>:
72d0:	48 8d 0d 69 4d 20 00 	lea    rcx,[rip+0x204d69]        # 20c040 <quote_quoting_options>
72d7:	e9 04 f7 ff ff       	jmp    69e0 <quotearg_n_options>
72dc:	0f 1f 40 00          	nop    DWORD PTR [rax+0x0]

00000000000072e0 <quote_mem>:
72e0:	48 8d 0d 59 4d 20 00 	lea    rcx,[rip+0x204d59]        # 20c040 <quote_quoting_options>
72e7:	48 89 f2             	mov    rdx,rsi
72ea:	48 89 fe             	mov    rsi,rdi
72ed:	31 ff                	xor    edi,edi
72ef:	e9 ec f6 ff ff       	jmp    69e0 <quotearg_n_options>
72f4:	66 90                	xchg   ax,ax
72f6:	66 2e 0f 1f 84 00 00 	nop    WORD PTR cs:[rax+rax*1+0x0]
72fd:	00 00 00

0000000000007300 <quote_n>:
7300:	48 8d 0d 39 4d 20 00 	lea    rcx,[rip+0x204d39]        # 20c040 <quote_quoting_options>
7307:	48 c7 c2 ff ff ff ff 	mov    rdx,0xffffffffffffffff
730e:	e9 cd f6 ff ff       	jmp    69e0 <quotearg_n_options>
7313:	0f 1f 00             	nop    DWORD PTR [rax]
7316:	66 2e 0f 1f 84 00 00 	nop    WORD PTR cs:[rax+rax*1+0x0]
731d:	00 00 00

0000000000007320 <quote>:
7320:	48 8d 0d 19 4d 20 00 	lea    rcx,[rip+0x204d19]        # 20c040 <quote_quoting_options>
7327:	48 89 fe             	mov    rsi,rdi
732a:	48 c7 c2 ff ff ff ff 	mov    rdx,0xffffffffffffffff
7331:	31 ff                	xor    edi,edi
7333:	e9 a8 f6 ff ff       	jmp    69e0 <quotearg_n_options>
7338:	0f 1f 84 00 00 00 00 	nop    DWORD PTR [rax+rax*1+0x0]
733f:	00

0000000000007340 <safe_read>:
7340:	41 55                	push   r13
7342:	41 54                	push   r12
7344:	41 89 fd             	mov    r13d,edi
7347:	55                   	push   rbp
7348:	53                   	push   rbx
7349:	49 89 f4             	mov    r12,rsi
734c:	48 89 d3             	mov    rbx,rdx
734f:	48 83 ec 08          	sub    rsp,0x8
7353:	0f 1f 44 00 00       	nop    DWORD PTR [rax+rax*1+0x0]
7358:	48 89 da             	mov    rdx,rbx
735b:	4c 89 e6             	mov    rsi,r12
735e:	44 89 ef             	mov    edi,r13d
7361:	e8 fa a9 ff ff       	call   1d60 <read@plt>
7366:	48 85 c0             	test   rax,rax
7369:	48 89 c5             	mov    rbp,rax
736c:	79 22                	jns    7390 <safe_read+0x50>
736e:	e8 fd a7 ff ff       	call   1b70 <__errno_location@plt>
7373:	8b 00                	mov    eax,DWORD PTR [rax]
7375:	83 f8 04             	cmp    eax,0x4
7378:	74 de                	je     7358 <safe_read+0x18>
737a:	48 81 fb 00 00 f0 7f 	cmp    rbx,0x7ff00000
7381:	76 0d                	jbe    7390 <safe_read+0x50>
7383:	83 f8 16             	cmp    eax,0x16
7386:	75 08                	jne    7390 <safe_read+0x50>
7388:	bb 00 00 f0 7f       	mov    ebx,0x7ff00000
738d:	eb c9                	jmp    7358 <safe_read+0x18>
738f:	90                   	nop
7390:	48 83 c4 08          	add    rsp,0x8
7394:	48 89 e8             	mov    rax,rbp
7397:	5b                   	pop    rbx
7398:	5d                   	pop    rbp
7399:	41 5c                	pop    r12
739b:	41 5d                	pop    r13
739d:	c3                   	ret
739e:	66 90                	xchg   ax,ax

00000000000073a0 <safe_write>:
73a0:	41 55                	push   r13
73a2:	41 54                	push   r12
73a4:	41 89 fd             	mov    r13d,edi
73a7:	55                   	push   rbp
73a8:	53                   	push   rbx
73a9:	49 89 f4             	mov    r12,rsi
73ac:	48 89 d3             	mov    rbx,rdx
73af:	48 83 ec 08          	sub    rsp,0x8
73b3:	0f 1f 44 00 00       	nop    DWORD PTR [rax+rax*1+0x0]
73b8:	48 89 da             	mov    rdx,rbx
73bb:	4c 89 e6             	mov    rsi,r12
73be:	44 89 ef             	mov    edi,r13d
73c1:	e8 3a a8 ff ff       	call   1c00 <write@plt>
73c6:	48 85 c0             	test   rax,rax
73c9:	48 89 c5             	mov    rbp,rax
73cc:	79 22                	jns    73f0 <safe_write+0x50>
73ce:	e8 9d a7 ff ff       	call   1b70 <__errno_location@plt>
73d3:	8b 00                	mov    eax,DWORD PTR [rax]
73d5:	83 f8 04             	cmp    eax,0x4
73d8:	74 de                	je     73b8 <safe_write+0x18>
73da:	83 f8 16             	cmp    eax,0x16
73dd:	75 11                	jne    73f0 <safe_write+0x50>
73df:	48 81 fb 00 00 f0 7f 	cmp    rbx,0x7ff00000
73e6:	76 08                	jbe    73f0 <safe_write+0x50>
73e8:	bb 00 00 f0 7f       	mov    ebx,0x7ff00000
73ed:	eb c9                	jmp    73b8 <safe_write+0x18>
73ef:	90                   	nop
73f0:	48 83 c4 08          	add    rsp,0x8
73f4:	48 89 e8             	mov    rax,rbp
73f7:	5b                   	pop    rbx
73f8:	5d                   	pop    rbp
73f9:	41 5c                	pop    r12
73fb:	41 5d                	pop    r13
73fd:	c3                   	ret
73fe:	66 90                	xchg   ax,ax

0000000000007400 <fd_safer>:
7400:	41 55                	push   r13
7402:	41 54                	push   r12
7404:	55                   	push   rbp
7405:	53                   	push   rbx
7406:	89 fb                	mov    ebx,edi
7408:	48 83 ec 08          	sub    rsp,0x8
740c:	83 ff 02             	cmp    edi,0x2
740f:	77 21                	ja     7432 <fd_safer+0x32>
7411:	e8 6a 13 00 00       	call   8780 <dup_safer>
7416:	41 89 c4             	mov    r12d,eax
7419:	e8 52 a7 ff ff       	call   1b70 <__errno_location@plt>
741e:	44 8b 28             	mov    r13d,DWORD PTR [rax]
7421:	48 89 c5             	mov    rbp,rax
7424:	89 df                	mov    edi,ebx
7426:	e8 f5 a8 ff ff       	call   1d20 <close@plt>
742b:	44 89 e3             	mov    ebx,r12d
742e:	44 89 6d 00          	mov    DWORD PTR [rbp+0x0],r13d
7432:	48 83 c4 08          	add    rsp,0x8
7436:	89 d8                	mov    eax,ebx
7438:	5b                   	pop    rbx
7439:	5d                   	pop    rbp
743a:	41 5c                	pop    r12
743c:	41 5d                	pop    r13
743e:	c3                   	ret
743f:	90                   	nop

0000000000007440 <version_etc_arn>:
7440:	41 57                	push   r15
7442:	41 56                	push   r14
7444:	41 55                	push   r13
7446:	41 54                	push   r12
7448:	4d 89 cc             	mov    r12,r9
744b:	55                   	push   rbp
744c:	53                   	push   rbx
744d:	48 89 fd             	mov    rbp,rdi
7450:	4c 89 c3             	mov    rbx,r8
7453:	48 83 ec 28          	sub    rsp,0x28
7457:	48 85 f6             	test   rsi,rsi
745a:	0f 84 18 01 00 00    	je     7578 <version_etc_arn+0x138>
7460:	49 89 d0             	mov    r8,rdx
7463:	48 8d 15 7e 2c 00 00 	lea    rdx,[rip+0x2c7e]        # a0e8 <quoting_style_vals+0x28>
746a:	49 89 c9             	mov    r9,rcx
746d:	31 c0                	xor    eax,eax
746f:	48 89 f1             	mov    rcx,rsi
7472:	be 01 00 00 00       	mov    esi,0x1
7477:	e8 c4 aa ff ff       	call   1f40 <__fprintf_chk@plt>
747c:	48 8d 35 78 2c 00 00 	lea    rsi,[rip+0x2c78]        # a0fb <quoting_style_vals+0x3b>
7483:	31 ff                	xor    edi,edi
7485:	ba 05 00 00 00       	mov    edx,0x5
748a:	e8 b1 a7 ff ff       	call   1c40 <dcgettext@plt>
748f:	48 8d 15 8a 2f 00 00 	lea    rdx,[rip+0x2f8a]        # a420 <version_etc_copyright>
7496:	48 89 c1             	mov    rcx,rax
7499:	41 b8 e3 07 00 00    	mov    r8d,0x7e3
749f:	be 01 00 00 00       	mov    esi,0x1
74a4:	48 89 ef             	mov    rdi,rbp
74a7:	31 c0                	xor    eax,eax
74a9:	e8 92 aa ff ff       	call   1f40 <__fprintf_chk@plt>
74ae:	48 8d 35 d3 2c 00 00 	lea    rsi,[rip+0x2cd3]        # a188 <quoting_style_vals+0xc8>
74b5:	31 ff                	xor    edi,edi
74b7:	ba 05 00 00 00       	mov    edx,0x5
74bc:	e8 7f a7 ff ff       	call   1c40 <dcgettext@plt>
74c1:	48 89 ee             	mov    rsi,rbp
74c4:	48 89 c7             	mov    rdi,rax
74c7:	e8 b4 a8 ff ff       	call   1d80 <fputs_unlocked@plt>
74cc:	49 83 fc 09          	cmp    r12,0x9
74d0:	0f 87 3a 03 00 00    	ja     7810 <version_etc_arn+0x3d0>
74d6:	48 8d 15 07 2f 00 00 	lea    rdx,[rip+0x2f07]        # a3e4 <quoting_style_vals+0x324>
74dd:	4a 63 04 a2          	movsxd rax,DWORD PTR [rdx+r12*4]
74e1:	48 01 d0             	add    rax,rdx
74e4:	ff e0                	jmp    rax
74e6:	66 2e 0f 1f 84 00 00 	nop    WORD PTR cs:[rax+rax*1+0x0]
74ed:	00 00 00
74f0:	4c 8b 4b 38          	mov    r9,QWORD PTR [rbx+0x38]
74f4:	48 8b 43 10          	mov    rax,QWORD PTR [rbx+0x10]
74f8:	48 8d 35 f9 2d 00 00 	lea    rsi,[rip+0x2df9]        # a2f8 <quoting_style_vals+0x238>
74ff:	4c 8b 43 08          	mov    r8,QWORD PTR [rbx+0x8]
7503:	ba 05 00 00 00       	mov    edx,0x5
7508:	31 ff                	xor    edi,edi
750a:	4c 8b 6b 30          	mov    r13,QWORD PTR [rbx+0x30]
750e:	4c 8b 63 28          	mov    r12,QWORD PTR [rbx+0x28]
7512:	4c 89 4c 24 10       	mov    QWORD PTR [rsp+0x10],r9
7517:	4c 8b 7b 20          	mov    r15,QWORD PTR [rbx+0x20]
751b:	4c 8b 73 18          	mov    r14,QWORD PTR [rbx+0x18]
751f:	48 89 04 24          	mov    QWORD PTR [rsp],rax
7523:	4c 89 44 24 08       	mov    QWORD PTR [rsp+0x8],r8
7528:	48 8b 1b             	mov    rbx,QWORD PTR [rbx]
752b:	e8 10 a7 ff ff       	call   1c40 <dcgettext@plt>
7530:	48 83 ec 08          	sub    rsp,0x8
7534:	4c 8b 4c 24 18       	mov    r9,QWORD PTR [rsp+0x18]
7539:	48 89 c2             	mov    rdx,rax
753c:	48 89 d9             	mov    rcx,rbx
753f:	be 01 00 00 00       	mov    esi,0x1
7544:	48 89 ef             	mov    rdi,rbp
7547:	31 c0                	xor    eax,eax
7549:	41 51                	push   r9
754b:	41 55                	push   r13
754d:	41 54                	push   r12
754f:	41 57                	push   r15
7551:	41 56                	push   r14
7553:	4c 8b 4c 24 30       	mov    r9,QWORD PTR [rsp+0x30]
7558:	4c 8b 44 24 38       	mov    r8,QWORD PTR [rsp+0x38]
755d:	e8 de a9 ff ff       	call   1f40 <__fprintf_chk@plt>
7562:	48 83 c4 30          	add    rsp,0x30
7566:	48 83 c4 28          	add    rsp,0x28
756a:	5b                   	pop    rbx
756b:	5d                   	pop    rbp
756c:	41 5c                	pop    r12
756e:	41 5d                	pop    r13
7570:	41 5e                	pop    r14
7572:	41 5f                	pop    r15
7574:	c3                   	ret
7575:	0f 1f 00             	nop    DWORD PTR [rax]
7578:	49 89 c8             	mov    r8,rcx
757b:	48 89 d1             	mov    rcx,rdx
757e:	48 8d 15 6f 2b 00 00 	lea    rdx,[rip+0x2b6f]        # a0f4 <quoting_style_vals+0x34>
7585:	be 01 00 00 00       	mov    esi,0x1
758a:	31 c0                	xor    eax,eax
758c:	e8 af a9 ff ff       	call   1f40 <__fprintf_chk@plt>
7591:	e9 e6 fe ff ff       	jmp    747c <version_etc_arn+0x3c>
7596:	66 2e 0f 1f 84 00 00 	nop    WORD PTR cs:[rax+rax*1+0x0]
759d:	00 00 00
75a0:	4c 8b 53 40          	mov    r10,QWORD PTR [rbx+0x40]
75a4:	4c 8b 4b 38          	mov    r9,QWORD PTR [rbx+0x38]
75a8:	48 8d 35 79 2d 00 00 	lea    rsi,[rip+0x2d79]        # a328 <quoting_style_vals+0x268>
75af:	48 8b 43 10          	mov    rax,QWORD PTR [rbx+0x10]
75b3:	4c 8b 43 08          	mov    r8,QWORD PTR [rbx+0x8]
75b7:	ba 05 00 00 00       	mov    edx,0x5
75bc:	4c 8b 6b 30          	mov    r13,QWORD PTR [rbx+0x30]
75c0:	4c 8b 63 28          	mov    r12,QWORD PTR [rbx+0x28]
75c4:	4c 8b 7b 20          	mov    r15,QWORD PTR [rbx+0x20]
75c8:	4c 8b 73 18          	mov    r14,QWORD PTR [rbx+0x18]
75cc:	48 8b 1b             	mov    rbx,QWORD PTR [rbx]
75cf:	4c 89 54 24 18       	mov    QWORD PTR [rsp+0x18],r10
75d4:	4c 89 4c 24 10       	mov    QWORD PTR [rsp+0x10],r9
75d9:	48 89 04 24          	mov    QWORD PTR [rsp],rax
75dd:	4c 89 44 24 08       	mov    QWORD PTR [rsp+0x8],r8
75e2:	31 ff                	xor    edi,edi
75e4:	e8 57 a6 ff ff       	call   1c40 <dcgettext@plt>
75e9:	4c 8b 54 24 18       	mov    r10,QWORD PTR [rsp+0x18]
75ee:	41 52                	push   r10
75f0:	e9 3f ff ff ff       	jmp    7534 <version_etc_arn+0xf4>
75f5:	0f 1f 00             	nop    DWORD PTR [rax]
75f8:	48 8b 1b             	mov    rbx,QWORD PTR [rbx]
75fb:	48 8d 35 fd 2a 00 00 	lea    rsi,[rip+0x2afd]        # a0ff <quoting_style_vals+0x3f>
7602:	ba 05 00 00 00       	mov    edx,0x5
7607:	31 ff                	xor    edi,edi
7609:	e8 32 a6 ff ff       	call   1c40 <dcgettext@plt>
760e:	48 83 c4 28          	add    rsp,0x28
7612:	48 89 d9             	mov    rcx,rbx
7615:	48 89 ef             	mov    rdi,rbp
7618:	5b                   	pop    rbx
7619:	5d                   	pop    rbp
761a:	41 5c                	pop    r12
761c:	41 5d                	pop    r13
761e:	41 5e                	pop    r14
7620:	41 5f                	pop    r15
7622:	48 89 c2             	mov    rdx,rax
7625:	be 01 00 00 00       	mov    esi,0x1
762a:	31 c0                	xor    eax,eax
762c:	e9 0f a9 ff ff       	jmp    1f40 <__fprintf_chk@plt>
7631:	0f 1f 80 00 00 00 00 	nop    DWORD PTR [rax+0x0]
7638:	4c 8b 63 08          	mov    r12,QWORD PTR [rbx+0x8]
763c:	48 8d 35 cc 2a 00 00 	lea    rsi,[rip+0x2acc]        # a10f <quoting_style_vals+0x4f>
7643:	48 8b 1b             	mov    rbx,QWORD PTR [rbx]
7646:	ba 05 00 00 00       	mov    edx,0x5
764b:	31 ff                	xor    edi,edi
764d:	e8 ee a5 ff ff       	call   1c40 <dcgettext@plt>
7652:	48 83 c4 28          	add    rsp,0x28
7656:	4d 89 e0             	mov    r8,r12
7659:	48 89 d9             	mov    rcx,rbx
765c:	48 89 ef             	mov    rdi,rbp
765f:	48 89 c2             	mov    rdx,rax
7662:	be 01 00 00 00       	mov    esi,0x1
7667:	5b                   	pop    rbx
7668:	5d                   	pop    rbp
7669:	41 5c                	pop    r12
766b:	41 5d                	pop    r13
766d:	41 5e                	pop    r14
766f:	41 5f                	pop    r15
7671:	31 c0                	xor    eax,eax
7673:	e9 c8 a8 ff ff       	jmp    1f40 <__fprintf_chk@plt>
7678:	0f 1f 84 00 00 00 00 	nop    DWORD PTR [rax+rax*1+0x0]
767f:	00
7680:	4c 8b 6b 10          	mov    r13,QWORD PTR [rbx+0x10]
7684:	4c 8b 63 08          	mov    r12,QWORD PTR [rbx+0x8]
7688:	48 8d 35 97 2a 00 00 	lea    rsi,[rip+0x2a97]        # a126 <quoting_style_vals+0x66>
768f:	48 8b 1b             	mov    rbx,QWORD PTR [rbx]
7692:	ba 05 00 00 00       	mov    edx,0x5
7697:	31 ff                	xor    edi,edi
7699:	e8 a2 a5 ff ff       	call   1c40 <dcgettext@plt>
769e:	48 83 c4 28          	add    rsp,0x28
76a2:	4d 89 e9             	mov    r9,r13
76a5:	4d 89 e0             	mov    r8,r12
76a8:	48 89 d9             	mov    rcx,rbx
76ab:	48 89 ef             	mov    rdi,rbp
76ae:	48 89 c2             	mov    rdx,rax
76b1:	5b                   	pop    rbx
76b2:	5d                   	pop    rbp
76b3:	41 5c                	pop    r12
76b5:	41 5d                	pop    r13
76b7:	41 5e                	pop    r14
76b9:	41 5f                	pop    r15
76bb:	be 01 00 00 00       	mov    esi,0x1
76c0:	31 c0                	xor    eax,eax
76c2:	e9 79 a8 ff ff       	jmp    1f40 <__fprintf_chk@plt>
76c7:	66 0f 1f 84 00 00 00 	nop    WORD PTR [rax+rax*1+0x0]
76ce:	00 00
76d0:	48 8d 35 81 2b 00 00 	lea    rsi,[rip+0x2b81]        # a258 <quoting_style_vals+0x198>
76d7:	ba 05 00 00 00       	mov    edx,0x5
76dc:	31 ff                	xor    edi,edi
76de:	4c 8b 73 18          	mov    r14,QWORD PTR [rbx+0x18]
76e2:	4c 8b 6b 10          	mov    r13,QWORD PTR [rbx+0x10]
76e6:	4c 8b 63 08          	mov    r12,QWORD PTR [rbx+0x8]
76ea:	48 8b 1b             	mov    rbx,QWORD PTR [rbx]
76ed:	e8 4e a5 ff ff       	call   1c40 <dcgettext@plt>
76f2:	48 83 ec 08          	sub    rsp,0x8
76f6:	41 56                	push   r14
76f8:	48 89 c2             	mov    rdx,rax
76fb:	4d 89 e9             	mov    r9,r13
76fe:	4d 89 e0             	mov    r8,r12
7701:	48 89 d9             	mov    rcx,rbx
7704:	48 89 ef             	mov    rdi,rbp
7707:	be 01 00 00 00       	mov    esi,0x1
770c:	31 c0                	xor    eax,eax
770e:	e8 2d a8 ff ff       	call   1f40 <__fprintf_chk@plt>
7713:	58                   	pop    rax
7714:	5a                   	pop    rdx
7715:	48 83 c4 28          	add    rsp,0x28
7719:	5b                   	pop    rbx
771a:	5d                   	pop    rbp
771b:	41 5c                	pop    r12
771d:	41 5d                	pop    r13
771f:	41 5e                	pop    r14
7721:	41 5f                	pop    r15
7723:	c3                   	ret
7724:	0f 1f 40 00          	nop    DWORD PTR [rax+0x0]
7728:	4c 8b 7b 20          	mov    r15,QWORD PTR [rbx+0x20]
772c:	48 8d 35 45 2b 00 00 	lea    rsi,[rip+0x2b45]        # a278 <quoting_style_vals+0x1b8>
7733:	ba 05 00 00 00       	mov    edx,0x5
7738:	31 ff                	xor    edi,edi
773a:	4c 8b 73 18          	mov    r14,QWORD PTR [rbx+0x18]
773e:	4c 8b 6b 10          	mov    r13,QWORD PTR [rbx+0x10]
7742:	4c 8b 63 08          	mov    r12,QWORD PTR [rbx+0x8]
7746:	48 8b 1b             	mov    rbx,QWORD PTR [rbx]
7749:	e8 f2 a4 ff ff       	call   1c40 <dcgettext@plt>
774e:	41 57                	push   r15
7750:	eb a4                	jmp    76f6 <version_etc_arn+0x2b6>
7752:	66 0f 1f 44 00 00    	nop    WORD PTR [rax+rax*1+0x0]
7758:	4c 8b 43 08          	mov    r8,QWORD PTR [rbx+0x8]
775c:	4c 8b 63 28          	mov    r12,QWORD PTR [rbx+0x28]
7760:	48 8d 35 39 2b 00 00 	lea    rsi,[rip+0x2b39]        # a2a0 <quoting_style_vals+0x1e0>
7767:	4c 8b 7b 20          	mov    r15,QWORD PTR [rbx+0x20]
776b:	4c 8b 73 18          	mov    r14,QWORD PTR [rbx+0x18]
776f:	ba 05 00 00 00       	mov    edx,0x5
7774:	4c 8b 6b 10          	mov    r13,QWORD PTR [rbx+0x10]
7778:	31 ff                	xor    edi,edi
777a:	48 8b 1b             	mov    rbx,QWORD PTR [rbx]
777d:	4c 89 04 24          	mov    QWORD PTR [rsp],r8
7781:	e8 ba a4 ff ff       	call   1c40 <dcgettext@plt>
7786:	48 83 ec 08          	sub    rsp,0x8
778a:	4d 89 e9             	mov    r9,r13
778d:	41 54                	push   r12
778f:	41 57                	push   r15
7791:	41 56                	push   r14
7793:	4c 8b 44 24 20       	mov    r8,QWORD PTR [rsp+0x20]
7798:	48 89 d9             	mov    rcx,rbx
779b:	48 89 c2             	mov    rdx,rax
779e:	48 89 ef             	mov    rdi,rbp
77a1:	be 01 00 00 00       	mov    esi,0x1
77a6:	31 c0                	xor    eax,eax
77a8:	e8 93 a7 ff ff       	call   1f40 <__fprintf_chk@plt>
77ad:	48 83 c4 20          	add    rsp,0x20
77b1:	48 83 c4 28          	add    rsp,0x28
77b5:	5b                   	pop    rbx
77b6:	5d                   	pop    rbp
77b7:	41 5c                	pop    r12
77b9:	41 5d                	pop    r13
77bb:	41 5e                	pop    r14
77bd:	41 5f                	pop    r15
77bf:	c3                   	ret
77c0:	4c 8b 4b 10          	mov    r9,QWORD PTR [rbx+0x10]
77c4:	4c 8b 6b 30          	mov    r13,QWORD PTR [rbx+0x30]
77c8:	48 8d 35 f9 2a 00 00 	lea    rsi,[rip+0x2af9]        # a2c8 <quoting_style_vals+0x208>
77cf:	4c 8b 63 28          	mov    r12,QWORD PTR [rbx+0x28]
77d3:	4c 8b 7b 20          	mov    r15,QWORD PTR [rbx+0x20]
77d7:	ba 05 00 00 00       	mov    edx,0x5
77dc:	4c 8b 73 18          	mov    r14,QWORD PTR [rbx+0x18]
77e0:	4c 8b 43 08          	mov    r8,QWORD PTR [rbx+0x8]
77e4:	31 ff                	xor    edi,edi
77e6:	4c 89 4c 24 08       	mov    QWORD PTR [rsp+0x8],r9
77eb:	48 8b 1b             	mov    rbx,QWORD PTR [rbx]
77ee:	4c 89 04 24          	mov    QWORD PTR [rsp],r8
77f2:	e8 49 a4 ff ff       	call   1c40 <dcgettext@plt>
77f7:	41 55                	push   r13
77f9:	41 54                	push   r12
77fb:	41 57                	push   r15
77fd:	41 56                	push   r14
77ff:	4c 8b 4c 24 28       	mov    r9,QWORD PTR [rsp+0x28]
7804:	eb 8d                	jmp    7793 <version_etc_arn+0x353>
7806:	66 2e 0f 1f 84 00 00 	nop    WORD PTR cs:[rax+rax*1+0x0]
780d:	00 00 00
7810:	4c 8b 53 40          	mov    r10,QWORD PTR [rbx+0x40]
7814:	4c 8b 4b 38          	mov    r9,QWORD PTR [rbx+0x38]
7818:	ba 05 00 00 00       	mov    edx,0x5
781d:	48 8b 43 10          	mov    rax,QWORD PTR [rbx+0x10]
7821:	4c 8b 43 08          	mov    r8,QWORD PTR [rbx+0x8]
7825:	48 8d 35 34 2b 00 00 	lea    rsi,[rip+0x2b34]        # a360 <quoting_style_vals+0x2a0>
782c:	4c 8b 6b 30          	mov    r13,QWORD PTR [rbx+0x30]
7830:	4c 8b 63 28          	mov    r12,QWORD PTR [rbx+0x28]
7834:	4c 8b 7b 20          	mov    r15,QWORD PTR [rbx+0x20]
7838:	4c 8b 73 18          	mov    r14,QWORD PTR [rbx+0x18]
783c:	4c 89 54 24 18       	mov    QWORD PTR [rsp+0x18],r10
7841:	4c 89 4c 24 10       	mov    QWORD PTR [rsp+0x10],r9
7846:	48 89 04 24          	mov    QWORD PTR [rsp],rax
784a:	4c 89 44 24 08       	mov    QWORD PTR [rsp+0x8],r8
784f:	48 8b 1b             	mov    rbx,QWORD PTR [rbx]
7852:	e9 8b fd ff ff       	jmp    75e2 <version_etc_arn+0x1a2>
7857:	66 0f 1f 84 00 00 00 	nop    WORD PTR [rax+rax*1+0x0]
785e:	00 00

0000000000007860 <version_etc_ar>:
7860:	45 31 c9             	xor    r9d,r9d
7863:	49 83 38 00          	cmp    QWORD PTR [r8],0x0
7867:	74 12                	je     787b <version_etc_ar+0x1b>
7869:	0f 1f 80 00 00 00 00 	nop    DWORD PTR [rax+0x0]
7870:	49 83 c1 01          	add    r9,0x1
7874:	4b 83 3c c8 00       	cmp    QWORD PTR [r8+r9*8],0x0
7879:	75 f5                	jne    7870 <version_etc_ar+0x10>
787b:	e9 c0 fb ff ff       	jmp    7440 <version_etc_arn>

0000000000007880 <version_etc_va>:
7880:	48 83 ec 68          	sub    rsp,0x68
7884:	4d 89 c2             	mov    r10,r8
7887:	45 31 c9             	xor    r9d,r9d
788a:	64 48 8b 04 25 28 00 	mov    rax,QWORD PTR fs:0x28
7891:	00 00
7893:	48 89 44 24 58       	mov    QWORD PTR [rsp+0x58],rax
7898:	31 c0                	xor    eax,eax
789a:	49 89 e0             	mov    r8,rsp
789d:	0f 1f 00             	nop    DWORD PTR [rax]
78a0:	41 8b 02             	mov    eax,DWORD PTR [r10]
78a3:	83 f8 2f             	cmp    eax,0x2f
78a6:	77 42                	ja     78ea <version_etc_va+0x6a>
78a8:	41 89 c3             	mov    r11d,eax
78ab:	4d 03 5a 10          	add    r11,QWORD PTR [r10+0x10]
78af:	83 c0 08             	add    eax,0x8
78b2:	41 89 02             	mov    DWORD PTR [r10],eax
78b5:	49 8b 03             	mov    rax,QWORD PTR [r11]
78b8:	48 85 c0             	test   rax,rax
78bb:	4b 89 04 c8          	mov    QWORD PTR [r8+r9*8],rax
78bf:	74 0a                	je     78cb <version_etc_va+0x4b>
78c1:	49 83 c1 01          	add    r9,0x1
78c5:	49 83 f9 0a          	cmp    r9,0xa
78c9:	75 d5                	jne    78a0 <version_etc_va+0x20>
78cb:	e8 70 fb ff ff       	call   7440 <version_etc_arn>
78d0:	48 8b 44 24 58       	mov    rax,QWORD PTR [rsp+0x58]
78d5:	64 48 33 04 25 28 00 	xor    rax,QWORD PTR fs:0x28
78dc:	00 00
78de:	75 05                	jne    78e5 <version_etc_va+0x65>
78e0:	48 83 c4 68          	add    rsp,0x68
78e4:	c3                   	ret
78e5:	e8 86 a3 ff ff       	call   1c70 <__stack_chk_fail@plt>
78ea:	4d 8b 5a 08          	mov    r11,QWORD PTR [r10+0x8]
78ee:	49 8d 43 08          	lea    rax,[r11+0x8]
78f2:	49 89 42 08          	mov    QWORD PTR [r10+0x8],rax
78f6:	eb bd                	jmp    78b5 <version_etc_va+0x35>
78f8:	0f 1f 84 00 00 00 00 	nop    DWORD PTR [rax+rax*1+0x0]
78ff:	00

0000000000007900 <version_etc>:
7900:	55                   	push   rbp
7901:	53                   	push   rbx
7902:	41 ba 20 00 00 00    	mov    r10d,0x20
7908:	45 31 db             	xor    r11d,r11d
790b:	48 81 ec b8 00 00 00 	sub    rsp,0xb8
7912:	64 48 8b 04 25 28 00 	mov    rax,QWORD PTR fs:0x28
7919:	00 00
791b:	48 89 44 24 78       	mov    QWORD PTR [rsp+0x78],rax
7920:	31 c0                	xor    eax,eax
7922:	48 8d 84 24 d0 00 00 	lea    rax,[rsp+0xd0]
7929:	00
792a:	4c 89 84 24 a0 00 00 	mov    QWORD PTR [rsp+0xa0],r8
7931:	00
7932:	48 8d 9c 24 d0 00 00 	lea    rbx,[rsp+0xd0]
7939:	00
793a:	4c 8d 44 24 20       	lea    r8,[rsp+0x20]
793f:	4c 89 8c 24 a8 00 00 	mov    QWORD PTR [rsp+0xa8],r9
7946:	00
7947:	c7 44 24 08 20 00 00 	mov    DWORD PTR [rsp+0x8],0x20
794e:	00
794f:	48 89 44 24 10       	mov    QWORD PTR [rsp+0x10],rax
7954:	48 8d 84 24 80 00 00 	lea    rax,[rsp+0x80]
795b:	00
795c:	45 31 c9             	xor    r9d,r9d
795f:	48 89 44 24 18       	mov    QWORD PTR [rsp+0x18],rax
7964:	48 89 c5             	mov    rbp,rax
7967:	66 0f 1f 84 00 00 00 	nop    WORD PTR [rax+rax*1+0x0]
796e:	00 00
7970:	41 83 fa 2f          	cmp    r10d,0x2f
7974:	77 56                	ja     79cc <version_etc+0xcc>
7976:	44 89 d0             	mov    eax,r10d
7979:	41 bb 01 00 00 00    	mov    r11d,0x1
797f:	41 83 c2 08          	add    r10d,0x8
7983:	48 01 e8             	add    rax,rbp
7986:	48 8b 00             	mov    rax,QWORD PTR [rax]
7989:	48 85 c0             	test   rax,rax
798c:	4b 89 04 c8          	mov    QWORD PTR [r8+r9*8],rax
7990:	74 0a                	je     799c <version_etc+0x9c>
7992:	49 83 c1 01          	add    r9,0x1
7996:	49 83 f9 0a          	cmp    r9,0xa
799a:	75 d4                	jne    7970 <version_etc+0x70>
799c:	45 84 db             	test   r11b,r11b
799f:	75 24                	jne    79c5 <version_etc+0xc5>
79a1:	e8 9a fa ff ff       	call   7440 <version_etc_arn>
79a6:	48 8b 44 24 78       	mov    rax,QWORD PTR [rsp+0x78]
79ab:	64 48 33 04 25 28 00 	xor    rax,QWORD PTR fs:0x28
79b2:	00 00
79b4:	75 0a                	jne    79c0 <version_etc+0xc0>
79b6:	48 81 c4 b8 00 00 00 	add    rsp,0xb8
79bd:	5b                   	pop    rbx
79be:	5d                   	pop    rbp
79bf:	c3                   	ret
79c0:	e8 ab a2 ff ff       	call   1c70 <__stack_chk_fail@plt>
79c5:	44 89 54 24 08       	mov    DWORD PTR [rsp+0x8],r10d
79ca:	eb d5                	jmp    79a1 <version_etc+0xa1>
79cc:	48 89 d8             	mov    rax,rbx
79cf:	48 83 c3 08          	add    rbx,0x8
79d3:	eb b1                	jmp    7986 <version_etc+0x86>
79d5:	90                   	nop
79d6:	66 2e 0f 1f 84 00 00 	nop    WORD PTR cs:[rax+rax*1+0x0]
79dd:	00 00 00

00000000000079e0 <emit_bug_reporting_address>:
79e0:	53                   	push   rbx
79e1:	48 8d 35 5a 27 00 00 	lea    rsi,[rip+0x275a]        # a142 <quoting_style_vals+0x82>
79e8:	ba 05 00 00 00       	mov    edx,0x5
79ed:	31 ff                	xor    edi,edi
79ef:	e8 4c a2 ff ff       	call   1c40 <dcgettext@plt>
79f4:	48 8d 15 5c 27 00 00 	lea    rdx,[rip+0x275c]        # a157 <quoting_style_vals+0x97>
79fb:	48 89 c6             	mov    rsi,rax
79fe:	bf 01 00 00 00       	mov    edi,0x1
7a03:	31 c0                	xor    eax,eax
7a05:	e8 76 a4 ff ff       	call   1e80 <__printf_chk@plt>
7a0a:	48 8d 35 5c 27 00 00 	lea    rsi,[rip+0x275c]        # a16d <quoting_style_vals+0xad>
7a11:	ba 05 00 00 00       	mov    edx,0x5
7a16:	31 ff                	xor    edi,edi
7a18:	e8 23 a2 ff ff       	call   1c40 <dcgettext@plt>
7a1d:	48 8d 0d 84 1e 00 00 	lea    rcx,[rip+0x1e84]        # 98a8 <_IO_stdin_used+0xde8>
7a24:	48 8d 15 56 12 00 00 	lea    rdx,[rip+0x1256]        # 8c81 <_IO_stdin_used+0x1c1>
7a2b:	48 89 c6             	mov    rsi,rax
7a2e:	bf 01 00 00 00       	mov    edi,0x1
7a33:	31 c0                	xor    eax,eax
7a35:	e8 46 a4 ff ff       	call   1e80 <__printf_chk@plt>
7a3a:	48 8b 1d 27 48 20 00 	mov    rbx,QWORD PTR [rip+0x204827]        # 20c268 <stdout@@GLIBC_2.2.5>
7a41:	48 8d 35 58 29 00 00 	lea    rsi,[rip+0x2958]        # a3a0 <quoting_style_vals+0x2e0>
7a48:	31 ff                	xor    edi,edi
7a4a:	ba 05 00 00 00       	mov    edx,0x5
7a4f:	e8 ec a1 ff ff       	call   1c40 <dcgettext@plt>
7a54:	48 89 de             	mov    rsi,rbx
7a57:	48 89 c7             	mov    rdi,rax
7a5a:	5b                   	pop    rbx
7a5b:	e9 20 a3 ff ff       	jmp    1d80 <fputs_unlocked@plt>

0000000000007a60 <xmalloc>:
7a60:	53                   	push   rbx
7a61:	48 89 fb             	mov    rbx,rdi
7a64:	e8 87 a3 ff ff       	call   1df0 <malloc@plt>
7a69:	48 85 c0             	test   rax,rax
7a6c:	75 05                	jne    7a73 <xmalloc+0x13>
7a6e:	48 85 db             	test   rbx,rbx
7a71:	75 02                	jne    7a75 <xmalloc+0x15>
7a73:	5b                   	pop    rbx
7a74:	c3                   	ret
7a75:	e8 36 02 00 00       	call   7cb0 <xalloc_die>
7a7a:	66 0f 1f 44 00 00    	nop    WORD PTR [rax+rax*1+0x0]

0000000000007a80 <xnmalloc>:
7a80:	48 89 f8             	mov    rax,rdi
7a83:	48 f7 e6             	mul    rsi
7a86:	48 89 c7             	mov    rdi,rax
7a89:	0f 90 c0             	seto   al
7a8c:	48 85 ff             	test   rdi,rdi
7a8f:	78 0a                	js     7a9b <xnmalloc+0x1b>
7a91:	0f b6 c0             	movzx  eax,al
7a94:	48 85 c0             	test   rax,rax
7a97:	75 02                	jne    7a9b <xnmalloc+0x1b>
7a99:	eb c5                	jmp    7a60 <xmalloc>
7a9b:	48 83 ec 08          	sub    rsp,0x8
7a9f:	e8 0c 02 00 00       	call   7cb0 <xalloc_die>
7aa4:	66 90                	xchg   ax,ax
7aa6:	66 2e 0f 1f 84 00 00 	nop    WORD PTR cs:[rax+rax*1+0x0]
7aad:	00 00 00

0000000000007ab0 <xcharalloc>:
7ab0:	eb ae                	jmp    7a60 <xmalloc>
7ab2:	0f 1f 40 00          	nop    DWORD PTR [rax+0x0]
7ab6:	66 2e 0f 1f 84 00 00 	nop    WORD PTR cs:[rax+rax*1+0x0]
7abd:	00 00 00

0000000000007ac0 <xrealloc>:
7ac0:	48 85 f6             	test   rsi,rsi
7ac3:	53                   	push   rbx
7ac4:	48 89 f3             	mov    rbx,rsi
7ac7:	75 05                	jne    7ace <xrealloc+0xe>
7ac9:	48 85 ff             	test   rdi,rdi
7acc:	75 1a                	jne    7ae8 <xrealloc+0x28>
7ace:	48 89 de             	mov    rsi,rbx
7ad1:	e8 7a a3 ff ff       	call   1e50 <realloc@plt>
7ad6:	48 85 c0             	test   rax,rax
7ad9:	75 05                	jne    7ae0 <xrealloc+0x20>
7adb:	48 85 db             	test   rbx,rbx
7ade:	75 11                	jne    7af1 <xrealloc+0x31>
7ae0:	5b                   	pop    rbx
7ae1:	c3                   	ret
7ae2:	66 0f 1f 44 00 00    	nop    WORD PTR [rax+rax*1+0x0]
7ae8:	e8 63 a0 ff ff       	call   1b50 <free@plt>
7aed:	31 c0                	xor    eax,eax
7aef:	5b                   	pop    rbx
7af0:	c3                   	ret
7af1:	e8 ba 01 00 00       	call   7cb0 <xalloc_die>
7af6:	66 2e 0f 1f 84 00 00 	nop    WORD PTR cs:[rax+rax*1+0x0]
7afd:	00 00 00

0000000000007b00 <xnrealloc>:
7b00:	48 89 f0             	mov    rax,rsi
7b03:	48 f7 e2             	mul    rdx
7b06:	48 89 c6             	mov    rsi,rax
7b09:	0f 90 c0             	seto   al
7b0c:	48 85 f6             	test   rsi,rsi
7b0f:	78 0a                	js     7b1b <xnrealloc+0x1b>
7b11:	0f b6 c0             	movzx  eax,al
7b14:	48 85 c0             	test   rax,rax
7b17:	75 02                	jne    7b1b <xnrealloc+0x1b>
7b19:	eb a5                	jmp    7ac0 <xrealloc>
7b1b:	48 83 ec 08          	sub    rsp,0x8
7b1f:	e8 8c 01 00 00       	call   7cb0 <xalloc_die>
7b24:	66 90                	xchg   ax,ax
7b26:	66 2e 0f 1f 84 00 00 	nop    WORD PTR cs:[rax+rax*1+0x0]
7b2d:	00 00 00

0000000000007b30 <x2nrealloc>:
7b30:	48 85 ff             	test   rdi,rdi
7b33:	49 89 d1             	mov    r9,rdx
7b36:	48 8b 0e             	mov    rcx,QWORD PTR [rsi]
7b39:	74 35                	je     7b70 <x2nrealloc+0x40>
7b3b:	31 d2                	xor    edx,edx
7b3d:	48 b8 54 55 55 55 55 	movabs rax,0x5555555555555554
7b44:	55 55 55
7b47:	49 f7 f1             	div    r9
7b4a:	48 39 c8             	cmp    rax,rcx
7b4d:	76 3c                	jbe    7b8b <x2nrealloc+0x5b>
7b4f:	48 89 c8             	mov    rax,rcx
7b52:	48 d1 e8             	shr    rax,1
7b55:	48 8d 4c 08 01       	lea    rcx,[rax+rcx*1+0x1]
7b5a:	48 89 0e             	mov    QWORD PTR [rsi],rcx
7b5d:	49 0f af c9          	imul   rcx,r9
7b61:	48 89 ce             	mov    rsi,rcx
7b64:	e9 57 ff ff ff       	jmp    7ac0 <xrealloc>
7b69:	0f 1f 80 00 00 00 00 	nop    DWORD PTR [rax+0x0]
7b70:	48 85 c9             	test   rcx,rcx
7b73:	74 23                	je     7b98 <x2nrealloc+0x68>
7b75:	48 89 c8             	mov    rax,rcx
7b78:	49 f7 e1             	mul    r9
7b7b:	0f 90 c2             	seto   dl
7b7e:	48 85 c0             	test   rax,rax
7b81:	0f b6 d2             	movzx  edx,dl
7b84:	78 05                	js     7b8b <x2nrealloc+0x5b>
7b86:	48 85 d2             	test   rdx,rdx
7b89:	74 cf                	je     7b5a <x2nrealloc+0x2a>
7b8b:	48 83 ec 08          	sub    rsp,0x8
7b8f:	e8 1c 01 00 00       	call   7cb0 <xalloc_die>
7b94:	0f 1f 40 00          	nop    DWORD PTR [rax+0x0]
7b98:	31 d2                	xor    edx,edx
7b9a:	b8 80 00 00 00       	mov    eax,0x80
7b9f:	45 31 c0             	xor    r8d,r8d
7ba2:	49 f7 f1             	div    r9
7ba5:	48 85 c0             	test   rax,rax
7ba8:	41 0f 94 c0          	sete   r8b
7bac:	49 8d 0c 00          	lea    rcx,[r8+rax*1]
7bb0:	eb c3                	jmp    7b75 <x2nrealloc+0x45>
7bb2:	0f 1f 40 00          	nop    DWORD PTR [rax+0x0]
7bb6:	66 2e 0f 1f 84 00 00 	nop    WORD PTR cs:[rax+rax*1+0x0]
7bbd:	00 00 00

0000000000007bc0 <x2realloc>:
7bc0:	48 85 ff             	test   rdi,rdi
7bc3:	48 8b 06             	mov    rax,QWORD PTR [rsi]
7bc6:	74 28                	je     7bf0 <x2realloc+0x30>
7bc8:	48 ba 53 55 55 55 55 	movabs rdx,0x5555555555555553
7bcf:	55 55 55
7bd2:	48 39 d0             	cmp    rax,rdx
7bd5:	77 2a                	ja     7c01 <x2realloc+0x41>
7bd7:	48 89 c2             	mov    rdx,rax
7bda:	48 d1 ea             	shr    rdx,1
7bdd:	48 8d 44 02 01       	lea    rax,[rdx+rax*1+0x1]
7be2:	48 89 06             	mov    QWORD PTR [rsi],rax
7be5:	48 89 c6             	mov    rsi,rax
7be8:	e9 d3 fe ff ff       	jmp    7ac0 <xrealloc>
7bed:	0f 1f 00             	nop    DWORD PTR [rax]
7bf0:	48 85 c0             	test   rax,rax
7bf3:	ba 80 00 00 00       	mov    edx,0x80
7bf8:	48 0f 44 c2          	cmove  rax,rdx
7bfc:	48 85 c0             	test   rax,rax
7bff:	79 e1                	jns    7be2 <x2realloc+0x22>
7c01:	48 83 ec 08          	sub    rsp,0x8
7c05:	e8 a6 00 00 00       	call   7cb0 <xalloc_die>
7c0a:	66 0f 1f 44 00 00    	nop    WORD PTR [rax+rax*1+0x0]

0000000000007c10 <xzalloc>:
7c10:	53                   	push   rbx
7c11:	48 89 fb             	mov    rbx,rdi
7c14:	e8 47 fe ff ff       	call   7a60 <xmalloc>
7c19:	48 89 da             	mov    rdx,rbx
7c1c:	31 f6                	xor    esi,esi
7c1e:	48 89 c7             	mov    rdi,rax
7c21:	5b                   	pop    rbx
7c22:	e9 e9 a0 ff ff       	jmp    1d10 <memset@plt>
7c27:	66 0f 1f 84 00 00 00 	nop    WORD PTR [rax+rax*1+0x0]
7c2e:	00 00

0000000000007c30 <xcalloc>:
7c30:	48 89 f8             	mov    rax,rdi
7c33:	48 83 ec 08          	sub    rsp,0x8
7c37:	48 f7 e6             	mul    rsi
7c3a:	0f 90 c2             	seto   dl
7c3d:	48 85 c0             	test   rax,rax
7c40:	78 17                	js     7c59 <xcalloc+0x29>
7c42:	0f b6 d2             	movzx  edx,dl
7c45:	48 85 d2             	test   rdx,rdx
7c48:	75 0f                	jne    7c59 <xcalloc+0x29>
7c4a:	e8 41 a1 ff ff       	call   1d90 <calloc@plt>
7c4f:	48 85 c0             	test   rax,rax
7c52:	74 05                	je     7c59 <xcalloc+0x29>
7c54:	48 83 c4 08          	add    rsp,0x8
7c58:	c3                   	ret
7c59:	e8 52 00 00 00       	call   7cb0 <xalloc_die>
7c5e:	66 90                	xchg   ax,ax

0000000000007c60 <xmemdup>:
7c60:	55                   	push   rbp
7c61:	53                   	push   rbx
7c62:	48 89 fd             	mov    rbp,rdi
7c65:	48 89 f7             	mov    rdi,rsi
7c68:	48 89 f3             	mov    rbx,rsi
7c6b:	48 83 ec 08          	sub    rsp,0x8
7c6f:	e8 ec fd ff ff       	call   7a60 <xmalloc>
7c74:	48 83 c4 08          	add    rsp,0x8
7c78:	48 89 da             	mov    rdx,rbx
7c7b:	48 89 ee             	mov    rsi,rbp
7c7e:	5b                   	pop    rbx
7c7f:	5d                   	pop    rbp
7c80:	48 89 c7             	mov    rdi,rax
7c83:	e9 48 a1 ff ff       	jmp    1dd0 <memcpy@plt>
7c88:	0f 1f 84 00 00 00 00 	nop    DWORD PTR [rax+rax*1+0x0]
7c8f:	00

0000000000007c90 <xstrdup>:
7c90:	53                   	push   rbx
7c91:	48 89 fb             	mov    rbx,rdi
7c94:	e8 c7 9f ff ff       	call   1c60 <strlen@plt>
7c99:	48 89 df             	mov    rdi,rbx
7c9c:	48 8d 70 01          	lea    rsi,[rax+0x1]
7ca0:	5b                   	pop    rbx
7ca1:	eb bd                	jmp    7c60 <xmemdup>
7ca3:	66 2e 0f 1f 84 00 00 	nop    WORD PTR cs:[rax+rax*1+0x0]
7caa:	00 00 00
7cad:	0f 1f 00             	nop    DWORD PTR [rax]

0000000000007cb0 <xalloc_die>:
7cb0:	48 8d 35 98 27 00 00 	lea    rsi,[rip+0x2798]        # a44f <version_etc_copyright+0x2f>
7cb7:	48 83 ec 08          	sub    rsp,0x8
7cbb:	ba 05 00 00 00       	mov    edx,0x5
7cc0:	31 ff                	xor    edi,edi
7cc2:	e8 79 9f ff ff       	call   1c40 <dcgettext@plt>
7cc7:	8b 3d 63 43 20 00    	mov    edi,DWORD PTR [rip+0x204363]        # 20c030 <exit_failure>
7ccd:	48 8d 15 1a 11 00 00 	lea    rdx,[rip+0x111a]        # 8dee <_IO_stdin_used+0x32e>
7cd4:	48 89 c1             	mov    rcx,rax
7cd7:	31 f6                	xor    esi,esi
7cd9:	31 c0                	xor    eax,eax
7cdb:	e8 c0 a1 ff ff       	call   1ea0 <error@plt>
7ce0:	e8 7b 9e ff ff       	call   1b60 <abort@plt>
7ce5:	66 2e 0f 1f 84 00 00 	nop    WORD PTR cs:[rax+rax*1+0x0]
7cec:	00 00 00
7cef:	90                   	nop

0000000000007cf0 <xnumtoumax>:
7cf0:	41 57                	push   r15
7cf2:	41 56                	push   r14
7cf4:	49 89 cf             	mov    r15,rcx
7cf7:	41 55                	push   r13
7cf9:	41 54                	push   r12
7cfb:	49 89 d6             	mov    r14,rdx
7cfe:	55                   	push   rbp
7cff:	53                   	push   rbx
7d00:	89 f2                	mov    edx,esi
7d02:	31 f6                	xor    esi,esi
7d04:	49 89 fc             	mov    r12,rdi
7d07:	4d 89 cd             	mov    r13,r9
7d0a:	48 83 ec 18          	sub    rsp,0x18
7d0e:	48 89 e1             	mov    rcx,rsp
7d11:	8b 5c 24 50          	mov    ebx,DWORD PTR [rsp+0x50]
7d15:	64 48 8b 04 25 28 00 	mov    rax,QWORD PTR fs:0x28
7d1c:	00 00
7d1e:	48 89 44 24 08       	mov    QWORD PTR [rsp+0x8],rax
7d23:	31 c0                	xor    eax,eax
7d25:	e8 f6 00 00 00       	call   7e20 <xstrtoumax>
7d2a:	85 c0                	test   eax,eax
7d2c:	0f 85 8e 00 00 00    	jne    7dc0 <xnumtoumax+0xd0>
7d32:	48 8b 2c 24          	mov    rbp,QWORD PTR [rsp]
7d36:	4c 39 f5             	cmp    rbp,r14
7d39:	72 05                	jb     7d40 <xnumtoumax+0x50>
7d3b:	4c 39 fd             	cmp    rbp,r15
7d3e:	76 54                	jbe    7d94 <xnumtoumax+0xa4>
7d40:	e8 2b 9e ff ff       	call   1b70 <__errno_location@plt>
7d45:	48 81 fd 00 00 00 40 	cmp    rbp,0x40000000
7d4c:	49 89 c6             	mov    r14,rax
7d4f:	19 c0                	sbb    eax,eax
7d51:	83 e0 d7             	and    eax,0xffffffd7
7d54:	83 c0 4b             	add    eax,0x4b
7d57:	41 89 06             	mov    DWORD PTR [r14],eax
7d5a:	4c 89 e7             	mov    rdi,r12
7d5d:	e8 be f5 ff ff       	call   7320 <quote>
7d62:	41 8b 36             	mov    esi,DWORD PTR [r14]
7d65:	49 89 c0             	mov    r8,rax
7d68:	b8 00 00 00 00       	mov    eax,0x0
7d6d:	48 8d 15 76 10 00 00 	lea    rdx,[rip+0x1076]        # 8dea <_IO_stdin_used+0x32a>
7d74:	4c 89 e9             	mov    rcx,r13
7d77:	83 fe 16             	cmp    esi,0x16
7d7a:	0f 44 f0             	cmove  esi,eax
7d7d:	85 db                	test   ebx,ebx
7d7f:	b8 01 00 00 00       	mov    eax,0x1
7d84:	0f 44 d8             	cmove  ebx,eax
7d87:	31 c0                	xor    eax,eax
7d89:	89 df                	mov    edi,ebx
7d8b:	e8 10 a1 ff ff       	call   1ea0 <error@plt>
7d90:	48 8b 2c 24          	mov    rbp,QWORD PTR [rsp]
7d94:	48 8b 54 24 08       	mov    rdx,QWORD PTR [rsp+0x8]
7d99:	64 48 33 14 25 28 00 	xor    rdx,QWORD PTR fs:0x28
7da0:	00 00
7da2:	48 89 e8             	mov    rax,rbp
7da5:	75 44                	jne    7deb <xnumtoumax+0xfb>
7da7:	48 83 c4 18          	add    rsp,0x18
7dab:	5b                   	pop    rbx
7dac:	5d                   	pop    rbp
7dad:	41 5c                	pop    r12
7daf:	41 5d                	pop    r13
7db1:	41 5e                	pop    r14
7db3:	41 5f                	pop    r15
7db5:	c3                   	ret
7db6:	66 2e 0f 1f 84 00 00 	nop    WORD PTR cs:[rax+rax*1+0x0]
7dbd:	00 00 00
7dc0:	89 c5                	mov    ebp,eax
7dc2:	e8 a9 9d ff ff       	call   1b70 <__errno_location@plt>
7dc7:	83 fd 01             	cmp    ebp,0x1
7dca:	49 89 c6             	mov    r14,rax
7dcd:	74 11                	je     7de0 <xnumtoumax+0xf0>
7dcf:	83 fd 03             	cmp    ebp,0x3
7dd2:	75 86                	jne    7d5a <xnumtoumax+0x6a>
7dd4:	c7 00 00 00 00 00    	mov    DWORD PTR [rax],0x0
7dda:	e9 7b ff ff ff       	jmp    7d5a <xnumtoumax+0x6a>
7ddf:	90                   	nop
7de0:	c7 00 4b 00 00 00    	mov    DWORD PTR [rax],0x4b
7de6:	e9 6f ff ff ff       	jmp    7d5a <xnumtoumax+0x6a>
7deb:	e8 80 9e ff ff       	call   1c70 <__stack_chk_fail@plt>

0000000000007df0 <xdectoumax>:
7df0:	48 83 ec 10          	sub    rsp,0x10
7df4:	41 51                	push   r9
7df6:	4d 89 c1             	mov    r9,r8
7df9:	49 89 c8             	mov    r8,rcx
7dfc:	48 89 d1             	mov    rcx,rdx
7dff:	48 89 f2             	mov    rdx,rsi
7e02:	be 0a 00 00 00       	mov    esi,0xa
7e07:	e8 e4 fe ff ff       	call   7cf0 <xnumtoumax>
7e0c:	48 83 c4 18          	add    rsp,0x18
7e10:	c3                   	ret
7e11:	66 2e 0f 1f 84 00 00 	nop    WORD PTR cs:[rax+rax*1+0x0]
7e18:	00 00 00
7e1b:	0f 1f 44 00 00       	nop    DWORD PTR [rax+rax*1+0x0]

0000000000007e20 <xstrtoumax>:
7e20:	41 57                	push   r15
7e22:	41 56                	push   r14
7e24:	41 55                	push   r13
7e26:	41 54                	push   r12
7e28:	55                   	push   rbp
7e29:	53                   	push   rbx
7e2a:	48 83 ec 28          	sub    rsp,0x28
7e2e:	64 48 8b 04 25 28 00 	mov    rax,QWORD PTR fs:0x28
7e35:	00 00
7e37:	48 89 44 24 18       	mov    QWORD PTR [rsp+0x18],rax
7e3c:	31 c0                	xor    eax,eax
7e3e:	83 fa 24             	cmp    edx,0x24
7e41:	0f 87 5e 03 00 00    	ja     81a5 <xstrtoumax+0x385>
7e47:	48 8d 44 24 10       	lea    rax,[rsp+0x10]
7e4c:	49 89 f7             	mov    r15,rsi
7e4f:	48 85 f6             	test   rsi,rsi
7e52:	48 89 fd             	mov    rbp,rdi
7e55:	89 54 24 08          	mov    DWORD PTR [rsp+0x8],edx
7e59:	49 89 ce             	mov    r14,rcx
7e5c:	4d 89 c5             	mov    r13,r8
7e5f:	4c 0f 44 f8          	cmove  r15,rax
7e63:	e8 08 9d ff ff       	call   1b70 <__errno_location@plt>
7e68:	c7 00 00 00 00 00    	mov    DWORD PTR [rax],0x0
7e6e:	49 89 c4             	mov    r12,rax
7e71:	0f b6 5d 00          	movzx  ebx,BYTE PTR [rbp+0x0]
7e75:	e8 36 a1 ff ff       	call   1fb0 <__ctype_b_loc@plt>
7e7a:	8b 54 24 08          	mov    edx,DWORD PTR [rsp+0x8]
7e7e:	48 8b 30             	mov    rsi,QWORD PTR [rax]
7e81:	48 89 e8             	mov    rax,rbp
7e84:	eb 11                	jmp    7e97 <xstrtoumax+0x77>
7e86:	66 2e 0f 1f 84 00 00 	nop    WORD PTR cs:[rax+rax*1+0x0]
7e8d:	00 00 00
7e90:	48 83 c0 01          	add    rax,0x1
7e94:	0f b6 18             	movzx  ebx,BYTE PTR [rax]
7e97:	0f b6 cb             	movzx  ecx,bl
7e9a:	f6 44 4e 01 20       	test   BYTE PTR [rsi+rcx*2+0x1],0x20
7e9f:	75 ef                	jne    7e90 <xstrtoumax+0x70>
7ea1:	80 fb 2d             	cmp    bl,0x2d
7ea4:	74 52                	je     7ef8 <xstrtoumax+0xd8>
7ea6:	31 c9                	xor    ecx,ecx
7ea8:	4c 89 fe             	mov    rsi,r15
7eab:	48 89 ef             	mov    rdi,rbp
7eae:	e8 4d 9e ff ff       	call   1d00 <__strtoul_internal@plt>
7eb3:	49 8b 0f             	mov    rcx,QWORD PTR [r15]
7eb6:	48 89 c3             	mov    rbx,rax
7eb9:	48 39 e9             	cmp    rcx,rbp
7ebc:	74 2a                	je     7ee8 <xstrtoumax+0xc8>
7ebe:	41 8b 04 24          	mov    eax,DWORD PTR [r12]
7ec2:	85 c0                	test   eax,eax
7ec4:	74 62                	je     7f28 <xstrtoumax+0x108>
7ec6:	83 f8 22             	cmp    eax,0x22
7ec9:	bd 01 00 00 00       	mov    ebp,0x1
7ece:	75 28                	jne    7ef8 <xstrtoumax+0xd8>
7ed0:	4d 85 ed             	test   r13,r13
7ed3:	74 09                	je     7ede <xstrtoumax+0xbe>
7ed5:	44 0f b6 21          	movzx  r12d,BYTE PTR [rcx]
7ed9:	45 84 e4             	test   r12b,r12b
7edc:	75 79                	jne    7f57 <xstrtoumax+0x137>
7ede:	49 89 1e             	mov    QWORD PTR [r14],rbx
7ee1:	eb 1a                	jmp    7efd <xstrtoumax+0xdd>
7ee3:	0f 1f 44 00 00       	nop    DWORD PTR [rax+rax*1+0x0]
7ee8:	4d 85 ed             	test   r13,r13
7eeb:	48 89 4c 24 08       	mov    QWORD PTR [rsp+0x8],rcx
7ef0:	75 3e                	jne    7f30 <xstrtoumax+0x110>
7ef2:	66 0f 1f 44 00 00    	nop    WORD PTR [rax+rax*1+0x0]
7ef8:	bd 04 00 00 00       	mov    ebp,0x4
7efd:	48 8b 7c 24 18       	mov    rdi,QWORD PTR [rsp+0x18]
7f02:	64 48 33 3c 25 28 00 	xor    rdi,QWORD PTR fs:0x28
7f09:	00 00
7f0b:	89 e8                	mov    eax,ebp
7f0d:	0f 85 8d 02 00 00    	jne    81a0 <xstrtoumax+0x380>
7f13:	48 83 c4 28          	add    rsp,0x28
7f17:	5b                   	pop    rbx
7f18:	5d                   	pop    rbp
7f19:	41 5c                	pop    r12
7f1b:	41 5d                	pop    r13
7f1d:	41 5e                	pop    r14
7f1f:	41 5f                	pop    r15
7f21:	c3                   	ret
7f22:	66 0f 1f 44 00 00    	nop    WORD PTR [rax+rax*1+0x0]
7f28:	31 ed                	xor    ebp,ebp
7f2a:	eb a4                	jmp    7ed0 <xstrtoumax+0xb0>
7f2c:	0f 1f 40 00          	nop    DWORD PTR [rax+0x0]
7f30:	44 0f b6 65 00       	movzx  r12d,BYTE PTR [rbp+0x0]
7f35:	45 84 e4             	test   r12b,r12b
7f38:	74 be                	je     7ef8 <xstrtoumax+0xd8>
7f3a:	41 0f be f4          	movsx  esi,r12b
7f3e:	4c 89 ef             	mov    rdi,r13
7f41:	31 ed                	xor    ebp,ebp
7f43:	e8 68 9d ff ff       	call   1cb0 <strchr@plt>
7f48:	48 85 c0             	test   rax,rax
7f4b:	bb 01 00 00 00       	mov    ebx,0x1
7f50:	48 8b 4c 24 08       	mov    rcx,QWORD PTR [rsp+0x8]
7f55:	74 a1                	je     7ef8 <xstrtoumax+0xd8>
7f57:	41 0f be f4          	movsx  esi,r12b
7f5b:	4c 89 ef             	mov    rdi,r13
7f5e:	48 89 4c 24 08       	mov    QWORD PTR [rsp+0x8],rcx
7f63:	e8 48 9d ff ff       	call   1cb0 <strchr@plt>
7f68:	48 85 c0             	test   rax,rax
7f6b:	48 8b 4c 24 08       	mov    rcx,QWORD PTR [rsp+0x8]
7f70:	0f 84 c6 00 00 00    	je     803c <xstrtoumax+0x21c>
7f76:	41 8d 44 24 bb       	lea    eax,[r12-0x45]
7f7b:	3c 2f                	cmp    al,0x2f
7f7d:	77 51                	ja     7fd0 <xstrtoumax+0x1b0>
7f7f:	48 ba 45 89 30 00 44 	movabs rdx,0x814400308945
7f86:	81 00 00
7f89:	48 0f a3 c2          	bt     rdx,rax
7f8d:	73 41                	jae    7fd0 <xstrtoumax+0x1b0>
7f8f:	be 30 00 00 00       	mov    esi,0x30
7f94:	4c 89 ef             	mov    rdi,r13
7f97:	48 89 4c 24 08       	mov    QWORD PTR [rsp+0x8],rcx
7f9c:	e8 0f 9d ff ff       	call   1cb0 <strchr@plt>
7fa1:	48 85 c0             	test   rax,rax
7fa4:	48 8b 4c 24 08       	mov    rcx,QWORD PTR [rsp+0x8]
7fa9:	74 25                	je     7fd0 <xstrtoumax+0x1b0>
7fab:	0f b6 41 01          	movzx  eax,BYTE PTR [rcx+0x1]
7faf:	3c 44                	cmp    al,0x44
7fb1:	74 0c                	je     7fbf <xstrtoumax+0x19f>
7fb3:	3c 69                	cmp    al,0x69
7fb5:	0f 84 cd 01 00 00    	je     8188 <xstrtoumax+0x368>
7fbb:	3c 42                	cmp    al,0x42
7fbd:	75 11                	jne    7fd0 <xstrtoumax+0x1b0>
7fbf:	bf 02 00 00 00       	mov    edi,0x2
7fc4:	be e8 03 00 00       	mov    esi,0x3e8
7fc9:	eb 0f                	jmp    7fda <xstrtoumax+0x1ba>
7fcb:	0f 1f 44 00 00       	nop    DWORD PTR [rax+rax*1+0x0]
7fd0:	bf 01 00 00 00       	mov    edi,0x1
7fd5:	be 00 04 00 00       	mov    esi,0x400
7fda:	41 83 ec 42          	sub    r12d,0x42
7fde:	41 80 fc 35          	cmp    r12b,0x35
7fe2:	77 58                	ja     803c <xstrtoumax+0x21c>
7fe4:	48 8d 15 bd 24 00 00 	lea    rdx,[rip+0x24bd]        # a4a8 <version_etc_copyright+0x88>
7feb:	45 0f b6 e4          	movzx  r12d,r12b
7fef:	4a 63 04 a2          	movsxd rax,DWORD PTR [rdx+r12*4]
7ff3:	48 01 d0             	add    rax,rdx
7ff6:	ff e0                	jmp    rax
7ff8:	48 89 d8             	mov    rax,rbx
7ffb:	48 f7 e6             	mul    rsi
7ffe:	0f 80 ed 01 00 00    	jo     81f1 <xstrtoumax+0x3d1>
8004:	45 31 c0             	xor    r8d,r8d
8007:	48 f7 e6             	mul    rsi
800a:	0f 80 d2 01 00 00    	jo     81e2 <xstrtoumax+0x3c2>
8010:	48 89 c3             	mov    rbx,rax
8013:	44 09 c5             	or     ebp,r8d
8016:	66 2e 0f 1f 84 00 00 	nop    WORD PTR cs:[rax+rax*1+0x0]
801d:	00 00 00
8020:	48 63 ff             	movsxd rdi,edi
8023:	89 e8                	mov    eax,ebp
8025:	48 01 f9             	add    rcx,rdi
8028:	83 c8 02             	or     eax,0x2
802b:	49 89 0f             	mov    QWORD PTR [r15],rcx
802e:	80 39 00             	cmp    BYTE PTR [rcx],0x0
8031:	49 89 1e             	mov    QWORD PTR [r14],rbx
8034:	0f 45 e8             	cmovne ebp,eax
8037:	e9 c1 fe ff ff       	jmp    7efd <xstrtoumax+0xdd>
803c:	49 89 1e             	mov    QWORD PTR [r14],rbx
803f:	83 cd 02             	or     ebp,0x2
8042:	e9 b6 fe ff ff       	jmp    7efd <xstrtoumax+0xdd>
8047:	ba 02 00 00 00       	mov    edx,0x2
804c:	48 89 d0             	mov    rax,rdx
804f:	48 f7 e3             	mul    rbx
8052:	0f 80 96 00 00 00    	jo     80ee <xstrtoumax+0x2ce>
8058:	48 01 db             	add    rbx,rbx
805b:	eb c3                	jmp    8020 <xstrtoumax+0x200>
805d:	ba 00 02 00 00       	mov    edx,0x200
8062:	48 89 d0             	mov    rax,rdx
8065:	48 f7 e3             	mul    rbx
8068:	0f 80 80 00 00 00    	jo     80ee <xstrtoumax+0x2ce>
806e:	48 c1 e3 09          	shl    rbx,0x9
8072:	eb ac                	jmp    8020 <xstrtoumax+0x200>
8074:	41 b8 07 00 00 00    	mov    r8d,0x7
807a:	45 31 c9             	xor    r9d,r9d
807d:	0f 1f 00             	nop    DWORD PTR [rax]
8080:	48 89 d8             	mov    rax,rbx
8083:	48 f7 e6             	mul    rsi
8086:	48 89 c3             	mov    rbx,rax
8089:	0f 80 8f 01 00 00    	jo     821e <xstrtoumax+0x3fe>
808f:	41 83 e8 01          	sub    r8d,0x1
8093:	75 eb                	jne    8080 <xstrtoumax+0x260>
8095:	44 09 cd             	or     ebp,r9d
8098:	eb 86                	jmp    8020 <xstrtoumax+0x200>
809a:	41 b8 08 00 00 00    	mov    r8d,0x8
80a0:	45 31 c9             	xor    r9d,r9d
80a3:	0f 1f 44 00 00       	nop    DWORD PTR [rax+rax*1+0x0]
80a8:	48 89 d8             	mov    rax,rbx
80ab:	48 f7 e6             	mul    rsi
80ae:	48 89 c3             	mov    rbx,rax
80b1:	0f 80 49 01 00 00    	jo     8200 <xstrtoumax+0x3e0>
80b7:	41 83 e8 01          	sub    r8d,0x1
80bb:	75 eb                	jne    80a8 <xstrtoumax+0x288>
80bd:	eb d6                	jmp    8095 <xstrtoumax+0x275>
80bf:	41 b8 04 00 00 00    	mov    r8d,0x4
80c5:	45 31 c9             	xor    r9d,r9d
80c8:	48 89 d8             	mov    rax,rbx
80cb:	48 f7 e6             	mul    rsi
80ce:	48 89 c3             	mov    rbx,rax
80d1:	0f 80 fc 00 00 00    	jo     81d3 <xstrtoumax+0x3b3>
80d7:	41 83 e8 01          	sub    r8d,0x1
80db:	75 eb                	jne    80c8 <xstrtoumax+0x2a8>
80dd:	eb b6                	jmp    8095 <xstrtoumax+0x275>
80df:	48 89 d8             	mov    rax,rbx
80e2:	48 f7 e6             	mul    rsi
80e5:	48 89 c3             	mov    rbx,rax
80e8:	0f 81 32 ff ff ff    	jno    8020 <xstrtoumax+0x200>
80ee:	bd 01 00 00 00       	mov    ebp,0x1
80f3:	48 83 cb ff          	or     rbx,0xffffffffffffffff
80f7:	e9 24 ff ff ff       	jmp    8020 <xstrtoumax+0x200>
80fc:	0f 1f 40 00          	nop    DWORD PTR [rax+0x0]
8100:	41 b8 05 00 00 00    	mov    r8d,0x5
8106:	45 31 c9             	xor    r9d,r9d
8109:	48 89 d8             	mov    rax,rbx
810c:	48 f7 e6             	mul    rsi
810f:	48 89 c3             	mov    rbx,rax
8112:	0f 80 f7 00 00 00    	jo     820f <xstrtoumax+0x3ef>
8118:	41 83 e8 01          	sub    r8d,0x1
811c:	75 eb                	jne    8109 <xstrtoumax+0x2e9>
811e:	e9 72 ff ff ff       	jmp    8095 <xstrtoumax+0x275>
8123:	41 b8 06 00 00 00    	mov    r8d,0x6
8129:	45 31 c9             	xor    r9d,r9d
812c:	48 89 d8             	mov    rax,rbx
812f:	48 f7 e6             	mul    rsi
8132:	48 89 c3             	mov    rbx,rax
8135:	0f 80 89 00 00 00    	jo     81c4 <xstrtoumax+0x3a4>
813b:	41 83 e8 01          	sub    r8d,0x1
813f:	75 eb                	jne    812c <xstrtoumax+0x30c>
8141:	e9 4f ff ff ff       	jmp    8095 <xstrtoumax+0x275>
8146:	ba 00 04 00 00       	mov    edx,0x400
814b:	48 89 d0             	mov    rax,rdx
814e:	48 f7 e3             	mul    rbx
8151:	70 9b                	jo     80ee <xstrtoumax+0x2ce>
8153:	48 c1 e3 0a          	shl    rbx,0xa
8157:	e9 c4 fe ff ff       	jmp    8020 <xstrtoumax+0x200>
815c:	48 89 d8             	mov    rax,rbx
815f:	48 f7 e6             	mul    rsi
8162:	0f 80 c5 00 00 00    	jo     822d <xstrtoumax+0x40d>
8168:	45 31 c0             	xor    r8d,r8d
816b:	48 f7 e6             	mul    rsi
816e:	0f 81 93 fe ff ff    	jno    8007 <xstrtoumax+0x1e7>
8174:	41 b8 01 00 00 00    	mov    r8d,0x1
817a:	48 83 c8 ff          	or     rax,0xffffffffffffffff
817e:	e9 84 fe ff ff       	jmp    8007 <xstrtoumax+0x1e7>
8183:	0f 1f 44 00 00       	nop    DWORD PTR [rax+rax*1+0x0]
8188:	31 ff                	xor    edi,edi
818a:	80 79 02 42          	cmp    BYTE PTR [rcx+0x2],0x42
818e:	be 00 04 00 00       	mov    esi,0x400
8193:	40 0f 94 c7          	sete   dil
8197:	8d 7c 3f 01          	lea    edi,[rdi+rdi*1+0x1]
819b:	e9 3a fe ff ff       	jmp    7fda <xstrtoumax+0x1ba>
81a0:	e8 cb 9a ff ff       	call   1c70 <__stack_chk_fail@plt>
81a5:	48 8d 0d d4 23 00 00 	lea    rcx,[rip+0x23d4]        # a580 <__PRETTY_FUNCTION__.4162>
81ac:	48 8d 35 ad 22 00 00 	lea    rsi,[rip+0x22ad]        # a460 <version_etc_copyright+0x40>
81b3:	48 8d 3d c6 22 00 00 	lea    rdi,[rip+0x22c6]        # a480 <version_etc_copyright+0x60>
81ba:	ba 54 00 00 00       	mov    edx,0x54
81bf:	e8 2c 9b ff ff       	call   1cf0 <__assert_fail@plt>
81c4:	41 b9 01 00 00 00    	mov    r9d,0x1
81ca:	48 83 cb ff          	or     rbx,0xffffffffffffffff
81ce:	e9 68 ff ff ff       	jmp    813b <xstrtoumax+0x31b>
81d3:	41 b9 01 00 00 00    	mov    r9d,0x1
81d9:	48 83 cb ff          	or     rbx,0xffffffffffffffff
81dd:	e9 f5 fe ff ff       	jmp    80d7 <xstrtoumax+0x2b7>
81e2:	41 b8 01 00 00 00    	mov    r8d,0x1
81e8:	48 83 cb ff          	or     rbx,0xffffffffffffffff
81ec:	e9 22 fe ff ff       	jmp    8013 <xstrtoumax+0x1f3>
81f1:	48 83 c8 ff          	or     rax,0xffffffffffffffff
81f5:	41 b8 01 00 00 00    	mov    r8d,0x1
81fb:	e9 07 fe ff ff       	jmp    8007 <xstrtoumax+0x1e7>
8200:	41 b9 01 00 00 00    	mov    r9d,0x1
8206:	48 83 cb ff          	or     rbx,0xffffffffffffffff
820a:	e9 a8 fe ff ff       	jmp    80b7 <xstrtoumax+0x297>
820f:	41 b9 01 00 00 00    	mov    r9d,0x1
8215:	48 83 cb ff          	or     rbx,0xffffffffffffffff
8219:	e9 fa fe ff ff       	jmp    8118 <xstrtoumax+0x2f8>
821e:	41 b9 01 00 00 00    	mov    r9d,0x1
8224:	48 83 cb ff          	or     rbx,0xffffffffffffffff
8228:	e9 62 fe ff ff       	jmp    808f <xstrtoumax+0x26f>
822d:	41 b8 01 00 00 00    	mov    r8d,0x1
8233:	48 83 c8 ff          	or     rax,0xffffffffffffffff
8237:	e9 2f ff ff ff       	jmp    816b <xstrtoumax+0x34b>
823c:	0f 1f 40 00          	nop    DWORD PTR [rax+0x0]

0000000000008240 <rpl_fclose>:
8240:	41 54                	push   r12
8242:	55                   	push   rbp
8243:	53                   	push   rbx
8244:	48 89 fb             	mov    rbx,rdi
8247:	e8 94 9b ff ff       	call   1de0 <fileno@plt>
824c:	85 c0                	test   eax,eax
824e:	48 89 df             	mov    rdi,rbx
8251:	78 54                	js     82a7 <rpl_fclose+0x67>
8253:	e8 d8 9b ff ff       	call   1e30 <__freading@plt>
8258:	85 c0                	test   eax,eax
825a:	75 2c                	jne    8288 <rpl_fclose+0x48>
825c:	48 89 df             	mov    rdi,rbx
825f:	e8 5c 00 00 00       	call   82c0 <rpl_fflush>
8264:	85 c0                	test   eax,eax
8266:	74 3c                	je     82a4 <rpl_fclose+0x64>
8268:	e8 03 99 ff ff       	call   1b70 <__errno_location@plt>
826d:	44 8b 20             	mov    r12d,DWORD PTR [rax]
8270:	48 89 df             	mov    rdi,rbx
8273:	48 89 c5             	mov    rbp,rax
8276:	e8 a5 99 ff ff       	call   1c20 <fclose@plt>
827b:	45 85 e4             	test   r12d,r12d
827e:	75 30                	jne    82b0 <rpl_fclose+0x70>
8280:	5b                   	pop    rbx
8281:	5d                   	pop    rbp
8282:	41 5c                	pop    r12
8284:	c3                   	ret
8285:	0f 1f 00             	nop    DWORD PTR [rax]
8288:	48 89 df             	mov    rdi,rbx
828b:	e8 50 9b ff ff       	call   1de0 <fileno@plt>
8290:	31 f6                	xor    esi,esi
8292:	ba 01 00 00 00       	mov    edx,0x1
8297:	89 c7                	mov    edi,eax
8299:	e8 42 9a ff ff       	call   1ce0 <lseek@plt>
829e:	48 83 f8 ff          	cmp    rax,0xffffffffffffffff
82a2:	75 b8                	jne    825c <rpl_fclose+0x1c>
82a4:	48 89 df             	mov    rdi,rbx
82a7:	5b                   	pop    rbx
82a8:	5d                   	pop    rbp
82a9:	41 5c                	pop    r12
82ab:	e9 70 99 ff ff       	jmp    1c20 <fclose@plt>
82b0:	44 89 65 00          	mov    DWORD PTR [rbp+0x0],r12d
82b4:	b8 ff ff ff ff       	mov    eax,0xffffffff
82b9:	eb c5                	jmp    8280 <rpl_fclose+0x40>
82bb:	0f 1f 44 00 00       	nop    DWORD PTR [rax+rax*1+0x0]

00000000000082c0 <rpl_fflush>:
82c0:	48 85 ff             	test   rdi,rdi
82c3:	53                   	push   rbx
82c4:	48 89 fb             	mov    rbx,rdi
82c7:	74 11                	je     82da <rpl_fflush+0x1a>
82c9:	e8 62 9b ff ff       	call   1e30 <__freading@plt>
82ce:	85 c0                	test   eax,eax
82d0:	74 08                	je     82da <rpl_fflush+0x1a>
82d2:	f7 03 00 01 00 00    	test   DWORD PTR [rbx],0x100
82d8:	75 0e                	jne    82e8 <rpl_fflush+0x28>
82da:	48 89 df             	mov    rdi,rbx
82dd:	5b                   	pop    rbx
82de:	e9 1d 9b ff ff       	jmp    1e00 <fflush@plt>
82e3:	0f 1f 44 00 00       	nop    DWORD PTR [rax+rax*1+0x0]
82e8:	48 89 df             	mov    rdi,rbx
82eb:	ba 01 00 00 00       	mov    edx,0x1
82f0:	31 f6                	xor    esi,esi
82f2:	e8 09 00 00 00       	call   8300 <rpl_fseeko>
82f7:	48 89 df             	mov    rdi,rbx
82fa:	5b                   	pop    rbx
82fb:	e9 00 9b ff ff       	jmp    1e00 <fflush@plt>

0000000000008300 <rpl_fseeko>:
8300:	48 8b 47 08          	mov    rax,QWORD PTR [rdi+0x8]
8304:	48 39 47 10          	cmp    QWORD PTR [rdi+0x10],rax
8308:	74 06                	je     8310 <rpl_fseeko+0x10>
830a:	e9 d1 9b ff ff       	jmp    1ee0 <fseeko@plt>
830f:	90                   	nop
8310:	48 8b 47 20          	mov    rax,QWORD PTR [rdi+0x20]
8314:	48 39 47 28          	cmp    QWORD PTR [rdi+0x28],rax
8318:	75 f0                	jne    830a <rpl_fseeko+0xa>
831a:	48 83 7f 48 00       	cmp    QWORD PTR [rdi+0x48],0x0
831f:	75 e9                	jne    830a <rpl_fseeko+0xa>
8321:	41 54                	push   r12
8323:	55                   	push   rbp
8324:	41 89 d4             	mov    r12d,edx
8327:	53                   	push   rbx
8328:	48 89 f5             	mov    rbp,rsi
832b:	48 89 fb             	mov    rbx,rdi
832e:	e8 ad 9a ff ff       	call   1de0 <fileno@plt>
8333:	44 89 e2             	mov    edx,r12d
8336:	48 89 ee             	mov    rsi,rbp
8339:	89 c7                	mov    edi,eax
833b:	e8 a0 99 ff ff       	call   1ce0 <lseek@plt>
8340:	48 83 f8 ff          	cmp    rax,0xffffffffffffffff
8344:	74 0c                	je     8352 <rpl_fseeko+0x52>
8346:	83 23 ef             	and    DWORD PTR [rbx],0xffffffef
8349:	48 89 83 90 00 00 00 	mov    QWORD PTR [rbx+0x90],rax
8350:	31 c0                	xor    eax,eax
8352:	5b                   	pop    rbx
8353:	5d                   	pop    rbp
8354:	41 5c                	pop    r12
8356:	c3                   	ret
8357:	66 0f 1f 84 00 00 00 	nop    WORD PTR [rax+rax*1+0x0]
835e:	00 00

0000000000008360 <rpl_mbrtowc>:
8360:	41 55                	push   r13
8362:	41 54                	push   r12
8364:	49 89 f5             	mov    r13,rsi
8367:	55                   	push   rbp
8368:	53                   	push   rbx
8369:	48 89 fb             	mov    rbx,rdi
836c:	49 89 d4             	mov    r12,rdx
836f:	48 83 ec 18          	sub    rsp,0x18
8373:	64 48 8b 04 25 28 00 	mov    rax,QWORD PTR fs:0x28
837a:	00 00
837c:	48 89 44 24 08       	mov    QWORD PTR [rsp+0x8],rax
8381:	31 c0                	xor    eax,eax
8383:	48 8d 44 24 04       	lea    rax,[rsp+0x4]
8388:	48 85 ff             	test   rdi,rdi
838b:	48 0f 44 d8          	cmove  rbx,rax
838f:	48 89 df             	mov    rdi,rbx
8392:	e8 f9 98 ff ff       	call   1c90 <mbrtowc@plt>
8397:	48 83 f8 fd          	cmp    rax,0xfffffffffffffffd
839b:	48 89 c5             	mov    rbp,rax
839e:	76 20                	jbe    83c0 <rpl_mbrtowc+0x60>
83a0:	4d 85 e4             	test   r12,r12
83a3:	74 1b                	je     83c0 <rpl_mbrtowc+0x60>
83a5:	31 ff                	xor    edi,edi
83a7:	e8 34 03 00 00       	call   86e0 <hard_locale>
83ac:	84 c0                	test   al,al
83ae:	75 10                	jne    83c0 <rpl_mbrtowc+0x60>
83b0:	41 0f b6 45 00       	movzx  eax,BYTE PTR [r13+0x0]
83b5:	bd 01 00 00 00       	mov    ebp,0x1
83ba:	89 03                	mov    DWORD PTR [rbx],eax
83bc:	0f 1f 40 00          	nop    DWORD PTR [rax+0x0]
83c0:	48 8b 54 24 08       	mov    rdx,QWORD PTR [rsp+0x8]
83c5:	64 48 33 14 25 28 00 	xor    rdx,QWORD PTR fs:0x28
83cc:	00 00
83ce:	48 89 e8             	mov    rax,rbp
83d1:	75 0b                	jne    83de <rpl_mbrtowc+0x7e>
83d3:	48 83 c4 18          	add    rsp,0x18
83d7:	5b                   	pop    rbx
83d8:	5d                   	pop    rbp
83d9:	41 5c                	pop    r12
83db:	41 5d                	pop    r13
83dd:	c3                   	ret
83de:	e8 8d 98 ff ff       	call   1c70 <__stack_chk_fail@plt>
83e3:	66 2e 0f 1f 84 00 00 	nop    WORD PTR cs:[rax+rax*1+0x0]
83ea:	00 00 00
83ed:	0f 1f 00             	nop    DWORD PTR [rax]

00000000000083f0 <str2sig>:
83f0:	41 55                	push   r13
83f2:	41 54                	push   r12
83f4:	49 89 f5             	mov    r13,rsi
83f7:	55                   	push   rbp
83f8:	53                   	push   rbx
83f9:	31 db                	xor    ebx,ebx
83fb:	49 89 fc             	mov    r12,rdi
83fe:	48 8d 2d 9f 3c 20 00 	lea    rbp,[rip+0x203c9f]        # 20c0a4 <numname_table+0x4>
8405:	48 83 ec 18          	sub    rsp,0x18
8409:	64 48 8b 04 25 28 00 	mov    rax,QWORD PTR fs:0x28
8410:	00 00
8412:	48 89 44 24 08       	mov    QWORD PTR [rsp+0x8],rax
8417:	31 c0                	xor    eax,eax
8419:	0f be 07             	movsx  eax,BYTE PTR [rdi]
841c:	83 e8 30             	sub    eax,0x30
841f:	83 f8 09             	cmp    eax,0x9
8422:	77 18                	ja     843c <str2sig+0x4c>
8424:	eb 5a                	jmp    8480 <str2sig+0x90>
8426:	66 2e 0f 1f 84 00 00 	nop    WORD PTR cs:[rax+rax*1+0x0]
842d:	00 00 00
8430:	83 c3 01             	add    ebx,0x1
8433:	48 83 c5 0c          	add    rbp,0xc
8437:	83 fb 23             	cmp    ebx,0x23
843a:	74 74                	je     84b0 <str2sig+0xc0>
843c:	4c 89 e6             	mov    rsi,r12
843f:	48 89 ef             	mov    rdi,rbp
8442:	e8 59 99 ff ff       	call   1da0 <strcmp@plt>
8447:	85 c0                	test   eax,eax
8449:	75 e5                	jne    8430 <str2sig+0x40>
844b:	48 8d 14 5b          	lea    rdx,[rbx+rbx*2]
844f:	48 8d 05 4a 3c 20 00 	lea    rax,[rip+0x203c4a]        # 20c0a0 <numname_table>
8456:	8b 04 90             	mov    eax,DWORD PTR [rax+rdx*4]
8459:	41 89 45 00          	mov    DWORD PTR [r13+0x0],eax
845d:	c1 f8 1f             	sar    eax,0x1f
8460:	48 8b 4c 24 08       	mov    rcx,QWORD PTR [rsp+0x8]
8465:	64 48 33 0c 25 28 00 	xor    rcx,QWORD PTR fs:0x28
846c:	00 00
846e:	0f 85 fc 00 00 00    	jne    8570 <str2sig+0x180>
8474:	48 83 c4 18          	add    rsp,0x18
8478:	5b                   	pop    rbx
8479:	5d                   	pop    rbp
847a:	41 5c                	pop    r12
847c:	41 5d                	pop    r13
847e:	c3                   	ret
847f:	90                   	nop
8480:	ba 0a 00 00 00       	mov    edx,0xa
8485:	48 89 e6             	mov    rsi,rsp
8488:	e8 33 99 ff ff       	call   1dc0 <strtol@plt>
848d:	48 8b 14 24          	mov    rdx,QWORD PTR [rsp]
8491:	80 3a 00             	cmp    BYTE PTR [rdx],0x0
8494:	75 06                	jne    849c <str2sig+0xac>
8496:	48 83 f8 40          	cmp    rax,0x40
849a:	7e bd                	jle    8459 <str2sig+0x69>
849c:	41 c7 45 00 ff ff ff 	mov    DWORD PTR [r13+0x0],0xffffffff
84a3:	ff
84a4:	b8 ff ff ff ff       	mov    eax,0xffffffff
84a9:	eb b5                	jmp    8460 <str2sig+0x70>
84ab:	0f 1f 44 00 00       	nop    DWORD PTR [rax+rax*1+0x0]
84b0:	e8 5b 9a ff ff       	call   1f10 <__libc_current_sigrtmin@plt>
84b5:	89 c5                	mov    ebp,eax
84b7:	e8 94 9a ff ff       	call   1f50 <__libc_current_sigrtmax@plt>
84bc:	85 ed                	test   ebp,ebp
84be:	89 c3                	mov    ebx,eax
84c0:	7e 1a                	jle    84dc <str2sig+0xec>
84c2:	48 8d 3d c2 20 00 00 	lea    rdi,[rip+0x20c2]        # a58b <__PRETTY_FUNCTION__.4162+0xb>
84c9:	b9 05 00 00 00       	mov    ecx,0x5
84ce:	4c 89 e6             	mov    rsi,r12
84d1:	f3 a6                	repz cmps BYTE PTR ds:[rsi],BYTE PTR es:[rdi]
84d3:	0f 97 c0             	seta   al
84d6:	1c 00                	sbb    al,0x0
84d8:	84 c0                	test   al,al
84da:	74 57                	je     8533 <str2sig+0x143>
84dc:	85 db                	test   ebx,ebx
84de:	7e bc                	jle    849c <str2sig+0xac>
84e0:	48 8d 3d aa 20 00 00 	lea    rdi,[rip+0x20aa]        # a591 <__PRETTY_FUNCTION__.4162+0x11>
84e7:	b9 05 00 00 00       	mov    ecx,0x5
84ec:	4c 89 e6             	mov    rsi,r12
84ef:	f3 a6                	repz cmps BYTE PTR ds:[rsi],BYTE PTR es:[rdi]
84f1:	0f 97 c0             	seta   al
84f4:	1c 00                	sbb    al,0x0
84f6:	84 c0                	test   al,al
84f8:	75 a2                	jne    849c <str2sig+0xac>
84fa:	49 8d 7c 24 05       	lea    rdi,[r12+0x5]
84ff:	ba 0a 00 00 00       	mov    edx,0xa
8504:	48 89 e6             	mov    rsi,rsp
8507:	e8 b4 98 ff ff       	call   1dc0 <strtol@plt>
850c:	48 8b 14 24          	mov    rdx,QWORD PTR [rsp]
8510:	80 3a 00             	cmp    BYTE PTR [rdx],0x0
8513:	75 87                	jne    849c <str2sig+0xac>
8515:	29 dd                	sub    ebp,ebx
8517:	48 63 ed             	movsxd rbp,ebp
851a:	48 39 e8             	cmp    rax,rbp
851d:	0f 8c 79 ff ff ff    	jl     849c <str2sig+0xac>
8523:	48 85 c0             	test   rax,rax
8526:	0f 8f 70 ff ff ff    	jg     849c <str2sig+0xac>
852c:	01 d8                	add    eax,ebx
852e:	e9 26 ff ff ff       	jmp    8459 <str2sig+0x69>
8533:	49 8d 7c 24 05       	lea    rdi,[r12+0x5]
8538:	ba 0a 00 00 00       	mov    edx,0xa
853d:	48 89 e6             	mov    rsi,rsp
8540:	e8 7b 98 ff ff       	call   1dc0 <strtol@plt>
8545:	48 8b 14 24          	mov    rdx,QWORD PTR [rsp]
8549:	80 3a 00             	cmp    BYTE PTR [rdx],0x0
854c:	0f 85 4a ff ff ff    	jne    849c <str2sig+0xac>
8552:	48 85 c0             	test   rax,rax
8555:	0f 88 41 ff ff ff    	js     849c <str2sig+0xac>
855b:	29 eb                	sub    ebx,ebp
855d:	48 63 d3             	movsxd rdx,ebx
8560:	48 39 d0             	cmp    rax,rdx
8563:	0f 8f 33 ff ff ff    	jg     849c <str2sig+0xac>
8569:	01 e8                	add    eax,ebp
856b:	e9 e9 fe ff ff       	jmp    8459 <str2sig+0x69>
8570:	e8 fb 96 ff ff       	call   1c70 <__stack_chk_fail@plt>
8575:	90                   	nop
8576:	66 2e 0f 1f 84 00 00 	nop    WORD PTR cs:[rax+rax*1+0x0]
857d:	00 00 00

0000000000008580 <sig2str>:
8580:	55                   	push   rbp
8581:	48 8d 05 18 3b 20 00 	lea    rax,[rip+0x203b18]        # 20c0a0 <numname_table>
8588:	53                   	push   rbx
8589:	31 d2                	xor    edx,edx
858b:	89 fb                	mov    ebx,edi
858d:	48 89 f7             	mov    rdi,rsi
8590:	48 83 ec 18          	sub    rsp,0x18
8594:	48 89 c1             	mov    rcx,rax
8597:	eb 13                	jmp    85ac <sig2str+0x2c>
8599:	0f 1f 80 00 00 00 00 	nop    DWORD PTR [rax+0x0]
85a0:	83 c2 01             	add    edx,0x1
85a3:	48 83 c1 0c          	add    rcx,0xc
85a7:	83 fa 23             	cmp    edx,0x23
85aa:	74 24                	je     85d0 <sig2str+0x50>
85ac:	39 19                	cmp    DWORD PTR [rcx],ebx
85ae:	75 f0                	jne    85a0 <sig2str+0x20>
85b0:	48 8d 14 52          	lea    rdx,[rdx+rdx*2]
85b4:	48 8d 74 90 04       	lea    rsi,[rax+rdx*4+0x4]
85b9:	e8 e2 95 ff ff       	call   1ba0 <strcpy@plt>
85be:	31 c0                	xor    eax,eax
85c0:	48 83 c4 18          	add    rsp,0x18
85c4:	5b                   	pop    rbx
85c5:	5d                   	pop    rbp
85c6:	c3                   	ret
85c7:	66 0f 1f 84 00 00 00 	nop    WORD PTR [rax+rax*1+0x0]
85ce:	00 00
85d0:	48 89 7c 24 08       	mov    QWORD PTR [rsp+0x8],rdi
85d5:	e8 36 99 ff ff       	call   1f10 <__libc_current_sigrtmin@plt>
85da:	89 c5                	mov    ebp,eax
85dc:	e8 6f 99 ff ff       	call   1f50 <__libc_current_sigrtmax@plt>
85e1:	39 dd                	cmp    ebp,ebx
85e3:	7f 6c                	jg     8651 <sig2str+0xd1>
85e5:	39 d8                	cmp    eax,ebx
85e7:	7c 68                	jl     8651 <sig2str+0xd1>
85e9:	89 c2                	mov    edx,eax
85eb:	48 8b 7c 24 08       	mov    rdi,QWORD PTR [rsp+0x8]
85f0:	29 ea                	sub    edx,ebp
85f2:	d1 fa                	sar    edx,1
85f4:	01 ea                	add    edx,ebp
85f6:	39 da                	cmp    edx,ebx
85f8:	7d 46                	jge    8640 <sig2str+0xc0>
85fa:	ba 58 00 00 00       	mov    edx,0x58
85ff:	c7 07 52 54 4d 41    	mov    DWORD PTR [rdi],0x414d5452
8605:	89 c5                	mov    ebp,eax
8607:	66 89 57 04          	mov    WORD PTR [rdi+0x4],dx
860b:	89 d8                	mov    eax,ebx
860d:	29 e8                	sub    eax,ebp
860f:	74 af                	je     85c0 <sig2str+0x40>
8611:	48 8d 0d 7f 1f 00 00 	lea    rcx,[rip+0x1f7f]        # a597 <__PRETTY_FUNCTION__.4162+0x17>
8618:	41 89 c0             	mov    r8d,eax
861b:	48 83 c7 05          	add    rdi,0x5
861f:	48 c7 c2 ff ff ff ff 	mov    rdx,0xffffffffffffffff
8626:	be 01 00 00 00       	mov    esi,0x1
862b:	31 c0                	xor    eax,eax
862d:	e8 8e 99 ff ff       	call   1fc0 <__sprintf_chk@plt>
8632:	48 83 c4 18          	add    rsp,0x18
8636:	31 c0                	xor    eax,eax
8638:	5b                   	pop    rbx
8639:	5d                   	pop    rbp
863a:	c3                   	ret
863b:	0f 1f 44 00 00       	nop    DWORD PTR [rax+rax*1+0x0]
8640:	b9 4e 00 00 00       	mov    ecx,0x4e
8645:	c7 07 52 54 4d 49    	mov    DWORD PTR [rdi],0x494d5452
864b:	66 89 4f 04          	mov    WORD PTR [rdi+0x4],cx
864f:	eb ba                	jmp    860b <sig2str+0x8b>
8651:	b8 ff ff ff ff       	mov    eax,0xffffffff
8656:	e9 65 ff ff ff       	jmp    85c0 <sig2str+0x40>
865b:	0f 1f 44 00 00       	nop    DWORD PTR [rax+rax*1+0x0]

0000000000008660 <close_stream>:
8660:	41 54                	push   r12
8662:	55                   	push   rbp
8663:	48 89 fd             	mov    rbp,rdi
8666:	53                   	push   rbx
8667:	e8 44 95 ff ff       	call   1bb0 <__fpending@plt>
866c:	8b 5d 00             	mov    ebx,DWORD PTR [rbp+0x0]
866f:	48 89 ef             	mov    rdi,rbp
8672:	49 89 c4             	mov    r12,rax
8675:	e8 c6 fb ff ff       	call   8240 <rpl_fclose>
867a:	83 e3 20             	and    ebx,0x20
867d:	85 db                	test   ebx,ebx
867f:	75 17                	jne    8698 <close_stream+0x38>
8681:	85 c0                	test   eax,eax
8683:	74 0a                	je     868f <close_stream+0x2f>
8685:	4d 85 e4             	test   r12,r12
8688:	b8 ff ff ff ff       	mov    eax,0xffffffff
868d:	74 39                	je     86c8 <close_stream+0x68>
868f:	5b                   	pop    rbx
8690:	5d                   	pop    rbp
8691:	41 5c                	pop    r12
8693:	c3                   	ret
8694:	0f 1f 40 00          	nop    DWORD PTR [rax+0x0]
8698:	85 c0                	test   eax,eax
869a:	75 1c                	jne    86b8 <close_stream+0x58>
869c:	e8 cf 94 ff ff       	call   1b70 <__errno_location@plt>
86a1:	c7 00 00 00 00 00    	mov    DWORD PTR [rax],0x0
86a7:	b8 ff ff ff ff       	mov    eax,0xffffffff
86ac:	5b                   	pop    rbx
86ad:	5d                   	pop    rbp
86ae:	41 5c                	pop    r12
86b0:	c3                   	ret
86b1:	0f 1f 80 00 00 00 00 	nop    DWORD PTR [rax+0x0]
86b8:	5b                   	pop    rbx
86b9:	b8 ff ff ff ff       	mov    eax,0xffffffff
86be:	5d                   	pop    rbp
86bf:	41 5c                	pop    r12
86c1:	c3                   	ret
86c2:	66 0f 1f 44 00 00    	nop    WORD PTR [rax+rax*1+0x0]
86c8:	e8 a3 94 ff ff       	call   1b70 <__errno_location@plt>
86cd:	83 38 09             	cmp    DWORD PTR [rax],0x9
86d0:	5b                   	pop    rbx
86d1:	5d                   	pop    rbp
86d2:	41 5c                	pop    r12
86d4:	0f 95 c0             	setne  al
86d7:	0f b6 c0             	movzx  eax,al
86da:	f7 d8                	neg    eax
86dc:	c3                   	ret
86dd:	0f 1f 00             	nop    DWORD PTR [rax]

00000000000086e0 <hard_locale>:
86e0:	48 83 ec 08          	sub    rsp,0x8
86e4:	31 f6                	xor    esi,esi
86e6:	e8 85 97 ff ff       	call   1e70 <setlocale@plt>
86eb:	48 89 c2             	mov    rdx,rax
86ee:	b8 01 00 00 00       	mov    eax,0x1
86f3:	48 85 d2             	test   rdx,rdx
86f6:	74 1d                	je     8715 <hard_locale+0x35>
86f8:	48 8d 3d 9c 1e 00 00 	lea    rdi,[rip+0x1e9c]        # a59b <__PRETTY_FUNCTION__.4162+0x1b>
86ff:	b9 02 00 00 00       	mov    ecx,0x2
8704:	48 89 d6             	mov    rsi,rdx
8707:	f3 a6                	repz cmps BYTE PTR ds:[rsi],BYTE PTR es:[rdi]
8709:	0f 97 c1             	seta   cl
870c:	80 d9 00             	sbb    cl,0x0
870f:	31 c0                	xor    eax,eax
8711:	84 c9                	test   cl,cl
8713:	75 0b                	jne    8720 <hard_locale+0x40>
8715:	48 83 c4 08          	add    rsp,0x8
8719:	c3                   	ret
871a:	66 0f 1f 44 00 00    	nop    WORD PTR [rax+rax*1+0x0]
8720:	48 8d 3d 76 1e 00 00 	lea    rdi,[rip+0x1e76]        # a59d <__PRETTY_FUNCTION__.4162+0x1d>
8727:	b9 06 00 00 00       	mov    ecx,0x6
872c:	48 89 d6             	mov    rsi,rdx
872f:	f3 a6                	repz cmps BYTE PTR ds:[rsi],BYTE PTR es:[rdi]
8731:	0f 97 c0             	seta   al
8734:	1c 00                	sbb    al,0x0
8736:	84 c0                	test   al,al
8738:	0f 95 c0             	setne  al
873b:	48 83 c4 08          	add    rsp,0x8
873f:	c3                   	ret

0000000000008740 <locale_charset>:
8740:	48 83 ec 08          	sub    rsp,0x8
8744:	bf 0e 00 00 00       	mov    edi,0xe
8749:	e8 c2 96 ff ff       	call   1e10 <nl_langinfo@plt>
874e:	48 85 c0             	test   rax,rax
8751:	74 1d                	je     8770 <locale_charset+0x30>
8753:	80 38 00             	cmp    BYTE PTR [rax],0x0
8756:	48 8d 15 46 1e 00 00 	lea    rdx,[rip+0x1e46]        # a5a3 <__PRETTY_FUNCTION__.4162+0x23>
875d:	48 0f 44 c2          	cmove  rax,rdx
8761:	48 83 c4 08          	add    rsp,0x8
8765:	c3                   	ret
8766:	66 2e 0f 1f 84 00 00 	nop    WORD PTR cs:[rax+rax*1+0x0]
876d:	00 00 00
8770:	48 8d 05 2c 1e 00 00 	lea    rax,[rip+0x1e2c]        # a5a3 <__PRETTY_FUNCTION__.4162+0x23>
8777:	48 83 c4 08          	add    rsp,0x8
877b:	c3                   	ret
877c:	0f 1f 40 00          	nop    DWORD PTR [rax+0x0]

0000000000008780 <dup_safer>:
8780:	ba 03 00 00 00       	mov    edx,0x3
8785:	31 f6                	xor    esi,esi
8787:	31 c0                	xor    eax,eax
8789:	e9 02 00 00 00       	jmp    8790 <rpl_fcntl>
878e:	66 90                	xchg   ax,ax

0000000000008790 <rpl_fcntl>:
8790:	41 54                	push   r12
8792:	55                   	push   rbp
8793:	89 fd                	mov    ebp,edi
8795:	53                   	push   rbx
8796:	48 83 ec 50          	sub    rsp,0x50
879a:	64 48 8b 04 25 28 00 	mov    rax,QWORD PTR fs:0x28
87a1:	00 00
87a3:	48 89 44 24 18       	mov    QWORD PTR [rsp+0x18],rax
87a8:	31 c0                	xor    eax,eax
87aa:	48 8d 44 24 70       	lea    rax,[rsp+0x70]
87af:	85 f6                	test   esi,esi
87b1:	48 89 54 24 30       	mov    QWORD PTR [rsp+0x30],rdx
87b6:	48 89 4c 24 38       	mov    QWORD PTR [rsp+0x38],rcx
87bb:	4c 89 44 24 40       	mov    QWORD PTR [rsp+0x40],r8
87c0:	48 89 44 24 08       	mov    QWORD PTR [rsp+0x8],rax
87c5:	48 8d 44 24 20       	lea    rax,[rsp+0x20]
87ca:	4c 89 4c 24 48       	mov    QWORD PTR [rsp+0x48],r9
87cf:	c7 04 24 10 00 00 00 	mov    DWORD PTR [rsp],0x10
87d6:	48 89 44 24 10       	mov    QWORD PTR [rsp+0x10],rax
87db:	0f 84 01 02 00 00    	je     89e2 <rpl_fcntl+0x252>
87e1:	81 fe 06 04 00 00    	cmp    esi,0x406
87e7:	75 47                	jne    8830 <rpl_fcntl+0xa0>
87e9:	48 8b 44 24 10       	mov    rax,QWORD PTR [rsp+0x10]
87ee:	83 3d 63 3e 20 00 00 	cmp    DWORD PTR [rip+0x203e63],0x0        # 20c658 <have_dupfd_cloexec.3326>
87f5:	c7 04 24 18 00 00 00 	mov    DWORD PTR [rsp],0x18
87fc:	44 8b 60 10          	mov    r12d,DWORD PTR [rax+0x10]
8800:	44 89 e2             	mov    edx,r12d
8803:	0f 88 2a 01 00 00    	js     8933 <rpl_fcntl+0x1a3>
8809:	31 c0                	xor    eax,eax
880b:	be 06 04 00 00       	mov    esi,0x406
8810:	e8 bb 93 ff ff       	call   1bd0 <fcntl@plt>
8815:	85 c0                	test   eax,eax
8817:	89 c3                	mov    ebx,eax
8819:	0f 88 89 01 00 00    	js     89a8 <rpl_fcntl+0x218>
881f:	c7 05 2f 3e 20 00 01 	mov    DWORD PTR [rip+0x203e2f],0x1        # 20c658 <have_dupfd_cloexec.3326>
8826:	00 00 00
8829:	eb 45                	jmp    8870 <rpl_fcntl+0xe0>
882b:	0f 1f 44 00 00       	nop    DWORD PTR [rax+rax*1+0x0]
8830:	83 fe 0b             	cmp    esi,0xb
8833:	74 2b                	je     8860 <rpl_fcntl+0xd0>
8835:	7f 59                	jg     8890 <rpl_fcntl+0x100>
8837:	83 fe 04             	cmp    esi,0x4
883a:	0f 84 d0 00 00 00    	je     8910 <rpl_fcntl+0x180>
8840:	0f 8f ba 00 00 00    	jg     8900 <rpl_fcntl+0x170>
8846:	83 fe 02             	cmp    esi,0x2
8849:	0f 84 c1 00 00 00    	je     8910 <rpl_fcntl+0x180>
884f:	7f 0f                	jg     8860 <rpl_fcntl+0xd0>
8851:	83 fe 01             	cmp    esi,0x1
8854:	75 62                	jne    88b8 <rpl_fcntl+0x128>
8856:	66 2e 0f 1f 84 00 00 	nop    WORD PTR cs:[rax+rax*1+0x0]
885d:	00 00 00
8860:	89 ef                	mov    edi,ebp
8862:	31 c0                	xor    eax,eax
8864:	e8 67 93 ff ff       	call   1bd0 <fcntl@plt>
8869:	89 c3                	mov    ebx,eax
886b:	0f 1f 44 00 00       	nop    DWORD PTR [rax+rax*1+0x0]
8870:	48 8b 4c 24 18       	mov    rcx,QWORD PTR [rsp+0x18]
8875:	64 48 33 0c 25 28 00 	xor    rcx,QWORD PTR fs:0x28
887c:	00 00
887e:	89 d8                	mov    eax,ebx
8880:	0f 85 57 01 00 00    	jne    89dd <rpl_fcntl+0x24d>
8886:	48 83 c4 50          	add    rsp,0x50
888a:	5b                   	pop    rbx
888b:	5d                   	pop    rbp
888c:	41 5c                	pop    r12
888e:	c3                   	ret
888f:	90                   	nop
8890:	81 fe 07 04 00 00    	cmp    esi,0x407
8896:	7f 48                	jg     88e0 <rpl_fcntl+0x150>
8898:	81 fe 06 04 00 00    	cmp    esi,0x406
889e:	7d 70                	jge    8910 <rpl_fcntl+0x180>
88a0:	81 fe 01 04 00 00    	cmp    esi,0x401
88a6:	74 b8                	je     8860 <rpl_fcntl+0xd0>
88a8:	81 fe 02 04 00 00    	cmp    esi,0x402
88ae:	74 60                	je     8910 <rpl_fcntl+0x180>
88b0:	81 fe 00 04 00 00    	cmp    esi,0x400
88b6:	74 58                	je     8910 <rpl_fcntl+0x180>
88b8:	8b 04 24             	mov    eax,DWORD PTR [rsp]
88bb:	83 f8 2f             	cmp    eax,0x2f
88be:	0f 87 36 01 00 00    	ja     89fa <rpl_fcntl+0x26a>
88c4:	48 03 44 24 10       	add    rax,QWORD PTR [rsp+0x10]
88c9:	48 8b 10             	mov    rdx,QWORD PTR [rax]
88cc:	89 ef                	mov    edi,ebp
88ce:	31 c0                	xor    eax,eax
88d0:	e8 fb 92 ff ff       	call   1bd0 <fcntl@plt>
88d5:	89 c3                	mov    ebx,eax
88d7:	eb 97                	jmp    8870 <rpl_fcntl+0xe0>
88d9:	0f 1f 80 00 00 00 00 	nop    DWORD PTR [rax+0x0]
88e0:	81 fe 09 04 00 00    	cmp    esi,0x409
88e6:	74 28                	je     8910 <rpl_fcntl+0x180>
88e8:	0f 8c 72 ff ff ff    	jl     8860 <rpl_fcntl+0xd0>
88ee:	81 fe 0a 04 00 00    	cmp    esi,0x40a
88f4:	75 c2                	jne    88b8 <rpl_fcntl+0x128>
88f6:	e9 65 ff ff ff       	jmp    8860 <rpl_fcntl+0xd0>
88fb:	0f 1f 44 00 00       	nop    DWORD PTR [rax+rax*1+0x0]
8900:	83 fe 09             	cmp    esi,0x9
8903:	0f 84 57 ff ff ff    	je     8860 <rpl_fcntl+0xd0>
8909:	7f 05                	jg     8910 <rpl_fcntl+0x180>
890b:	83 fe 08             	cmp    esi,0x8
890e:	75 a8                	jne    88b8 <rpl_fcntl+0x128>
8910:	8b 04 24             	mov    eax,DWORD PTR [rsp]
8913:	83 f8 2f             	cmp    eax,0x2f
8916:	0f 87 e8 00 00 00    	ja     8a04 <rpl_fcntl+0x274>
891c:	48 03 44 24 10       	add    rax,QWORD PTR [rsp+0x10]
8921:	8b 10                	mov    edx,DWORD PTR [rax]
8923:	89 ef                	mov    edi,ebp
8925:	31 c0                	xor    eax,eax
8927:	e8 a4 92 ff ff       	call   1bd0 <fcntl@plt>
892c:	89 c3                	mov    ebx,eax
892e:	e9 3d ff ff ff       	jmp    8870 <rpl_fcntl+0xe0>
8933:	31 f6                	xor    esi,esi
8935:	31 c0                	xor    eax,eax
8937:	e8 94 92 ff ff       	call   1bd0 <fcntl@plt>
893c:	85 c0                	test   eax,eax
893e:	89 c3                	mov    ebx,eax
8940:	0f 88 2a ff ff ff    	js     8870 <rpl_fcntl+0xe0>
8946:	83 3d 0b 3d 20 00 ff 	cmp    DWORD PTR [rip+0x203d0b],0xffffffff        # 20c658 <have_dupfd_cloexec.3326>
894d:	0f 85 1d ff ff ff    	jne    8870 <rpl_fcntl+0xe0>
8953:	31 c0                	xor    eax,eax
8955:	be 01 00 00 00       	mov    esi,0x1
895a:	89 df                	mov    edi,ebx
895c:	e8 6f 92 ff ff       	call   1bd0 <fcntl@plt>
8961:	85 c0                	test   eax,eax
8963:	78 1c                	js     8981 <rpl_fcntl+0x1f1>
8965:	83 c8 01             	or     eax,0x1
8968:	be 02 00 00 00       	mov    esi,0x2
896d:	89 df                	mov    edi,ebx
896f:	89 c2                	mov    edx,eax
8971:	31 c0                	xor    eax,eax
8973:	e8 58 92 ff ff       	call   1bd0 <fcntl@plt>
8978:	83 f8 ff             	cmp    eax,0xffffffff
897b:	0f 85 ef fe ff ff    	jne    8870 <rpl_fcntl+0xe0>
8981:	e8 ea 91 ff ff       	call   1b70 <__errno_location@plt>
8986:	44 8b 20             	mov    r12d,DWORD PTR [rax]
8989:	48 89 c5             	mov    rbp,rax
898c:	89 df                	mov    edi,ebx
898e:	e8 8d 93 ff ff       	call   1d20 <close@plt>
8993:	bb ff ff ff ff       	mov    ebx,0xffffffff
8998:	44 89 65 00          	mov    DWORD PTR [rbp+0x0],r12d
899c:	e9 cf fe ff ff       	jmp    8870 <rpl_fcntl+0xe0>
89a1:	0f 1f 80 00 00 00 00 	nop    DWORD PTR [rax+0x0]
89a8:	e8 c3 91 ff ff       	call   1b70 <__errno_location@plt>
89ad:	83 38 16             	cmp    DWORD PTR [rax],0x16
89b0:	0f 85 69 fe ff ff    	jne    881f <rpl_fcntl+0x8f>
89b6:	31 f6                	xor    esi,esi
89b8:	31 c0                	xor    eax,eax
89ba:	44 89 e2             	mov    edx,r12d
89bd:	89 ef                	mov    edi,ebp
89bf:	e8 0c 92 ff ff       	call   1bd0 <fcntl@plt>
89c4:	85 c0                	test   eax,eax
89c6:	89 c3                	mov    ebx,eax
89c8:	0f 88 a2 fe ff ff    	js     8870 <rpl_fcntl+0xe0>
89ce:	c7 05 80 3c 20 00 ff 	mov    DWORD PTR [rip+0x203c80],0xffffffff        # 20c658 <have_dupfd_cloexec.3326>
89d5:	ff ff ff
89d8:	e9 76 ff ff ff       	jmp    8953 <rpl_fcntl+0x1c3>
89dd:	e8 8e 92 ff ff       	call   1c70 <__stack_chk_fail@plt>
89e2:	48 8b 44 24 10       	mov    rax,QWORD PTR [rsp+0x10]
89e7:	31 f6                	xor    esi,esi
89e9:	8b 50 10             	mov    edx,DWORD PTR [rax+0x10]
89ec:	31 c0                	xor    eax,eax
89ee:	e8 dd 91 ff ff       	call   1bd0 <fcntl@plt>
89f3:	89 c3                	mov    ebx,eax
89f5:	e9 76 fe ff ff       	jmp    8870 <rpl_fcntl+0xe0>
89fa:	48 8b 44 24 08       	mov    rax,QWORD PTR [rsp+0x8]
89ff:	e9 c5 fe ff ff       	jmp    88c9 <rpl_fcntl+0x139>
8a04:	48 8b 44 24 08       	mov    rax,QWORD PTR [rsp+0x8]
8a09:	e9 13 ff ff ff       	jmp    8921 <rpl_fcntl+0x191>
8a0e:	66 90                	xchg   ax,ax

0000000000008a10 <__libc_csu_init>:
8a10:	41 57                	push   r15
8a12:	41 56                	push   r14
8a14:	49 89 d7             	mov    r15,rdx
8a17:	41 55                	push   r13
8a19:	41 54                	push   r12
8a1b:	4c 8d 25 ce 2e 20 00 	lea    r12,[rip+0x202ece]        # 20b8f0 <__frame_dummy_init_array_entry>
8a22:	55                   	push   rbp
8a23:	48 8d 2d ce 2e 20 00 	lea    rbp,[rip+0x202ece]        # 20b8f8 <__init_array_end>
8a2a:	53                   	push   rbx
8a2b:	41 89 fd             	mov    r13d,edi
8a2e:	49 89 f6             	mov    r14,rsi
8a31:	4c 29 e5             	sub    rbp,r12
8a34:	48 83 ec 08          	sub    rsp,0x8
8a38:	48 c1 fd 03          	sar    rbp,0x3
8a3c:	e8 c7 90 ff ff       	call   1b08 <_init>
8a41:	48 85 ed             	test   rbp,rbp
8a44:	74 20                	je     8a66 <__libc_csu_init+0x56>
8a46:	31 db                	xor    ebx,ebx
8a48:	0f 1f 84 00 00 00 00 	nop    DWORD PTR [rax+rax*1+0x0]
8a4f:	00
8a50:	4c 89 fa             	mov    rdx,r15
8a53:	4c 89 f6             	mov    rsi,r14
8a56:	44 89 ef             	mov    edi,r13d
8a59:	41 ff 14 dc          	call   QWORD PTR [r12+rbx*8]
8a5d:	48 83 c3 01          	add    rbx,0x1
8a61:	48 39 dd             	cmp    rbp,rbx
8a64:	75 ea                	jne    8a50 <__libc_csu_init+0x40>
8a66:	48 83 c4 08          	add    rsp,0x8
8a6a:	5b                   	pop    rbx
8a6b:	5d                   	pop    rbp
8a6c:	41 5c                	pop    r12
8a6e:	41 5d                	pop    r13
8a70:	41 5e                	pop    r14
8a72:	41 5f                	pop    r15
8a74:	c3                   	ret
8a75:	90                   	nop
8a76:	66 2e 0f 1f 84 00 00 	nop    WORD PTR cs:[rax+rax*1+0x0]
8a7d:	00 00 00

0000000000008a80 <__libc_csu_fini>:
8a80:	f3 c3                	repz ret
8a82:	66 2e 0f 1f 84 00 00 	nop    WORD PTR cs:[rax+rax*1+0x0]
8a89:	00 00 00
8a8c:	0f 1f 40 00          	nop    DWORD PTR [rax+0x0]

0000000000008a90 <atexit>:
8a90:	48 8b 15 71 35 20 00 	mov    rdx,QWORD PTR [rip+0x203571]        # 20c008 <__dso_handle>
8a97:	31 f6                	xor    esi,esi
8a99:	e9 52 94 ff ff       	jmp    1ef0 <__cxa_atexit@plt>

Disassembly of section .fini:

0000000000008aa0 <_fini>:
8aa0:	48 83 ec 08          	sub    rsp,0x8
8aa4:	48 83 c4 08          	add    rsp,0x8
8aa8:	c3                   	ret
