


Disassembly of section .init:

0000000000001598 <_init>:
1598:	48 83 ec 08          	sub    rsp,0x8
159c:	48 8b 05 45 7a 20 00 	mov    rax,QWORD PTR [rip+0x207a45]        # 208fe8 <__gmon_start__>
15a3:	48 85 c0             	test   rax,rax
15a6:	74 02                	je     15aa <_init+0x12>
15a8:	ff d0                	call   rax
15aa:	48 83 c4 08          	add    rsp,0x8
15ae:	c3                   	ret

Disassembly of section .plt:

00000000000015b0 <.plt>:
15b0:	ff 35 5a 78 20 00    	push   QWORD PTR [rip+0x20785a]        # 208e10 <_GLOBAL_OFFSET_TABLE_+0x8>
15b6:	ff 25 5c 78 20 00    	jmp    QWORD PTR [rip+0x20785c]        # 208e18 <_GLOBAL_OFFSET_TABLE_+0x10>
15bc:	0f 1f 40 00          	nop    DWORD PTR [rax+0x0]

00000000000015c0 <__uflow@plt>:
15c0:	ff 25 5a 78 20 00    	jmp    QWORD PTR [rip+0x20785a]        # 208e20 <__uflow@GLIBC_2.2.5>
15c6:	68 00 00 00 00       	push   0x0
15cb:	e9 e0 ff ff ff       	jmp    15b0 <.plt>

00000000000015d0 <getenv@plt>:
15d0:	ff 25 52 78 20 00    	jmp    QWORD PTR [rip+0x207852]        # 208e28 <getenv@GLIBC_2.2.5>
15d6:	68 01 00 00 00       	push   0x1
15db:	e9 d0 ff ff ff       	jmp    15b0 <.plt>

00000000000015e0 <free@plt>:
15e0:	ff 25 4a 78 20 00    	jmp    QWORD PTR [rip+0x20784a]        # 208e30 <free@GLIBC_2.2.5>
15e6:	68 02 00 00 00       	push   0x2
15eb:	e9 c0 ff ff ff       	jmp    15b0 <.plt>

00000000000015f0 <abort@plt>:
15f0:	ff 25 42 78 20 00    	jmp    QWORD PTR [rip+0x207842]        # 208e38 <abort@GLIBC_2.2.5>
15f6:	68 03 00 00 00       	push   0x3
15fb:	e9 b0 ff ff ff       	jmp    15b0 <.plt>

0000000000001600 <__errno_location@plt>:
1600:	ff 25 3a 78 20 00    	jmp    QWORD PTR [rip+0x20783a]        # 208e40 <__errno_location@GLIBC_2.2.5>
1606:	68 04 00 00 00       	push   0x4
160b:	e9 a0 ff ff ff       	jmp    15b0 <.plt>

0000000000001610 <strncmp@plt>:
1610:	ff 25 32 78 20 00    	jmp    QWORD PTR [rip+0x207832]        # 208e48 <strncmp@GLIBC_2.2.5>
1616:	68 05 00 00 00       	push   0x5
161b:	e9 90 ff ff ff       	jmp    15b0 <.plt>

0000000000001620 <_exit@plt>:
1620:	ff 25 2a 78 20 00    	jmp    QWORD PTR [rip+0x20782a]        # 208e50 <_exit@GLIBC_2.2.5>
1626:	68 06 00 00 00       	push   0x6
162b:	e9 80 ff ff ff       	jmp    15b0 <.plt>

0000000000001630 <__fpending@plt>:
1630:	ff 25 22 78 20 00    	jmp    QWORD PTR [rip+0x207822]        # 208e58 <__fpending@GLIBC_2.2.5>
1636:	68 07 00 00 00       	push   0x7
163b:	e9 70 ff ff ff       	jmp    15b0 <.plt>

0000000000001640 <localeconv@plt>:
1640:	ff 25 1a 78 20 00    	jmp    QWORD PTR [rip+0x20781a]        # 208e60 <localeconv@GLIBC_2.2.5>
1646:	68 08 00 00 00       	push   0x8
164b:	e9 60 ff ff ff       	jmp    15b0 <.plt>

0000000000001650 <textdomain@plt>:
1650:	ff 25 12 78 20 00    	jmp    QWORD PTR [rip+0x207812]        # 208e68 <textdomain@GLIBC_2.2.5>
1656:	68 09 00 00 00       	push   0x9
165b:	e9 50 ff ff ff       	jmp    15b0 <.plt>

0000000000001660 <fclose@plt>:
1660:	ff 25 0a 78 20 00    	jmp    QWORD PTR [rip+0x20780a]        # 208e70 <fclose@GLIBC_2.2.5>
1666:	68 0a 00 00 00       	push   0xa
166b:	e9 40 ff ff ff       	jmp    15b0 <.plt>

0000000000001670 <bindtextdomain@plt>:
1670:	ff 25 02 78 20 00    	jmp    QWORD PTR [rip+0x207802]        # 208e78 <bindtextdomain@GLIBC_2.2.5>
1676:	68 0b 00 00 00       	push   0xb
167b:	e9 30 ff ff ff       	jmp    15b0 <.plt>

0000000000001680 <dcgettext@plt>:
1680:	ff 25 fa 77 20 00    	jmp    QWORD PTR [rip+0x2077fa]        # 208e80 <dcgettext@GLIBC_2.2.5>
1686:	68 0c 00 00 00       	push   0xc
168b:	e9 20 ff ff ff       	jmp    15b0 <.plt>

0000000000001690 <__ctype_get_mb_cur_max@plt>:
1690:	ff 25 f2 77 20 00    	jmp    QWORD PTR [rip+0x2077f2]        # 208e88 <__ctype_get_mb_cur_max@GLIBC_2.2.5>
1696:	68 0d 00 00 00       	push   0xd
169b:	e9 10 ff ff ff       	jmp    15b0 <.plt>

00000000000016a0 <strlen@plt>:
16a0:	ff 25 ea 77 20 00    	jmp    QWORD PTR [rip+0x2077ea]        # 208e90 <strlen@GLIBC_2.2.5>
16a6:	68 0e 00 00 00       	push   0xe
16ab:	e9 00 ff ff ff       	jmp    15b0 <.plt>

00000000000016b0 <__stack_chk_fail@plt>:
16b0:	ff 25 e2 77 20 00    	jmp    QWORD PTR [rip+0x2077e2]        # 208e98 <__stack_chk_fail@GLIBC_2.4>
16b6:	68 0f 00 00 00       	push   0xf
16bb:	e9 f0 fe ff ff       	jmp    15b0 <.plt>

00000000000016c0 <getopt_long@plt>:
16c0:	ff 25 da 77 20 00    	jmp    QWORD PTR [rip+0x2077da]        # 208ea0 <getopt_long@GLIBC_2.2.5>
16c6:	68 10 00 00 00       	push   0x10
16cb:	e9 e0 fe ff ff       	jmp    15b0 <.plt>

00000000000016d0 <mbrtowc@plt>:
16d0:	ff 25 d2 77 20 00    	jmp    QWORD PTR [rip+0x2077d2]        # 208ea8 <mbrtowc@GLIBC_2.2.5>
16d6:	68 11 00 00 00       	push   0x11
16db:	e9 d0 fe ff ff       	jmp    15b0 <.plt>

00000000000016e0 <strchr@plt>:
16e0:	ff 25 ca 77 20 00    	jmp    QWORD PTR [rip+0x2077ca]        # 208eb0 <strchr@GLIBC_2.2.5>
16e6:	68 12 00 00 00       	push   0x12
16eb:	e9 c0 fe ff ff       	jmp    15b0 <.plt>

00000000000016f0 <__overflow@plt>:
16f0:	ff 25 c2 77 20 00    	jmp    QWORD PTR [rip+0x2077c2]        # 208eb8 <__overflow@GLIBC_2.2.5>
16f6:	68 13 00 00 00       	push   0x13
16fb:	e9 b0 fe ff ff       	jmp    15b0 <.plt>

0000000000001700 <strrchr@plt>:
1700:	ff 25 ba 77 20 00    	jmp    QWORD PTR [rip+0x2077ba]        # 208ec0 <strrchr@GLIBC_2.2.5>
1706:	68 14 00 00 00       	push   0x14
170b:	e9 a0 fe ff ff       	jmp    15b0 <.plt>

0000000000001710 <lseek@plt>:
1710:	ff 25 b2 77 20 00    	jmp    QWORD PTR [rip+0x2077b2]        # 208ec8 <lseek@GLIBC_2.2.5>
1716:	68 15 00 00 00       	push   0x15
171b:	e9 90 fe ff ff       	jmp    15b0 <.plt>

0000000000001720 <__assert_fail@plt>:
1720:	ff 25 aa 77 20 00    	jmp    QWORD PTR [rip+0x2077aa]        # 208ed0 <__assert_fail@GLIBC_2.2.5>
1726:	68 16 00 00 00       	push   0x16
172b:	e9 80 fe ff ff       	jmp    15b0 <.plt>

0000000000001730 <__strtoul_internal@plt>:
1730:	ff 25 a2 77 20 00    	jmp    QWORD PTR [rip+0x2077a2]        # 208ed8 <__strtoul_internal@GLIBC_2.2.5>
1736:	68 17 00 00 00       	push   0x17
173b:	e9 70 fe ff ff       	jmp    15b0 <.plt>

0000000000001740 <memset@plt>:
1740:	ff 25 9a 77 20 00    	jmp    QWORD PTR [rip+0x20779a]        # 208ee0 <memset@GLIBC_2.2.5>
1746:	68 18 00 00 00       	push   0x18
174b:	e9 60 fe ff ff       	jmp    15b0 <.plt>

0000000000001750 <close@plt>:
1750:	ff 25 92 77 20 00    	jmp    QWORD PTR [rip+0x207792]        # 208ee8 <close@GLIBC_2.2.5>
1756:	68 19 00 00 00       	push   0x19
175b:	e9 50 fe ff ff       	jmp    15b0 <.plt>

0000000000001760 <posix_fadvise@plt>:
1760:	ff 25 8a 77 20 00    	jmp    QWORD PTR [rip+0x20778a]        # 208ef0 <posix_fadvise@GLIBC_2.2.5>
1766:	68 1a 00 00 00       	push   0x1a
176b:	e9 40 fe ff ff       	jmp    15b0 <.plt>

0000000000001770 <read@plt>:
1770:	ff 25 82 77 20 00    	jmp    QWORD PTR [rip+0x207782]        # 208ef8 <read@GLIBC_2.2.5>
1776:	68 1b 00 00 00       	push   0x1b
177b:	e9 30 fe ff ff       	jmp    15b0 <.plt>

0000000000001780 <memcmp@plt>:
1780:	ff 25 7a 77 20 00    	jmp    QWORD PTR [rip+0x20777a]        # 208f00 <memcmp@GLIBC_2.2.5>
1786:	68 1c 00 00 00       	push   0x1c
178b:	e9 20 fe ff ff       	jmp    15b0 <.plt>

0000000000001790 <fputs_unlocked@plt>:
1790:	ff 25 72 77 20 00    	jmp    QWORD PTR [rip+0x207772]        # 208f08 <fputs_unlocked@GLIBC_2.2.5>
1796:	68 1d 00 00 00       	push   0x1d
179b:	e9 10 fe ff ff       	jmp    15b0 <.plt>

00000000000017a0 <calloc@plt>:
17a0:	ff 25 6a 77 20 00    	jmp    QWORD PTR [rip+0x20776a]        # 208f10 <calloc@GLIBC_2.2.5>
17a6:	68 1e 00 00 00       	push   0x1e
17ab:	e9 00 fe ff ff       	jmp    15b0 <.plt>

00000000000017b0 <__memcpy_chk@plt>:
17b0:	ff 25 62 77 20 00    	jmp    QWORD PTR [rip+0x207762]        # 208f18 <__memcpy_chk@GLIBC_2.3.4>
17b6:	68 1f 00 00 00       	push   0x1f
17bb:	e9 f0 fd ff ff       	jmp    15b0 <.plt>

00000000000017c0 <memcpy@plt>:
17c0:	ff 25 5a 77 20 00    	jmp    QWORD PTR [rip+0x20775a]        # 208f20 <memcpy@GLIBC_2.14>
17c6:	68 20 00 00 00       	push   0x20
17cb:	e9 e0 fd ff ff       	jmp    15b0 <.plt>

00000000000017d0 <fileno@plt>:
17d0:	ff 25 52 77 20 00    	jmp    QWORD PTR [rip+0x207752]        # 208f28 <fileno@GLIBC_2.2.5>
17d6:	68 21 00 00 00       	push   0x21
17db:	e9 d0 fd ff ff       	jmp    15b0 <.plt>

00000000000017e0 <malloc@plt>:
17e0:	ff 25 4a 77 20 00    	jmp    QWORD PTR [rip+0x20774a]        # 208f30 <malloc@GLIBC_2.2.5>
17e6:	68 22 00 00 00       	push   0x22
17eb:	e9 c0 fd ff ff       	jmp    15b0 <.plt>

00000000000017f0 <fflush@plt>:
17f0:	ff 25 42 77 20 00    	jmp    QWORD PTR [rip+0x207742]        # 208f38 <fflush@GLIBC_2.2.5>
17f6:	68 23 00 00 00       	push   0x23
17fb:	e9 b0 fd ff ff       	jmp    15b0 <.plt>

0000000000001800 <nl_langinfo@plt>:
1800:	ff 25 3a 77 20 00    	jmp    QWORD PTR [rip+0x20773a]        # 208f40 <nl_langinfo@GLIBC_2.2.5>
1806:	68 24 00 00 00       	push   0x24
180b:	e9 a0 fd ff ff       	jmp    15b0 <.plt>

0000000000001810 <__freading@plt>:
1810:	ff 25 32 77 20 00    	jmp    QWORD PTR [rip+0x207732]        # 208f48 <__freading@GLIBC_2.2.5>
1816:	68 25 00 00 00       	push   0x25
181b:	e9 90 fd ff ff       	jmp    15b0 <.plt>

0000000000001820 <realloc@plt>:
1820:	ff 25 2a 77 20 00    	jmp    QWORD PTR [rip+0x20772a]        # 208f50 <realloc@GLIBC_2.2.5>
1826:	68 26 00 00 00       	push   0x26
182b:	e9 80 fd ff ff       	jmp    15b0 <.plt>

0000000000001830 <setlocale@plt>:
1830:	ff 25 22 77 20 00    	jmp    QWORD PTR [rip+0x207722]        # 208f58 <setlocale@GLIBC_2.2.5>
1836:	68 27 00 00 00       	push   0x27
183b:	e9 70 fd ff ff       	jmp    15b0 <.plt>

0000000000001840 <__printf_chk@plt>:
1840:	ff 25 1a 77 20 00    	jmp    QWORD PTR [rip+0x20771a]        # 208f60 <__printf_chk@GLIBC_2.3.4>
1846:	68 28 00 00 00       	push   0x28
184b:	e9 60 fd ff ff       	jmp    15b0 <.plt>

0000000000001850 <setvbuf@plt>:
1850:	ff 25 12 77 20 00    	jmp    QWORD PTR [rip+0x207712]        # 208f68 <setvbuf@GLIBC_2.2.5>
1856:	68 29 00 00 00       	push   0x29
185b:	e9 50 fd ff ff       	jmp    15b0 <.plt>

0000000000001860 <memmove@plt>:
1860:	ff 25 0a 77 20 00    	jmp    QWORD PTR [rip+0x20770a]        # 208f70 <memmove@GLIBC_2.2.5>
1866:	68 2a 00 00 00       	push   0x2a
186b:	e9 40 fd ff ff       	jmp    15b0 <.plt>

0000000000001870 <error@plt>:
1870:	ff 25 02 77 20 00    	jmp    QWORD PTR [rip+0x207702]        # 208f78 <error@GLIBC_2.2.5>
1876:	68 2b 00 00 00       	push   0x2b
187b:	e9 30 fd ff ff       	jmp    15b0 <.plt>

0000000000001880 <open@plt>:
1880:	ff 25 fa 76 20 00    	jmp    QWORD PTR [rip+0x2076fa]        # 208f80 <open@GLIBC_2.2.5>
1886:	68 2c 00 00 00       	push   0x2c
188b:	e9 20 fd ff ff       	jmp    15b0 <.plt>

0000000000001890 <fseeko@plt>:
1890:	ff 25 f2 76 20 00    	jmp    QWORD PTR [rip+0x2076f2]        # 208f88 <fseeko@GLIBC_2.2.5>
1896:	68 2d 00 00 00       	push   0x2d
189b:	e9 10 fd ff ff       	jmp    15b0 <.plt>

00000000000018a0 <fopen@plt>:
18a0:	ff 25 ea 76 20 00    	jmp    QWORD PTR [rip+0x2076ea]        # 208f90 <fopen@GLIBC_2.2.5>
18a6:	68 2e 00 00 00       	push   0x2e
18ab:	e9 00 fd ff ff       	jmp    15b0 <.plt>

00000000000018b0 <__cxa_atexit@plt>:
18b0:	ff 25 e2 76 20 00    	jmp    QWORD PTR [rip+0x2076e2]        # 208f98 <__cxa_atexit@GLIBC_2.2.5>
18b6:	68 2f 00 00 00       	push   0x2f
18bb:	e9 f0 fc ff ff       	jmp    15b0 <.plt>

00000000000018c0 <exit@plt>:
18c0:	ff 25 da 76 20 00    	jmp    QWORD PTR [rip+0x2076da]        # 208fa0 <exit@GLIBC_2.2.5>
18c6:	68 30 00 00 00       	push   0x30
18cb:	e9 e0 fc ff ff       	jmp    15b0 <.plt>

00000000000018d0 <fwrite@plt>:
18d0:	ff 25 d2 76 20 00    	jmp    QWORD PTR [rip+0x2076d2]        # 208fa8 <fwrite@GLIBC_2.2.5>
18d6:	68 31 00 00 00       	push   0x31
18db:	e9 d0 fc ff ff       	jmp    15b0 <.plt>

00000000000018e0 <__fprintf_chk@plt>:
18e0:	ff 25 ca 76 20 00    	jmp    QWORD PTR [rip+0x2076ca]        # 208fb0 <__fprintf_chk@GLIBC_2.3.4>
18e6:	68 32 00 00 00       	push   0x32
18eb:	e9 c0 fc ff ff       	jmp    15b0 <.plt>

00000000000018f0 <mbsinit@plt>:
18f0:	ff 25 c2 76 20 00    	jmp    QWORD PTR [rip+0x2076c2]        # 208fb8 <mbsinit@GLIBC_2.2.5>
18f6:	68 33 00 00 00       	push   0x33
18fb:	e9 b0 fc ff ff       	jmp    15b0 <.plt>

0000000000001900 <iswprint@plt>:
1900:	ff 25 ba 76 20 00    	jmp    QWORD PTR [rip+0x2076ba]        # 208fc0 <iswprint@GLIBC_2.2.5>
1906:	68 34 00 00 00       	push   0x34
190b:	e9 a0 fc ff ff       	jmp    15b0 <.plt>

0000000000001910 <__ctype_b_loc@plt>:
1910:	ff 25 b2 76 20 00    	jmp    QWORD PTR [rip+0x2076b2]        # 208fc8 <__ctype_b_loc@GLIBC_2.3>
1916:	68 35 00 00 00       	push   0x35
191b:	e9 90 fc ff ff       	jmp    15b0 <.plt>

0000000000001920 <__sprintf_chk@plt>:
1920:	ff 25 aa 76 20 00    	jmp    QWORD PTR [rip+0x2076aa]        # 208fd0 <__sprintf_chk@GLIBC_2.3.4>
1926:	68 36 00 00 00       	push   0x36
192b:	e9 80 fc ff ff       	jmp    15b0 <.plt>

Disassembly of section .plt.got:

0000000000001930 <__cxa_finalize@plt>:
1930:	ff 25 c2 76 20 00    	jmp    QWORD PTR [rip+0x2076c2]        # 208ff8 <__cxa_finalize@GLIBC_2.2.5>
1936:	66 90                	xchg   ax,ax

Disassembly of section .text:

0000000000001940 <main>:
1940:	41 57                	push   r15
1942:	41 56                	push   r14
1944:	4c 8d 35 d5 71 20 00 	lea    r14,[rip+0x2071d5]        # 208b20 <longopts>
194b:	41 55                	push   r13
194d:	41 54                	push   r12
194f:	4c 8d 25 1a 05 00 00 	lea    r12,[rip+0x51a]        # 1e70 <bsd_sum_file>
1956:	55                   	push   rbp
1957:	53                   	push   rbx
1958:	89 fd                	mov    ebp,edi
195a:	48 89 f3             	mov    rbx,rsi
195d:	4c 8d 2d 0c 4b 00 00 	lea    r13,[rip+0x4b0c]        # 6470 <_IO_stdin_used+0xf0>
1964:	4d 89 e7             	mov    r15,r12
1967:	48 83 ec 08          	sub    rsp,0x8
196b:	48 8b 3e             	mov    rdi,QWORD PTR [rsi]
196e:	e8 ad 18 00 00       	call   3220 <set_program_name>
1973:	48 8d 35 67 53 00 00 	lea    rsi,[rip+0x5367]        # 6ce1 <quoting_style_vals+0x81>
197a:	bf 06 00 00 00       	mov    edi,0x6
197f:	e8 ac fe ff ff       	call   1830 <setlocale@plt>
1984:	48 8d 35 ab 4a 00 00 	lea    rsi,[rip+0x4aab]        # 6436 <_IO_stdin_used+0xb6>
198b:	48 8d 3d 7b 4a 00 00 	lea    rdi,[rip+0x4a7b]        # 640d <_IO_stdin_used+0x8d>
1992:	e8 d9 fc ff ff       	call   1670 <bindtextdomain@plt>
1997:	48 8d 3d 6f 4a 00 00 	lea    rdi,[rip+0x4a6f]        # 640d <_IO_stdin_used+0x8d>
199e:	e8 ad fc ff ff       	call   1650 <textdomain@plt>
19a3:	48 8d 3d b6 0a 00 00 	lea    rdi,[rip+0xab6]        # 2460 <close_stdout>
19aa:	e8 b1 49 00 00       	call   6360 <atexit>
19af:	48 8b 3d f2 76 20 00 	mov    rdi,QWORD PTR [rip+0x2076f2]        # 2090a8 <stdout@@GLIBC_2.2.5>
19b6:	31 c9                	xor    ecx,ecx
19b8:	ba 01 00 00 00       	mov    edx,0x1
19bd:	31 f6                	xor    esi,esi
19bf:	e8 8c fe ff ff       	call   1850 <setvbuf@plt>
19c4:	c6 05 1e 77 20 00 00 	mov    BYTE PTR [rip+0x20771e],0x0        # 2090e9 <have_read_stdin>
19cb:	45 31 c0             	xor    r8d,r8d
19ce:	4c 89 f1             	mov    rcx,r14
19d1:	4c 89 ea             	mov    rdx,r13
19d4:	48 89 de             	mov    rsi,rbx
19d7:	89 ef                	mov    edi,ebp
19d9:	e8 e2 fc ff ff       	call   16c0 <getopt_long@plt>
19de:	83 f8 ff             	cmp    eax,0xffffffff
19e1:	0f 84 81 00 00 00    	je     1a68 <main+0x128>
19e7:	3d 7e ff ff ff       	cmp    eax,0xffffff7e
19ec:	0f 84 2c 01 00 00    	je     1b1e <main+0x1de>
19f2:	7e 1c                	jle    1a10 <main+0xd0>
19f4:	83 f8 72             	cmp    eax,0x72
19f7:	74 67                	je     1a60 <main+0x120>
19f9:	83 f8 73             	cmp    eax,0x73
19fc:	0f 85 12 01 00 00    	jne    1b14 <main+0x1d4>
1a02:	4c 8d 25 37 02 00 00 	lea    r12,[rip+0x237]        # 1c40 <sysv_sum_file>
1a09:	eb c0                	jmp    19cb <main+0x8b>
1a0b:	0f 1f 44 00 00       	nop    DWORD PTR [rax+rax*1+0x0]
1a10:	3d 7d ff ff ff       	cmp    eax,0xffffff7d
1a15:	0f 85 f9 00 00 00    	jne    1b14 <main+0x1d4>
1a1b:	48 83 ec 08          	sub    rsp,0x8
1a1f:	48 8b 3d 82 76 20 00 	mov    rdi,QWORD PTR [rip+0x207682]        # 2090a8 <stdout@@GLIBC_2.2.5>
1a26:	48 8b 0d e3 75 20 00 	mov    rcx,QWORD PTR [rip+0x2075e3]        # 209010 <Version>
1a2d:	6a 00                	push   0x0
1a2f:	4c 8d 0d 18 4a 00 00 	lea    r9,[rip+0x4a18]        # 644e <_IO_stdin_used+0xce>
1a36:	4c 8d 05 21 4a 00 00 	lea    r8,[rip+0x4a21]        # 645e <_IO_stdin_used+0xde>
1a3d:	48 8d 15 c5 49 00 00 	lea    rdx,[rip+0x49c5]        # 6409 <_IO_stdin_used+0x89>
1a44:	48 8d 35 a3 49 00 00 	lea    rsi,[rip+0x49a3]        # 63ee <_IO_stdin_used+0x6e>
1a4b:	31 c0                	xor    eax,eax
1a4d:	e8 1e 3a 00 00       	call   5470 <version_etc>
1a52:	31 ff                	xor    edi,edi
1a54:	e8 67 fe ff ff       	call   18c0 <exit@plt>
1a59:	0f 1f 80 00 00 00 00 	nop    DWORD PTR [rax+0x0]
1a60:	4d 89 fc             	mov    r12,r15
1a63:	e9 63 ff ff ff       	jmp    19cb <main+0x8b>
1a68:	41 89 ee             	mov    r14d,ebp
1a6b:	44 2b 35 46 76 20 00 	sub    r14d,DWORD PTR [rip+0x207646]        # 2090b8 <optind@@GLIBC_2.2.5>
1a72:	45 85 f6             	test   r14d,r14d
1a75:	7f 71                	jg     1ae8 <main+0x1a8>
1a77:	44 89 f6             	mov    esi,r14d
1a7a:	48 8d 3d 31 4d 00 00 	lea    rdi,[rip+0x4d31]        # 67b2 <power_letter+0x6a>
1a81:	41 ff d4             	call   r12
1a84:	41 89 c5             	mov    r13d,eax
1a87:	80 3d 5b 76 20 00 00 	cmp    BYTE PTR [rip+0x20765b],0x0        # 2090e9 <have_read_stdin>
1a8e:	75 14                	jne    1aa4 <main+0x164>
1a90:	41 83 f5 01          	xor    r13d,0x1
1a94:	5a                   	pop    rdx
1a95:	41 0f b6 c5          	movzx  eax,r13b
1a99:	5b                   	pop    rbx
1a9a:	5d                   	pop    rbp
1a9b:	41 5c                	pop    r12
1a9d:	41 5d                	pop    r13
1a9f:	41 5e                	pop    r14
1aa1:	41 5f                	pop    r15
1aa3:	c3                   	ret
1aa4:	48 8b 3d 05 76 20 00 	mov    rdi,QWORD PTR [rip+0x207605]        # 2090b0 <stdin@@GLIBC_2.2.5>
1aab:	e8 d0 41 00 00       	call   5c80 <rpl_fclose>
1ab0:	83 c0 01             	add    eax,0x1
1ab3:	75 db                	jne    1a90 <main+0x150>
1ab5:	48 8d 15 f6 4c 00 00 	lea    rdx,[rip+0x4cf6]        # 67b2 <power_letter+0x6a>
1abc:	be 03 00 00 00       	mov    esi,0x3
1ac1:	31 ff                	xor    edi,edi
1ac3:	e8 98 32 00 00       	call   4d60 <quotearg_n_style_colon>
1ac8:	48 89 c3             	mov    rbx,rax
1acb:	e8 30 fb ff ff       	call   1600 <__errno_location@plt>
1ad0:	8b 30                	mov    esi,DWORD PTR [rax]
1ad2:	48 8d 15 a9 56 00 00 	lea    rdx,[rip+0x56a9]        # 7182 <__PRETTY_FUNCTION__.4162+0x62>
1ad9:	48 89 d9             	mov    rcx,rbx
1adc:	bf 01 00 00 00       	mov    edi,0x1
1ae1:	31 c0                	xor    eax,eax
1ae3:	e8 88 fd ff ff       	call   1870 <error@plt>
1ae8:	41 bd 01 00 00 00    	mov    r13d,0x1
1aee:	eb 14                	jmp    1b04 <main+0x1c4>
1af0:	48 8b 3c c3          	mov    rdi,QWORD PTR [rbx+rax*8]
1af4:	44 89 f6             	mov    esi,r14d
1af7:	41 ff d4             	call   r12
1afa:	83 05 b7 75 20 00 01 	add    DWORD PTR [rip+0x2075b7],0x1        # 2090b8 <optind@@GLIBC_2.2.5>
1b01:	41 21 c5             	and    r13d,eax
1b04:	48 63 05 ad 75 20 00 	movsxd rax,DWORD PTR [rip+0x2075ad]        # 2090b8 <optind@@GLIBC_2.2.5>
1b0b:	39 e8                	cmp    eax,ebp
1b0d:	7c e1                	jl     1af0 <main+0x1b0>
1b0f:	e9 73 ff ff ff       	jmp    1a87 <main+0x147>
1b14:	bf 01 00 00 00       	mov    edi,0x1
1b19:	e8 92 05 00 00       	call   20b0 <usage>
1b1e:	31 ff                	xor    edi,edi
1b20:	e8 8b 05 00 00       	call   20b0 <usage>
1b25:	66 2e 0f 1f 84 00 00 	nop    WORD PTR cs:[rax+rax*1+0x0]
1b2c:	00 00 00
1b2f:	90                   	nop

0000000000001b30 <_start>:
1b30:	31 ed                	xor    ebp,ebp
1b32:	49 89 d1             	mov    r9,rdx
1b35:	5e                   	pop    rsi
1b36:	48 89 e2             	mov    rdx,rsp
1b39:	48 83 e4 f0          	and    rsp,0xfffffffffffffff0
1b3d:	50                   	push   rax
1b3e:	54                   	push   rsp
1b3f:	4c 8d 05 0a 48 00 00 	lea    r8,[rip+0x480a]        # 6350 <__libc_csu_fini>
1b46:	48 8d 0d 93 47 00 00 	lea    rcx,[rip+0x4793]        # 62e0 <__libc_csu_init>
1b4d:	48 8d 3d ec fd ff ff 	lea    rdi,[rip+0xfffffffffffffdec]        # 1940 <main>
1b54:	ff 15 86 74 20 00    	call   QWORD PTR [rip+0x207486]        # 208fe0 <__libc_start_main@GLIBC_2.2.5>
1b5a:	f4                   	hlt
1b5b:	0f 1f 44 00 00       	nop    DWORD PTR [rax+rax*1+0x0]

0000000000001b60 <deregister_tm_clones>:
1b60:	48 8d 3d 21 75 20 00 	lea    rdi,[rip+0x207521]        # 209088 <__TMC_END__>
1b67:	55                   	push   rbp
1b68:	48 8d 05 19 75 20 00 	lea    rax,[rip+0x207519]        # 209088 <__TMC_END__>
1b6f:	48 39 f8             	cmp    rax,rdi
1b72:	48 89 e5             	mov    rbp,rsp
1b75:	74 19                	je     1b90 <deregister_tm_clones+0x30>
1b77:	48 8b 05 5a 74 20 00 	mov    rax,QWORD PTR [rip+0x20745a]        # 208fd8 <_ITM_deregisterTMCloneTable>
1b7e:	48 85 c0             	test   rax,rax
1b81:	74 0d                	je     1b90 <deregister_tm_clones+0x30>
1b83:	5d                   	pop    rbp
1b84:	ff e0                	jmp    rax
1b86:	66 2e 0f 1f 84 00 00 	nop    WORD PTR cs:[rax+rax*1+0x0]
1b8d:	00 00 00
1b90:	5d                   	pop    rbp
1b91:	c3                   	ret
1b92:	0f 1f 40 00          	nop    DWORD PTR [rax+0x0]
1b96:	66 2e 0f 1f 84 00 00 	nop    WORD PTR cs:[rax+rax*1+0x0]
1b9d:	00 00 00

0000000000001ba0 <register_tm_clones>:
1ba0:	48 8d 3d e1 74 20 00 	lea    rdi,[rip+0x2074e1]        # 209088 <__TMC_END__>
1ba7:	48 8d 35 da 74 20 00 	lea    rsi,[rip+0x2074da]        # 209088 <__TMC_END__>
1bae:	55                   	push   rbp
1baf:	48 29 fe             	sub    rsi,rdi
1bb2:	48 89 e5             	mov    rbp,rsp
1bb5:	48 c1 fe 03          	sar    rsi,0x3
1bb9:	48 89 f0             	mov    rax,rsi
1bbc:	48 c1 e8 3f          	shr    rax,0x3f
1bc0:	48 01 c6             	add    rsi,rax
1bc3:	48 d1 fe             	sar    rsi,1
1bc6:	74 18                	je     1be0 <register_tm_clones+0x40>
1bc8:	48 8b 05 21 74 20 00 	mov    rax,QWORD PTR [rip+0x207421]        # 208ff0 <_ITM_registerTMCloneTable>
1bcf:	48 85 c0             	test   rax,rax
1bd2:	74 0c                	je     1be0 <register_tm_clones+0x40>
1bd4:	5d                   	pop    rbp
1bd5:	ff e0                	jmp    rax
1bd7:	66 0f 1f 84 00 00 00 	nop    WORD PTR [rax+rax*1+0x0]
1bde:	00 00
1be0:	5d                   	pop    rbp
1be1:	c3                   	ret
1be2:	0f 1f 40 00          	nop    DWORD PTR [rax+0x0]
1be6:	66 2e 0f 1f 84 00 00 	nop    WORD PTR cs:[rax+rax*1+0x0]
1bed:	00 00 00

0000000000001bf0 <__do_global_dtors_aux>:
1bf0:	80 3d f1 74 20 00 00 	cmp    BYTE PTR [rip+0x2074f1],0x0        # 2090e8 <completed.7697>
1bf7:	75 2f                	jne    1c28 <__do_global_dtors_aux+0x38>
1bf9:	48 83 3d f7 73 20 00 	cmp    QWORD PTR [rip+0x2073f7],0x0        # 208ff8 <__cxa_finalize@GLIBC_2.2.5>
1c00:	00
1c01:	55                   	push   rbp
1c02:	48 89 e5             	mov    rbp,rsp
1c05:	74 0c                	je     1c13 <__do_global_dtors_aux+0x23>
1c07:	48 8b 3d fa 73 20 00 	mov    rdi,QWORD PTR [rip+0x2073fa]        # 209008 <__dso_handle>
1c0e:	e8 1d fd ff ff       	call   1930 <__cxa_finalize@plt>
1c13:	e8 48 ff ff ff       	call   1b60 <deregister_tm_clones>
1c18:	c6 05 c9 74 20 00 01 	mov    BYTE PTR [rip+0x2074c9],0x1        # 2090e8 <completed.7697>
1c1f:	5d                   	pop    rbp
1c20:	c3                   	ret
1c21:	0f 1f 80 00 00 00 00 	nop    DWORD PTR [rax+0x0]
1c28:	f3 c3                	repz ret
1c2a:	66 0f 1f 44 00 00    	nop    WORD PTR [rax+rax*1+0x0]

0000000000001c30 <frame_dummy>:
1c30:	55                   	push   rbp
1c31:	48 89 e5             	mov    rbp,rsp
1c34:	5d                   	pop    rbp
1c35:	e9 66 ff ff ff       	jmp    1ba0 <register_tm_clones>
1c3a:	66 0f 1f 44 00 00    	nop    WORD PTR [rax+rax*1+0x0]

0000000000001c40 <sysv_sum_file>:
1c40:	41 57                	push   r15
1c42:	41 56                	push   r14
1c44:	b9 02 00 00 00       	mov    ecx,0x2
1c49:	41 55                	push   r13
1c4b:	41 54                	push   r12
1c4d:	49 89 fd             	mov    r13,rdi
1c50:	55                   	push   rbp
1c51:	53                   	push   rbx
1c52:	48 8d 3d 59 4b 00 00 	lea    rdi,[rip+0x4b59]        # 67b2 <power_letter+0x6a>
1c59:	48 81 ec b8 22 00 00 	sub    rsp,0x22b8
1c60:	89 74 24 0c          	mov    DWORD PTR [rsp+0xc],esi
1c64:	4c 89 ee             	mov    rsi,r13
1c67:	64 48 8b 04 25 28 00 	mov    rax,QWORD PTR fs:0x28
1c6e:	00 00
1c70:	48 89 84 24 a8 22 00 	mov    QWORD PTR [rsp+0x22a8],rax
1c77:	00
1c78:	31 c0                	xor    eax,eax
1c7a:	f3 a6                	repz cmps BYTE PTR ds:[rsi],BYTE PTR es:[rdi]
1c7c:	41 0f 97 c4          	seta   r12b
1c80:	41 80 dc 00          	sbb    r12b,0x0
1c84:	45 0f be e4          	movsx  r12d,r12b
1c88:	45 85 e4             	test   r12d,r12d
1c8b:	0f 85 5f 01 00 00    	jne    1df0 <sysv_sum_file+0x1b0>
1c91:	c6 05 51 74 20 00 01 	mov    BYTE PTR [rip+0x207451],0x1        # 2090e9 <have_read_stdin>
1c98:	31 ed                	xor    ebp,ebp
1c9a:	4c 8d b4 24 a0 02 00 	lea    r14,[rsp+0x2a0]
1ca1:	00
1ca2:	45 31 ff             	xor    r15d,r15d
1ca5:	31 db                	xor    ebx,ebx
1ca7:	66 0f 1f 84 00 00 00 	nop    WORD PTR [rax+rax*1+0x0]
1cae:	00 00
1cb0:	ba 00 20 00 00       	mov    edx,0x2000
1cb5:	4c 89 f6             	mov    rsi,r14
1cb8:	89 ef                	mov    edi,ebp
1cba:	e8 91 32 00 00       	call   4f50 <safe_read>
1cbf:	48 85 c0             	test   rax,rax
1cc2:	74 2c                	je     1cf0 <sysv_sum_file+0xb0>
1cc4:	48 83 f8 ff          	cmp    rax,0xffffffffffffffff
1cc8:	0f 84 e2 00 00 00    	je     1db0 <sysv_sum_file+0x170>
1cce:	49 8d 34 06          	lea    rsi,[r14+rax*1]
1cd2:	4c 89 f2             	mov    rdx,r14
1cd5:	0f 1f 00             	nop    DWORD PTR [rax]
1cd8:	0f b6 0a             	movzx  ecx,BYTE PTR [rdx]
1cdb:	48 83 c2 01          	add    rdx,0x1
1cdf:	41 01 cf             	add    r15d,ecx
1ce2:	48 39 d6             	cmp    rsi,rdx
1ce5:	75 f1                	jne    1cd8 <sysv_sum_file+0x98>
1ce7:	48 01 c3             	add    rbx,rax
1cea:	eb c4                	jmp    1cb0 <sysv_sum_file+0x70>
1cec:	0f 1f 40 00          	nop    DWORD PTR [rax+0x0]
1cf0:	45 85 e4             	test   r12d,r12d
1cf3:	74 0f                	je     1d04 <sysv_sum_file+0xc4>
1cf5:	89 ef                	mov    edi,ebp
1cf7:	e8 54 fa ff ff       	call   1750 <close@plt>
1cfc:	85 c0                	test   eax,eax
1cfe:	0f 85 03 01 00 00    	jne    1e07 <sysv_sum_file+0x1c7>
1d04:	41 0f b7 c7          	movzx  eax,r15w
1d08:	41 c1 ef 10          	shr    r15d,0x10
1d0c:	48 8d 74 24 10       	lea    rsi,[rsp+0x10]
1d11:	41 01 c7             	add    r15d,eax
1d14:	31 d2                	xor    edx,edx
1d16:	41 b8 00 02 00 00    	mov    r8d,0x200
1d1c:	41 0f b7 c7          	movzx  eax,r15w
1d20:	b9 01 00 00 00       	mov    ecx,0x1
1d25:	41 c1 ff 10          	sar    r15d,0x10
1d29:	48 89 df             	mov    rdi,rbx
1d2c:	41 01 c7             	add    r15d,eax
1d2f:	e8 ec 08 00 00       	call   2620 <human_readable>
1d34:	48 8d 35 49 46 00 00 	lea    rsi,[rip+0x4649]        # 6384 <_IO_stdin_used+0x4>
1d3b:	48 89 c1             	mov    rcx,rax
1d3e:	44 89 fa             	mov    edx,r15d
1d41:	31 c0                	xor    eax,eax
1d43:	bf 01 00 00 00       	mov    edi,0x1
1d48:	e8 f3 fa ff ff       	call   1840 <__printf_chk@plt>
1d4d:	8b 44 24 0c          	mov    eax,DWORD PTR [rsp+0xc]
1d51:	85 c0                	test   eax,eax
1d53:	0f 85 e1 00 00 00    	jne    1e3a <sysv_sum_file+0x1fa>
1d59:	48 8b 3d 48 73 20 00 	mov    rdi,QWORD PTR [rip+0x207348]        # 2090a8 <stdout@@GLIBC_2.2.5>
1d60:	48 8b 47 28          	mov    rax,QWORD PTR [rdi+0x28]
1d64:	48 3b 47 30          	cmp    rax,QWORD PTR [rdi+0x30]
1d68:	0f 83 e7 00 00 00    	jae    1e55 <sysv_sum_file+0x215>
1d6e:	48 8d 50 01          	lea    rdx,[rax+0x1]
1d72:	bb 01 00 00 00       	mov    ebx,0x1
1d77:	48 89 57 28          	mov    QWORD PTR [rdi+0x28],rdx
1d7b:	c6 00 0a             	mov    BYTE PTR [rax],0xa
1d7e:	89 d8                	mov    eax,ebx
1d80:	48 8b 9c 24 a8 22 00 	mov    rbx,QWORD PTR [rsp+0x22a8]
1d87:	00
1d88:	64 48 33 1c 25 28 00 	xor    rbx,QWORD PTR fs:0x28
1d8f:	00 00
1d91:	0f 85 d2 00 00 00    	jne    1e69 <sysv_sum_file+0x229>
1d97:	48 81 c4 b8 22 00 00 	add    rsp,0x22b8
1d9e:	5b                   	pop    rbx
1d9f:	5d                   	pop    rbp
1da0:	41 5c                	pop    r12
1da2:	41 5d                	pop    r13
1da4:	41 5e                	pop    r14
1da6:	41 5f                	pop    r15
1da8:	c3                   	ret
1da9:	0f 1f 80 00 00 00 00 	nop    DWORD PTR [rax+0x0]
1db0:	31 ff                	xor    edi,edi
1db2:	4c 89 ea             	mov    rdx,r13
1db5:	be 03 00 00 00       	mov    esi,0x3
1dba:	e8 a1 2f 00 00       	call   4d60 <quotearg_n_style_colon>
1dbf:	48 89 c3             	mov    rbx,rax
1dc2:	e8 39 f8 ff ff       	call   1600 <__errno_location@plt>
1dc7:	8b 30                	mov    esi,DWORD PTR [rax]
1dc9:	48 8d 15 b2 53 00 00 	lea    rdx,[rip+0x53b2]        # 7182 <__PRETTY_FUNCTION__.4162+0x62>
1dd0:	48 89 d9             	mov    rcx,rbx
1dd3:	31 ff                	xor    edi,edi
1dd5:	31 c0                	xor    eax,eax
1dd7:	31 db                	xor    ebx,ebx
1dd9:	e8 92 fa ff ff       	call   1870 <error@plt>
1dde:	45 85 e4             	test   r12d,r12d
1de1:	74 9b                	je     1d7e <sysv_sum_file+0x13e>
1de3:	89 ef                	mov    edi,ebp
1de5:	e8 66 f9 ff ff       	call   1750 <close@plt>
1dea:	eb 92                	jmp    1d7e <sysv_sum_file+0x13e>
1dec:	0f 1f 40 00          	nop    DWORD PTR [rax+0x0]
1df0:	31 f6                	xor    esi,esi
1df2:	31 c0                	xor    eax,eax
1df4:	4c 89 ef             	mov    rdi,r13
1df7:	e8 84 fa ff ff       	call   1880 <open@plt>
1dfc:	83 f8 ff             	cmp    eax,0xffffffff
1dff:	89 c5                	mov    ebp,eax
1e01:	0f 85 93 fe ff ff    	jne    1c9a <sysv_sum_file+0x5a>
1e07:	4c 89 ea             	mov    rdx,r13
1e0a:	be 03 00 00 00       	mov    esi,0x3
1e0f:	31 ff                	xor    edi,edi
1e11:	e8 4a 2f 00 00       	call   4d60 <quotearg_n_style_colon>
1e16:	48 89 c3             	mov    rbx,rax
1e19:	e8 e2 f7 ff ff       	call   1600 <__errno_location@plt>
1e1e:	8b 30                	mov    esi,DWORD PTR [rax]
1e20:	48 8d 15 5b 53 00 00 	lea    rdx,[rip+0x535b]        # 7182 <__PRETTY_FUNCTION__.4162+0x62>
1e27:	48 89 d9             	mov    rcx,rbx
1e2a:	31 ff                	xor    edi,edi
1e2c:	31 c0                	xor    eax,eax
1e2e:	31 db                	xor    ebx,ebx
1e30:	e8 3b fa ff ff       	call   1870 <error@plt>
1e35:	e9 44 ff ff ff       	jmp    1d7e <sysv_sum_file+0x13e>
1e3a:	48 8d 35 40 53 00 00 	lea    rsi,[rip+0x5340]        # 7181 <__PRETTY_FUNCTION__.4162+0x61>
1e41:	4c 89 ea             	mov    rdx,r13
1e44:	bf 01 00 00 00       	mov    edi,0x1
1e49:	31 c0                	xor    eax,eax
1e4b:	e8 f0 f9 ff ff       	call   1840 <__printf_chk@plt>
1e50:	e9 04 ff ff ff       	jmp    1d59 <sysv_sum_file+0x119>
1e55:	be 0a 00 00 00       	mov    esi,0xa
1e5a:	bb 01 00 00 00       	mov    ebx,0x1
1e5f:	e8 8c f8 ff ff       	call   16f0 <__overflow@plt>
1e64:	e9 15 ff ff ff       	jmp    1d7e <sysv_sum_file+0x13e>
1e69:	e8 42 f8 ff ff       	call   16b0 <__stack_chk_fail@plt>
1e6e:	66 90                	xchg   ax,ax

0000000000001e70 <bsd_sum_file>:
1e70:	41 57                	push   r15
1e72:	41 56                	push   r14
1e74:	b9 02 00 00 00       	mov    ecx,0x2
1e79:	41 55                	push   r13
1e7b:	41 54                	push   r12
1e7d:	49 89 fc             	mov    r12,rdi
1e80:	55                   	push   rbp
1e81:	53                   	push   rbx
1e82:	48 8d 3d 29 49 00 00 	lea    rdi,[rip+0x4929]        # 67b2 <power_letter+0x6a>
1e89:	41 89 f5             	mov    r13d,esi
1e8c:	4c 89 e6             	mov    rsi,r12
1e8f:	48 81 ec a8 02 00 00 	sub    rsp,0x2a8
1e96:	64 48 8b 04 25 28 00 	mov    rax,QWORD PTR fs:0x28
1e9d:	00 00
1e9f:	48 89 84 24 98 02 00 	mov    QWORD PTR [rsp+0x298],rax
1ea6:	00
1ea7:	31 c0                	xor    eax,eax
1ea9:	f3 a6                	repz cmps BYTE PTR ds:[rsi],BYTE PTR es:[rdi]
1eab:	40 0f 97 c5          	seta   bpl
1eaf:	40 80 dd 00          	sbb    bpl,0x0
1eb3:	40 0f be ed          	movsx  ebp,bpl
1eb7:	85 ed                	test   ebp,ebp
1eb9:	0f 85 31 01 00 00    	jne    1ff0 <bsd_sum_file+0x180>
1ebf:	4c 8b 3d ea 71 20 00 	mov    r15,QWORD PTR [rip+0x2071ea]        # 2090b0 <stdin@@GLIBC_2.2.5>
1ec6:	c6 05 1c 72 20 00 01 	mov    BYTE PTR [rip+0x20721c],0x1        # 2090e9 <have_read_stdin>
1ecd:	be 02 00 00 00       	mov    esi,0x2
1ed2:	4c 89 ff             	mov    rdi,r15
1ed5:	45 31 f6             	xor    r14d,r14d
1ed8:	e8 43 06 00 00       	call   2520 <fadvise>
1edd:	31 db                	xor    ebx,ebx
1edf:	49 8b 77 10          	mov    rsi,QWORD PTR [r15+0x10]
1ee3:	49 8b 47 08          	mov    rax,QWORD PTR [r15+0x8]
1ee7:	eb 2a                	jmp    1f13 <bsd_sum_file+0xa3>
1ee9:	0f 1f 80 00 00 00 00 	nop    DWORD PTR [rax+0x0]
1ef0:	48 8d 48 01          	lea    rcx,[rax+0x1]
1ef4:	49 89 4f 08          	mov    QWORD PTR [r15+0x8],rcx
1ef8:	0f b6 00             	movzx  eax,BYTE PTR [rax]
1efb:	89 da                	mov    edx,ebx
1efd:	c1 e3 0f             	shl    ebx,0xf
1f00:	49 83 c6 01          	add    r14,0x1
1f04:	d1 fa                	sar    edx,1
1f06:	0f b7 db             	movzx  ebx,bx
1f09:	01 d3                	add    ebx,edx
1f0b:	01 c3                	add    ebx,eax
1f0d:	48 89 c8             	mov    rax,rcx
1f10:	0f b7 db             	movzx  ebx,bx
1f13:	48 39 c6             	cmp    rsi,rax
1f16:	77 d8                	ja     1ef0 <bsd_sum_file+0x80>
1f18:	4c 89 ff             	mov    rdi,r15
1f1b:	e8 a0 f6 ff ff       	call   15c0 <__uflow@plt>
1f20:	83 f8 ff             	cmp    eax,0xffffffff
1f23:	0f 85 73 01 00 00    	jne    209c <bsd_sum_file+0x22c>
1f29:	41 f6 07 20          	test   BYTE PTR [r15],0x20
1f2d:	0f 85 0d 01 00 00    	jne    2040 <bsd_sum_file+0x1d0>
1f33:	85 ed                	test   ebp,ebp
1f35:	74 10                	je     1f47 <bsd_sum_file+0xd7>
1f37:	4c 89 ff             	mov    rdi,r15
1f3a:	e8 41 3d 00 00       	call   5c80 <rpl_fclose>
1f3f:	85 c0                	test   eax,eax
1f41:	0f 85 c4 00 00 00    	jne    200b <bsd_sum_file+0x19b>
1f47:	31 d2                	xor    edx,edx
1f49:	48 89 e6             	mov    rsi,rsp
1f4c:	41 b8 00 04 00 00    	mov    r8d,0x400
1f52:	b9 01 00 00 00       	mov    ecx,0x1
1f57:	4c 89 f7             	mov    rdi,r14
1f5a:	e8 c1 06 00 00       	call   2620 <human_readable>
1f5f:	48 8d 35 24 44 00 00 	lea    rsi,[rip+0x4424]        # 638a <_IO_stdin_used+0xa>
1f66:	48 89 c1             	mov    rcx,rax
1f69:	89 da                	mov    edx,ebx
1f6b:	31 c0                	xor    eax,eax
1f6d:	bf 01 00 00 00       	mov    edi,0x1
1f72:	e8 c9 f8 ff ff       	call   1840 <__printf_chk@plt>
1f77:	41 83 fd 01          	cmp    r13d,0x1
1f7b:	7f 53                	jg     1fd0 <bsd_sum_file+0x160>
1f7d:	48 8b 3d 24 71 20 00 	mov    rdi,QWORD PTR [rip+0x207124]        # 2090a8 <stdout@@GLIBC_2.2.5>
1f84:	48 8b 47 28          	mov    rax,QWORD PTR [rdi+0x28]
1f88:	48 3b 47 30          	cmp    rax,QWORD PTR [rdi+0x30]
1f8c:	0f 83 f1 00 00 00    	jae    2083 <bsd_sum_file+0x213>
1f92:	48 8d 50 01          	lea    rdx,[rax+0x1]
1f96:	bb 01 00 00 00       	mov    ebx,0x1
1f9b:	48 89 57 28          	mov    QWORD PTR [rdi+0x28],rdx
1f9f:	c6 00 0a             	mov    BYTE PTR [rax],0xa
1fa2:	48 8b bc 24 98 02 00 	mov    rdi,QWORD PTR [rsp+0x298]
1fa9:	00
1faa:	64 48 33 3c 25 28 00 	xor    rdi,QWORD PTR fs:0x28
1fb1:	00 00
1fb3:	89 d8                	mov    eax,ebx
1fb5:	0f 85 dc 00 00 00    	jne    2097 <bsd_sum_file+0x227>
1fbb:	48 81 c4 a8 02 00 00 	add    rsp,0x2a8
1fc2:	5b                   	pop    rbx
1fc3:	5d                   	pop    rbp
1fc4:	41 5c                	pop    r12
1fc6:	41 5d                	pop    r13
1fc8:	41 5e                	pop    r14
1fca:	41 5f                	pop    r15
1fcc:	c3                   	ret
1fcd:	0f 1f 00             	nop    DWORD PTR [rax]
1fd0:	48 8d 35 aa 51 00 00 	lea    rsi,[rip+0x51aa]        # 7181 <__PRETTY_FUNCTION__.4162+0x61>
1fd7:	4c 89 e2             	mov    rdx,r12
1fda:	bf 01 00 00 00       	mov    edi,0x1
1fdf:	31 c0                	xor    eax,eax
1fe1:	e8 5a f8 ff ff       	call   1840 <__printf_chk@plt>
1fe6:	eb 95                	jmp    1f7d <bsd_sum_file+0x10d>
1fe8:	0f 1f 84 00 00 00 00 	nop    DWORD PTR [rax+rax*1+0x0]
1fef:	00
1ff0:	48 8d 35 e3 46 00 00 	lea    rsi,[rip+0x46e3]        # 66da <_IO_stdin_used+0x35a>
1ff7:	4c 89 e7             	mov    rdi,r12
1ffa:	e8 a1 f8 ff ff       	call   18a0 <fopen@plt>
1fff:	48 85 c0             	test   rax,rax
2002:	49 89 c7             	mov    r15,rax
2005:	0f 85 c2 fe ff ff    	jne    1ecd <bsd_sum_file+0x5d>
200b:	4c 89 e2             	mov    rdx,r12
200e:	be 03 00 00 00       	mov    esi,0x3
2013:	31 ff                	xor    edi,edi
2015:	e8 46 2d 00 00       	call   4d60 <quotearg_n_style_colon>
201a:	48 89 c3             	mov    rbx,rax
201d:	e8 de f5 ff ff       	call   1600 <__errno_location@plt>
2022:	8b 30                	mov    esi,DWORD PTR [rax]
2024:	48 8d 15 57 51 00 00 	lea    rdx,[rip+0x5157]        # 7182 <__PRETTY_FUNCTION__.4162+0x62>
202b:	48 89 d9             	mov    rcx,rbx
202e:	31 ff                	xor    edi,edi
2030:	31 c0                	xor    eax,eax
2032:	31 db                	xor    ebx,ebx
2034:	e8 37 f8 ff ff       	call   1870 <error@plt>
2039:	e9 64 ff ff ff       	jmp    1fa2 <bsd_sum_file+0x132>
203e:	66 90                	xchg   ax,ax
2040:	31 ff                	xor    edi,edi
2042:	4c 89 e2             	mov    rdx,r12
2045:	be 03 00 00 00       	mov    esi,0x3
204a:	e8 11 2d 00 00       	call   4d60 <quotearg_n_style_colon>
204f:	48 89 c3             	mov    rbx,rax
2052:	e8 a9 f5 ff ff       	call   1600 <__errno_location@plt>
2057:	8b 30                	mov    esi,DWORD PTR [rax]
2059:	48 8d 15 22 51 00 00 	lea    rdx,[rip+0x5122]        # 7182 <__PRETTY_FUNCTION__.4162+0x62>
2060:	48 89 d9             	mov    rcx,rbx
2063:	31 ff                	xor    edi,edi
2065:	31 c0                	xor    eax,eax
2067:	31 db                	xor    ebx,ebx
2069:	e8 02 f8 ff ff       	call   1870 <error@plt>
206e:	85 ed                	test   ebp,ebp
2070:	0f 84 2c ff ff ff    	je     1fa2 <bsd_sum_file+0x132>
2076:	4c 89 ff             	mov    rdi,r15
2079:	e8 02 3c 00 00       	call   5c80 <rpl_fclose>
207e:	e9 1f ff ff ff       	jmp    1fa2 <bsd_sum_file+0x132>
2083:	be 0a 00 00 00       	mov    esi,0xa
2088:	bb 01 00 00 00       	mov    ebx,0x1
208d:	e8 5e f6 ff ff       	call   16f0 <__overflow@plt>
2092:	e9 0b ff ff ff       	jmp    1fa2 <bsd_sum_file+0x132>
2097:	e8 14 f6 ff ff       	call   16b0 <__stack_chk_fail@plt>
209c:	49 8b 77 10          	mov    rsi,QWORD PTR [r15+0x10]
20a0:	49 8b 4f 08          	mov    rcx,QWORD PTR [r15+0x8]
20a4:	e9 52 fe ff ff       	jmp    1efb <bsd_sum_file+0x8b>
20a9:	0f 1f 80 00 00 00 00 	nop    DWORD PTR [rax+0x0]

00000000000020b0 <usage>:
20b0:	41 55                	push   r13
20b2:	41 54                	push   r12
20b4:	ba 05 00 00 00       	mov    edx,0x5
20b9:	55                   	push   rbp
20ba:	53                   	push   rbx
20bb:	89 fd                	mov    ebp,edi
20bd:	48 81 ec 88 00 00 00 	sub    rsp,0x88
20c4:	48 8b 1d 35 70 20 00 	mov    rbx,QWORD PTR [rip+0x207035]        # 209100 <program_name>
20cb:	64 48 8b 04 25 28 00 	mov    rax,QWORD PTR fs:0x28
20d2:	00 00
20d4:	48 89 44 24 78       	mov    QWORD PTR [rsp+0x78],rax
20d9:	31 c0                	xor    eax,eax
20db:	85 ff                	test   edi,edi
20dd:	74 2e                	je     210d <usage+0x5d>
20df:	48 8d 35 a2 43 00 00 	lea    rsi,[rip+0x43a2]        # 6488 <_IO_stdin_used+0x108>
20e6:	31 ff                	xor    edi,edi
20e8:	e8 93 f5 ff ff       	call   1680 <dcgettext@plt>
20ed:	48 8b 3d ec 6f 20 00 	mov    rdi,QWORD PTR [rip+0x206fec]        # 2090e0 <stderr@@GLIBC_2.2.5>
20f4:	48 89 c2             	mov    rdx,rax
20f7:	48 89 d9             	mov    rcx,rbx
20fa:	be 01 00 00 00       	mov    esi,0x1
20ff:	31 c0                	xor    eax,eax
2101:	e8 da f7 ff ff       	call   18e0 <__fprintf_chk@plt>
2106:	89 ef                	mov    edi,ebp
2108:	e8 b3 f7 ff ff       	call   18c0 <exit@plt>
210d:	48 8d 35 9c 43 00 00 	lea    rsi,[rip+0x439c]        # 64b0 <_IO_stdin_used+0x130>
2114:	31 ff                	xor    edi,edi
2116:	e8 65 f5 ff ff       	call   1680 <dcgettext@plt>
211b:	48 89 da             	mov    rdx,rbx
211e:	48 89 c6             	mov    rsi,rax
2121:	bf 01 00 00 00       	mov    edi,0x1
2126:	31 c0                	xor    eax,eax
2128:	e8 13 f7 ff ff       	call   1840 <__printf_chk@plt>
212d:	48 8b 1d 74 6f 20 00 	mov    rbx,QWORD PTR [rip+0x206f74]        # 2090a8 <stdout@@GLIBC_2.2.5>
2134:	48 8d 35 9d 43 00 00 	lea    rsi,[rip+0x439d]        # 64d8 <_IO_stdin_used+0x158>
213b:	ba 05 00 00 00       	mov    edx,0x5
2140:	31 ff                	xor    edi,edi
2142:	e8 39 f5 ff ff       	call   1680 <dcgettext@plt>
2147:	48 89 de             	mov    rsi,rbx
214a:	48 89 c7             	mov    rdi,rax
214d:	e8 3e f6 ff ff       	call   1790 <fputs_unlocked@plt>
2152:	48 8b 1d 4f 6f 20 00 	mov    rbx,QWORD PTR [rip+0x206f4f]        # 2090a8 <stdout@@GLIBC_2.2.5>
2159:	48 8d 35 a8 43 00 00 	lea    rsi,[rip+0x43a8]        # 6508 <_IO_stdin_used+0x188>
2160:	ba 05 00 00 00       	mov    edx,0x5
2165:	31 ff                	xor    edi,edi
2167:	e8 14 f5 ff ff       	call   1680 <dcgettext@plt>
216c:	48 89 de             	mov    rsi,rbx
216f:	48 89 c7             	mov    rdi,rax
2172:	e8 19 f6 ff ff       	call   1790 <fputs_unlocked@plt>
2177:	48 8b 1d 2a 6f 20 00 	mov    rbx,QWORD PTR [rip+0x206f2a]        # 2090a8 <stdout@@GLIBC_2.2.5>
217e:	48 8d 35 bb 43 00 00 	lea    rsi,[rip+0x43bb]        # 6540 <_IO_stdin_used+0x1c0>
2185:	ba 05 00 00 00       	mov    edx,0x5
218a:	31 ff                	xor    edi,edi
218c:	e8 ef f4 ff ff       	call   1680 <dcgettext@plt>
2191:	48 89 de             	mov    rsi,rbx
2194:	48 89 c7             	mov    rdi,rax
2197:	e8 f4 f5 ff ff       	call   1790 <fputs_unlocked@plt>
219c:	48 8b 1d 05 6f 20 00 	mov    rbx,QWORD PTR [rip+0x206f05]        # 2090a8 <stdout@@GLIBC_2.2.5>
21a3:	48 8d 35 16 44 00 00 	lea    rsi,[rip+0x4416]        # 65c0 <_IO_stdin_used+0x240>
21aa:	ba 05 00 00 00       	mov    edx,0x5
21af:	31 ff                	xor    edi,edi
21b1:	e8 ca f4 ff ff       	call   1680 <dcgettext@plt>
21b6:	48 89 de             	mov    rsi,rbx
21b9:	48 89 c7             	mov    rdi,rax
21bc:	e8 cf f5 ff ff       	call   1790 <fputs_unlocked@plt>
21c1:	48 8b 1d e0 6e 20 00 	mov    rbx,QWORD PTR [rip+0x206ee0]        # 2090a8 <stdout@@GLIBC_2.2.5>
21c8:	48 8d 35 21 44 00 00 	lea    rsi,[rip+0x4421]        # 65f0 <_IO_stdin_used+0x270>
21cf:	ba 05 00 00 00       	mov    edx,0x5
21d4:	31 ff                	xor    edi,edi
21d6:	e8 a5 f4 ff ff       	call   1680 <dcgettext@plt>
21db:	48 89 de             	mov    rsi,rbx
21de:	48 89 c7             	mov    rdi,rax
21e1:	48 8d 1d 06 42 00 00 	lea    rbx,[rip+0x4206]        # 63ee <_IO_stdin_used+0x6e>
21e8:	e8 a3 f5 ff ff       	call   1790 <fputs_unlocked@plt>
21ed:	48 8d 05 9f 41 00 00 	lea    rax,[rip+0x419f]        # 6393 <_IO_stdin_used+0x13>
21f4:	48 8d 0d d9 41 00 00 	lea    rcx,[rip+0x41d9]        # 63d4 <_IO_stdin_used+0x54>
21fb:	48 c7 44 24 60 00 00 	mov    QWORD PTR [rsp+0x60],0x0
2202:	00 00
2204:	48 c7 44 24 68 00 00 	mov    QWORD PTR [rsp+0x68],0x0
220b:	00 00
220d:	48 89 e2             	mov    rdx,rsp
2210:	48 89 04 24          	mov    QWORD PTR [rsp],rax
2214:	48 8d 05 7a 41 00 00 	lea    rax,[rip+0x417a]        # 6395 <_IO_stdin_used+0x15>
221b:	48 89 4c 24 30       	mov    QWORD PTR [rsp+0x30],rcx
2220:	48 8d 0d b7 41 00 00 	lea    rcx,[rip+0x41b7]        # 63de <_IO_stdin_used+0x5e>
2227:	48 89 44 24 08       	mov    QWORD PTR [rsp+0x8],rax
222c:	48 8d 05 da 41 00 00 	lea    rax,[rip+0x41da]        # 640d <_IO_stdin_used+0x8d>
2233:	48 89 4c 24 40       	mov    QWORD PTR [rsp+0x40],rcx
2238:	48 8d 0d a9 41 00 00 	lea    rcx,[rip+0x41a9]        # 63e8 <_IO_stdin_used+0x68>
223f:	48 89 44 24 10       	mov    QWORD PTR [rsp+0x10],rax
2244:	48 8d 05 5a 41 00 00 	lea    rax,[rip+0x415a]        # 63a5 <_IO_stdin_used+0x25>
224b:	48 89 4c 24 50       	mov    QWORD PTR [rsp+0x50],rcx
2250:	48 89 44 24 18       	mov    QWORD PTR [rsp+0x18],rax
2255:	48 8d 05 5f 41 00 00 	lea    rax,[rip+0x415f]        # 63bb <_IO_stdin_used+0x3b>
225c:	48 89 44 24 20       	mov    QWORD PTR [rsp+0x20],rax
2261:	48 8d 05 5d 41 00 00 	lea    rax,[rip+0x415d]        # 63c5 <_IO_stdin_used+0x45>
2268:	48 89 44 24 28       	mov    QWORD PTR [rsp+0x28],rax
226d:	48 89 44 24 38       	mov    QWORD PTR [rsp+0x38],rax
2272:	48 89 44 24 48       	mov    QWORD PTR [rsp+0x48],rax
2277:	48 89 44 24 58       	mov    QWORD PTR [rsp+0x58],rax
227c:	0f 1f 40 00          	nop    DWORD PTR [rax+0x0]
2280:	48 83 c2 10          	add    rdx,0x10
2284:	48 8b 3a             	mov    rdi,QWORD PTR [rdx]
2287:	48 85 ff             	test   rdi,rdi
228a:	74 13                	je     229f <usage+0x1ef>
228c:	b9 04 00 00 00       	mov    ecx,0x4
2291:	48 89 de             	mov    rsi,rbx
2294:	f3 a6                	repz cmps BYTE PTR ds:[rsi],BYTE PTR es:[rdi]
2296:	0f 97 c0             	seta   al
2299:	1c 00                	sbb    al,0x0
229b:	84 c0                	test   al,al
229d:	75 e1                	jne    2280 <usage+0x1d0>
229f:	4c 8b 62 08          	mov    r12,QWORD PTR [rdx+0x8]
22a3:	31 ff                	xor    edi,edi
22a5:	ba 05 00 00 00       	mov    edx,0x5
22aa:	48 8d 35 41 41 00 00 	lea    rsi,[rip+0x4141]        # 63f2 <_IO_stdin_used+0x72>
22b1:	4d 85 e4             	test   r12,r12
22b4:	0f 84 c1 00 00 00    	je     237b <usage+0x2cb>
22ba:	e8 c1 f3 ff ff       	call   1680 <dcgettext@plt>
22bf:	48 8d 0d 62 43 00 00 	lea    rcx,[rip+0x4362]        # 6628 <_IO_stdin_used+0x2a8>
22c6:	48 8d 15 3c 41 00 00 	lea    rdx,[rip+0x413c]        # 6409 <_IO_stdin_used+0x89>
22cd:	48 89 c6             	mov    rsi,rax
22d0:	bf 01 00 00 00       	mov    edi,0x1
22d5:	31 c0                	xor    eax,eax
22d7:	e8 64 f5 ff ff       	call   1840 <__printf_chk@plt>
22dc:	31 f6                	xor    esi,esi
22de:	bf 05 00 00 00       	mov    edi,0x5
22e3:	e8 48 f5 ff ff       	call   1830 <setlocale@plt>
22e8:	48 85 c0             	test   rax,rax
22eb:	74 1c                	je     2309 <usage+0x259>
22ed:	48 8d 35 23 41 00 00 	lea    rsi,[rip+0x4123]        # 6417 <_IO_stdin_used+0x97>
22f4:	ba 03 00 00 00       	mov    edx,0x3
22f9:	48 89 c7             	mov    rdi,rax
22fc:	e8 0f f3 ff ff       	call   1610 <strncmp@plt>
2301:	85 c0                	test   eax,eax
2303:	0f 85 07 01 00 00    	jne    2410 <usage+0x360>
2309:	48 8d 35 0b 41 00 00 	lea    rsi,[rip+0x410b]        # 641b <_IO_stdin_used+0x9b>
2310:	31 ff                	xor    edi,edi
2312:	ba 05 00 00 00       	mov    edx,0x5
2317:	e8 64 f3 ff ff       	call   1680 <dcgettext@plt>
231c:	48 8d 0d cb 40 00 00 	lea    rcx,[rip+0x40cb]        # 63ee <_IO_stdin_used+0x6e>
2323:	48 8d 15 fe 42 00 00 	lea    rdx,[rip+0x42fe]        # 6628 <_IO_stdin_used+0x2a8>
232a:	48 89 c6             	mov    rsi,rax
232d:	bf 01 00 00 00       	mov    edi,0x1
2332:	31 c0                	xor    eax,eax
2334:	e8 07 f5 ff ff       	call   1840 <__printf_chk@plt>
2339:	49 39 dc             	cmp    r12,rbx
233c:	48 8d 0d 6c 40 00 00 	lea    rcx,[rip+0x406c]        # 63af <_IO_stdin_used+0x2f>
2343:	48 8d 1d 97 49 00 00 	lea    rbx,[rip+0x4997]        # 6ce1 <quoting_style_vals+0x81>
234a:	48 0f 44 d9          	cmove  rbx,rcx
234e:	48 8d 35 43 43 00 00 	lea    rsi,[rip+0x4343]        # 6698 <_IO_stdin_used+0x318>
2355:	31 ff                	xor    edi,edi
2357:	ba 05 00 00 00       	mov    edx,0x5
235c:	e8 1f f3 ff ff       	call   1680 <dcgettext@plt>
2361:	48 89 d9             	mov    rcx,rbx
2364:	48 89 c6             	mov    rsi,rax
2367:	4c 89 e2             	mov    rdx,r12
236a:	bf 01 00 00 00       	mov    edi,0x1
236f:	31 c0                	xor    eax,eax
2371:	e8 ca f4 ff ff       	call   1840 <__printf_chk@plt>
2376:	e9 8b fd ff ff       	jmp    2106 <usage+0x56>
237b:	e8 00 f3 ff ff       	call   1680 <dcgettext@plt>
2380:	48 8d 0d a1 42 00 00 	lea    rcx,[rip+0x42a1]        # 6628 <_IO_stdin_used+0x2a8>
2387:	48 8d 15 7b 40 00 00 	lea    rdx,[rip+0x407b]        # 6409 <_IO_stdin_used+0x89>
238e:	48 89 c6             	mov    rsi,rax
2391:	bf 01 00 00 00       	mov    edi,0x1
2396:	31 c0                	xor    eax,eax
2398:	e8 a3 f4 ff ff       	call   1840 <__printf_chk@plt>
239d:	31 f6                	xor    esi,esi
239f:	bf 05 00 00 00       	mov    edi,0x5
23a4:	e8 87 f4 ff ff       	call   1830 <setlocale@plt>
23a9:	48 85 c0             	test   rax,rax
23ac:	74 18                	je     23c6 <usage+0x316>
23ae:	48 8d 35 62 40 00 00 	lea    rsi,[rip+0x4062]        # 6417 <_IO_stdin_used+0x97>
23b5:	ba 03 00 00 00       	mov    edx,0x3
23ba:	48 89 c7             	mov    rdi,rax
23bd:	e8 4e f2 ff ff       	call   1610 <strncmp@plt>
23c2:	85 c0                	test   eax,eax
23c4:	75 43                	jne    2409 <usage+0x359>
23c6:	48 8d 35 4e 40 00 00 	lea    rsi,[rip+0x404e]        # 641b <_IO_stdin_used+0x9b>
23cd:	ba 05 00 00 00       	mov    edx,0x5
23d2:	31 ff                	xor    edi,edi
23d4:	4c 8d 25 13 40 00 00 	lea    r12,[rip+0x4013]        # 63ee <_IO_stdin_used+0x6e>
23db:	48 8d 1d cd 3f 00 00 	lea    rbx,[rip+0x3fcd]        # 63af <_IO_stdin_used+0x2f>
23e2:	e8 99 f2 ff ff       	call   1680 <dcgettext@plt>
23e7:	48 8d 0d 00 40 00 00 	lea    rcx,[rip+0x4000]        # 63ee <_IO_stdin_used+0x6e>
23ee:	48 8d 15 33 42 00 00 	lea    rdx,[rip+0x4233]        # 6628 <_IO_stdin_used+0x2a8>
23f5:	48 89 c6             	mov    rsi,rax
23f8:	bf 01 00 00 00       	mov    edi,0x1
23fd:	31 c0                	xor    eax,eax
23ff:	e8 3c f4 ff ff       	call   1840 <__printf_chk@plt>
2404:	e9 45 ff ff ff       	jmp    234e <usage+0x29e>
2409:	4c 8d 25 de 3f 00 00 	lea    r12,[rip+0x3fde]        # 63ee <_IO_stdin_used+0x6e>
2410:	4c 8b 2d 91 6c 20 00 	mov    r13,QWORD PTR [rip+0x206c91]        # 2090a8 <stdout@@GLIBC_2.2.5>
2417:	48 8d 35 32 42 00 00 	lea    rsi,[rip+0x4232]        # 6650 <_IO_stdin_used+0x2d0>
241e:	31 ff                	xor    edi,edi
2420:	ba 05 00 00 00       	mov    edx,0x5
2425:	e8 56 f2 ff ff       	call   1680 <dcgettext@plt>
242a:	4c 89 ee             	mov    rsi,r13
242d:	48 89 c7             	mov    rdi,rax
2430:	e8 5b f3 ff ff       	call   1790 <fputs_unlocked@plt>
2435:	e9 cf fe ff ff       	jmp    2309 <usage+0x259>
243a:	66 0f 1f 44 00 00    	nop    WORD PTR [rax+rax*1+0x0]

0000000000002440 <close_stdout_set_file_name>:
2440:	48 89 3d b1 6c 20 00 	mov    QWORD PTR [rip+0x206cb1],rdi        # 2090f8 <file_name>
2447:	c3                   	ret
2448:	0f 1f 84 00 00 00 00 	nop    DWORD PTR [rax+rax*1+0x0]
244f:	00

0000000000002450 <close_stdout_set_ignore_EPIPE>:
2450:	40 88 3d 99 6c 20 00 	mov    BYTE PTR [rip+0x206c99],dil        # 2090f0 <ignore_EPIPE>
2457:	c3                   	ret
2458:	0f 1f 84 00 00 00 00 	nop    DWORD PTR [rax+rax*1+0x0]
245f:	00

0000000000002460 <close_stdout>:
2460:	55                   	push   rbp
2461:	53                   	push   rbx
2462:	48 83 ec 08          	sub    rsp,0x8
2466:	48 8b 3d 3b 6c 20 00 	mov    rdi,QWORD PTR [rip+0x206c3b]        # 2090a8 <stdout@@GLIBC_2.2.5>
246d:	e8 4e 3d 00 00       	call   61c0 <close_stream>
2472:	85 c0                	test   eax,eax
2474:	74 16                	je     248c <close_stdout+0x2c>
2476:	e8 85 f1 ff ff       	call   1600 <__errno_location@plt>
247b:	80 3d 6e 6c 20 00 00 	cmp    BYTE PTR [rip+0x206c6e],0x0        # 2090f0 <ignore_EPIPE>
2482:	48 89 c3             	mov    rbx,rax
2485:	74 1c                	je     24a3 <close_stdout+0x43>
2487:	83 38 20             	cmp    DWORD PTR [rax],0x20
248a:	75 17                	jne    24a3 <close_stdout+0x43>
248c:	48 8b 3d 4d 6c 20 00 	mov    rdi,QWORD PTR [rip+0x206c4d]        # 2090e0 <stderr@@GLIBC_2.2.5>
2493:	e8 28 3d 00 00       	call   61c0 <close_stream>
2498:	85 c0                	test   eax,eax
249a:	75 46                	jne    24e2 <close_stdout+0x82>
249c:	48 83 c4 08          	add    rsp,0x8
24a0:	5b                   	pop    rbx
24a1:	5d                   	pop    rbp
24a2:	c3                   	ret
24a3:	48 8d 35 26 42 00 00 	lea    rsi,[rip+0x4226]        # 66d0 <_IO_stdin_used+0x350>
24aa:	31 ff                	xor    edi,edi
24ac:	ba 05 00 00 00       	mov    edx,0x5
24b1:	e8 ca f1 ff ff       	call   1680 <dcgettext@plt>
24b6:	48 8b 3d 3b 6c 20 00 	mov    rdi,QWORD PTR [rip+0x206c3b]        # 2090f8 <file_name>
24bd:	48 89 c5             	mov    rbp,rax
24c0:	48 85 ff             	test   rdi,rdi
24c3:	74 28                	je     24ed <close_stdout+0x8d>
24c5:	e8 66 28 00 00       	call   4d30 <quotearg_colon>
24ca:	8b 33                	mov    esi,DWORD PTR [rbx]
24cc:	48 8d 15 09 42 00 00 	lea    rdx,[rip+0x4209]        # 66dc <_IO_stdin_used+0x35c>
24d3:	48 89 c1             	mov    rcx,rax
24d6:	49 89 e8             	mov    r8,rbp
24d9:	31 ff                	xor    edi,edi
24db:	31 c0                	xor    eax,eax
24dd:	e8 8e f3 ff ff       	call   1870 <error@plt>
24e2:	8b 3d 30 6b 20 00    	mov    edi,DWORD PTR [rip+0x206b30]        # 209018 <exit_failure>
24e8:	e8 33 f1 ff ff       	call   1620 <_exit@plt>
24ed:	8b 33                	mov    esi,DWORD PTR [rbx]
24ef:	48 8d 15 8c 4c 00 00 	lea    rdx,[rip+0x4c8c]        # 7182 <__PRETTY_FUNCTION__.4162+0x62>
24f6:	48 89 c1             	mov    rcx,rax
24f9:	31 ff                	xor    edi,edi
24fb:	31 c0                	xor    eax,eax
24fd:	e8 6e f3 ff ff       	call   1870 <error@plt>
2502:	eb de                	jmp    24e2 <close_stdout+0x82>
2504:	66 2e 0f 1f 84 00 00 	nop    WORD PTR cs:[rax+rax*1+0x0]
250b:	00 00 00
250e:	66 90                	xchg   ax,ax

0000000000002510 <fdadvise>:
2510:	e9 4b f2 ff ff       	jmp    1760 <posix_fadvise@plt>
2515:	90                   	nop
2516:	66 2e 0f 1f 84 00 00 	nop    WORD PTR cs:[rax+rax*1+0x0]
251d:	00 00 00

0000000000002520 <fadvise>:
2520:	48 85 ff             	test   rdi,rdi
2523:	74 1b                	je     2540 <fadvise+0x20>
2525:	53                   	push   rbx
2526:	89 f3                	mov    ebx,esi
2528:	e8 a3 f2 ff ff       	call   17d0 <fileno@plt>
252d:	89 d9                	mov    ecx,ebx
252f:	31 d2                	xor    edx,edx
2531:	31 f6                	xor    esi,esi
2533:	5b                   	pop    rbx
2534:	89 c7                	mov    edi,eax
2536:	e9 25 f2 ff ff       	jmp    1760 <posix_fadvise@plt>
253b:	0f 1f 44 00 00       	nop    DWORD PTR [rax+rax*1+0x0]
2540:	f3 c3                	repz ret
2542:	66 2e 0f 1f 84 00 00 	nop    WORD PTR cs:[rax+rax*1+0x0]
2549:	00 00 00
254c:	0f 1f 40 00          	nop    DWORD PTR [rax+0x0]

0000000000002550 <adjust_value.part.0>:
2550:	d9 05 fe 41 00 00    	fld    DWORD PTR [rip+0x41fe]        # 6754 <power_letter+0xc>
2556:	db 6c 24 08          	fld    TBYTE PTR [rsp+0x8]
255a:	db e9                	fucomi st,st(1)
255c:	73 72                	jae    25d0 <adjust_value.part.0+0x80>
255e:	dd d9                	fstp   st(1)
2560:	d9 7c 24 f6          	fnstcw WORD PTR [rsp-0xa]
2564:	0f b7 44 24 f6       	movzx  eax,WORD PTR [rsp-0xa]
2569:	80 cc 0c             	or     ah,0xc
256c:	66 89 44 24 f4       	mov    WORD PTR [rsp-0xc],ax
2571:	d9 c0                	fld    st(0)
2573:	d9 6c 24 f4          	fldcw  WORD PTR [rsp-0xc]
2577:	df 7c 24 e8          	fistp  QWORD PTR [rsp-0x18]
257b:	d9 6c 24 f6          	fldcw  WORD PTR [rsp-0xa]
257f:	48 8b 44 24 e8       	mov    rax,QWORD PTR [rsp-0x18]
2584:	48 89 44 24 e0       	mov    QWORD PTR [rsp-0x20],rax
2589:	48 85 c0             	test   rax,rax
258c:	df 6c 24 e0          	fild   QWORD PTR [rsp-0x20]
2590:	79 06                	jns    2598 <adjust_value.part.0+0x48>
2592:	d8 05 c0 41 00 00    	fadd   DWORD PTR [rip+0x41c0]        # 6758 <power_letter+0x10>
2598:	85 ff                	test   edi,edi
259a:	75 2c                	jne    25c8 <adjust_value.part.0+0x78>
259c:	d9 c9                	fxch   st(1)
259e:	df e9                	fucomip st,st(1)
25a0:	7a 06                	jp     25a8 <adjust_value.part.0+0x58>
25a2:	74 26                	je     25ca <adjust_value.part.0+0x7a>
25a4:	dd d8                	fstp   st(0)
25a6:	eb 08                	jmp    25b0 <adjust_value.part.0+0x60>
25a8:	dd d8                	fstp   st(0)
25aa:	66 0f 1f 44 00 00    	nop    WORD PTR [rax+rax*1+0x0]
25b0:	48 83 c0 01          	add    rax,0x1
25b4:	48 89 44 24 e0       	mov    QWORD PTR [rsp-0x20],rax
25b9:	48 85 c0             	test   rax,rax
25bc:	df 6c 24 e0          	fild   QWORD PTR [rsp-0x20]
25c0:	78 4e                	js     2610 <adjust_value.part.0+0xc0>
25c2:	eb 06                	jmp    25ca <adjust_value.part.0+0x7a>
25c4:	0f 1f 40 00          	nop    DWORD PTR [rax+0x0]
25c8:	dd d9                	fstp   st(1)
25ca:	f3 c3                	repz ret
25cc:	0f 1f 40 00          	nop    DWORD PTR [rax+0x0]
25d0:	d9 7c 24 f6          	fnstcw WORD PTR [rsp-0xa]
25d4:	0f b7 44 24 f6       	movzx  eax,WORD PTR [rsp-0xa]
25d9:	dc e1                	fsub   st(1),st
25db:	d9 c9                	fxch   st(1)
25dd:	48 ba 00 00 00 00 00 	movabs rdx,0x8000000000000000
25e4:	00 00 80
25e7:	80 cc 0c             	or     ah,0xc
25ea:	66 89 44 24 f4       	mov    WORD PTR [rsp-0xc],ax
25ef:	d9 6c 24 f4          	fldcw  WORD PTR [rsp-0xc]
25f3:	df 7c 24 e8          	fistp  QWORD PTR [rsp-0x18]
25f7:	d9 6c 24 f6          	fldcw  WORD PTR [rsp-0xa]
25fb:	48 8b 44 24 e8       	mov    rax,QWORD PTR [rsp-0x18]
2600:	48 31 d0             	xor    rax,rdx
2603:	e9 7c ff ff ff       	jmp    2584 <adjust_value.part.0+0x34>
2608:	0f 1f 84 00 00 00 00 	nop    DWORD PTR [rax+rax*1+0x0]
260f:	00
2610:	d8 05 42 41 00 00    	fadd   DWORD PTR [rip+0x4142]        # 6758 <power_letter+0x10>
2616:	c3                   	ret
2617:	66 0f 1f 84 00 00 00 	nop    WORD PTR [rax+rax*1+0x0]
261e:	00 00

0000000000002620 <human_readable>:
2620:	41 57                	push   r15
2622:	41 56                	push   r14
2624:	89 d0                	mov    eax,edx
2626:	41 55                	push   r13
2628:	41 54                	push   r12
262a:	41 89 d7             	mov    r15d,edx
262d:	55                   	push   rbp
262e:	53                   	push   rbx
262f:	83 e0 20             	and    eax,0x20
2632:	41 83 e7 03          	and    r15d,0x3
2636:	41 89 d4             	mov    r12d,edx
2639:	48 89 fb             	mov    rbx,rdi
263c:	48 81 ec 98 00 00 00 	sub    rsp,0x98
2643:	48 89 4c 24 18       	mov    QWORD PTR [rsp+0x18],rcx
2648:	89 44 24 30          	mov    DWORD PTR [rsp+0x30],eax
264c:	64 48 8b 0c 25 28 00 	mov    rcx,QWORD PTR fs:0x28
2653:	00 00
2655:	48 89 8c 24 88 00 00 	mov    QWORD PTR [rsp+0x88],rcx
265c:	00
265d:	31 c9                	xor    ecx,ecx
265f:	83 f8 01             	cmp    eax,0x1
2662:	48 89 34 24          	mov    QWORD PTR [rsp],rsi
2666:	4c 89 44 24 10       	mov    QWORD PTR [rsp+0x10],r8
266b:	19 c0                	sbb    eax,eax
266d:	83 e0 e8             	and    eax,0xffffffe8
2670:	05 00 04 00 00       	add    eax,0x400
2675:	89 44 24 34          	mov    DWORD PTR [rsp+0x34],eax
2679:	e8 c2 ef ff ff       	call   1640 <localeconv@plt>
267e:	4c 8b 30             	mov    r14,QWORD PTR [rax]
2681:	49 89 c5             	mov    r13,rax
2684:	4c 89 f7             	mov    rdi,r14
2687:	e8 14 f0 ff ff       	call   16a0 <strlen@plt>
268c:	49 8b 4d 10          	mov    rcx,QWORD PTR [r13+0x10]
2690:	4d 8b 6d 08          	mov    r13,QWORD PTR [r13+0x8]
2694:	48 89 c5             	mov    rbp,rax
2697:	48 83 e8 01          	sub    rax,0x1
269b:	ba 01 00 00 00       	mov    edx,0x1
26a0:	48 83 f8 10          	cmp    rax,0x10
26a4:	48 8d 05 38 40 00 00 	lea    rax,[rip+0x4038]        # 66e3 <_IO_stdin_used+0x363>
26ab:	4c 89 ef             	mov    rdi,r13
26ae:	48 0f 43 ea          	cmovae rbp,rdx
26b2:	48 89 4c 24 38       	mov    QWORD PTR [rsp+0x38],rcx
26b7:	4c 0f 43 f0          	cmovae r14,rax
26bb:	e8 e0 ef ff ff       	call   16a0 <strlen@plt>
26c0:	48 83 f8 11          	cmp    rax,0x11
26c4:	48 8d 05 16 46 00 00 	lea    rax,[rip+0x4616]        # 6ce1 <quoting_style_vals+0x81>
26cb:	48 8b 7c 24 10       	mov    rdi,QWORD PTR [rsp+0x10]
26d0:	48 8b 4c 24 18       	mov    rcx,QWORD PTR [rsp+0x18]
26d5:	4c 0f 43 e8          	cmovae r13,rax
26d9:	48 8b 04 24          	mov    rax,QWORD PTR [rsp]
26dd:	48 05 87 02 00 00    	add    rax,0x287
26e3:	48 39 cf             	cmp    rdi,rcx
26e6:	48 89 44 24 08       	mov    QWORD PTR [rsp+0x8],rax
26eb:	0f 87 47 01 00 00    	ja     2838 <human_readable+0x218>
26f1:	31 d2                	xor    edx,edx
26f3:	48 89 c8             	mov    rax,rcx
26f6:	48 f7 f7             	div    rdi
26f9:	48 85 d2             	test   rdx,rdx
26fc:	48 89 c7             	mov    rdi,rax
26ff:	0f 84 5b 03 00 00    	je     2a60 <human_readable+0x440>
2705:	48 89 4c 24 18       	mov    QWORD PTR [rsp+0x18],rcx
270a:	48 85 c9             	test   rcx,rcx
270d:	df 6c 24 18          	fild   QWORD PTR [rsp+0x18]
2711:	79 06                	jns    2719 <human_readable+0xf9>
2713:	d8 05 3f 40 00 00    	fadd   DWORD PTR [rip+0x403f]        # 6758 <power_letter+0x10>
2719:	48 8b 44 24 10       	mov    rax,QWORD PTR [rsp+0x10]
271e:	48 89 44 24 18       	mov    QWORD PTR [rsp+0x18],rax
2723:	48 85 c0             	test   rax,rax
2726:	df 6c 24 18          	fild   QWORD PTR [rsp+0x18]
272a:	79 06                	jns    2732 <human_readable+0x112>
272c:	d8 05 26 40 00 00    	fadd   DWORD PTR [rip+0x4026]        # 6758 <power_letter+0x10>
2732:	de f9                	fdivrp st(1),st
2734:	48 89 5c 24 18       	mov    QWORD PTR [rsp+0x18],rbx
2739:	48 85 db             	test   rbx,rbx
273c:	df 6c 24 18          	fild   QWORD PTR [rsp+0x18]
2740:	79 06                	jns    2748 <human_readable+0x128>
2742:	d8 05 10 40 00 00    	fadd   DWORD PTR [rip+0x4010]        # 6758 <power_letter+0x10>
2748:	41 f6 c4 10          	test   r12b,0x10
274c:	de c9                	fmulp  st(1),st
274e:	0f 84 c4 01 00 00    	je     2918 <human_readable+0x2f8>
2754:	db 44 24 34          	fild   DWORD PTR [rsp+0x34]
2758:	31 db                	xor    ebx,ebx
275a:	d9 c0                	fld    st(0)
275c:	eb 06                	jmp    2764 <human_readable+0x144>
275e:	66 90                	xchg   ax,ax
2760:	dd d9                	fstp   st(1)
2762:	d9 ca                	fxch   st(2)
2764:	d9 c0                	fld    st(0)
2766:	83 c3 01             	add    ebx,0x1
2769:	d8 ca                	fmul   st,st(2)
276b:	d9 cb                	fxch   st(3)
276d:	db eb                	fucomi st,st(3)
276f:	72 0f                	jb     2780 <human_readable+0x160>
2771:	83 fb 08             	cmp    ebx,0x8
2774:	75 ea                	jne    2760 <human_readable+0x140>
2776:	dd da                	fstp   st(2)
2778:	dd da                	fstp   st(2)
277a:	eb 08                	jmp    2784 <human_readable+0x164>
277c:	0f 1f 40 00          	nop    DWORD PTR [rax+0x0]
2780:	dd da                	fstp   st(2)
2782:	dd da                	fstp   st(2)
2784:	8b 4c 24 30          	mov    ecx,DWORD PTR [rsp+0x30]
2788:	48 83 c5 01          	add    rbp,0x1
278c:	31 c0                	xor    eax,eax
278e:	de f1                	fdivp  st(1),st
2790:	85 c9                	test   ecx,ecx
2792:	0f 94 c0             	sete   al
2795:	41 83 ff 01          	cmp    r15d,0x1
2799:	48 8d 44 05 01       	lea    rax,[rbp+rax*1+0x1]
279e:	48 89 44 24 18       	mov    QWORD PTR [rsp+0x18],rax
27a3:	0f 84 67 05 00 00    	je     2d10 <human_readable+0x6f0>
27a9:	db 2d b1 3f 00 00    	fld    TBYTE PTR [rip+0x3fb1]        # 6760 <power_letter+0x18>
27af:	df e9                	fucomip st,st(1)
27b1:	0f 87 d1 03 00 00    	ja     2b88 <human_readable+0x568>
27b7:	d9 c0                	fld    st(0)
27b9:	db 7c 24 20          	fstp   TBYTE PTR [rsp+0x20]
27bd:	48 83 ec 10          	sub    rsp,0x10
27c1:	48 8d 0d 23 3f 00 00 	lea    rcx,[rip+0x3f23]        # 66eb <_IO_stdin_used+0x36b>
27c8:	be 01 00 00 00       	mov    esi,0x1
27cd:	48 c7 c2 ff ff ff ff 	mov    rdx,0xffffffffffffffff
27d4:	31 c0                	xor    eax,eax
27d6:	4c 8b 74 24 10       	mov    r14,QWORD PTR [rsp+0x10]
27db:	4c 89 f7             	mov    rdi,r14
27de:	db 3c 24             	fstp   TBYTE PTR [rsp]
27e1:	e8 3a f1 ff ff       	call   1920 <__sprintf_chk@plt>
27e6:	4c 89 f7             	mov    rdi,r14
27e9:	e8 b2 ee ff ff       	call   16a0 <strlen@plt>
27ee:	59                   	pop    rcx
27ef:	5e                   	pop    rsi
27f0:	48 3b 44 24 18       	cmp    rax,QWORD PTR [rsp+0x18]
27f5:	49 89 c6             	mov    r14,rax
27f8:	db 6c 24 20          	fld    TBYTE PTR [rsp+0x20]
27fc:	0f 87 a6 05 00 00    	ja     2da8 <human_readable+0x788>
2802:	41 f6 c4 08          	test   r12b,0x8
2806:	0f 84 64 01 00 00    	je     2970 <human_readable+0x350>
280c:	48 8b 04 24          	mov    rax,QWORD PTR [rsp]
2810:	42 80 7c 30 ff 30    	cmp    BYTE PTR [rax+r14*1-0x1],0x30
2816:	0f 85 5c 01 00 00    	jne    2978 <human_readable+0x358>
281c:	d9 05 3a 3f 00 00    	fld    DWORD PTR [rip+0x3f3a]        # 675c <power_letter+0x14>
2822:	41 83 ff 01          	cmp    r15d,0x1
2826:	dc c9                	fmul   st(1),st
2828:	0f 85 82 05 00 00    	jne    2db0 <human_readable+0x790>
282e:	e9 30 05 00 00       	jmp    2d63 <human_readable+0x743>
2833:	0f 1f 44 00 00       	nop    DWORD PTR [rax+rax*1+0x0]
2838:	48 85 c9             	test   rcx,rcx
283b:	0f 84 c4 fe ff ff    	je     2705 <human_readable+0xe5>
2841:	48 8b 44 24 10       	mov    rax,QWORD PTR [rsp+0x10]
2846:	31 d2                	xor    edx,edx
2848:	48 f7 f1             	div    rcx
284b:	48 85 d2             	test   rdx,rdx
284e:	49 89 c0             	mov    r8,rax
2851:	0f 85 ae fe ff ff    	jne    2705 <human_readable+0xe5>
2857:	48 89 d8             	mov    rax,rbx
285a:	31 d2                	xor    edx,edx
285c:	49 f7 f0             	div    r8
285f:	48 89 c3             	mov    rbx,rax
2862:	48 8d 04 92          	lea    rax,[rdx+rdx*4]
2866:	31 d2                	xor    edx,edx
2868:	48 89 de             	mov    rsi,rbx
286b:	48 01 c0             	add    rax,rax
286e:	49 f7 f0             	div    r8
2871:	48 01 d2             	add    rdx,rdx
2874:	41 89 c1             	mov    r9d,eax
2877:	49 39 d0             	cmp    r8,rdx
287a:	0f 86 88 05 00 00    	jbe    2e08 <human_readable+0x7e8>
2880:	31 ff                	xor    edi,edi
2882:	48 85 d2             	test   rdx,rdx
2885:	40 0f 95 c7          	setne  dil
2889:	44 89 e1             	mov    ecx,r12d
288c:	4c 8b 44 24 08       	mov    r8,QWORD PTR [rsp+0x8]
2891:	bb ff ff ff ff       	mov    ebx,0xffffffff
2896:	83 e1 10             	and    ecx,0x10
2899:	0f 84 c1 03 00 00    	je     2c60 <human_readable+0x640>
289f:	44 8b 44 24 34       	mov    r8d,DWORD PTR [rsp+0x34]
28a4:	49 39 f0             	cmp    r8,rsi
28a7:	4d 89 c3             	mov    r11,r8
28aa:	0f 87 70 05 00 00    	ja     2e20 <human_readable+0x800>
28b0:	31 db                	xor    ebx,ebx
28b2:	eb 23                	jmp    28d7 <human_readable+0x2b7>
28b4:	0f 1f 40 00          	nop    DWORD PTR [rax+0x0]
28b8:	85 ff                	test   edi,edi
28ba:	40 0f 95 c7          	setne  dil
28be:	40 0f b6 ff          	movzx  edi,dil
28c2:	83 c3 01             	add    ebx,0x1
28c5:	4d 39 d0             	cmp    r8,r10
28c8:	0f 87 0f 03 00 00    	ja     2bdd <human_readable+0x5bd>
28ce:	83 fb 08             	cmp    ebx,0x8
28d1:	0f 84 a1 05 00 00    	je     2e78 <human_readable+0x858>
28d7:	48 89 f0             	mov    rax,rsi
28da:	31 d2                	xor    edx,edx
28dc:	89 fe                	mov    esi,edi
28de:	49 f7 f0             	div    r8
28e1:	d1 fe                	sar    esi,1
28e3:	49 89 c2             	mov    r10,rax
28e6:	8d 04 92             	lea    eax,[rdx+rdx*4]
28e9:	31 d2                	xor    edx,edx
28eb:	41 8d 04 41          	lea    eax,[r9+rax*2]
28ef:	41 f7 f3             	div    r11d
28f2:	8d 14 56             	lea    edx,[rsi+rdx*2]
28f5:	41 89 c1             	mov    r9d,eax
28f8:	4c 89 d6             	mov    rsi,r10
28fb:	01 d7                	add    edi,edx
28fd:	41 39 d3             	cmp    r11d,edx
2900:	77 b6                	ja     28b8 <human_readable+0x298>
2902:	41 39 fb             	cmp    r11d,edi
2905:	40 0f 92 c7          	setb   dil
2909:	40 0f b6 ff          	movzx  edi,dil
290d:	83 c7 02             	add    edi,0x2
2910:	eb b0                	jmp    28c2 <human_readable+0x2a2>
2912:	66 0f 1f 44 00 00    	nop    WORD PTR [rax+rax*1+0x0]
2918:	41 83 ff 01          	cmp    r15d,0x1
291c:	74 0e                	je     292c <human_readable+0x30c>
291e:	db 2d 3c 3e 00 00    	fld    TBYTE PTR [rip+0x3e3c]        # 6760 <power_letter+0x18>
2924:	df e9                	fucomip st,st(1)
2926:	0f 87 84 02 00 00    	ja     2bb0 <human_readable+0x590>
292c:	48 83 ec 10          	sub    rsp,0x10
2930:	48 8d 0d ae 3d 00 00 	lea    rcx,[rip+0x3dae]        # 66e5 <_IO_stdin_used+0x365>
2937:	be 01 00 00 00       	mov    esi,0x1
293c:	48 8b 5c 24 10       	mov    rbx,QWORD PTR [rsp+0x10]
2941:	48 c7 c2 ff ff ff ff 	mov    rdx,0xffffffffffffffff
2948:	31 c0                	xor    eax,eax
294a:	db 3c 24             	fstp   TBYTE PTR [rsp]
294d:	31 ed                	xor    ebp,ebp
294f:	48 89 df             	mov    rdi,rbx
2952:	e8 c9 ef ff ff       	call   1920 <__sprintf_chk@plt>
2957:	48 89 df             	mov    rdi,rbx
295a:	bb ff ff ff ff       	mov    ebx,0xffffffff
295f:	e8 3c ed ff ff       	call   16a0 <strlen@plt>
2964:	5e                   	pop    rsi
2965:	5f                   	pop    rdi
2966:	49 89 c6             	mov    r14,rax
2969:	eb 15                	jmp    2980 <human_readable+0x360>
296b:	0f 1f 44 00 00       	nop    DWORD PTR [rax+rax*1+0x0]
2970:	dd d8                	fstp   st(0)
2972:	eb 0c                	jmp    2980 <human_readable+0x360>
2974:	0f 1f 40 00          	nop    DWORD PTR [rax+0x0]
2978:	dd d8                	fstp   st(0)
297a:	66 0f 1f 44 00 00    	nop    WORD PTR [rax+rax*1+0x0]
2980:	4c 8b 7c 24 08       	mov    r15,QWORD PTR [rsp+0x8]
2985:	48 8b 34 24          	mov    rsi,QWORD PTR [rsp]
2989:	4c 89 f2             	mov    rdx,r14
298c:	4d 29 f7             	sub    r15,r14
298f:	49 29 ee             	sub    r14,rbp
2992:	4c 89 ff             	mov    rdi,r15
2995:	e8 c6 ee ff ff       	call   1860 <memmove@plt>
299a:	4d 89 f0             	mov    r8,r14
299d:	4d 01 f8             	add    r8,r15
29a0:	41 f6 c4 04          	test   r12b,0x4
29a4:	0f 85 de 00 00 00    	jne    2a88 <human_readable+0x468>
29aa:	41 f6 c4 80          	test   r12b,0x80
29ae:	74 77                	je     2a27 <human_readable+0x407>
29b0:	83 fb ff             	cmp    ebx,0xffffffff
29b3:	0f 84 17 03 00 00    	je     2cd0 <human_readable+0x6b0>
29b9:	44 89 e0             	mov    eax,r12d
29bc:	25 00 01 00 00       	and    eax,0x100
29c1:	89 c1                	mov    ecx,eax
29c3:	09 d9                	or     ecx,ebx
29c5:	74 60                	je     2a27 <human_readable+0x407>
29c7:	41 83 e4 40          	and    r12d,0x40
29cb:	0f 85 97 01 00 00    	jne    2b68 <human_readable+0x548>
29d1:	85 db                	test   ebx,ebx
29d3:	0f 84 2d 06 00 00    	je     3006 <human_readable+0x9e6>
29d9:	83 fb 01             	cmp    ebx,0x1
29dc:	75 0e                	jne    29ec <human_readable+0x3cc>
29de:	44 8b 4c 24 30       	mov    r9d,DWORD PTR [rsp+0x30]
29e3:	45 85 c9             	test   r9d,r9d
29e6:	0f 84 44 04 00 00    	je     2e30 <human_readable+0x810>
29ec:	48 8d 0d 55 3d 00 00 	lea    rcx,[rip+0x3d55]        # 6748 <power_letter>
29f3:	48 63 db             	movsxd rbx,ebx
29f6:	48 8b 7c 24 08       	mov    rdi,QWORD PTR [rsp+0x8]
29fb:	85 c0                	test   eax,eax
29fd:	0f b6 0c 19          	movzx  ecx,BYTE PTR [rcx+rbx*1]
2a01:	48 8d 57 01          	lea    rdx,[rdi+0x1]
2a05:	88 0f                	mov    BYTE PTR [rdi],cl
2a07:	0f 84 37 04 00 00    	je     2e44 <human_readable+0x824>
2a0d:	44 8b 44 24 30       	mov    r8d,DWORD PTR [rsp+0x30]
2a12:	45 85 c0             	test   r8d,r8d
2a15:	0f 85 b5 01 00 00    	jne    2bd0 <human_readable+0x5b0>
2a1b:	48 8d 42 01          	lea    rax,[rdx+0x1]
2a1f:	c6 02 42             	mov    BYTE PTR [rdx],0x42
2a22:	48 89 44 24 08       	mov    QWORD PTR [rsp+0x8],rax
2a27:	48 8b 44 24 08       	mov    rax,QWORD PTR [rsp+0x8]
2a2c:	48 8b 8c 24 88 00 00 	mov    rcx,QWORD PTR [rsp+0x88]
2a33:	00
2a34:	64 48 33 0c 25 28 00 	xor    rcx,QWORD PTR fs:0x28
2a3b:	00 00
2a3d:	c6 00 00             	mov    BYTE PTR [rax],0x0
2a40:	4c 89 f8             	mov    rax,r15
2a43:	0f 85 92 05 00 00    	jne    2fdb <human_readable+0x9bb>
2a49:	48 81 c4 98 00 00 00 	add    rsp,0x98
2a50:	5b                   	pop    rbx
2a51:	5d                   	pop    rbp
2a52:	41 5c                	pop    r12
2a54:	41 5d                	pop    r13
2a56:	41 5e                	pop    r14
2a58:	41 5f                	pop    r15
2a5a:	c3                   	ret
2a5b:	0f 1f 44 00 00       	nop    DWORD PTR [rax+rax*1+0x0]
2a60:	48 89 de             	mov    rsi,rbx
2a63:	31 d2                	xor    edx,edx
2a65:	48 0f af f0          	imul   rsi,rax
2a69:	48 89 f0             	mov    rax,rsi
2a6c:	48 f7 f7             	div    rdi
2a6f:	48 39 d8             	cmp    rax,rbx
2a72:	0f 85 8d fc ff ff    	jne    2705 <human_readable+0xe5>
2a78:	31 ff                	xor    edi,edi
2a7a:	45 31 c9             	xor    r9d,r9d
2a7d:	e9 07 fe ff ff       	jmp    2889 <human_readable+0x269>
2a82:	66 0f 1f 44 00 00    	nop    WORD PTR [rax+rax*1+0x0]
2a88:	4d 89 c6             	mov    r14,r8
2a8b:	4c 89 ef             	mov    rdi,r13
2a8e:	4c 89 44 24 48       	mov    QWORD PTR [rsp+0x48],r8
2a93:	4d 29 fe             	sub    r14,r15
2a96:	48 c7 c5 ff ff ff ff 	mov    rbp,0xffffffffffffffff
2a9d:	e8 fe eb ff ff       	call   16a0 <strlen@plt>
2aa2:	48 8d 7c 24 50       	lea    rdi,[rsp+0x50]
2aa7:	b9 29 00 00 00       	mov    ecx,0x29
2aac:	4c 89 f2             	mov    rdx,r14
2aaf:	4c 89 fe             	mov    rsi,r15
2ab2:	48 89 44 24 40       	mov    QWORD PTR [rsp+0x40],rax
2ab7:	48 89 7c 24 18       	mov    QWORD PTR [rsp+0x18],rdi
2abc:	e8 ef ec ff ff       	call   17b0 <__memcpy_chk@plt>
2ac1:	44 89 e1             	mov    ecx,r12d
2ac4:	89 5c 24 20          	mov    DWORD PTR [rsp+0x20],ebx
2ac8:	4d 89 f4             	mov    r12,r14
2acb:	4c 89 eb             	mov    rbx,r13
2ace:	4c 8b 44 24 48       	mov    r8,QWORD PTR [rsp+0x48]
2ad3:	4c 8b 7c 24 38       	mov    r15,QWORD PTR [rsp+0x38]
2ad8:	4c 8b 6c 24 40       	mov    r13,QWORD PTR [rsp+0x40]
2add:	41 89 ce             	mov    r14d,ecx
2ae0:	eb 40                	jmp    2b22 <human_readable+0x502>
2ae2:	66 0f 1f 44 00 00    	nop    WORD PTR [rax+rax*1+0x0]
2ae8:	48 8b 44 24 18       	mov    rax,QWORD PTR [rsp+0x18]
2aed:	49 29 ec             	sub    r12,rbp
2af0:	49 29 e8             	sub    r8,rbp
2af3:	4c 89 c7             	mov    rdi,r8
2af6:	48 89 ea             	mov    rdx,rbp
2af9:	4a 8d 34 20          	lea    rsi,[rax+r12*1]
2afd:	e8 be ec ff ff       	call   17c0 <memcpy@plt>
2b02:	4d 85 e4             	test   r12,r12
2b05:	49 89 c0             	mov    r8,rax
2b08:	0f 84 0a 05 00 00    	je     3018 <human_readable+0x9f8>
2b0e:	4d 29 e8             	sub    r8,r13
2b11:	4c 89 ea             	mov    rdx,r13
2b14:	48 89 de             	mov    rsi,rbx
2b17:	4c 89 c7             	mov    rdi,r8
2b1a:	e8 a1 ec ff ff       	call   17c0 <memcpy@plt>
2b1f:	49 89 c0             	mov    r8,rax
2b22:	41 0f b6 07          	movzx  eax,BYTE PTR [r15]
2b26:	84 c0                	test   al,al
2b28:	74 0d                	je     2b37 <human_readable+0x517>
2b2a:	3c 7f                	cmp    al,0x7f
2b2c:	0f b6 e8             	movzx  ebp,al
2b2f:	49 0f 43 ec          	cmovae rbp,r12
2b33:	49 83 c7 01          	add    r15,0x1
2b37:	4c 39 e5             	cmp    rbp,r12
2b3a:	76 ac                	jbe    2ae8 <human_readable+0x4c8>
2b3c:	44 89 f0             	mov    eax,r14d
2b3f:	4d 89 c7             	mov    r15,r8
2b42:	4d 89 e6             	mov    r14,r12
2b45:	48 8b 74 24 18       	mov    rsi,QWORD PTR [rsp+0x18]
2b4a:	4d 29 f7             	sub    r15,r14
2b4d:	4c 89 f2             	mov    rdx,r14
2b50:	4c 89 ff             	mov    rdi,r15
2b53:	8b 5c 24 20          	mov    ebx,DWORD PTR [rsp+0x20]
2b57:	41 89 c4             	mov    r12d,eax
2b5a:	e8 61 ec ff ff       	call   17c0 <memcpy@plt>
2b5f:	e9 46 fe ff ff       	jmp    29aa <human_readable+0x38a>
2b64:	0f 1f 40 00          	nop    DWORD PTR [rax+0x0]
2b68:	48 8b 0c 24          	mov    rcx,QWORD PTR [rsp]
2b6c:	48 8d b9 88 02 00 00 	lea    rdi,[rcx+0x288]
2b73:	c6 81 87 02 00 00 20 	mov    BYTE PTR [rcx+0x287],0x20
2b7a:	48 89 7c 24 08       	mov    QWORD PTR [rsp+0x8],rdi
2b7f:	e9 4d fe ff ff       	jmp    29d1 <human_readable+0x3b1>
2b84:	0f 1f 40 00          	nop    DWORD PTR [rax+0x0]
2b88:	48 83 ec 10          	sub    rsp,0x10
2b8c:	44 89 ff             	mov    edi,r15d
2b8f:	d9 c0                	fld    st(0)
2b91:	db 3c 24             	fstp   TBYTE PTR [rsp]
2b94:	db 7c 24 30          	fstp   TBYTE PTR [rsp+0x30]
2b98:	e8 b3 f9 ff ff       	call   2550 <adjust_value.part.0>
2b9d:	58                   	pop    rax
2b9e:	5a                   	pop    rdx
2b9f:	db 6c 24 20          	fld    TBYTE PTR [rsp+0x20]
2ba3:	e9 11 fc ff ff       	jmp    27b9 <human_readable+0x199>
2ba8:	0f 1f 84 00 00 00 00 	nop    DWORD PTR [rax+rax*1+0x0]
2baf:	00
2bb0:	48 83 ec 10          	sub    rsp,0x10
2bb4:	44 89 ff             	mov    edi,r15d
2bb7:	db 3c 24             	fstp   TBYTE PTR [rsp]
2bba:	e8 91 f9 ff ff       	call   2550 <adjust_value.part.0>
2bbf:	41 58                	pop    r8
2bc1:	41 59                	pop    r9
2bc3:	e9 64 fd ff ff       	jmp    292c <human_readable+0x30c>
2bc8:	0f 1f 84 00 00 00 00 	nop    DWORD PTR [rax+rax*1+0x0]
2bcf:	00
2bd0:	48 8d 57 02          	lea    rdx,[rdi+0x2]
2bd4:	c6 47 01 69          	mov    BYTE PTR [rdi+0x1],0x69
2bd8:	e9 3e fe ff ff       	jmp    2a1b <human_readable+0x3fb>
2bdd:	49 83 fa 09          	cmp    r10,0x9
2be1:	0f 87 91 02 00 00    	ja     2e78 <human_readable+0x858>
2be7:	41 83 ff 01          	cmp    r15d,0x1
2beb:	0f 84 b1 02 00 00    	je     2ea2 <human_readable+0x882>
2bf1:	45 85 ff             	test   r15d,r15d
2bf4:	0f 94 c2             	sete   dl
2bf7:	85 ff                	test   edi,edi
2bf9:	41 0f 9f c0          	setg   r8b
2bfd:	44 21 c2             	and    edx,r8d
2c00:	84 d2                	test   dl,dl
2c02:	0f 84 81 02 00 00    	je     2e89 <human_readable+0x869>
2c08:	44 8d 48 01          	lea    r9d,[rax+0x1]
2c0c:	41 83 f9 0a          	cmp    r9d,0xa
2c10:	0f 84 fb 02 00 00    	je     2f11 <human_readable+0x8f1>
2c16:	41 83 c1 30          	add    r9d,0x30
2c1a:	48 8b 04 24          	mov    rax,QWORD PTR [rsp]
2c1e:	4c 8d 80 86 02 00 00 	lea    r8,[rax+0x286]
2c25:	44 88 88 86 02 00 00 	mov    BYTE PTR [rax+0x286],r9b
2c2c:	89 e8                	mov    eax,ebp
2c2e:	49 29 e8             	sub    r8,rbp
2c31:	83 fd 08             	cmp    ebp,0x8
2c34:	0f 83 87 02 00 00    	jae    2ec1 <human_readable+0x8a1>
2c3a:	40 f6 c5 04          	test   bpl,0x4
2c3e:	0f 85 82 03 00 00    	jne    2fc6 <human_readable+0x9a6>
2c44:	85 c0                	test   eax,eax
2c46:	74 0f                	je     2c57 <human_readable+0x637>
2c48:	41 0f b6 16          	movzx  edx,BYTE PTR [r14]
2c4c:	a8 02                	test   al,0x2
2c4e:	41 88 10             	mov    BYTE PTR [r8],dl
2c51:	0f 85 89 03 00 00    	jne    2fe0 <human_readable+0x9c0>
2c57:	31 ff                	xor    edi,edi
2c59:	45 31 c9             	xor    r9d,r9d
2c5c:	0f 1f 40 00          	nop    DWORD PTR [rax+0x0]
2c60:	41 83 ff 01          	cmp    r15d,0x1
2c64:	0f 84 76 01 00 00    	je     2de0 <human_readable+0x7c0>
2c6a:	45 85 ff             	test   r15d,r15d
2c6d:	75 21                	jne    2c90 <human_readable+0x670>
2c6f:	44 01 cf             	add    edi,r9d
2c72:	85 ff                	test   edi,edi
2c74:	7e 1a                	jle    2c90 <human_readable+0x670>
2c76:	48 83 c6 01          	add    rsi,0x1
2c7a:	85 c9                	test   ecx,ecx
2c7c:	74 12                	je     2c90 <human_readable+0x670>
2c7e:	8b 44 24 34          	mov    eax,DWORD PTR [rsp+0x34]
2c82:	48 39 f0             	cmp    rax,rsi
2c85:	0f 84 c5 01 00 00    	je     2e50 <human_readable+0x830>
2c8b:	0f 1f 44 00 00       	nop    DWORD PTR [rax+rax*1+0x0]
2c90:	4d 89 c7             	mov    r15,r8
2c93:	48 b9 cd cc cc cc cc 	movabs rcx,0xcccccccccccccccd
2c9a:	cc cc cc
2c9d:	0f 1f 00             	nop    DWORD PTR [rax]
2ca0:	48 89 f0             	mov    rax,rsi
2ca3:	49 83 ef 01          	sub    r15,0x1
2ca7:	48 f7 e1             	mul    rcx
2caa:	48 c1 ea 03          	shr    rdx,0x3
2cae:	48 8d 04 92          	lea    rax,[rdx+rdx*4]
2cb2:	48 01 c0             	add    rax,rax
2cb5:	48 29 c6             	sub    rsi,rax
2cb8:	83 c6 30             	add    esi,0x30
2cbb:	48 85 d2             	test   rdx,rdx
2cbe:	41 88 37             	mov    BYTE PTR [r15],sil
2cc1:	48 89 d6             	mov    rsi,rdx
2cc4:	75 da                	jne    2ca0 <human_readable+0x680>
2cc6:	e9 d5 fc ff ff       	jmp    29a0 <human_readable+0x380>
2ccb:	0f 1f 44 00 00       	nop    DWORD PTR [rax+rax*1+0x0]
2cd0:	48 8b 4c 24 10       	mov    rcx,QWORD PTR [rsp+0x10]
2cd5:	48 83 f9 01          	cmp    rcx,0x1
2cd9:	0f 86 a3 01 00 00    	jbe    2e82 <human_readable+0x862>
2cdf:	8b 54 24 34          	mov    edx,DWORD PTR [rsp+0x34]
2ce3:	bb 01 00 00 00       	mov    ebx,0x1
2ce8:	b8 01 00 00 00       	mov    eax,0x1
2ced:	48 0f af c2          	imul   rax,rdx
2cf1:	48 39 c1             	cmp    rcx,rax
2cf4:	0f 86 bf fc ff ff    	jbe    29b9 <human_readable+0x399>
2cfa:	83 c3 01             	add    ebx,0x1
2cfd:	83 fb 08             	cmp    ebx,0x8
2d00:	75 eb                	jne    2ced <human_readable+0x6cd>
2d02:	e9 b2 fc ff ff       	jmp    29b9 <human_readable+0x399>
2d07:	66 0f 1f 84 00 00 00 	nop    WORD PTR [rax+rax*1+0x0]
2d0e:	00 00
2d10:	48 83 ec 10          	sub    rsp,0x10
2d14:	48 8d 0d d0 39 00 00 	lea    rcx,[rip+0x39d0]        # 66eb <_IO_stdin_used+0x36b>
2d1b:	48 c7 c2 ff ff ff ff 	mov    rdx,0xffffffffffffffff
2d22:	d9 c0                	fld    st(0)
2d24:	db 3c 24             	fstp   TBYTE PTR [rsp]
2d27:	4c 8b 74 24 10       	mov    r14,QWORD PTR [rsp+0x10]
2d2c:	be 01 00 00 00       	mov    esi,0x1
2d31:	31 c0                	xor    eax,eax
2d33:	4c 89 f7             	mov    rdi,r14
2d36:	db 7c 24 30          	fstp   TBYTE PTR [rsp+0x30]
2d3a:	e8 e1 eb ff ff       	call   1920 <__sprintf_chk@plt>
2d3f:	4c 89 f7             	mov    rdi,r14
2d42:	e8 59 e9 ff ff       	call   16a0 <strlen@plt>
2d47:	49 89 c6             	mov    r14,rax
2d4a:	58                   	pop    rax
2d4b:	5a                   	pop    rdx
2d4c:	4c 3b 74 24 18       	cmp    r14,QWORD PTR [rsp+0x18]
2d51:	db 6c 24 20          	fld    TBYTE PTR [rsp+0x20]
2d55:	0f 86 a7 fa ff ff    	jbe    2802 <human_readable+0x1e2>
2d5b:	d9 05 fb 39 00 00    	fld    DWORD PTR [rip+0x39fb]        # 675c <power_letter+0x14>
2d61:	dc c9                	fmul   st(1),st
2d63:	de f9                	fdivrp st(1),st
2d65:	48 83 ec 10          	sub    rsp,0x10
2d69:	48 8d 0d 75 39 00 00 	lea    rcx,[rip+0x3975]        # 66e5 <_IO_stdin_used+0x365>
2d70:	4c 8b 74 24 10       	mov    r14,QWORD PTR [rsp+0x10]
2d75:	48 c7 c2 ff ff ff ff 	mov    rdx,0xffffffffffffffff
2d7c:	be 01 00 00 00       	mov    esi,0x1
2d81:	31 c0                	xor    eax,eax
2d83:	31 ed                	xor    ebp,ebp
2d85:	4c 89 f7             	mov    rdi,r14
2d88:	db 3c 24             	fstp   TBYTE PTR [rsp]
2d8b:	e8 90 eb ff ff       	call   1920 <__sprintf_chk@plt>
2d90:	4c 89 f7             	mov    rdi,r14
2d93:	e8 08 e9 ff ff       	call   16a0 <strlen@plt>
2d98:	41 5a                	pop    r10
2d9a:	49 89 c6             	mov    r14,rax
2d9d:	41 5b                	pop    r11
2d9f:	e9 dc fb ff ff       	jmp    2980 <human_readable+0x360>
2da4:	0f 1f 40 00          	nop    DWORD PTR [rax+0x0]
2da8:	d9 05 ae 39 00 00    	fld    DWORD PTR [rip+0x39ae]        # 675c <power_letter+0x14>
2dae:	dc c9                	fmul   st(1),st
2db0:	db 2d aa 39 00 00    	fld    TBYTE PTR [rip+0x39aa]        # 6760 <power_letter+0x18>
2db6:	df ea                	fucomip st,st(2)
2db8:	76 a9                	jbe    2d63 <human_readable+0x743>
2dba:	d9 5c 24 18          	fstp   DWORD PTR [rsp+0x18]
2dbe:	48 83 ec 10          	sub    rsp,0x10
2dc2:	44 89 ff             	mov    edi,r15d
2dc5:	db 3c 24             	fstp   TBYTE PTR [rsp]
2dc8:	e8 83 f7 ff ff       	call   2550 <adjust_value.part.0>
2dcd:	5d                   	pop    rbp
2dce:	41 5e                	pop    r14
2dd0:	d9 44 24 18          	fld    DWORD PTR [rsp+0x18]
2dd4:	eb 8d                	jmp    2d63 <human_readable+0x743>
2dd6:	66 2e 0f 1f 84 00 00 	nop    WORD PTR cs:[rax+rax*1+0x0]
2ddd:	00 00 00
2de0:	48 89 f0             	mov    rax,rsi
2de3:	48 63 ff             	movsxd rdi,edi
2de6:	83 e0 01             	and    eax,0x1
2de9:	48 01 f8             	add    rax,rdi
2dec:	0f 95 c0             	setne  al
2def:	0f b6 c0             	movzx  eax,al
2df2:	41 01 c1             	add    r9d,eax
2df5:	41 83 f9 05          	cmp    r9d,0x5
2df9:	0f 8f 77 fe ff ff    	jg     2c76 <human_readable+0x656>
2dff:	e9 8c fe ff ff       	jmp    2c90 <human_readable+0x670>
2e04:	0f 1f 40 00          	nop    DWORD PTR [rax+0x0]
2e08:	40 0f 92 c7          	setb   dil
2e0c:	40 0f b6 ff          	movzx  edi,dil
2e10:	83 c7 02             	add    edi,0x2
2e13:	e9 71 fa ff ff       	jmp    2889 <human_readable+0x269>
2e18:	0f 1f 84 00 00 00 00 	nop    DWORD PTR [rax+rax*1+0x0]
2e1f:	00
2e20:	4c 8b 44 24 08       	mov    r8,QWORD PTR [rsp+0x8]
2e25:	31 db                	xor    ebx,ebx
2e27:	e9 34 fe ff ff       	jmp    2c60 <human_readable+0x640>
2e2c:	0f 1f 40 00          	nop    DWORD PTR [rax+0x0]
2e30:	48 8b 5c 24 08       	mov    rbx,QWORD PTR [rsp+0x8]
2e35:	85 c0                	test   eax,eax
2e37:	48 8d 53 01          	lea    rdx,[rbx+0x1]
2e3b:	c6 03 6b             	mov    BYTE PTR [rbx],0x6b
2e3e:	0f 85 d7 fb ff ff    	jne    2a1b <human_readable+0x3fb>
2e44:	48 89 54 24 08       	mov    QWORD PTR [rsp+0x8],rdx
2e49:	e9 d9 fb ff ff       	jmp    2a27 <human_readable+0x407>
2e4e:	66 90                	xchg   ax,ax
2e50:	83 fb 08             	cmp    ebx,0x8
2e53:	0f 84 37 fe ff ff    	je     2c90 <human_readable+0x670>
2e59:	83 c3 01             	add    ebx,0x1
2e5c:	41 f6 c4 08          	test   r12b,0x8
2e60:	0f 84 bc 00 00 00    	je     2f22 <human_readable+0x902>
2e66:	4d 8d 78 ff          	lea    r15,[r8-0x1]
2e6a:	41 c6 40 ff 31       	mov    BYTE PTR [r8-0x1],0x31
2e6f:	e9 2c fb ff ff       	jmp    29a0 <human_readable+0x380>
2e74:	0f 1f 40 00          	nop    DWORD PTR [rax+0x0]
2e78:	4c 8b 44 24 08       	mov    r8,QWORD PTR [rsp+0x8]
2e7d:	e9 de fd ff ff       	jmp    2c60 <human_readable+0x640>
2e82:	31 db                	xor    ebx,ebx
2e84:	e9 30 fb ff ff       	jmp    29b9 <human_readable+0x399>
2e89:	85 c0                	test   eax,eax
2e8b:	0f 85 85 fd ff ff    	jne    2c16 <human_readable+0x5f6>
2e91:	41 f6 c4 08          	test   r12b,0x8
2e95:	75 1d                	jne    2eb4 <human_readable+0x894>
2e97:	41 b9 30 00 00 00    	mov    r9d,0x30
2e9d:	e9 78 fd ff ff       	jmp    2c1a <human_readable+0x5fa>
2ea2:	89 c2                	mov    edx,eax
2ea4:	83 e2 01             	and    edx,0x1
2ea7:	01 fa                	add    edx,edi
2ea9:	83 fa 02             	cmp    edx,0x2
2eac:	0f 9f c2             	setg   dl
2eaf:	e9 4c fd ff ff       	jmp    2c00 <human_readable+0x5e0>
2eb4:	4c 8b 44 24 08       	mov    r8,QWORD PTR [rsp+0x8]
2eb9:	45 31 c9             	xor    r9d,r9d
2ebc:	e9 9f fd ff ff       	jmp    2c60 <human_readable+0x640>
2ec1:	49 8b 06             	mov    rax,QWORD PTR [r14]
2ec4:	4d 89 f1             	mov    r9,r14
2ec7:	49 89 00             	mov    QWORD PTR [r8],rax
2eca:	89 e8                	mov    eax,ebp
2ecc:	49 8b 54 06 f8       	mov    rdx,QWORD PTR [r14+rax*1-0x8]
2ed1:	49 89 54 00 f8       	mov    QWORD PTR [r8+rax*1-0x8],rdx
2ed6:	49 8d 50 08          	lea    rdx,[r8+0x8]
2eda:	4c 89 c0             	mov    rax,r8
2edd:	48 83 e2 f8          	and    rdx,0xfffffffffffffff8
2ee1:	48 29 d0             	sub    rax,rdx
2ee4:	49 29 c1             	sub    r9,rax
2ee7:	01 e8                	add    eax,ebp
2ee9:	83 e0 f8             	and    eax,0xfffffff8
2eec:	83 f8 08             	cmp    eax,0x8
2eef:	0f 82 62 fd ff ff    	jb     2c57 <human_readable+0x637>
2ef5:	83 e0 f8             	and    eax,0xfffffff8
2ef8:	31 ff                	xor    edi,edi
2efa:	41 89 fa             	mov    r10d,edi
2efd:	83 c7 08             	add    edi,0x8
2f00:	4f 8b 1c 11          	mov    r11,QWORD PTR [r9+r10*1]
2f04:	39 c7                	cmp    edi,eax
2f06:	4e 89 1c 12          	mov    QWORD PTR [rdx+r10*1],r11
2f0a:	72 ee                	jb     2efa <human_readable+0x8da>
2f0c:	e9 46 fd ff ff       	jmp    2c57 <human_readable+0x637>
2f11:	49 8d 72 01          	lea    rsi,[r10+0x1]
2f15:	48 83 fe 0a          	cmp    rsi,0xa
2f19:	74 55                	je     2f70 <human_readable+0x950>
2f1b:	31 ff                	xor    edi,edi
2f1d:	e9 6f ff ff ff       	jmp    2e91 <human_readable+0x871>
2f22:	48 89 e8             	mov    rax,rbp
2f25:	41 c6 40 ff 30       	mov    BYTE PTR [r8-0x1],0x30
2f2a:	48 f7 d0             	not    rax
2f2d:	49 01 c0             	add    r8,rax
2f30:	83 fd 08             	cmp    ebp,0x8
2f33:	89 e8                	mov    eax,ebp
2f35:	73 43                	jae    2f7a <human_readable+0x95a>
2f37:	83 e5 04             	and    ebp,0x4
2f3a:	0f 85 b1 00 00 00    	jne    2ff1 <human_readable+0x9d1>
2f40:	85 c0                	test   eax,eax
2f42:	0f 84 1e ff ff ff    	je     2e66 <human_readable+0x846>
2f48:	41 0f b6 16          	movzx  edx,BYTE PTR [r14]
2f4c:	a8 02                	test   al,0x2
2f4e:	41 88 10             	mov    BYTE PTR [r8],dl
2f51:	0f 84 0f ff ff ff    	je     2e66 <human_readable+0x846>
2f57:	41 0f b7 54 06 fe    	movzx  edx,WORD PTR [r14+rax*1-0x2]
2f5d:	66 41 89 54 00 fe    	mov    WORD PTR [r8+rax*1-0x2],dx
2f63:	e9 fe fe ff ff       	jmp    2e66 <human_readable+0x846>
2f68:	0f 1f 84 00 00 00 00 	nop    DWORD PTR [rax+rax*1+0x0]
2f6f:	00
2f70:	4c 8b 44 24 08       	mov    r8,QWORD PTR [rsp+0x8]
2f75:	e9 dd fc ff ff       	jmp    2c57 <human_readable+0x637>
2f7a:	49 8b 06             	mov    rax,QWORD PTR [r14]
2f7d:	49 8d 48 08          	lea    rcx,[r8+0x8]
2f81:	48 83 e1 f8          	and    rcx,0xfffffffffffffff8
2f85:	49 89 00             	mov    QWORD PTR [r8],rax
2f88:	89 e8                	mov    eax,ebp
2f8a:	49 8b 54 06 f8       	mov    rdx,QWORD PTR [r14+rax*1-0x8]
2f8f:	49 89 54 00 f8       	mov    QWORD PTR [r8+rax*1-0x8],rdx
2f94:	4c 89 c0             	mov    rax,r8
2f97:	48 29 c8             	sub    rax,rcx
2f9a:	49 29 c6             	sub    r14,rax
2f9d:	01 e8                	add    eax,ebp
2f9f:	83 e0 f8             	and    eax,0xfffffff8
2fa2:	83 f8 08             	cmp    eax,0x8
2fa5:	0f 82 bb fe ff ff    	jb     2e66 <human_readable+0x846>
2fab:	83 e0 f8             	and    eax,0xfffffff8
2fae:	31 d2                	xor    edx,edx
2fb0:	89 d6                	mov    esi,edx
2fb2:	83 c2 08             	add    edx,0x8
2fb5:	49 8b 3c 36          	mov    rdi,QWORD PTR [r14+rsi*1]
2fb9:	39 c2                	cmp    edx,eax
2fbb:	48 89 3c 31          	mov    QWORD PTR [rcx+rsi*1],rdi
2fbf:	72 ef                	jb     2fb0 <human_readable+0x990>
2fc1:	e9 a0 fe ff ff       	jmp    2e66 <human_readable+0x846>
2fc6:	41 8b 16             	mov    edx,DWORD PTR [r14]
2fc9:	41 89 10             	mov    DWORD PTR [r8],edx
2fcc:	41 8b 54 06 fc       	mov    edx,DWORD PTR [r14+rax*1-0x4]
2fd1:	41 89 54 00 fc       	mov    DWORD PTR [r8+rax*1-0x4],edx
2fd6:	e9 7c fc ff ff       	jmp    2c57 <human_readable+0x637>
2fdb:	e8 d0 e6 ff ff       	call   16b0 <__stack_chk_fail@plt>
2fe0:	41 0f b7 54 06 fe    	movzx  edx,WORD PTR [r14+rax*1-0x2]
2fe6:	66 41 89 54 00 fe    	mov    WORD PTR [r8+rax*1-0x2],dx
2fec:	e9 66 fc ff ff       	jmp    2c57 <human_readable+0x637>
2ff1:	41 8b 16             	mov    edx,DWORD PTR [r14]
2ff4:	41 89 10             	mov    DWORD PTR [r8],edx
2ff7:	41 8b 54 06 fc       	mov    edx,DWORD PTR [r14+rax*1-0x4]
2ffc:	41 89 54 00 fc       	mov    DWORD PTR [r8+rax*1-0x4],edx
3001:	e9 60 fe ff ff       	jmp    2e66 <human_readable+0x846>
3006:	85 c0                	test   eax,eax
3008:	48 8b 54 24 08       	mov    rdx,QWORD PTR [rsp+0x8]
300d:	0f 85 08 fa ff ff    	jne    2a1b <human_readable+0x3fb>
3013:	e9 0f fa ff ff       	jmp    2a27 <human_readable+0x407>
3018:	8b 5c 24 20          	mov    ebx,DWORD PTR [rsp+0x20]
301c:	49 89 c7             	mov    r15,rax
301f:	45 89 f4             	mov    r12d,r14d
3022:	e9 83 f9 ff ff       	jmp    29aa <human_readable+0x38a>
3027:	66 0f 1f 84 00 00 00 	nop    WORD PTR [rax+rax*1+0x0]
302e:	00 00

0000000000003030 <human_options>:
3030:	41 55                	push   r13
3032:	41 54                	push   r12
3034:	49 89 f5             	mov    r13,rsi
3037:	55                   	push   rbp
3038:	53                   	push   rbx
3039:	49 89 d4             	mov    r12,rdx
303c:	48 89 fb             	mov    rbx,rdi
303f:	48 83 ec 18          	sub    rsp,0x18
3043:	64 48 8b 04 25 28 00 	mov    rax,QWORD PTR fs:0x28
304a:	00 00
304c:	48 89 44 24 08       	mov    QWORD PTR [rsp+0x8],rax
3051:	31 c0                	xor    eax,eax
3053:	48 85 ff             	test   rdi,rdi
3056:	0f 84 14 01 00 00    	je     3170 <human_options+0x140>
305c:	31 ed                	xor    ebp,ebp
305e:	80 3b 27             	cmp    BYTE PTR [rbx],0x27
3061:	75 09                	jne    306c <human_options+0x3c>
3063:	48 83 c3 01          	add    rbx,0x1
3067:	bd 04 00 00 00       	mov    ebp,0x4
306c:	48 8d 15 cd 36 00 00 	lea    rdx,[rip+0x36cd]        # 6740 <block_size_opts>
3073:	48 8d 35 26 5b 20 00 	lea    rsi,[rip+0x205b26]        # 208ba0 <block_size_args>
307a:	b9 04 00 00 00       	mov    ecx,0x4
307f:	48 89 df             	mov    rdi,rbx
3082:	e8 b9 2d 00 00       	call   5e40 <argmatch>
3087:	85 c0                	test   eax,eax
3089:	78 3d                	js     30c8 <human_options+0x98>
308b:	48 8d 15 ae 36 00 00 	lea    rdx,[rip+0x36ae]        # 6740 <block_size_opts>
3092:	48 98                	cdqe
3094:	49 c7 04 24 01 00 00 	mov    QWORD PTR [r12],0x1
309b:	00
309c:	0b 2c 82             	or     ebp,DWORD PTR [rdx+rax*4]
309f:	31 c0                	xor    eax,eax
30a1:	41 89 6d 00          	mov    DWORD PTR [r13+0x0],ebp
30a5:	48 8b 4c 24 08       	mov    rcx,QWORD PTR [rsp+0x8]
30aa:	64 48 33 0c 25 28 00 	xor    rcx,QWORD PTR fs:0x28
30b1:	00 00
30b3:	0f 85 58 01 00 00    	jne    3211 <human_options+0x1e1>
30b9:	48 83 c4 18          	add    rsp,0x18
30bd:	5b                   	pop    rbx
30be:	5d                   	pop    rbp
30bf:	41 5c                	pop    r12
30c1:	41 5d                	pop    r13
30c3:	c3                   	ret
30c4:	0f 1f 40 00          	nop    DWORD PTR [rax+0x0]
30c8:	4c 8d 05 47 36 00 00 	lea    r8,[rip+0x3647]        # 6716 <_IO_stdin_used+0x396>
30cf:	31 d2                	xor    edx,edx
30d1:	48 89 e6             	mov    rsi,rsp
30d4:	4c 89 e1             	mov    rcx,r12
30d7:	48 89 df             	mov    rdi,rbx
30da:	e8 81 27 00 00       	call   5860 <xstrtoumax>
30df:	85 c0                	test   eax,eax
30e1:	75 45                	jne    3128 <human_options+0xf8>
30e3:	0f b6 33             	movzx  esi,BYTE PTR [rbx]
30e6:	8d 56 d0             	lea    edx,[rsi-0x30]
30e9:	80 fa 09             	cmp    dl,0x9
30ec:	76 2a                	jbe    3118 <human_options+0xe8>
30ee:	48 8b 0c 24          	mov    rcx,QWORD PTR [rsp]
30f2:	48 39 cb             	cmp    rbx,rcx
30f5:	75 12                	jne    3109 <human_options+0xd9>
30f7:	e9 d4 00 00 00       	jmp    31d0 <human_options+0x1a0>
30fc:	0f 1f 40 00          	nop    DWORD PTR [rax+0x0]
3100:	48 39 cb             	cmp    rbx,rcx
3103:	0f 84 c7 00 00 00    	je     31d0 <human_options+0x1a0>
3109:	48 83 c3 01          	add    rbx,0x1
310d:	0f b6 3b             	movzx  edi,BYTE PTR [rbx]
3110:	8d 57 d0             	lea    edx,[rdi-0x30]
3113:	80 fa 09             	cmp    dl,0x9
3116:	77 e8                	ja     3100 <human_options+0xd0>
3118:	49 8b 14 24          	mov    rdx,QWORD PTR [r12]
311c:	41 89 6d 00          	mov    DWORD PTR [r13+0x0],ebp
3120:	eb 12                	jmp    3134 <human_options+0x104>
3122:	66 0f 1f 44 00 00    	nop    WORD PTR [rax+rax*1+0x0]
3128:	49 8b 14 24          	mov    rdx,QWORD PTR [r12]
312c:	41 c7 45 00 00 00 00 	mov    DWORD PTR [r13+0x0],0x0
3133:	00
3134:	48 85 d2             	test   rdx,rdx
3137:	0f 85 68 ff ff ff    	jne    30a5 <human_options+0x75>
313d:	48 8d 3d c2 35 00 00 	lea    rdi,[rip+0x35c2]        # 6706 <_IO_stdin_used+0x386>
3144:	e8 87 e4 ff ff       	call   15d0 <getenv@plt>
3149:	48 83 f8 01          	cmp    rax,0x1
314d:	48 19 c0             	sbb    rax,rax
3150:	25 00 02 00 00       	and    eax,0x200
3155:	48 05 00 02 00 00    	add    rax,0x200
315b:	49 89 04 24          	mov    QWORD PTR [r12],rax
315f:	b8 04 00 00 00       	mov    eax,0x4
3164:	e9 3c ff ff ff       	jmp    30a5 <human_options+0x75>
3169:	0f 1f 80 00 00 00 00 	nop    DWORD PTR [rax+0x0]
3170:	48 8d 3d 7a 35 00 00 	lea    rdi,[rip+0x357a]        # 66f1 <_IO_stdin_used+0x371>
3177:	e8 54 e4 ff ff       	call   15d0 <getenv@plt>
317c:	48 85 c0             	test   rax,rax
317f:	48 89 c3             	mov    rbx,rax
3182:	0f 85 d4 fe ff ff    	jne    305c <human_options+0x2c>
3188:	48 8d 3d 6d 35 00 00 	lea    rdi,[rip+0x356d]        # 66fc <_IO_stdin_used+0x37c>
318f:	e8 3c e4 ff ff       	call   15d0 <getenv@plt>
3194:	48 85 c0             	test   rax,rax
3197:	48 89 c3             	mov    rbx,rax
319a:	0f 85 bc fe ff ff    	jne    305c <human_options+0x2c>
31a0:	48 8d 3d 5f 35 00 00 	lea    rdi,[rip+0x355f]        # 6706 <_IO_stdin_used+0x386>
31a7:	e8 24 e4 ff ff       	call   15d0 <getenv@plt>
31ac:	48 85 c0             	test   rax,rax
31af:	74 49                	je     31fa <human_options+0x1ca>
31b1:	49 c7 04 24 00 02 00 	mov    QWORD PTR [r12],0x200
31b8:	00
31b9:	31 c0                	xor    eax,eax
31bb:	41 c7 45 00 00 00 00 	mov    DWORD PTR [r13+0x0],0x0
31c2:	00
31c3:	e9 dd fe ff ff       	jmp    30a5 <human_options+0x75>
31c8:	0f 1f 84 00 00 00 00 	nop    DWORD PTR [rax+rax*1+0x0]
31cf:	00
31d0:	80 79 ff 42          	cmp    BYTE PTR [rcx-0x1],0x42
31d4:	74 12                	je     31e8 <human_options+0x1b8>
31d6:	40 80 cd 80          	or     bpl,0x80
31da:	83 cd 20             	or     ebp,0x20
31dd:	e9 36 ff ff ff       	jmp    3118 <human_options+0xe8>
31e2:	66 0f 1f 44 00 00    	nop    WORD PTR [rax+rax*1+0x0]
31e8:	81 cd 80 01 00 00    	or     ebp,0x180
31ee:	80 79 fe 69          	cmp    BYTE PTR [rcx-0x2],0x69
31f2:	0f 85 20 ff ff ff    	jne    3118 <human_options+0xe8>
31f8:	eb e0                	jmp    31da <human_options+0x1aa>
31fa:	49 c7 04 24 00 04 00 	mov    QWORD PTR [r12],0x400
3201:	00
3202:	31 c0                	xor    eax,eax
3204:	41 c7 45 00 00 00 00 	mov    DWORD PTR [r13+0x0],0x0
320b:	00
320c:	e9 94 fe ff ff       	jmp    30a5 <human_options+0x75>
3211:	e8 9a e4 ff ff       	call   16b0 <__stack_chk_fail@plt>
3216:	66 2e 0f 1f 84 00 00 	nop    WORD PTR cs:[rax+rax*1+0x0]
321d:	00 00 00

0000000000003220 <set_program_name>:
3220:	48 85 ff             	test   rdi,rdi
3223:	53                   	push   rbx
3224:	74 77                	je     329d <set_program_name+0x7d>
3226:	be 2f 00 00 00       	mov    esi,0x2f
322b:	48 89 fb             	mov    rbx,rdi
322e:	e8 cd e4 ff ff       	call   1700 <strrchr@plt>
3233:	48 85 c0             	test   rax,rax
3236:	74 55                	je     328d <set_program_name+0x6d>
3238:	4c 8d 40 01          	lea    r8,[rax+0x1]
323c:	4c 89 c2             	mov    rdx,r8
323f:	48 29 da             	sub    rdx,rbx
3242:	48 83 fa 06          	cmp    rdx,0x6
3246:	7e 45                	jle    328d <set_program_name+0x6d>
3248:	48 8d 70 fa          	lea    rsi,[rax-0x6]
324c:	48 8d 3d 55 35 00 00 	lea    rdi,[rip+0x3555]        # 67a8 <power_letter+0x60>
3253:	b9 07 00 00 00       	mov    ecx,0x7
3258:	f3 a6                	repz cmps BYTE PTR ds:[rsi],BYTE PTR es:[rdi]
325a:	0f 97 c2             	seta   dl
325d:	80 da 00             	sbb    dl,0x0
3260:	84 d2                	test   dl,dl
3262:	75 29                	jne    328d <set_program_name+0x6d>
3264:	48 8d 3d 45 35 00 00 	lea    rdi,[rip+0x3545]        # 67b0 <power_letter+0x68>
326b:	b9 03 00 00 00       	mov    ecx,0x3
3270:	4c 89 c6             	mov    rsi,r8
3273:	4c 89 c3             	mov    rbx,r8
3276:	f3 a6                	repz cmps BYTE PTR ds:[rsi],BYTE PTR es:[rdi]
3278:	0f 97 c2             	seta   dl
327b:	80 da 00             	sbb    dl,0x0
327e:	84 d2                	test   dl,dl
3280:	75 0b                	jne    328d <set_program_name+0x6d>
3282:	48 8d 58 04          	lea    rbx,[rax+0x4]
3286:	48 89 1d 13 5e 20 00 	mov    QWORD PTR [rip+0x205e13],rbx        # 2090a0 <__progname@@GLIBC_2.2.5>
328d:	48 89 1d 6c 5e 20 00 	mov    QWORD PTR [rip+0x205e6c],rbx        # 209100 <program_name>
3294:	48 89 1d 25 5e 20 00 	mov    QWORD PTR [rip+0x205e25],rbx        # 2090c0 <__progname_full@@GLIBC_2.2.5>
329b:	5b                   	pop    rbx
329c:	c3                   	ret
329d:	48 8b 0d 3c 5e 20 00 	mov    rcx,QWORD PTR [rip+0x205e3c]        # 2090e0 <stderr@@GLIBC_2.2.5>
32a4:	48 8d 3d c5 34 00 00 	lea    rdi,[rip+0x34c5]        # 6770 <power_letter+0x28>
32ab:	ba 37 00 00 00       	mov    edx,0x37
32b0:	be 01 00 00 00       	mov    esi,0x1
32b5:	e8 16 e6 ff ff       	call   18d0 <fwrite@plt>
32ba:	e8 31 e3 ff ff       	call   15f0 <abort@plt>
32bf:	90                   	nop

00000000000032c0 <gettext_quote.part.1>:
32c0:	55                   	push   rbp
32c1:	53                   	push   rbx
32c2:	48 89 fd             	mov    rbp,rdi
32c5:	89 f3                	mov    ebx,esi
32c7:	48 83 ec 08          	sub    rsp,0x8
32cb:	e8 d0 2f 00 00       	call   62a0 <locale_charset>
32d0:	0f b6 10             	movzx  edx,BYTE PTR [rax]
32d3:	83 e2 df             	and    edx,0xffffffdf
32d6:	80 fa 55             	cmp    dl,0x55
32d9:	74 75                	je     3350 <gettext_quote.part.1+0x90>
32db:	80 fa 47             	cmp    dl,0x47
32de:	74 20                	je     3300 <gettext_quote.part.1+0x40>
32e0:	48 8d 05 dc 34 00 00 	lea    rax,[rip+0x34dc]        # 67c3 <power_letter+0x7b>
32e7:	48 8d 15 d7 34 00 00 	lea    rdx,[rip+0x34d7]        # 67c5 <power_letter+0x7d>
32ee:	83 fb 09             	cmp    ebx,0x9
32f1:	48 0f 45 c2          	cmovne rax,rdx
32f5:	48 83 c4 08          	add    rsp,0x8
32f9:	5b                   	pop    rbx
32fa:	5d                   	pop    rbp
32fb:	c3                   	ret
32fc:	0f 1f 40 00          	nop    DWORD PTR [rax+0x0]
3300:	0f b6 50 01          	movzx  edx,BYTE PTR [rax+0x1]
3304:	83 e2 df             	and    edx,0xffffffdf
3307:	80 fa 42             	cmp    dl,0x42
330a:	75 d4                	jne    32e0 <gettext_quote.part.1+0x20>
330c:	80 78 02 31          	cmp    BYTE PTR [rax+0x2],0x31
3310:	75 ce                	jne    32e0 <gettext_quote.part.1+0x20>
3312:	80 78 03 38          	cmp    BYTE PTR [rax+0x3],0x38
3316:	75 c8                	jne    32e0 <gettext_quote.part.1+0x20>
3318:	80 78 04 30          	cmp    BYTE PTR [rax+0x4],0x30
331c:	75 c2                	jne    32e0 <gettext_quote.part.1+0x20>
331e:	80 78 05 33          	cmp    BYTE PTR [rax+0x5],0x33
3322:	75 bc                	jne    32e0 <gettext_quote.part.1+0x20>
3324:	80 78 06 30          	cmp    BYTE PTR [rax+0x6],0x30
3328:	75 b6                	jne    32e0 <gettext_quote.part.1+0x20>
332a:	80 78 07 00          	cmp    BYTE PTR [rax+0x7],0x0
332e:	75 b0                	jne    32e0 <gettext_quote.part.1+0x20>
3330:	80 7d 00 60          	cmp    BYTE PTR [rbp+0x0],0x60
3334:	48 8d 05 81 34 00 00 	lea    rax,[rip+0x3481]        # 67bc <power_letter+0x74>
333b:	48 8d 15 7e 34 00 00 	lea    rdx,[rip+0x347e]        # 67c0 <power_letter+0x78>
3342:	48 0f 45 c2          	cmovne rax,rdx
3346:	48 83 c4 08          	add    rsp,0x8
334a:	5b                   	pop    rbx
334b:	5d                   	pop    rbp
334c:	c3                   	ret
334d:	0f 1f 00             	nop    DWORD PTR [rax]
3350:	0f b6 50 01          	movzx  edx,BYTE PTR [rax+0x1]
3354:	83 e2 df             	and    edx,0xffffffdf
3357:	80 fa 54             	cmp    dl,0x54
335a:	75 84                	jne    32e0 <gettext_quote.part.1+0x20>
335c:	0f b6 50 02          	movzx  edx,BYTE PTR [rax+0x2]
3360:	83 e2 df             	and    edx,0xffffffdf
3363:	80 fa 46             	cmp    dl,0x46
3366:	0f 85 74 ff ff ff    	jne    32e0 <gettext_quote.part.1+0x20>
336c:	80 78 03 2d          	cmp    BYTE PTR [rax+0x3],0x2d
3370:	0f 85 6a ff ff ff    	jne    32e0 <gettext_quote.part.1+0x20>
3376:	80 78 04 38          	cmp    BYTE PTR [rax+0x4],0x38
337a:	0f 85 60 ff ff ff    	jne    32e0 <gettext_quote.part.1+0x20>
3380:	80 78 05 00          	cmp    BYTE PTR [rax+0x5],0x0
3384:	0f 85 56 ff ff ff    	jne    32e0 <gettext_quote.part.1+0x20>
338a:	80 7d 00 60          	cmp    BYTE PTR [rbp+0x0],0x60
338e:	48 8d 05 1f 34 00 00 	lea    rax,[rip+0x341f]        # 67b4 <power_letter+0x6c>
3395:	48 8d 15 1c 34 00 00 	lea    rdx,[rip+0x341c]        # 67b8 <power_letter+0x70>
339c:	48 0f 45 c2          	cmovne rax,rdx
33a0:	48 83 c4 08          	add    rsp,0x8
33a4:	5b                   	pop    rbx
33a5:	5d                   	pop    rbp
33a6:	c3                   	ret
33a7:	66 0f 1f 84 00 00 00 	nop    WORD PTR [rax+rax*1+0x0]
33ae:	00 00

00000000000033b0 <quotearg_buffer_restyled>:
33b0:	41 57                	push   r15
33b2:	41 56                	push   r14
33b4:	45 89 c7             	mov    r15d,r8d
33b7:	41 55                	push   r13
33b9:	41 54                	push   r12
33bb:	49 89 fe             	mov    r14,rdi
33be:	55                   	push   rbp
33bf:	53                   	push   rbx
33c0:	44 89 cb             	mov    ebx,r9d
33c3:	49 89 f5             	mov    r13,rsi
33c6:	48 89 cd             	mov    rbp,rcx
33c9:	83 e3 02             	and    ebx,0x2
33cc:	48 81 ec b8 00 00 00 	sub    rsp,0xb8
33d3:	48 8b 84 24 f0 00 00 	mov    rax,QWORD PTR [rsp+0xf0]
33da:	00
33db:	48 89 54 24 10       	mov    QWORD PTR [rsp+0x10],rdx
33e0:	44 89 44 24 08       	mov    DWORD PTR [rsp+0x8],r8d
33e5:	44 89 4c 24 78       	mov    DWORD PTR [rsp+0x78],r9d
33ea:	48 89 44 24 20       	mov    QWORD PTR [rsp+0x20],rax
33ef:	48 8b 84 24 f8 00 00 	mov    rax,QWORD PTR [rsp+0xf8]
33f6:	00
33f7:	48 89 44 24 68       	mov    QWORD PTR [rsp+0x68],rax
33fc:	48 8b 84 24 00 01 00 	mov    rax,QWORD PTR [rsp+0x100]
3403:	00
3404:	48 89 44 24 60       	mov    QWORD PTR [rsp+0x60],rax
3409:	64 48 8b 04 25 28 00 	mov    rax,QWORD PTR fs:0x28
3410:	00 00
3412:	48 89 84 24 a8 00 00 	mov    QWORD PTR [rsp+0xa8],rax
3419:	00
341a:	31 c0                	xor    eax,eax
341c:	e8 6f e2 ff ff       	call   1690 <__ctype_get_mb_cur_max@plt>
3421:	41 83 ff 0a          	cmp    r15d,0xa
3425:	48 89 44 24 58       	mov    QWORD PTR [rsp+0x58],rax
342a:	0f 87 af 11 00 00    	ja     45df <quotearg_buffer_restyled+0x122f>
3430:	48 8d 0d e9 33 00 00 	lea    rcx,[rip+0x33e9]        # 6820 <power_letter+0xd8>
3437:	44 89 fa             	mov    edx,r15d
343a:	48 63 04 91          	movsxd rax,DWORD PTR [rcx+rdx*4]
343e:	48 01 c8             	add    rax,rcx
3441:	ff e0                	jmp    rax
3443:	c6 44 24 0e 01       	mov    BYTE PTR [rsp+0xe],0x1
3448:	c6 44 24 7c 00       	mov    BYTE PTR [rsp+0x7c],0x0
344d:	45 31 e4             	xor    r12d,r12d
3450:	48 c7 44 24 50 00 00 	mov    QWORD PTR [rsp+0x50],0x0
3457:	00 00
3459:	c6 44 24 0f 01       	mov    BYTE PTR [rsp+0xf],0x1
345e:	c6 44 24 0d 00       	mov    BYTE PTR [rsp+0xd],0x0
3463:	48 8d 05 5b 33 00 00 	lea    rax,[rip+0x335b]        # 67c5 <power_letter+0x7d>
346a:	48 c7 44 24 18 01 00 	mov    QWORD PTR [rsp+0x18],0x1
3471:	00 00
3473:	45 31 ff             	xor    r15d,r15d
3476:	c7 44 24 08 02 00 00 	mov    DWORD PTR [rsp+0x8],0x2
347d:	00
347e:	48 89 44 24 48       	mov    QWORD PTR [rsp+0x48],rax
3483:	45 31 db             	xor    r11d,r11d
3486:	48 89 e8             	mov    rax,rbp
3489:	45 89 e0             	mov    r8d,r12d
348c:	4c 89 dd             	mov    rbp,r11
348f:	49 89 c3             	mov    r11,rax
3492:	66 0f 1f 44 00 00    	nop    WORD PTR [rax+rax*1+0x0]
3498:	49 39 eb             	cmp    r11,rbp
349b:	41 0f 95 c4          	setne  r12b
349f:	49 83 fb ff          	cmp    r11,0xffffffffffffffff
34a3:	75 0d                	jne    34b2 <quotearg_buffer_restyled+0x102>
34a5:	48 8b 44 24 10       	mov    rax,QWORD PTR [rsp+0x10]
34aa:	80 3c 28 00          	cmp    BYTE PTR [rax+rbp*1],0x0
34ae:	41 0f 95 c4          	setne  r12b
34b2:	45 84 e4             	test   r12b,r12b
34b5:	0f 84 55 06 00 00    	je     3b10 <quotearg_buffer_restyled+0x760>
34bb:	83 7c 24 08 02       	cmp    DWORD PTR [rsp+0x8],0x2
34c0:	48 8b 7c 24 10       	mov    rdi,QWORD PTR [rsp+0x10]
34c5:	4c 8d 0c 2f          	lea    r9,[rdi+rbp*1]
34c9:	0f 95 c0             	setne  al
34cc:	22 44 24 0d          	and    al,BYTE PTR [rsp+0xd]
34d0:	41 89 c2             	mov    r10d,eax
34d3:	0f 84 a7 00 00 00    	je     3580 <quotearg_buffer_restyled+0x1d0>
34d9:	48 8b 44 24 18       	mov    rax,QWORD PTR [rsp+0x18]
34de:	48 85 c0             	test   rax,rax
34e1:	0f 84 29 04 00 00    	je     3910 <quotearg_buffer_restyled+0x560>
34e7:	49 83 fb ff          	cmp    r11,0xffffffffffffffff
34eb:	48 8d 5c 05 00       	lea    rbx,[rbp+rax*1+0x0]
34f0:	75 2e                	jne    3520 <quotearg_buffer_restyled+0x170>
34f2:	48 83 f8 01          	cmp    rax,0x1
34f6:	76 28                	jbe    3520 <quotearg_buffer_restyled+0x170>
34f8:	44 88 44 24 38       	mov    BYTE PTR [rsp+0x38],r8b
34fd:	44 88 54 24 30       	mov    BYTE PTR [rsp+0x30],r10b
3502:	4c 89 4c 24 28       	mov    QWORD PTR [rsp+0x28],r9
3507:	e8 94 e1 ff ff       	call   16a0 <strlen@plt>
350c:	44 0f b6 44 24 38    	movzx  r8d,BYTE PTR [rsp+0x38]
3512:	44 0f b6 54 24 30    	movzx  r10d,BYTE PTR [rsp+0x30]
3518:	49 89 c3             	mov    r11,rax
351b:	4c 8b 4c 24 28       	mov    r9,QWORD PTR [rsp+0x28]
3520:	4c 39 db             	cmp    rbx,r11
3523:	44 88 54 24 28       	mov    BYTE PTR [rsp+0x28],r10b
3528:	0f 87 b2 05 00 00    	ja     3ae0 <quotearg_buffer_restyled+0x730>
352e:	48 8b 54 24 18       	mov    rdx,QWORD PTR [rsp+0x18]
3533:	48 8b 74 24 48       	mov    rsi,QWORD PTR [rsp+0x48]
3538:	4c 89 cf             	mov    rdi,r9
353b:	4c 89 5c 24 40       	mov    QWORD PTR [rsp+0x40],r11
3540:	44 88 44 24 38       	mov    BYTE PTR [rsp+0x38],r8b
3545:	4c 89 4c 24 30       	mov    QWORD PTR [rsp+0x30],r9
354a:	e8 31 e2 ff ff       	call   1780 <memcmp@plt>
354f:	85 c0                	test   eax,eax
3551:	4c 8b 4c 24 30       	mov    r9,QWORD PTR [rsp+0x30]
3556:	44 0f b6 44 24 38    	movzx  r8d,BYTE PTR [rsp+0x38]
355c:	4c 8b 5c 24 40       	mov    r11,QWORD PTR [rsp+0x40]
3561:	0f 85 79 05 00 00    	jne    3ae0 <quotearg_buffer_restyled+0x730>
3567:	80 7c 24 0f 00       	cmp    BYTE PTR [rsp+0xf],0x0
356c:	44 0f b6 54 24 28    	movzx  r10d,BYTE PTR [rsp+0x28]
3572:	0f 85 7d 0f 00 00    	jne    44f5 <quotearg_buffer_restyled+0x1145>
3578:	0f 1f 84 00 00 00 00 	nop    DWORD PTR [rax+rax*1+0x0]
357f:	00
3580:	41 0f b6 19          	movzx  ebx,BYTE PTR [r9]
3584:	80 fb 7e             	cmp    bl,0x7e
3587:	0f 87 1b 03 00 00    	ja     38a8 <quotearg_buffer_restyled+0x4f8>
358d:	48 8d 0d b8 32 00 00 	lea    rcx,[rip+0x32b8]        # 684c <power_letter+0x104>
3594:	0f b6 d3             	movzx  edx,bl
3597:	48 63 04 91          	movsxd rax,DWORD PTR [rcx+rdx*4]
359b:	48 01 c8             	add    rax,rcx
359e:	ff e0                	jmp    rax
35a0:	45 31 d2             	xor    r10d,r10d
35a3:	49 83 fb 01          	cmp    r11,0x1
35a7:	0f 95 c0             	setne  al
35aa:	49 83 fb ff          	cmp    r11,0xffffffffffffffff
35ae:	75 0c                	jne    35bc <quotearg_buffer_restyled+0x20c>
35b0:	48 8b 44 24 10       	mov    rax,QWORD PTR [rsp+0x10]
35b5:	80 78 01 00          	cmp    BYTE PTR [rax+0x1],0x0
35b9:	0f 95 c0             	setne  al
35bc:	83 7c 24 08 02       	cmp    DWORD PTR [rsp+0x8],0x2
35c1:	0f 94 c2             	sete   dl
35c4:	84 c0                	test   al,al
35c6:	0f 84 4c 02 00 00    	je     3818 <quotearg_buffer_restyled+0x468>
35cc:	45 31 e4             	xor    r12d,r12d
35cf:	31 c0                	xor    eax,eax
35d1:	0f 1f 80 00 00 00 00 	nop    DWORD PTR [rax+0x0]
35d8:	80 7c 24 0d 01       	cmp    BYTE PTR [rsp+0xd],0x1
35dd:	0f 85 0f 01 00 00    	jne    36f2 <quotearg_buffer_restyled+0x342>
35e3:	84 d2                	test   dl,dl
35e5:	0f 85 07 01 00 00    	jne    36f2 <quotearg_buffer_restyled+0x342>
35eb:	48 8b 74 24 20       	mov    rsi,QWORD PTR [rsp+0x20]
35f0:	48 85 f6             	test   rsi,rsi
35f3:	74 14                	je     3609 <quotearg_buffer_restyled+0x259>
35f5:	89 da                	mov    edx,ebx
35f7:	c0 ea 05             	shr    dl,0x5
35fa:	0f b6 d2             	movzx  edx,dl
35fd:	8b 14 96             	mov    edx,DWORD PTR [rsi+rdx*4]
3600:	0f a3 da             	bt     edx,ebx
3603:	0f 82 4a 01 00 00    	jb     3753 <quotearg_buffer_restyled+0x3a3>
3609:	45 84 d2             	test   r10b,r10b
360c:	0f 85 41 01 00 00    	jne    3753 <quotearg_buffer_restyled+0x3a3>
3612:	83 f0 01             	xor    eax,0x1
3615:	48 83 c5 01          	add    rbp,0x1
3619:	44 21 c0             	and    eax,r8d
361c:	84 c0                	test   al,al
361e:	74 20                	je     3640 <quotearg_buffer_restyled+0x290>
3620:	4d 39 fd             	cmp    r13,r15
3623:	76 05                	jbe    362a <quotearg_buffer_restyled+0x27a>
3625:	43 c6 04 3e 27       	mov    BYTE PTR [r14+r15*1],0x27
362a:	49 8d 47 01          	lea    rax,[r15+0x1]
362e:	49 39 c5             	cmp    r13,rax
3631:	76 06                	jbe    3639 <quotearg_buffer_restyled+0x289>
3633:	43 c6 44 3e 01 27    	mov    BYTE PTR [r14+r15*1+0x1],0x27
3639:	49 83 c7 02          	add    r15,0x2
363d:	45 31 c0             	xor    r8d,r8d
3640:	4d 39 ef             	cmp    r15,r13
3643:	73 04                	jae    3649 <quotearg_buffer_restyled+0x299>
3645:	43 88 1c 3e          	mov    BYTE PTR [r14+r15*1],bl
3649:	0f b6 7c 24 0e       	movzx  edi,BYTE PTR [rsp+0xe]
364e:	49 83 c7 01          	add    r15,0x1
3652:	b8 00 00 00 00       	mov    eax,0x0
3657:	45 84 e4             	test   r12b,r12b
365a:	0f 44 f8             	cmove  edi,eax
365d:	40 88 7c 24 0e       	mov    BYTE PTR [rsp+0xe],dil
3662:	e9 31 fe ff ff       	jmp    3498 <quotearg_buffer_restyled+0xe8>
3667:	66 0f 1f 84 00 00 00 	nop    WORD PTR [rax+rax*1+0x0]
366e:	00 00
3670:	45 31 d2             	xor    r10d,r10d
3673:	8b 44 24 08          	mov    eax,DWORD PTR [rsp+0x8]
3677:	83 f8 02             	cmp    eax,0x2
367a:	0f 84 b8 05 00 00    	je     3c38 <quotearg_buffer_restyled+0x888>
3680:	83 f8 05             	cmp    eax,0x5
3683:	0f 84 6f 05 00 00    	je     3bf8 <quotearg_buffer_restyled+0x848>
3689:	83 f8 02             	cmp    eax,0x2
368c:	bb 3f 00 00 00       	mov    ebx,0x3f
3691:	0f 94 c2             	sete   dl
3694:	45 31 e4             	xor    r12d,r12d
3697:	31 c0                	xor    eax,eax
3699:	e9 3a ff ff ff       	jmp    35d8 <quotearg_buffer_restyled+0x228>
369e:	66 90                	xchg   ax,ax
36a0:	45 31 d2             	xor    r10d,r10d
36a3:	83 7c 24 08 02       	cmp    DWORD PTR [rsp+0x8],0x2
36a8:	0f 84 02 05 00 00    	je     3bb0 <quotearg_buffer_restyled+0x800>
36ae:	44 88 64 24 7c       	mov    BYTE PTR [rsp+0x7c],r12b
36b3:	31 d2                	xor    edx,edx
36b5:	31 c0                	xor    eax,eax
36b7:	bb 27 00 00 00       	mov    ebx,0x27
36bc:	e9 17 ff ff ff       	jmp    35d8 <quotearg_buffer_restyled+0x228>
36c1:	0f 1f 80 00 00 00 00 	nop    DWORD PTR [rax+0x0]
36c8:	ba 09 00 00 00       	mov    edx,0x9
36cd:	bb 74 00 00 00       	mov    ebx,0x74
36d2:	83 7c 24 08 02       	cmp    DWORD PTR [rsp+0x8],0x2
36d7:	0f 94 c0             	sete   al
36da:	22 44 24 0f          	and    al,BYTE PTR [rsp+0xf]
36de:	0f 85 4a 01 00 00    	jne    382e <quotearg_buffer_restyled+0x47e>
36e4:	80 7c 24 0d 00       	cmp    BYTE PTR [rsp+0xd],0x0
36e9:	75 65                	jne    3750 <quotearg_buffer_restyled+0x3a0>
36eb:	89 d3                	mov    ebx,edx
36ed:	45 31 e4             	xor    r12d,r12d
36f0:	31 c0                	xor    eax,eax
36f2:	80 7c 24 0f 00       	cmp    BYTE PTR [rsp+0xf],0x0
36f7:	0f 85 ee fe ff ff    	jne    35eb <quotearg_buffer_restyled+0x23b>
36fd:	e9 07 ff ff ff       	jmp    3609 <quotearg_buffer_restyled+0x259>
3702:	66 0f 1f 44 00 00    	nop    WORD PTR [rax+rax*1+0x0]
3708:	ba 08 00 00 00       	mov    edx,0x8
370d:	bb 62 00 00 00       	mov    ebx,0x62
3712:	eb d0                	jmp    36e4 <quotearg_buffer_restyled+0x334>
3714:	0f 1f 40 00          	nop    DWORD PTR [rax+0x0]
3718:	83 7c 24 08 02       	cmp    DWORD PTR [rsp+0x8],0x2
371d:	0f 84 cd 03 00 00    	je     3af0 <quotearg_buffer_restyled+0x740>
3723:	80 7c 24 0d 00       	cmp    BYTE PTR [rsp+0xd],0x0
3728:	0f 84 12 02 00 00    	je     3940 <quotearg_buffer_restyled+0x590>
372e:	80 7c 24 0f 00       	cmp    BYTE PTR [rsp+0xf],0x0
3733:	0f 84 07 02 00 00    	je     3940 <quotearg_buffer_restyled+0x590>
3739:	48 83 7c 24 18 00    	cmp    QWORD PTR [rsp+0x18],0x0
373f:	0f 85 b6 03 00 00    	jne    3afb <quotearg_buffer_restyled+0x74b>
3745:	bb 5c 00 00 00       	mov    ebx,0x5c
374a:	66 0f 1f 44 00 00    	nop    WORD PTR [rax+rax*1+0x0]
3750:	45 31 e4             	xor    r12d,r12d
3753:	83 7c 24 08 02       	cmp    DWORD PTR [rsp+0x8],0x2
3758:	0f 94 c2             	sete   dl
375b:	80 7c 24 0f 00       	cmp    BYTE PTR [rsp+0xf],0x0
3760:	89 d0                	mov    eax,edx
3762:	0f 85 50 08 00 00    	jne    3fb8 <quotearg_buffer_restyled+0xc08>
3768:	44 89 c0             	mov    eax,r8d
376b:	83 f0 01             	xor    eax,0x1
376e:	20 d0                	and    al,dl
3770:	74 2f                	je     37a1 <quotearg_buffer_restyled+0x3f1>
3772:	4d 39 fd             	cmp    r13,r15
3775:	76 05                	jbe    377c <quotearg_buffer_restyled+0x3cc>
3777:	43 c6 04 3e 27       	mov    BYTE PTR [r14+r15*1],0x27
377c:	49 8d 57 01          	lea    rdx,[r15+0x1]
3780:	49 39 d5             	cmp    r13,rdx
3783:	76 06                	jbe    378b <quotearg_buffer_restyled+0x3db>
3785:	43 c6 44 3e 01 24    	mov    BYTE PTR [r14+r15*1+0x1],0x24
378b:	49 8d 57 02          	lea    rdx,[r15+0x2]
378f:	49 39 d5             	cmp    r13,rdx
3792:	76 06                	jbe    379a <quotearg_buffer_restyled+0x3ea>
3794:	43 c6 44 3e 02 27    	mov    BYTE PTR [r14+r15*1+0x2],0x27
379a:	49 83 c7 03          	add    r15,0x3
379e:	41 89 c0             	mov    r8d,eax
37a1:	4d 39 fd             	cmp    r13,r15
37a4:	76 05                	jbe    37ab <quotearg_buffer_restyled+0x3fb>
37a6:	43 c6 04 3e 5c       	mov    BYTE PTR [r14+r15*1],0x5c
37ab:	49 83 c7 01          	add    r15,0x1
37af:	48 83 c5 01          	add    rbp,0x1
37b3:	e9 88 fe ff ff       	jmp    3640 <quotearg_buffer_restyled+0x290>
37b8:	0f 1f 84 00 00 00 00 	nop    DWORD PTR [rax+rax*1+0x0]
37bf:	00
37c0:	80 7c 24 0d 00       	cmp    BYTE PTR [rsp+0xd],0x0
37c5:	0f 85 c8 01 00 00    	jne    3993 <quotearg_buffer_restyled+0x5e3>
37cb:	31 d2                	xor    edx,edx
37cd:	f6 44 24 78 01       	test   BYTE PTR [rsp+0x78],0x1
37d2:	0f 84 13 ff ff ff    	je     36eb <quotearg_buffer_restyled+0x33b>
37d8:	48 83 c5 01          	add    rbp,0x1
37dc:	e9 b7 fc ff ff       	jmp    3498 <quotearg_buffer_restyled+0xe8>
37e1:	0f 1f 80 00 00 00 00 	nop    DWORD PTR [rax+0x0]
37e8:	83 7c 24 08 02       	cmp    DWORD PTR [rsp+0x8],0x2
37ed:	0f 94 c2             	sete   dl
37f0:	31 c0                	xor    eax,eax
37f2:	e9 e1 fd ff ff       	jmp    35d8 <quotearg_buffer_restyled+0x228>
37f7:	66 0f 1f 84 00 00 00 	nop    WORD PTR [rax+rax*1+0x0]
37fe:	00 00
3800:	ba 07 00 00 00       	mov    edx,0x7
3805:	bb 61 00 00 00       	mov    ebx,0x61
380a:	e9 d5 fe ff ff       	jmp    36e4 <quotearg_buffer_restyled+0x334>
380f:	90                   	nop
3810:	83 7c 24 08 02       	cmp    DWORD PTR [rsp+0x8],0x2
3815:	0f 94 c2             	sete   dl
3818:	48 85 ed             	test   rbp,rbp
381b:	0f 85 ab fd ff ff    	jne    35cc <quotearg_buffer_restyled+0x21c>
3821:	0f b6 44 24 0f       	movzx  eax,BYTE PTR [rsp+0xf]
3826:	20 d0                	and    al,dl
3828:	0f 84 aa fd ff ff    	je     35d8 <quotearg_buffer_restyled+0x228>
382e:	4c 89 dd             	mov    rbp,r11
3831:	c7 44 24 08 02 00 00 	mov    DWORD PTR [rsp+0x8],0x2
3838:	00
3839:	e9 fb 06 00 00       	jmp    3f39 <quotearg_buffer_restyled+0xb89>
383e:	66 90                	xchg   ax,ax
3840:	83 7c 24 08 02       	cmp    DWORD PTR [rsp+0x8],0x2
3845:	0f 94 c2             	sete   dl
3848:	45 31 e4             	xor    r12d,r12d
384b:	eb d4                	jmp    3821 <quotearg_buffer_restyled+0x471>
384d:	0f 1f 00             	nop    DWORD PTR [rax]
3850:	83 7c 24 08 02       	cmp    DWORD PTR [rsp+0x8],0x2
3855:	bb 20 00 00 00       	mov    ebx,0x20
385a:	0f 94 c2             	sete   dl
385d:	eb c2                	jmp    3821 <quotearg_buffer_restyled+0x471>
385f:	90                   	nop
3860:	ba 0d 00 00 00       	mov    edx,0xd
3865:	bb 72 00 00 00       	mov    ebx,0x72
386a:	e9 63 fe ff ff       	jmp    36d2 <quotearg_buffer_restyled+0x322>
386f:	90                   	nop
3870:	ba 0c 00 00 00       	mov    edx,0xc
3875:	bb 66 00 00 00       	mov    ebx,0x66
387a:	e9 65 fe ff ff       	jmp    36e4 <quotearg_buffer_restyled+0x334>
387f:	90                   	nop
3880:	ba 0b 00 00 00       	mov    edx,0xb
3885:	bb 76 00 00 00       	mov    ebx,0x76
388a:	e9 55 fe ff ff       	jmp    36e4 <quotearg_buffer_restyled+0x334>
388f:	90                   	nop
3890:	ba 0a 00 00 00       	mov    edx,0xa
3895:	bb 6e 00 00 00       	mov    ebx,0x6e
389a:	e9 33 fe ff ff       	jmp    36d2 <quotearg_buffer_restyled+0x322>
389f:	90                   	nop
38a0:	45 31 d2             	xor    r10d,r10d
38a3:	0f 1f 44 00 00       	nop    DWORD PTR [rax+rax*1+0x0]
38a8:	48 83 7c 24 58 01    	cmp    QWORD PTR [rsp+0x58],0x1
38ae:	0f 85 a4 03 00 00    	jne    3c58 <quotearg_buffer_restyled+0x8a8>
38b4:	4c 89 5c 24 38       	mov    QWORD PTR [rsp+0x38],r11
38b9:	44 88 44 24 30       	mov    BYTE PTR [rsp+0x30],r8b
38be:	44 88 54 24 28       	mov    BYTE PTR [rsp+0x28],r10b
38c3:	e8 48 e0 ff ff       	call   1910 <__ctype_b_loc@plt>
38c8:	48 8b 08             	mov    rcx,QWORD PTR [rax]
38cb:	0f b6 d3             	movzx  edx,bl
38ce:	44 0f b6 54 24 28    	movzx  r10d,BYTE PTR [rsp+0x28]
38d4:	44 0f b6 44 24 30    	movzx  r8d,BYTE PTR [rsp+0x30]
38da:	4c 8b 5c 24 38       	mov    r11,QWORD PTR [rsp+0x38]
38df:	bf 01 00 00 00       	mov    edi,0x1
38e4:	0f b7 04 51          	movzx  eax,WORD PTR [rcx+rdx*2]
38e8:	66 25 00 40          	and    ax,0x4000
38ec:	41 0f 95 c4          	setne  r12b
38f0:	0f 94 c0             	sete   al
38f3:	22 44 24 0d          	and    al,BYTE PTR [rsp+0xd]
38f7:	84 c0                	test   al,al
38f9:	0f 85 92 09 00 00    	jne    4291 <quotearg_buffer_restyled+0xee1>
38ff:	83 7c 24 08 02       	cmp    DWORD PTR [rsp+0x8],0x2
3904:	0f 94 c2             	sete   dl
3907:	e9 cc fc ff ff       	jmp    35d8 <quotearg_buffer_restyled+0x228>
390c:	0f 1f 40 00          	nop    DWORD PTR [rax+0x0]
3910:	41 0f b6 19          	movzx  ebx,BYTE PTR [r9]
3914:	80 fb 7e             	cmp    bl,0x7e
3917:	77 87                	ja     38a0 <quotearg_buffer_restyled+0x4f0>
3919:	48 8d 0d 28 31 00 00 	lea    rcx,[rip+0x3128]        # 6a48 <power_letter+0x300>
3920:	0f b6 d3             	movzx  edx,bl
3923:	48 63 04 91          	movsxd rax,DWORD PTR [rcx+rdx*4]
3927:	48 01 c8             	add    rax,rcx
392a:	ff e0                	jmp    rax
392c:	0f 1f 40 00          	nop    DWORD PTR [rax+0x0]
3930:	45 31 d2             	xor    r10d,r10d
3933:	80 7c 24 0d 00       	cmp    BYTE PTR [rsp+0xd],0x0
3938:	0f 85 f0 fd ff ff    	jne    372e <quotearg_buffer_restyled+0x37e>
393e:	66 90                	xchg   ax,ax
3940:	ba 5c 00 00 00       	mov    edx,0x5c
3945:	bb 5c 00 00 00       	mov    ebx,0x5c
394a:	e9 95 fd ff ff       	jmp    36e4 <quotearg_buffer_restyled+0x334>
394f:	90                   	nop
3950:	ba 0c 00 00 00       	mov    edx,0xc
3955:	45 31 d2             	xor    r10d,r10d
3958:	bb 66 00 00 00       	mov    ebx,0x66
395d:	e9 82 fd ff ff       	jmp    36e4 <quotearg_buffer_restyled+0x334>
3962:	66 0f 1f 44 00 00    	nop    WORD PTR [rax+rax*1+0x0]
3968:	ba 0a 00 00 00       	mov    edx,0xa
396d:	45 31 d2             	xor    r10d,r10d
3970:	bb 6e 00 00 00       	mov    ebx,0x6e
3975:	e9 58 fd ff ff       	jmp    36d2 <quotearg_buffer_restyled+0x322>
397a:	66 0f 1f 44 00 00    	nop    WORD PTR [rax+rax*1+0x0]
3980:	bb 61 00 00 00       	mov    ebx,0x61
3985:	e9 c6 fd ff ff       	jmp    3750 <quotearg_buffer_restyled+0x3a0>
398a:	66 0f 1f 44 00 00    	nop    WORD PTR [rax+rax*1+0x0]
3990:	45 31 d2             	xor    r10d,r10d
3993:	83 7c 24 08 02       	cmp    DWORD PTR [rsp+0x8],0x2
3998:	0f 94 c2             	sete   dl
399b:	80 7c 24 0f 00       	cmp    BYTE PTR [rsp+0xf],0x0
39a0:	0f 85 94 0b 00 00    	jne    453a <quotearg_buffer_restyled+0x118a>
39a6:	44 89 c0             	mov    eax,r8d
39a9:	4c 89 f9             	mov    rcx,r15
39ac:	83 f0 01             	xor    eax,0x1
39af:	20 d0                	and    al,dl
39b1:	74 2d                	je     39e0 <quotearg_buffer_restyled+0x630>
39b3:	4d 39 fd             	cmp    r13,r15
39b6:	76 05                	jbe    39bd <quotearg_buffer_restyled+0x60d>
39b8:	43 c6 04 3e 27       	mov    BYTE PTR [r14+r15*1],0x27
39bd:	49 8d 4f 01          	lea    rcx,[r15+0x1]
39c1:	49 39 cd             	cmp    r13,rcx
39c4:	76 06                	jbe    39cc <quotearg_buffer_restyled+0x61c>
39c6:	43 c6 44 3e 01 24    	mov    BYTE PTR [r14+r15*1+0x1],0x24
39cc:	49 8d 4f 02          	lea    rcx,[r15+0x2]
39d0:	49 39 cd             	cmp    r13,rcx
39d3:	0f 87 30 06 00 00    	ja     4009 <quotearg_buffer_restyled+0xc59>
39d9:	49 8d 4f 03          	lea    rcx,[r15+0x3]
39dd:	41 89 c0             	mov    r8d,eax
39e0:	49 39 cd             	cmp    r13,rcx
39e3:	76 05                	jbe    39ea <quotearg_buffer_restyled+0x63a>
39e5:	41 c6 04 0e 5c       	mov    BYTE PTR [r14+rcx*1],0x5c
39ea:	83 7c 24 08 02       	cmp    DWORD PTR [rsp+0x8],0x2
39ef:	4c 8d 79 01          	lea    r15,[rcx+0x1]
39f3:	0f 84 00 06 00 00    	je     3ff9 <quotearg_buffer_restyled+0xc49>
39f9:	48 8d 45 01          	lea    rax,[rbp+0x1]
39fd:	4c 39 d8             	cmp    rax,r11
3a00:	73 19                	jae    3a1b <quotearg_buffer_restyled+0x66b>
3a02:	48 8b 44 24 10       	mov    rax,QWORD PTR [rsp+0x10]
3a07:	0f b6 44 28 01       	movzx  eax,BYTE PTR [rax+rbp*1+0x1]
3a0c:	88 44 24 28          	mov    BYTE PTR [rsp+0x28],al
3a10:	83 e8 30             	sub    eax,0x30
3a13:	3c 09                	cmp    al,0x9
3a15:	0f 86 2e 08 00 00    	jbe    4249 <quotearg_buffer_restyled+0xe99>
3a1b:	44 89 e0             	mov    eax,r12d
3a1e:	bb 30 00 00 00       	mov    ebx,0x30
3a23:	45 31 e4             	xor    r12d,r12d
3a26:	e9 ad fb ff ff       	jmp    35d8 <quotearg_buffer_restyled+0x228>
3a2b:	0f 1f 44 00 00       	nop    DWORD PTR [rax+rax*1+0x0]
3a30:	83 7c 24 08 02       	cmp    DWORD PTR [rsp+0x8],0x2
3a35:	45 89 d4             	mov    r12d,r10d
3a38:	0f 94 c2             	sete   dl
3a3b:	45 31 d2             	xor    r10d,r10d
3a3e:	31 c0                	xor    eax,eax
3a40:	e9 93 fb ff ff       	jmp    35d8 <quotearg_buffer_restyled+0x228>
3a45:	0f 1f 00             	nop    DWORD PTR [rax]
3a48:	83 7c 24 08 02       	cmp    DWORD PTR [rsp+0x8],0x2
3a4d:	0f 94 c2             	sete   dl
3a50:	45 31 d2             	xor    r10d,r10d
3a53:	e9 c0 fd ff ff       	jmp    3818 <quotearg_buffer_restyled+0x468>
3a58:	0f 1f 84 00 00 00 00 	nop    DWORD PTR [rax+rax*1+0x0]
3a5f:	00
3a60:	83 7c 24 08 02       	cmp    DWORD PTR [rsp+0x8],0x2
3a65:	0f 94 c2             	sete   dl
3a68:	45 31 d2             	xor    r10d,r10d
3a6b:	45 31 e4             	xor    r12d,r12d
3a6e:	e9 ae fd ff ff       	jmp    3821 <quotearg_buffer_restyled+0x471>
3a73:	0f 1f 44 00 00       	nop    DWORD PTR [rax+rax*1+0x0]
3a78:	83 7c 24 08 02       	cmp    DWORD PTR [rsp+0x8],0x2
3a7d:	45 89 d4             	mov    r12d,r10d
3a80:	bb 20 00 00 00       	mov    ebx,0x20
3a85:	0f 94 c2             	sete   dl
3a88:	45 31 d2             	xor    r10d,r10d
3a8b:	e9 91 fd ff ff       	jmp    3821 <quotearg_buffer_restyled+0x471>
3a90:	ba 0d 00 00 00       	mov    edx,0xd
3a95:	45 31 d2             	xor    r10d,r10d
3a98:	bb 72 00 00 00       	mov    ebx,0x72
3a9d:	e9 30 fc ff ff       	jmp    36d2 <quotearg_buffer_restyled+0x322>
3aa2:	66 0f 1f 44 00 00    	nop    WORD PTR [rax+rax*1+0x0]
3aa8:	bb 76 00 00 00       	mov    ebx,0x76
3aad:	e9 9e fc ff ff       	jmp    3750 <quotearg_buffer_restyled+0x3a0>
3ab2:	66 0f 1f 44 00 00    	nop    WORD PTR [rax+rax*1+0x0]
3ab8:	ba 09 00 00 00       	mov    edx,0x9
3abd:	45 31 d2             	xor    r10d,r10d
3ac0:	bb 74 00 00 00       	mov    ebx,0x74
3ac5:	e9 08 fc ff ff       	jmp    36d2 <quotearg_buffer_restyled+0x322>
3aca:	66 0f 1f 44 00 00    	nop    WORD PTR [rax+rax*1+0x0]
3ad0:	bb 62 00 00 00       	mov    ebx,0x62
3ad5:	e9 76 fc ff ff       	jmp    3750 <quotearg_buffer_restyled+0x3a0>
3ada:	66 0f 1f 44 00 00    	nop    WORD PTR [rax+rax*1+0x0]
3ae0:	45 31 d2             	xor    r10d,r10d
3ae3:	e9 98 fa ff ff       	jmp    3580 <quotearg_buffer_restyled+0x1d0>
3ae8:	0f 1f 84 00 00 00 00 	nop    DWORD PTR [rax+rax*1+0x0]
3aef:	00
3af0:	80 7c 24 0f 00       	cmp    BYTE PTR [rsp+0xf],0x0
3af5:	0f 85 65 09 00 00    	jne    4460 <quotearg_buffer_restyled+0x10b0>
3afb:	48 83 c5 01          	add    rbp,0x1
3aff:	44 89 c0             	mov    eax,r8d
3b02:	45 31 e4             	xor    r12d,r12d
3b05:	bb 5c 00 00 00       	mov    ebx,0x5c
3b0a:	e9 0d fb ff ff       	jmp    361c <quotearg_buffer_restyled+0x26c>
3b0f:	90                   	nop
3b10:	83 7c 24 08 02       	cmp    DWORD PTR [rsp+0x8],0x2
3b15:	0f b6 5c 24 0f       	movzx  ebx,BYTE PTR [rsp+0xf]
3b1a:	45 89 c4             	mov    r12d,r8d
3b1d:	4c 89 dd             	mov    rbp,r11
3b20:	0f 94 c2             	sete   dl
3b23:	89 d8                	mov    eax,ebx
3b25:	4d 85 ff             	test   r15,r15
3b28:	0f 94 c1             	sete   cl
3b2b:	21 d0                	and    eax,edx
3b2d:	20 c8                	and    al,cl
3b2f:	0f 85 61 0a 00 00    	jne    4596 <quotearg_buffer_restyled+0x11e6>
3b35:	89 d8                	mov    eax,ebx
3b37:	83 f0 01             	xor    eax,0x1
3b3a:	20 c2                	and    dl,al
3b3c:	0f 84 6a 09 00 00    	je     44ac <quotearg_buffer_restyled+0x10fc>
3b42:	80 7c 24 7c 00       	cmp    BYTE PTR [rsp+0x7c],0x0
3b47:	0f 84 5d 09 00 00    	je     44aa <quotearg_buffer_restyled+0x10fa>
3b4d:	80 7c 24 0e 00       	cmp    BYTE PTR [rsp+0xe],0x0
3b52:	0f 85 f5 09 00 00    	jne    454d <quotearg_buffer_restyled+0x119d>
3b58:	4d 85 ed             	test   r13,r13
3b5b:	0f 94 c0             	sete   al
3b5e:	48 83 7c 24 50 00    	cmp    QWORD PTR [rsp+0x50],0x0
3b64:	0f 95 c2             	setne  dl
3b67:	20 d0                	and    al,dl
3b69:	0f 84 1d 0a 00 00    	je     458c <quotearg_buffer_restyled+0x11dc>
3b6f:	4c 8b 6c 24 50       	mov    r13,QWORD PTR [rsp+0x50]
3b74:	48 8d 1d 4a 2c 00 00 	lea    rbx,[rip+0x2c4a]        # 67c5 <power_letter+0x7d>
3b7b:	41 c6 06 27          	mov    BYTE PTR [r14],0x27
3b7f:	c7 44 24 08 02 00 00 	mov    DWORD PTR [rsp+0x8],0x2
3b86:	00
3b87:	41 bf 01 00 00 00    	mov    r15d,0x1
3b8d:	48 c7 44 24 18 01 00 	mov    QWORD PTR [rsp+0x18],0x1
3b94:	00 00
3b96:	c6 44 24 0f 00       	mov    BYTE PTR [rsp+0xf],0x0
3b9b:	48 89 5c 24 48       	mov    QWORD PTR [rsp+0x48],rbx
3ba0:	88 44 24 7c          	mov    BYTE PTR [rsp+0x7c],al
3ba4:	e9 da f8 ff ff       	jmp    3483 <quotearg_buffer_restyled+0xd3>
3ba9:	0f 1f 80 00 00 00 00 	nop    DWORD PTR [rax+0x0]
3bb0:	80 7c 24 0f 00       	cmp    BYTE PTR [rsp+0xf],0x0
3bb5:	0f 85 a5 08 00 00    	jne    4460 <quotearg_buffer_restyled+0x10b0>
3bbb:	4d 85 ed             	test   r13,r13
3bbe:	0f 84 fc 03 00 00    	je     3fc0 <quotearg_buffer_restyled+0xc10>
3bc4:	31 d2                	xor    edx,edx
3bc6:	48 83 7c 24 50 00    	cmp    QWORD PTR [rsp+0x50],0x0
3bcc:	0f 85 ee 03 00 00    	jne    3fc0 <quotearg_buffer_restyled+0xc10>
3bd2:	4c 89 6c 24 50       	mov    QWORD PTR [rsp+0x50],r13
3bd7:	49 83 c7 03          	add    r15,0x3
3bdb:	31 c0                	xor    eax,eax
3bdd:	44 88 64 24 7c       	mov    BYTE PTR [rsp+0x7c],r12b
3be2:	45 31 c0             	xor    r8d,r8d
3be5:	49 89 d5             	mov    r13,rdx
3be8:	bb 27 00 00 00       	mov    ebx,0x27
3bed:	e9 17 fa ff ff       	jmp    3609 <quotearg_buffer_restyled+0x259>
3bf2:	66 0f 1f 44 00 00    	nop    WORD PTR [rax+rax*1+0x0]
3bf8:	f6 44 24 78 04       	test   BYTE PTR [rsp+0x78],0x4
3bfd:	74 21                	je     3c20 <quotearg_buffer_restyled+0x870>
3bff:	48 8d 4d 02          	lea    rcx,[rbp+0x2]
3c03:	4c 39 d9             	cmp    rcx,r11
3c06:	73 18                	jae    3c20 <quotearg_buffer_restyled+0x870>
3c08:	48 8b 44 24 10       	mov    rax,QWORD PTR [rsp+0x10]
3c0d:	80 7c 28 01 3f       	cmp    BYTE PTR [rax+rbp*1+0x1],0x3f
3c12:	0f 84 8a 07 00 00    	je     43a2 <quotearg_buffer_restyled+0xff2>
3c18:	0f 1f 84 00 00 00 00 	nop    DWORD PTR [rax+rax*1+0x0]
3c1f:	00
3c20:	31 d2                	xor    edx,edx
3c22:	45 31 e4             	xor    r12d,r12d
3c25:	31 c0                	xor    eax,eax
3c27:	bb 3f 00 00 00       	mov    ebx,0x3f
3c2c:	e9 a7 f9 ff ff       	jmp    35d8 <quotearg_buffer_restyled+0x228>
3c31:	0f 1f 80 00 00 00 00 	nop    DWORD PTR [rax+0x0]
3c38:	80 7c 24 0f 00       	cmp    BYTE PTR [rsp+0xf],0x0
3c3d:	0f 85 1d 08 00 00    	jne    4460 <quotearg_buffer_restyled+0x10b0>
3c43:	45 31 e4             	xor    r12d,r12d
3c46:	31 c0                	xor    eax,eax
3c48:	bb 3f 00 00 00       	mov    ebx,0x3f
3c4d:	e9 b7 f9 ff ff       	jmp    3609 <quotearg_buffer_restyled+0x259>
3c52:	66 0f 1f 44 00 00    	nop    WORD PTR [rax+rax*1+0x0]
3c58:	48 8d 84 24 a0 00 00 	lea    rax,[rsp+0xa0]
3c5f:	00
3c60:	49 83 fb ff          	cmp    r11,0xffffffffffffffff
3c64:	48 c7 84 24 a0 00 00 	mov    QWORD PTR [rsp+0xa0],0x0
3c6b:	00 00 00 00 00
3c70:	48 89 44 24 28       	mov    QWORD PTR [rsp+0x28],rax
3c75:	75 2d                	jne    3ca4 <quotearg_buffer_restyled+0x8f4>
3c77:	48 8b 7c 24 10       	mov    rdi,QWORD PTR [rsp+0x10]
3c7c:	44 88 44 24 40       	mov    BYTE PTR [rsp+0x40],r8b
3c81:	44 88 54 24 38       	mov    BYTE PTR [rsp+0x38],r10b
3c86:	4c 89 4c 24 30       	mov    QWORD PTR [rsp+0x30],r9
3c8b:	e8 10 da ff ff       	call   16a0 <strlen@plt>
3c90:	44 0f b6 44 24 40    	movzx  r8d,BYTE PTR [rsp+0x40]
3c96:	44 0f b6 54 24 38    	movzx  r10d,BYTE PTR [rsp+0x38]
3c9c:	49 89 c3             	mov    r11,rax
3c9f:	4c 8b 4c 24 30       	mov    r9,QWORD PTR [rsp+0x30]
3ca4:	48 8d 84 24 9c 00 00 	lea    rax,[rsp+0x9c]
3cab:	00
3cac:	31 c9                	xor    ecx,ecx
3cae:	88 5c 24 7e          	mov    BYTE PTR [rsp+0x7e],bl
3cb2:	44 88 44 24 7d       	mov    BYTE PTR [rsp+0x7d],r8b
3cb7:	48 89 cb             	mov    rbx,rcx
3cba:	4c 89 8c 24 88 00 00 	mov    QWORD PTR [rsp+0x88],r9
3cc1:	00
3cc2:	48 89 44 24 38       	mov    QWORD PTR [rsp+0x38],rax
3cc7:	44 88 54 24 7f       	mov    BYTE PTR [rsp+0x7f],r10b
3ccc:	4c 89 bc 24 80 00 00 	mov    QWORD PTR [rsp+0x80],r15
3cd3:	00
3cd4:	4c 89 74 24 40       	mov    QWORD PTR [rsp+0x40],r14
3cd9:	4c 89 6c 24 70       	mov    QWORD PTR [rsp+0x70],r13
3cde:	4c 89 5c 24 30       	mov    QWORD PTR [rsp+0x30],r11
3ce3:	48 8b 44 24 10       	mov    rax,QWORD PTR [rsp+0x10]
3ce8:	4c 8d 74 1d 00       	lea    r14,[rbp+rbx*1+0x0]
3ced:	48 8b 54 24 30       	mov    rdx,QWORD PTR [rsp+0x30]
3cf2:	48 8b 4c 24 28       	mov    rcx,QWORD PTR [rsp+0x28]
3cf7:	48 8b 7c 24 38       	mov    rdi,QWORD PTR [rsp+0x38]
3cfc:	4e 8d 2c 30          	lea    r13,[rax+r14*1]
3d00:	4c 29 f2             	sub    rdx,r14
3d03:	4c 89 ee             	mov    rsi,r13
3d06:	e8 95 20 00 00       	call   5da0 <rpl_mbrtowc>
3d0b:	48 85 c0             	test   rax,rax
3d0e:	49 89 c7             	mov    r15,rax
3d11:	74 4e                	je     3d61 <quotearg_buffer_restyled+0x9b1>
3d13:	48 83 f8 ff          	cmp    rax,0xffffffffffffffff
3d17:	0f 84 18 06 00 00    	je     4335 <quotearg_buffer_restyled+0xf85>
3d1d:	48 83 f8 fe          	cmp    rax,0xfffffffffffffffe
3d21:	0f 84 9a 05 00 00    	je     42c1 <quotearg_buffer_restyled+0xf11>
3d27:	83 7c 24 08 02       	cmp    DWORD PTR [rsp+0x8],0x2
3d2c:	0f 94 c0             	sete   al
3d2f:	22 44 24 0f          	and    al,BYTE PTR [rsp+0xf]
3d33:	0f 85 97 01 00 00    	jne    3ed0 <quotearg_buffer_restyled+0xb20>
3d39:	8b bc 24 9c 00 00 00 	mov    edi,DWORD PTR [rsp+0x9c]
3d40:	e8 bb db ff ff       	call   1900 <iswprint@plt>
3d45:	48 8b 7c 24 28       	mov    rdi,QWORD PTR [rsp+0x28]
3d4a:	85 c0                	test   eax,eax
3d4c:	b8 00 00 00 00       	mov    eax,0x0
3d51:	44 0f 44 e0          	cmove  r12d,eax
3d55:	4c 01 fb             	add    rbx,r15
3d58:	e8 93 db ff ff       	call   18f0 <mbsinit@plt>
3d5d:	85 c0                	test   eax,eax
3d5f:	74 82                	je     3ce3 <quotearg_buffer_restyled+0x933>
3d61:	44 89 e2             	mov    edx,r12d
3d64:	48 89 df             	mov    rdi,rbx
3d67:	44 0f b6 44 24 7d    	movzx  r8d,BYTE PTR [rsp+0x7d]
3d6d:	83 f2 01             	xor    edx,0x1
3d70:	0f b6 5c 24 7e       	movzx  ebx,BYTE PTR [rsp+0x7e]
3d75:	44 0f b6 54 24 7f    	movzx  r10d,BYTE PTR [rsp+0x7f]
3d7b:	22 54 24 0d          	and    dl,BYTE PTR [rsp+0xd]
3d7f:	4c 8b bc 24 80 00 00 	mov    r15,QWORD PTR [rsp+0x80]
3d86:	00
3d87:	4c 8b 74 24 40       	mov    r14,QWORD PTR [rsp+0x40]
3d8c:	4c 8b 6c 24 70       	mov    r13,QWORD PTR [rsp+0x70]
3d91:	4c 8b 5c 24 30       	mov    r11,QWORD PTR [rsp+0x30]
3d96:	48 83 ff 01          	cmp    rdi,0x1
3d9a:	0f 86 fb 05 00 00    	jbe    439b <quotearg_buffer_restyled+0xfeb>
3da0:	48 89 f9             	mov    rcx,rdi
3da3:	31 f6                	xor    esi,esi
3da5:	44 0f b6 4c 24 0f    	movzx  r9d,BYTE PTR [rsp+0xf]
3dab:	48 01 e9             	add    rcx,rbp
3dae:	48 8b 7c 24 10       	mov    rdi,QWORD PTR [rsp+0x10]
3db3:	e9 b6 00 00 00       	jmp    3e6e <quotearg_buffer_restyled+0xabe>
3db8:	0f 1f 84 00 00 00 00 	nop    DWORD PTR [rax+rax*1+0x0]
3dbf:	00
3dc0:	83 7c 24 08 02       	cmp    DWORD PTR [rsp+0x8],0x2
3dc5:	0f 94 c0             	sete   al
3dc8:	45 84 c9             	test   r9b,r9b
3dcb:	0f 85 af 04 00 00    	jne    4280 <quotearg_buffer_restyled+0xed0>
3dd1:	44 89 c6             	mov    esi,r8d
3dd4:	83 f6 01             	xor    esi,0x1
3dd7:	40 20 f0             	and    al,sil
3dda:	74 2f                	je     3e0b <quotearg_buffer_restyled+0xa5b>
3ddc:	4d 39 fd             	cmp    r13,r15
3ddf:	76 05                	jbe    3de6 <quotearg_buffer_restyled+0xa36>
3de1:	43 c6 04 3e 27       	mov    BYTE PTR [r14+r15*1],0x27
3de6:	49 8d 77 01          	lea    rsi,[r15+0x1]
3dea:	49 39 f5             	cmp    r13,rsi
3ded:	76 06                	jbe    3df5 <quotearg_buffer_restyled+0xa45>
3def:	43 c6 44 3e 01 24    	mov    BYTE PTR [r14+r15*1+0x1],0x24
3df5:	49 8d 77 02          	lea    rsi,[r15+0x2]
3df9:	49 39 f5             	cmp    r13,rsi
3dfc:	76 06                	jbe    3e04 <quotearg_buffer_restyled+0xa54>
3dfe:	43 c6 44 3e 02 27    	mov    BYTE PTR [r14+r15*1+0x2],0x27
3e04:	49 83 c7 03          	add    r15,0x3
3e08:	41 89 c0             	mov    r8d,eax
3e0b:	4d 39 fd             	cmp    r13,r15
3e0e:	76 05                	jbe    3e15 <quotearg_buffer_restyled+0xa65>
3e10:	43 c6 04 3e 5c       	mov    BYTE PTR [r14+r15*1],0x5c
3e15:	49 8d 47 01          	lea    rax,[r15+0x1]
3e19:	49 39 c5             	cmp    r13,rax
3e1c:	76 0d                	jbe    3e2b <quotearg_buffer_restyled+0xa7b>
3e1e:	89 d8                	mov    eax,ebx
3e20:	c0 e8 06             	shr    al,0x6
3e23:	83 c0 30             	add    eax,0x30
3e26:	43 88 44 3e 01       	mov    BYTE PTR [r14+r15*1+0x1],al
3e2b:	49 8d 47 02          	lea    rax,[r15+0x2]
3e2f:	49 39 c5             	cmp    r13,rax
3e32:	76 10                	jbe    3e44 <quotearg_buffer_restyled+0xa94>
3e34:	89 d8                	mov    eax,ebx
3e36:	c0 e8 03             	shr    al,0x3
3e39:	83 e0 07             	and    eax,0x7
3e3c:	83 c0 30             	add    eax,0x30
3e3f:	43 88 44 3e 02       	mov    BYTE PTR [r14+r15*1+0x2],al
3e44:	83 e3 07             	and    ebx,0x7
3e47:	48 83 c5 01          	add    rbp,0x1
3e4b:	49 83 c7 03          	add    r15,0x3
3e4f:	83 c3 30             	add    ebx,0x30
3e52:	48 39 cd             	cmp    rbp,rcx
3e55:	0f 83 e5 f7 ff ff    	jae    3640 <quotearg_buffer_restyled+0x290>
3e5b:	89 d6                	mov    esi,edx
3e5d:	4d 39 fd             	cmp    r13,r15
3e60:	76 04                	jbe    3e66 <quotearg_buffer_restyled+0xab6>
3e62:	43 88 1c 3e          	mov    BYTE PTR [r14+r15*1],bl
3e66:	0f b6 1c 2f          	movzx  ebx,BYTE PTR [rdi+rbp*1]
3e6a:	49 83 c7 01          	add    r15,0x1
3e6e:	84 d2                	test   dl,dl
3e70:	0f 85 4a ff ff ff    	jne    3dc0 <quotearg_buffer_restyled+0xa10>
3e76:	89 f0                	mov    eax,esi
3e78:	83 f0 01             	xor    eax,0x1
3e7b:	44 21 c0             	and    eax,r8d
3e7e:	45 84 d2             	test   r10b,r10b
3e81:	74 0e                	je     3e91 <quotearg_buffer_restyled+0xae1>
3e83:	4d 39 fd             	cmp    r13,r15
3e86:	76 05                	jbe    3e8d <quotearg_buffer_restyled+0xadd>
3e88:	43 c6 04 3e 5c       	mov    BYTE PTR [r14+r15*1],0x5c
3e8d:	49 83 c7 01          	add    r15,0x1
3e91:	48 83 c5 01          	add    rbp,0x1
3e95:	48 39 cd             	cmp    rbp,rcx
3e98:	0f 83 7e f7 ff ff    	jae    361c <quotearg_buffer_restyled+0x26c>
3e9e:	84 c0                	test   al,al
3ea0:	0f 84 f8 03 00 00    	je     429e <quotearg_buffer_restyled+0xeee>
3ea6:	4d 39 fd             	cmp    r13,r15
3ea9:	76 05                	jbe    3eb0 <quotearg_buffer_restyled+0xb00>
3eab:	43 c6 04 3e 27       	mov    BYTE PTR [r14+r15*1],0x27
3eb0:	49 8d 47 01          	lea    rax,[r15+0x1]
3eb4:	49 39 c5             	cmp    r13,rax
3eb7:	76 06                	jbe    3ebf <quotearg_buffer_restyled+0xb0f>
3eb9:	43 c6 44 3e 01 27    	mov    BYTE PTR [r14+r15*1+0x1],0x27
3ebf:	49 83 c7 02          	add    r15,0x2
3ec3:	45 31 d2             	xor    r10d,r10d
3ec6:	45 31 c0             	xor    r8d,r8d
3ec9:	eb 92                	jmp    3e5d <quotearg_buffer_restyled+0xaad>
3ecb:	0f 1f 44 00 00       	nop    DWORD PTR [rax+rax*1+0x0]
3ed0:	49 83 ff 01          	cmp    r15,0x1
3ed4:	0f 84 5f fe ff ff    	je     3d39 <quotearg_buffer_restyled+0x989>
3eda:	48 8b 7c 24 10       	mov    rdi,QWORD PTR [rsp+0x10]
3edf:	4a 8d 0c 3f          	lea    rcx,[rdi+r15*1]
3ee3:	4a 8d 54 37 01       	lea    rdx,[rdi+r14*1+0x1]
3ee8:	4e 8d 04 31          	lea    r8,[rcx+r14*1]
3eec:	eb 0f                	jmp    3efd <quotearg_buffer_restyled+0xb4d>
3eee:	66 90                	xchg   ax,ax
3ef0:	48 83 c2 01          	add    rdx,0x1
3ef4:	49 39 d0             	cmp    r8,rdx
3ef7:	0f 84 3c fe ff ff    	je     3d39 <quotearg_buffer_restyled+0x989>
3efd:	0f b6 0a             	movzx  ecx,BYTE PTR [rdx]
3f00:	83 e9 5b             	sub    ecx,0x5b
3f03:	80 f9 21             	cmp    cl,0x21
3f06:	77 e8                	ja     3ef0 <quotearg_buffer_restyled+0xb40>
3f08:	be 01 00 00 00       	mov    esi,0x1
3f0d:	48 d3 e6             	shl    rsi,cl
3f10:	48 89 f1             	mov    rcx,rsi
3f13:	48 be 2b 00 00 00 02 	movabs rsi,0x20000002b
3f1a:	00 00 00
3f1d:	48 85 f1             	test   rcx,rsi
3f20:	74 ce                	je     3ef0 <quotearg_buffer_restyled+0xb40>
3f22:	4c 8b 74 24 40       	mov    r14,QWORD PTR [rsp+0x40]
3f27:	4c 8b 6c 24 70       	mov    r13,QWORD PTR [rsp+0x70]
3f2c:	48 8b 6c 24 30       	mov    rbp,QWORD PTR [rsp+0x30]
3f31:	c7 44 24 08 02 00 00 	mov    DWORD PTR [rsp+0x8],0x2
3f38:	00
3f39:	80 7c 24 0d 00       	cmp    BYTE PTR [rsp+0xd],0x0
3f3e:	74 10                	je     3f50 <quotearg_buffer_restyled+0xba0>
3f40:	84 c0                	test   al,al
3f42:	b8 04 00 00 00       	mov    eax,0x4
3f47:	0f 44 44 24 08       	cmove  eax,DWORD PTR [rsp+0x8]
3f4c:	89 44 24 08          	mov    DWORD PTR [rsp+0x8],eax
3f50:	48 83 ec 08          	sub    rsp,0x8
3f54:	48 89 e9             	mov    rcx,rbp
3f57:	4c 89 ee             	mov    rsi,r13
3f5a:	ff 74 24 68          	push   QWORD PTR [rsp+0x68]
3f5e:	ff 74 24 78          	push   QWORD PTR [rsp+0x78]
3f62:	4c 89 f7             	mov    rdi,r14
3f65:	6a 00                	push   0x0
3f67:	44 8b 8c 24 98 00 00 	mov    r9d,DWORD PTR [rsp+0x98]
3f6e:	00
3f6f:	44 8b 44 24 28       	mov    r8d,DWORD PTR [rsp+0x28]
3f74:	48 8b 54 24 30       	mov    rdx,QWORD PTR [rsp+0x30]
3f79:	41 83 e1 fd          	and    r9d,0xfffffffd
3f7d:	e8 2e f4 ff ff       	call   33b0 <quotearg_buffer_restyled>
3f82:	48 83 c4 20          	add    rsp,0x20
3f86:	49 89 c7             	mov    r15,rax
3f89:	48 8b 9c 24 a8 00 00 	mov    rbx,QWORD PTR [rsp+0xa8]
3f90:	00
3f91:	64 48 33 1c 25 28 00 	xor    rbx,QWORD PTR fs:0x28
3f98:	00 00
3f9a:	4c 89 f8             	mov    rax,r15
3f9d:	0f 85 00 06 00 00    	jne    45a3 <quotearg_buffer_restyled+0x11f3>
3fa3:	48 81 c4 b8 00 00 00 	add    rsp,0xb8
3faa:	5b                   	pop    rbx
3fab:	5d                   	pop    rbp
3fac:	41 5c                	pop    r12
3fae:	41 5d                	pop    r13
3fb0:	41 5e                	pop    r14
3fb2:	41 5f                	pop    r15
3fb4:	c3                   	ret
3fb5:	0f 1f 00             	nop    DWORD PTR [rax]
3fb8:	4c 89 dd             	mov    rbp,r11
3fbb:	e9 79 ff ff ff       	jmp    3f39 <quotearg_buffer_restyled+0xb89>
3fc0:	4d 39 fd             	cmp    r13,r15
3fc3:	76 05                	jbe    3fca <quotearg_buffer_restyled+0xc1a>
3fc5:	43 c6 04 3e 27       	mov    BYTE PTR [r14+r15*1],0x27
3fca:	49 8d 47 01          	lea    rax,[r15+0x1]
3fce:	49 39 c5             	cmp    r13,rax
3fd1:	76 06                	jbe    3fd9 <quotearg_buffer_restyled+0xc29>
3fd3:	43 c6 44 3e 01 5c    	mov    BYTE PTR [r14+r15*1+0x1],0x5c
3fd9:	49 8d 47 02          	lea    rax,[r15+0x2]
3fdd:	49 39 c5             	cmp    r13,rax
3fe0:	0f 86 ec 05 00 00    	jbe    45d2 <quotearg_buffer_restyled+0x1222>
3fe6:	4c 89 ea             	mov    rdx,r13
3fe9:	43 c6 44 3e 02 27    	mov    BYTE PTR [r14+r15*1+0x2],0x27
3fef:	4c 8b 6c 24 50       	mov    r13,QWORD PTR [rsp+0x50]
3ff4:	e9 d9 fb ff ff       	jmp    3bd2 <quotearg_buffer_restyled+0x822>
3ff9:	44 89 e0             	mov    eax,r12d
3ffc:	bb 30 00 00 00       	mov    ebx,0x30
4001:	45 31 e4             	xor    r12d,r12d
4004:	e9 00 f6 ff ff       	jmp    3609 <quotearg_buffer_restyled+0x259>
4009:	43 c6 44 3e 02 27    	mov    BYTE PTR [r14+r15*1+0x2],0x27
400f:	e9 c5 f9 ff ff       	jmp    39d9 <quotearg_buffer_restyled+0x629>
4014:	85 db                	test   ebx,ebx
4016:	0f 85 27 f4 ff ff    	jne    3443 <quotearg_buffer_restyled+0x93>
401c:	c6 44 24 0d 01       	mov    BYTE PTR [rsp+0xd],0x1
4021:	4d 85 ed             	test   r13,r13
4024:	0f 85 90 05 00 00    	jne    45ba <quotearg_buffer_restyled+0x120a>
402a:	48 8d 05 94 27 00 00 	lea    rax,[rip+0x2794]        # 67c5 <power_letter+0x7d>
4031:	48 c7 44 24 50 00 00 	mov    QWORD PTR [rsp+0x50],0x0
4038:	00 00
403a:	c6 44 24 0e 01       	mov    BYTE PTR [rsp+0xe],0x1
403f:	c6 44 24 7c 00       	mov    BYTE PTR [rsp+0x7c],0x0
4044:	45 31 e4             	xor    r12d,r12d
4047:	c6 44 24 0f 00       	mov    BYTE PTR [rsp+0xf],0x0
404c:	48 c7 44 24 18 01 00 	mov    QWORD PTR [rsp+0x18],0x1
4053:	00 00
4055:	48 89 44 24 48       	mov    QWORD PTR [rsp+0x48],rax
405a:	41 bf 01 00 00 00    	mov    r15d,0x1
4060:	c7 44 24 08 02 00 00 	mov    DWORD PTR [rsp+0x8],0x2
4067:	00
4068:	e9 16 f4 ff ff       	jmp    3483 <quotearg_buffer_restyled+0xd3>
406d:	0f 1f 00             	nop    DWORD PTR [rax]
4070:	85 db                	test   ebx,ebx
4072:	0f 85 f5 03 00 00    	jne    446d <quotearg_buffer_restyled+0x10bd>
4078:	4d 85 ed             	test   r13,r13
407b:	0f 84 25 02 00 00    	je     42a6 <quotearg_buffer_restyled+0xef6>
4081:	41 c6 06 22          	mov    BYTE PTR [r14],0x22
4085:	c6 44 24 0e 01       	mov    BYTE PTR [rsp+0xe],0x1
408a:	45 31 e4             	xor    r12d,r12d
408d:	c6 44 24 7c 00       	mov    BYTE PTR [rsp+0x7c],0x0
4092:	48 c7 44 24 50 00 00 	mov    QWORD PTR [rsp+0x50],0x0
4099:	00 00
409b:	48 8d 05 21 27 00 00 	lea    rax,[rip+0x2721]        # 67c3 <power_letter+0x7b>
40a2:	c6 44 24 0f 00       	mov    BYTE PTR [rsp+0xf],0x0
40a7:	c6 44 24 0d 01       	mov    BYTE PTR [rsp+0xd],0x1
40ac:	48 c7 44 24 18 01 00 	mov    QWORD PTR [rsp+0x18],0x1
40b3:	00 00
40b5:	41 bf 01 00 00 00    	mov    r15d,0x1
40bb:	48 89 44 24 48       	mov    QWORD PTR [rsp+0x48],rax
40c0:	e9 be f3 ff ff       	jmp    3483 <quotearg_buffer_restyled+0xd3>
40c5:	48 8d 05 f7 26 00 00 	lea    rax,[rip+0x26f7]        # 67c3 <power_letter+0x7b>
40cc:	c6 44 24 0e 01       	mov    BYTE PTR [rsp+0xe],0x1
40d1:	c6 44 24 7c 00       	mov    BYTE PTR [rsp+0x7c],0x0
40d6:	45 31 e4             	xor    r12d,r12d
40d9:	48 c7 44 24 50 00 00 	mov    QWORD PTR [rsp+0x50],0x0
40e0:	00 00
40e2:	c6 44 24 0f 01       	mov    BYTE PTR [rsp+0xf],0x1
40e7:	c6 44 24 0d 01       	mov    BYTE PTR [rsp+0xd],0x1
40ec:	48 c7 44 24 18 01 00 	mov    QWORD PTR [rsp+0x18],0x1
40f3:	00 00
40f5:	45 31 ff             	xor    r15d,r15d
40f8:	48 89 44 24 48       	mov    QWORD PTR [rsp+0x48],rax
40fd:	c7 44 24 08 05 00 00 	mov    DWORD PTR [rsp+0x8],0x5
4104:	00
4105:	e9 79 f3 ff ff       	jmp    3483 <quotearg_buffer_restyled+0xd3>
410a:	c6 44 24 0e 01       	mov    BYTE PTR [rsp+0xe],0x1
410f:	c6 44 24 7c 00       	mov    BYTE PTR [rsp+0x7c],0x0
4114:	45 31 e4             	xor    r12d,r12d
4117:	48 c7 44 24 50 00 00 	mov    QWORD PTR [rsp+0x50],0x0
411e:	00 00
4120:	c6 44 24 0f 00       	mov    BYTE PTR [rsp+0xf],0x0
4125:	45 31 ff             	xor    r15d,r15d
4128:	c6 44 24 0d 01       	mov    BYTE PTR [rsp+0xd],0x1
412d:	48 c7 44 24 18 00 00 	mov    QWORD PTR [rsp+0x18],0x0
4134:	00 00
4136:	48 c7 44 24 48 00 00 	mov    QWORD PTR [rsp+0x48],0x0
413d:	00 00
413f:	e9 3f f3 ff ff       	jmp    3483 <quotearg_buffer_restyled+0xd3>
4144:	83 7c 24 08 0a       	cmp    DWORD PTR [rsp+0x8],0xa
4149:	74 56                	je     41a1 <quotearg_buffer_restyled+0xdf1>
414b:	48 8d 35 75 26 00 00 	lea    rsi,[rip+0x2675]        # 67c7 <power_letter+0x7f>
4152:	31 ff                	xor    edi,edi
4154:	ba 05 00 00 00       	mov    edx,0x5
4159:	e8 22 d5 ff ff       	call   1680 <dcgettext@plt>
415e:	48 89 c1             	mov    rcx,rax
4161:	48 89 44 24 68       	mov    QWORD PTR [rsp+0x68],rax
4166:	48 8d 05 5a 26 00 00 	lea    rax,[rip+0x265a]        # 67c7 <power_letter+0x7f>
416d:	48 39 c1             	cmp    rcx,rax
4170:	0f 84 98 03 00 00    	je     450e <quotearg_buffer_restyled+0x115e>
4176:	48 8d 35 48 26 00 00 	lea    rsi,[rip+0x2648]        # 67c5 <power_letter+0x7d>
417d:	31 ff                	xor    edi,edi
417f:	ba 05 00 00 00       	mov    edx,0x5
4184:	e8 f7 d4 ff ff       	call   1680 <dcgettext@plt>
4189:	48 89 c1             	mov    rcx,rax
418c:	48 89 44 24 60       	mov    QWORD PTR [rsp+0x60],rax
4191:	48 8d 05 2d 26 00 00 	lea    rax,[rip+0x262d]        # 67c5 <power_letter+0x7d>
4198:	48 39 c1             	cmp    rcx,rax
419b:	0f 84 83 03 00 00    	je     4524 <quotearg_buffer_restyled+0x1174>
41a1:	45 31 ff             	xor    r15d,r15d
41a4:	85 db                	test   ebx,ebx
41a6:	0f 84 c1 01 00 00    	je     436d <quotearg_buffer_restyled+0xfbd>
41ac:	85 db                	test   ebx,ebx
41ae:	48 8b 5c 24 60       	mov    rbx,QWORD PTR [rsp+0x60]
41b3:	0f 95 44 24 0f       	setne  BYTE PTR [rsp+0xf]
41b8:	45 31 e4             	xor    r12d,r12d
41bb:	48 89 df             	mov    rdi,rbx
41be:	e8 dd d4 ff ff       	call   16a0 <strlen@plt>
41c3:	48 89 5c 24 48       	mov    QWORD PTR [rsp+0x48],rbx
41c8:	48 89 44 24 18       	mov    QWORD PTR [rsp+0x18],rax
41cd:	c6 44 24 0e 01       	mov    BYTE PTR [rsp+0xe],0x1
41d2:	c6 44 24 7c 00       	mov    BYTE PTR [rsp+0x7c],0x0
41d7:	48 c7 44 24 50 00 00 	mov    QWORD PTR [rsp+0x50],0x0
41de:	00 00
41e0:	c6 44 24 0d 01       	mov    BYTE PTR [rsp+0xd],0x1
41e5:	e9 99 f2 ff ff       	jmp    3483 <quotearg_buffer_restyled+0xd3>
41ea:	c6 44 24 0e 01       	mov    BYTE PTR [rsp+0xe],0x1
41ef:	c6 44 24 7c 00       	mov    BYTE PTR [rsp+0x7c],0x0
41f4:	45 31 e4             	xor    r12d,r12d
41f7:	48 c7 44 24 50 00 00 	mov    QWORD PTR [rsp+0x50],0x0
41fe:	00 00
4200:	c6 44 24 0f 00       	mov    BYTE PTR [rsp+0xf],0x0
4205:	45 31 ff             	xor    r15d,r15d
4208:	c6 44 24 0d 00       	mov    BYTE PTR [rsp+0xd],0x0
420d:	48 c7 44 24 18 00 00 	mov    QWORD PTR [rsp+0x18],0x0
4214:	00 00
4216:	48 c7 44 24 48 00 00 	mov    QWORD PTR [rsp+0x48],0x0
421d:	00 00
421f:	e9 5f f2 ff ff       	jmp    3483 <quotearg_buffer_restyled+0xd3>
4224:	c6 44 24 0e 01       	mov    BYTE PTR [rsp+0xe],0x1
4229:	c6 44 24 7c 00       	mov    BYTE PTR [rsp+0x7c],0x0
422e:	45 31 e4             	xor    r12d,r12d
4231:	48 c7 44 24 50 00 00 	mov    QWORD PTR [rsp+0x50],0x0
4238:	00 00
423a:	c6 44 24 0f 01       	mov    BYTE PTR [rsp+0xf],0x1
423f:	c6 44 24 0d 01       	mov    BYTE PTR [rsp+0xd],0x1
4244:	e9 1a f2 ff ff       	jmp    3463 <quotearg_buffer_restyled+0xb3>
4249:	4d 39 fd             	cmp    r13,r15
424c:	76 05                	jbe    4253 <quotearg_buffer_restyled+0xea3>
424e:	43 c6 04 3e 30       	mov    BYTE PTR [r14+r15*1],0x30
4253:	48 8d 41 02          	lea    rax,[rcx+0x2]
4257:	49 39 c5             	cmp    r13,rax
425a:	76 06                	jbe    4262 <quotearg_buffer_restyled+0xeb2>
425c:	41 c6 44 0e 02 30    	mov    BYTE PTR [r14+rcx*1+0x2],0x30
4262:	44 89 e0             	mov    eax,r12d
4265:	4c 8d 79 03          	lea    r15,[rcx+0x3]
4269:	45 31 e4             	xor    r12d,r12d
426c:	bb 30 00 00 00       	mov    ebx,0x30
4271:	e9 62 f3 ff ff       	jmp    35d8 <quotearg_buffer_restyled+0x228>
4276:	66 2e 0f 1f 84 00 00 	nop    WORD PTR cs:[rax+rax*1+0x0]
427d:	00 00 00
4280:	0f b6 5c 24 0f       	movzx  ebx,BYTE PTR [rsp+0xf]
4285:	4c 89 dd             	mov    rbp,r11
4288:	88 5c 24 0d          	mov    BYTE PTR [rsp+0xd],bl
428c:	e9 a8 fc ff ff       	jmp    3f39 <quotearg_buffer_restyled+0xb89>
4291:	0f b6 54 24 0d       	movzx  edx,BYTE PTR [rsp+0xd]
4296:	45 31 e4             	xor    r12d,r12d
4299:	e9 02 fb ff ff       	jmp    3da0 <quotearg_buffer_restyled+0x9f0>
429e:	45 31 d2             	xor    r10d,r10d
42a1:	e9 b7 fb ff ff       	jmp    3e5d <quotearg_buffer_restyled+0xaad>
42a6:	48 c7 44 24 50 00 00 	mov    QWORD PTR [rsp+0x50],0x0
42ad:	00 00
42af:	c6 44 24 0e 01       	mov    BYTE PTR [rsp+0xe],0x1
42b4:	45 31 e4             	xor    r12d,r12d
42b7:	c6 44 24 7c 00       	mov    BYTE PTR [rsp+0x7c],0x0
42bc:	e9 da fd ff ff       	jmp    409b <quotearg_buffer_restyled+0xceb>
42c1:	4c 8b 5c 24 30       	mov    r11,QWORD PTR [rsp+0x30]
42c6:	4c 89 f6             	mov    rsi,r14
42c9:	4c 89 e9             	mov    rcx,r13
42cc:	48 89 d8             	mov    rax,rbx
42cf:	48 89 df             	mov    rdi,rbx
42d2:	44 0f b6 44 24 7d    	movzx  r8d,BYTE PTR [rsp+0x7d]
42d8:	0f b6 5c 24 7e       	movzx  ebx,BYTE PTR [rsp+0x7e]
42dd:	4c 8b 8c 24 88 00 00 	mov    r9,QWORD PTR [rsp+0x88]
42e4:	00
42e5:	4c 39 de             	cmp    rsi,r11
42e8:	44 0f b6 54 24 7f    	movzx  r10d,BYTE PTR [rsp+0x7f]
42ee:	4c 8b bc 24 80 00 00 	mov    r15,QWORD PTR [rsp+0x80]
42f5:	00
42f6:	4c 8b 74 24 40       	mov    r14,QWORD PTR [rsp+0x40]
42fb:	4c 8b 6c 24 70       	mov    r13,QWORD PTR [rsp+0x70]
4300:	73 26                	jae    4328 <quotearg_buffer_restyled+0xf78>
4302:	80 39 00             	cmp    BYTE PTR [rcx],0x0
4305:	75 10                	jne    4317 <quotearg_buffer_restyled+0xf67>
4307:	eb 1f                	jmp    4328 <quotearg_buffer_restyled+0xf78>
4309:	0f 1f 80 00 00 00 00 	nop    DWORD PTR [rax+0x0]
4310:	41 80 3c 01 00       	cmp    BYTE PTR [r9+rax*1],0x0
4315:	74 0e                	je     4325 <quotearg_buffer_restyled+0xf75>
4317:	48 83 c0 01          	add    rax,0x1
431b:	48 8d 54 05 00       	lea    rdx,[rbp+rax*1+0x0]
4320:	49 39 d3             	cmp    r11,rdx
4323:	77 eb                	ja     4310 <quotearg_buffer_restyled+0xf60>
4325:	48 89 c7             	mov    rdi,rax
4328:	0f b6 54 24 0d       	movzx  edx,BYTE PTR [rsp+0xd]
432d:	45 31 e4             	xor    r12d,r12d
4330:	e9 61 fa ff ff       	jmp    3d96 <quotearg_buffer_restyled+0x9e6>
4335:	48 89 df             	mov    rdi,rbx
4338:	44 0f b6 44 24 7d    	movzx  r8d,BYTE PTR [rsp+0x7d]
433e:	0f b6 5c 24 7e       	movzx  ebx,BYTE PTR [rsp+0x7e]
4343:	44 0f b6 54 24 7f    	movzx  r10d,BYTE PTR [rsp+0x7f]
4349:	4c 8b bc 24 80 00 00 	mov    r15,QWORD PTR [rsp+0x80]
4350:	00
4351:	45 31 e4             	xor    r12d,r12d
4354:	4c 8b 74 24 40       	mov    r14,QWORD PTR [rsp+0x40]
4359:	4c 8b 6c 24 70       	mov    r13,QWORD PTR [rsp+0x70]
435e:	4c 8b 5c 24 30       	mov    r11,QWORD PTR [rsp+0x30]
4363:	0f b6 54 24 0d       	movzx  edx,BYTE PTR [rsp+0xd]
4368:	e9 29 fa ff ff       	jmp    3d96 <quotearg_buffer_restyled+0x9e6>
436d:	48 8b 54 24 68       	mov    rdx,QWORD PTR [rsp+0x68]
4372:	0f b6 02             	movzx  eax,BYTE PTR [rdx]
4375:	84 c0                	test   al,al
4377:	0f 84 2f fe ff ff    	je     41ac <quotearg_buffer_restyled+0xdfc>
437d:	0f 1f 00             	nop    DWORD PTR [rax]
4380:	4d 39 fd             	cmp    r13,r15
4383:	76 04                	jbe    4389 <quotearg_buffer_restyled+0xfd9>
4385:	43 88 04 3e          	mov    BYTE PTR [r14+r15*1],al
4389:	49 83 c7 01          	add    r15,0x1
438d:	42 0f b6 04 3a       	movzx  eax,BYTE PTR [rdx+r15*1]
4392:	84 c0                	test   al,al
4394:	75 ea                	jne    4380 <quotearg_buffer_restyled+0xfd0>
4396:	e9 11 fe ff ff       	jmp    41ac <quotearg_buffer_restyled+0xdfc>
439b:	89 d0                	mov    eax,edx
439d:	e9 55 f5 ff ff       	jmp    38f7 <quotearg_buffer_restyled+0x547>
43a2:	0f b6 1c 08          	movzx  ebx,BYTE PTR [rax+rcx*1]
43a6:	80 fb 3e             	cmp    bl,0x3e
43a9:	0f 87 71 f8 ff ff    	ja     3c20 <quotearg_buffer_restyled+0x870>
43af:	48 b8 00 00 00 00 82 	movabs rax,0x7000a38200000000
43b6:	a3 00 70
43b9:	48 0f a3 d8          	bt     rax,rbx
43bd:	0f 83 5d f8 ff ff    	jae    3c20 <quotearg_buffer_restyled+0x870>
43c3:	80 7c 24 0f 00       	cmp    BYTE PTR [rsp+0xf],0x0
43c8:	0f 85 e4 01 00 00    	jne    45b2 <quotearg_buffer_restyled+0x1202>
43ce:	4d 39 fd             	cmp    r13,r15
43d1:	76 05                	jbe    43d8 <quotearg_buffer_restyled+0x1028>
43d3:	43 c6 04 3e 3f       	mov    BYTE PTR [r14+r15*1],0x3f
43d8:	49 8d 47 01          	lea    rax,[r15+0x1]
43dc:	49 39 c5             	cmp    r13,rax
43df:	76 06                	jbe    43e7 <quotearg_buffer_restyled+0x1037>
43e1:	43 c6 44 3e 01 22    	mov    BYTE PTR [r14+r15*1+0x1],0x22
43e7:	49 8d 47 02          	lea    rax,[r15+0x2]
43eb:	49 39 c5             	cmp    r13,rax
43ee:	76 06                	jbe    43f6 <quotearg_buffer_restyled+0x1046>
43f0:	43 c6 44 3e 02 22    	mov    BYTE PTR [r14+r15*1+0x2],0x22
43f6:	49 8d 47 03          	lea    rax,[r15+0x3]
43fa:	49 39 c5             	cmp    r13,rax
43fd:	76 06                	jbe    4405 <quotearg_buffer_restyled+0x1055>
43ff:	43 c6 44 3e 03 3f    	mov    BYTE PTR [r14+r15*1+0x3],0x3f
4405:	49 83 c7 04          	add    r15,0x4
4409:	31 d2                	xor    edx,edx
440b:	45 31 e4             	xor    r12d,r12d
440e:	31 c0                	xor    eax,eax
4410:	48 89 cd             	mov    rbp,rcx
4413:	e9 c0 f1 ff ff       	jmp    35d8 <quotearg_buffer_restyled+0x228>
4418:	85 db                	test   ebx,ebx
441a:	0f 84 88 01 00 00    	je     45a8 <quotearg_buffer_restyled+0x11f8>
4420:	48 8d 05 9e 23 00 00 	lea    rax,[rip+0x239e]        # 67c5 <power_letter+0x7d>
4427:	c6 44 24 0e 01       	mov    BYTE PTR [rsp+0xe],0x1
442c:	c6 44 24 7c 00       	mov    BYTE PTR [rsp+0x7c],0x0
4431:	45 31 e4             	xor    r12d,r12d
4434:	48 c7 44 24 50 00 00 	mov    QWORD PTR [rsp+0x50],0x0
443b:	00 00
443d:	c6 44 24 0f 01       	mov    BYTE PTR [rsp+0xf],0x1
4442:	c6 44 24 0d 00       	mov    BYTE PTR [rsp+0xd],0x0
4447:	48 c7 44 24 18 01 00 	mov    QWORD PTR [rsp+0x18],0x1
444e:	00 00
4450:	45 31 ff             	xor    r15d,r15d
4453:	48 89 44 24 48       	mov    QWORD PTR [rsp+0x48],rax
4458:	e9 26 f0 ff ff       	jmp    3483 <quotearg_buffer_restyled+0xd3>
445d:	0f 1f 00             	nop    DWORD PTR [rax]
4460:	4c 89 dd             	mov    rbp,r11
4463:	0f b6 44 24 0f       	movzx  eax,BYTE PTR [rsp+0xf]
4468:	e9 cc fa ff ff       	jmp    3f39 <quotearg_buffer_restyled+0xb89>
446d:	48 8d 05 4f 23 00 00 	lea    rax,[rip+0x234f]        # 67c3 <power_letter+0x7b>
4474:	c6 44 24 0e 01       	mov    BYTE PTR [rsp+0xe],0x1
4479:	c6 44 24 7c 00       	mov    BYTE PTR [rsp+0x7c],0x0
447e:	45 31 e4             	xor    r12d,r12d
4481:	48 c7 44 24 50 00 00 	mov    QWORD PTR [rsp+0x50],0x0
4488:	00 00
448a:	c6 44 24 0f 01       	mov    BYTE PTR [rsp+0xf],0x1
448f:	c6 44 24 0d 01       	mov    BYTE PTR [rsp+0xd],0x1
4494:	48 c7 44 24 18 01 00 	mov    QWORD PTR [rsp+0x18],0x1
449b:	00 00
449d:	45 31 ff             	xor    r15d,r15d
44a0:	48 89 44 24 48       	mov    QWORD PTR [rsp+0x48],rax
44a5:	e9 d9 ef ff ff       	jmp    3483 <quotearg_buffer_restyled+0xd3>
44aa:	89 d0                	mov    eax,edx
44ac:	48 8b 5c 24 48       	mov    rbx,QWORD PTR [rsp+0x48]
44b1:	48 85 db             	test   rbx,rbx
44b4:	74 2c                	je     44e2 <quotearg_buffer_restyled+0x1132>
44b6:	84 c0                	test   al,al
44b8:	74 28                	je     44e2 <quotearg_buffer_restyled+0x1132>
44ba:	0f b6 0b             	movzx  ecx,BYTE PTR [rbx]
44bd:	48 89 d8             	mov    rax,rbx
44c0:	84 c9                	test   cl,cl
44c2:	74 1e                	je     44e2 <quotearg_buffer_restyled+0x1132>
44c4:	4c 89 fa             	mov    rdx,r15
44c7:	4c 29 f8             	sub    rax,r15
44ca:	49 39 d5             	cmp    r13,rdx
44cd:	76 04                	jbe    44d3 <quotearg_buffer_restyled+0x1123>
44cf:	41 88 0c 16          	mov    BYTE PTR [r14+rdx*1],cl
44d3:	48 83 c2 01          	add    rdx,0x1
44d7:	0f b6 0c 10          	movzx  ecx,BYTE PTR [rax+rdx*1]
44db:	84 c9                	test   cl,cl
44dd:	75 eb                	jne    44ca <quotearg_buffer_restyled+0x111a>
44df:	49 89 d7             	mov    r15,rdx
44e2:	4d 39 fd             	cmp    r13,r15
44e5:	0f 86 9e fa ff ff    	jbe    3f89 <quotearg_buffer_restyled+0xbd9>
44eb:	43 c6 04 3e 00       	mov    BYTE PTR [r14+r15*1],0x0
44f0:	e9 94 fa ff ff       	jmp    3f89 <quotearg_buffer_restyled+0xbd9>
44f5:	83 7c 24 08 02       	cmp    DWORD PTR [rsp+0x8],0x2
44fa:	0f b6 5c 24 0f       	movzx  ebx,BYTE PTR [rsp+0xf]
44ff:	4c 89 dd             	mov    rbp,r11
4502:	0f 94 c0             	sete   al
4505:	88 5c 24 0d          	mov    BYTE PTR [rsp+0xd],bl
4509:	e9 2b fa ff ff       	jmp    3f39 <quotearg_buffer_restyled+0xb89>
450e:	8b 74 24 08          	mov    esi,DWORD PTR [rsp+0x8]
4512:	48 89 cf             	mov    rdi,rcx
4515:	e8 a6 ed ff ff       	call   32c0 <gettext_quote.part.1>
451a:	48 89 44 24 68       	mov    QWORD PTR [rsp+0x68],rax
451f:	e9 52 fc ff ff       	jmp    4176 <quotearg_buffer_restyled+0xdc6>
4524:	8b 74 24 08          	mov    esi,DWORD PTR [rsp+0x8]
4528:	48 89 cf             	mov    rdi,rcx
452b:	e8 90 ed ff ff       	call   32c0 <gettext_quote.part.1>
4530:	48 89 44 24 60       	mov    QWORD PTR [rsp+0x60],rax
4535:	e9 67 fc ff ff       	jmp    41a1 <quotearg_buffer_restyled+0xdf1>
453a:	0f b6 5c 24 0f       	movzx  ebx,BYTE PTR [rsp+0xf]
453f:	4c 89 dd             	mov    rbp,r11
4542:	89 d0                	mov    eax,edx
4544:	88 5c 24 0d          	mov    BYTE PTR [rsp+0xd],bl
4548:	e9 ec f9 ff ff       	jmp    3f39 <quotearg_buffer_restyled+0xb89>
454d:	48 83 ec 08          	sub    rsp,0x8
4551:	41 b8 05 00 00 00    	mov    r8d,0x5
4557:	4c 89 d9             	mov    rcx,r11
455a:	ff 74 24 68          	push   QWORD PTR [rsp+0x68]
455e:	ff 74 24 78          	push   QWORD PTR [rsp+0x78]
4562:	4c 89 f7             	mov    rdi,r14
4565:	ff 74 24 38          	push   QWORD PTR [rsp+0x38]
4569:	44 8b 8c 24 98 00 00 	mov    r9d,DWORD PTR [rsp+0x98]
4570:	00
4571:	48 8b 54 24 30       	mov    rdx,QWORD PTR [rsp+0x30]
4576:	48 8b 74 24 70       	mov    rsi,QWORD PTR [rsp+0x70]
457b:	e8 30 ee ff ff       	call   33b0 <quotearg_buffer_restyled>
4580:	48 83 c4 20          	add    rsp,0x20
4584:	49 89 c7             	mov    r15,rax
4587:	e9 fd f9 ff ff       	jmp    3f89 <quotearg_buffer_restyled+0xbd9>
458c:	0f b6 44 24 7c       	movzx  eax,BYTE PTR [rsp+0x7c]
4591:	e9 16 ff ff ff       	jmp    44ac <quotearg_buffer_restyled+0x10fc>
4596:	c7 44 24 08 02 00 00 	mov    DWORD PTR [rsp+0x8],0x2
459d:	00
459e:	e9 96 f9 ff ff       	jmp    3f39 <quotearg_buffer_restyled+0xb89>
45a3:	e8 08 d1 ff ff       	call   16b0 <__stack_chk_fail@plt>
45a8:	c6 44 24 0d 00       	mov    BYTE PTR [rsp+0xd],0x0
45ad:	e9 6f fa ff ff       	jmp    4021 <quotearg_buffer_restyled+0xc71>
45b2:	4c 89 dd             	mov    rbp,r11
45b5:	e9 96 f9 ff ff       	jmp    3f50 <quotearg_buffer_restyled+0xba0>
45ba:	c6 44 24 0e 01       	mov    BYTE PTR [rsp+0xe],0x1
45bf:	31 c0                	xor    eax,eax
45c1:	45 31 e4             	xor    r12d,r12d
45c4:	48 c7 44 24 50 00 00 	mov    QWORD PTR [rsp+0x50],0x0
45cb:	00 00
45cd:	e9 a2 f5 ff ff       	jmp    3b74 <quotearg_buffer_restyled+0x7c4>
45d2:	4c 89 ea             	mov    rdx,r13
45d5:	4c 8b 6c 24 50       	mov    r13,QWORD PTR [rsp+0x50]
45da:	e9 f3 f5 ff ff       	jmp    3bd2 <quotearg_buffer_restyled+0x822>
45df:	e8 0c d0 ff ff       	call   15f0 <abort@plt>
45e4:	66 90                	xchg   ax,ax
45e6:	66 2e 0f 1f 84 00 00 	nop    WORD PTR cs:[rax+rax*1+0x0]
45ed:	00 00 00

00000000000045f0 <quotearg_n_options>:
45f0:	41 57                	push   r15
45f2:	41 56                	push   r14
45f4:	4c 63 ff             	movsxd r15,edi
45f7:	41 55                	push   r13
45f9:	41 54                	push   r12
45fb:	49 89 d6             	mov    r14,rdx
45fe:	55                   	push   rbp
45ff:	53                   	push   rbx
4600:	48 89 cd             	mov    rbp,rcx
4603:	48 83 ec 28          	sub    rsp,0x28
4607:	48 89 74 24 08       	mov    QWORD PTR [rsp+0x8],rsi
460c:	e8 ef cf ff ff       	call   1600 <__errno_location@plt>
4611:	49 89 c5             	mov    r13,rax
4614:	8b 00                	mov    eax,DWORD PTR [rax]
4616:	45 85 ff             	test   r15d,r15d
4619:	48 8b 1d 40 4a 20 00 	mov    rbx,QWORD PTR [rip+0x204a40]        # 209060 <slotvec>
4620:	89 44 24 18          	mov    DWORD PTR [rsp+0x18],eax
4624:	0f 88 67 01 00 00    	js     4791 <quotearg_n_options+0x1a1>
462a:	44 39 3d 27 4a 20 00 	cmp    DWORD PTR [rip+0x204a27],r15d        # 209058 <nslots>
4631:	7f 62                	jg     4695 <quotearg_n_options+0xa5>
4633:	41 81 ff ff ff ff 7f 	cmp    r15d,0x7fffffff
463a:	0f 84 56 01 00 00    	je     4796 <quotearg_n_options+0x1a6>
4640:	45 8d 67 01          	lea    r12d,[r15+0x1]
4644:	48 8d 05 25 4a 20 00 	lea    rax,[rip+0x204a25]        # 209070 <slotvec0>
464b:	49 63 f4             	movsxd rsi,r12d
464e:	48 c1 e6 04          	shl    rsi,0x4
4652:	48 39 c3             	cmp    rbx,rax
4655:	0f 84 15 01 00 00    	je     4770 <quotearg_n_options+0x180>
465b:	48 89 df             	mov    rdi,rbx
465e:	e8 cd 0f 00 00       	call   5630 <xrealloc>
4663:	48 89 c3             	mov    rbx,rax
4666:	48 89 05 f3 49 20 00 	mov    QWORD PTR [rip+0x2049f3],rax        # 209060 <slotvec>
466d:	48 63 3d e4 49 20 00 	movsxd rdi,DWORD PTR [rip+0x2049e4]        # 209058 <nslots>
4674:	44 89 e2             	mov    edx,r12d
4677:	31 f6                	xor    esi,esi
4679:	29 fa                	sub    edx,edi
467b:	48 c1 e7 04          	shl    rdi,0x4
467f:	48 63 d2             	movsxd rdx,edx
4682:	48 01 df             	add    rdi,rbx
4685:	48 c1 e2 04          	shl    rdx,0x4
4689:	e8 b2 d0 ff ff       	call   1740 <memset@plt>
468e:	44 89 25 c3 49 20 00 	mov    DWORD PTR [rip+0x2049c3],r12d        # 209058 <nslots>
4695:	8b 45 04             	mov    eax,DWORD PTR [rbp+0x4]
4698:	49 c1 e7 04          	shl    r15,0x4
469c:	48 83 ec 08          	sub    rsp,0x8
46a0:	4c 01 fb             	add    rbx,r15
46a3:	4c 8d 7d 08          	lea    r15,[rbp+0x8]
46a7:	44 8b 45 00          	mov    r8d,DWORD PTR [rbp+0x0]
46ab:	4c 8b 1b             	mov    r11,QWORD PTR [rbx]
46ae:	4c 8b 63 08          	mov    r12,QWORD PTR [rbx+0x8]
46b2:	4c 89 f1             	mov    rcx,r14
46b5:	83 c8 01             	or     eax,0x1
46b8:	89 44 24 24          	mov    DWORD PTR [rsp+0x24],eax
46bc:	ff 75 30             	push   QWORD PTR [rbp+0x30]
46bf:	41 89 c1             	mov    r9d,eax
46c2:	ff 75 28             	push   QWORD PTR [rbp+0x28]
46c5:	41 57                	push   r15
46c7:	4c 89 de             	mov    rsi,r11
46ca:	48 8b 54 24 28       	mov    rdx,QWORD PTR [rsp+0x28]
46cf:	4c 89 e7             	mov    rdi,r12
46d2:	4c 89 5c 24 30       	mov    QWORD PTR [rsp+0x30],r11
46d7:	e8 d4 ec ff ff       	call   33b0 <quotearg_buffer_restyled>
46dc:	48 83 c4 20          	add    rsp,0x20
46e0:	4c 8b 5c 24 10       	mov    r11,QWORD PTR [rsp+0x10]
46e5:	49 39 c3             	cmp    r11,rax
46e8:	77 67                	ja     4751 <quotearg_n_options+0x161>
46ea:	48 8d 70 01          	lea    rsi,[rax+0x1]
46ee:	48 8d 05 2b 4a 20 00 	lea    rax,[rip+0x204a2b]        # 209120 <slot0>
46f5:	49 39 c4             	cmp    r12,rax
46f8:	48 89 33             	mov    QWORD PTR [rbx],rsi
46fb:	74 12                	je     470f <quotearg_n_options+0x11f>
46fd:	4c 89 e7             	mov    rdi,r12
4700:	48 89 74 24 10       	mov    QWORD PTR [rsp+0x10],rsi
4705:	e8 d6 ce ff ff       	call   15e0 <free@plt>
470a:	48 8b 74 24 10       	mov    rsi,QWORD PTR [rsp+0x10]
470f:	48 89 f7             	mov    rdi,rsi
4712:	48 89 74 24 10       	mov    QWORD PTR [rsp+0x10],rsi
4717:	e8 b4 0e 00 00       	call   55d0 <xmalloc>
471c:	48 83 ec 08          	sub    rsp,0x8
4720:	48 89 43 08          	mov    QWORD PTR [rbx+0x8],rax
4724:	44 8b 45 00          	mov    r8d,DWORD PTR [rbp+0x0]
4728:	ff 75 30             	push   QWORD PTR [rbp+0x30]
472b:	ff 75 28             	push   QWORD PTR [rbp+0x28]
472e:	4c 89 f1             	mov    rcx,r14
4731:	41 57                	push   r15
4733:	44 8b 4c 24 3c       	mov    r9d,DWORD PTR [rsp+0x3c]
4738:	48 89 c7             	mov    rdi,rax
473b:	48 8b 54 24 28       	mov    rdx,QWORD PTR [rsp+0x28]
4740:	48 8b 74 24 30       	mov    rsi,QWORD PTR [rsp+0x30]
4745:	49 89 c4             	mov    r12,rax
4748:	e8 63 ec ff ff       	call   33b0 <quotearg_buffer_restyled>
474d:	48 83 c4 20          	add    rsp,0x20
4751:	8b 44 24 18          	mov    eax,DWORD PTR [rsp+0x18]
4755:	41 89 45 00          	mov    DWORD PTR [r13+0x0],eax
4759:	48 83 c4 28          	add    rsp,0x28
475d:	4c 89 e0             	mov    rax,r12
4760:	5b                   	pop    rbx
4761:	5d                   	pop    rbp
4762:	41 5c                	pop    r12
4764:	41 5d                	pop    r13
4766:	41 5e                	pop    r14
4768:	41 5f                	pop    r15
476a:	c3                   	ret
476b:	0f 1f 44 00 00       	nop    DWORD PTR [rax+rax*1+0x0]
4770:	31 ff                	xor    edi,edi
4772:	e8 b9 0e 00 00       	call   5630 <xrealloc>
4777:	66 0f 6f 05 f1 48 20 	movdqa xmm0,XMMWORD PTR [rip+0x2048f1]        # 209070 <slotvec0>
477e:	00
477f:	48 89 c3             	mov    rbx,rax
4782:	48 89 05 d7 48 20 00 	mov    QWORD PTR [rip+0x2048d7],rax        # 209060 <slotvec>
4789:	0f 11 00             	movups XMMWORD PTR [rax],xmm0
478c:	e9 dc fe ff ff       	jmp    466d <quotearg_n_options+0x7d>
4791:	e8 5a ce ff ff       	call   15f0 <abort@plt>
4796:	e8 85 10 00 00       	call   5820 <xalloc_die>
479b:	0f 1f 44 00 00       	nop    DWORD PTR [rax+rax*1+0x0]

00000000000047a0 <clone_quoting_options>:
47a0:	41 54                	push   r12
47a2:	55                   	push   rbp
47a3:	53                   	push   rbx
47a4:	48 89 fb             	mov    rbx,rdi
47a7:	e8 54 ce ff ff       	call   1600 <__errno_location@plt>
47ac:	44 8b 20             	mov    r12d,DWORD PTR [rax]
47af:	48 89 c5             	mov    rbp,rax
47b2:	48 8d 05 67 4a 20 00 	lea    rax,[rip+0x204a67]        # 209220 <default_quoting_options>
47b9:	48 85 db             	test   rbx,rbx
47bc:	be 38 00 00 00       	mov    esi,0x38
47c1:	48 0f 44 d8          	cmove  rbx,rax
47c5:	48 89 df             	mov    rdi,rbx
47c8:	e8 03 10 00 00       	call   57d0 <xmemdup>
47cd:	44 89 65 00          	mov    DWORD PTR [rbp+0x0],r12d
47d1:	5b                   	pop    rbx
47d2:	5d                   	pop    rbp
47d3:	41 5c                	pop    r12
47d5:	c3                   	ret
47d6:	66 2e 0f 1f 84 00 00 	nop    WORD PTR cs:[rax+rax*1+0x0]
47dd:	00 00 00

00000000000047e0 <get_quoting_style>:
47e0:	48 8d 05 39 4a 20 00 	lea    rax,[rip+0x204a39]        # 209220 <default_quoting_options>
47e7:	48 85 ff             	test   rdi,rdi
47ea:	48 0f 44 f8          	cmove  rdi,rax
47ee:	8b 07                	mov    eax,DWORD PTR [rdi]
47f0:	c3                   	ret
47f1:	0f 1f 44 00 00       	nop    DWORD PTR [rax+rax*1+0x0]
47f6:	66 2e 0f 1f 84 00 00 	nop    WORD PTR cs:[rax+rax*1+0x0]
47fd:	00 00 00

0000000000004800 <set_quoting_style>:
4800:	48 8d 05 19 4a 20 00 	lea    rax,[rip+0x204a19]        # 209220 <default_quoting_options>
4807:	48 85 ff             	test   rdi,rdi
480a:	48 0f 44 f8          	cmove  rdi,rax
480e:	89 37                	mov    DWORD PTR [rdi],esi
4810:	c3                   	ret
4811:	0f 1f 44 00 00       	nop    DWORD PTR [rax+rax*1+0x0]
4816:	66 2e 0f 1f 84 00 00 	nop    WORD PTR cs:[rax+rax*1+0x0]
481d:	00 00 00

0000000000004820 <set_char_quoting>:
4820:	48 8d 05 f9 49 20 00 	lea    rax,[rip+0x2049f9]        # 209220 <default_quoting_options>
4827:	48 85 ff             	test   rdi,rdi
482a:	89 f1                	mov    ecx,esi
482c:	48 0f 44 f8          	cmove  rdi,rax
4830:	89 f0                	mov    eax,esi
4832:	83 e1 1f             	and    ecx,0x1f
4835:	c0 e8 05             	shr    al,0x5
4838:	0f b6 c0             	movzx  eax,al
483b:	48 8d 7c 87 08       	lea    rdi,[rdi+rax*4+0x8]
4840:	8b 37                	mov    esi,DWORD PTR [rdi]
4842:	89 f0                	mov    eax,esi
4844:	d3 e8                	shr    eax,cl
4846:	31 c2                	xor    edx,eax
4848:	83 e0 01             	and    eax,0x1
484b:	83 e2 01             	and    edx,0x1
484e:	d3 e2                	shl    edx,cl
4850:	31 f2                	xor    edx,esi
4852:	89 17                	mov    DWORD PTR [rdi],edx
4854:	c3                   	ret
4855:	90                   	nop
4856:	66 2e 0f 1f 84 00 00 	nop    WORD PTR cs:[rax+rax*1+0x0]
485d:	00 00 00

0000000000004860 <set_quoting_flags>:
4860:	48 8d 05 b9 49 20 00 	lea    rax,[rip+0x2049b9]        # 209220 <default_quoting_options>
4867:	48 85 ff             	test   rdi,rdi
486a:	48 0f 44 f8          	cmove  rdi,rax
486e:	8b 47 04             	mov    eax,DWORD PTR [rdi+0x4]
4871:	89 77 04             	mov    DWORD PTR [rdi+0x4],esi
4874:	c3                   	ret
4875:	90                   	nop
4876:	66 2e 0f 1f 84 00 00 	nop    WORD PTR cs:[rax+rax*1+0x0]
487d:	00 00 00

0000000000004880 <set_custom_quoting>:
4880:	48 8d 05 99 49 20 00 	lea    rax,[rip+0x204999]        # 209220 <default_quoting_options>
4887:	48 85 ff             	test   rdi,rdi
488a:	48 0f 44 f8          	cmove  rdi,rax
488e:	48 85 f6             	test   rsi,rsi
4891:	c7 07 0a 00 00 00    	mov    DWORD PTR [rdi],0xa
4897:	74 0e                	je     48a7 <set_custom_quoting+0x27>
4899:	48 85 d2             	test   rdx,rdx
489c:	74 09                	je     48a7 <set_custom_quoting+0x27>
489e:	48 89 77 28          	mov    QWORD PTR [rdi+0x28],rsi
48a2:	48 89 57 30          	mov    QWORD PTR [rdi+0x30],rdx
48a6:	c3                   	ret
48a7:	48 83 ec 08          	sub    rsp,0x8
48ab:	e8 40 cd ff ff       	call   15f0 <abort@plt>

00000000000048b0 <quotearg_buffer>:
48b0:	41 57                	push   r15
48b2:	41 56                	push   r14
48b4:	48 8d 05 65 49 20 00 	lea    rax,[rip+0x204965]        # 209220 <default_quoting_options>
48bb:	41 55                	push   r13
48bd:	41 54                	push   r12
48bf:	49 89 fd             	mov    r13,rdi
48c2:	55                   	push   rbp
48c3:	53                   	push   rbx
48c4:	4c 89 c3             	mov    rbx,r8
48c7:	49 89 f6             	mov    r14,rsi
48ca:	49 89 d7             	mov    r15,rdx
48cd:	48 83 ec 18          	sub    rsp,0x18
48d1:	4d 85 c0             	test   r8,r8
48d4:	48 0f 44 d8          	cmove  rbx,rax
48d8:	48 89 4c 24 08       	mov    QWORD PTR [rsp+0x8],rcx
48dd:	e8 1e cd ff ff       	call   1600 <__errno_location@plt>
48e2:	44 8b 20             	mov    r12d,DWORD PTR [rax]
48e5:	48 89 c5             	mov    rbp,rax
48e8:	48 8d 43 08          	lea    rax,[rbx+0x8]
48ec:	48 83 ec 08          	sub    rsp,0x8
48f0:	44 8b 4b 04          	mov    r9d,DWORD PTR [rbx+0x4]
48f4:	ff 73 30             	push   QWORD PTR [rbx+0x30]
48f7:	44 8b 03             	mov    r8d,DWORD PTR [rbx]
48fa:	ff 73 28             	push   QWORD PTR [rbx+0x28]
48fd:	4c 89 fa             	mov    rdx,r15
4900:	50                   	push   rax
4901:	48 8b 4c 24 28       	mov    rcx,QWORD PTR [rsp+0x28]
4906:	4c 89 f6             	mov    rsi,r14
4909:	4c 89 ef             	mov    rdi,r13
490c:	e8 9f ea ff ff       	call   33b0 <quotearg_buffer_restyled>
4911:	44 89 65 00          	mov    DWORD PTR [rbp+0x0],r12d
4915:	48 83 c4 38          	add    rsp,0x38
4919:	5b                   	pop    rbx
491a:	5d                   	pop    rbp
491b:	41 5c                	pop    r12
491d:	41 5d                	pop    r13
491f:	41 5e                	pop    r14
4921:	41 5f                	pop    r15
4923:	c3                   	ret
4924:	66 90                	xchg   ax,ax
4926:	66 2e 0f 1f 84 00 00 	nop    WORD PTR cs:[rax+rax*1+0x0]
492d:	00 00 00

0000000000004930 <quotearg_alloc_mem>:
4930:	41 57                	push   r15
4932:	41 56                	push   r14
4934:	48 8d 05 e5 48 20 00 	lea    rax,[rip+0x2048e5]        # 209220 <default_quoting_options>
493b:	41 55                	push   r13
493d:	41 54                	push   r12
493f:	49 89 d4             	mov    r12,rdx
4942:	55                   	push   rbp
4943:	53                   	push   rbx
4944:	48 89 cb             	mov    rbx,rcx
4947:	49 89 fe             	mov    r14,rdi
494a:	49 89 f7             	mov    r15,rsi
494d:	48 83 ec 38          	sub    rsp,0x38
4951:	48 85 c9             	test   rcx,rcx
4954:	48 0f 44 d8          	cmove  rbx,rax
4958:	31 ed                	xor    ebp,ebp
495a:	e8 a1 cc ff ff       	call   1600 <__errno_location@plt>
495f:	4d 85 e4             	test   r12,r12
4962:	49 89 c5             	mov    r13,rax
4965:	8b 00                	mov    eax,DWORD PTR [rax]
4967:	40 0f 94 c5          	sete   bpl
496b:	0b 6b 04             	or     ebp,DWORD PTR [rbx+0x4]
496e:	4c 8d 53 08          	lea    r10,[rbx+0x8]
4972:	48 83 ec 08          	sub    rsp,0x8
4976:	44 8b 03             	mov    r8d,DWORD PTR [rbx]
4979:	4c 89 f9             	mov    rcx,r15
497c:	89 44 24 14          	mov    DWORD PTR [rsp+0x14],eax
4980:	ff 73 30             	push   QWORD PTR [rbx+0x30]
4983:	4c 89 f2             	mov    rdx,r14
4986:	ff 73 28             	push   QWORD PTR [rbx+0x28]
4989:	41 52                	push   r10
498b:	31 f6                	xor    esi,esi
498d:	41 89 e9             	mov    r9d,ebp
4990:	31 ff                	xor    edi,edi
4992:	4c 89 54 24 40       	mov    QWORD PTR [rsp+0x40],r10
4997:	e8 14 ea ff ff       	call   33b0 <quotearg_buffer_restyled>
499c:	48 8d 70 01          	lea    rsi,[rax+0x1]
49a0:	48 89 44 24 48       	mov    QWORD PTR [rsp+0x48],rax
49a5:	48 83 c4 20          	add    rsp,0x20
49a9:	48 89 f7             	mov    rdi,rsi
49ac:	48 89 74 24 18       	mov    QWORD PTR [rsp+0x18],rsi
49b1:	e8 1a 0c 00 00       	call   55d0 <xmalloc>
49b6:	48 89 44 24 10       	mov    QWORD PTR [rsp+0x10],rax
49bb:	48 83 ec 08          	sub    rsp,0x8
49bf:	ff 73 30             	push   QWORD PTR [rbx+0x30]
49c2:	ff 73 28             	push   QWORD PTR [rbx+0x28]
49c5:	4c 8b 54 24 38       	mov    r10,QWORD PTR [rsp+0x38]
49ca:	41 89 e9             	mov    r9d,ebp
49cd:	44 8b 03             	mov    r8d,DWORD PTR [rbx]
49d0:	4c 89 f9             	mov    rcx,r15
49d3:	4c 89 f2             	mov    rdx,r14
49d6:	48 89 c7             	mov    rdi,rax
49d9:	41 52                	push   r10
49db:	48 8b 74 24 38       	mov    rsi,QWORD PTR [rsp+0x38]
49e0:	e8 cb e9 ff ff       	call   33b0 <quotearg_buffer_restyled>
49e5:	8b 44 24 2c          	mov    eax,DWORD PTR [rsp+0x2c]
49e9:	48 83 c4 20          	add    rsp,0x20
49ed:	4d 85 e4             	test   r12,r12
49f0:	41 89 45 00          	mov    DWORD PTR [r13+0x0],eax
49f4:	74 09                	je     49ff <quotearg_alloc_mem+0xcf>
49f6:	4c 8b 5c 24 28       	mov    r11,QWORD PTR [rsp+0x28]
49fb:	4d 89 1c 24          	mov    QWORD PTR [r12],r11
49ff:	48 8b 44 24 10       	mov    rax,QWORD PTR [rsp+0x10]
4a04:	48 83 c4 38          	add    rsp,0x38
4a08:	5b                   	pop    rbx
4a09:	5d                   	pop    rbp
4a0a:	41 5c                	pop    r12
4a0c:	41 5d                	pop    r13
4a0e:	41 5e                	pop    r14
4a10:	41 5f                	pop    r15
4a12:	c3                   	ret
4a13:	0f 1f 00             	nop    DWORD PTR [rax]
4a16:	66 2e 0f 1f 84 00 00 	nop    WORD PTR cs:[rax+rax*1+0x0]
4a1d:	00 00 00

0000000000004a20 <quotearg_alloc>:
4a20:	48 89 d1             	mov    rcx,rdx
4a23:	31 d2                	xor    edx,edx
4a25:	e9 06 ff ff ff       	jmp    4930 <quotearg_alloc_mem>
4a2a:	66 0f 1f 44 00 00    	nop    WORD PTR [rax+rax*1+0x0]

0000000000004a30 <quotearg_free>:
4a30:	8b 05 22 46 20 00    	mov    eax,DWORD PTR [rip+0x204622]        # 209058 <nslots>
4a36:	41 54                	push   r12
4a38:	4c 8b 25 21 46 20 00 	mov    r12,QWORD PTR [rip+0x204621]        # 209060 <slotvec>
4a3f:	55                   	push   rbp
4a40:	53                   	push   rbx
4a41:	83 f8 01             	cmp    eax,0x1
4a44:	7e 2b                	jle    4a71 <quotearg_free+0x41>
4a46:	83 e8 02             	sub    eax,0x2
4a49:	49 8d 5c 24 18       	lea    rbx,[r12+0x18]
4a4e:	48 c1 e0 04          	shl    rax,0x4
4a52:	49 8d 6c 04 28       	lea    rbp,[r12+rax*1+0x28]
4a57:	66 0f 1f 84 00 00 00 	nop    WORD PTR [rax+rax*1+0x0]
4a5e:	00 00
4a60:	48 8b 3b             	mov    rdi,QWORD PTR [rbx]
4a63:	48 83 c3 10          	add    rbx,0x10
4a67:	e8 74 cb ff ff       	call   15e0 <free@plt>
4a6c:	48 39 eb             	cmp    rbx,rbp
4a6f:	75 ef                	jne    4a60 <quotearg_free+0x30>
4a71:	49 8b 7c 24 08       	mov    rdi,QWORD PTR [r12+0x8]
4a76:	48 8d 1d a3 46 20 00 	lea    rbx,[rip+0x2046a3]        # 209120 <slot0>
4a7d:	48 39 df             	cmp    rdi,rbx
4a80:	74 17                	je     4a99 <quotearg_free+0x69>
4a82:	e8 59 cb ff ff       	call   15e0 <free@plt>
4a87:	48 c7 05 de 45 20 00 	mov    QWORD PTR [rip+0x2045de],0x100        # 209070 <slotvec0>
4a8e:	00 01 00 00
4a92:	48 89 1d df 45 20 00 	mov    QWORD PTR [rip+0x2045df],rbx        # 209078 <slotvec0+0x8>
4a99:	48 8d 1d d0 45 20 00 	lea    rbx,[rip+0x2045d0]        # 209070 <slotvec0>
4aa0:	49 39 dc             	cmp    r12,rbx
4aa3:	74 0f                	je     4ab4 <quotearg_free+0x84>
4aa5:	4c 89 e7             	mov    rdi,r12
4aa8:	e8 33 cb ff ff       	call   15e0 <free@plt>
4aad:	48 89 1d ac 45 20 00 	mov    QWORD PTR [rip+0x2045ac],rbx        # 209060 <slotvec>
4ab4:	5b                   	pop    rbx
4ab5:	c7 05 99 45 20 00 01 	mov    DWORD PTR [rip+0x204599],0x1        # 209058 <nslots>
4abc:	00 00 00
4abf:	5d                   	pop    rbp
4ac0:	41 5c                	pop    r12
4ac2:	c3                   	ret
4ac3:	0f 1f 00             	nop    DWORD PTR [rax]
4ac6:	66 2e 0f 1f 84 00 00 	nop    WORD PTR cs:[rax+rax*1+0x0]
4acd:	00 00 00

0000000000004ad0 <quotearg_n>:
4ad0:	48 8d 0d 49 47 20 00 	lea    rcx,[rip+0x204749]        # 209220 <default_quoting_options>
4ad7:	48 c7 c2 ff ff ff ff 	mov    rdx,0xffffffffffffffff
4ade:	e9 0d fb ff ff       	jmp    45f0 <quotearg_n_options>
4ae3:	0f 1f 00             	nop    DWORD PTR [rax]
4ae6:	66 2e 0f 1f 84 00 00 	nop    WORD PTR cs:[rax+rax*1+0x0]
4aed:	00 00 00

0000000000004af0 <quotearg_n_mem>:
4af0:	48 8d 0d 29 47 20 00 	lea    rcx,[rip+0x204729]        # 209220 <default_quoting_options>
4af7:	e9 f4 fa ff ff       	jmp    45f0 <quotearg_n_options>
4afc:	0f 1f 40 00          	nop    DWORD PTR [rax+0x0]

0000000000004b00 <quotearg>:
4b00:	48 8d 0d 19 47 20 00 	lea    rcx,[rip+0x204719]        # 209220 <default_quoting_options>
4b07:	48 89 fe             	mov    rsi,rdi
4b0a:	48 c7 c2 ff ff ff ff 	mov    rdx,0xffffffffffffffff
4b11:	31 ff                	xor    edi,edi
4b13:	e9 d8 fa ff ff       	jmp    45f0 <quotearg_n_options>
4b18:	0f 1f 84 00 00 00 00 	nop    DWORD PTR [rax+rax*1+0x0]
4b1f:	00

0000000000004b20 <quotearg_mem>:
4b20:	48 8d 0d f9 46 20 00 	lea    rcx,[rip+0x2046f9]        # 209220 <default_quoting_options>
4b27:	48 89 f2             	mov    rdx,rsi
4b2a:	48 89 fe             	mov    rsi,rdi
4b2d:	31 ff                	xor    edi,edi
4b2f:	e9 bc fa ff ff       	jmp    45f0 <quotearg_n_options>
4b34:	66 90                	xchg   ax,ax
4b36:	66 2e 0f 1f 84 00 00 	nop    WORD PTR cs:[rax+rax*1+0x0]
4b3d:	00 00 00

0000000000004b40 <quotearg_n_style>:
4b40:	48 83 ec 48          	sub    rsp,0x48
4b44:	48 89 d0             	mov    rax,rdx
4b47:	64 48 8b 14 25 28 00 	mov    rdx,QWORD PTR fs:0x28
4b4e:	00 00
4b50:	48 89 54 24 38       	mov    QWORD PTR [rsp+0x38],rdx
4b55:	31 d2                	xor    edx,edx
4b57:	83 fe 0a             	cmp    esi,0xa
4b5a:	74 68                	je     4bc4 <quotearg_n_style+0x84>
4b5c:	89 34 24             	mov    DWORD PTR [rsp],esi
4b5f:	48 89 e1             	mov    rcx,rsp
4b62:	48 c7 c2 ff ff ff ff 	mov    rdx,0xffffffffffffffff
4b69:	48 89 c6             	mov    rsi,rax
4b6c:	48 c7 44 24 04 00 00 	mov    QWORD PTR [rsp+0x4],0x0
4b73:	00 00
4b75:	48 c7 44 24 0c 00 00 	mov    QWORD PTR [rsp+0xc],0x0
4b7c:	00 00
4b7e:	48 c7 44 24 14 00 00 	mov    QWORD PTR [rsp+0x14],0x0
4b85:	00 00
4b87:	48 c7 44 24 1c 00 00 	mov    QWORD PTR [rsp+0x1c],0x0
4b8e:	00 00
4b90:	48 c7 44 24 24 00 00 	mov    QWORD PTR [rsp+0x24],0x0
4b97:	00 00
4b99:	48 c7 44 24 2c 00 00 	mov    QWORD PTR [rsp+0x2c],0x0
4ba0:	00 00
4ba2:	c7 44 24 34 00 00 00 	mov    DWORD PTR [rsp+0x34],0x0
4ba9:	00
4baa:	e8 41 fa ff ff       	call   45f0 <quotearg_n_options>
4baf:	48 8b 4c 24 38       	mov    rcx,QWORD PTR [rsp+0x38]
4bb4:	64 48 33 0c 25 28 00 	xor    rcx,QWORD PTR fs:0x28
4bbb:	00 00
4bbd:	75 0a                	jne    4bc9 <quotearg_n_style+0x89>
4bbf:	48 83 c4 48          	add    rsp,0x48
4bc3:	c3                   	ret
4bc4:	e8 27 ca ff ff       	call   15f0 <abort@plt>
4bc9:	e8 e2 ca ff ff       	call   16b0 <__stack_chk_fail@plt>
4bce:	66 90                	xchg   ax,ax

0000000000004bd0 <quotearg_n_style_mem>:
4bd0:	48 83 ec 48          	sub    rsp,0x48
4bd4:	48 89 d0             	mov    rax,rdx
4bd7:	48 89 ca             	mov    rdx,rcx
4bda:	64 48 8b 0c 25 28 00 	mov    rcx,QWORD PTR fs:0x28
4be1:	00 00
4be3:	48 89 4c 24 38       	mov    QWORD PTR [rsp+0x38],rcx
4be8:	31 c9                	xor    ecx,ecx
4bea:	83 fe 0a             	cmp    esi,0xa
4bed:	74 61                	je     4c50 <quotearg_n_style_mem+0x80>
4bef:	89 34 24             	mov    DWORD PTR [rsp],esi
4bf2:	48 89 e1             	mov    rcx,rsp
4bf5:	48 89 c6             	mov    rsi,rax
4bf8:	48 c7 44 24 04 00 00 	mov    QWORD PTR [rsp+0x4],0x0
4bff:	00 00
4c01:	48 c7 44 24 0c 00 00 	mov    QWORD PTR [rsp+0xc],0x0
4c08:	00 00
4c0a:	48 c7 44 24 14 00 00 	mov    QWORD PTR [rsp+0x14],0x0
4c11:	00 00
4c13:	48 c7 44 24 1c 00 00 	mov    QWORD PTR [rsp+0x1c],0x0
4c1a:	00 00
4c1c:	48 c7 44 24 24 00 00 	mov    QWORD PTR [rsp+0x24],0x0
4c23:	00 00
4c25:	48 c7 44 24 2c 00 00 	mov    QWORD PTR [rsp+0x2c],0x0
4c2c:	00 00
4c2e:	c7 44 24 34 00 00 00 	mov    DWORD PTR [rsp+0x34],0x0
4c35:	00
4c36:	e8 b5 f9 ff ff       	call   45f0 <quotearg_n_options>
4c3b:	48 8b 54 24 38       	mov    rdx,QWORD PTR [rsp+0x38]
4c40:	64 48 33 14 25 28 00 	xor    rdx,QWORD PTR fs:0x28
4c47:	00 00
4c49:	75 0a                	jne    4c55 <quotearg_n_style_mem+0x85>
4c4b:	48 83 c4 48          	add    rsp,0x48
4c4f:	c3                   	ret
4c50:	e8 9b c9 ff ff       	call   15f0 <abort@plt>
4c55:	e8 56 ca ff ff       	call   16b0 <__stack_chk_fail@plt>
4c5a:	66 0f 1f 44 00 00    	nop    WORD PTR [rax+rax*1+0x0]

0000000000004c60 <quotearg_style>:
4c60:	48 89 f2             	mov    rdx,rsi
4c63:	89 fe                	mov    esi,edi
4c65:	31 ff                	xor    edi,edi
4c67:	e9 d4 fe ff ff       	jmp    4b40 <quotearg_n_style>
4c6c:	0f 1f 40 00          	nop    DWORD PTR [rax+0x0]

0000000000004c70 <quotearg_style_mem>:
4c70:	48 89 d1             	mov    rcx,rdx
4c73:	48 89 f2             	mov    rdx,rsi
4c76:	89 fe                	mov    esi,edi
4c78:	31 ff                	xor    edi,edi
4c7a:	e9 51 ff ff ff       	jmp    4bd0 <quotearg_n_style_mem>
4c7f:	90                   	nop

0000000000004c80 <quotearg_char_mem>:
4c80:	48 83 ec 48          	sub    rsp,0x48
4c84:	89 d1                	mov    ecx,edx
4c86:	64 48 8b 04 25 28 00 	mov    rax,QWORD PTR fs:0x28
4c8d:	00 00
4c8f:	48 89 44 24 38       	mov    QWORD PTR [rsp+0x38],rax
4c94:	31 c0                	xor    eax,eax
4c96:	48 8b 05 b3 45 20 00 	mov    rax,QWORD PTR [rip+0x2045b3]        # 209250 <default_quoting_options+0x30>
4c9d:	49 89 e0             	mov    r8,rsp
4ca0:	83 e1 1f             	and    ecx,0x1f
4ca3:	66 0f 6f 05 75 45 20 	movdqa xmm0,XMMWORD PTR [rip+0x204575]        # 209220 <default_quoting_options>
4caa:	00
4cab:	48 89 44 24 30       	mov    QWORD PTR [rsp+0x30],rax
4cb0:	89 d0                	mov    eax,edx
4cb2:	0f 29 04 24          	movaps XMMWORD PTR [rsp],xmm0
4cb6:	c0 e8 05             	shr    al,0x5
4cb9:	0f b6 c0             	movzx  eax,al
4cbc:	4d 8d 4c 80 08       	lea    r9,[r8+rax*4+0x8]
4cc1:	66 0f 6f 05 67 45 20 	movdqa xmm0,XMMWORD PTR [rip+0x204567]        # 209230 <default_quoting_options+0x10>
4cc8:	00
4cc9:	0f 29 44 24 10       	movaps XMMWORD PTR [rsp+0x10],xmm0
4cce:	66 0f 6f 05 6a 45 20 	movdqa xmm0,XMMWORD PTR [rip+0x20456a]        # 209240 <default_quoting_options+0x20>
4cd5:	00
4cd6:	0f 29 44 24 20       	movaps XMMWORD PTR [rsp+0x20],xmm0
4cdb:	41 8b 11             	mov    edx,DWORD PTR [r9]
4cde:	89 d0                	mov    eax,edx
4ce0:	d3 e8                	shr    eax,cl
4ce2:	f7 d0                	not    eax
4ce4:	83 e0 01             	and    eax,0x1
4ce7:	d3 e0                	shl    eax,cl
4ce9:	4c 89 c1             	mov    rcx,r8
4cec:	31 d0                	xor    eax,edx
4cee:	48 89 f2             	mov    rdx,rsi
4cf1:	48 89 fe             	mov    rsi,rdi
4cf4:	41 89 01             	mov    DWORD PTR [r9],eax
4cf7:	31 ff                	xor    edi,edi
4cf9:	e8 f2 f8 ff ff       	call   45f0 <quotearg_n_options>
4cfe:	48 8b 74 24 38       	mov    rsi,QWORD PTR [rsp+0x38]
4d03:	64 48 33 34 25 28 00 	xor    rsi,QWORD PTR fs:0x28
4d0a:	00 00
4d0c:	75 05                	jne    4d13 <quotearg_char_mem+0x93>
4d0e:	48 83 c4 48          	add    rsp,0x48
4d12:	c3                   	ret
4d13:	e8 98 c9 ff ff       	call   16b0 <__stack_chk_fail@plt>
4d18:	0f 1f 84 00 00 00 00 	nop    DWORD PTR [rax+rax*1+0x0]
4d1f:	00

0000000000004d20 <quotearg_char>:
4d20:	40 0f be d6          	movsx  edx,sil
4d24:	48 c7 c6 ff ff ff ff 	mov    rsi,0xffffffffffffffff
4d2b:	e9 50 ff ff ff       	jmp    4c80 <quotearg_char_mem>

0000000000004d30 <quotearg_colon>:
4d30:	ba 3a 00 00 00       	mov    edx,0x3a
4d35:	48 c7 c6 ff ff ff ff 	mov    rsi,0xffffffffffffffff
4d3c:	e9 3f ff ff ff       	jmp    4c80 <quotearg_char_mem>
4d41:	0f 1f 44 00 00       	nop    DWORD PTR [rax+rax*1+0x0]
4d46:	66 2e 0f 1f 84 00 00 	nop    WORD PTR cs:[rax+rax*1+0x0]
4d4d:	00 00 00

0000000000004d50 <quotearg_colon_mem>:
4d50:	ba 3a 00 00 00       	mov    edx,0x3a
4d55:	e9 26 ff ff ff       	jmp    4c80 <quotearg_char_mem>
4d5a:	66 0f 1f 44 00 00    	nop    WORD PTR [rax+rax*1+0x0]

0000000000004d60 <quotearg_n_style_colon>:
4d60:	48 83 ec 48          	sub    rsp,0x48
4d64:	48 89 d0             	mov    rax,rdx
4d67:	64 48 8b 14 25 28 00 	mov    rdx,QWORD PTR fs:0x28
4d6e:	00 00
4d70:	48 89 54 24 38       	mov    QWORD PTR [rsp+0x38],rdx
4d75:	31 d2                	xor    edx,edx
4d77:	83 fe 0a             	cmp    esi,0xa
4d7a:	74 68                	je     4de4 <quotearg_n_style_colon+0x84>
4d7c:	89 34 24             	mov    DWORD PTR [rsp],esi
4d7f:	48 89 e1             	mov    rcx,rsp
4d82:	48 c7 c2 ff ff ff ff 	mov    rdx,0xffffffffffffffff
4d89:	48 89 c6             	mov    rsi,rax
4d8c:	48 c7 44 24 04 00 00 	mov    QWORD PTR [rsp+0x4],0x0
4d93:	00 00
4d95:	48 c7 44 24 0c 00 00 	mov    QWORD PTR [rsp+0xc],0x4000000
4d9c:	00 04
4d9e:	48 c7 44 24 14 00 00 	mov    QWORD PTR [rsp+0x14],0x0
4da5:	00 00
4da7:	48 c7 44 24 1c 00 00 	mov    QWORD PTR [rsp+0x1c],0x0
4dae:	00 00
4db0:	48 c7 44 24 24 00 00 	mov    QWORD PTR [rsp+0x24],0x0
4db7:	00 00
4db9:	48 c7 44 24 2c 00 00 	mov    QWORD PTR [rsp+0x2c],0x0
4dc0:	00 00
4dc2:	c7 44 24 34 00 00 00 	mov    DWORD PTR [rsp+0x34],0x0
4dc9:	00
4dca:	e8 21 f8 ff ff       	call   45f0 <quotearg_n_options>
4dcf:	48 8b 4c 24 38       	mov    rcx,QWORD PTR [rsp+0x38]
4dd4:	64 48 33 0c 25 28 00 	xor    rcx,QWORD PTR fs:0x28
4ddb:	00 00
4ddd:	75 0a                	jne    4de9 <quotearg_n_style_colon+0x89>
4ddf:	48 83 c4 48          	add    rsp,0x48
4de3:	c3                   	ret
4de4:	e8 07 c8 ff ff       	call   15f0 <abort@plt>
4de9:	e8 c2 c8 ff ff       	call   16b0 <__stack_chk_fail@plt>
4dee:	66 90                	xchg   ax,ax

0000000000004df0 <quotearg_n_custom_mem>:
4df0:	48 83 ec 48          	sub    rsp,0x48
4df4:	49 89 c9             	mov    r9,rcx
4df7:	48 8b 0d 52 44 20 00 	mov    rcx,QWORD PTR [rip+0x204452]        # 209250 <default_quoting_options+0x30>
4dfe:	66 0f 6f 05 1a 44 20 	movdqa xmm0,XMMWORD PTR [rip+0x20441a]        # 209220 <default_quoting_options>
4e05:	00
4e06:	64 48 8b 04 25 28 00 	mov    rax,QWORD PTR fs:0x28
4e0d:	00 00
4e0f:	48 89 44 24 38       	mov    QWORD PTR [rsp+0x38],rax
4e14:	31 c0                	xor    eax,eax
4e16:	0f 29 04 24          	movaps XMMWORD PTR [rsp],xmm0
4e1a:	48 85 f6             	test   rsi,rsi
4e1d:	48 89 4c 24 30       	mov    QWORD PTR [rsp+0x30],rcx
4e22:	c7 04 24 0a 00 00 00 	mov    DWORD PTR [rsp],0xa
4e29:	66 0f 6f 05 ff 43 20 	movdqa xmm0,XMMWORD PTR [rip+0x2043ff]        # 209230 <default_quoting_options+0x10>
4e30:	00
4e31:	0f 29 44 24 10       	movaps XMMWORD PTR [rsp+0x10],xmm0
4e36:	66 0f 6f 05 02 44 20 	movdqa xmm0,XMMWORD PTR [rip+0x204402]        # 209240 <default_quoting_options+0x20>
4e3d:	00
4e3e:	0f 29 44 24 20       	movaps XMMWORD PTR [rsp+0x20],xmm0
4e43:	74 32                	je     4e77 <quotearg_n_custom_mem+0x87>
4e45:	48 85 d2             	test   rdx,rdx
4e48:	74 2d                	je     4e77 <quotearg_n_custom_mem+0x87>
4e4a:	48 89 74 24 28       	mov    QWORD PTR [rsp+0x28],rsi
4e4f:	48 89 54 24 30       	mov    QWORD PTR [rsp+0x30],rdx
4e54:	48 89 e1             	mov    rcx,rsp
4e57:	4c 89 c2             	mov    rdx,r8
4e5a:	4c 89 ce             	mov    rsi,r9
4e5d:	e8 8e f7 ff ff       	call   45f0 <quotearg_n_options>
4e62:	48 8b 7c 24 38       	mov    rdi,QWORD PTR [rsp+0x38]
4e67:	64 48 33 3c 25 28 00 	xor    rdi,QWORD PTR fs:0x28
4e6e:	00 00
4e70:	75 0a                	jne    4e7c <quotearg_n_custom_mem+0x8c>
4e72:	48 83 c4 48          	add    rsp,0x48
4e76:	c3                   	ret
4e77:	e8 74 c7 ff ff       	call   15f0 <abort@plt>
4e7c:	e8 2f c8 ff ff       	call   16b0 <__stack_chk_fail@plt>
4e81:	0f 1f 44 00 00       	nop    DWORD PTR [rax+rax*1+0x0]
4e86:	66 2e 0f 1f 84 00 00 	nop    WORD PTR cs:[rax+rax*1+0x0]
4e8d:	00 00 00

0000000000004e90 <quotearg_n_custom>:
4e90:	49 c7 c0 ff ff ff ff 	mov    r8,0xffffffffffffffff
4e97:	e9 54 ff ff ff       	jmp    4df0 <quotearg_n_custom_mem>
4e9c:	0f 1f 40 00          	nop    DWORD PTR [rax+0x0]

0000000000004ea0 <quotearg_custom>:
4ea0:	48 89 d1             	mov    rcx,rdx
4ea3:	49 c7 c0 ff ff ff ff 	mov    r8,0xffffffffffffffff
4eaa:	48 89 f2             	mov    rdx,rsi
4ead:	48 89 fe             	mov    rsi,rdi
4eb0:	31 ff                	xor    edi,edi
4eb2:	e9 39 ff ff ff       	jmp    4df0 <quotearg_n_custom_mem>
4eb7:	66 0f 1f 84 00 00 00 	nop    WORD PTR [rax+rax*1+0x0]
4ebe:	00 00

0000000000004ec0 <quotearg_custom_mem>:
4ec0:	49 89 c8             	mov    r8,rcx
4ec3:	48 89 d1             	mov    rcx,rdx
4ec6:	48 89 f2             	mov    rdx,rsi
4ec9:	48 89 fe             	mov    rsi,rdi
4ecc:	31 ff                	xor    edi,edi
4ece:	e9 1d ff ff ff       	jmp    4df0 <quotearg_n_custom_mem>
4ed3:	0f 1f 00             	nop    DWORD PTR [rax]
4ed6:	66 2e 0f 1f 84 00 00 	nop    WORD PTR cs:[rax+rax*1+0x0]
4edd:	00 00 00

0000000000004ee0 <quote_n_mem>:
4ee0:	48 8d 0d 39 41 20 00 	lea    rcx,[rip+0x204139]        # 209020 <quote_quoting_options>
4ee7:	e9 04 f7 ff ff       	jmp    45f0 <quotearg_n_options>
4eec:	0f 1f 40 00          	nop    DWORD PTR [rax+0x0]

0000000000004ef0 <quote_mem>:
4ef0:	48 8d 0d 29 41 20 00 	lea    rcx,[rip+0x204129]        # 209020 <quote_quoting_options>
4ef7:	48 89 f2             	mov    rdx,rsi
4efa:	48 89 fe             	mov    rsi,rdi
4efd:	31 ff                	xor    edi,edi
4eff:	e9 ec f6 ff ff       	jmp    45f0 <quotearg_n_options>
4f04:	66 90                	xchg   ax,ax
4f06:	66 2e 0f 1f 84 00 00 	nop    WORD PTR cs:[rax+rax*1+0x0]
4f0d:	00 00 00

0000000000004f10 <quote_n>:
4f10:	48 8d 0d 09 41 20 00 	lea    rcx,[rip+0x204109]        # 209020 <quote_quoting_options>
4f17:	48 c7 c2 ff ff ff ff 	mov    rdx,0xffffffffffffffff
4f1e:	e9 cd f6 ff ff       	jmp    45f0 <quotearg_n_options>
4f23:	0f 1f 00             	nop    DWORD PTR [rax]
4f26:	66 2e 0f 1f 84 00 00 	nop    WORD PTR cs:[rax+rax*1+0x0]
4f2d:	00 00 00

0000000000004f30 <quote>:
4f30:	48 8d 0d e9 40 20 00 	lea    rcx,[rip+0x2040e9]        # 209020 <quote_quoting_options>
4f37:	48 89 fe             	mov    rsi,rdi
4f3a:	48 c7 c2 ff ff ff ff 	mov    rdx,0xffffffffffffffff
4f41:	31 ff                	xor    edi,edi
4f43:	e9 a8 f6 ff ff       	jmp    45f0 <quotearg_n_options>
4f48:	0f 1f 84 00 00 00 00 	nop    DWORD PTR [rax+rax*1+0x0]
4f4f:	00

0000000000004f50 <safe_read>:
4f50:	41 55                	push   r13
4f52:	41 54                	push   r12
4f54:	41 89 fd             	mov    r13d,edi
4f57:	55                   	push   rbp
4f58:	53                   	push   rbx
4f59:	49 89 f4             	mov    r12,rsi
4f5c:	48 89 d3             	mov    rbx,rdx
4f5f:	48 83 ec 08          	sub    rsp,0x8
4f63:	0f 1f 44 00 00       	nop    DWORD PTR [rax+rax*1+0x0]
4f68:	48 89 da             	mov    rdx,rbx
4f6b:	4c 89 e6             	mov    rsi,r12
4f6e:	44 89 ef             	mov    edi,r13d
4f71:	e8 fa c7 ff ff       	call   1770 <read@plt>
4f76:	48 85 c0             	test   rax,rax
4f79:	48 89 c5             	mov    rbp,rax
4f7c:	79 22                	jns    4fa0 <safe_read+0x50>
4f7e:	e8 7d c6 ff ff       	call   1600 <__errno_location@plt>
4f83:	8b 00                	mov    eax,DWORD PTR [rax]
4f85:	83 f8 04             	cmp    eax,0x4
4f88:	74 de                	je     4f68 <safe_read+0x18>
4f8a:	48 81 fb 00 00 f0 7f 	cmp    rbx,0x7ff00000
4f91:	76 0d                	jbe    4fa0 <safe_read+0x50>
4f93:	83 f8 16             	cmp    eax,0x16
4f96:	75 08                	jne    4fa0 <safe_read+0x50>
4f98:	bb 00 00 f0 7f       	mov    ebx,0x7ff00000
4f9d:	eb c9                	jmp    4f68 <safe_read+0x18>
4f9f:	90                   	nop
4fa0:	48 83 c4 08          	add    rsp,0x8
4fa4:	48 89 e8             	mov    rax,rbp
4fa7:	5b                   	pop    rbx
4fa8:	5d                   	pop    rbp
4fa9:	41 5c                	pop    r12
4fab:	41 5d                	pop    r13
4fad:	c3                   	ret
4fae:	66 90                	xchg   ax,ax

0000000000004fb0 <version_etc_arn>:
4fb0:	41 57                	push   r15
4fb2:	41 56                	push   r14
4fb4:	41 55                	push   r13
4fb6:	41 54                	push   r12
4fb8:	4d 89 cc             	mov    r12,r9
4fbb:	55                   	push   rbp
4fbc:	53                   	push   rbx
4fbd:	48 89 fd             	mov    rbp,rdi
4fc0:	4c 89 c3             	mov    rbx,r8
4fc3:	48 83 ec 28          	sub    rsp,0x28
4fc7:	48 85 f6             	test   rsi,rsi
4fca:	0f 84 18 01 00 00    	je     50e8 <version_etc_arn+0x138>
4fd0:	49 89 d0             	mov    r8,rdx
4fd3:	48 8d 15 ae 1c 00 00 	lea    rdx,[rip+0x1cae]        # 6c88 <quoting_style_vals+0x28>
4fda:	49 89 c9             	mov    r9,rcx
4fdd:	31 c0                	xor    eax,eax
4fdf:	48 89 f1             	mov    rcx,rsi
4fe2:	be 01 00 00 00       	mov    esi,0x1
4fe7:	e8 f4 c8 ff ff       	call   18e0 <__fprintf_chk@plt>
4fec:	48 8d 35 a8 1c 00 00 	lea    rsi,[rip+0x1ca8]        # 6c9b <quoting_style_vals+0x3b>
4ff3:	31 ff                	xor    edi,edi
4ff5:	ba 05 00 00 00       	mov    edx,0x5
4ffa:	e8 81 c6 ff ff       	call   1680 <dcgettext@plt>
4fff:	48 8d 15 ba 1f 00 00 	lea    rdx,[rip+0x1fba]        # 6fc0 <version_etc_copyright>
5006:	48 89 c1             	mov    rcx,rax
5009:	41 b8 e3 07 00 00    	mov    r8d,0x7e3
500f:	be 01 00 00 00       	mov    esi,0x1
5014:	48 89 ef             	mov    rdi,rbp
5017:	31 c0                	xor    eax,eax
5019:	e8 c2 c8 ff ff       	call   18e0 <__fprintf_chk@plt>
501e:	48 8d 35 03 1d 00 00 	lea    rsi,[rip+0x1d03]        # 6d28 <quoting_style_vals+0xc8>
5025:	31 ff                	xor    edi,edi
5027:	ba 05 00 00 00       	mov    edx,0x5
502c:	e8 4f c6 ff ff       	call   1680 <dcgettext@plt>
5031:	48 89 ee             	mov    rsi,rbp
5034:	48 89 c7             	mov    rdi,rax
5037:	e8 54 c7 ff ff       	call   1790 <fputs_unlocked@plt>
503c:	49 83 fc 09          	cmp    r12,0x9
5040:	0f 87 3a 03 00 00    	ja     5380 <version_etc_arn+0x3d0>
5046:	48 8d 15 37 1f 00 00 	lea    rdx,[rip+0x1f37]        # 6f84 <quoting_style_vals+0x324>
504d:	4a 63 04 a2          	movsxd rax,DWORD PTR [rdx+r12*4]
5051:	48 01 d0             	add    rax,rdx
5054:	ff e0                	jmp    rax
5056:	66 2e 0f 1f 84 00 00 	nop    WORD PTR cs:[rax+rax*1+0x0]
505d:	00 00 00
5060:	4c 8b 4b 38          	mov    r9,QWORD PTR [rbx+0x38]
5064:	48 8b 43 10          	mov    rax,QWORD PTR [rbx+0x10]
5068:	48 8d 35 29 1e 00 00 	lea    rsi,[rip+0x1e29]        # 6e98 <quoting_style_vals+0x238>
506f:	4c 8b 43 08          	mov    r8,QWORD PTR [rbx+0x8]
5073:	ba 05 00 00 00       	mov    edx,0x5
5078:	31 ff                	xor    edi,edi
507a:	4c 8b 6b 30          	mov    r13,QWORD PTR [rbx+0x30]
507e:	4c 8b 63 28          	mov    r12,QWORD PTR [rbx+0x28]
5082:	4c 89 4c 24 10       	mov    QWORD PTR [rsp+0x10],r9
5087:	4c 8b 7b 20          	mov    r15,QWORD PTR [rbx+0x20]
508b:	4c 8b 73 18          	mov    r14,QWORD PTR [rbx+0x18]
508f:	48 89 04 24          	mov    QWORD PTR [rsp],rax
5093:	4c 89 44 24 08       	mov    QWORD PTR [rsp+0x8],r8
5098:	48 8b 1b             	mov    rbx,QWORD PTR [rbx]
509b:	e8 e0 c5 ff ff       	call   1680 <dcgettext@plt>
50a0:	48 83 ec 08          	sub    rsp,0x8
50a4:	4c 8b 4c 24 18       	mov    r9,QWORD PTR [rsp+0x18]
50a9:	48 89 c2             	mov    rdx,rax
50ac:	48 89 d9             	mov    rcx,rbx
50af:	be 01 00 00 00       	mov    esi,0x1
50b4:	48 89 ef             	mov    rdi,rbp
50b7:	31 c0                	xor    eax,eax
50b9:	41 51                	push   r9
50bb:	41 55                	push   r13
50bd:	41 54                	push   r12
50bf:	41 57                	push   r15
50c1:	41 56                	push   r14
50c3:	4c 8b 4c 24 30       	mov    r9,QWORD PTR [rsp+0x30]
50c8:	4c 8b 44 24 38       	mov    r8,QWORD PTR [rsp+0x38]
50cd:	e8 0e c8 ff ff       	call   18e0 <__fprintf_chk@plt>
50d2:	48 83 c4 30          	add    rsp,0x30
50d6:	48 83 c4 28          	add    rsp,0x28
50da:	5b                   	pop    rbx
50db:	5d                   	pop    rbp
50dc:	41 5c                	pop    r12
50de:	41 5d                	pop    r13
50e0:	41 5e                	pop    r14
50e2:	41 5f                	pop    r15
50e4:	c3                   	ret
50e5:	0f 1f 00             	nop    DWORD PTR [rax]
50e8:	49 89 c8             	mov    r8,rcx
50eb:	48 89 d1             	mov    rcx,rdx
50ee:	48 8d 15 9f 1b 00 00 	lea    rdx,[rip+0x1b9f]        # 6c94 <quoting_style_vals+0x34>
50f5:	be 01 00 00 00       	mov    esi,0x1
50fa:	31 c0                	xor    eax,eax
50fc:	e8 df c7 ff ff       	call   18e0 <__fprintf_chk@plt>
5101:	e9 e6 fe ff ff       	jmp    4fec <version_etc_arn+0x3c>
5106:	66 2e 0f 1f 84 00 00 	nop    WORD PTR cs:[rax+rax*1+0x0]
510d:	00 00 00
5110:	4c 8b 53 40          	mov    r10,QWORD PTR [rbx+0x40]
5114:	4c 8b 4b 38          	mov    r9,QWORD PTR [rbx+0x38]
5118:	48 8d 35 a9 1d 00 00 	lea    rsi,[rip+0x1da9]        # 6ec8 <quoting_style_vals+0x268>
511f:	48 8b 43 10          	mov    rax,QWORD PTR [rbx+0x10]
5123:	4c 8b 43 08          	mov    r8,QWORD PTR [rbx+0x8]
5127:	ba 05 00 00 00       	mov    edx,0x5
512c:	4c 8b 6b 30          	mov    r13,QWORD PTR [rbx+0x30]
5130:	4c 8b 63 28          	mov    r12,QWORD PTR [rbx+0x28]
5134:	4c 8b 7b 20          	mov    r15,QWORD PTR [rbx+0x20]
5138:	4c 8b 73 18          	mov    r14,QWORD PTR [rbx+0x18]
513c:	48 8b 1b             	mov    rbx,QWORD PTR [rbx]
513f:	4c 89 54 24 18       	mov    QWORD PTR [rsp+0x18],r10
5144:	4c 89 4c 24 10       	mov    QWORD PTR [rsp+0x10],r9
5149:	48 89 04 24          	mov    QWORD PTR [rsp],rax
514d:	4c 89 44 24 08       	mov    QWORD PTR [rsp+0x8],r8
5152:	31 ff                	xor    edi,edi
5154:	e8 27 c5 ff ff       	call   1680 <dcgettext@plt>
5159:	4c 8b 54 24 18       	mov    r10,QWORD PTR [rsp+0x18]
515e:	41 52                	push   r10
5160:	e9 3f ff ff ff       	jmp    50a4 <version_etc_arn+0xf4>
5165:	0f 1f 00             	nop    DWORD PTR [rax]
5168:	48 8b 1b             	mov    rbx,QWORD PTR [rbx]
516b:	48 8d 35 2d 1b 00 00 	lea    rsi,[rip+0x1b2d]        # 6c9f <quoting_style_vals+0x3f>
5172:	ba 05 00 00 00       	mov    edx,0x5
5177:	31 ff                	xor    edi,edi
5179:	e8 02 c5 ff ff       	call   1680 <dcgettext@plt>
517e:	48 83 c4 28          	add    rsp,0x28
5182:	48 89 d9             	mov    rcx,rbx
5185:	48 89 ef             	mov    rdi,rbp
5188:	5b                   	pop    rbx
5189:	5d                   	pop    rbp
518a:	41 5c                	pop    r12
518c:	41 5d                	pop    r13
518e:	41 5e                	pop    r14
5190:	41 5f                	pop    r15
5192:	48 89 c2             	mov    rdx,rax
5195:	be 01 00 00 00       	mov    esi,0x1
519a:	31 c0                	xor    eax,eax
519c:	e9 3f c7 ff ff       	jmp    18e0 <__fprintf_chk@plt>
51a1:	0f 1f 80 00 00 00 00 	nop    DWORD PTR [rax+0x0]
51a8:	4c 8b 63 08          	mov    r12,QWORD PTR [rbx+0x8]
51ac:	48 8d 35 fc 1a 00 00 	lea    rsi,[rip+0x1afc]        # 6caf <quoting_style_vals+0x4f>
51b3:	48 8b 1b             	mov    rbx,QWORD PTR [rbx]
51b6:	ba 05 00 00 00       	mov    edx,0x5
51bb:	31 ff                	xor    edi,edi
51bd:	e8 be c4 ff ff       	call   1680 <dcgettext@plt>
51c2:	48 83 c4 28          	add    rsp,0x28
51c6:	4d 89 e0             	mov    r8,r12
51c9:	48 89 d9             	mov    rcx,rbx
51cc:	48 89 ef             	mov    rdi,rbp
51cf:	48 89 c2             	mov    rdx,rax
51d2:	be 01 00 00 00       	mov    esi,0x1
51d7:	5b                   	pop    rbx
51d8:	5d                   	pop    rbp
51d9:	41 5c                	pop    r12
51db:	41 5d                	pop    r13
51dd:	41 5e                	pop    r14
51df:	41 5f                	pop    r15
51e1:	31 c0                	xor    eax,eax
51e3:	e9 f8 c6 ff ff       	jmp    18e0 <__fprintf_chk@plt>
51e8:	0f 1f 84 00 00 00 00 	nop    DWORD PTR [rax+rax*1+0x0]
51ef:	00
51f0:	4c 8b 6b 10          	mov    r13,QWORD PTR [rbx+0x10]
51f4:	4c 8b 63 08          	mov    r12,QWORD PTR [rbx+0x8]
51f8:	48 8d 35 c7 1a 00 00 	lea    rsi,[rip+0x1ac7]        # 6cc6 <quoting_style_vals+0x66>
51ff:	48 8b 1b             	mov    rbx,QWORD PTR [rbx]
5202:	ba 05 00 00 00       	mov    edx,0x5
5207:	31 ff                	xor    edi,edi
5209:	e8 72 c4 ff ff       	call   1680 <dcgettext@plt>
520e:	48 83 c4 28          	add    rsp,0x28
5212:	4d 89 e9             	mov    r9,r13
5215:	4d 89 e0             	mov    r8,r12
5218:	48 89 d9             	mov    rcx,rbx
521b:	48 89 ef             	mov    rdi,rbp
521e:	48 89 c2             	mov    rdx,rax
5221:	5b                   	pop    rbx
5222:	5d                   	pop    rbp
5223:	41 5c                	pop    r12
5225:	41 5d                	pop    r13
5227:	41 5e                	pop    r14
5229:	41 5f                	pop    r15
522b:	be 01 00 00 00       	mov    esi,0x1
5230:	31 c0                	xor    eax,eax
5232:	e9 a9 c6 ff ff       	jmp    18e0 <__fprintf_chk@plt>
5237:	66 0f 1f 84 00 00 00 	nop    WORD PTR [rax+rax*1+0x0]
523e:	00 00
5240:	48 8d 35 b1 1b 00 00 	lea    rsi,[rip+0x1bb1]        # 6df8 <quoting_style_vals+0x198>
5247:	ba 05 00 00 00       	mov    edx,0x5
524c:	31 ff                	xor    edi,edi
524e:	4c 8b 73 18          	mov    r14,QWORD PTR [rbx+0x18]
5252:	4c 8b 6b 10          	mov    r13,QWORD PTR [rbx+0x10]
5256:	4c 8b 63 08          	mov    r12,QWORD PTR [rbx+0x8]
525a:	48 8b 1b             	mov    rbx,QWORD PTR [rbx]
525d:	e8 1e c4 ff ff       	call   1680 <dcgettext@plt>
5262:	48 83 ec 08          	sub    rsp,0x8
5266:	41 56                	push   r14
5268:	48 89 c2             	mov    rdx,rax
526b:	4d 89 e9             	mov    r9,r13
526e:	4d 89 e0             	mov    r8,r12
5271:	48 89 d9             	mov    rcx,rbx
5274:	48 89 ef             	mov    rdi,rbp
5277:	be 01 00 00 00       	mov    esi,0x1
527c:	31 c0                	xor    eax,eax
527e:	e8 5d c6 ff ff       	call   18e0 <__fprintf_chk@plt>
5283:	58                   	pop    rax
5284:	5a                   	pop    rdx
5285:	48 83 c4 28          	add    rsp,0x28
5289:	5b                   	pop    rbx
528a:	5d                   	pop    rbp
528b:	41 5c                	pop    r12
528d:	41 5d                	pop    r13
528f:	41 5e                	pop    r14
5291:	41 5f                	pop    r15
5293:	c3                   	ret
5294:	0f 1f 40 00          	nop    DWORD PTR [rax+0x0]
5298:	4c 8b 7b 20          	mov    r15,QWORD PTR [rbx+0x20]
529c:	48 8d 35 75 1b 00 00 	lea    rsi,[rip+0x1b75]        # 6e18 <quoting_style_vals+0x1b8>
52a3:	ba 05 00 00 00       	mov    edx,0x5
52a8:	31 ff                	xor    edi,edi
52aa:	4c 8b 73 18          	mov    r14,QWORD PTR [rbx+0x18]
52ae:	4c 8b 6b 10          	mov    r13,QWORD PTR [rbx+0x10]
52b2:	4c 8b 63 08          	mov    r12,QWORD PTR [rbx+0x8]
52b6:	48 8b 1b             	mov    rbx,QWORD PTR [rbx]
52b9:	e8 c2 c3 ff ff       	call   1680 <dcgettext@plt>
52be:	41 57                	push   r15
52c0:	eb a4                	jmp    5266 <version_etc_arn+0x2b6>
52c2:	66 0f 1f 44 00 00    	nop    WORD PTR [rax+rax*1+0x0]
52c8:	4c 8b 43 08          	mov    r8,QWORD PTR [rbx+0x8]
52cc:	4c 8b 63 28          	mov    r12,QWORD PTR [rbx+0x28]
52d0:	48 8d 35 69 1b 00 00 	lea    rsi,[rip+0x1b69]        # 6e40 <quoting_style_vals+0x1e0>
52d7:	4c 8b 7b 20          	mov    r15,QWORD PTR [rbx+0x20]
52db:	4c 8b 73 18          	mov    r14,QWORD PTR [rbx+0x18]
52df:	ba 05 00 00 00       	mov    edx,0x5
52e4:	4c 8b 6b 10          	mov    r13,QWORD PTR [rbx+0x10]
52e8:	31 ff                	xor    edi,edi
52ea:	48 8b 1b             	mov    rbx,QWORD PTR [rbx]
52ed:	4c 89 04 24          	mov    QWORD PTR [rsp],r8
52f1:	e8 8a c3 ff ff       	call   1680 <dcgettext@plt>
52f6:	48 83 ec 08          	sub    rsp,0x8
52fa:	4d 89 e9             	mov    r9,r13
52fd:	41 54                	push   r12
52ff:	41 57                	push   r15
5301:	41 56                	push   r14
5303:	4c 8b 44 24 20       	mov    r8,QWORD PTR [rsp+0x20]
5308:	48 89 d9             	mov    rcx,rbx
530b:	48 89 c2             	mov    rdx,rax
530e:	48 89 ef             	mov    rdi,rbp
5311:	be 01 00 00 00       	mov    esi,0x1
5316:	31 c0                	xor    eax,eax
5318:	e8 c3 c5 ff ff       	call   18e0 <__fprintf_chk@plt>
531d:	48 83 c4 20          	add    rsp,0x20
5321:	48 83 c4 28          	add    rsp,0x28
5325:	5b                   	pop    rbx
5326:	5d                   	pop    rbp
5327:	41 5c                	pop    r12
5329:	41 5d                	pop    r13
532b:	41 5e                	pop    r14
532d:	41 5f                	pop    r15
532f:	c3                   	ret
5330:	4c 8b 4b 10          	mov    r9,QWORD PTR [rbx+0x10]
5334:	4c 8b 6b 30          	mov    r13,QWORD PTR [rbx+0x30]
5338:	48 8d 35 29 1b 00 00 	lea    rsi,[rip+0x1b29]        # 6e68 <quoting_style_vals+0x208>
533f:	4c 8b 63 28          	mov    r12,QWORD PTR [rbx+0x28]
5343:	4c 8b 7b 20          	mov    r15,QWORD PTR [rbx+0x20]
5347:	ba 05 00 00 00       	mov    edx,0x5
534c:	4c 8b 73 18          	mov    r14,QWORD PTR [rbx+0x18]
5350:	4c 8b 43 08          	mov    r8,QWORD PTR [rbx+0x8]
5354:	31 ff                	xor    edi,edi
5356:	4c 89 4c 24 08       	mov    QWORD PTR [rsp+0x8],r9
535b:	48 8b 1b             	mov    rbx,QWORD PTR [rbx]
535e:	4c 89 04 24          	mov    QWORD PTR [rsp],r8
5362:	e8 19 c3 ff ff       	call   1680 <dcgettext@plt>
5367:	41 55                	push   r13
5369:	41 54                	push   r12
536b:	41 57                	push   r15
536d:	41 56                	push   r14
536f:	4c 8b 4c 24 28       	mov    r9,QWORD PTR [rsp+0x28]
5374:	eb 8d                	jmp    5303 <version_etc_arn+0x353>
5376:	66 2e 0f 1f 84 00 00 	nop    WORD PTR cs:[rax+rax*1+0x0]
537d:	00 00 00
5380:	4c 8b 53 40          	mov    r10,QWORD PTR [rbx+0x40]
5384:	4c 8b 4b 38          	mov    r9,QWORD PTR [rbx+0x38]
5388:	ba 05 00 00 00       	mov    edx,0x5
538d:	48 8b 43 10          	mov    rax,QWORD PTR [rbx+0x10]
5391:	4c 8b 43 08          	mov    r8,QWORD PTR [rbx+0x8]
5395:	48 8d 35 64 1b 00 00 	lea    rsi,[rip+0x1b64]        # 6f00 <quoting_style_vals+0x2a0>
539c:	4c 8b 6b 30          	mov    r13,QWORD PTR [rbx+0x30]
53a0:	4c 8b 63 28          	mov    r12,QWORD PTR [rbx+0x28]
53a4:	4c 8b 7b 20          	mov    r15,QWORD PTR [rbx+0x20]
53a8:	4c 8b 73 18          	mov    r14,QWORD PTR [rbx+0x18]
53ac:	4c 89 54 24 18       	mov    QWORD PTR [rsp+0x18],r10
53b1:	4c 89 4c 24 10       	mov    QWORD PTR [rsp+0x10],r9
53b6:	48 89 04 24          	mov    QWORD PTR [rsp],rax
53ba:	4c 89 44 24 08       	mov    QWORD PTR [rsp+0x8],r8
53bf:	48 8b 1b             	mov    rbx,QWORD PTR [rbx]
53c2:	e9 8b fd ff ff       	jmp    5152 <version_etc_arn+0x1a2>
53c7:	66 0f 1f 84 00 00 00 	nop    WORD PTR [rax+rax*1+0x0]
53ce:	00 00

00000000000053d0 <version_etc_ar>:
53d0:	45 31 c9             	xor    r9d,r9d
53d3:	49 83 38 00          	cmp    QWORD PTR [r8],0x0
53d7:	74 12                	je     53eb <version_etc_ar+0x1b>
53d9:	0f 1f 80 00 00 00 00 	nop    DWORD PTR [rax+0x0]
53e0:	49 83 c1 01          	add    r9,0x1
53e4:	4b 83 3c c8 00       	cmp    QWORD PTR [r8+r9*8],0x0
53e9:	75 f5                	jne    53e0 <version_etc_ar+0x10>
53eb:	e9 c0 fb ff ff       	jmp    4fb0 <version_etc_arn>

00000000000053f0 <version_etc_va>:
53f0:	48 83 ec 68          	sub    rsp,0x68
53f4:	4d 89 c2             	mov    r10,r8
53f7:	45 31 c9             	xor    r9d,r9d
53fa:	64 48 8b 04 25 28 00 	mov    rax,QWORD PTR fs:0x28
5401:	00 00
5403:	48 89 44 24 58       	mov    QWORD PTR [rsp+0x58],rax
5408:	31 c0                	xor    eax,eax
540a:	49 89 e0             	mov    r8,rsp
540d:	0f 1f 00             	nop    DWORD PTR [rax]
5410:	41 8b 02             	mov    eax,DWORD PTR [r10]
5413:	83 f8 2f             	cmp    eax,0x2f
5416:	77 42                	ja     545a <version_etc_va+0x6a>
5418:	41 89 c3             	mov    r11d,eax
541b:	4d 03 5a 10          	add    r11,QWORD PTR [r10+0x10]
541f:	83 c0 08             	add    eax,0x8
5422:	41 89 02             	mov    DWORD PTR [r10],eax
5425:	49 8b 03             	mov    rax,QWORD PTR [r11]
5428:	48 85 c0             	test   rax,rax
542b:	4b 89 04 c8          	mov    QWORD PTR [r8+r9*8],rax
542f:	74 0a                	je     543b <version_etc_va+0x4b>
5431:	49 83 c1 01          	add    r9,0x1
5435:	49 83 f9 0a          	cmp    r9,0xa
5439:	75 d5                	jne    5410 <version_etc_va+0x20>
543b:	e8 70 fb ff ff       	call   4fb0 <version_etc_arn>
5440:	48 8b 44 24 58       	mov    rax,QWORD PTR [rsp+0x58]
5445:	64 48 33 04 25 28 00 	xor    rax,QWORD PTR fs:0x28
544c:	00 00
544e:	75 05                	jne    5455 <version_etc_va+0x65>
5450:	48 83 c4 68          	add    rsp,0x68
5454:	c3                   	ret
5455:	e8 56 c2 ff ff       	call   16b0 <__stack_chk_fail@plt>
545a:	4d 8b 5a 08          	mov    r11,QWORD PTR [r10+0x8]
545e:	49 8d 43 08          	lea    rax,[r11+0x8]
5462:	49 89 42 08          	mov    QWORD PTR [r10+0x8],rax
5466:	eb bd                	jmp    5425 <version_etc_va+0x35>
5468:	0f 1f 84 00 00 00 00 	nop    DWORD PTR [rax+rax*1+0x0]
546f:	00

0000000000005470 <version_etc>:
5470:	55                   	push   rbp
5471:	53                   	push   rbx
5472:	41 ba 20 00 00 00    	mov    r10d,0x20
5478:	45 31 db             	xor    r11d,r11d
547b:	48 81 ec b8 00 00 00 	sub    rsp,0xb8
5482:	64 48 8b 04 25 28 00 	mov    rax,QWORD PTR fs:0x28
5489:	00 00
548b:	48 89 44 24 78       	mov    QWORD PTR [rsp+0x78],rax
5490:	31 c0                	xor    eax,eax
5492:	48 8d 84 24 d0 00 00 	lea    rax,[rsp+0xd0]
5499:	00
549a:	4c 89 84 24 a0 00 00 	mov    QWORD PTR [rsp+0xa0],r8
54a1:	00
54a2:	48 8d 9c 24 d0 00 00 	lea    rbx,[rsp+0xd0]
54a9:	00
54aa:	4c 8d 44 24 20       	lea    r8,[rsp+0x20]
54af:	4c 89 8c 24 a8 00 00 	mov    QWORD PTR [rsp+0xa8],r9
54b6:	00
54b7:	c7 44 24 08 20 00 00 	mov    DWORD PTR [rsp+0x8],0x20
54be:	00
54bf:	48 89 44 24 10       	mov    QWORD PTR [rsp+0x10],rax
54c4:	48 8d 84 24 80 00 00 	lea    rax,[rsp+0x80]
54cb:	00
54cc:	45 31 c9             	xor    r9d,r9d
54cf:	48 89 44 24 18       	mov    QWORD PTR [rsp+0x18],rax
54d4:	48 89 c5             	mov    rbp,rax
54d7:	66 0f 1f 84 00 00 00 	nop    WORD PTR [rax+rax*1+0x0]
54de:	00 00
54e0:	41 83 fa 2f          	cmp    r10d,0x2f
54e4:	77 56                	ja     553c <version_etc+0xcc>
54e6:	44 89 d0             	mov    eax,r10d
54e9:	41 bb 01 00 00 00    	mov    r11d,0x1
54ef:	41 83 c2 08          	add    r10d,0x8
54f3:	48 01 e8             	add    rax,rbp
54f6:	48 8b 00             	mov    rax,QWORD PTR [rax]
54f9:	48 85 c0             	test   rax,rax
54fc:	4b 89 04 c8          	mov    QWORD PTR [r8+r9*8],rax
5500:	74 0a                	je     550c <version_etc+0x9c>
5502:	49 83 c1 01          	add    r9,0x1
5506:	49 83 f9 0a          	cmp    r9,0xa
550a:	75 d4                	jne    54e0 <version_etc+0x70>
550c:	45 84 db             	test   r11b,r11b
550f:	75 24                	jne    5535 <version_etc+0xc5>
5511:	e8 9a fa ff ff       	call   4fb0 <version_etc_arn>
5516:	48 8b 44 24 78       	mov    rax,QWORD PTR [rsp+0x78]
551b:	64 48 33 04 25 28 00 	xor    rax,QWORD PTR fs:0x28
5522:	00 00
5524:	75 0a                	jne    5530 <version_etc+0xc0>
5526:	48 81 c4 b8 00 00 00 	add    rsp,0xb8
552d:	5b                   	pop    rbx
552e:	5d                   	pop    rbp
552f:	c3                   	ret
5530:	e8 7b c1 ff ff       	call   16b0 <__stack_chk_fail@plt>
5535:	44 89 54 24 08       	mov    DWORD PTR [rsp+0x8],r10d
553a:	eb d5                	jmp    5511 <version_etc+0xa1>
553c:	48 89 d8             	mov    rax,rbx
553f:	48 83 c3 08          	add    rbx,0x8
5543:	eb b1                	jmp    54f6 <version_etc+0x86>
5545:	90                   	nop
5546:	66 2e 0f 1f 84 00 00 	nop    WORD PTR cs:[rax+rax*1+0x0]
554d:	00 00 00

0000000000005550 <emit_bug_reporting_address>:
5550:	53                   	push   rbx
5551:	48 8d 35 8a 17 00 00 	lea    rsi,[rip+0x178a]        # 6ce2 <quoting_style_vals+0x82>
5558:	ba 05 00 00 00       	mov    edx,0x5
555d:	31 ff                	xor    edi,edi
555f:	e8 1c c1 ff ff       	call   1680 <dcgettext@plt>
5564:	48 8d 15 8c 17 00 00 	lea    rdx,[rip+0x178c]        # 6cf7 <quoting_style_vals+0x97>
556b:	48 89 c6             	mov    rsi,rax
556e:	bf 01 00 00 00       	mov    edi,0x1
5573:	31 c0                	xor    eax,eax
5575:	e8 c6 c2 ff ff       	call   1840 <__printf_chk@plt>
557a:	48 8d 35 8c 17 00 00 	lea    rsi,[rip+0x178c]        # 6d0d <quoting_style_vals+0xad>
5581:	ba 05 00 00 00       	mov    edx,0x5
5586:	31 ff                	xor    edi,edi
5588:	e8 f3 c0 ff ff       	call   1680 <dcgettext@plt>
558d:	48 8d 0d 94 10 00 00 	lea    rcx,[rip+0x1094]        # 6628 <_IO_stdin_used+0x2a8>
5594:	48 8d 15 6e 0e 00 00 	lea    rdx,[rip+0xe6e]        # 6409 <_IO_stdin_used+0x89>
559b:	48 89 c6             	mov    rsi,rax
559e:	bf 01 00 00 00       	mov    edi,0x1
55a3:	31 c0                	xor    eax,eax
55a5:	e8 96 c2 ff ff       	call   1840 <__printf_chk@plt>
55aa:	48 8b 1d f7 3a 20 00 	mov    rbx,QWORD PTR [rip+0x203af7]        # 2090a8 <stdout@@GLIBC_2.2.5>
55b1:	48 8d 35 88 19 00 00 	lea    rsi,[rip+0x1988]        # 6f40 <quoting_style_vals+0x2e0>
55b8:	31 ff                	xor    edi,edi
55ba:	ba 05 00 00 00       	mov    edx,0x5
55bf:	e8 bc c0 ff ff       	call   1680 <dcgettext@plt>
55c4:	48 89 de             	mov    rsi,rbx
55c7:	48 89 c7             	mov    rdi,rax
55ca:	5b                   	pop    rbx
55cb:	e9 c0 c1 ff ff       	jmp    1790 <fputs_unlocked@plt>

00000000000055d0 <xmalloc>:
55d0:	53                   	push   rbx
55d1:	48 89 fb             	mov    rbx,rdi
55d4:	e8 07 c2 ff ff       	call   17e0 <malloc@plt>
55d9:	48 85 c0             	test   rax,rax
55dc:	75 05                	jne    55e3 <xmalloc+0x13>
55de:	48 85 db             	test   rbx,rbx
55e1:	75 02                	jne    55e5 <xmalloc+0x15>
55e3:	5b                   	pop    rbx
55e4:	c3                   	ret
55e5:	e8 36 02 00 00       	call   5820 <xalloc_die>
55ea:	66 0f 1f 44 00 00    	nop    WORD PTR [rax+rax*1+0x0]

00000000000055f0 <xnmalloc>:
55f0:	48 89 f8             	mov    rax,rdi
55f3:	48 f7 e6             	mul    rsi
55f6:	48 89 c7             	mov    rdi,rax
55f9:	0f 90 c0             	seto   al
55fc:	48 85 ff             	test   rdi,rdi
55ff:	78 0a                	js     560b <xnmalloc+0x1b>
5601:	0f b6 c0             	movzx  eax,al
5604:	48 85 c0             	test   rax,rax
5607:	75 02                	jne    560b <xnmalloc+0x1b>
5609:	eb c5                	jmp    55d0 <xmalloc>
560b:	48 83 ec 08          	sub    rsp,0x8
560f:	e8 0c 02 00 00       	call   5820 <xalloc_die>
5614:	66 90                	xchg   ax,ax
5616:	66 2e 0f 1f 84 00 00 	nop    WORD PTR cs:[rax+rax*1+0x0]
561d:	00 00 00

0000000000005620 <xcharalloc>:
5620:	eb ae                	jmp    55d0 <xmalloc>
5622:	0f 1f 40 00          	nop    DWORD PTR [rax+0x0]
5626:	66 2e 0f 1f 84 00 00 	nop    WORD PTR cs:[rax+rax*1+0x0]
562d:	00 00 00

0000000000005630 <xrealloc>:
5630:	48 85 f6             	test   rsi,rsi
5633:	53                   	push   rbx
5634:	48 89 f3             	mov    rbx,rsi
5637:	75 05                	jne    563e <xrealloc+0xe>
5639:	48 85 ff             	test   rdi,rdi
563c:	75 1a                	jne    5658 <xrealloc+0x28>
563e:	48 89 de             	mov    rsi,rbx
5641:	e8 da c1 ff ff       	call   1820 <realloc@plt>
5646:	48 85 c0             	test   rax,rax
5649:	75 05                	jne    5650 <xrealloc+0x20>
564b:	48 85 db             	test   rbx,rbx
564e:	75 11                	jne    5661 <xrealloc+0x31>
5650:	5b                   	pop    rbx
5651:	c3                   	ret
5652:	66 0f 1f 44 00 00    	nop    WORD PTR [rax+rax*1+0x0]
5658:	e8 83 bf ff ff       	call   15e0 <free@plt>
565d:	31 c0                	xor    eax,eax
565f:	5b                   	pop    rbx
5660:	c3                   	ret
5661:	e8 ba 01 00 00       	call   5820 <xalloc_die>
5666:	66 2e 0f 1f 84 00 00 	nop    WORD PTR cs:[rax+rax*1+0x0]
566d:	00 00 00

0000000000005670 <xnrealloc>:
5670:	48 89 f0             	mov    rax,rsi
5673:	48 f7 e2             	mul    rdx
5676:	48 89 c6             	mov    rsi,rax
5679:	0f 90 c0             	seto   al
567c:	48 85 f6             	test   rsi,rsi
567f:	78 0a                	js     568b <xnrealloc+0x1b>
5681:	0f b6 c0             	movzx  eax,al
5684:	48 85 c0             	test   rax,rax
5687:	75 02                	jne    568b <xnrealloc+0x1b>
5689:	eb a5                	jmp    5630 <xrealloc>
568b:	48 83 ec 08          	sub    rsp,0x8
568f:	e8 8c 01 00 00       	call   5820 <xalloc_die>
5694:	66 90                	xchg   ax,ax
5696:	66 2e 0f 1f 84 00 00 	nop    WORD PTR cs:[rax+rax*1+0x0]
569d:	00 00 00

00000000000056a0 <x2nrealloc>:
56a0:	48 85 ff             	test   rdi,rdi
56a3:	49 89 d1             	mov    r9,rdx
56a6:	48 8b 0e             	mov    rcx,QWORD PTR [rsi]
56a9:	74 35                	je     56e0 <x2nrealloc+0x40>
56ab:	31 d2                	xor    edx,edx
56ad:	48 b8 54 55 55 55 55 	movabs rax,0x5555555555555554
56b4:	55 55 55
56b7:	49 f7 f1             	div    r9
56ba:	48 39 c8             	cmp    rax,rcx
56bd:	76 3c                	jbe    56fb <x2nrealloc+0x5b>
56bf:	48 89 c8             	mov    rax,rcx
56c2:	48 d1 e8             	shr    rax,1
56c5:	48 8d 4c 08 01       	lea    rcx,[rax+rcx*1+0x1]
56ca:	48 89 0e             	mov    QWORD PTR [rsi],rcx
56cd:	49 0f af c9          	imul   rcx,r9
56d1:	48 89 ce             	mov    rsi,rcx
56d4:	e9 57 ff ff ff       	jmp    5630 <xrealloc>
56d9:	0f 1f 80 00 00 00 00 	nop    DWORD PTR [rax+0x0]
56e0:	48 85 c9             	test   rcx,rcx
56e3:	74 23                	je     5708 <x2nrealloc+0x68>
56e5:	48 89 c8             	mov    rax,rcx
56e8:	49 f7 e1             	mul    r9
56eb:	0f 90 c2             	seto   dl
56ee:	48 85 c0             	test   rax,rax
56f1:	0f b6 d2             	movzx  edx,dl
56f4:	78 05                	js     56fb <x2nrealloc+0x5b>
56f6:	48 85 d2             	test   rdx,rdx
56f9:	74 cf                	je     56ca <x2nrealloc+0x2a>
56fb:	48 83 ec 08          	sub    rsp,0x8
56ff:	e8 1c 01 00 00       	call   5820 <xalloc_die>
5704:	0f 1f 40 00          	nop    DWORD PTR [rax+0x0]
5708:	31 d2                	xor    edx,edx
570a:	b8 80 00 00 00       	mov    eax,0x80
570f:	45 31 c0             	xor    r8d,r8d
5712:	49 f7 f1             	div    r9
5715:	48 85 c0             	test   rax,rax
5718:	41 0f 94 c0          	sete   r8b
571c:	49 8d 0c 00          	lea    rcx,[r8+rax*1]
5720:	eb c3                	jmp    56e5 <x2nrealloc+0x45>
5722:	0f 1f 40 00          	nop    DWORD PTR [rax+0x0]
5726:	66 2e 0f 1f 84 00 00 	nop    WORD PTR cs:[rax+rax*1+0x0]
572d:	00 00 00

0000000000005730 <x2realloc>:
5730:	48 85 ff             	test   rdi,rdi
5733:	48 8b 06             	mov    rax,QWORD PTR [rsi]
5736:	74 28                	je     5760 <x2realloc+0x30>
5738:	48 ba 53 55 55 55 55 	movabs rdx,0x5555555555555553
573f:	55 55 55
5742:	48 39 d0             	cmp    rax,rdx
5745:	77 2a                	ja     5771 <x2realloc+0x41>
5747:	48 89 c2             	mov    rdx,rax
574a:	48 d1 ea             	shr    rdx,1
574d:	48 8d 44 02 01       	lea    rax,[rdx+rax*1+0x1]
5752:	48 89 06             	mov    QWORD PTR [rsi],rax
5755:	48 89 c6             	mov    rsi,rax
5758:	e9 d3 fe ff ff       	jmp    5630 <xrealloc>
575d:	0f 1f 00             	nop    DWORD PTR [rax]
5760:	48 85 c0             	test   rax,rax
5763:	ba 80 00 00 00       	mov    edx,0x80
5768:	48 0f 44 c2          	cmove  rax,rdx
576c:	48 85 c0             	test   rax,rax
576f:	79 e1                	jns    5752 <x2realloc+0x22>
5771:	48 83 ec 08          	sub    rsp,0x8
5775:	e8 a6 00 00 00       	call   5820 <xalloc_die>
577a:	66 0f 1f 44 00 00    	nop    WORD PTR [rax+rax*1+0x0]

0000000000005780 <xzalloc>:
5780:	53                   	push   rbx
5781:	48 89 fb             	mov    rbx,rdi
5784:	e8 47 fe ff ff       	call   55d0 <xmalloc>
5789:	48 89 da             	mov    rdx,rbx
578c:	31 f6                	xor    esi,esi
578e:	48 89 c7             	mov    rdi,rax
5791:	5b                   	pop    rbx
5792:	e9 a9 bf ff ff       	jmp    1740 <memset@plt>
5797:	66 0f 1f 84 00 00 00 	nop    WORD PTR [rax+rax*1+0x0]
579e:	00 00

00000000000057a0 <xcalloc>:
57a0:	48 89 f8             	mov    rax,rdi
57a3:	48 83 ec 08          	sub    rsp,0x8
57a7:	48 f7 e6             	mul    rsi
57aa:	0f 90 c2             	seto   dl
57ad:	48 85 c0             	test   rax,rax
57b0:	78 17                	js     57c9 <xcalloc+0x29>
57b2:	0f b6 d2             	movzx  edx,dl
57b5:	48 85 d2             	test   rdx,rdx
57b8:	75 0f                	jne    57c9 <xcalloc+0x29>
57ba:	e8 e1 bf ff ff       	call   17a0 <calloc@plt>
57bf:	48 85 c0             	test   rax,rax
57c2:	74 05                	je     57c9 <xcalloc+0x29>
57c4:	48 83 c4 08          	add    rsp,0x8
57c8:	c3                   	ret
57c9:	e8 52 00 00 00       	call   5820 <xalloc_die>
57ce:	66 90                	xchg   ax,ax

00000000000057d0 <xmemdup>:
57d0:	55                   	push   rbp
57d1:	53                   	push   rbx
57d2:	48 89 fd             	mov    rbp,rdi
57d5:	48 89 f7             	mov    rdi,rsi
57d8:	48 89 f3             	mov    rbx,rsi
57db:	48 83 ec 08          	sub    rsp,0x8
57df:	e8 ec fd ff ff       	call   55d0 <xmalloc>
57e4:	48 83 c4 08          	add    rsp,0x8
57e8:	48 89 da             	mov    rdx,rbx
57eb:	48 89 ee             	mov    rsi,rbp
57ee:	5b                   	pop    rbx
57ef:	5d                   	pop    rbp
57f0:	48 89 c7             	mov    rdi,rax
57f3:	e9 c8 bf ff ff       	jmp    17c0 <memcpy@plt>
57f8:	0f 1f 84 00 00 00 00 	nop    DWORD PTR [rax+rax*1+0x0]
57ff:	00

0000000000005800 <xstrdup>:
5800:	53                   	push   rbx
5801:	48 89 fb             	mov    rbx,rdi
5804:	e8 97 be ff ff       	call   16a0 <strlen@plt>
5809:	48 89 df             	mov    rdi,rbx
580c:	48 8d 70 01          	lea    rsi,[rax+0x1]
5810:	5b                   	pop    rbx
5811:	eb bd                	jmp    57d0 <xmemdup>
5813:	66 2e 0f 1f 84 00 00 	nop    WORD PTR cs:[rax+rax*1+0x0]
581a:	00 00 00
581d:	0f 1f 00             	nop    DWORD PTR [rax]

0000000000005820 <xalloc_die>:
5820:	48 8d 35 c8 17 00 00 	lea    rsi,[rip+0x17c8]        # 6fef <version_etc_copyright+0x2f>
5827:	48 83 ec 08          	sub    rsp,0x8
582b:	ba 05 00 00 00       	mov    edx,0x5
5830:	31 ff                	xor    edi,edi
5832:	e8 49 be ff ff       	call   1680 <dcgettext@plt>
5837:	8b 3d db 37 20 00    	mov    edi,DWORD PTR [rip+0x2037db]        # 209018 <exit_failure>
583d:	48 8d 15 3e 19 00 00 	lea    rdx,[rip+0x193e]        # 7182 <__PRETTY_FUNCTION__.4162+0x62>
5844:	48 89 c1             	mov    rcx,rax
5847:	31 f6                	xor    esi,esi
5849:	31 c0                	xor    eax,eax
584b:	e8 20 c0 ff ff       	call   1870 <error@plt>
5850:	e8 9b bd ff ff       	call   15f0 <abort@plt>
5855:	66 2e 0f 1f 84 00 00 	nop    WORD PTR cs:[rax+rax*1+0x0]
585c:	00 00 00
585f:	90                   	nop

0000000000005860 <xstrtoumax>:
5860:	41 57                	push   r15
5862:	41 56                	push   r14
5864:	41 55                	push   r13
5866:	41 54                	push   r12
5868:	55                   	push   rbp
5869:	53                   	push   rbx
586a:	48 83 ec 28          	sub    rsp,0x28
586e:	64 48 8b 04 25 28 00 	mov    rax,QWORD PTR fs:0x28
5875:	00 00
5877:	48 89 44 24 18       	mov    QWORD PTR [rsp+0x18],rax
587c:	31 c0                	xor    eax,eax
587e:	83 fa 24             	cmp    edx,0x24
5881:	0f 87 5e 03 00 00    	ja     5be5 <xstrtoumax+0x385>
5887:	48 8d 44 24 10       	lea    rax,[rsp+0x10]
588c:	49 89 f7             	mov    r15,rsi
588f:	48 85 f6             	test   rsi,rsi
5892:	48 89 fd             	mov    rbp,rdi
5895:	89 54 24 08          	mov    DWORD PTR [rsp+0x8],edx
5899:	49 89 ce             	mov    r14,rcx
589c:	4d 89 c5             	mov    r13,r8
589f:	4c 0f 44 f8          	cmove  r15,rax
58a3:	e8 58 bd ff ff       	call   1600 <__errno_location@plt>
58a8:	c7 00 00 00 00 00    	mov    DWORD PTR [rax],0x0
58ae:	49 89 c4             	mov    r12,rax
58b1:	0f b6 5d 00          	movzx  ebx,BYTE PTR [rbp+0x0]
58b5:	e8 56 c0 ff ff       	call   1910 <__ctype_b_loc@plt>
58ba:	8b 54 24 08          	mov    edx,DWORD PTR [rsp+0x8]
58be:	48 8b 30             	mov    rsi,QWORD PTR [rax]
58c1:	48 89 e8             	mov    rax,rbp
58c4:	eb 11                	jmp    58d7 <xstrtoumax+0x77>
58c6:	66 2e 0f 1f 84 00 00 	nop    WORD PTR cs:[rax+rax*1+0x0]
58cd:	00 00 00
58d0:	48 83 c0 01          	add    rax,0x1
58d4:	0f b6 18             	movzx  ebx,BYTE PTR [rax]
58d7:	0f b6 cb             	movzx  ecx,bl
58da:	f6 44 4e 01 20       	test   BYTE PTR [rsi+rcx*2+0x1],0x20
58df:	75 ef                	jne    58d0 <xstrtoumax+0x70>
58e1:	80 fb 2d             	cmp    bl,0x2d
58e4:	74 52                	je     5938 <xstrtoumax+0xd8>
58e6:	31 c9                	xor    ecx,ecx
58e8:	4c 89 fe             	mov    rsi,r15
58eb:	48 89 ef             	mov    rdi,rbp
58ee:	e8 3d be ff ff       	call   1730 <__strtoul_internal@plt>
58f3:	49 8b 0f             	mov    rcx,QWORD PTR [r15]
58f6:	48 89 c3             	mov    rbx,rax
58f9:	48 39 e9             	cmp    rcx,rbp
58fc:	74 2a                	je     5928 <xstrtoumax+0xc8>
58fe:	41 8b 04 24          	mov    eax,DWORD PTR [r12]
5902:	85 c0                	test   eax,eax
5904:	74 62                	je     5968 <xstrtoumax+0x108>
5906:	83 f8 22             	cmp    eax,0x22
5909:	bd 01 00 00 00       	mov    ebp,0x1
590e:	75 28                	jne    5938 <xstrtoumax+0xd8>
5910:	4d 85 ed             	test   r13,r13
5913:	74 09                	je     591e <xstrtoumax+0xbe>
5915:	44 0f b6 21          	movzx  r12d,BYTE PTR [rcx]
5919:	45 84 e4             	test   r12b,r12b
591c:	75 79                	jne    5997 <xstrtoumax+0x137>
591e:	49 89 1e             	mov    QWORD PTR [r14],rbx
5921:	eb 1a                	jmp    593d <xstrtoumax+0xdd>
5923:	0f 1f 44 00 00       	nop    DWORD PTR [rax+rax*1+0x0]
5928:	4d 85 ed             	test   r13,r13
592b:	48 89 4c 24 08       	mov    QWORD PTR [rsp+0x8],rcx
5930:	75 3e                	jne    5970 <xstrtoumax+0x110>
5932:	66 0f 1f 44 00 00    	nop    WORD PTR [rax+rax*1+0x0]
5938:	bd 04 00 00 00       	mov    ebp,0x4
593d:	48 8b 7c 24 18       	mov    rdi,QWORD PTR [rsp+0x18]
5942:	64 48 33 3c 25 28 00 	xor    rdi,QWORD PTR fs:0x28
5949:	00 00
594b:	89 e8                	mov    eax,ebp
594d:	0f 85 8d 02 00 00    	jne    5be0 <xstrtoumax+0x380>
5953:	48 83 c4 28          	add    rsp,0x28
5957:	5b                   	pop    rbx
5958:	5d                   	pop    rbp
5959:	41 5c                	pop    r12
595b:	41 5d                	pop    r13
595d:	41 5e                	pop    r14
595f:	41 5f                	pop    r15
5961:	c3                   	ret
5962:	66 0f 1f 44 00 00    	nop    WORD PTR [rax+rax*1+0x0]
5968:	31 ed                	xor    ebp,ebp
596a:	eb a4                	jmp    5910 <xstrtoumax+0xb0>
596c:	0f 1f 40 00          	nop    DWORD PTR [rax+0x0]
5970:	44 0f b6 65 00       	movzx  r12d,BYTE PTR [rbp+0x0]
5975:	45 84 e4             	test   r12b,r12b
5978:	74 be                	je     5938 <xstrtoumax+0xd8>
597a:	41 0f be f4          	movsx  esi,r12b
597e:	4c 89 ef             	mov    rdi,r13
5981:	31 ed                	xor    ebp,ebp
5983:	e8 58 bd ff ff       	call   16e0 <strchr@plt>
5988:	48 85 c0             	test   rax,rax
598b:	bb 01 00 00 00       	mov    ebx,0x1
5990:	48 8b 4c 24 08       	mov    rcx,QWORD PTR [rsp+0x8]
5995:	74 a1                	je     5938 <xstrtoumax+0xd8>
5997:	41 0f be f4          	movsx  esi,r12b
599b:	4c 89 ef             	mov    rdi,r13
599e:	48 89 4c 24 08       	mov    QWORD PTR [rsp+0x8],rcx
59a3:	e8 38 bd ff ff       	call   16e0 <strchr@plt>
59a8:	48 85 c0             	test   rax,rax
59ab:	48 8b 4c 24 08       	mov    rcx,QWORD PTR [rsp+0x8]
59b0:	0f 84 c6 00 00 00    	je     5a7c <xstrtoumax+0x21c>
59b6:	41 8d 44 24 bb       	lea    eax,[r12-0x45]
59bb:	3c 2f                	cmp    al,0x2f
59bd:	77 51                	ja     5a10 <xstrtoumax+0x1b0>
59bf:	48 ba 45 89 30 00 44 	movabs rdx,0x814400308945
59c6:	81 00 00
59c9:	48 0f a3 c2          	bt     rdx,rax
59cd:	73 41                	jae    5a10 <xstrtoumax+0x1b0>
59cf:	be 30 00 00 00       	mov    esi,0x30
59d4:	4c 89 ef             	mov    rdi,r13
59d7:	48 89 4c 24 08       	mov    QWORD PTR [rsp+0x8],rcx
59dc:	e8 ff bc ff ff       	call   16e0 <strchr@plt>
59e1:	48 85 c0             	test   rax,rax
59e4:	48 8b 4c 24 08       	mov    rcx,QWORD PTR [rsp+0x8]
59e9:	74 25                	je     5a10 <xstrtoumax+0x1b0>
59eb:	0f b6 41 01          	movzx  eax,BYTE PTR [rcx+0x1]
59ef:	3c 44                	cmp    al,0x44
59f1:	74 0c                	je     59ff <xstrtoumax+0x19f>
59f3:	3c 69                	cmp    al,0x69
59f5:	0f 84 cd 01 00 00    	je     5bc8 <xstrtoumax+0x368>
59fb:	3c 42                	cmp    al,0x42
59fd:	75 11                	jne    5a10 <xstrtoumax+0x1b0>
59ff:	bf 02 00 00 00       	mov    edi,0x2
5a04:	be e8 03 00 00       	mov    esi,0x3e8
5a09:	eb 0f                	jmp    5a1a <xstrtoumax+0x1ba>
5a0b:	0f 1f 44 00 00       	nop    DWORD PTR [rax+rax*1+0x0]
5a10:	bf 01 00 00 00       	mov    edi,0x1
5a15:	be 00 04 00 00       	mov    esi,0x400
5a1a:	41 83 ec 42          	sub    r12d,0x42
5a1e:	41 80 fc 35          	cmp    r12b,0x35
5a22:	77 58                	ja     5a7c <xstrtoumax+0x21c>
5a24:	48 8d 15 1d 16 00 00 	lea    rdx,[rip+0x161d]        # 7048 <version_etc_copyright+0x88>
5a2b:	45 0f b6 e4          	movzx  r12d,r12b
5a2f:	4a 63 04 a2          	movsxd rax,DWORD PTR [rdx+r12*4]
5a33:	48 01 d0             	add    rax,rdx
5a36:	ff e0                	jmp    rax
5a38:	48 89 d8             	mov    rax,rbx
5a3b:	48 f7 e6             	mul    rsi
5a3e:	0f 80 ed 01 00 00    	jo     5c31 <xstrtoumax+0x3d1>
5a44:	45 31 c0             	xor    r8d,r8d
5a47:	48 f7 e6             	mul    rsi
5a4a:	0f 80 d2 01 00 00    	jo     5c22 <xstrtoumax+0x3c2>
5a50:	48 89 c3             	mov    rbx,rax
5a53:	44 09 c5             	or     ebp,r8d
5a56:	66 2e 0f 1f 84 00 00 	nop    WORD PTR cs:[rax+rax*1+0x0]
5a5d:	00 00 00
5a60:	48 63 ff             	movsxd rdi,edi
5a63:	89 e8                	mov    eax,ebp
5a65:	48 01 f9             	add    rcx,rdi
5a68:	83 c8 02             	or     eax,0x2
5a6b:	49 89 0f             	mov    QWORD PTR [r15],rcx
5a6e:	80 39 00             	cmp    BYTE PTR [rcx],0x0
5a71:	49 89 1e             	mov    QWORD PTR [r14],rbx
5a74:	0f 45 e8             	cmovne ebp,eax
5a77:	e9 c1 fe ff ff       	jmp    593d <xstrtoumax+0xdd>
5a7c:	49 89 1e             	mov    QWORD PTR [r14],rbx
5a7f:	83 cd 02             	or     ebp,0x2
5a82:	e9 b6 fe ff ff       	jmp    593d <xstrtoumax+0xdd>
5a87:	ba 02 00 00 00       	mov    edx,0x2
5a8c:	48 89 d0             	mov    rax,rdx
5a8f:	48 f7 e3             	mul    rbx
5a92:	0f 80 96 00 00 00    	jo     5b2e <xstrtoumax+0x2ce>
5a98:	48 01 db             	add    rbx,rbx
5a9b:	eb c3                	jmp    5a60 <xstrtoumax+0x200>
5a9d:	ba 00 02 00 00       	mov    edx,0x200
5aa2:	48 89 d0             	mov    rax,rdx
5aa5:	48 f7 e3             	mul    rbx
5aa8:	0f 80 80 00 00 00    	jo     5b2e <xstrtoumax+0x2ce>
5aae:	48 c1 e3 09          	shl    rbx,0x9
5ab2:	eb ac                	jmp    5a60 <xstrtoumax+0x200>
5ab4:	41 b8 07 00 00 00    	mov    r8d,0x7
5aba:	45 31 c9             	xor    r9d,r9d
5abd:	0f 1f 00             	nop    DWORD PTR [rax]
5ac0:	48 89 d8             	mov    rax,rbx
5ac3:	48 f7 e6             	mul    rsi
5ac6:	48 89 c3             	mov    rbx,rax
5ac9:	0f 80 8f 01 00 00    	jo     5c5e <xstrtoumax+0x3fe>
5acf:	41 83 e8 01          	sub    r8d,0x1
5ad3:	75 eb                	jne    5ac0 <xstrtoumax+0x260>
5ad5:	44 09 cd             	or     ebp,r9d
5ad8:	eb 86                	jmp    5a60 <xstrtoumax+0x200>
5ada:	41 b8 08 00 00 00    	mov    r8d,0x8
5ae0:	45 31 c9             	xor    r9d,r9d
5ae3:	0f 1f 44 00 00       	nop    DWORD PTR [rax+rax*1+0x0]
5ae8:	48 89 d8             	mov    rax,rbx
5aeb:	48 f7 e6             	mul    rsi
5aee:	48 89 c3             	mov    rbx,rax
5af1:	0f 80 49 01 00 00    	jo     5c40 <xstrtoumax+0x3e0>
5af7:	41 83 e8 01          	sub    r8d,0x1
5afb:	75 eb                	jne    5ae8 <xstrtoumax+0x288>
5afd:	eb d6                	jmp    5ad5 <xstrtoumax+0x275>
5aff:	41 b8 04 00 00 00    	mov    r8d,0x4
5b05:	45 31 c9             	xor    r9d,r9d
5b08:	48 89 d8             	mov    rax,rbx
5b0b:	48 f7 e6             	mul    rsi
5b0e:	48 89 c3             	mov    rbx,rax
5b11:	0f 80 fc 00 00 00    	jo     5c13 <xstrtoumax+0x3b3>
5b17:	41 83 e8 01          	sub    r8d,0x1
5b1b:	75 eb                	jne    5b08 <xstrtoumax+0x2a8>
5b1d:	eb b6                	jmp    5ad5 <xstrtoumax+0x275>
5b1f:	48 89 d8             	mov    rax,rbx
5b22:	48 f7 e6             	mul    rsi
5b25:	48 89 c3             	mov    rbx,rax
5b28:	0f 81 32 ff ff ff    	jno    5a60 <xstrtoumax+0x200>
5b2e:	bd 01 00 00 00       	mov    ebp,0x1
5b33:	48 83 cb ff          	or     rbx,0xffffffffffffffff
5b37:	e9 24 ff ff ff       	jmp    5a60 <xstrtoumax+0x200>
5b3c:	0f 1f 40 00          	nop    DWORD PTR [rax+0x0]
5b40:	41 b8 05 00 00 00    	mov    r8d,0x5
5b46:	45 31 c9             	xor    r9d,r9d
5b49:	48 89 d8             	mov    rax,rbx
5b4c:	48 f7 e6             	mul    rsi
5b4f:	48 89 c3             	mov    rbx,rax
5b52:	0f 80 f7 00 00 00    	jo     5c4f <xstrtoumax+0x3ef>
5b58:	41 83 e8 01          	sub    r8d,0x1
5b5c:	75 eb                	jne    5b49 <xstrtoumax+0x2e9>
5b5e:	e9 72 ff ff ff       	jmp    5ad5 <xstrtoumax+0x275>
5b63:	41 b8 06 00 00 00    	mov    r8d,0x6
5b69:	45 31 c9             	xor    r9d,r9d
5b6c:	48 89 d8             	mov    rax,rbx
5b6f:	48 f7 e6             	mul    rsi
5b72:	48 89 c3             	mov    rbx,rax
5b75:	0f 80 89 00 00 00    	jo     5c04 <xstrtoumax+0x3a4>
5b7b:	41 83 e8 01          	sub    r8d,0x1
5b7f:	75 eb                	jne    5b6c <xstrtoumax+0x30c>
5b81:	e9 4f ff ff ff       	jmp    5ad5 <xstrtoumax+0x275>
5b86:	ba 00 04 00 00       	mov    edx,0x400
5b8b:	48 89 d0             	mov    rax,rdx
5b8e:	48 f7 e3             	mul    rbx
5b91:	70 9b                	jo     5b2e <xstrtoumax+0x2ce>
5b93:	48 c1 e3 0a          	shl    rbx,0xa
5b97:	e9 c4 fe ff ff       	jmp    5a60 <xstrtoumax+0x200>
5b9c:	48 89 d8             	mov    rax,rbx
5b9f:	48 f7 e6             	mul    rsi
5ba2:	0f 80 c5 00 00 00    	jo     5c6d <xstrtoumax+0x40d>
5ba8:	45 31 c0             	xor    r8d,r8d
5bab:	48 f7 e6             	mul    rsi
5bae:	0f 81 93 fe ff ff    	jno    5a47 <xstrtoumax+0x1e7>
5bb4:	41 b8 01 00 00 00    	mov    r8d,0x1
5bba:	48 83 c8 ff          	or     rax,0xffffffffffffffff
5bbe:	e9 84 fe ff ff       	jmp    5a47 <xstrtoumax+0x1e7>
5bc3:	0f 1f 44 00 00       	nop    DWORD PTR [rax+rax*1+0x0]
5bc8:	31 ff                	xor    edi,edi
5bca:	80 79 02 42          	cmp    BYTE PTR [rcx+0x2],0x42
5bce:	be 00 04 00 00       	mov    esi,0x400
5bd3:	40 0f 94 c7          	sete   dil
5bd7:	8d 7c 3f 01          	lea    edi,[rdi+rdi*1+0x1]
5bdb:	e9 3a fe ff ff       	jmp    5a1a <xstrtoumax+0x1ba>
5be0:	e8 cb ba ff ff       	call   16b0 <__stack_chk_fail@plt>
5be5:	48 8d 0d 34 15 00 00 	lea    rcx,[rip+0x1534]        # 7120 <__PRETTY_FUNCTION__.4162>
5bec:	48 8d 35 0d 14 00 00 	lea    rsi,[rip+0x140d]        # 7000 <version_etc_copyright+0x40>
5bf3:	48 8d 3d 26 14 00 00 	lea    rdi,[rip+0x1426]        # 7020 <version_etc_copyright+0x60>
5bfa:	ba 54 00 00 00       	mov    edx,0x54
5bff:	e8 1c bb ff ff       	call   1720 <__assert_fail@plt>
5c04:	41 b9 01 00 00 00    	mov    r9d,0x1
5c0a:	48 83 cb ff          	or     rbx,0xffffffffffffffff
5c0e:	e9 68 ff ff ff       	jmp    5b7b <xstrtoumax+0x31b>
5c13:	41 b9 01 00 00 00    	mov    r9d,0x1
5c19:	48 83 cb ff          	or     rbx,0xffffffffffffffff
5c1d:	e9 f5 fe ff ff       	jmp    5b17 <xstrtoumax+0x2b7>
5c22:	41 b8 01 00 00 00    	mov    r8d,0x1
5c28:	48 83 cb ff          	or     rbx,0xffffffffffffffff
5c2c:	e9 22 fe ff ff       	jmp    5a53 <xstrtoumax+0x1f3>
5c31:	48 83 c8 ff          	or     rax,0xffffffffffffffff
5c35:	41 b8 01 00 00 00    	mov    r8d,0x1
5c3b:	e9 07 fe ff ff       	jmp    5a47 <xstrtoumax+0x1e7>
5c40:	41 b9 01 00 00 00    	mov    r9d,0x1
5c46:	48 83 cb ff          	or     rbx,0xffffffffffffffff
5c4a:	e9 a8 fe ff ff       	jmp    5af7 <xstrtoumax+0x297>
5c4f:	41 b9 01 00 00 00    	mov    r9d,0x1
5c55:	48 83 cb ff          	or     rbx,0xffffffffffffffff
5c59:	e9 fa fe ff ff       	jmp    5b58 <xstrtoumax+0x2f8>
5c5e:	41 b9 01 00 00 00    	mov    r9d,0x1
5c64:	48 83 cb ff          	or     rbx,0xffffffffffffffff
5c68:	e9 62 fe ff ff       	jmp    5acf <xstrtoumax+0x26f>
5c6d:	41 b8 01 00 00 00    	mov    r8d,0x1
5c73:	48 83 c8 ff          	or     rax,0xffffffffffffffff
5c77:	e9 2f ff ff ff       	jmp    5bab <xstrtoumax+0x34b>
5c7c:	0f 1f 40 00          	nop    DWORD PTR [rax+0x0]

0000000000005c80 <rpl_fclose>:
5c80:	41 54                	push   r12
5c82:	55                   	push   rbp
5c83:	53                   	push   rbx
5c84:	48 89 fb             	mov    rbx,rdi
5c87:	e8 44 bb ff ff       	call   17d0 <fileno@plt>
5c8c:	85 c0                	test   eax,eax
5c8e:	48 89 df             	mov    rdi,rbx
5c91:	78 54                	js     5ce7 <rpl_fclose+0x67>
5c93:	e8 78 bb ff ff       	call   1810 <__freading@plt>
5c98:	85 c0                	test   eax,eax
5c9a:	75 2c                	jne    5cc8 <rpl_fclose+0x48>
5c9c:	48 89 df             	mov    rdi,rbx
5c9f:	e8 5c 00 00 00       	call   5d00 <rpl_fflush>
5ca4:	85 c0                	test   eax,eax
5ca6:	74 3c                	je     5ce4 <rpl_fclose+0x64>
5ca8:	e8 53 b9 ff ff       	call   1600 <__errno_location@plt>
5cad:	44 8b 20             	mov    r12d,DWORD PTR [rax]
5cb0:	48 89 df             	mov    rdi,rbx
5cb3:	48 89 c5             	mov    rbp,rax
5cb6:	e8 a5 b9 ff ff       	call   1660 <fclose@plt>
5cbb:	45 85 e4             	test   r12d,r12d
5cbe:	75 30                	jne    5cf0 <rpl_fclose+0x70>
5cc0:	5b                   	pop    rbx
5cc1:	5d                   	pop    rbp
5cc2:	41 5c                	pop    r12
5cc4:	c3                   	ret
5cc5:	0f 1f 00             	nop    DWORD PTR [rax]
5cc8:	48 89 df             	mov    rdi,rbx
5ccb:	e8 00 bb ff ff       	call   17d0 <fileno@plt>
5cd0:	31 f6                	xor    esi,esi
5cd2:	ba 01 00 00 00       	mov    edx,0x1
5cd7:	89 c7                	mov    edi,eax
5cd9:	e8 32 ba ff ff       	call   1710 <lseek@plt>
5cde:	48 83 f8 ff          	cmp    rax,0xffffffffffffffff
5ce2:	75 b8                	jne    5c9c <rpl_fclose+0x1c>
5ce4:	48 89 df             	mov    rdi,rbx
5ce7:	5b                   	pop    rbx
5ce8:	5d                   	pop    rbp
5ce9:	41 5c                	pop    r12
5ceb:	e9 70 b9 ff ff       	jmp    1660 <fclose@plt>
5cf0:	44 89 65 00          	mov    DWORD PTR [rbp+0x0],r12d
5cf4:	b8 ff ff ff ff       	mov    eax,0xffffffff
5cf9:	eb c5                	jmp    5cc0 <rpl_fclose+0x40>
5cfb:	0f 1f 44 00 00       	nop    DWORD PTR [rax+rax*1+0x0]

0000000000005d00 <rpl_fflush>:
5d00:	48 85 ff             	test   rdi,rdi
5d03:	53                   	push   rbx
5d04:	48 89 fb             	mov    rbx,rdi
5d07:	74 11                	je     5d1a <rpl_fflush+0x1a>
5d09:	e8 02 bb ff ff       	call   1810 <__freading@plt>
5d0e:	85 c0                	test   eax,eax
5d10:	74 08                	je     5d1a <rpl_fflush+0x1a>
5d12:	f7 03 00 01 00 00    	test   DWORD PTR [rbx],0x100
5d18:	75 0e                	jne    5d28 <rpl_fflush+0x28>
5d1a:	48 89 df             	mov    rdi,rbx
5d1d:	5b                   	pop    rbx
5d1e:	e9 cd ba ff ff       	jmp    17f0 <fflush@plt>
5d23:	0f 1f 44 00 00       	nop    DWORD PTR [rax+rax*1+0x0]
5d28:	48 89 df             	mov    rdi,rbx
5d2b:	ba 01 00 00 00       	mov    edx,0x1
5d30:	31 f6                	xor    esi,esi
5d32:	e8 09 00 00 00       	call   5d40 <rpl_fseeko>
5d37:	48 89 df             	mov    rdi,rbx
5d3a:	5b                   	pop    rbx
5d3b:	e9 b0 ba ff ff       	jmp    17f0 <fflush@plt>

0000000000005d40 <rpl_fseeko>:
5d40:	48 8b 47 08          	mov    rax,QWORD PTR [rdi+0x8]
5d44:	48 39 47 10          	cmp    QWORD PTR [rdi+0x10],rax
5d48:	74 06                	je     5d50 <rpl_fseeko+0x10>
5d4a:	e9 41 bb ff ff       	jmp    1890 <fseeko@plt>
5d4f:	90                   	nop
5d50:	48 8b 47 20          	mov    rax,QWORD PTR [rdi+0x20]
5d54:	48 39 47 28          	cmp    QWORD PTR [rdi+0x28],rax
5d58:	75 f0                	jne    5d4a <rpl_fseeko+0xa>
5d5a:	48 83 7f 48 00       	cmp    QWORD PTR [rdi+0x48],0x0
5d5f:	75 e9                	jne    5d4a <rpl_fseeko+0xa>
5d61:	41 54                	push   r12
5d63:	55                   	push   rbp
5d64:	41 89 d4             	mov    r12d,edx
5d67:	53                   	push   rbx
5d68:	48 89 f5             	mov    rbp,rsi
5d6b:	48 89 fb             	mov    rbx,rdi
5d6e:	e8 5d ba ff ff       	call   17d0 <fileno@plt>
5d73:	44 89 e2             	mov    edx,r12d
5d76:	48 89 ee             	mov    rsi,rbp
5d79:	89 c7                	mov    edi,eax
5d7b:	e8 90 b9 ff ff       	call   1710 <lseek@plt>
5d80:	48 83 f8 ff          	cmp    rax,0xffffffffffffffff
5d84:	74 0c                	je     5d92 <rpl_fseeko+0x52>
5d86:	83 23 ef             	and    DWORD PTR [rbx],0xffffffef
5d89:	48 89 83 90 00 00 00 	mov    QWORD PTR [rbx+0x90],rax
5d90:	31 c0                	xor    eax,eax
5d92:	5b                   	pop    rbx
5d93:	5d                   	pop    rbp
5d94:	41 5c                	pop    r12
5d96:	c3                   	ret
5d97:	66 0f 1f 84 00 00 00 	nop    WORD PTR [rax+rax*1+0x0]
5d9e:	00 00

0000000000005da0 <rpl_mbrtowc>:
5da0:	41 55                	push   r13
5da2:	41 54                	push   r12
5da4:	49 89 f5             	mov    r13,rsi
5da7:	55                   	push   rbp
5da8:	53                   	push   rbx
5da9:	48 89 fb             	mov    rbx,rdi
5dac:	49 89 d4             	mov    r12,rdx
5daf:	48 83 ec 18          	sub    rsp,0x18
5db3:	64 48 8b 04 25 28 00 	mov    rax,QWORD PTR fs:0x28
5dba:	00 00
5dbc:	48 89 44 24 08       	mov    QWORD PTR [rsp+0x8],rax
5dc1:	31 c0                	xor    eax,eax
5dc3:	48 8d 44 24 04       	lea    rax,[rsp+0x4]
5dc8:	48 85 ff             	test   rdi,rdi
5dcb:	48 0f 44 d8          	cmove  rbx,rax
5dcf:	48 89 df             	mov    rdi,rbx
5dd2:	e8 f9 b8 ff ff       	call   16d0 <mbrtowc@plt>
5dd7:	48 83 f8 fd          	cmp    rax,0xfffffffffffffffd
5ddb:	48 89 c5             	mov    rbp,rax
5dde:	76 20                	jbe    5e00 <rpl_mbrtowc+0x60>
5de0:	4d 85 e4             	test   r12,r12
5de3:	74 1b                	je     5e00 <rpl_mbrtowc+0x60>
5de5:	31 ff                	xor    edi,edi
5de7:	e8 54 04 00 00       	call   6240 <hard_locale>
5dec:	84 c0                	test   al,al
5dee:	75 10                	jne    5e00 <rpl_mbrtowc+0x60>
5df0:	41 0f b6 45 00       	movzx  eax,BYTE PTR [r13+0x0]
5df5:	bd 01 00 00 00       	mov    ebp,0x1
5dfa:	89 03                	mov    DWORD PTR [rbx],eax
5dfc:	0f 1f 40 00          	nop    DWORD PTR [rax+0x0]
5e00:	48 8b 54 24 08       	mov    rdx,QWORD PTR [rsp+0x8]
5e05:	64 48 33 14 25 28 00 	xor    rdx,QWORD PTR fs:0x28
5e0c:	00 00
5e0e:	48 89 e8             	mov    rax,rbp
5e11:	75 0b                	jne    5e1e <rpl_mbrtowc+0x7e>
5e13:	48 83 c4 18          	add    rsp,0x18
5e17:	5b                   	pop    rbx
5e18:	5d                   	pop    rbp
5e19:	41 5c                	pop    r12
5e1b:	41 5d                	pop    r13
5e1d:	c3                   	ret
5e1e:	e8 8d b8 ff ff       	call   16b0 <__stack_chk_fail@plt>
5e23:	66 2e 0f 1f 84 00 00 	nop    WORD PTR cs:[rax+rax*1+0x0]
5e2a:	00 00 00
5e2d:	0f 1f 00             	nop    DWORD PTR [rax]

0000000000005e30 <__argmatch_die>:
5e30:	bf 01 00 00 00       	mov    edi,0x1
5e35:	e9 76 c2 ff ff       	jmp    20b0 <usage>
5e3a:	66 0f 1f 44 00 00    	nop    WORD PTR [rax+rax*1+0x0]

0000000000005e40 <argmatch>:
5e40:	41 57                	push   r15
5e42:	41 56                	push   r14
5e44:	49 89 f7             	mov    r15,rsi
5e47:	41 55                	push   r13
5e49:	41 54                	push   r12
5e4b:	49 89 cd             	mov    r13,rcx
5e4e:	55                   	push   rbp
5e4f:	53                   	push   rbx
5e50:	48 89 d5             	mov    rbp,rdx
5e53:	48 83 ec 28          	sub    rsp,0x28
5e57:	48 89 7c 24 08       	mov    QWORD PTR [rsp+0x8],rdi
5e5c:	48 89 54 24 18       	mov    QWORD PTR [rsp+0x18],rdx
5e61:	e8 3a b8 ff ff       	call   16a0 <strlen@plt>
5e66:	4d 8b 37             	mov    r14,QWORD PTR [r15]
5e69:	48 c7 04 24 ff ff ff 	mov    QWORD PTR [rsp],0xffffffffffffffff
5e70:	ff
5e71:	4d 85 f6             	test   r14,r14
5e74:	0f 84 b3 00 00 00    	je     5f2d <argmatch+0xed>
5e7a:	49 89 c4             	mov    r12,rax
5e7d:	c6 44 24 17 00       	mov    BYTE PTR [rsp+0x17],0x0
5e82:	31 db                	xor    ebx,ebx
5e84:	eb 51                	jmp    5ed7 <argmatch+0x97>
5e86:	66 2e 0f 1f 84 00 00 	nop    WORD PTR cs:[rax+rax*1+0x0]
5e8d:	00 00 00
5e90:	48 8b 44 24 18       	mov    rax,QWORD PTR [rsp+0x18]
5e95:	48 85 c0             	test   rax,rax
5e98:	0f 84 a2 00 00 00    	je     5f40 <argmatch+0x100>
5e9e:	48 8b 3c 24          	mov    rdi,QWORD PTR [rsp]
5ea2:	4c 89 ea             	mov    rdx,r13
5ea5:	48 89 ee             	mov    rsi,rbp
5ea8:	49 0f af fd          	imul   rdi,r13
5eac:	48 01 c7             	add    rdi,rax
5eaf:	e8 cc b8 ff ff       	call   1780 <memcmp@plt>
5eb4:	85 c0                	test   eax,eax
5eb6:	0f b6 44 24 17       	movzx  eax,BYTE PTR [rsp+0x17]
5ebb:	b9 01 00 00 00       	mov    ecx,0x1
5ec0:	0f 45 c1             	cmovne eax,ecx
5ec3:	88 44 24 17          	mov    BYTE PTR [rsp+0x17],al
5ec7:	48 83 c3 01          	add    rbx,0x1
5ecb:	4c 01 ed             	add    rbp,r13
5ece:	4d 8b 34 df          	mov    r14,QWORD PTR [r15+rbx*8]
5ed2:	4d 85 f6             	test   r14,r14
5ed5:	74 41                	je     5f18 <argmatch+0xd8>
5ed7:	48 8b 74 24 08       	mov    rsi,QWORD PTR [rsp+0x8]
5edc:	4c 89 e2             	mov    rdx,r12
5edf:	4c 89 f7             	mov    rdi,r14
5ee2:	e8 29 b7 ff ff       	call   1610 <strncmp@plt>
5ee7:	85 c0                	test   eax,eax
5ee9:	75 dc                	jne    5ec7 <argmatch+0x87>
5eeb:	4c 89 f7             	mov    rdi,r14
5eee:	e8 ad b7 ff ff       	call   16a0 <strlen@plt>
5ef3:	4c 39 e0             	cmp    rax,r12
5ef6:	74 58                	je     5f50 <argmatch+0x110>
5ef8:	48 83 3c 24 ff       	cmp    QWORD PTR [rsp],0xffffffffffffffff
5efd:	75 91                	jne    5e90 <argmatch+0x50>
5eff:	48 89 1c 24          	mov    QWORD PTR [rsp],rbx
5f03:	48 83 c3 01          	add    rbx,0x1
5f07:	4c 01 ed             	add    rbp,r13
5f0a:	4d 8b 34 df          	mov    r14,QWORD PTR [r15+rbx*8]
5f0e:	4d 85 f6             	test   r14,r14
5f11:	75 c4                	jne    5ed7 <argmatch+0x97>
5f13:	0f 1f 44 00 00       	nop    DWORD PTR [rax+rax*1+0x0]
5f18:	80 7c 24 17 00       	cmp    BYTE PTR [rsp+0x17],0x0
5f1d:	48 c7 c0 fe ff ff ff 	mov    rax,0xfffffffffffffffe
5f24:	48 0f 44 04 24       	cmove  rax,QWORD PTR [rsp]
5f29:	48 89 04 24          	mov    QWORD PTR [rsp],rax
5f2d:	48 8b 04 24          	mov    rax,QWORD PTR [rsp]
5f31:	48 83 c4 28          	add    rsp,0x28
5f35:	5b                   	pop    rbx
5f36:	5d                   	pop    rbp
5f37:	41 5c                	pop    r12
5f39:	41 5d                	pop    r13
5f3b:	41 5e                	pop    r14
5f3d:	41 5f                	pop    r15
5f3f:	c3                   	ret
5f40:	c6 44 24 17 01       	mov    BYTE PTR [rsp+0x17],0x1
5f45:	eb 80                	jmp    5ec7 <argmatch+0x87>
5f47:	66 0f 1f 84 00 00 00 	nop    WORD PTR [rax+rax*1+0x0]
5f4e:	00 00
5f50:	48 89 1c 24          	mov    QWORD PTR [rsp],rbx
5f54:	eb d7                	jmp    5f2d <argmatch+0xed>
5f56:	66 2e 0f 1f 84 00 00 	nop    WORD PTR cs:[rax+rax*1+0x0]
5f5d:	00 00 00

0000000000005f60 <argmatch_invalid>:
5f60:	48 83 fa ff          	cmp    rdx,0xffffffffffffffff
5f64:	41 54                	push   r12
5f66:	ba 05 00 00 00       	mov    edx,0x5
5f6b:	55                   	push   rbp
5f6c:	49 89 f4             	mov    r12,rsi
5f6f:	53                   	push   rbx
5f70:	48 89 fd             	mov    rbp,rdi
5f73:	74 4b                	je     5fc0 <argmatch_invalid+0x60>
5f75:	48 8d 35 ca 11 00 00 	lea    rsi,[rip+0x11ca]        # 7146 <__PRETTY_FUNCTION__.4162+0x26>
5f7c:	31 ff                	xor    edi,edi
5f7e:	e8 fd b6 ff ff       	call   1680 <dcgettext@plt>
5f83:	48 89 c3             	mov    rbx,rax
5f86:	48 89 ee             	mov    rsi,rbp
5f89:	bf 01 00 00 00       	mov    edi,0x1
5f8e:	e8 7d ef ff ff       	call   4f10 <quote_n>
5f93:	4c 89 e2             	mov    rdx,r12
5f96:	48 89 c5             	mov    rbp,rax
5f99:	be 08 00 00 00       	mov    esi,0x8
5f9e:	31 ff                	xor    edi,edi
5fa0:	e8 9b eb ff ff       	call   4b40 <quotearg_n_style>
5fa5:	49 89 e8             	mov    r8,rbp
5fa8:	48 89 da             	mov    rdx,rbx
5fab:	48 89 c1             	mov    rcx,rax
5fae:	5b                   	pop    rbx
5faf:	5d                   	pop    rbp
5fb0:	41 5c                	pop    r12
5fb2:	31 f6                	xor    esi,esi
5fb4:	31 ff                	xor    edi,edi
5fb6:	31 c0                	xor    eax,eax
5fb8:	e9 b3 b8 ff ff       	jmp    1870 <error@plt>
5fbd:	0f 1f 00             	nop    DWORD PTR [rax]
5fc0:	48 8d 35 64 11 00 00 	lea    rsi,[rip+0x1164]        # 712b <__PRETTY_FUNCTION__.4162+0xb>
5fc7:	31 ff                	xor    edi,edi
5fc9:	e8 b2 b6 ff ff       	call   1680 <dcgettext@plt>
5fce:	48 89 c3             	mov    rbx,rax
5fd1:	eb b3                	jmp    5f86 <argmatch_invalid+0x26>
5fd3:	0f 1f 00             	nop    DWORD PTR [rax]
5fd6:	66 2e 0f 1f 84 00 00 	nop    WORD PTR cs:[rax+rax*1+0x0]
5fdd:	00 00 00

0000000000005fe0 <argmatch_valid>:
5fe0:	41 57                	push   r15
5fe2:	41 56                	push   r14
5fe4:	49 89 fe             	mov    r14,rdi
5fe7:	41 55                	push   r13
5fe9:	41 54                	push   r12
5feb:	31 ff                	xor    edi,edi
5fed:	55                   	push   rbp
5fee:	53                   	push   rbx
5fef:	48 89 f5             	mov    rbp,rsi
5ff2:	48 8d 35 6a 11 00 00 	lea    rsi,[rip+0x116a]        # 7163 <__PRETTY_FUNCTION__.4162+0x43>
5ff9:	49 89 d4             	mov    r12,rdx
5ffc:	ba 05 00 00 00       	mov    edx,0x5
6001:	48 83 ec 08          	sub    rsp,0x8
6005:	48 8b 1d d4 30 20 00 	mov    rbx,QWORD PTR [rip+0x2030d4]        # 2090e0 <stderr@@GLIBC_2.2.5>
600c:	e8 6f b6 ff ff       	call   1680 <dcgettext@plt>
6011:	48 89 c7             	mov    rdi,rax
6014:	48 89 de             	mov    rsi,rbx
6017:	e8 74 b7 ff ff       	call   1790 <fputs_unlocked@plt>
601c:	4d 8b 3e             	mov    r15,QWORD PTR [r14]
601f:	4d 85 ff             	test   r15,r15
6022:	0f 84 90 00 00 00    	je     60b8 <argmatch_valid+0xd8>
6028:	45 31 ed             	xor    r13d,r13d
602b:	31 db                	xor    ebx,ebx
602d:	eb 39                	jmp    6068 <argmatch_valid+0x88>
602f:	90                   	nop
6030:	4c 89 ff             	mov    rdi,r15
6033:	48 83 c3 01          	add    rbx,0x1
6037:	49 89 ed             	mov    r13,rbp
603a:	e8 f1 ee ff ff       	call   4f30 <quote>
603f:	48 8b 3d 9a 30 20 00 	mov    rdi,QWORD PTR [rip+0x20309a]        # 2090e0 <stderr@@GLIBC_2.2.5>
6046:	48 8d 15 2b 11 00 00 	lea    rdx,[rip+0x112b]        # 7178 <__PRETTY_FUNCTION__.4162+0x58>
604d:	48 89 c1             	mov    rcx,rax
6050:	be 01 00 00 00       	mov    esi,0x1
6055:	31 c0                	xor    eax,eax
6057:	4c 01 e5             	add    rbp,r12
605a:	e8 81 b8 ff ff       	call   18e0 <__fprintf_chk@plt>
605f:	4d 8b 3c de          	mov    r15,QWORD PTR [r14+rbx*8]
6063:	4d 85 ff             	test   r15,r15
6066:	74 50                	je     60b8 <argmatch_valid+0xd8>
6068:	48 85 db             	test   rbx,rbx
606b:	74 c3                	je     6030 <argmatch_valid+0x50>
606d:	4c 89 e2             	mov    rdx,r12
6070:	48 89 ee             	mov    rsi,rbp
6073:	4c 89 ef             	mov    rdi,r13
6076:	e8 05 b7 ff ff       	call   1780 <memcmp@plt>
607b:	85 c0                	test   eax,eax
607d:	75 b1                	jne    6030 <argmatch_valid+0x50>
607f:	4c 89 ff             	mov    rdi,r15
6082:	48 83 c3 01          	add    rbx,0x1
6086:	4c 01 e5             	add    rbp,r12
6089:	e8 a2 ee ff ff       	call   4f30 <quote>
608e:	48 8b 3d 4b 30 20 00 	mov    rdi,QWORD PTR [rip+0x20304b]        # 2090e0 <stderr@@GLIBC_2.2.5>
6095:	48 8d 15 e4 10 00 00 	lea    rdx,[rip+0x10e4]        # 7180 <__PRETTY_FUNCTION__.4162+0x60>
609c:	48 89 c1             	mov    rcx,rax
609f:	be 01 00 00 00       	mov    esi,0x1
60a4:	31 c0                	xor    eax,eax
60a6:	e8 35 b8 ff ff       	call   18e0 <__fprintf_chk@plt>
60ab:	4d 8b 3c de          	mov    r15,QWORD PTR [r14+rbx*8]
60af:	4d 85 ff             	test   r15,r15
60b2:	75 b4                	jne    6068 <argmatch_valid+0x88>
60b4:	0f 1f 40 00          	nop    DWORD PTR [rax+0x0]
60b8:	48 8b 3d 21 30 20 00 	mov    rdi,QWORD PTR [rip+0x203021]        # 2090e0 <stderr@@GLIBC_2.2.5>
60bf:	48 8b 47 28          	mov    rax,QWORD PTR [rdi+0x28]
60c3:	48 3b 47 30          	cmp    rax,QWORD PTR [rdi+0x30]
60c7:	73 1f                	jae    60e8 <argmatch_valid+0x108>
60c9:	48 8d 50 01          	lea    rdx,[rax+0x1]
60cd:	48 89 57 28          	mov    QWORD PTR [rdi+0x28],rdx
60d1:	c6 00 0a             	mov    BYTE PTR [rax],0xa
60d4:	48 83 c4 08          	add    rsp,0x8
60d8:	5b                   	pop    rbx
60d9:	5d                   	pop    rbp
60da:	41 5c                	pop    r12
60dc:	41 5d                	pop    r13
60de:	41 5e                	pop    r14
60e0:	41 5f                	pop    r15
60e2:	c3                   	ret
60e3:	0f 1f 44 00 00       	nop    DWORD PTR [rax+rax*1+0x0]
60e8:	48 83 c4 08          	add    rsp,0x8
60ec:	be 0a 00 00 00       	mov    esi,0xa
60f1:	5b                   	pop    rbx
60f2:	5d                   	pop    rbp
60f3:	41 5c                	pop    r12
60f5:	41 5d                	pop    r13
60f7:	41 5e                	pop    r14
60f9:	41 5f                	pop    r15
60fb:	e9 f0 b5 ff ff       	jmp    16f0 <__overflow@plt>

0000000000006100 <__xargmatch_internal>:
6100:	41 57                	push   r15
6102:	41 56                	push   r14
6104:	49 89 fe             	mov    r14,rdi
6107:	41 55                	push   r13
6109:	41 54                	push   r12
610b:	49 89 f4             	mov    r12,rsi
610e:	55                   	push   rbp
610f:	53                   	push   rbx
6110:	48 89 cd             	mov    rbp,rcx
6113:	48 89 d3             	mov    rbx,rdx
6116:	4c 89 c1             	mov    rcx,r8
6119:	48 89 ea             	mov    rdx,rbp
611c:	48 83 ec 08          	sub    rsp,0x8
6120:	48 89 de             	mov    rsi,rbx
6123:	4c 89 e7             	mov    rdi,r12
6126:	4d 89 c7             	mov    r15,r8
6129:	4d 89 cd             	mov    r13,r9
612c:	e8 0f fd ff ff       	call   5e40 <argmatch>
6131:	48 85 c0             	test   rax,rax
6134:	78 0f                	js     6145 <__xargmatch_internal+0x45>
6136:	48 83 c4 08          	add    rsp,0x8
613a:	5b                   	pop    rbx
613b:	5d                   	pop    rbp
613c:	41 5c                	pop    r12
613e:	41 5d                	pop    r13
6140:	41 5e                	pop    r14
6142:	41 5f                	pop    r15
6144:	c3                   	ret
6145:	48 89 c2             	mov    rdx,rax
6148:	4c 89 e6             	mov    rsi,r12
614b:	4c 89 f7             	mov    rdi,r14
614e:	e8 0d fe ff ff       	call   5f60 <argmatch_invalid>
6153:	4c 89 fa             	mov    rdx,r15
6156:	48 89 ee             	mov    rsi,rbp
6159:	48 89 df             	mov    rdi,rbx
615c:	e8 7f fe ff ff       	call   5fe0 <argmatch_valid>
6161:	41 ff d5             	call   r13
6164:	48 c7 c0 ff ff ff ff 	mov    rax,0xffffffffffffffff
616b:	eb c9                	jmp    6136 <__xargmatch_internal+0x36>
616d:	0f 1f 00             	nop    DWORD PTR [rax]

0000000000006170 <argmatch_to_argument>:
6170:	41 56                	push   r14
6172:	41 55                	push   r13
6174:	41 54                	push   r12
6176:	55                   	push   rbp
6177:	53                   	push   rbx
6178:	4c 8b 36             	mov    r14,QWORD PTR [rsi]
617b:	4d 85 f6             	test   r14,r14
617e:	74 31                	je     61b1 <argmatch_to_argument+0x41>
6180:	49 89 cc             	mov    r12,rcx
6183:	49 89 fd             	mov    r13,rdi
6186:	48 89 d5             	mov    rbp,rdx
6189:	48 8d 5e 08          	lea    rbx,[rsi+0x8]
618d:	eb 10                	jmp    619f <argmatch_to_argument+0x2f>
618f:	90                   	nop
6190:	4c 8b 33             	mov    r14,QWORD PTR [rbx]
6193:	4c 01 e5             	add    rbp,r12
6196:	48 83 c3 08          	add    rbx,0x8
619a:	4d 85 f6             	test   r14,r14
619d:	74 12                	je     61b1 <argmatch_to_argument+0x41>
619f:	4c 89 e2             	mov    rdx,r12
61a2:	48 89 ee             	mov    rsi,rbp
61a5:	4c 89 ef             	mov    rdi,r13
61a8:	e8 d3 b5 ff ff       	call   1780 <memcmp@plt>
61ad:	85 c0                	test   eax,eax
61af:	75 df                	jne    6190 <argmatch_to_argument+0x20>
61b1:	5b                   	pop    rbx
61b2:	4c 89 f0             	mov    rax,r14
61b5:	5d                   	pop    rbp
61b6:	41 5c                	pop    r12
61b8:	41 5d                	pop    r13
61ba:	41 5e                	pop    r14
61bc:	c3                   	ret
61bd:	0f 1f 00             	nop    DWORD PTR [rax]

00000000000061c0 <close_stream>:
61c0:	41 54                	push   r12
61c2:	55                   	push   rbp
61c3:	48 89 fd             	mov    rbp,rdi
61c6:	53                   	push   rbx
61c7:	e8 64 b4 ff ff       	call   1630 <__fpending@plt>
61cc:	8b 5d 00             	mov    ebx,DWORD PTR [rbp+0x0]
61cf:	48 89 ef             	mov    rdi,rbp
61d2:	49 89 c4             	mov    r12,rax
61d5:	e8 a6 fa ff ff       	call   5c80 <rpl_fclose>
61da:	83 e3 20             	and    ebx,0x20
61dd:	85 db                	test   ebx,ebx
61df:	75 17                	jne    61f8 <close_stream+0x38>
61e1:	85 c0                	test   eax,eax
61e3:	74 0a                	je     61ef <close_stream+0x2f>
61e5:	4d 85 e4             	test   r12,r12
61e8:	b8 ff ff ff ff       	mov    eax,0xffffffff
61ed:	74 39                	je     6228 <close_stream+0x68>
61ef:	5b                   	pop    rbx
61f0:	5d                   	pop    rbp
61f1:	41 5c                	pop    r12
61f3:	c3                   	ret
61f4:	0f 1f 40 00          	nop    DWORD PTR [rax+0x0]
61f8:	85 c0                	test   eax,eax
61fa:	75 1c                	jne    6218 <close_stream+0x58>
61fc:	e8 ff b3 ff ff       	call   1600 <__errno_location@plt>
6201:	c7 00 00 00 00 00    	mov    DWORD PTR [rax],0x0
6207:	b8 ff ff ff ff       	mov    eax,0xffffffff
620c:	5b                   	pop    rbx
620d:	5d                   	pop    rbp
620e:	41 5c                	pop    r12
6210:	c3                   	ret
6211:	0f 1f 80 00 00 00 00 	nop    DWORD PTR [rax+0x0]
6218:	5b                   	pop    rbx
6219:	b8 ff ff ff ff       	mov    eax,0xffffffff
621e:	5d                   	pop    rbp
621f:	41 5c                	pop    r12
6221:	c3                   	ret
6222:	66 0f 1f 44 00 00    	nop    WORD PTR [rax+rax*1+0x0]
6228:	e8 d3 b3 ff ff       	call   1600 <__errno_location@plt>
622d:	83 38 09             	cmp    DWORD PTR [rax],0x9
6230:	5b                   	pop    rbx
6231:	5d                   	pop    rbp
6232:	41 5c                	pop    r12
6234:	0f 95 c0             	setne  al
6237:	0f b6 c0             	movzx  eax,al
623a:	f7 d8                	neg    eax
623c:	c3                   	ret
623d:	0f 1f 00             	nop    DWORD PTR [rax]

0000000000006240 <hard_locale>:
6240:	48 83 ec 08          	sub    rsp,0x8
6244:	31 f6                	xor    esi,esi
6246:	e8 e5 b5 ff ff       	call   1830 <setlocale@plt>
624b:	48 89 c2             	mov    rdx,rax
624e:	b8 01 00 00 00       	mov    eax,0x1
6253:	48 85 d2             	test   rdx,rdx
6256:	74 1d                	je     6275 <hard_locale+0x35>
6258:	48 8d 3d 26 0f 00 00 	lea    rdi,[rip+0xf26]        # 7185 <__PRETTY_FUNCTION__.4162+0x65>
625f:	b9 02 00 00 00       	mov    ecx,0x2
6264:	48 89 d6             	mov    rsi,rdx
6267:	f3 a6                	repz cmps BYTE PTR ds:[rsi],BYTE PTR es:[rdi]
6269:	0f 97 c1             	seta   cl
626c:	80 d9 00             	sbb    cl,0x0
626f:	31 c0                	xor    eax,eax
6271:	84 c9                	test   cl,cl
6273:	75 0b                	jne    6280 <hard_locale+0x40>
6275:	48 83 c4 08          	add    rsp,0x8
6279:	c3                   	ret
627a:	66 0f 1f 44 00 00    	nop    WORD PTR [rax+rax*1+0x0]
6280:	48 8d 3d 00 0f 00 00 	lea    rdi,[rip+0xf00]        # 7187 <__PRETTY_FUNCTION__.4162+0x67>
6287:	b9 06 00 00 00       	mov    ecx,0x6
628c:	48 89 d6             	mov    rsi,rdx
628f:	f3 a6                	repz cmps BYTE PTR ds:[rsi],BYTE PTR es:[rdi]
6291:	0f 97 c0             	seta   al
6294:	1c 00                	sbb    al,0x0
6296:	84 c0                	test   al,al
6298:	0f 95 c0             	setne  al
629b:	48 83 c4 08          	add    rsp,0x8
629f:	c3                   	ret

00000000000062a0 <locale_charset>:
62a0:	48 83 ec 08          	sub    rsp,0x8
62a4:	bf 0e 00 00 00       	mov    edi,0xe
62a9:	e8 52 b5 ff ff       	call   1800 <nl_langinfo@plt>
62ae:	48 85 c0             	test   rax,rax
62b1:	74 1d                	je     62d0 <locale_charset+0x30>
62b3:	80 38 00             	cmp    BYTE PTR [rax],0x0
62b6:	48 8d 15 d0 0e 00 00 	lea    rdx,[rip+0xed0]        # 718d <__PRETTY_FUNCTION__.4162+0x6d>
62bd:	48 0f 44 c2          	cmove  rax,rdx
62c1:	48 83 c4 08          	add    rsp,0x8
62c5:	c3                   	ret
62c6:	66 2e 0f 1f 84 00 00 	nop    WORD PTR cs:[rax+rax*1+0x0]
62cd:	00 00 00
62d0:	48 8d 05 b6 0e 00 00 	lea    rax,[rip+0xeb6]        # 718d <__PRETTY_FUNCTION__.4162+0x6d>
62d7:	48 83 c4 08          	add    rsp,0x8
62db:	c3                   	ret
62dc:	0f 1f 40 00          	nop    DWORD PTR [rax+0x0]

00000000000062e0 <__libc_csu_init>:
62e0:	41 57                	push   r15
62e2:	41 56                	push   r14
62e4:	49 89 d7             	mov    r15,rdx
62e7:	41 55                	push   r13
62e9:	41 54                	push   r12
62eb:	4c 8d 25 1e 28 20 00 	lea    r12,[rip+0x20281e]        # 208b10 <__frame_dummy_init_array_entry>
62f2:	55                   	push   rbp
62f3:	48 8d 2d 1e 28 20 00 	lea    rbp,[rip+0x20281e]        # 208b18 <__init_array_end>
62fa:	53                   	push   rbx
62fb:	41 89 fd             	mov    r13d,edi
62fe:	49 89 f6             	mov    r14,rsi
6301:	4c 29 e5             	sub    rbp,r12
6304:	48 83 ec 08          	sub    rsp,0x8
6308:	48 c1 fd 03          	sar    rbp,0x3
630c:	e8 87 b2 ff ff       	call   1598 <_init>
6311:	48 85 ed             	test   rbp,rbp
6314:	74 20                	je     6336 <__libc_csu_init+0x56>
6316:	31 db                	xor    ebx,ebx
6318:	0f 1f 84 00 00 00 00 	nop    DWORD PTR [rax+rax*1+0x0]
631f:	00
6320:	4c 89 fa             	mov    rdx,r15
6323:	4c 89 f6             	mov    rsi,r14
6326:	44 89 ef             	mov    edi,r13d
6329:	41 ff 14 dc          	call   QWORD PTR [r12+rbx*8]
632d:	48 83 c3 01          	add    rbx,0x1
6331:	48 39 dd             	cmp    rbp,rbx
6334:	75 ea                	jne    6320 <__libc_csu_init+0x40>
6336:	48 83 c4 08          	add    rsp,0x8
633a:	5b                   	pop    rbx
633b:	5d                   	pop    rbp
633c:	41 5c                	pop    r12
633e:	41 5d                	pop    r13
6340:	41 5e                	pop    r14
6342:	41 5f                	pop    r15
6344:	c3                   	ret
6345:	90                   	nop
6346:	66 2e 0f 1f 84 00 00 	nop    WORD PTR cs:[rax+rax*1+0x0]
634d:	00 00 00

0000000000006350 <__libc_csu_fini>:
6350:	f3 c3                	repz ret
6352:	66 2e 0f 1f 84 00 00 	nop    WORD PTR cs:[rax+rax*1+0x0]
6359:	00 00 00
635c:	0f 1f 40 00          	nop    DWORD PTR [rax+0x0]

0000000000006360 <atexit>:
6360:	48 8b 15 a1 2c 20 00 	mov    rdx,QWORD PTR [rip+0x202ca1]        # 209008 <__dso_handle>
6367:	31 f6                	xor    esi,esi
6369:	e9 42 b5 ff ff       	jmp    18b0 <__cxa_atexit@plt>

Disassembly of section .fini:

0000000000006370 <_fini>:
6370:	48 83 ec 08          	sub    rsp,0x8
6374:	48 83 c4 08          	add    rsp,0x8
6378:	c3                   	ret
