


Disassembly of section .init:

0000000000001aa8 <_init>:
1aa8:	48 83 ec 08          	sub    rsp,0x8
1aac:	48 8b 05 35 e5 20 00 	mov    rax,QWORD PTR [rip+0x20e535]        # 20ffe8 <__gmon_start__>
1ab3:	48 85 c0             	test   rax,rax
1ab6:	74 02                	je     1aba <_init+0x12>
1ab8:	ff d0                	call   rax
1aba:	48 83 c4 08          	add    rsp,0x8
1abe:	c3                   	ret

Disassembly of section .plt:

0000000000001ac0 <.plt>:
1ac0:	ff 35 ca e2 20 00    	push   QWORD PTR [rip+0x20e2ca]        # 20fd90 <_GLOBAL_OFFSET_TABLE_+0x8>
1ac6:	ff 25 cc e2 20 00    	jmp    QWORD PTR [rip+0x20e2cc]        # 20fd98 <_GLOBAL_OFFSET_TABLE_+0x10>
1acc:	0f 1f 40 00          	nop    DWORD PTR [rax+0x0]

0000000000001ad0 <getenv@plt>:
1ad0:	ff 25 ca e2 20 00    	jmp    QWORD PTR [rip+0x20e2ca]        # 20fda0 <getenv@GLIBC_2.2.5>
1ad6:	68 00 00 00 00       	push   0x0
1adb:	e9 e0 ff ff ff       	jmp    1ac0 <.plt>

0000000000001ae0 <raise@plt>:
1ae0:	ff 25 c2 e2 20 00    	jmp    QWORD PTR [rip+0x20e2c2]        # 20fda8 <raise@GLIBC_2.2.5>
1ae6:	68 01 00 00 00       	push   0x1
1aeb:	e9 d0 ff ff ff       	jmp    1ac0 <.plt>

0000000000001af0 <free@plt>:
1af0:	ff 25 ba e2 20 00    	jmp    QWORD PTR [rip+0x20e2ba]        # 20fdb0 <free@GLIBC_2.2.5>
1af6:	68 02 00 00 00       	push   0x2
1afb:	e9 c0 ff ff ff       	jmp    1ac0 <.plt>

0000000000001b00 <abort@plt>:
1b00:	ff 25 b2 e2 20 00    	jmp    QWORD PTR [rip+0x20e2b2]        # 20fdb8 <abort@GLIBC_2.2.5>
1b06:	68 03 00 00 00       	push   0x3
1b0b:	e9 b0 ff ff ff       	jmp    1ac0 <.plt>

0000000000001b10 <__errno_location@plt>:
1b10:	ff 25 aa e2 20 00    	jmp    QWORD PTR [rip+0x20e2aa]        # 20fdc0 <__errno_location@GLIBC_2.2.5>
1b16:	68 04 00 00 00       	push   0x4
1b1b:	e9 a0 ff ff ff       	jmp    1ac0 <.plt>

0000000000001b20 <strncmp@plt>:
1b20:	ff 25 a2 e2 20 00    	jmp    QWORD PTR [rip+0x20e2a2]        # 20fdc8 <strncmp@GLIBC_2.2.5>
1b26:	68 05 00 00 00       	push   0x5
1b2b:	e9 90 ff ff ff       	jmp    1ac0 <.plt>

0000000000001b30 <_exit@plt>:
1b30:	ff 25 9a e2 20 00    	jmp    QWORD PTR [rip+0x20e29a]        # 20fdd0 <_exit@GLIBC_2.2.5>
1b36:	68 06 00 00 00       	push   0x6
1b3b:	e9 80 ff ff ff       	jmp    1ac0 <.plt>

0000000000001b40 <__fpending@plt>:
1b40:	ff 25 92 e2 20 00    	jmp    QWORD PTR [rip+0x20e292]        # 20fdd8 <__fpending@GLIBC_2.2.5>
1b46:	68 07 00 00 00       	push   0x7
1b4b:	e9 70 ff ff ff       	jmp    1ac0 <.plt>

0000000000001b50 <isatty@plt>:
1b50:	ff 25 8a e2 20 00    	jmp    QWORD PTR [rip+0x20e28a]        # 20fde0 <isatty@GLIBC_2.2.5>
1b56:	68 08 00 00 00       	push   0x8
1b5b:	e9 60 ff ff ff       	jmp    1ac0 <.plt>

0000000000001b60 <strtod@plt>:
1b60:	ff 25 82 e2 20 00    	jmp    QWORD PTR [rip+0x20e282]        # 20fde8 <strtod@GLIBC_2.2.5>
1b66:	68 09 00 00 00       	push   0x9
1b6b:	e9 50 ff ff ff       	jmp    1ac0 <.plt>

0000000000001b70 <fcntl@plt>:
1b70:	ff 25 7a e2 20 00    	jmp    QWORD PTR [rip+0x20e27a]        # 20fdf0 <fcntl@GLIBC_2.2.5>
1b76:	68 0a 00 00 00       	push   0xa
1b7b:	e9 40 ff ff ff       	jmp    1ac0 <.plt>

0000000000001b80 <clearerr_unlocked@plt>:
1b80:	ff 25 72 e2 20 00    	jmp    QWORD PTR [rip+0x20e272]        # 20fdf8 <clearerr_unlocked@GLIBC_2.2.5>
1b86:	68 0b 00 00 00       	push   0xb
1b8b:	e9 30 ff ff ff       	jmp    1ac0 <.plt>

0000000000001b90 <textdomain@plt>:
1b90:	ff 25 6a e2 20 00    	jmp    QWORD PTR [rip+0x20e26a]        # 20fe00 <textdomain@GLIBC_2.2.5>
1b96:	68 0c 00 00 00       	push   0xc
1b9b:	e9 20 ff ff ff       	jmp    1ac0 <.plt>

0000000000001ba0 <strtod_l@plt>:
1ba0:	ff 25 62 e2 20 00    	jmp    QWORD PTR [rip+0x20e262]        # 20fe08 <strtod_l@GLIBC_2.3>
1ba6:	68 0d 00 00 00       	push   0xd
1bab:	e9 10 ff ff ff       	jmp    1ac0 <.plt>

0000000000001bb0 <fclose@plt>:
1bb0:	ff 25 5a e2 20 00    	jmp    QWORD PTR [rip+0x20e25a]        # 20fe10 <fclose@GLIBC_2.2.5>
1bb6:	68 0e 00 00 00       	push   0xe
1bbb:	e9 00 ff ff ff       	jmp    1ac0 <.plt>

0000000000001bc0 <bindtextdomain@plt>:
1bc0:	ff 25 52 e2 20 00    	jmp    QWORD PTR [rip+0x20e252]        # 20fe18 <bindtextdomain@GLIBC_2.2.5>
1bc6:	68 0f 00 00 00       	push   0xf
1bcb:	e9 f0 fe ff ff       	jmp    1ac0 <.plt>

0000000000001bd0 <dcgettext@plt>:
1bd0:	ff 25 4a e2 20 00    	jmp    QWORD PTR [rip+0x20e24a]        # 20fe20 <dcgettext@GLIBC_2.2.5>
1bd6:	68 10 00 00 00       	push   0x10
1bdb:	e9 e0 fe ff ff       	jmp    1ac0 <.plt>

0000000000001be0 <__ctype_get_mb_cur_max@plt>:
1be0:	ff 25 42 e2 20 00    	jmp    QWORD PTR [rip+0x20e242]        # 20fe28 <__ctype_get_mb_cur_max@GLIBC_2.2.5>
1be6:	68 11 00 00 00       	push   0x11
1beb:	e9 d0 fe ff ff       	jmp    1ac0 <.plt>

0000000000001bf0 <strlen@plt>:
1bf0:	ff 25 3a e2 20 00    	jmp    QWORD PTR [rip+0x20e23a]        # 20fe30 <strlen@GLIBC_2.2.5>
1bf6:	68 12 00 00 00       	push   0x12
1bfb:	e9 c0 fe ff ff       	jmp    1ac0 <.plt>

0000000000001c00 <__lxstat@plt>:
1c00:	ff 25 32 e2 20 00    	jmp    QWORD PTR [rip+0x20e232]        # 20fe38 <__lxstat@GLIBC_2.2.5>
1c06:	68 13 00 00 00       	push   0x13
1c0b:	e9 b0 fe ff ff       	jmp    1ac0 <.plt>

0000000000001c10 <__stack_chk_fail@plt>:
1c10:	ff 25 2a e2 20 00    	jmp    QWORD PTR [rip+0x20e22a]        # 20fe40 <__stack_chk_fail@GLIBC_2.4>
1c16:	68 14 00 00 00       	push   0x14
1c1b:	e9 a0 fe ff ff       	jmp    1ac0 <.plt>

0000000000001c20 <getopt_long@plt>:
1c20:	ff 25 22 e2 20 00    	jmp    QWORD PTR [rip+0x20e222]        # 20fe48 <getopt_long@GLIBC_2.2.5>
1c26:	68 15 00 00 00       	push   0x15
1c2b:	e9 90 fe ff ff       	jmp    1ac0 <.plt>

0000000000001c30 <mbrtowc@plt>:
1c30:	ff 25 1a e2 20 00    	jmp    QWORD PTR [rip+0x20e21a]        # 20fe50 <mbrtowc@GLIBC_2.2.5>
1c36:	68 16 00 00 00       	push   0x16
1c3b:	e9 80 fe ff ff       	jmp    1ac0 <.plt>

0000000000001c40 <strchr@plt>:
1c40:	ff 25 12 e2 20 00    	jmp    QWORD PTR [rip+0x20e212]        # 20fe58 <strchr@GLIBC_2.2.5>
1c46:	68 17 00 00 00       	push   0x17
1c4b:	e9 70 fe ff ff       	jmp    1ac0 <.plt>

0000000000001c50 <__fdelt_chk@plt>:
1c50:	ff 25 0a e2 20 00    	jmp    QWORD PTR [rip+0x20e20a]        # 20fe60 <__fdelt_chk@GLIBC_2.15>
1c56:	68 18 00 00 00       	push   0x18
1c5b:	e9 60 fe ff ff       	jmp    1ac0 <.plt>

0000000000001c60 <newlocale@plt>:
1c60:	ff 25 02 e2 20 00    	jmp    QWORD PTR [rip+0x20e202]        # 20fe68 <newlocale@GLIBC_2.3>
1c66:	68 19 00 00 00       	push   0x19
1c6b:	e9 50 fe ff ff       	jmp    1ac0 <.plt>

0000000000001c70 <nanosleep@plt>:
1c70:	ff 25 fa e1 20 00    	jmp    QWORD PTR [rip+0x20e1fa]        # 20fe70 <nanosleep@GLIBC_2.2.5>
1c76:	68 1a 00 00 00       	push   0x1a
1c7b:	e9 40 fe ff ff       	jmp    1ac0 <.plt>

0000000000001c80 <__overflow@plt>:
1c80:	ff 25 f2 e1 20 00    	jmp    QWORD PTR [rip+0x20e1f2]        # 20fe78 <__overflow@GLIBC_2.2.5>
1c86:	68 1b 00 00 00       	push   0x1b
1c8b:	e9 30 fe ff ff       	jmp    1ac0 <.plt>

0000000000001c90 <strrchr@plt>:
1c90:	ff 25 ea e1 20 00    	jmp    QWORD PTR [rip+0x20e1ea]        # 20fe80 <strrchr@GLIBC_2.2.5>
1c96:	68 1c 00 00 00       	push   0x1c
1c9b:	e9 20 fe ff ff       	jmp    1ac0 <.plt>

0000000000001ca0 <lseek@plt>:
1ca0:	ff 25 e2 e1 20 00    	jmp    QWORD PTR [rip+0x20e1e2]        # 20fe88 <lseek@GLIBC_2.2.5>
1ca6:	68 1d 00 00 00       	push   0x1d
1cab:	e9 10 fe ff ff       	jmp    1ac0 <.plt>

0000000000001cb0 <__assert_fail@plt>:
1cb0:	ff 25 da e1 20 00    	jmp    QWORD PTR [rip+0x20e1da]        # 20fe90 <__assert_fail@GLIBC_2.2.5>
1cb6:	68 1e 00 00 00       	push   0x1e
1cbb:	e9 00 fe ff ff       	jmp    1ac0 <.plt>

0000000000001cc0 <__strtoul_internal@plt>:
1cc0:	ff 25 d2 e1 20 00    	jmp    QWORD PTR [rip+0x20e1d2]        # 20fe98 <__strtoul_internal@GLIBC_2.2.5>
1cc6:	68 1f 00 00 00       	push   0x1f
1ccb:	e9 f0 fd ff ff       	jmp    1ac0 <.plt>

0000000000001cd0 <memset@plt>:
1cd0:	ff 25 ca e1 20 00    	jmp    QWORD PTR [rip+0x20e1ca]        # 20fea0 <memset@GLIBC_2.2.5>
1cd6:	68 20 00 00 00       	push   0x20
1cdb:	e9 e0 fd ff ff       	jmp    1ac0 <.plt>

0000000000001ce0 <close@plt>:
1ce0:	ff 25 c2 e1 20 00    	jmp    QWORD PTR [rip+0x20e1c2]        # 20fea8 <close@GLIBC_2.2.5>
1ce6:	68 21 00 00 00       	push   0x21
1ceb:	e9 d0 fd ff ff       	jmp    1ac0 <.plt>

0000000000001cf0 <memchr@plt>:
1cf0:	ff 25 ba e1 20 00    	jmp    QWORD PTR [rip+0x20e1ba]        # 20feb0 <memchr@GLIBC_2.2.5>
1cf6:	68 22 00 00 00       	push   0x22
1cfb:	e9 c0 fd ff ff       	jmp    1ac0 <.plt>

0000000000001d00 <read@plt>:
1d00:	ff 25 b2 e1 20 00    	jmp    QWORD PTR [rip+0x20e1b2]        # 20feb8 <read@GLIBC_2.2.5>
1d06:	68 23 00 00 00       	push   0x23
1d0b:	e9 b0 fd ff ff       	jmp    1ac0 <.plt>

0000000000001d10 <memcmp@plt>:
1d10:	ff 25 aa e1 20 00    	jmp    QWORD PTR [rip+0x20e1aa]        # 20fec0 <memcmp@GLIBC_2.2.5>
1d16:	68 24 00 00 00       	push   0x24
1d1b:	e9 a0 fd ff ff       	jmp    1ac0 <.plt>

0000000000001d20 <fputs_unlocked@plt>:
1d20:	ff 25 a2 e1 20 00    	jmp    QWORD PTR [rip+0x20e1a2]        # 20fec8 <fputs_unlocked@GLIBC_2.2.5>
1d26:	68 25 00 00 00       	push   0x25
1d2b:	e9 90 fd ff ff       	jmp    1ac0 <.plt>

0000000000001d30 <calloc@plt>:
1d30:	ff 25 9a e1 20 00    	jmp    QWORD PTR [rip+0x20e19a]        # 20fed0 <calloc@GLIBC_2.2.5>
1d36:	68 26 00 00 00       	push   0x26
1d3b:	e9 80 fd ff ff       	jmp    1ac0 <.plt>

0000000000001d40 <strcmp@plt>:
1d40:	ff 25 92 e1 20 00    	jmp    QWORD PTR [rip+0x20e192]        # 20fed8 <strcmp@GLIBC_2.2.5>
1d46:	68 27 00 00 00       	push   0x27
1d4b:	e9 70 fd ff ff       	jmp    1ac0 <.plt>

0000000000001d50 <strtol@plt>:
1d50:	ff 25 8a e1 20 00    	jmp    QWORD PTR [rip+0x20e18a]        # 20fee0 <strtol@GLIBC_2.2.5>
1d56:	68 28 00 00 00       	push   0x28
1d5b:	e9 60 fd ff ff       	jmp    1ac0 <.plt>

0000000000001d60 <memcpy@plt>:
1d60:	ff 25 82 e1 20 00    	jmp    QWORD PTR [rip+0x20e182]        # 20fee8 <memcpy@GLIBC_2.14>
1d66:	68 29 00 00 00       	push   0x29
1d6b:	e9 50 fd ff ff       	jmp    1ac0 <.plt>

0000000000001d70 <kill@plt>:
1d70:	ff 25 7a e1 20 00    	jmp    QWORD PTR [rip+0x20e17a]        # 20fef0 <kill@GLIBC_2.2.5>
1d76:	68 2a 00 00 00       	push   0x2a
1d7b:	e9 40 fd ff ff       	jmp    1ac0 <.plt>

0000000000001d80 <inotify_init@plt>:
1d80:	ff 25 72 e1 20 00    	jmp    QWORD PTR [rip+0x20e172]        # 20fef8 <inotify_init@GLIBC_2.4>
1d86:	68 2b 00 00 00       	push   0x2b
1d8b:	e9 30 fd ff ff       	jmp    1ac0 <.plt>

0000000000001d90 <fileno@plt>:
1d90:	ff 25 6a e1 20 00    	jmp    QWORD PTR [rip+0x20e16a]        # 20ff00 <fileno@GLIBC_2.2.5>
1d96:	68 2c 00 00 00       	push   0x2c
1d9b:	e9 20 fd ff ff       	jmp    1ac0 <.plt>

0000000000001da0 <select@plt>:
1da0:	ff 25 62 e1 20 00    	jmp    QWORD PTR [rip+0x20e162]        # 20ff08 <select@GLIBC_2.2.5>
1da6:	68 2d 00 00 00       	push   0x2d
1dab:	e9 10 fd ff ff       	jmp    1ac0 <.plt>

0000000000001db0 <__xstat@plt>:
1db0:	ff 25 5a e1 20 00    	jmp    QWORD PTR [rip+0x20e15a]        # 20ff10 <__xstat@GLIBC_2.2.5>
1db6:	68 2e 00 00 00       	push   0x2e
1dbb:	e9 00 fd ff ff       	jmp    1ac0 <.plt>

0000000000001dc0 <malloc@plt>:
1dc0:	ff 25 52 e1 20 00    	jmp    QWORD PTR [rip+0x20e152]        # 20ff18 <malloc@GLIBC_2.2.5>
1dc6:	68 2f 00 00 00       	push   0x2f
1dcb:	e9 f0 fc ff ff       	jmp    1ac0 <.plt>

0000000000001dd0 <fflush@plt>:
1dd0:	ff 25 4a e1 20 00    	jmp    QWORD PTR [rip+0x20e14a]        # 20ff20 <fflush@GLIBC_2.2.5>
1dd6:	68 30 00 00 00       	push   0x30
1ddb:	e9 e0 fc ff ff       	jmp    1ac0 <.plt>

0000000000001de0 <inotify_add_watch@plt>:
1de0:	ff 25 42 e1 20 00    	jmp    QWORD PTR [rip+0x20e142]        # 20ff28 <inotify_add_watch@GLIBC_2.4>
1de6:	68 31 00 00 00       	push   0x31
1deb:	e9 d0 fc ff ff       	jmp    1ac0 <.plt>

0000000000001df0 <nl_langinfo@plt>:
1df0:	ff 25 3a e1 20 00    	jmp    QWORD PTR [rip+0x20e13a]        # 20ff30 <nl_langinfo@GLIBC_2.2.5>
1df6:	68 32 00 00 00       	push   0x32
1dfb:	e9 c0 fc ff ff       	jmp    1ac0 <.plt>

0000000000001e00 <__fxstat@plt>:
1e00:	ff 25 32 e1 20 00    	jmp    QWORD PTR [rip+0x20e132]        # 20ff38 <__fxstat@GLIBC_2.2.5>
1e06:	68 33 00 00 00       	push   0x33
1e0b:	e9 b0 fc ff ff       	jmp    1ac0 <.plt>

0000000000001e10 <__freading@plt>:
1e10:	ff 25 2a e1 20 00    	jmp    QWORD PTR [rip+0x20e12a]        # 20ff40 <__freading@GLIBC_2.2.5>
1e16:	68 34 00 00 00       	push   0x34
1e1b:	e9 a0 fc ff ff       	jmp    1ac0 <.plt>

0000000000001e20 <fwrite_unlocked@plt>:
1e20:	ff 25 22 e1 20 00    	jmp    QWORD PTR [rip+0x20e122]        # 20ff48 <fwrite_unlocked@GLIBC_2.2.5>
1e26:	68 35 00 00 00       	push   0x35
1e2b:	e9 90 fc ff ff       	jmp    1ac0 <.plt>

0000000000001e30 <realloc@plt>:
1e30:	ff 25 1a e1 20 00    	jmp    QWORD PTR [rip+0x20e11a]        # 20ff50 <realloc@GLIBC_2.2.5>
1e36:	68 36 00 00 00       	push   0x36
1e3b:	e9 80 fc ff ff       	jmp    1ac0 <.plt>

0000000000001e40 <setlocale@plt>:
1e40:	ff 25 12 e1 20 00    	jmp    QWORD PTR [rip+0x20e112]        # 20ff58 <setlocale@GLIBC_2.2.5>
1e46:	68 37 00 00 00       	push   0x37
1e4b:	e9 70 fc ff ff       	jmp    1ac0 <.plt>

0000000000001e50 <__printf_chk@plt>:
1e50:	ff 25 0a e1 20 00    	jmp    QWORD PTR [rip+0x20e10a]        # 20ff60 <__printf_chk@GLIBC_2.3.4>
1e56:	68 38 00 00 00       	push   0x38
1e5b:	e9 60 fc ff ff       	jmp    1ac0 <.plt>

0000000000001e60 <error@plt>:
1e60:	ff 25 02 e1 20 00    	jmp    QWORD PTR [rip+0x20e102]        # 20ff68 <error@GLIBC_2.2.5>
1e66:	68 39 00 00 00       	push   0x39
1e6b:	e9 50 fc ff ff       	jmp    1ac0 <.plt>

0000000000001e70 <memrchr@plt>:
1e70:	ff 25 fa e0 20 00    	jmp    QWORD PTR [rip+0x20e0fa]        # 20ff70 <memrchr@GLIBC_2.2.5>
1e76:	68 3a 00 00 00       	push   0x3a
1e7b:	e9 40 fc ff ff       	jmp    1ac0 <.plt>

0000000000001e80 <open@plt>:
1e80:	ff 25 f2 e0 20 00    	jmp    QWORD PTR [rip+0x20e0f2]        # 20ff78 <open@GLIBC_2.2.5>
1e86:	68 3b 00 00 00       	push   0x3b
1e8b:	e9 30 fc ff ff       	jmp    1ac0 <.plt>

0000000000001e90 <fseeko@plt>:
1e90:	ff 25 ea e0 20 00    	jmp    QWORD PTR [rip+0x20e0ea]        # 20ff80 <fseeko@GLIBC_2.2.5>
1e96:	68 3c 00 00 00       	push   0x3c
1e9b:	e9 20 fc ff ff       	jmp    1ac0 <.plt>

0000000000001ea0 <fstatfs@plt>:
1ea0:	ff 25 e2 e0 20 00    	jmp    QWORD PTR [rip+0x20e0e2]        # 20ff88 <fstatfs@GLIBC_2.2.5>
1ea6:	68 3d 00 00 00       	push   0x3d
1eab:	e9 10 fc ff ff       	jmp    1ac0 <.plt>

0000000000001eb0 <__cxa_atexit@plt>:
1eb0:	ff 25 da e0 20 00    	jmp    QWORD PTR [rip+0x20e0da]        # 20ff90 <__cxa_atexit@GLIBC_2.2.5>
1eb6:	68 3e 00 00 00       	push   0x3e
1ebb:	e9 00 fc ff ff       	jmp    1ac0 <.plt>

0000000000001ec0 <exit@plt>:
1ec0:	ff 25 d2 e0 20 00    	jmp    QWORD PTR [rip+0x20e0d2]        # 20ff98 <exit@GLIBC_2.2.5>
1ec6:	68 3f 00 00 00       	push   0x3f
1ecb:	e9 f0 fb ff ff       	jmp    1ac0 <.plt>

0000000000001ed0 <fwrite@plt>:
1ed0:	ff 25 ca e0 20 00    	jmp    QWORD PTR [rip+0x20e0ca]        # 20ffa0 <fwrite@GLIBC_2.2.5>
1ed6:	68 40 00 00 00       	push   0x40
1edb:	e9 e0 fb ff ff       	jmp    1ac0 <.plt>

0000000000001ee0 <__fprintf_chk@plt>:
1ee0:	ff 25 c2 e0 20 00    	jmp    QWORD PTR [rip+0x20e0c2]        # 20ffa8 <__fprintf_chk@GLIBC_2.3.4>
1ee6:	68 41 00 00 00       	push   0x41
1eeb:	e9 d0 fb ff ff       	jmp    1ac0 <.plt>

0000000000001ef0 <fflush_unlocked@plt>:
1ef0:	ff 25 ba e0 20 00    	jmp    QWORD PTR [rip+0x20e0ba]        # 20ffb0 <fflush_unlocked@GLIBC_2.2.5>
1ef6:	68 42 00 00 00       	push   0x42
1efb:	e9 c0 fb ff ff       	jmp    1ac0 <.plt>

0000000000001f00 <mbsinit@plt>:
1f00:	ff 25 b2 e0 20 00    	jmp    QWORD PTR [rip+0x20e0b2]        # 20ffb8 <mbsinit@GLIBC_2.2.5>
1f06:	68 43 00 00 00       	push   0x43
1f0b:	e9 b0 fb ff ff       	jmp    1ac0 <.plt>

0000000000001f10 <iswprint@plt>:
1f10:	ff 25 aa e0 20 00    	jmp    QWORD PTR [rip+0x20e0aa]        # 20ffc0 <iswprint@GLIBC_2.2.5>
1f16:	68 44 00 00 00       	push   0x44
1f1b:	e9 a0 fb ff ff       	jmp    1ac0 <.plt>

0000000000001f20 <inotify_rm_watch@plt>:
1f20:	ff 25 a2 e0 20 00    	jmp    QWORD PTR [rip+0x20e0a2]        # 20ffc8 <inotify_rm_watch@GLIBC_2.4>
1f26:	68 45 00 00 00       	push   0x45
1f2b:	e9 90 fb ff ff       	jmp    1ac0 <.plt>

0000000000001f30 <__ctype_b_loc@plt>:
1f30:	ff 25 9a e0 20 00    	jmp    QWORD PTR [rip+0x20e09a]        # 20ffd0 <__ctype_b_loc@GLIBC_2.3>
1f36:	68 46 00 00 00       	push   0x46
1f3b:	e9 80 fb ff ff       	jmp    1ac0 <.plt>

Disassembly of section .plt.got:

0000000000001f40 <__cxa_finalize@plt>:
1f40:	ff 25 b2 e0 20 00    	jmp    QWORD PTR [rip+0x20e0b2]        # 20fff8 <__cxa_finalize@GLIBC_2.2.5>
1f46:	66 90                	xchg   ax,ax

Disassembly of section .text:

0000000000001f50 <main>:
1f50:	41 57                	push   r15
1f52:	41 56                	push   r14
1f54:	41 55                	push   r13
1f56:	41 54                	push   r12
1f58:	55                   	push   rbp
1f59:	53                   	push   rbx
1f5a:	89 fb                	mov    ebx,edi
1f5c:	48 89 f5             	mov    rbp,rsi
1f5f:	48 81 ec c8 02 00 00 	sub    rsp,0x2c8
1f66:	48 8b 3e             	mov    rdi,QWORD PTR [rsi]
1f69:	64 48 8b 04 25 28 00 	mov    rax,QWORD PTR fs:0x28
1f70:	00 00
1f72:	48 89 84 24 b8 02 00 	mov    QWORD PTR [rsp+0x2b8],rax
1f79:	00
1f7a:	31 c0                	xor    eax,eax
1f7c:	48 c7 84 24 90 00 00 	mov    QWORD PTR [rsp+0x90],0xa
1f83:	00 0a 00 00 00
1f88:	e8 53 61 00 00       	call   80e0 <set_program_name>
1f8d:	48 8d 35 6d b0 00 00 	lea    rsi,[rip+0xb06d]        # d001 <quoting_style_vals+0x81>
1f94:	bf 06 00 00 00       	mov    edi,0x6
1f99:	e8 a2 fe ff ff       	call   1e40 <setlocale@plt>
1f9e:	48 8d 35 31 98 00 00 	lea    rsi,[rip+0x9831]        # b7d6 <_IO_stdin_used+0x1d6>
1fa5:	48 8d 3d ff 97 00 00 	lea    rdi,[rip+0x97ff]        # b7ab <_IO_stdin_used+0x1ab>
1fac:	e8 0f fc ff ff       	call   1bc0 <bindtextdomain@plt>
1fb1:	48 8d 3d f3 97 00 00 	lea    rdi,[rip+0x97f3]        # b7ab <_IO_stdin_used+0x1ab>
1fb8:	e8 d3 fb ff ff       	call   1b90 <textdomain@plt>
1fbd:	48 8d 3d 7c 4a 00 00 	lea    rdi,[rip+0x4a7c]        # 6a40 <close_stdout>
1fc4:	e8 17 96 00 00       	call   b5e0 <atexit>
1fc9:	83 fb 02             	cmp    ebx,0x2
1fcc:	c6 05 3b e1 20 00 00 	mov    BYTE PTR [rip+0x20e13b],0x0        # 21010e <have_read_stdin>
1fd3:	c6 05 3f e1 20 00 01 	mov    BYTE PTR [rip+0x20e13f],0x1        # 210119 <count_lines>
1fda:	c6 05 34 e1 20 00 00 	mov    BYTE PTR [rip+0x20e134],0x0        # 210115 <print_headers>
1fe1:	c6 05 2e e1 20 00 00 	mov    BYTE PTR [rip+0x20e12e],0x0        # 210116 <from_start>
1fe8:	c6 05 29 e1 20 00 00 	mov    BYTE PTR [rip+0x20e129],0x0        # 210118 <forever>
1fef:	c6 05 1e e1 20 00 0a 	mov    BYTE PTR [rip+0x20e11e],0xa        # 210114 <line_end>
1ff6:	0f 84 cd 03 00 00    	je     23c9 <main+0x479>
1ffc:	83 fb 03             	cmp    ebx,0x3
1fff:	0f 84 b7 03 00 00    	je     23bc <main+0x46c>
2005:	83 fb 04             	cmp    ebx,0x4
2008:	0f 84 46 08 00 00    	je     2854 <main+0x904>
200e:	31 c0                	xor    eax,eax
2010:	f2 0f 10 15 48 a9 00 	movsd  xmm2,QWORD PTR [rip+0xa948]        # c960 <follow_mode_map+0x8>
2017:	00
2018:	0f b6 d0             	movzx  edx,al
201b:	4c 8d bc 24 b0 00 00 	lea    r15,[rsp+0xb0]
2022:	00
2023:	4c 8d 64 c5 00       	lea    r12,[rbp+rax*8+0x0]
2028:	29 d3                	sub    ebx,edx
202a:	31 ed                	xor    ebp,ebp
202c:	f2 0f 11 54 24 30    	movsd  QWORD PTR [rsp+0x30],xmm2
2032:	41 be 01 00 00 00    	mov    r14d,0x1
2038:	0f 1f 84 00 00 00 00 	nop    DWORD PTR [rax+rax*1+0x0]
203f:	00
2040:	48 8d 0d d9 d8 20 00 	lea    rcx,[rip+0x20d8d9]        # 20f920 <long_options>
2047:	48 8d 15 64 98 00 00 	lea    rdx,[rip+0x9864]        # b8b2 <_IO_stdin_used+0x2b2>
204e:	45 31 c0             	xor    r8d,r8d
2051:	4c 89 e6             	mov    rsi,r12
2054:	89 df                	mov    edi,ebx
2056:	e8 c5 fb ff ff       	call   1c20 <getopt_long@plt>
205b:	83 f8 ff             	cmp    eax,0xffffffff
205e:	0f 84 8e 04 00 00    	je     24f2 <main+0x5a2>
2064:	83 f8 71             	cmp    eax,0x71
2067:	0f 84 2b 01 00 00    	je     2198 <main+0x248>
206d:	7e 41                	jle    20b0 <main+0x160>
206f:	3d 81 00 00 00       	cmp    eax,0x81
2074:	0f 84 2e 01 00 00    	je     21a8 <main+0x258>
207a:	7f 74                	jg     20f0 <main+0x1a0>
207c:	83 f8 76             	cmp    eax,0x76
207f:	0f 84 fb 01 00 00    	je     2280 <main+0x330>
2085:	0f 8e 75 01 00 00    	jle    2200 <main+0x2b0>
208b:	83 f8 7a             	cmp    eax,0x7a
208e:	0f 84 5c 01 00 00    	je     21f0 <main+0x2a0>
2094:	83 c0 80             	add    eax,0xffffff80
2097:	0f 85 d4 1b 00 00    	jne    3c71 <main+0x1d21>
209d:	c6 05 76 e0 20 00 01 	mov    BYTE PTR [rip+0x20e076],0x1        # 21011a <reopen_inaccessible_files>
20a4:	eb 9a                	jmp    2040 <main+0xf0>
20a6:	66 2e 0f 1f 84 00 00 	nop    WORD PTR cs:[rax+rax*1+0x0]
20ad:	00 00 00
20b0:	83 f8 39             	cmp    eax,0x39
20b3:	7e 73                	jle    2128 <main+0x1d8>
20b5:	83 f8 63             	cmp    eax,0x63
20b8:	0f 84 e0 01 00 00    	je     229e <main+0x34e>
20be:	0f 8f cc 01 00 00    	jg     2290 <main+0x340>
20c4:	83 f8 46             	cmp    eax,0x46
20c7:	0f 85 a4 1b 00 00    	jne    3c71 <main+0x1d21>
20cd:	c6 05 44 e0 20 00 01 	mov    BYTE PTR [rip+0x20e044],0x1        # 210118 <forever>
20d4:	44 89 35 45 df 20 00 	mov    DWORD PTR [rip+0x20df45],r14d        # 210020 <follow_mode>
20db:	c6 05 38 e0 20 00 01 	mov    BYTE PTR [rip+0x20e038],0x1        # 21011a <reopen_inaccessible_files>
20e2:	e9 59 ff ff ff       	jmp    2040 <main+0xf0>
20e7:	66 0f 1f 84 00 00 00 	nop    WORD PTR [rax+rax*1+0x0]
20ee:	00 00
20f0:	3d 83 00 00 00       	cmp    eax,0x83
20f5:	0f 84 b5 02 00 00    	je     23b0 <main+0x460>
20fb:	0f 8c 67 02 00 00    	jl     2368 <main+0x418>
2101:	3d 84 00 00 00       	cmp    eax,0x84
2106:	0f 84 04 02 00 00    	je     2310 <main+0x3c0>
210c:	3d 85 00 00 00       	cmp    eax,0x85
2111:	0f 85 5a 1b 00 00    	jne    3c71 <main+0x1d21>
2117:	c6 05 ee df 20 00 01 	mov    BYTE PTR [rip+0x20dfee],0x1        # 21010c <disable_inotify>
211e:	e9 1d ff ff ff       	jmp    2040 <main+0xf0>
2123:	0f 1f 44 00 00       	nop    DWORD PTR [rax+rax*1+0x0]
2128:	83 f8 30             	cmp    eax,0x30
212b:	41 89 c5             	mov    r13d,eax
212e:	0f 8d 16 1b 00 00    	jge    3c4a <main+0x1cfa>
2134:	3d 7d ff ff ff       	cmp    eax,0xffffff7d
2139:	0f 85 fd 1a 00 00    	jne    3c3c <main+0x1cec>
213f:	48 8d 05 4e 97 00 00 	lea    rax,[rip+0x974e]        # b894 <_IO_stdin_used+0x294>
2146:	48 83 ec 08          	sub    rsp,0x8
214a:	48 8b 3d 77 df 20 00 	mov    rdi,QWORD PTR [rip+0x20df77]        # 2100c8 <stdout@@GLIBC_2.2.5>
2151:	6a 00                	push   0x0
2153:	48 8b 0d d6 de 20 00 	mov    rcx,QWORD PTR [rip+0x20ded6]        # 210030 <Version>
215a:	4c 8d 0d 18 97 00 00 	lea    r9,[rip+0x9718]        # b879 <_IO_stdin_used+0x279>
2161:	50                   	push   rax
2162:	48 8d 05 38 97 00 00 	lea    rax,[rip+0x9738]        # b8a1 <_IO_stdin_used+0x2a1>
2169:	4c 8d 05 19 97 00 00 	lea    r8,[rip+0x9719]        # b889 <_IO_stdin_used+0x289>
2170:	48 8d 15 30 96 00 00 	lea    rdx,[rip+0x9630]        # b7a7 <_IO_stdin_used+0x1a7>
2177:	48 8d 35 ae 95 00 00 	lea    rsi,[rip+0x95ae]        # b72c <_IO_stdin_used+0x12c>
217e:	50                   	push   rax
217f:	31 c0                	xor    eax,eax
2181:	e8 ea 81 00 00       	call   a370 <version_etc>
2186:	48 83 c4 20          	add    rsp,0x20
218a:	31 ff                	xor    edi,edi
218c:	e8 2f fd ff ff       	call   1ec0 <exit@plt>
2191:	0f 1f 80 00 00 00 00 	nop    DWORD PTR [rax+0x0]
2198:	bd 02 00 00 00       	mov    ebp,0x2
219d:	e9 9e fe ff ff       	jmp    2040 <main+0xf0>
21a2:	66 0f 1f 44 00 00    	nop    WORD PTR [rax+rax*1+0x0]
21a8:	48 8d 35 f1 a4 00 00 	lea    rsi,[rip+0xa4f1]        # c6a0 <_IO_stdin_used+0x10a0>
21af:	ba 05 00 00 00       	mov    edx,0x5
21b4:	31 ff                	xor    edi,edi
21b6:	e8 15 fa ff ff       	call   1bd0 <dcgettext@plt>
21bb:	48 8b 3d 16 df 20 00 	mov    rdi,QWORD PTR [rip+0x20df16]        # 2100d8 <optarg@@GLIBC_2.2.5>
21c2:	48 8d 0d 38 ae 00 00 	lea    rcx,[rip+0xae38]        # d001 <quoting_style_vals+0x81>
21c9:	49 89 c0             	mov    r8,rax
21cc:	45 31 c9             	xor    r9d,r9d
21cf:	48 c7 c2 ff ff ff ff 	mov    rdx,0xffffffffffffffff
21d6:	31 f6                	xor    esi,esi
21d8:	e8 83 86 00 00       	call   a860 <xdectoumax>
21dd:	48 89 05 34 de 20 00 	mov    QWORD PTR [rip+0x20de34],rax        # 210018 <max_n_unchanged_stats_between_opens>
21e4:	e9 57 fe ff ff       	jmp    2040 <main+0xf0>
21e9:	0f 1f 80 00 00 00 00 	nop    DWORD PTR [rax+0x0]
21f0:	c6 05 1d df 20 00 00 	mov    BYTE PTR [rip+0x20df1d],0x0        # 210114 <line_end>
21f7:	e9 44 fe ff ff       	jmp    2040 <main+0xf0>
21fc:	0f 1f 40 00          	nop    DWORD PTR [rax+0x0]
2200:	83 f8 73             	cmp    eax,0x73
2203:	0f 85 68 1a 00 00    	jne    3c71 <main+0x1d21>
2209:	48 8d 0d 50 47 00 00 	lea    rcx,[rip+0x4750]        # 6960 <cl_strtod>
2210:	48 8b 3d c1 de 20 00 	mov    rdi,QWORD PTR [rip+0x20dec1]        # 2100d8 <optarg@@GLIBC_2.2.5>
2217:	31 f6                	xor    esi,esi
2219:	4c 89 fa             	mov    rdx,r15
221c:	e8 ef 86 00 00       	call   a910 <xstrtod>
2221:	84 c0                	test   al,al
2223:	74 1d                	je     2242 <main+0x2f2>
2225:	66 0f ef db          	pxor   xmm3,xmm3
2229:	f2 0f 10 8c 24 b0 00 	movsd  xmm1,QWORD PTR [rsp+0xb0]
2230:	00 00
2232:	66 0f 2e cb          	ucomisd xmm1,xmm3
2236:	f2 0f 11 4c 24 30    	movsd  QWORD PTR [rsp+0x30],xmm1
223c:	0f 83 fe fd ff ff    	jae    2040 <main+0xf0>
2242:	48 8b 3d 8f de 20 00 	mov    rdi,QWORD PTR [rip+0x20de8f]        # 2100d8 <optarg@@GLIBC_2.2.5>
2249:	e8 a2 7b 00 00       	call   9df0 <quote>
224e:	48 8d 35 06 96 00 00 	lea    rsi,[rip+0x9606]        # b85b <_IO_stdin_used+0x25b>
2255:	48 89 c3             	mov    rbx,rax
2258:	ba 05 00 00 00       	mov    edx,0x5
225d:	31 ff                	xor    edi,edi
225f:	e8 6c f9 ff ff       	call   1bd0 <dcgettext@plt>
2264:	48 89 d9             	mov    rcx,rbx
2267:	48 89 c2             	mov    rdx,rax
226a:	31 f6                	xor    esi,esi
226c:	bf 01 00 00 00       	mov    edi,0x1
2271:	31 c0                	xor    eax,eax
2273:	e8 e8 fb ff ff       	call   1e60 <error@plt>
2278:	0f 1f 84 00 00 00 00 	nop    DWORD PTR [rax+rax*1+0x0]
227f:	00
2280:	bd 01 00 00 00       	mov    ebp,0x1
2285:	e9 b6 fd ff ff       	jmp    2040 <main+0xf0>
228a:	66 0f 1f 44 00 00    	nop    WORD PTR [rax+rax*1+0x0]
2290:	83 f8 66             	cmp    eax,0x66
2293:	74 7b                	je     2310 <main+0x3c0>
2295:	83 f8 6e             	cmp    eax,0x6e
2298:	0f 85 d3 19 00 00    	jne    3c71 <main+0x1d21>
229e:	48 8b 0d 33 de 20 00 	mov    rcx,QWORD PTR [rip+0x20de33]        # 2100d8 <optarg@@GLIBC_2.2.5>
22a5:	83 f8 6e             	cmp    eax,0x6e
22a8:	0f 94 05 6a de 20 00 	sete   BYTE PTR [rip+0x20de6a]        # 210119 <count_lines>
22af:	0f b6 11             	movzx  edx,BYTE PTR [rcx]
22b2:	80 fa 2b             	cmp    dl,0x2b
22b5:	0f 84 2b 02 00 00    	je     24e6 <main+0x596>
22bb:	80 fa 2d             	cmp    dl,0x2d
22be:	0f 84 ad 05 00 00    	je     2871 <main+0x921>
22c4:	83 f8 6e             	cmp    eax,0x6e
22c7:	ba 05 00 00 00       	mov    edx,0x5
22cc:	0f 84 ef 01 00 00    	je     24c1 <main+0x571>
22d2:	48 8d 35 48 95 00 00 	lea    rsi,[rip+0x9548]        # b821 <_IO_stdin_used+0x221>
22d9:	31 ff                	xor    edi,edi
22db:	e8 f0 f8 ff ff       	call   1bd0 <dcgettext@plt>
22e0:	49 89 c0             	mov    r8,rax
22e3:	48 8b 3d ee dd 20 00 	mov    rdi,QWORD PTR [rip+0x20ddee]        # 2100d8 <optarg@@GLIBC_2.2.5>
22ea:	48 8d 0d 48 95 00 00 	lea    rcx,[rip+0x9548]        # b839 <_IO_stdin_used+0x239>
22f1:	45 31 c9             	xor    r9d,r9d
22f4:	48 c7 c2 ff ff ff ff 	mov    rdx,0xffffffffffffffff
22fb:	31 f6                	xor    esi,esi
22fd:	e8 5e 85 00 00       	call   a860 <xdectoumax>
2302:	48 89 84 24 90 00 00 	mov    QWORD PTR [rsp+0x90],rax
2309:	00
230a:	e9 31 fd ff ff       	jmp    2040 <main+0xf0>
230f:	90                   	nop
2310:	48 8b 35 c1 dd 20 00 	mov    rsi,QWORD PTR [rip+0x20ddc1]        # 2100d8 <optarg@@GLIBC_2.2.5>
2317:	c6 05 fa dd 20 00 01 	mov    BYTE PTR [rip+0x20ddfa],0x1        # 210118 <forever>
231e:	48 85 f6             	test   rsi,rsi
2321:	0f 84 b0 01 00 00    	je     24d7 <main+0x587>
2327:	4c 8b 0d 0a dd 20 00 	mov    r9,QWORD PTR [rip+0x20dd0a]        # 210038 <argmatch_die>
232e:	48 8d 15 eb d7 20 00 	lea    rdx,[rip+0x20d7eb]        # 20fb20 <follow_mode_string>
2335:	48 8d 0d 1c a6 00 00 	lea    rcx,[rip+0xa61c]        # c958 <follow_mode_map>
233c:	48 8d 3d 03 95 00 00 	lea    rdi,[rip+0x9503]        # b846 <_IO_stdin_used+0x246>
2343:	41 b8 04 00 00 00    	mov    r8d,0x4
2349:	e8 52 45 00 00       	call   68a0 <__xargmatch_internal>
234e:	48 8d 15 03 a6 00 00 	lea    rdx,[rip+0xa603]        # c958 <follow_mode_map>
2355:	8b 04 82             	mov    eax,DWORD PTR [rdx+rax*4]
2358:	89 05 c2 dc 20 00    	mov    DWORD PTR [rip+0x20dcc2],eax        # 210020 <follow_mode>
235e:	e9 dd fc ff ff       	jmp    2040 <main+0xf0>
2363:	0f 1f 44 00 00       	nop    DWORD PTR [rax+rax*1+0x0]
2368:	48 8d 35 e0 94 00 00 	lea    rsi,[rip+0x94e0]        # b84f <_IO_stdin_used+0x24f>
236f:	ba 05 00 00 00       	mov    edx,0x5
2374:	31 ff                	xor    edi,edi
2376:	e8 55 f8 ff ff       	call   1bd0 <dcgettext@plt>
237b:	48 8b 3d 56 dd 20 00 	mov    rdi,QWORD PTR [rip+0x20dd56]        # 2100d8 <optarg@@GLIBC_2.2.5>
2382:	48 8d 0d 78 ac 00 00 	lea    rcx,[rip+0xac78]        # d001 <quoting_style_vals+0x81>
2389:	49 89 c0             	mov    r8,rax
238c:	45 31 c9             	xor    r9d,r9d
238f:	ba ff ff ff 7f       	mov    edx,0x7fffffff
2394:	31 f6                	xor    esi,esi
2396:	e8 c5 84 00 00       	call   a860 <xdectoumax>
239b:	89 05 6f dd 20 00    	mov    DWORD PTR [rip+0x20dd6f],eax        # 210110 <pid>
23a1:	e9 9a fc ff ff       	jmp    2040 <main+0xf0>
23a6:	66 2e 0f 1f 84 00 00 	nop    WORD PTR cs:[rax+rax*1+0x0]
23ad:	00 00 00
23b0:	c6 05 56 dd 20 00 01 	mov    BYTE PTR [rip+0x20dd56],0x1        # 21010d <presume_input_pipe>
23b7:	e9 84 fc ff ff       	jmp    2040 <main+0xf0>
23bc:	48 8b 7d 10          	mov    rdi,QWORD PTR [rbp+0x10]
23c0:	80 3f 2d             	cmp    BYTE PTR [rdi],0x2d
23c3:	0f 84 21 05 00 00    	je     28ea <main+0x99a>
23c9:	e8 82 5c 00 00       	call   8050 <posix2_version>
23ce:	48 8b 55 08          	mov    rdx,QWORD PTR [rbp+0x8]
23d2:	8d b0 50 f2 fc ff    	lea    esi,[rax-0x30db0]
23d8:	0f b6 0a             	movzx  ecx,BYTE PTR [rdx]
23db:	48 8d 7a 01          	lea    rdi,[rdx+0x1]
23df:	80 f9 2b             	cmp    cl,0x2b
23e2:	0f 84 55 04 00 00    	je     283d <main+0x8ed>
23e8:	80 f9 2d             	cmp    cl,0x2d
23eb:	0f 85 1d fc ff ff    	jne    200e <main+0xbe>
23f1:	3d af 0d 03 00       	cmp    eax,0x30daf
23f6:	7e 14                	jle    240c <main+0x4bc>
23f8:	31 c0                	xor    eax,eax
23fa:	80 7a 01 63          	cmp    BYTE PTR [rdx+0x1],0x63
23fe:	0f 94 c0             	sete   al
2401:	80 7c 02 01 00       	cmp    BYTE PTR [rdx+rax*1+0x1],0x0
2406:	0f 84 02 fc ff ff    	je     200e <main+0xbe>
240c:	45 31 e4             	xor    r12d,r12d
240f:	0f be 42 01          	movsx  eax,BYTE PTR [rdx+0x1]
2413:	48 89 fa             	mov    rdx,rdi
2416:	89 c1                	mov    ecx,eax
2418:	83 e8 30             	sub    eax,0x30
241b:	83 f8 09             	cmp    eax,0x9
241e:	77 11                	ja     2431 <main+0x4e1>
2420:	48 83 c2 01          	add    rdx,0x1
2424:	0f be 02             	movsx  eax,BYTE PTR [rdx]
2427:	89 c1                	mov    ecx,eax
2429:	83 e8 30             	sub    eax,0x30
242c:	83 f8 09             	cmp    eax,0x9
242f:	76 ef                	jbe    2420 <main+0x4d0>
2431:	80 f9 63             	cmp    cl,0x63
2434:	0f 84 79 0e 00 00    	je     32b3 <main+0x1363>
243a:	80 f9 6c             	cmp    cl,0x6c
243d:	0f 84 63 0e 00 00    	je     32a6 <main+0x1356>
2443:	80 f9 62             	cmp    cl,0x62
2446:	0f 84 3a 0e 00 00    	je     3286 <main+0x1336>
244c:	48 89 d0             	mov    rax,rdx
244f:	41 be 01 00 00 00    	mov    r14d,0x1
2455:	b9 0a 00 00 00       	mov    ecx,0xa
245a:	45 31 ed             	xor    r13d,r13d
245d:	80 38 66             	cmp    BYTE PTR [rax],0x66
2460:	75 0a                	jne    246c <main+0x51c>
2462:	48 83 c0 01          	add    rax,0x1
2466:	41 bd 01 00 00 00    	mov    r13d,0x1
246c:	80 38 00             	cmp    BYTE PTR [rax],0x0
246f:	0f 85 99 fb ff ff    	jne    200e <main+0xbe>
2475:	48 39 d7             	cmp    rdi,rdx
2478:	0f 84 19 0e 00 00    	je     3297 <main+0x1347>
247e:	48 8d 8c 24 90 00 00 	lea    rcx,[rsp+0x90]
2485:	00
2486:	4c 8d 05 64 93 00 00 	lea    r8,[rip+0x9364]        # b7f1 <_IO_stdin_used+0x1f1>
248d:	31 f6                	xor    esi,esi
248f:	ba 0a 00 00 00       	mov    edx,0xa
2494:	e8 47 85 00 00       	call   a9e0 <xstrtoumax>
2499:	83 e0 fd             	and    eax,0xfffffffd
249c:	0f 85 72 22 00 00    	jne    4714 <main+0x27c4>
24a2:	44 88 25 6d dc 20 00 	mov    BYTE PTR [rip+0x20dc6d],r12b        # 210116 <from_start>
24a9:	44 88 35 69 dc 20 00 	mov    BYTE PTR [rip+0x20dc69],r14b        # 210119 <count_lines>
24b0:	b8 01 00 00 00       	mov    eax,0x1
24b5:	44 88 2d 5c dc 20 00 	mov    BYTE PTR [rip+0x20dc5c],r13b        # 210118 <forever>
24bc:	e9 4f fb ff ff       	jmp    2010 <main+0xc0>
24c1:	48 8d 35 41 93 00 00 	lea    rsi,[rip+0x9341]        # b809 <_IO_stdin_used+0x209>
24c8:	31 ff                	xor    edi,edi
24ca:	e8 01 f7 ff ff       	call   1bd0 <dcgettext@plt>
24cf:	49 89 c0             	mov    r8,rax
24d2:	e9 0c fe ff ff       	jmp    22e3 <main+0x393>
24d7:	c7 05 3f db 20 00 02 	mov    DWORD PTR [rip+0x20db3f],0x2        # 210020 <follow_mode>
24de:	00 00 00
24e1:	e9 5a fb ff ff       	jmp    2040 <main+0xf0>
24e6:	c6 05 29 dc 20 00 01 	mov    BYTE PTR [rip+0x20dc29],0x1        # 210116 <from_start>
24ed:	e9 d2 fd ff ff       	jmp    22c4 <main+0x374>
24f2:	80 3d 21 dc 20 00 00 	cmp    BYTE PTR [rip+0x20dc21],0x0        # 21011a <reopen_inaccessible_files>
24f9:	41 89 c5             	mov    r13d,eax
24fc:	0f 84 a7 03 00 00    	je     28a9 <main+0x959>
2502:	80 3d 0f dc 20 00 00 	cmp    BYTE PTR [rip+0x20dc0f],0x0        # 210118 <forever>
2509:	0f 84 72 03 00 00    	je     2881 <main+0x931>
250f:	83 3d 0a db 20 00 02 	cmp    DWORD PTR [rip+0x20db0a],0x2        # 210020 <follow_mode>
2516:	0f 84 54 16 00 00    	je     3b70 <main+0x1c20>
251c:	8b 3d ee db 20 00    	mov    edi,DWORD PTR [rip+0x20dbee]        # 210110 <pid>
2522:	85 ff                	test   edi,edi
2524:	74 40                	je     2566 <main+0x616>
2526:	31 f6                	xor    esi,esi
2528:	e8 43 f8 ff ff       	call   1d70 <kill@plt>
252d:	85 c0                	test   eax,eax
252f:	74 35                	je     2566 <main+0x616>
2531:	e8 da f5 ff ff       	call   1b10 <__errno_location@plt>
2536:	83 38 26             	cmp    DWORD PTR [rax],0x26
2539:	75 2b                	jne    2566 <main+0x616>
253b:	48 8d 35 76 a2 00 00 	lea    rsi,[rip+0xa276]        # c7b8 <_IO_stdin_used+0x11b8>
2542:	ba 05 00 00 00       	mov    edx,0x5
2547:	31 ff                	xor    edi,edi
2549:	e8 82 f6 ff ff       	call   1bd0 <dcgettext@plt>
254e:	31 f6                	xor    esi,esi
2550:	48 89 c2             	mov    rdx,rax
2553:	31 ff                	xor    edi,edi
2555:	31 c0                	xor    eax,eax
2557:	e8 04 f9 ff ff       	call   1e60 <error@plt>
255c:	c7 05 aa db 20 00 00 	mov    DWORD PTR [rip+0x20dbaa],0x0        # 210110 <pid>
2563:	00 00 00
2566:	80 3d a9 db 20 00 00 	cmp    BYTE PTR [rip+0x20dba9],0x0        # 210116 <from_start>
256d:	74 19                	je     2588 <main+0x638>
256f:	48 8b 84 24 90 00 00 	mov    rax,QWORD PTR [rsp+0x90]
2576:	00
2577:	48 85 c0             	test   rax,rax
257a:	74 0c                	je     2588 <main+0x638>
257c:	48 83 e8 01          	sub    rax,0x1
2580:	48 89 84 24 90 00 00 	mov    QWORD PTR [rsp+0x90],rax
2587:	00
2588:	48 63 05 41 db 20 00 	movsxd rax,DWORD PTR [rip+0x20db41]        # 2100d0 <optind@@GLIBC_2.2.5>
258f:	39 c3                	cmp    ebx,eax
2591:	0f 8f 97 0b 00 00    	jg     312e <main+0x11de>
2597:	48 8d 1d 8a da 20 00 	lea    rbx,[rip+0x20da8a]        # 210028 <dummy_stdin.7874>
259e:	48 c7 04 24 01 00 00 	mov    QWORD PTR [rsp],0x1
25a5:	00
25a6:	4c 8b 14 24          	mov    r10,QWORD PTR [rsp]
25aa:	45 31 c0             	xor    r8d,r8d
25ad:	31 c0                	xor    eax,eax
25af:	41 b9 01 00 00 00    	mov    r9d,0x1
25b5:	0f 1f 00             	nop    DWORD PTR [rax]
25b8:	48 8b 34 c3          	mov    rsi,QWORD PTR [rbx+rax*8]
25bc:	48 8d 3d 2c 92 00 00 	lea    rdi,[rip+0x922c]        # b7ef <_IO_stdin_used+0x1ef>
25c3:	b9 02 00 00 00       	mov    ecx,0x2
25c8:	f3 a6                	repz cmps BYTE PTR ds:[rsi],BYTE PTR es:[rdi]
25ca:	0f 97 c2             	seta   dl
25cd:	80 da 00             	sbb    dl,0x0
25d0:	84 d2                	test   dl,dl
25d2:	45 0f 44 c1          	cmove  r8d,r9d
25d6:	48 83 c0 01          	add    rax,0x1
25da:	4c 39 d0             	cmp    rax,r10
25dd:	72 d9                	jb     25b8 <main+0x668>
25df:	45 84 c0             	test   r8b,r8b
25e2:	74 6c                	je     2650 <main+0x700>
25e4:	8b 05 36 da 20 00    	mov    eax,DWORD PTR [rip+0x20da36]        # 210020 <follow_mode>
25ea:	83 f8 01             	cmp    eax,0x1
25ed:	0f 84 e5 21 00 00    	je     47d8 <main+0x2888>
25f3:	80 3d 1e db 20 00 00 	cmp    BYTE PTR [rip+0x20db1e],0x0        # 210118 <forever>
25fa:	74 54                	je     2650 <main+0x700>
25fc:	83 3d 0d db 20 00 00 	cmp    DWORD PTR [rip+0x20db0d],0x0        # 210110 <pid>
2603:	0f 85 f0 02 00 00    	jne    28f9 <main+0x9a9>
2609:	83 f8 02             	cmp    eax,0x2
260c:	0f 85 e7 02 00 00    	jne    28f9 <main+0x9a9>
2612:	48 83 3c 24 01       	cmp    QWORD PTR [rsp],0x1
2617:	0f 85 dc 02 00 00    	jne    28f9 <main+0x9a9>
261d:	48 8d 94 24 20 02 00 	lea    rdx,[rsp+0x220]
2624:	00
2625:	31 f6                	xor    esi,esi
2627:	bf 01 00 00 00       	mov    edi,0x1
262c:	e8 cf f7 ff ff       	call   1e00 <__fxstat@plt>
2631:	85 c0                	test   eax,eax
2633:	0f 85 c0 02 00 00    	jne    28f9 <main+0x9a9>
2639:	8b 84 24 38 02 00 00 	mov    eax,DWORD PTR [rsp+0x238]
2640:	25 00 f0 00 00       	and    eax,0xf000
2645:	3d 00 80 00 00       	cmp    eax,0x8000
264a:	0f 84 a9 02 00 00    	je     28f9 <main+0x9a9>
2650:	48 83 bc 24 90 00 00 	cmp    QWORD PTR [rsp+0x90],0x0
2657:	00 00
2659:	75 16                	jne    2671 <main+0x721>
265b:	80 3d b6 da 20 00 00 	cmp    BYTE PTR [rip+0x20dab6],0x0        # 210118 <forever>
2662:	75 0d                	jne    2671 <main+0x721>
2664:	80 3d ab da 20 00 00 	cmp    BYTE PTR [rip+0x20daab],0x0        # 210116 <from_start>
266b:	0f 84 90 0d 00 00    	je     3401 <main+0x14b1>
2671:	ba 60 00 00 00       	mov    edx,0x60
2676:	31 c9                	xor    ecx,ecx
2678:	48 89 d0             	mov    rax,rdx
267b:	48 f7 24 24          	mul    QWORD PTR [rsp]
267f:	0f 80 ad 21 00 00    	jo     4832 <main+0x28e2>
2685:	48 85 c0             	test   rax,rax
2688:	0f 88 6d 1e 00 00    	js     44fb <main+0x25ab>
268e:	48 85 c9             	test   rcx,rcx
2691:	0f 85 64 1e 00 00    	jne    44fb <main+0x25ab>
2697:	4c 8b 34 24          	mov    r14,QWORD PTR [rsp]
269b:	4d 6b fe 60          	imul   r15,r14,0x60
269f:	4c 89 ff             	mov    rdi,r15
26a2:	4c 89 7c 24 60       	mov    QWORD PTR [rsp+0x60],r15
26a7:	e8 24 7e 00 00       	call   a4d0 <xmalloc>
26ac:	4d 85 f6             	test   r14,r14
26af:	48 89 44 24 28       	mov    QWORD PTR [rsp+0x28],rax
26b4:	0f 84 0f 14 00 00    	je     3ac9 <main+0x1b79>
26ba:	4c 89 f9             	mov    rcx,r15
26bd:	48 01 c1             	add    rcx,rax
26c0:	48 8b 13             	mov    rdx,QWORD PTR [rbx]
26c3:	48 83 c0 60          	add    rax,0x60
26c7:	48 83 c3 08          	add    rbx,0x8
26cb:	48 89 50 a0          	mov    QWORD PTR [rax-0x60],rdx
26cf:	48 39 c1             	cmp    rcx,rax
26d2:	75 ec                	jne    26c0 <main+0x770>
26d4:	83 fd 01             	cmp    ebp,0x1
26d7:	74 0b                	je     26e4 <main+0x794>
26d9:	48 83 3c 24 01       	cmp    QWORD PTR [rsp],0x1
26de:	76 16                	jbe    26f6 <main+0x7a6>
26e0:	85 ed                	test   ebp,ebp
26e2:	75 12                	jne    26f6 <main+0x7a6>
26e4:	48 83 3c 24 00       	cmp    QWORD PTR [rsp],0x0
26e9:	c6 05 25 da 20 00 01 	mov    BYTE PTR [rip+0x20da25],0x1        # 210115 <print_headers>
26f0:	0f 84 dc 13 00 00    	je     3ad2 <main+0x1b82>
26f6:	48 8d 84 24 20 02 00 	lea    rax,[rsp+0x220]
26fd:	00
26fe:	4c 8b 7c 24 28       	mov    r15,QWORD PTR [rsp+0x28]
2703:	48 c7 44 24 10 00 00 	mov    QWORD PTR [rsp+0x10],0x0
270a:	00 00
270c:	c6 84 24 8b 00 00 00 	mov    BYTE PTR [rsp+0x8b],0x1
2713:	01
2714:	44 89 6c 24 70       	mov    DWORD PTR [rsp+0x70],r13d
2719:	48 89 44 24 58       	mov    QWORD PTR [rsp+0x58],rax
271e:	66 90                	xchg   ax,ax
2720:	48 8b 84 24 90 00 00 	mov    rax,QWORD PTR [rsp+0x90]
2727:	00
2728:	48 8d 3d c0 90 00 00 	lea    rdi,[rip+0x90c0]        # b7ef <_IO_stdin_used+0x1ef>
272f:	b9 02 00 00 00       	mov    ecx,0x2
2734:	48 89 44 24 20       	mov    QWORD PTR [rsp+0x20],rax
2739:	49 8b 07             	mov    rax,QWORD PTR [r15]
273c:	48 89 c6             	mov    rsi,rax
273f:	f3 a6                	repz cmps BYTE PTR ds:[rsi],BYTE PTR es:[rdi]
2741:	0f 97 c2             	seta   dl
2744:	80 da 00             	sbb    dl,0x0
2747:	0f be f2             	movsx  esi,dl
274a:	85 f6                	test   esi,esi
274c:	89 74 24 44          	mov    DWORD PTR [rsp+0x44],esi
2750:	0f 85 d8 01 00 00    	jne    292e <main+0x9de>
2756:	c6 05 b1 d9 20 00 01 	mov    BYTE PTR [rip+0x20d9b1],0x1        # 21010e <have_read_stdin>
275d:	c7 44 24 08 00 00 00 	mov    DWORD PTR [rsp+0x8],0x0
2764:	00
2765:	41 c6 47 36 01       	mov    BYTE PTR [r15+0x36],0x1
276a:	80 3d a4 d9 20 00 00 	cmp    BYTE PTR [rip+0x20d9a4],0x0        # 210115 <print_headers>
2771:	0f 85 75 04 00 00    	jne    2bec <main+0xc9c>
2777:	49 8b 3f             	mov    rdi,QWORD PTR [r15]
277a:	e8 61 22 00 00       	call   49e0 <pretty_name.isra.7>
277f:	48 89 44 24 48       	mov    QWORD PTR [rsp+0x48],rax
2784:	0f b6 05 8e d9 20 00 	movzx  eax,BYTE PTR [rip+0x20d98e]        # 210119 <count_lines>
278b:	bf 01 00 00 00       	mov    edi,0x1
2790:	48 c7 84 24 b0 00 00 	mov    QWORD PTR [rsp+0xb0],0x0
2797:	00 00 00 00 00
279c:	48 8b 54 24 58       	mov    rdx,QWORD PTR [rsp+0x58]
27a1:	8b 74 24 08          	mov    esi,DWORD PTR [rsp+0x8]
27a5:	84 c0                	test   al,al
27a7:	88 44 24 18          	mov    BYTE PTR [rsp+0x18],al
27ab:	0f 85 a0 02 00 00    	jne    2a51 <main+0xb01>
27b1:	e8 4a f6 ff ff       	call   1e00 <__fxstat@plt>
27b6:	85 c0                	test   eax,eax
27b8:	0f 85 e0 07 00 00    	jne    2f9e <main+0x104e>
27be:	0f b6 05 51 d9 20 00 	movzx  eax,BYTE PTR [rip+0x20d951]        # 210116 <from_start>
27c5:	89 c1                	mov    ecx,eax
27c7:	88 44 24 18          	mov    BYTE PTR [rsp+0x18],al
27cb:	0f b6 05 3b d9 20 00 	movzx  eax,BYTE PTR [rip+0x20d93b]        # 21010d <presume_input_pipe>
27d2:	84 c9                	test   cl,cl
27d4:	0f 84 db 06 00 00    	je     2eb5 <main+0xf65>
27da:	84 c0                	test   al,al
27dc:	0f 85 47 08 00 00    	jne    3029 <main+0x10d9>
27e2:	48 83 7c 24 20 00    	cmp    QWORD PTR [rsp+0x20],0x0
27e8:	0f 88 3b 08 00 00    	js     3029 <main+0x10d9>
27ee:	8b 84 24 38 02 00 00 	mov    eax,DWORD PTR [rsp+0x238]
27f5:	25 00 f0 00 00       	and    eax,0xf000
27fa:	3d 00 80 00 00       	cmp    eax,0x8000
27ff:	0f 84 03 0c 00 00    	je     3408 <main+0x14b8>
2805:	48 8b 74 24 20       	mov    rsi,QWORD PTR [rsp+0x20]
280a:	8b 7c 24 08          	mov    edi,DWORD PTR [rsp+0x8]
280e:	ba 01 00 00 00       	mov    edx,0x1
2813:	e8 88 f4 ff ff       	call   1ca0 <lseek@plt>
2818:	48 83 c0 01          	add    rax,0x1
281c:	0f 84 07 08 00 00    	je     3029 <main+0x10d9>
2822:	48 8b 44 24 20       	mov    rax,QWORD PTR [rsp+0x20]
2827:	48 c7 44 24 20 ff ff 	mov    QWORD PTR [rsp+0x20],0xffffffffffffffff
282e:	ff ff
2830:	48 01 84 24 b0 00 00 	add    QWORD PTR [rsp+0xb0],rax
2837:	00
2838:	e9 14 08 00 00       	jmp    3051 <main+0x1101>
283d:	81 fe b8 02 00 00    	cmp    esi,0x2b8
2843:	41 bc 01 00 00 00    	mov    r12d,0x1
2849:	0f 87 c0 fb ff ff    	ja     240f <main+0x4bf>
284f:	e9 ba f7 ff ff       	jmp    200e <main+0xbe>
2854:	48 8b 7d 10          	mov    rdi,QWORD PTR [rbp+0x10]
2858:	48 8d 35 8f 8f 00 00 	lea    rsi,[rip+0x8f8f]        # b7ee <_IO_stdin_used+0x1ee>
285f:	e8 dc f4 ff ff       	call   1d40 <strcmp@plt>
2864:	85 c0                	test   eax,eax
2866:	0f 84 5d fb ff ff    	je     23c9 <main+0x479>
286c:	e9 9d f7 ff ff       	jmp    200e <main+0xbe>
2871:	48 83 c1 01          	add    rcx,0x1
2875:	48 89 0d 5c d8 20 00 	mov    QWORD PTR [rip+0x20d85c],rcx        # 2100d8 <optarg@@GLIBC_2.2.5>
287c:	e9 43 fa ff ff       	jmp    22c4 <main+0x374>
2881:	48 8d 35 78 9e 00 00 	lea    rsi,[rip+0x9e78]        # c700 <_IO_stdin_used+0x1100>
2888:	c6 05 8b d8 20 00 00 	mov    BYTE PTR [rip+0x20d88b],0x0        # 21011a <reopen_inaccessible_files>
288f:	ba 05 00 00 00       	mov    edx,0x5
2894:	31 ff                	xor    edi,edi
2896:	e8 35 f3 ff ff       	call   1bd0 <dcgettext@plt>
289b:	31 f6                	xor    esi,esi
289d:	48 89 c2             	mov    rdx,rax
28a0:	31 ff                	xor    edi,edi
28a2:	31 c0                	xor    eax,eax
28a4:	e8 b7 f5 ff ff       	call   1e60 <error@plt>
28a9:	8b 3d 61 d8 20 00    	mov    edi,DWORD PTR [rip+0x20d861]        # 210110 <pid>
28af:	85 ff                	test   edi,edi
28b1:	0f 84 af fc ff ff    	je     2566 <main+0x616>
28b7:	80 3d 5a d8 20 00 00 	cmp    BYTE PTR [rip+0x20d85a],0x0        # 210118 <forever>
28be:	0f 85 62 fc ff ff    	jne    2526 <main+0x5d6>
28c4:	48 8d 35 ad 9e 00 00 	lea    rsi,[rip+0x9ead]        # c778 <_IO_stdin_used+0x1178>
28cb:	31 ff                	xor    edi,edi
28cd:	ba 05 00 00 00       	mov    edx,0x5
28d2:	e8 f9 f2 ff ff       	call   1bd0 <dcgettext@plt>
28d7:	31 f6                	xor    esi,esi
28d9:	48 89 c2             	mov    rdx,rax
28dc:	31 ff                	xor    edi,edi
28de:	31 c0                	xor    eax,eax
28e0:	e8 7b f5 ff ff       	call   1e60 <error@plt>
28e5:	e9 7c fc ff ff       	jmp    2566 <main+0x616>
28ea:	80 7f 01 00          	cmp    BYTE PTR [rdi+0x1],0x0
28ee:	0f 85 64 ff ff ff    	jne    2858 <main+0x908>
28f4:	e9 d0 fa ff ff       	jmp    23c9 <main+0x479>
28f9:	31 ff                	xor    edi,edi
28fb:	e8 50 f2 ff ff       	call   1b50 <isatty@plt>
2900:	85 c0                	test   eax,eax
2902:	0f 84 48 fd ff ff    	je     2650 <main+0x700>
2908:	48 8d 35 e1 9e 00 00 	lea    rsi,[rip+0x9ee1]        # c7f0 <_IO_stdin_used+0x11f0>
290f:	31 ff                	xor    edi,edi
2911:	ba 05 00 00 00       	mov    edx,0x5
2916:	e8 b5 f2 ff ff       	call   1bd0 <dcgettext@plt>
291b:	31 f6                	xor    esi,esi
291d:	48 89 c2             	mov    rdx,rax
2920:	31 ff                	xor    edi,edi
2922:	31 c0                	xor    eax,eax
2924:	e8 37 f5 ff ff       	call   1e60 <error@plt>
2929:	e9 22 fd ff ff       	jmp    2650 <main+0x700>
292e:	31 f6                	xor    esi,esi
2930:	48 89 c7             	mov    rdi,rax
2933:	31 c0                	xor    eax,eax
2935:	e8 26 43 00 00       	call   6c60 <open_safer>
293a:	0f b6 1d d9 d7 20 00 	movzx  ebx,BYTE PTR [rip+0x20d7d9]        # 21011a <reopen_inaccessible_files>
2941:	89 44 24 08          	mov    DWORD PTR [rsp+0x8],eax
2945:	84 db                	test   bl,bl
2947:	0f 85 f7 02 00 00    	jne    2c44 <main+0xcf4>
294d:	83 7c 24 08 ff       	cmp    DWORD PTR [rsp+0x8],0xffffffff
2952:	41 c6 47 36 01       	mov    BYTE PTR [r15+0x36],0x1
2957:	0f 85 73 1e 00 00    	jne    47d0 <main+0x2880>
295d:	e8 ae f1 ff ff       	call   1b10 <__errno_location@plt>
2962:	80 3d af d7 20 00 00 	cmp    BYTE PTR [rip+0x20d7af],0x0        # 210118 <forever>
2969:	48 89 c5             	mov    rbp,rax
296c:	74 25                	je     2993 <main+0xa43>
296e:	8b 00                	mov    eax,DWORD PTR [rax]
2970:	83 f3 01             	xor    ebx,0x1
2973:	41 c7 47 38 ff ff ff 	mov    DWORD PTR [r15+0x38],0xffffffff
297a:	ff
297b:	41 88 5f 34          	mov    BYTE PTR [r15+0x34],bl
297f:	49 c7 47 28 00 00 00 	mov    QWORD PTR [r15+0x28],0x0
2986:	00
2987:	49 c7 47 20 00 00 00 	mov    QWORD PTR [r15+0x20],0x0
298e:	00
298f:	41 89 47 3c          	mov    DWORD PTR [r15+0x3c],eax
2993:	49 8b 3f             	mov    rdi,QWORD PTR [r15]
2996:	e8 45 20 00 00       	call   49e0 <pretty_name.isra.7>
299b:	bf 04 00 00 00       	mov    edi,0x4
29a0:	48 89 c6             	mov    rsi,rax
29a3:	e8 78 71 00 00       	call   9b20 <quotearg_style>
29a8:	48 8d 35 32 8f 00 00 	lea    rsi,[rip+0x8f32]        # b8e1 <_IO_stdin_used+0x2e1>
29af:	ba 05 00 00 00       	mov    edx,0x5
29b4:	31 ff                	xor    edi,edi
29b6:	48 89 c3             	mov    rbx,rax
29b9:	e8 12 f2 ff ff       	call   1bd0 <dcgettext@plt>
29be:	8b 75 00             	mov    esi,DWORD PTR [rbp+0x0]
29c1:	48 89 c2             	mov    rdx,rax
29c4:	48 89 d9             	mov    rcx,rbx
29c7:	31 ff                	xor    edi,edi
29c9:	31 c0                	xor    eax,eax
29cb:	e8 90 f4 ff ff       	call   1e60 <error@plt>
29d0:	c6 44 24 18 00       	mov    BYTE PTR [rsp+0x18],0x0
29d5:	48 83 44 24 10 01    	add    QWORD PTR [rsp+0x10],0x1
29db:	0f b6 4c 24 18       	movzx  ecx,BYTE PTR [rsp+0x18]
29e0:	49 83 c7 60          	add    r15,0x60
29e4:	20 8c 24 8b 00 00 00 	and    BYTE PTR [rsp+0x8b],cl
29eb:	48 8b 44 24 10       	mov    rax,QWORD PTR [rsp+0x10]
29f0:	48 3b 04 24          	cmp    rax,QWORD PTR [rsp]
29f4:	0f 85 26 fd ff ff    	jne    2720 <main+0x7d0>
29fa:	0f b6 05 17 d7 20 00 	movzx  eax,BYTE PTR [rip+0x20d717]        # 210118 <forever>
2a01:	84 c0                	test   al,al
2a03:	88 44 24 50          	mov    BYTE PTR [rsp+0x50],al
2a07:	0f 85 33 07 00 00    	jne    3140 <main+0x11f0>
2a0d:	80 3d fa d6 20 00 00 	cmp    BYTE PTR [rip+0x20d6fa],0x0        # 21010e <have_read_stdin>
2a14:	0f 85 3b 08 00 00    	jne    3255 <main+0x1305>
2a1a:	0f b6 84 24 8b 00 00 	movzx  eax,BYTE PTR [rsp+0x8b]
2a21:	00
2a22:	83 f0 01             	xor    eax,0x1
2a25:	0f b6 c0             	movzx  eax,al
2a28:	48 8b 8c 24 b8 02 00 	mov    rcx,QWORD PTR [rsp+0x2b8]
2a2f:	00
2a30:	64 48 33 0c 25 28 00 	xor    rcx,QWORD PTR fs:0x28
2a37:	00 00
2a39:	0f 85 fd 1d 00 00    	jne    483c <main+0x28ec>
2a3f:	48 81 c4 c8 02 00 00 	add    rsp,0x2c8
2a46:	5b                   	pop    rbx
2a47:	5d                   	pop    rbp
2a48:	41 5c                	pop    r12
2a4a:	41 5d                	pop    r13
2a4c:	41 5e                	pop    r14
2a4e:	41 5f                	pop    r15
2a50:	c3                   	ret
2a51:	e8 aa f3 ff ff       	call   1e00 <__fxstat@plt>
2a56:	85 c0                	test   eax,eax
2a58:	0f 85 83 05 00 00    	jne    2fe1 <main+0x1091>
2a5e:	0f b6 1d b1 d6 20 00 	movzx  ebx,BYTE PTR [rip+0x20d6b1]        # 210116 <from_start>
2a65:	84 db                	test   bl,bl
2a67:	0f 85 0b 06 00 00    	jne    3078 <main+0x1128>
2a6d:	80 3d 99 d6 20 00 00 	cmp    BYTE PTR [rip+0x20d699],0x0        # 21010d <presume_input_pipe>
2a74:	75 17                	jne    2a8d <main+0xb3d>
2a76:	8b 84 24 38 02 00 00 	mov    eax,DWORD PTR [rsp+0x238]
2a7d:	25 00 f0 00 00       	and    eax,0xf000
2a82:	3d 00 80 00 00       	cmp    eax,0x8000
2a87:	0f 84 52 10 00 00    	je     3adf <main+0x1b8f>
2a8d:	bf 18 20 00 00       	mov    edi,0x2018
2a92:	e8 39 7a 00 00       	call   a4d0 <xmalloc>
2a97:	bf 18 20 00 00       	mov    edi,0x2018
2a9c:	49 89 c6             	mov    r14,rax
2a9f:	48 c7 80 08 20 00 00 	mov    QWORD PTR [rax+0x2008],0x0
2aa6:	00 00 00 00
2aaa:	48 c7 80 00 20 00 00 	mov    QWORD PTR [rax+0x2000],0x0
2ab1:	00 00 00 00
2ab5:	48 c7 80 10 20 00 00 	mov    QWORD PTR [rax+0x2010],0x0
2abc:	00 00 00 00
2ac0:	e8 0b 7a 00 00       	call   a4d0 <xmalloc>
2ac5:	4c 89 74 24 50       	mov    QWORD PTR [rsp+0x50],r14
2aca:	48 89 c3             	mov    rbx,rax
2acd:	48 c7 44 24 38 00 00 	mov    QWORD PTR [rsp+0x38],0x0
2ad4:	00 00
2ad6:	4c 89 7c 24 68       	mov    QWORD PTR [rsp+0x68],r15
2adb:	0f 1f 44 00 00       	nop    DWORD PTR [rax+rax*1+0x0]
2ae0:	8b 7c 24 08          	mov    edi,DWORD PTR [rsp+0x8]
2ae4:	ba 00 20 00 00       	mov    edx,0x2000
2ae9:	48 89 de             	mov    rsi,rbx
2aec:	e8 1f 73 00 00       	call   9e10 <safe_read>
2af1:	49 89 c5             	mov    r13,rax
2af4:	48 8d 40 ff          	lea    rax,[rax-0x1]
2af8:	48 83 f8 fd          	cmp    rax,0xfffffffffffffffd
2afc:	0f 87 55 01 00 00    	ja     2c57 <main+0xd07>
2b02:	4c 89 ab 00 20 00 00 	mov    QWORD PTR [rbx+0x2000],r13
2b09:	44 0f be 25 03 d6 20 	movsx  r12d,BYTE PTR [rip+0x20d603]        # 210114 <line_end>
2b10:	00
2b11:	4a 8d 2c 2b          	lea    rbp,[rbx+r13*1]
2b15:	4c 01 ac 24 b0 00 00 	add    QWORD PTR [rsp+0xb0],r13
2b1c:	00
2b1d:	48 89 df             	mov    rdi,rbx
2b20:	48 c7 83 08 20 00 00 	mov    QWORD PTR [rbx+0x2008],0x0
2b27:	00 00 00 00
2b2b:	48 c7 83 10 20 00 00 	mov    QWORD PTR [rbx+0x2010],0x0
2b32:	00 00 00 00
2b36:	45 31 ff             	xor    r15d,r15d
2b39:	eb 13                	jmp    2b4e <main+0xbfe>
2b3b:	0f 1f 44 00 00       	nop    DWORD PTR [rax+rax*1+0x0]
2b40:	48 8d 78 01          	lea    rdi,[rax+0x1]
2b44:	48 89 93 08 20 00 00 	mov    QWORD PTR [rbx+0x2008],rdx
2b4b:	49 89 d7             	mov    r15,rdx
2b4e:	48 89 ea             	mov    rdx,rbp
2b51:	44 89 e6             	mov    esi,r12d
2b54:	48 29 fa             	sub    rdx,rdi
2b57:	e8 94 f1 ff ff       	call   1cf0 <memchr@plt>
2b5c:	48 85 c0             	test   rax,rax
2b5f:	49 8d 57 01          	lea    rdx,[r15+0x1]
2b63:	75 db                	jne    2b40 <main+0xbf0>
2b65:	49 8b be 00 20 00 00 	mov    rdi,QWORD PTR [r14+0x2000]
2b6c:	4c 01 7c 24 38       	add    QWORD PTR [rsp+0x38],r15
2b71:	49 8d 44 3d 00       	lea    rax,[r13+rdi*1+0x0]
2b76:	48 3d ff 1f 00 00    	cmp    rax,0x1fff
2b7c:	76 3f                	jbe    2bbd <main+0xc6d>
2b7e:	48 8b 74 24 50       	mov    rsi,QWORD PTR [rsp+0x50]
2b83:	48 8b 44 24 38       	mov    rax,QWORD PTR [rsp+0x38]
2b88:	49 89 9e 10 20 00 00 	mov    QWORD PTR [r14+0x2010],rbx
2b8f:	48 2b 86 08 20 00 00 	sub    rax,QWORD PTR [rsi+0x2008]
2b96:	48 39 44 24 20       	cmp    QWORD PTR [rsp+0x20],rax
2b9b:	0f 83 8e 00 00 00    	jae    2c2f <main+0xcdf>
2ba1:	48 89 44 24 38       	mov    QWORD PTR [rsp+0x38],rax
2ba6:	48 8b 86 10 20 00 00 	mov    rax,QWORD PTR [rsi+0x2010]
2bad:	49 89 de             	mov    r14,rbx
2bb0:	48 89 f3             	mov    rbx,rsi
2bb3:	48 89 44 24 50       	mov    QWORD PTR [rsp+0x50],rax
2bb8:	e9 23 ff ff ff       	jmp    2ae0 <main+0xb90>
2bbd:	4c 01 f7             	add    rdi,r14
2bc0:	4c 89 ea             	mov    rdx,r13
2bc3:	48 89 de             	mov    rsi,rbx
2bc6:	e8 95 f1 ff ff       	call   1d60 <memcpy@plt>
2bcb:	48 8b 83 00 20 00 00 	mov    rax,QWORD PTR [rbx+0x2000]
2bd2:	49 01 86 00 20 00 00 	add    QWORD PTR [r14+0x2000],rax
2bd9:	48 8b 83 08 20 00 00 	mov    rax,QWORD PTR [rbx+0x2008]
2be0:	49 01 86 08 20 00 00 	add    QWORD PTR [r14+0x2008],rax
2be7:	e9 f4 fe ff ff       	jmp    2ae0 <main+0xb90>
2bec:	48 89 c7             	mov    rdi,rax
2bef:	e8 ec 1d 00 00       	call   49e0 <pretty_name.isra.7>
2bf4:	80 3d 15 d4 20 00 00 	cmp    BYTE PTR [rip+0x20d415],0x0        # 210010 <first_file.7393>
2bfb:	48 8d 35 fe a3 00 00 	lea    rsi,[rip+0xa3fe]        # d000 <quoting_style_vals+0x80>
2c02:	48 8d 15 f8 a3 00 00 	lea    rdx,[rip+0xa3f8]        # d001 <quoting_style_vals+0x81>
2c09:	48 89 c1             	mov    rcx,rax
2c0c:	bf 01 00 00 00       	mov    edi,0x1
2c11:	48 0f 44 d6          	cmove  rdx,rsi
2c15:	48 8d 35 3c 8a 00 00 	lea    rsi,[rip+0x8a3c]        # b658 <_IO_stdin_used+0x58>
2c1c:	31 c0                	xor    eax,eax
2c1e:	e8 2d f2 ff ff       	call   1e50 <__printf_chk@plt>
2c23:	c6 05 e6 d3 20 00 00 	mov    BYTE PTR [rip+0x20d3e6],0x0        # 210010 <first_file.7393>
2c2a:	e9 48 fb ff ff       	jmp    2777 <main+0x827>
2c2f:	bf 18 20 00 00       	mov    edi,0x2018
2c34:	49 89 de             	mov    r14,rbx
2c37:	e8 94 78 00 00       	call   a4d0 <xmalloc>
2c3c:	48 89 c3             	mov    rbx,rax
2c3f:	e9 9c fe ff ff       	jmp    2ae0 <main+0xb90>
2c44:	83 c0 01             	add    eax,0x1
2c47:	0f 85 31 06 00 00    	jne    327e <main+0x132e>
2c4d:	41 c6 47 36 00       	mov    BYTE PTR [r15+0x36],0x0
2c52:	e9 06 fd ff ff       	jmp    295d <main+0xa0d>
2c57:	48 89 df             	mov    rdi,rbx
2c5a:	4c 8b 7c 24 68       	mov    r15,QWORD PTR [rsp+0x68]
2c5f:	e8 8c ee ff ff       	call   1af0 <free@plt>
2c64:	49 83 c5 01          	add    r13,0x1
2c68:	0f 84 13 0e 00 00    	je     3a81 <main+0x1b31>
2c6e:	48 83 7c 24 20 00    	cmp    QWORD PTR [rsp+0x20],0x0
2c74:	49 8b 86 00 20 00 00 	mov    rax,QWORD PTR [r14+0x2000]
2c7b:	74 09                	je     2c86 <main+0xd36>
2c7d:	48 85 c0             	test   rax,rax
2c80:	0f 85 95 06 00 00    	jne    331b <main+0x13cb>
2c86:	48 83 7c 24 50 00    	cmp    QWORD PTR [rsp+0x50],0x0
2c8c:	74 22                	je     2cb0 <main+0xd60>
2c8e:	48 8b 7c 24 50       	mov    rdi,QWORD PTR [rsp+0x50]
2c93:	0f 1f 44 00 00       	nop    DWORD PTR [rax+rax*1+0x0]
2c98:	48 8b 9f 10 20 00 00 	mov    rbx,QWORD PTR [rdi+0x2010]
2c9f:	e8 4c ee ff ff       	call   1af0 <free@plt>
2ca4:	48 85 db             	test   rbx,rbx
2ca7:	48 89 df             	mov    rdi,rbx
2caa:	75 ec                	jne    2c98 <main+0xd48>
2cac:	0f 1f 40 00          	nop    DWORD PTR [rax+0x0]
2cb0:	80 3d 61 d4 20 00 00 	cmp    BYTE PTR [rip+0x20d461],0x0        # 210118 <forever>
2cb7:	75 6a                	jne    2d23 <main+0xdd3>
2cb9:	83 7c 24 44 00       	cmp    DWORD PTR [rsp+0x44],0x0
2cbe:	0f 84 11 fd ff ff    	je     29d5 <main+0xa85>
2cc4:	8b 7c 24 08          	mov    edi,DWORD PTR [rsp+0x8]
2cc8:	e8 13 f0 ff ff       	call   1ce0 <close@plt>
2ccd:	85 c0                	test   eax,eax
2ccf:	0f 84 00 fd ff ff    	je     29d5 <main+0xa85>
2cd5:	49 8b 3f             	mov    rdi,QWORD PTR [r15]
2cd8:	e8 03 1d 00 00       	call   49e0 <pretty_name.isra.7>
2cdd:	bf 04 00 00 00       	mov    edi,0x4
2ce2:	48 89 c6             	mov    rsi,rax
2ce5:	e8 36 6e 00 00       	call   9b20 <quotearg_style>
2cea:	48 8d 35 56 89 00 00 	lea    rsi,[rip+0x8956]        # b647 <_IO_stdin_used+0x47>
2cf1:	ba 05 00 00 00       	mov    edx,0x5
2cf6:	31 ff                	xor    edi,edi
2cf8:	48 89 c3             	mov    rbx,rax
2cfb:	e8 d0 ee ff ff       	call   1bd0 <dcgettext@plt>
2d00:	48 89 c5             	mov    rbp,rax
2d03:	e8 08 ee ff ff       	call   1b10 <__errno_location@plt>
2d08:	8b 30                	mov    esi,DWORD PTR [rax]
2d0a:	48 89 d9             	mov    rcx,rbx
2d0d:	48 89 ea             	mov    rdx,rbp
2d10:	31 ff                	xor    edi,edi
2d12:	31 c0                	xor    eax,eax
2d14:	e8 47 f1 ff ff       	call   1e60 <error@plt>
2d19:	c6 44 24 18 00       	mov    BYTE PTR [rsp+0x18],0x0
2d1e:	e9 b2 fc ff ff       	jmp    29d5 <main+0xa85>
2d23:	0f b6 44 24 18       	movzx  eax,BYTE PTR [rsp+0x18]
2d28:	48 8b 54 24 58       	mov    rdx,QWORD PTR [rsp+0x58]
2d2d:	bf 01 00 00 00       	mov    edi,0x1
2d32:	8b 74 24 08          	mov    esi,DWORD PTR [rsp+0x8]
2d36:	83 e8 01             	sub    eax,0x1
2d39:	41 89 47 3c          	mov    DWORD PTR [r15+0x3c],eax
2d3d:	e8 be f0 ff ff       	call   1e00 <__fxstat@plt>
2d42:	85 c0                	test   eax,eax
2d44:	0f 88 73 05 00 00    	js     32bd <main+0x136d>
2d4a:	8b 94 24 38 02 00 00 	mov    edx,DWORD PTR [rsp+0x238]
2d51:	89 d0                	mov    eax,edx
2d53:	25 00 f0 00 00       	and    eax,0xf000
2d58:	2d 00 10 00 00       	sub    eax,0x1000
2d5d:	a9 00 e0 ff ff       	test   eax,0xffffe000
2d62:	74 12                	je     2d76 <main+0xe26>
2d64:	89 d0                	mov    eax,edx
2d66:	25 00 b0 00 00       	and    eax,0xb000
2d6b:	3d 00 80 00 00       	cmp    eax,0x8000
2d70:	0f 85 8e 00 00 00    	jne    2e04 <main+0xeb4>
2d76:	80 7c 24 18 00       	cmp    BYTE PTR [rsp+0x18],0x0
2d7b:	0f 84 00 01 00 00    	je     2e81 <main+0xf31>
2d81:	48 8b 8c 24 b0 00 00 	mov    rcx,QWORD PTR [rsp+0xb0]
2d88:	00
2d89:	83 7c 24 44 00       	cmp    DWORD PTR [rsp+0x44],0x0
2d8e:	b8 01 00 00 00       	mov    eax,0x1
2d93:	0f 44 44 24 70       	cmove  eax,DWORD PTR [rsp+0x70]
2d98:	8b 5c 24 08          	mov    ebx,DWORD PTR [rsp+0x8]
2d9c:	49 8b 3f             	mov    rdi,QWORD PTR [r15]
2d9f:	41 89 57 30          	mov    DWORD PTR [r15+0x30],edx
2da3:	49 89 4f 08          	mov    QWORD PTR [r15+0x8],rcx
2da7:	48 8b 8c 24 78 02 00 	mov    rcx,QWORD PTR [rsp+0x278]
2dae:	00
2daf:	41 89 5f 38          	mov    DWORD PTR [r15+0x38],ebx
2db3:	49 c7 47 58 00 00 00 	mov    QWORD PTR [r15+0x58],0x0
2dba:	00
2dbb:	41 89 47 40          	mov    DWORD PTR [r15+0x40],eax
2dbf:	41 c6 47 34 00       	mov    BYTE PTR [r15+0x34],0x0
2dc4:	49 89 4f 10          	mov    QWORD PTR [r15+0x10],rcx
2dc8:	48 8b 8c 24 80 02 00 	mov    rcx,QWORD PTR [rsp+0x280]
2dcf:	00
2dd0:	49 89 4f 18          	mov    QWORD PTR [r15+0x18],rcx
2dd4:	48 8b 8c 24 20 02 00 	mov    rcx,QWORD PTR [rsp+0x220]
2ddb:	00
2ddc:	49 89 4f 20          	mov    QWORD PTR [r15+0x20],rcx
2de0:	48 8b 8c 24 28 02 00 	mov    rcx,QWORD PTR [rsp+0x228]
2de7:	00
2de8:	49 89 4f 28          	mov    QWORD PTR [r15+0x28],rcx
2dec:	e8 ef 1b 00 00       	call   49e0 <pretty_name.isra.7>
2df1:	89 df                	mov    edi,ebx
2df3:	48 89 c6             	mov    rsi,rax
2df6:	e8 a5 25 00 00       	call   53a0 <fremote>
2dfb:	41 88 47 35          	mov    BYTE PTR [r15+0x35],al
2dff:	e9 d1 fb ff ff       	jmp    29d5 <main+0xa85>
2e04:	0f b6 05 0f d3 20 00 	movzx  eax,BYTE PTR [rip+0x20d30f]        # 21011a <reopen_inaccessible_files>
2e0b:	41 c7 47 3c ff ff ff 	mov    DWORD PTR [r15+0x3c],0xffffffff
2e12:	ff
2e13:	48 8d 2d e7 a1 00 00 	lea    rbp,[rip+0xa1e7]        # d001 <quoting_style_vals+0x81>
2e1a:	41 c6 47 36 00       	mov    BYTE PTR [r15+0x36],0x0
2e1f:	83 f0 01             	xor    eax,0x1
2e22:	84 c0                	test   al,al
2e24:	41 88 47 34          	mov    BYTE PTR [r15+0x34],al
2e28:	74 16                	je     2e40 <main+0xef0>
2e2a:	48 8d 35 bd 88 00 00 	lea    rsi,[rip+0x88bd]        # b6ee <_IO_stdin_used+0xee>
2e31:	ba 05 00 00 00       	mov    edx,0x5
2e36:	31 ff                	xor    edi,edi
2e38:	e8 93 ed ff ff       	call   1bd0 <dcgettext@plt>
2e3d:	48 89 c5             	mov    rbp,rax
2e40:	49 8b 3f             	mov    rdi,QWORD PTR [r15]
2e43:	e8 98 1b 00 00       	call   49e0 <pretty_name.isra.7>
2e48:	be 03 00 00 00       	mov    esi,0x3
2e4d:	48 89 c2             	mov    rdx,rax
2e50:	31 ff                	xor    edi,edi
2e52:	e8 c9 6d 00 00       	call   9c20 <quotearg_n_style_colon>
2e57:	48 8d 35 d2 99 00 00 	lea    rsi,[rip+0x99d2]        # c830 <_IO_stdin_used+0x1230>
2e5e:	48 89 c3             	mov    rbx,rax
2e61:	ba 05 00 00 00       	mov    edx,0x5
2e66:	31 ff                	xor    edi,edi
2e68:	e8 63 ed ff ff       	call   1bd0 <dcgettext@plt>
2e6d:	49 89 e8             	mov    r8,rbp
2e70:	48 89 c2             	mov    rdx,rax
2e73:	48 89 d9             	mov    rcx,rbx
2e76:	31 f6                	xor    esi,esi
2e78:	31 ff                	xor    edi,edi
2e7a:	31 c0                	xor    eax,eax
2e7c:	e8 df ef ff ff       	call   1e60 <error@plt>
2e81:	0f b6 05 92 d2 20 00 	movzx  eax,BYTE PTR [rip+0x20d292]        # 21011a <reopen_inaccessible_files>
2e88:	49 8b 3f             	mov    rdi,QWORD PTR [r15]
2e8b:	83 f0 01             	xor    eax,0x1
2e8e:	41 88 47 34          	mov    BYTE PTR [r15+0x34],al
2e92:	e8 49 1b 00 00       	call   49e0 <pretty_name.isra.7>
2e97:	8b 7c 24 08          	mov    edi,DWORD PTR [rsp+0x8]
2e9b:	48 89 c6             	mov    rsi,rax
2e9e:	e8 7d 1b 00 00       	call   4a20 <close_fd>
2ea3:	41 c7 47 38 ff ff ff 	mov    DWORD PTR [r15+0x38],0xffffffff
2eaa:	ff
2eab:	c6 44 24 18 00       	mov    BYTE PTR [rsp+0x18],0x0
2eb0:	e9 20 fb ff ff       	jmp    29d5 <main+0xa85>
2eb5:	84 c0                	test   al,al
2eb7:	0f 84 ea 01 00 00    	je     30a7 <main+0x1157>
2ebd:	bf 10 20 00 00       	mov    edi,0x2010
2ec2:	45 31 e4             	xor    r12d,r12d
2ec5:	e8 06 76 00 00       	call   a4d0 <xmalloc>
2eca:	bf 10 20 00 00       	mov    edi,0x2010
2ecf:	49 89 c5             	mov    r13,rax
2ed2:	48 c7 80 00 20 00 00 	mov    QWORD PTR [rax+0x2000],0x0
2ed9:	00 00 00 00
2edd:	48 c7 80 08 20 00 00 	mov    QWORD PTR [rax+0x2008],0x0
2ee4:	00 00 00 00
2ee8:	4c 89 ed             	mov    rbp,r13
2eeb:	e8 e0 75 00 00       	call   a4d0 <xmalloc>
2ef0:	44 8b 74 24 08       	mov    r14d,DWORD PTR [rsp+0x8]
2ef5:	48 89 c3             	mov    rbx,rax
2ef8:	eb 2f                	jmp    2f29 <main+0xfd9>
2efa:	4c 89 e0             	mov    rax,r12
2efd:	48 2b 85 00 20 00 00 	sub    rax,QWORD PTR [rbp+0x2000]
2f04:	49 89 9d 08 20 00 00 	mov    QWORD PTR [r13+0x2008],rbx
2f0b:	48 39 44 24 20       	cmp    QWORD PTR [rsp+0x20],rax
2f10:	0f 83 f6 03 00 00    	jae    330c <main+0x13bc>
2f16:	49 89 c4             	mov    r12,rax
2f19:	48 89 e8             	mov    rax,rbp
2f1c:	48 8b ad 08 20 00 00 	mov    rbp,QWORD PTR [rbp+0x2008]
2f23:	49 89 dd             	mov    r13,rbx
2f26:	48 89 c3             	mov    rbx,rax
2f29:	ba 00 20 00 00       	mov    edx,0x2000
2f2e:	48 89 de             	mov    rsi,rbx
2f31:	44 89 f7             	mov    edi,r14d
2f34:	e8 d7 6e 00 00       	call   9e10 <safe_read>
2f39:	48 8d 50 ff          	lea    rdx,[rax-0x1]
2f3d:	48 83 fa fd          	cmp    rdx,0xfffffffffffffffd
2f41:	0f 87 95 0a 00 00    	ja     39dc <main+0x1a8c>
2f47:	48 01 84 24 b0 00 00 	add    QWORD PTR [rsp+0xb0],rax
2f4e:	00
2f4f:	48 89 83 00 20 00 00 	mov    QWORD PTR [rbx+0x2000],rax
2f56:	49 01 c4             	add    r12,rax
2f59:	49 8b 95 00 20 00 00 	mov    rdx,QWORD PTR [r13+0x2000]
2f60:	48 c7 83 08 20 00 00 	mov    QWORD PTR [rbx+0x2008],0x0
2f67:	00 00 00 00
2f6b:	48 8d 34 10          	lea    rsi,[rax+rdx*1]
2f6f:	48 81 fe ff 1f 00 00 	cmp    rsi,0x1fff
2f76:	77 82                	ja     2efa <main+0xfaa>
2f78:	49 8d 7c 15 00       	lea    rdi,[r13+rdx*1+0x0]
2f7d:	48 89 de             	mov    rsi,rbx
2f80:	48 89 c2             	mov    rdx,rax
2f83:	e8 d8 ed ff ff       	call   1d60 <memcpy@plt>
2f88:	48 8b 83 00 20 00 00 	mov    rax,QWORD PTR [rbx+0x2000]
2f8f:	49 01 85 00 20 00 00 	add    QWORD PTR [r13+0x2000],rax
2f96:	48 89 d8             	mov    rax,rbx
2f99:	4c 89 eb             	mov    rbx,r13
2f9c:	eb 85                	jmp    2f23 <main+0xfd3>
2f9e:	48 8b 74 24 48       	mov    rsi,QWORD PTR [rsp+0x48]
2fa3:	bf 04 00 00 00       	mov    edi,0x4
2fa8:	e8 73 6b 00 00       	call   9b20 <quotearg_style>
2fad:	48 8d 35 48 89 00 00 	lea    rsi,[rip+0x8948]        # b8fc <_IO_stdin_used+0x2fc>
2fb4:	31 ff                	xor    edi,edi
2fb6:	ba 05 00 00 00       	mov    edx,0x5
2fbb:	48 89 c3             	mov    rbx,rax
2fbe:	e8 0d ec ff ff       	call   1bd0 <dcgettext@plt>
2fc3:	48 89 c5             	mov    rbp,rax
2fc6:	e8 45 eb ff ff       	call   1b10 <__errno_location@plt>
2fcb:	8b 30                	mov    esi,DWORD PTR [rax]
2fcd:	48 89 d9             	mov    rcx,rbx
2fd0:	48 89 ea             	mov    rdx,rbp
2fd3:	31 ff                	xor    edi,edi
2fd5:	31 c0                	xor    eax,eax
2fd7:	e8 84 ee ff ff       	call   1e60 <error@plt>
2fdc:	e9 cf fc ff ff       	jmp    2cb0 <main+0xd60>
2fe1:	48 8b 74 24 48       	mov    rsi,QWORD PTR [rsp+0x48]
2fe6:	bf 04 00 00 00       	mov    edi,0x4
2feb:	e8 30 6b 00 00       	call   9b20 <quotearg_style>
2ff0:	48 8d 35 05 89 00 00 	lea    rsi,[rip+0x8905]        # b8fc <_IO_stdin_used+0x2fc>
2ff7:	ba 05 00 00 00       	mov    edx,0x5
2ffc:	31 ff                	xor    edi,edi
2ffe:	48 89 c3             	mov    rbx,rax
3001:	e8 ca eb ff ff       	call   1bd0 <dcgettext@plt>
3006:	48 89 c5             	mov    rbp,rax
3009:	e8 02 eb ff ff       	call   1b10 <__errno_location@plt>
300e:	8b 30                	mov    esi,DWORD PTR [rax]
3010:	48 89 d9             	mov    rcx,rbx
3013:	48 89 ea             	mov    rdx,rbp
3016:	31 ff                	xor    edi,edi
3018:	31 c0                	xor    eax,eax
301a:	e8 41 ee ff ff       	call   1e60 <error@plt>
301f:	c6 44 24 18 00       	mov    BYTE PTR [rsp+0x18],0x0
3024:	e9 87 fc ff ff       	jmp    2cb0 <main+0xd60>
3029:	48 8b 54 24 20       	mov    rdx,QWORD PTR [rsp+0x20]
302e:	8b 74 24 08          	mov    esi,DWORD PTR [rsp+0x8]
3032:	48 8d 8c 24 b0 00 00 	lea    rcx,[rsp+0xb0]
3039:	00
303a:	48 8b 7c 24 48       	mov    rdi,QWORD PTR [rsp+0x48]
303f:	e8 5c 1d 00 00       	call   4da0 <start_bytes>
3044:	85 c0                	test   eax,eax
3046:	48 c7 44 24 20 ff ff 	mov    QWORD PTR [rsp+0x20],0xffffffffffffffff
304d:	ff ff
304f:	75 4a                	jne    309b <main+0x114b>
3051:	48 8b 4c 24 20       	mov    rcx,QWORD PTR [rsp+0x20]
3056:	8b 54 24 08          	mov    edx,DWORD PTR [rsp+0x8]
305a:	31 ff                	xor    edi,edi
305c:	48 8b 74 24 48       	mov    rsi,QWORD PTR [rsp+0x48]
3061:	e8 ea 1b 00 00       	call   4c50 <dump_remainder>
3066:	c6 44 24 18 01       	mov    BYTE PTR [rsp+0x18],0x1
306b:	48 01 84 24 b0 00 00 	add    QWORD PTR [rsp+0xb0],rax
3072:	00
3073:	e9 38 fc ff ff       	jmp    2cb0 <main+0xd60>
3078:	48 8b 54 24 20       	mov    rdx,QWORD PTR [rsp+0x20]
307d:	8b 74 24 08          	mov    esi,DWORD PTR [rsp+0x8]
3081:	48 8d 8c 24 b0 00 00 	lea    rcx,[rsp+0xb0]
3088:	00
3089:	48 8b 7c 24 48       	mov    rdi,QWORD PTR [rsp+0x48]
308e:	e8 7d 1a 00 00       	call   4b10 <start_lines>
3093:	85 c0                	test   eax,eax
3095:	0f 84 41 03 00 00    	je     33dc <main+0x148c>
309b:	c1 e8 1f             	shr    eax,0x1f
309e:	89 44 24 18          	mov    DWORD PTR [rsp+0x18],eax
30a2:	e9 09 fc ff ff       	jmp    2cb0 <main+0xd60>
30a7:	48 83 7c 24 20 00    	cmp    QWORD PTR [rsp+0x20],0x0
30ad:	0f 88 0a fe ff ff    	js     2ebd <main+0xf6d>
30b3:	8b 84 24 38 02 00 00 	mov    eax,DWORD PTR [rsp+0x238]
30ba:	25 00 d0 00 00       	and    eax,0xd000
30bf:	3d 00 80 00 00       	cmp    eax,0x8000
30c4:	0f 85 d7 0a 00 00    	jne    3ba1 <main+0x1c51>
30ca:	48 8b ac 24 50 02 00 	mov    rbp,QWORD PTR [rsp+0x250]
30d1:	00
30d2:	48 83 cb ff          	or     rbx,0xffffffffffffffff
30d6:	48 8b 84 24 58 02 00 	mov    rax,QWORD PTR [rsp+0x258]
30dd:	00
30de:	48 b9 ff ff ff ff ff 	movabs rcx,0x1fffffffffffffff
30e5:	ff ff 1f
30e8:	48 8d 50 ff          	lea    rdx,[rax-0x1]
30ec:	48 39 ca             	cmp    rdx,rcx
30ef:	ba 00 02 00 00       	mov    edx,0x200
30f4:	48 0f 47 c2          	cmova  rax,rdx
30f8:	48 39 c5             	cmp    rbp,rax
30fb:	0f 8e bc fd ff ff    	jle    2ebd <main+0xf6d>
3101:	48 83 fb ff          	cmp    rbx,0xffffffffffffffff
3105:	0f 84 48 0a 00 00    	je     3b53 <main+0x1c03>
310b:	48 39 dd             	cmp    rbp,rbx
310e:	7e 11                	jle    3121 <main+0x11d1>
3110:	48 89 e8             	mov    rax,rbp
3113:	48 29 d8             	sub    rax,rbx
3116:	48 39 44 24 20       	cmp    QWORD PTR [rsp+0x20],rax
311b:	0f 82 60 0a 00 00    	jb     3b81 <main+0x1c31>
3121:	48 89 9c 24 b0 00 00 	mov    QWORD PTR [rsp+0xb0],rbx
3128:	00
3129:	e9 23 ff ff ff       	jmp    3051 <main+0x1101>
312e:	29 c3                	sub    ebx,eax
3130:	48 63 cb             	movsxd rcx,ebx
3133:	49 8d 1c c4          	lea    rbx,[r12+rax*8]
3137:	48 89 0c 24          	mov    QWORD PTR [rsp],rcx
313b:	e9 66 f4 ff ff       	jmp    25a6 <main+0x656>
3140:	48 8b 6c 24 60       	mov    rbp,QWORD PTR [rsp+0x60]
3145:	4c 8b 6c 24 28       	mov    r13,QWORD PTR [rsp+0x28]
314a:	4c 8d 25 9e 86 00 00 	lea    r12,[rip+0x869e]        # b7ef <_IO_stdin_used+0x1ef>
3151:	31 db                	xor    ebx,ebx
3153:	4c 01 ed             	add    rbp,r13
3156:	4c 39 ed             	cmp    rbp,r13
3159:	74 47                	je     31a2 <main+0x1252>
315b:	49 8b 7d 00          	mov    rdi,QWORD PTR [r13+0x0]
315f:	4c 89 e6             	mov    rsi,r12
3162:	e8 d9 eb ff ff       	call   1d40 <strcmp@plt>
3167:	85 c0                	test   eax,eax
3169:	75 1e                	jne    3189 <main+0x1239>
316b:	41 80 7d 34 00       	cmp    BYTE PTR [r13+0x34],0x0
3170:	75 17                	jne    3189 <main+0x1239>
3172:	41 83 7d 38 00       	cmp    DWORD PTR [r13+0x38],0x0
3177:	78 10                	js     3189 <main+0x1239>
3179:	41 8b 45 30          	mov    eax,DWORD PTR [r13+0x30]
317d:	25 00 f0 00 00       	and    eax,0xf000
3182:	3d 00 10 00 00       	cmp    eax,0x1000
3187:	74 0a                	je     3193 <main+0x1243>
3189:	48 83 c3 01          	add    rbx,0x1
318d:	49 83 c5 60          	add    r13,0x60
3191:	eb c3                	jmp    3156 <main+0x1206>
3193:	41 c7 45 38 ff ff ff 	mov    DWORD PTR [r13+0x38],0xffffffff
319a:	ff
319b:	41 c6 45 34 01       	mov    BYTE PTR [r13+0x34],0x1
31a0:	eb eb                	jmp    318d <main+0x123d>
31a2:	48 85 db             	test   rbx,rbx
31a5:	0f 84 62 f8 ff ff    	je     2a0d <main+0xabd>
31ab:	48 8d 94 24 90 01 00 	lea    rdx,[rsp+0x190]
31b2:	00
31b3:	be 01 00 00 00       	mov    esi,0x1
31b8:	bf 01 00 00 00       	mov    edi,0x1
31bd:	e8 3e ec ff ff       	call   1e00 <__fxstat@plt>
31c2:	85 c0                	test   eax,eax
31c4:	0f 88 b7 16 00 00    	js     4881 <main+0x2931>
31ca:	8b 84 24 a8 01 00 00 	mov    eax,DWORD PTR [rsp+0x1a8]
31d1:	25 00 f0 00 00       	and    eax,0xf000
31d6:	3d 00 10 00 00       	cmp    eax,0x1000
31db:	0f 94 05 35 cf 20 00 	sete   BYTE PTR [rip+0x20cf35]        # 210117 <monitor_output>
31e2:	80 3d 23 cf 20 00 00 	cmp    BYTE PTR [rip+0x20cf23],0x0        # 21010c <disable_inotify>
31e9:	0f 85 59 02 00 00    	jne    3448 <main+0x14f8>
31ef:	48 8b 6c 24 28       	mov    rbp,QWORD PTR [rsp+0x28]
31f4:	48 8d 1d f4 85 00 00 	lea    rbx,[rip+0x85f4]        # b7ef <_IO_stdin_used+0x1ef>
31fb:	eb 1e                	jmp    321b <main+0x12cb>
31fd:	80 7d 34 00          	cmp    BYTE PTR [rbp+0x34],0x0
3201:	75 14                	jne    3217 <main+0x12c7>
3203:	48 8b 7d 00          	mov    rdi,QWORD PTR [rbp+0x0]
3207:	48 89 de             	mov    rsi,rbx
320a:	e8 31 eb ff ff       	call   1d40 <strcmp@plt>
320f:	85 c0                	test   eax,eax
3211:	0f 84 31 02 00 00    	je     3448 <main+0x14f8>
3217:	48 83 c5 60          	add    rbp,0x60
321b:	4c 39 ed             	cmp    rbp,r13
321e:	75 dd                	jne    31fd <main+0x12ad>
3220:	48 8b 44 24 28       	mov    rax,QWORD PTR [rsp+0x28]
3225:	48 8b 4c 24 60       	mov    rcx,QWORD PTR [rsp+0x60]
322a:	48 8d 50 35          	lea    rdx,[rax+0x35]
322e:	48 8d 4c 08 35       	lea    rcx,[rax+rcx*1+0x35]
3233:	48 89 d0             	mov    rax,rdx
3236:	eb 13                	jmp    324b <main+0x12fb>
3238:	83 78 03 00          	cmp    DWORD PTR [rax+0x3],0x0
323c:	78 09                	js     3247 <main+0x12f7>
323e:	80 38 00             	cmp    BYTE PTR [rax],0x0
3241:	0f 85 01 02 00 00    	jne    3448 <main+0x14f8>
3247:	48 83 c0 60          	add    rax,0x60
324b:	48 39 c8             	cmp    rax,rcx
324e:	75 e8                	jne    3238 <main+0x12e8>
3250:	e9 ee 01 00 00       	jmp    3443 <main+0x14f3>
3255:	31 ff                	xor    edi,edi
3257:	e8 84 ea ff ff       	call   1ce0 <close@plt>
325c:	85 c0                	test   eax,eax
325e:	0f 89 b6 f7 ff ff    	jns    2a1a <main+0xaca>
3264:	e8 a7 e8 ff ff       	call   1b10 <__errno_location@plt>
3269:	8b 30                	mov    esi,DWORD PTR [rax]
326b:	48 8d 15 7d 85 00 00 	lea    rdx,[rip+0x857d]        # b7ef <_IO_stdin_used+0x1ef>
3272:	bf 01 00 00 00       	mov    edi,0x1
3277:	31 c0                	xor    eax,eax
3279:	e8 e2 eb ff ff       	call   1e60 <error@plt>
327e:	49 8b 07             	mov    rax,QWORD PTR [r15]
3281:	e9 df f4 ff ff       	jmp    2765 <main+0x815>
3286:	45 31 f6             	xor    r14d,r14d
3289:	b9 00 14 00 00       	mov    ecx,0x1400
328e:	48 8d 42 01          	lea    rax,[rdx+0x1]
3292:	e9 c3 f1 ff ff       	jmp    245a <main+0x50a>
3297:	89 c8                	mov    eax,ecx
3299:	48 89 84 24 90 00 00 	mov    QWORD PTR [rsp+0x90],rax
32a0:	00
32a1:	e9 fc f1 ff ff       	jmp    24a2 <main+0x552>
32a6:	41 be 01 00 00 00    	mov    r14d,0x1
32ac:	b9 0a 00 00 00       	mov    ecx,0xa
32b1:	eb db                	jmp    328e <main+0x133e>
32b3:	45 31 f6             	xor    r14d,r14d
32b6:	b9 0a 00 00 00       	mov    ecx,0xa
32bb:	eb d1                	jmp    328e <main+0x133e>
32bd:	e8 4e e8 ff ff       	call   1b10 <__errno_location@plt>
32c2:	48 89 c3             	mov    rbx,rax
32c5:	8b 00                	mov    eax,DWORD PTR [rax]
32c7:	49 8b 3f             	mov    rdi,QWORD PTR [r15]
32ca:	41 89 47 3c          	mov    DWORD PTR [r15+0x3c],eax
32ce:	e8 0d 17 00 00       	call   49e0 <pretty_name.isra.7>
32d3:	bf 04 00 00 00       	mov    edi,0x4
32d8:	48 89 c6             	mov    rsi,rax
32db:	e8 40 68 00 00       	call   9b20 <quotearg_style>
32e0:	48 8d 35 60 83 00 00 	lea    rsi,[rip+0x8360]        # b647 <_IO_stdin_used+0x47>
32e7:	31 ff                	xor    edi,edi
32e9:	ba 05 00 00 00       	mov    edx,0x5
32ee:	48 89 c5             	mov    rbp,rax
32f1:	e8 da e8 ff ff       	call   1bd0 <dcgettext@plt>
32f6:	8b 33                	mov    esi,DWORD PTR [rbx]
32f8:	48 89 c2             	mov    rdx,rax
32fb:	48 89 e9             	mov    rcx,rbp
32fe:	31 ff                	xor    edi,edi
3300:	31 c0                	xor    eax,eax
3302:	e8 59 eb ff ff       	call   1e60 <error@plt>
3307:	e9 75 fb ff ff       	jmp    2e81 <main+0xf31>
330c:	bf 10 20 00 00       	mov    edi,0x2010
3311:	e8 ba 71 00 00       	call   a4d0 <xmalloc>
3316:	e9 08 fc ff ff       	jmp    2f23 <main+0xfd3>
331b:	44 0f be 25 f1 cd 20 	movsx  r12d,BYTE PTR [rip+0x20cdf1]        # 210114 <line_end>
3322:	00
3323:	45 38 64 06 ff       	cmp    BYTE PTR [r14+rax*1-0x1],r12b
3328:	74 0e                	je     3338 <main+0x13e8>
332a:	49 83 86 08 20 00 00 	add    QWORD PTR [r14+0x2008],0x1
3331:	01
3332:	48 83 44 24 38 01    	add    QWORD PTR [rsp+0x38],0x1
3338:	4c 8b 6c 24 50       	mov    r13,QWORD PTR [rsp+0x50]
333d:	48 8b 54 24 38       	mov    rdx,QWORD PTR [rsp+0x38]
3342:	48 8b 4c 24 20       	mov    rcx,QWORD PTR [rsp+0x20]
3347:	eb 0a                	jmp    3353 <main+0x1403>
3349:	4d 8b ad 10 20 00 00 	mov    r13,QWORD PTR [r13+0x2010]
3350:	48 89 c2             	mov    rdx,rax
3353:	48 89 d0             	mov    rax,rdx
3356:	49 2b 85 08 20 00 00 	sub    rax,QWORD PTR [r13+0x2008]
335d:	48 39 c1             	cmp    rcx,rax
3360:	72 e7                	jb     3349 <main+0x13f9>
3362:	49 8b ad 00 20 00 00 	mov    rbp,QWORD PTR [r13+0x2000]
3369:	48 8b 44 24 20       	mov    rax,QWORD PTR [rsp+0x20]
336e:	48 89 d3             	mov    rbx,rdx
3371:	4c 89 ef             	mov    rdi,r13
3374:	4c 01 ed             	add    rbp,r13
3377:	48 39 d0             	cmp    rax,rdx
337a:	73 24                	jae    33a0 <main+0x1450>
337c:	48 29 c3             	sub    rbx,rax
337f:	48 89 ea             	mov    rdx,rbp
3382:	44 89 e6             	mov    esi,r12d
3385:	48 29 fa             	sub    rdx,rdi
3388:	e8 63 e9 ff ff       	call   1cf0 <memchr@plt>
338d:	48 85 c0             	test   rax,rax
3390:	0f 84 7d 14 00 00    	je     4813 <main+0x28c3>
3396:	48 83 eb 01          	sub    rbx,0x1
339a:	48 8d 78 01          	lea    rdi,[rax+0x1]
339e:	75 df                	jne    337f <main+0x142f>
33a0:	48 89 ee             	mov    rsi,rbp
33a3:	48 29 fe             	sub    rsi,rdi
33a6:	74 05                	je     33ad <main+0x145d>
33a8:	e8 e3 16 00 00       	call   4a90 <xwrite_stdout.part.10>
33ad:	49 8b 9d 10 20 00 00 	mov    rbx,QWORD PTR [r13+0x2010]
33b4:	eb 07                	jmp    33bd <main+0x146d>
33b6:	48 8b 9b 10 20 00 00 	mov    rbx,QWORD PTR [rbx+0x2010]
33bd:	48 85 db             	test   rbx,rbx
33c0:	0f 84 c0 f8 ff ff    	je     2c86 <main+0xd36>
33c6:	48 8b b3 00 20 00 00 	mov    rsi,QWORD PTR [rbx+0x2000]
33cd:	48 85 f6             	test   rsi,rsi
33d0:	74 e4                	je     33b6 <main+0x1466>
33d2:	48 89 df             	mov    rdi,rbx
33d5:	e8 b6 16 00 00       	call   4a90 <xwrite_stdout.part.10>
33da:	eb da                	jmp    33b6 <main+0x1466>
33dc:	8b 54 24 08          	mov    edx,DWORD PTR [rsp+0x8]
33e0:	48 8b 74 24 48       	mov    rsi,QWORD PTR [rsp+0x48]
33e5:	48 83 c9 ff          	or     rcx,0xffffffffffffffff
33e9:	31 ff                	xor    edi,edi
33eb:	e8 60 18 00 00       	call   4c50 <dump_remainder>
33f0:	88 5c 24 18          	mov    BYTE PTR [rsp+0x18],bl
33f4:	48 01 84 24 b0 00 00 	add    QWORD PTR [rsp+0xb0],rax
33fb:	00
33fc:	e9 af f8 ff ff       	jmp    2cb0 <main+0xd60>
3401:	31 c0                	xor    eax,eax
3403:	e9 20 f6 ff ff       	jmp    2a28 <main+0xad8>
3408:	48 8b 4c 24 48       	mov    rcx,QWORD PTR [rsp+0x48]
340d:	48 8b 74 24 20       	mov    rsi,QWORD PTR [rsp+0x20]
3412:	ba 01 00 00 00       	mov    edx,0x1
3417:	8b 7c 24 08          	mov    edi,DWORD PTR [rsp+0x8]
341b:	e8 80 1a 00 00       	call   4ea0 <xlseek>
3420:	48 85 c0             	test   rax,rax
3423:	0f 89 f9 f3 ff ff    	jns    2822 <main+0x8d2>
3429:	e9 d7 f3 ff ff       	jmp    2805 <main+0x8b5>
342e:	83 7a 03 00          	cmp    DWORD PTR [rdx+0x3],0x0
3432:	78 0b                	js     343f <main+0x14ef>
3434:	0f b6 0a             	movzx  ecx,BYTE PTR [rdx]
3437:	84 c9                	test   cl,cl
3439:	0f 84 3c 08 00 00    	je     3c7b <main+0x1d2b>
343f:	48 83 c2 60          	add    rdx,0x60
3443:	48 39 d0             	cmp    rax,rdx
3446:	75 e6                	jne    342e <main+0x14de>
3448:	83 3d c1 cc 20 00 00 	cmp    DWORD PTR [rip+0x20ccc1],0x0        # 210110 <pid>
344f:	c6 05 b6 cc 20 00 01 	mov    BYTE PTR [rip+0x20ccb6],0x1        # 21010c <disable_inotify>
3456:	75 14                	jne    346c <main+0x151c>
3458:	83 3d c1 cb 20 00 02 	cmp    DWORD PTR [rip+0x20cbc1],0x2        # 210020 <follow_mode>
345f:	75 0b                	jne    346c <main+0x151c>
3461:	48 83 3c 24 01       	cmp    QWORD PTR [rsp],0x1
3466:	0f 84 5f 08 00 00    	je     3ccb <main+0x1d7b>
346c:	45 31 ff             	xor    r15d,r15d
346f:	44 89 f8             	mov    eax,r15d
3472:	48 8b 4c 24 60       	mov    rcx,QWORD PTR [rsp+0x60]
3477:	c6 44 24 48 00       	mov    BYTE PTR [rsp+0x48],0x0
347c:	83 e0 01             	and    eax,0x1
347f:	88 44 24 44          	mov    BYTE PTR [rsp+0x44],al
3483:	48 8b 04 24          	mov    rax,QWORD PTR [rsp]
3487:	48 83 e8 01          	sub    rax,0x1
348b:	48 89 44 24 10       	mov    QWORD PTR [rsp+0x10],rax
3490:	48 8b 44 24 28       	mov    rax,QWORD PTR [rsp+0x28]
3495:	48 8d 44 08 34       	lea    rax,[rax+rcx*1+0x34]
349a:	48 89 44 24 18       	mov    QWORD PTR [rsp+0x18],rax
349f:	48 8d 84 24 20 02 00 	lea    rax,[rsp+0x220]
34a6:	00
34a7:	48 89 44 24 20       	mov    QWORD PTR [rsp+0x20],rax
34ac:	48 83 3c 24 00       	cmp    QWORD PTR [rsp],0x0
34b1:	0f 84 97 04 00 00    	je     394e <main+0x19fe>
34b7:	4c 8b 74 24 28       	mov    r14,QWORD PTR [rsp+0x28]
34bc:	c6 44 24 08 00       	mov    BYTE PTR [rsp+0x8],0x0
34c1:	31 db                	xor    ebx,ebx
34c3:	eb 2f                	jmp    34f4 <main+0x15a4>
34c5:	0f 1f 00             	nop    DWORD PTR [rax]
34c8:	89 ea                	mov    edx,ebp
34ca:	31 ff                	xor    edi,edi
34cc:	4c 89 ee             	mov    rsi,r13
34cf:	e8 7c 17 00 00       	call   4c50 <dump_remainder>
34d4:	48 85 c0             	test   rax,rax
34d7:	0f 95 c2             	setne  dl
34da:	49 01 46 08          	add    QWORD PTR [r14+0x8],rax
34de:	08 54 24 08          	or     BYTE PTR [rsp+0x8],dl
34e2:	48 83 c3 01          	add    rbx,0x1
34e6:	49 83 c6 60          	add    r14,0x60
34ea:	48 39 1c 24          	cmp    QWORD PTR [rsp],rbx
34ee:	0f 84 89 01 00 00    	je     367d <main+0x172d>
34f4:	41 80 7e 34 00       	cmp    BYTE PTR [r14+0x34],0x0
34f9:	75 e7                	jne    34e2 <main+0x1592>
34fb:	41 8b 6e 38          	mov    ebp,DWORD PTR [r14+0x38]
34ff:	85 ed                	test   ebp,ebp
3501:	0f 88 59 01 00 00    	js     3660 <main+0x1710>
3507:	49 8b 3e             	mov    rdi,QWORD PTR [r14]
350a:	e8 d1 14 00 00       	call   49e0 <pretty_name.isra.7>
350f:	49 89 c5             	mov    r13,rax
3512:	41 8b 46 40          	mov    eax,DWORD PTR [r14+0x40]
3516:	45 8b 66 30          	mov    r12d,DWORD PTR [r14+0x30]
351a:	41 39 c7             	cmp    r15d,eax
351d:	74 46                	je     3565 <main+0x1615>
351f:	31 c0                	xor    eax,eax
3521:	be 03 00 00 00       	mov    esi,0x3
3526:	89 ef                	mov    edi,ebp
3528:	e8 d3 78 00 00       	call   ae00 <rpl_fcntl>
352d:	45 85 ff             	test   r15d,r15d
3530:	0f 85 92 02 00 00    	jne    37c8 <main+0x1878>
3536:	85 c0                	test   eax,eax
3538:	0f 88 92 02 00 00    	js     37d0 <main+0x1880>
353e:	89 c2                	mov    edx,eax
3540:	80 ce 08             	or     dh,0x8
3543:	39 d0                	cmp    eax,edx
3545:	74 17                	je     355e <main+0x160e>
3547:	31 c0                	xor    eax,eax
3549:	be 04 00 00 00       	mov    esi,0x4
354e:	89 ef                	mov    edi,ebp
3550:	e8 ab 78 00 00       	call   ae00 <rpl_fcntl>
3555:	83 f8 ff             	cmp    eax,0xffffffff
3558:	0f 84 72 02 00 00    	je     37d0 <main+0x1880>
355e:	45 89 7e 40          	mov    DWORD PTR [r14+0x40],r15d
3562:	44 89 f8             	mov    eax,r15d
3565:	85 c0                	test   eax,eax
3567:	48 c7 c1 fe ff ff ff 	mov    rcx,0xfffffffffffffffe
356e:	0f 85 54 ff ff ff    	jne    34c8 <main+0x1578>
3574:	48 8b 54 24 20       	mov    rdx,QWORD PTR [rsp+0x20]
3579:	89 ee                	mov    esi,ebp
357b:	bf 01 00 00 00       	mov    edi,0x1
3580:	e8 7b e8 ff ff       	call   1e00 <__fxstat@plt>
3585:	85 c0                	test   eax,eax
3587:	0f 85 5a 03 00 00    	jne    38e7 <main+0x1997>
358d:	8b 84 24 38 02 00 00 	mov    eax,DWORD PTR [rsp+0x238]
3594:	41 39 46 30          	cmp    DWORD PTR [r14+0x30],eax
3598:	0f 84 62 02 00 00    	je     3800 <main+0x18b0>
359e:	48 8b 94 24 78 02 00 	mov    rdx,QWORD PTR [rsp+0x278]
35a5:	00
35a6:	48 8b 8c 24 80 02 00 	mov    rcx,QWORD PTR [rsp+0x280]
35ad:	00
35ae:	41 81 e4 00 f0 00 00 	and    r12d,0xf000
35b5:	49 89 56 10          	mov    QWORD PTR [r14+0x10],rdx
35b9:	49 89 4e 18          	mov    QWORD PTR [r14+0x18],rcx
35bd:	41 81 fc 00 80 00 00 	cmp    r12d,0x8000
35c4:	41 89 46 30          	mov    DWORD PTR [r14+0x30],eax
35c8:	49 c7 46 58 00 00 00 	mov    QWORD PTR [r14+0x58],0x0
35cf:	00
35d0:	0f 84 aa 02 00 00    	je     3880 <main+0x1930>
35d6:	48 39 5c 24 10       	cmp    QWORD PTR [rsp+0x10],rbx
35db:	74 3f                	je     361c <main+0x16cc>
35dd:	80 3d 31 cb 20 00 00 	cmp    BYTE PTR [rip+0x20cb31],0x0        # 210115 <print_headers>
35e4:	74 36                	je     361c <main+0x16cc>
35e6:	80 3d 23 ca 20 00 00 	cmp    BYTE PTR [rip+0x20ca23],0x0        # 210010 <first_file.7393>
35ed:	48 8d 05 0c 9a 00 00 	lea    rax,[rip+0x9a0c]        # d000 <quoting_style_vals+0x80>
35f4:	48 8d 15 06 9a 00 00 	lea    rdx,[rip+0x9a06]        # d001 <quoting_style_vals+0x81>
35fb:	48 8d 35 56 80 00 00 	lea    rsi,[rip+0x8056]        # b658 <_IO_stdin_used+0x58>
3602:	4c 89 e9             	mov    rcx,r13
3605:	bf 01 00 00 00       	mov    edi,0x1
360a:	48 0f 44 d0          	cmove  rdx,rax
360e:	31 c0                	xor    eax,eax
3610:	e8 3b e8 ff ff       	call   1e50 <__printf_chk@plt>
3615:	c6 05 f4 c9 20 00 00 	mov    BYTE PTR [rip+0x20c9f4],0x0        # 210010 <first_file.7393>
361c:	41 8b 7e 40          	mov    edi,DWORD PTR [r14+0x40]
3620:	48 89 5c 24 10       	mov    QWORD PTR [rsp+0x10],rbx
3625:	85 ff                	test   edi,edi
3627:	0f 85 55 11 00 00    	jne    4782 <main+0x2832>
362d:	41 81 fc 00 80 00 00 	cmp    r12d,0x8000
3634:	48 c7 c1 ff ff ff ff 	mov    rcx,0xffffffffffffffff
363b:	0f 85 87 fe ff ff    	jne    34c8 <main+0x1578>
3641:	41 80 7e 35 00       	cmp    BYTE PTR [r14+0x35],0x0
3646:	0f 84 7c fe ff ff    	je     34c8 <main+0x1578>
364c:	48 8b 8c 24 50 02 00 	mov    rcx,QWORD PTR [rsp+0x250]
3653:	00
3654:	49 2b 4e 08          	sub    rcx,QWORD PTR [r14+0x8]
3658:	e9 6b fe ff ff       	jmp    34c8 <main+0x1578>
365d:	0f 1f 00             	nop    DWORD PTR [rax]
3660:	4c 89 f7             	mov    rdi,r14
3663:	44 89 fe             	mov    esi,r15d
3666:	48 83 c3 01          	add    rbx,0x1
366a:	e8 21 24 00 00       	call   5a90 <recheck>
366f:	49 83 c6 60          	add    r14,0x60
3673:	48 39 1c 24          	cmp    QWORD PTR [rsp],rbx
3677:	0f 85 77 fe ff ff    	jne    34f4 <main+0x15a4>
367d:	0f b6 0d 96 ca 20 00 	movzx  ecx,BYTE PTR [rip+0x20ca96]        # 21011a <reopen_inaccessible_files>
3684:	84 c9                	test   cl,cl
3686:	74 09                	je     3691 <main+0x1741>
3688:	83 3d 91 c9 20 00 01 	cmp    DWORD PTR [rip+0x20c991],0x1        # 210020 <follow_mode>
368f:	74 51                	je     36e2 <main+0x1792>
3691:	48 8b 44 24 28       	mov    rax,QWORD PTR [rsp+0x28]
3696:	83 78 38 00          	cmp    DWORD PTR [rax+0x38],0x0
369a:	79 46                	jns    36e2 <main+0x1792>
369c:	48 8b 44 24 28       	mov    rax,QWORD PTR [rsp+0x28]
36a1:	80 78 34 01          	cmp    BYTE PTR [rax+0x34],0x1
36a5:	74 04                	je     36ab <main+0x175b>
36a7:	84 c9                	test   cl,cl
36a9:	75 37                	jne    36e2 <main+0x1792>
36ab:	48 8b 44 24 28       	mov    rax,QWORD PTR [rsp+0x28]
36b0:	48 05 94 00 00 00    	add    rax,0x94
36b6:	66 2e 0f 1f 84 00 00 	nop    WORD PTR cs:[rax+rax*1+0x0]
36bd:	00 00 00
36c0:	48 3b 44 24 18       	cmp    rax,QWORD PTR [rsp+0x18]
36c5:	0f 84 c0 02 00 00    	je     398b <main+0x1a3b>
36cb:	8b 70 04             	mov    esi,DWORD PTR [rax+0x4]
36ce:	48 89 c2             	mov    rdx,rax
36d1:	85 f6                	test   esi,esi
36d3:	79 0d                	jns    36e2 <main+0x1792>
36d5:	48 83 c0 60          	add    rax,0x60
36d9:	80 3a 01             	cmp    BYTE PTR [rdx],0x1
36dc:	74 e2                	je     36c0 <main+0x1770>
36de:	84 c9                	test   cl,cl
36e0:	74 de                	je     36c0 <main+0x1770>
36e2:	80 7c 24 08 01       	cmp    BYTE PTR [rsp+0x8],0x1
36e7:	0f 85 78 02 00 00    	jne    3965 <main+0x1a15>
36ed:	80 7c 24 44 00       	cmp    BYTE PTR [rsp+0x44],0x0
36f2:	0f 85 6d 02 00 00    	jne    3965 <main+0x1a15>
36f8:	0f b6 05 18 ca 20 00 	movzx  eax,BYTE PTR [rip+0x20ca18]        # 210117 <monitor_output>
36ff:	84 c0                	test   al,al
3701:	88 44 24 08          	mov    BYTE PTR [rsp+0x8],al
3705:	0f 84 a1 fd ff ff    	je     34ac <main+0x155c>
370b:	48 c7 84 24 b8 00 00 	mov    QWORD PTR [rsp+0xb8],0x0
3712:	00 00 00 00 00
3717:	48 c7 84 24 b0 00 00 	mov    QWORD PTR [rsp+0xb0],0x0
371e:	00 00 00 00 00
3723:	31 c0                	xor    eax,eax
3725:	b9 10 00 00 00       	mov    ecx,0x10
372a:	48 8b 7c 24 20       	mov    rdi,QWORD PTR [rsp+0x20]
372f:	fc                   	cld
3730:	f3 48 ab             	rep stos QWORD PTR es:[rdi],rax
3733:	48 8b 74 24 20       	mov    rsi,QWORD PTR [rsp+0x20]
3738:	4c 8d 84 24 b0 00 00 	lea    r8,[rsp+0xb0]
373f:	00
3740:	31 c9                	xor    ecx,ecx
3742:	31 d2                	xor    edx,edx
3744:	bf 02 00 00 00       	mov    edi,0x2
3749:	48 83 8c 24 20 02 00 	or     QWORD PTR [rsp+0x220],0x2
3750:	00 02
3752:	e8 49 e6 ff ff       	call   1da0 <select@plt>
3757:	83 e8 01             	sub    eax,0x1
375a:	0f 84 e1 10 00 00    	je     4841 <main+0x28f1>
3760:	80 7c 24 08 00       	cmp    BYTE PTR [rsp+0x8],0x0
3765:	0f 85 41 fd ff ff    	jne    34ac <main+0x155c>
376b:	80 7c 24 48 00       	cmp    BYTE PTR [rsp+0x48],0x0
3770:	0f 85 97 f2 ff ff    	jne    2a0d <main+0xabd>
3776:	8b 3d 94 c9 20 00    	mov    edi,DWORD PTR [rip+0x20c994]        # 210110 <pid>
377c:	85 ff                	test   edi,edi
377e:	0f 85 2d 02 00 00    	jne    39b1 <main+0x1a61>
3784:	f2 0f 10 44 24 30    	movsd  xmm0,QWORD PTR [rsp+0x30]
378a:	e8 01 71 00 00       	call   a890 <xnanosleep>
378f:	85 c0                	test   eax,eax
3791:	0f 84 15 fd ff ff    	je     34ac <main+0x155c>
3797:	48 8d 35 dd 81 00 00 	lea    rsi,[rip+0x81dd]        # b97b <_IO_stdin_used+0x37b>
379e:	ba 05 00 00 00       	mov    edx,0x5
37a3:	31 ff                	xor    edi,edi
37a5:	e8 26 e4 ff ff       	call   1bd0 <dcgettext@plt>
37aa:	48 89 c3             	mov    rbx,rax
37ad:	e8 5e e3 ff ff       	call   1b10 <__errno_location@plt>
37b2:	8b 30                	mov    esi,DWORD PTR [rax]
37b4:	48 89 da             	mov    rdx,rbx
37b7:	bf 01 00 00 00       	mov    edi,0x1
37bc:	31 c0                	xor    eax,eax
37be:	e8 9d e6 ff ff       	call   1e60 <error@plt>
37c3:	0f 1f 44 00 00       	nop    DWORD PTR [rax+rax*1+0x0]
37c8:	85 c0                	test   eax,eax
37ca:	0f 89 8e fd ff ff    	jns    355e <main+0x160e>
37d0:	e8 3b e3 ff ff       	call   1b10 <__errno_location@plt>
37d5:	41 8b 56 30          	mov    edx,DWORD PTR [r14+0x30]
37d9:	81 e2 00 f0 00 00    	and    edx,0xf000
37df:	81 fa 00 80 00 00    	cmp    edx,0x8000
37e5:	0f 85 a3 0f 00 00    	jne    478e <main+0x283e>
37eb:	83 38 01             	cmp    DWORD PTR [rax],0x1
37ee:	0f 85 9a 0f 00 00    	jne    478e <main+0x283e>
37f4:	41 8b 46 40          	mov    eax,DWORD PTR [r14+0x40]
37f8:	e9 68 fd ff ff       	jmp    3565 <main+0x1615>
37fd:	0f 1f 00             	nop    DWORD PTR [rax]
3800:	89 c2                	mov    edx,eax
3802:	81 e2 00 f0 00 00    	and    edx,0xf000
3808:	81 fa 00 80 00 00    	cmp    edx,0x8000
380e:	48 8b 94 24 78 02 00 	mov    rdx,QWORD PTR [rsp+0x278]
3815:	00
3816:	0f 84 13 01 00 00    	je     392f <main+0x19df>
381c:	49 3b 56 10          	cmp    rdx,QWORD PTR [r14+0x10]
3820:	48 8b 8c 24 80 02 00 	mov    rcx,QWORD PTR [rsp+0x280]
3827:	00
3828:	0f 85 80 fd ff ff    	jne    35ae <main+0x165e>
382e:	41 39 4e 18          	cmp    DWORD PTR [r14+0x18],ecx
3832:	0f 85 76 fd ff ff    	jne    35ae <main+0x165e>
3838:	49 8b 46 58          	mov    rax,QWORD PTR [r14+0x58]
383c:	48 3b 05 d5 c7 20 00 	cmp    rax,QWORD PTR [rip+0x20c7d5]        # 210018 <max_n_unchanged_stats_between_opens>
3843:	48 8d 50 01          	lea    rdx,[rax+0x1]
3847:	49 89 56 58          	mov    QWORD PTR [r14+0x58],rdx
384b:	0f 82 91 fc ff ff    	jb     34e2 <main+0x1592>
3851:	83 3d c8 c7 20 00 01 	cmp    DWORD PTR [rip+0x20c7c8],0x1        # 210020 <follow_mode>
3858:	0f 85 84 fc ff ff    	jne    34e2 <main+0x1592>
385e:	31 f6                	xor    esi,esi
3860:	41 83 7e 40 00       	cmp    DWORD PTR [r14+0x40],0x0
3865:	4c 89 f7             	mov    rdi,r14
3868:	40 0f 95 c6          	setne  sil
386c:	e8 1f 22 00 00       	call   5a90 <recheck>
3871:	49 c7 46 58 00 00 00 	mov    QWORD PTR [r14+0x58],0x0
3878:	00
3879:	e9 64 fc ff ff       	jmp    34e2 <main+0x1592>
387e:	66 90                	xchg   ax,ax
3880:	49 8b 46 08          	mov    rax,QWORD PTR [r14+0x8]
3884:	48 39 84 24 50 02 00 	cmp    QWORD PTR [rsp+0x250],rax
388b:	00
388c:	0f 8d 44 fd ff ff    	jge    35d6 <main+0x1686>
3892:	4c 89 ea             	mov    rdx,r13
3895:	be 03 00 00 00       	mov    esi,0x3
389a:	31 ff                	xor    edi,edi
389c:	e8 7f 63 00 00       	call   9c20 <quotearg_n_style_colon>
38a1:	48 8d 35 db 7d 00 00 	lea    rsi,[rip+0x7ddb]        # b683 <_IO_stdin_used+0x83>
38a8:	ba 05 00 00 00       	mov    edx,0x5
38ad:	31 ff                	xor    edi,edi
38af:	48 89 44 24 38       	mov    QWORD PTR [rsp+0x38],rax
38b4:	e8 17 e3 ff ff       	call   1bd0 <dcgettext@plt>
38b9:	48 8b 4c 24 38       	mov    rcx,QWORD PTR [rsp+0x38]
38be:	48 89 c2             	mov    rdx,rax
38c1:	31 f6                	xor    esi,esi
38c3:	31 ff                	xor    edi,edi
38c5:	31 c0                	xor    eax,eax
38c7:	e8 94 e5 ff ff       	call   1e60 <error@plt>
38cc:	4c 89 e9             	mov    rcx,r13
38cf:	31 d2                	xor    edx,edx
38d1:	31 f6                	xor    esi,esi
38d3:	89 ef                	mov    edi,ebp
38d5:	e8 c6 15 00 00       	call   4ea0 <xlseek>
38da:	49 c7 46 08 00 00 00 	mov    QWORD PTR [r14+0x8],0x0
38e1:	00
38e2:	e9 ef fc ff ff       	jmp    35d6 <main+0x1686>
38e7:	41 c7 46 38 ff ff ff 	mov    DWORD PTR [r14+0x38],0xffffffff
38ee:	ff
38ef:	e8 1c e2 ff ff       	call   1b10 <__errno_location@plt>
38f4:	49 89 c4             	mov    r12,rax
38f7:	8b 00                	mov    eax,DWORD PTR [rax]
38f9:	4c 89 ea             	mov    rdx,r13
38fc:	31 ff                	xor    edi,edi
38fe:	be 03 00 00 00       	mov    esi,0x3
3903:	41 89 46 3c          	mov    DWORD PTR [r14+0x3c],eax
3907:	e8 14 63 00 00       	call   9c20 <quotearg_n_style_colon>
390c:	41 8b 34 24          	mov    esi,DWORD PTR [r12]
3910:	48 8d 15 b5 90 00 00 	lea    rdx,[rip+0x90b5]        # c9cc <follow_mode_map+0x74>
3917:	48 89 c1             	mov    rcx,rax
391a:	31 ff                	xor    edi,edi
391c:	31 c0                	xor    eax,eax
391e:	e8 3d e5 ff ff       	call   1e60 <error@plt>
3923:	89 ef                	mov    edi,ebp
3925:	e8 b6 e3 ff ff       	call   1ce0 <close@plt>
392a:	e9 b3 fb ff ff       	jmp    34e2 <main+0x1592>
392f:	48 8b 8c 24 50 02 00 	mov    rcx,QWORD PTR [rsp+0x250]
3936:	00
3937:	49 39 4e 08          	cmp    QWORD PTR [r14+0x8],rcx
393b:	0f 84 db fe ff ff    	je     381c <main+0x18cc>
3941:	48 8b 8c 24 80 02 00 	mov    rcx,QWORD PTR [rsp+0x280]
3948:	00
3949:	e9 60 fc ff ff       	jmp    35ae <main+0x165e>
394e:	80 3d c5 c7 20 00 00 	cmp    BYTE PTR [rip+0x20c7c5],0x0        # 21011a <reopen_inaccessible_files>
3955:	74 34                	je     398b <main+0x1a3b>
3957:	83 3d c2 c6 20 00 01 	cmp    DWORD PTR [rip+0x20c6c2],0x1        # 210020 <follow_mode>
395e:	75 2b                	jne    398b <main+0x1a3b>
3960:	c6 44 24 08 00       	mov    BYTE PTR [rsp+0x8],0x0
3965:	48 8b 3d 5c c7 20 00 	mov    rdi,QWORD PTR [rip+0x20c75c]        # 2100c8 <stdout@@GLIBC_2.2.5>
396c:	e8 7f e5 ff ff       	call   1ef0 <fflush_unlocked@plt>
3971:	85 c0                	test   eax,eax
3973:	0f 85 dc 0e 00 00    	jne    4855 <main+0x2905>
3979:	80 3d 97 c7 20 00 00 	cmp    BYTE PTR [rip+0x20c797],0x0        # 210117 <monitor_output>
3980:	0f 84 da fd ff ff    	je     3760 <main+0x1810>
3986:	e9 80 fd ff ff       	jmp    370b <main+0x17bb>
398b:	48 8d 35 ba 7f 00 00 	lea    rsi,[rip+0x7fba]        # b94c <_IO_stdin_used+0x34c>
3992:	31 ff                	xor    edi,edi
3994:	ba 05 00 00 00       	mov    edx,0x5
3999:	e8 32 e2 ff ff       	call   1bd0 <dcgettext@plt>
399e:	31 f6                	xor    esi,esi
39a0:	48 89 c2             	mov    rdx,rax
39a3:	31 ff                	xor    edi,edi
39a5:	31 c0                	xor    eax,eax
39a7:	e8 b4 e4 ff ff       	call   1e60 <error@plt>
39ac:	e9 5c f0 ff ff       	jmp    2a0d <main+0xabd>
39b1:	31 f6                	xor    esi,esi
39b3:	e8 b8 e3 ff ff       	call   1d70 <kill@plt>
39b8:	85 c0                	test   eax,eax
39ba:	0f 84 c4 fd ff ff    	je     3784 <main+0x1834>
39c0:	e8 4b e1 ff ff       	call   1b10 <__errno_location@plt>
39c5:	83 38 01             	cmp    DWORD PTR [rax],0x1
39c8:	0f 84 b6 fd ff ff    	je     3784 <main+0x1834>
39ce:	0f b6 44 24 50       	movzx  eax,BYTE PTR [rsp+0x50]
39d3:	88 44 24 48          	mov    BYTE PTR [rsp+0x48],al
39d7:	e9 d0 fa ff ff       	jmp    34ac <main+0x155c>
39dc:	48 89 df             	mov    rdi,rbx
39df:	48 89 44 24 38       	mov    QWORD PTR [rsp+0x38],rax
39e4:	48 89 eb             	mov    rbx,rbp
39e7:	e8 04 e1 ff ff       	call   1af0 <free@plt>
39ec:	48 8b 44 24 38       	mov    rax,QWORD PTR [rsp+0x38]
39f1:	48 83 c0 01          	add    rax,0x1
39f5:	0f 84 fb 01 00 00    	je     3bf6 <main+0x1ca6>
39fb:	48 8b 4c 24 20       	mov    rcx,QWORD PTR [rsp+0x20]
3a00:	eb 0a                	jmp    3a0c <main+0x1abc>
3a02:	48 8b 9b 08 20 00 00 	mov    rbx,QWORD PTR [rbx+0x2008]
3a09:	49 89 c4             	mov    r12,rax
3a0c:	48 8b 93 00 20 00 00 	mov    rdx,QWORD PTR [rbx+0x2000]
3a13:	4c 89 e0             	mov    rax,r12
3a16:	48 29 d0             	sub    rax,rdx
3a19:	48 39 c1             	cmp    rcx,rax
3a1c:	72 e4                	jb     3a02 <main+0x1ab2>
3a1e:	48 8b 4c 24 20       	mov    rcx,QWORD PTR [rsp+0x20]
3a23:	31 c0                	xor    eax,eax
3a25:	4c 39 e1             	cmp    rcx,r12
3a28:	73 06                	jae    3a30 <main+0x1ae0>
3a2a:	4c 89 e0             	mov    rax,r12
3a2d:	48 29 c8             	sub    rax,rcx
3a30:	48 89 d6             	mov    rsi,rdx
3a33:	48 29 c6             	sub    rsi,rax
3a36:	0f 85 ac 01 00 00    	jne    3be8 <main+0x1c98>
3a3c:	48 8b 9b 08 20 00 00 	mov    rbx,QWORD PTR [rbx+0x2008]
3a43:	48 85 db             	test   rbx,rbx
3a46:	74 16                	je     3a5e <main+0x1b0e>
3a48:	48 8b b3 00 20 00 00 	mov    rsi,QWORD PTR [rbx+0x2000]
3a4f:	48 85 f6             	test   rsi,rsi
3a52:	74 e8                	je     3a3c <main+0x1aec>
3a54:	48 89 df             	mov    rdi,rbx
3a57:	e8 34 10 00 00       	call   4a90 <xwrite_stdout.part.10>
3a5c:	eb de                	jmp    3a3c <main+0x1aec>
3a5e:	c6 44 24 18 01       	mov    BYTE PTR [rsp+0x18],0x1
3a63:	48 89 ef             	mov    rdi,rbp
3a66:	eb 0f                	jmp    3a77 <main+0x1b27>
3a68:	48 8b 9f 08 20 00 00 	mov    rbx,QWORD PTR [rdi+0x2008]
3a6f:	e8 7c e0 ff ff       	call   1af0 <free@plt>
3a74:	48 89 df             	mov    rdi,rbx
3a77:	48 85 ff             	test   rdi,rdi
3a7a:	75 ec                	jne    3a68 <main+0x1b18>
3a7c:	e9 2f f2 ff ff       	jmp    2cb0 <main+0xd60>
3a81:	48 8b 74 24 48       	mov    rsi,QWORD PTR [rsp+0x48]
3a86:	bf 04 00 00 00       	mov    edi,0x4
3a8b:	e8 90 60 00 00       	call   9b20 <quotearg_style>
3a90:	48 8d 35 b0 7b 00 00 	lea    rsi,[rip+0x7bb0]        # b647 <_IO_stdin_used+0x47>
3a97:	ba 05 00 00 00       	mov    edx,0x5
3a9c:	31 ff                	xor    edi,edi
3a9e:	48 89 c3             	mov    rbx,rax
3aa1:	e8 2a e1 ff ff       	call   1bd0 <dcgettext@plt>
3aa6:	48 89 c5             	mov    rbp,rax
3aa9:	e8 62 e0 ff ff       	call   1b10 <__errno_location@plt>
3aae:	8b 30                	mov    esi,DWORD PTR [rax]
3ab0:	48 89 d9             	mov    rcx,rbx
3ab3:	48 89 ea             	mov    rdx,rbp
3ab6:	31 ff                	xor    edi,edi
3ab8:	31 c0                	xor    eax,eax
3aba:	e8 a1 e3 ff ff       	call   1e60 <error@plt>
3abf:	c6 44 24 18 00       	mov    BYTE PTR [rsp+0x18],0x0
3ac4:	e9 bd f1 ff ff       	jmp    2c86 <main+0xd36>
3ac9:	83 ed 01             	sub    ebp,0x1
3acc:	0f 84 12 ec ff ff    	je     26e4 <main+0x794>
3ad2:	c6 84 24 8b 00 00 00 	mov    BYTE PTR [rsp+0x8b],0x1
3ad9:	01
3ada:	e9 1b ef ff ff       	jmp    29fa <main+0xaaa>
3adf:	44 8b 74 24 08       	mov    r14d,DWORD PTR [rsp+0x8]
3ae4:	31 f6                	xor    esi,esi
3ae6:	ba 01 00 00 00       	mov    edx,0x1
3aeb:	44 89 f7             	mov    edi,r14d
3aee:	e8 ad e1 ff ff       	call   1ca0 <lseek@plt>
3af3:	48 83 f8 ff          	cmp    rax,0xffffffffffffffff
3af7:	48 89 c3             	mov    rbx,rax
3afa:	0f 84 8d ef ff ff    	je     2a8d <main+0xb3d>
3b00:	31 f6                	xor    esi,esi
3b02:	ba 02 00 00 00       	mov    edx,0x2
3b07:	44 89 f7             	mov    edi,r14d
3b0a:	e8 91 e1 ff ff       	call   1ca0 <lseek@plt>
3b0f:	48 39 c3             	cmp    rbx,rax
3b12:	49 89 c0             	mov    r8,rax
3b15:	0f 8d b5 00 00 00    	jge    3bd0 <main+0x1c80>
3b1b:	48 85 c0             	test   rax,rax
3b1e:	48 89 84 24 b0 00 00 	mov    QWORD PTR [rsp+0xb0],rax
3b25:	00
3b26:	0f 84 84 f1 ff ff    	je     2cb0 <main+0xd60>
3b2c:	48 8b 54 24 20       	mov    rdx,QWORD PTR [rsp+0x20]
3b31:	8b 74 24 08          	mov    esi,DWORD PTR [rsp+0x8]
3b35:	4c 8d 8c 24 b0 00 00 	lea    r9,[rsp+0xb0]
3b3c:	00
3b3d:	48 8b 7c 24 48       	mov    rdi,QWORD PTR [rsp+0x48]
3b42:	48 89 d9             	mov    rcx,rbx
3b45:	e8 26 14 00 00       	call   4f70 <file_lines>
3b4a:	88 44 24 18          	mov    BYTE PTR [rsp+0x18],al
3b4e:	e9 5d f1 ff ff       	jmp    2cb0 <main+0xd60>
3b53:	48 8b 4c 24 48       	mov    rcx,QWORD PTR [rsp+0x48]
3b58:	8b 7c 24 08          	mov    edi,DWORD PTR [rsp+0x8]
3b5c:	ba 01 00 00 00       	mov    edx,0x1
3b61:	31 f6                	xor    esi,esi
3b63:	e8 38 13 00 00       	call   4ea0 <xlseek>
3b68:	48 89 c3             	mov    rbx,rax
3b6b:	e9 9b f5 ff ff       	jmp    310b <main+0x11bb>
3b70:	ba 05 00 00 00       	mov    edx,0x5
3b75:	48 8d 35 c4 8b 00 00 	lea    rsi,[rip+0x8bc4]        # c740 <_IO_stdin_used+0x1140>
3b7c:	e9 13 ed ff ff       	jmp    2894 <main+0x944>
3b81:	48 89 eb             	mov    rbx,rbp
3b84:	48 2b 5c 24 20       	sub    rbx,QWORD PTR [rsp+0x20]
3b89:	48 8b 4c 24 48       	mov    rcx,QWORD PTR [rsp+0x48]
3b8e:	8b 7c 24 08          	mov    edi,DWORD PTR [rsp+0x8]
3b92:	31 d2                	xor    edx,edx
3b94:	48 89 de             	mov    rsi,rbx
3b97:	e8 04 13 00 00       	call   4ea0 <xlseek>
3b9c:	e9 80 f5 ff ff       	jmp    3121 <main+0x11d1>
3ba1:	4c 8b 74 24 20       	mov    r14,QWORD PTR [rsp+0x20]
3ba6:	8b 7c 24 08          	mov    edi,DWORD PTR [rsp+0x8]
3baa:	ba 02 00 00 00       	mov    edx,0x2
3baf:	4c 89 f6             	mov    rsi,r14
3bb2:	48 f7 de             	neg    rsi
3bb5:	e8 e6 e0 ff ff       	call   1ca0 <lseek@plt>
3bba:	48 83 f8 ff          	cmp    rax,0xffffffffffffffff
3bbe:	48 89 c3             	mov    rbx,rax
3bc1:	0f 84 f6 f2 ff ff    	je     2ebd <main+0xf6d>
3bc7:	4a 8d 2c 30          	lea    rbp,[rax+r14*1]
3bcb:	e9 06 f5 ff ff       	jmp    30d6 <main+0x1186>
3bd0:	48 8b 4c 24 48       	mov    rcx,QWORD PTR [rsp+0x48]
3bd5:	8b 7c 24 08          	mov    edi,DWORD PTR [rsp+0x8]
3bd9:	31 d2                	xor    edx,edx
3bdb:	48 89 de             	mov    rsi,rbx
3bde:	e8 bd 12 00 00       	call   4ea0 <xlseek>
3be3:	e9 a5 ee ff ff       	jmp    2a8d <main+0xb3d>
3be8:	48 8d 3c 03          	lea    rdi,[rbx+rax*1]
3bec:	e8 9f 0e 00 00       	call   4a90 <xwrite_stdout.part.10>
3bf1:	e9 46 fe ff ff       	jmp    3a3c <main+0x1aec>
3bf6:	48 8b 74 24 48       	mov    rsi,QWORD PTR [rsp+0x48]
3bfb:	bf 04 00 00 00       	mov    edi,0x4
3c00:	e8 1b 5f 00 00       	call   9b20 <quotearg_style>
3c05:	48 8d 35 3b 7a 00 00 	lea    rsi,[rip+0x7a3b]        # b647 <_IO_stdin_used+0x47>
3c0c:	ba 05 00 00 00       	mov    edx,0x5
3c11:	31 ff                	xor    edi,edi
3c13:	48 89 c3             	mov    rbx,rax
3c16:	e8 b5 df ff ff       	call   1bd0 <dcgettext@plt>
3c1b:	49 89 c4             	mov    r12,rax
3c1e:	e8 ed de ff ff       	call   1b10 <__errno_location@plt>
3c23:	8b 30                	mov    esi,DWORD PTR [rax]
3c25:	31 ff                	xor    edi,edi
3c27:	48 89 d9             	mov    rcx,rbx
3c2a:	4c 89 e2             	mov    rdx,r12
3c2d:	31 c0                	xor    eax,eax
3c2f:	e8 2c e2 ff ff       	call   1e60 <error@plt>
3c34:	48 89 ef             	mov    rdi,rbp
3c37:	e9 3b fe ff ff       	jmp    3a77 <main+0x1b27>
3c3c:	3d 7e ff ff ff       	cmp    eax,0xffffff7e
3c41:	75 2e                	jne    3c71 <main+0x1d21>
3c43:	31 ff                	xor    edi,edi
3c45:	e8 c6 24 00 00       	call   6110 <usage>
3c4a:	48 8d 35 87 8a 00 00 	lea    rsi,[rip+0x8a87]        # c6d8 <_IO_stdin_used+0x10d8>
3c51:	ba 05 00 00 00       	mov    edx,0x5
3c56:	31 ff                	xor    edi,edi
3c58:	e8 73 df ff ff       	call   1bd0 <dcgettext@plt>
3c5d:	44 89 e9             	mov    ecx,r13d
3c60:	48 89 c2             	mov    rdx,rax
3c63:	31 f6                	xor    esi,esi
3c65:	bf 01 00 00 00       	mov    edi,0x1
3c6a:	31 c0                	xor    eax,eax
3c6c:	e8 ef e1 ff ff       	call   1e60 <error@plt>
3c71:	bf 01 00 00 00       	mov    edi,0x1
3c76:	e8 95 24 00 00       	call   6110 <usage>
3c7b:	48 8d 9c 24 20 02 00 	lea    rbx,[rsp+0x220]
3c82:	00
3c83:	88 4c 24 20          	mov    BYTE PTR [rsp+0x20],cl
3c87:	45 31 e4             	xor    r12d,r12d
3c8a:	4c 3b 24 24          	cmp    r12,QWORD PTR [rsp]
3c8e:	74 67                	je     3cf7 <main+0x1da7>
3c90:	49 6b c4 60          	imul   rax,r12,0x60
3c94:	48 8b 4c 24 28       	mov    rcx,QWORD PTR [rsp+0x28]
3c99:	48 89 da             	mov    rdx,rbx
3c9c:	bf 01 00 00 00       	mov    edi,0x1
3ca1:	48 8b 34 01          	mov    rsi,QWORD PTR [rcx+rax*1]
3ca5:	e8 56 df ff ff       	call   1c00 <__lxstat@plt>
3caa:	85 c0                	test   eax,eax
3cac:	75 17                	jne    3cc5 <main+0x1d75>
3cae:	8b 84 24 38 02 00 00 	mov    eax,DWORD PTR [rsp+0x238]
3cb5:	25 00 f0 00 00       	and    eax,0xf000
3cba:	3d 00 a0 00 00       	cmp    eax,0xa000
3cbf:	0f 84 83 f7 ff ff    	je     3448 <main+0x14f8>
3cc5:	49 83 c4 01          	add    r12,0x1
3cc9:	eb bf                	jmp    3c8a <main+0x1d3a>
3ccb:	48 8b 44 24 28       	mov    rax,QWORD PTR [rsp+0x28]
3cd0:	83 78 38 ff          	cmp    DWORD PTR [rax+0x38],0xffffffff
3cd4:	0f 84 92 f7 ff ff    	je     346c <main+0x151c>
3cda:	8b 40 30             	mov    eax,DWORD PTR [rax+0x30]
3cdd:	45 31 ff             	xor    r15d,r15d
3ce0:	89 44 24 08          	mov    DWORD PTR [rsp+0x8],eax
3ce4:	25 00 f0 00 00       	and    eax,0xf000
3ce9:	3d 00 80 00 00       	cmp    eax,0x8000
3cee:	41 0f 95 c7          	setne  r15b
3cf2:	e9 78 f7 ff ff       	jmp    346f <main+0x151f>
3cf7:	48 8b 74 24 28       	mov    rsi,QWORD PTR [rsp+0x28]
3cfc:	48 8b 4c 24 60       	mov    rcx,QWORD PTR [rsp+0x60]
3d01:	4c 89 64 24 18       	mov    QWORD PTR [rsp+0x18],r12
3d06:	48 8d 46 30          	lea    rax,[rsi+0x30]
3d0a:	48 8d 4c 0e 30       	lea    rcx,[rsi+rcx*1+0x30]
3d0f:	eb 26                	jmp    3d37 <main+0x1de7>
3d11:	83 78 08 00          	cmp    DWORD PTR [rax+0x8],0x0
3d15:	78 1c                	js     3d33 <main+0x1de3>
3d17:	8b 10                	mov    edx,DWORD PTR [rax]
3d19:	81 e2 00 f0 00 00    	and    edx,0xf000
3d1f:	81 fa 00 80 00 00    	cmp    edx,0x8000
3d25:	74 0c                	je     3d33 <main+0x1de3>
3d27:	81 fa 00 10 00 00    	cmp    edx,0x1000
3d2d:	0f 85 15 f7 ff ff    	jne    3448 <main+0x14f8>
3d33:	48 83 c0 60          	add    rax,0x60
3d37:	48 39 c1             	cmp    rcx,rax
3d3a:	75 d5                	jne    3d11 <main+0x1dc1>
3d3c:	80 bc 24 8b 00 00 00 	cmp    BYTE PTR [rsp+0x8b],0x0
3d43:	00
3d44:	75 0d                	jne    3d53 <main+0x1e03>
3d46:	83 3d d3 c2 20 00 02 	cmp    DWORD PTR [rip+0x20c2d3],0x2        # 210020 <follow_mode>
3d4d:	0f 84 f5 f6 ff ff    	je     3448 <main+0x14f8>
3d53:	e8 28 e0 ff ff       	call   1d80 <inotify_init@plt>
3d58:	85 c0                	test   eax,eax
3d5a:	41 89 c5             	mov    r13d,eax
3d5d:	0f 88 9a 01 00 00    	js     3efd <main+0x1fad>
3d63:	48 8b 3d 5e c3 20 00 	mov    rdi,QWORD PTR [rip+0x20c35e]        # 2100c8 <stdout@@GLIBC_2.2.5>
3d6a:	e8 81 e1 ff ff       	call   1ef0 <fflush_unlocked@plt>
3d6f:	85 c0                	test   eax,eax
3d71:	0f 85 df 09 00 00    	jne    4756 <main+0x2806>
3d77:	48 8b 7c 24 18       	mov    rdi,QWORD PTR [rsp+0x18]
3d7c:	48 8d 0d 4d 0c 00 00 	lea    rcx,[rip+0xc4d]        # 49d0 <wd_comparator>
3d83:	48 8d 15 36 0c 00 00 	lea    rdx,[rip+0xc36]        # 49c0 <wd_hasher>
3d8a:	45 31 c0             	xor    r8d,r8d
3d8d:	31 f6                	xor    esi,esi
3d8f:	e8 ac 37 00 00       	call   7540 <hash_initialize>
3d94:	48 85 c0             	test   rax,rax
3d97:	49 89 c6             	mov    r14,rax
3d9a:	0f 84 5b 07 00 00    	je     44fb <main+0x25ab>
3da0:	83 3d 79 c2 20 00 01 	cmp    DWORD PTR [rip+0x20c279],0x1        # 210020 <follow_mode>
3da7:	ba 06 0c 00 00       	mov    edx,0xc06
3dac:	b8 02 00 00 00       	mov    eax,0x2
3db1:	4c 8b 7c 24 28       	mov    r15,QWORD PTR [rsp+0x28]
3db6:	c6 44 24 10 00       	mov    BYTE PTR [rsp+0x10],0x0
3dbb:	c6 44 24 38 00       	mov    BYTE PTR [rsp+0x38],0x0
3dc0:	4c 89 74 24 08       	mov    QWORD PTR [rsp+0x8],r14
3dc5:	0f 44 c2             	cmove  eax,edx
3dc8:	8b 15 52 c2 20 00    	mov    edx,DWORD PTR [rip+0x20c252]        # 210020 <follow_mode>
3dce:	45 31 e4             	xor    r12d,r12d
3dd1:	89 44 24 44          	mov    DWORD PTR [rsp+0x44],eax
3dd5:	4c 89 fb             	mov    rbx,r15
3dd8:	48 39 eb             	cmp    rbx,rbp
3ddb:	0f 84 fc 01 00 00    	je     3fdd <main+0x208d>
3de1:	80 7b 34 00          	cmp    BYTE PTR [rbx+0x34],0x0
3de5:	0f 85 a3 01 00 00    	jne    3f8e <main+0x203e>
3deb:	4c 8b 3b             	mov    r15,QWORD PTR [rbx]
3dee:	31 c0                	xor    eax,eax
3df0:	48 83 c9 ff          	or     rcx,0xffffffffffffffff
3df4:	4c 89 ff             	mov    rdi,r15
3df7:	f2 ae                	repnz scas al,BYTE PTR es:[rdi]
3df9:	c7 43 44 ff ff ff ff 	mov    DWORD PTR [rbx+0x44],0xffffffff
3e00:	48 89 c8             	mov    rax,rcx
3e03:	48 f7 d0             	not    rax
3e06:	48 83 e8 01          	sub    rax,0x1
3e0a:	49 39 c4             	cmp    r12,rax
3e0d:	4c 0f 42 e0          	cmovb  r12,rax
3e11:	83 ea 01             	sub    edx,0x1
3e14:	75 67                	jne    3e7d <main+0x1f2d>
3e16:	4c 89 ff             	mov    rdi,r15
3e19:	e8 d2 2c 00 00       	call   6af0 <dir_len>
3e1e:	49 8d 14 07          	lea    rdx,[r15+rax*1]
3e22:	49 89 c6             	mov    r14,rax
3e25:	4c 89 ff             	mov    rdi,r15
3e28:	0f b6 02             	movzx  eax,BYTE PTR [rdx]
3e2b:	48 89 54 24 58       	mov    QWORD PTR [rsp+0x58],rdx
3e30:	88 44 24 48          	mov    BYTE PTR [rsp+0x48],al
3e34:	e8 77 2d 00 00       	call   6bb0 <last_component>
3e39:	48 8b 54 24 58       	mov    rdx,QWORD PTR [rsp+0x58]
3e3e:	4c 29 f8             	sub    rax,r15
3e41:	4d 85 f6             	test   r14,r14
3e44:	48 89 43 50          	mov    QWORD PTR [rbx+0x50],rax
3e48:	48 8d 35 85 79 00 00 	lea    rsi,[rip+0x7985]        # b7d4 <_IO_stdin_used+0x1d4>
3e4f:	c6 02 00             	mov    BYTE PTR [rdx],0x0
3e52:	74 03                	je     3e57 <main+0x1f07>
3e54:	48 8b 33             	mov    rsi,QWORD PTR [rbx]
3e57:	ba 84 07 00 00       	mov    edx,0x784
3e5c:	44 89 ef             	mov    edi,r13d
3e5f:	e8 7c df ff ff       	call   1de0 <inotify_add_watch@plt>
3e64:	0f b6 4c 24 48       	movzx  ecx,BYTE PTR [rsp+0x48]
3e69:	89 43 48             	mov    DWORD PTR [rbx+0x48],eax
3e6c:	48 8b 03             	mov    rax,QWORD PTR [rbx]
3e6f:	42 88 0c 30          	mov    BYTE PTR [rax+r14*1],cl
3e73:	83 7b 48 00          	cmp    DWORD PTR [rbx+0x48],0x0
3e77:	0f 88 45 08 00 00    	js     46c2 <main+0x2772>
3e7d:	8b 54 24 44          	mov    edx,DWORD PTR [rsp+0x44]
3e81:	48 8b 33             	mov    rsi,QWORD PTR [rbx]
3e84:	44 89 ef             	mov    edi,r13d
3e87:	e8 54 df ff ff       	call   1de0 <inotify_add_watch@plt>
3e8c:	85 c0                	test   eax,eax
3e8e:	89 43 44             	mov    DWORD PTR [rbx+0x44],eax
3e91:	0f 89 d2 00 00 00    	jns    3f69 <main+0x2019>
3e97:	83 7b 38 ff          	cmp    DWORD PTR [rbx+0x38],0xffffffff
3e9b:	0f b6 44 24 10       	movzx  eax,BYTE PTR [rsp+0x10]
3ea0:	0f b6 74 24 50       	movzx  esi,BYTE PTR [rsp+0x50]
3ea5:	0f 45 c6             	cmovne eax,esi
3ea8:	88 44 24 10          	mov    BYTE PTR [rsp+0x10],al
3eac:	e8 5f dc ff ff       	call   1b10 <__errno_location@plt>
3eb1:	49 89 c6             	mov    r14,rax
3eb4:	8b 00                	mov    eax,DWORD PTR [rax]
3eb6:	89 c2                	mov    edx,eax
3eb8:	83 e2 ef             	and    edx,0xffffffef
3ebb:	83 fa 0c             	cmp    edx,0xc
3ebe:	0f 85 d3 00 00 00    	jne    3f97 <main+0x2047>
3ec4:	4c 8b 74 24 08       	mov    r14,QWORD PTR [rsp+0x8]
3ec9:	48 8d 35 40 7a 00 00 	lea    rsi,[rip+0x7a40]        # b910 <_IO_stdin_used+0x310>
3ed0:	ba 05 00 00 00       	mov    edx,0x5
3ed5:	31 ff                	xor    edi,edi
3ed7:	e8 f4 dc ff ff       	call   1bd0 <dcgettext@plt>
3edc:	31 f6                	xor    esi,esi
3ede:	48 89 c2             	mov    rdx,rax
3ee1:	31 ff                	xor    edi,edi
3ee3:	31 c0                	xor    eax,eax
3ee5:	e8 76 df ff ff       	call   1e60 <error@plt>
3eea:	4c 89 f7             	mov    rdi,r14
3eed:	e8 9e 38 00 00       	call   7790 <hash_free>
3ef2:	e8 19 dc ff ff       	call   1b10 <__errno_location@plt>
3ef7:	c7 00 00 00 00 00    	mov    DWORD PTR [rax],0x0
3efd:	48 8d 35 e4 89 00 00 	lea    rsi,[rip+0x89e4]        # c8e8 <_IO_stdin_used+0x12e8>
3f04:	ba 05 00 00 00       	mov    edx,0x5
3f09:	31 ff                	xor    edi,edi
3f0b:	e8 c0 dc ff ff       	call   1bd0 <dcgettext@plt>
3f10:	48 89 c3             	mov    rbx,rax
3f13:	e8 f8 db ff ff       	call   1b10 <__errno_location@plt>
3f18:	8b 30                	mov    esi,DWORD PTR [rax]
3f1a:	48 89 da             	mov    rdx,rbx
3f1d:	31 c0                	xor    eax,eax
3f1f:	31 ff                	xor    edi,edi
3f21:	e8 3a df ff ff       	call   1e60 <error@plt>
3f26:	48 8b 44 24 28       	mov    rax,QWORD PTR [rsp+0x28]
3f2b:	48 8b 74 24 60       	mov    rsi,QWORD PTR [rsp+0x60]
3f30:	48 8d 68 44          	lea    rbp,[rax+0x44]
3f34:	48 8d 5c 30 44       	lea    rbx,[rax+rsi*1+0x44]
3f39:	eb 24                	jmp    3f5f <main+0x200f>
3f3b:	8b 75 00             	mov    esi,DWORD PTR [rbp+0x0]
3f3e:	83 fe ff             	cmp    esi,0xffffffff
3f41:	74 08                	je     3f4b <main+0x1ffb>
3f43:	44 89 ef             	mov    edi,r13d
3f46:	e8 d5 df ff ff       	call   1f20 <inotify_rm_watch@plt>
3f4b:	8b 75 04             	mov    esi,DWORD PTR [rbp+0x4]
3f4e:	83 fe ff             	cmp    esi,0xffffffff
3f51:	74 08                	je     3f5b <main+0x200b>
3f53:	44 89 ef             	mov    edi,r13d
3f56:	e8 c5 df ff ff       	call   1f20 <inotify_rm_watch@plt>
3f5b:	48 83 c5 60          	add    rbp,0x60
3f5f:	48 39 eb             	cmp    rbx,rbp
3f62:	75 d7                	jne    3f3b <main+0x1feb>
3f64:	e9 df f4 ff ff       	jmp    3448 <main+0x14f8>
3f69:	48 8b 7c 24 08       	mov    rdi,QWORD PTR [rsp+0x8]
3f6e:	48 89 de             	mov    rsi,rbx
3f71:	e8 ca 3d 00 00       	call   7d40 <hash_insert>
3f76:	48 85 c0             	test   rax,rax
3f79:	0f 84 7c 05 00 00    	je     44fb <main+0x25ab>
3f7f:	0f b6 44 24 50       	movzx  eax,BYTE PTR [rsp+0x50]
3f84:	88 44 24 38          	mov    BYTE PTR [rsp+0x38],al
3f88:	8b 15 92 c0 20 00    	mov    edx,DWORD PTR [rip+0x20c092]        # 210020 <follow_mode>
3f8e:	48 83 c3 60          	add    rbx,0x60
3f92:	e9 41 fe ff ff       	jmp    3dd8 <main+0x1e88>
3f97:	3b 43 3c             	cmp    eax,DWORD PTR [rbx+0x3c]
3f9a:	74 ec                	je     3f88 <main+0x2038>
3f9c:	48 8b 33             	mov    rsi,QWORD PTR [rbx]
3f9f:	bf 04 00 00 00       	mov    edi,0x4
3fa4:	e8 77 5b 00 00       	call   9b20 <quotearg_style>
3fa9:	48 8d 35 7c 79 00 00 	lea    rsi,[rip+0x797c]        # b92c <_IO_stdin_used+0x32c>
3fb0:	ba 05 00 00 00       	mov    edx,0x5
3fb5:	31 ff                	xor    edi,edi
3fb7:	48 89 44 24 48       	mov    QWORD PTR [rsp+0x48],rax
3fbc:	e8 0f dc ff ff       	call   1bd0 <dcgettext@plt>
3fc1:	48 8b 4c 24 48       	mov    rcx,QWORD PTR [rsp+0x48]
3fc6:	41 8b 36             	mov    esi,DWORD PTR [r14]
3fc9:	48 89 c2             	mov    rdx,rax
3fcc:	31 ff                	xor    edi,edi
3fce:	31 c0                	xor    eax,eax
3fd0:	e8 8b de ff ff       	call   1e60 <error@plt>
3fd5:	8b 15 45 c0 20 00    	mov    edx,DWORD PTR [rip+0x20c045]        # 210020 <follow_mode>
3fdb:	eb b1                	jmp    3f8e <main+0x203e>
3fdd:	83 fa 02             	cmp    edx,0x2
3fe0:	4c 8b 74 24 08       	mov    r14,QWORD PTR [rsp+0x8]
3fe5:	0f 84 ad 05 00 00    	je     4598 <main+0x2648>
3feb:	4c 8b 7c 24 28       	mov    r15,QWORD PTR [rsp+0x28]
3ff0:	48 8b 44 24 60       	mov    rax,QWORD PTR [rsp+0x60]
3ff5:	48 8d 9c 24 98 00 00 	lea    rbx,[rsp+0x98]
3ffc:	00
3ffd:	49 8d 44 07 a0       	lea    rax,[r15+rax*1-0x60]
4002:	48 89 84 24 98 00 00 	mov    QWORD PTR [rsp+0x98],rax
4009:	00
400a:	48 8d 84 24 20 02 00 	lea    rax,[rsp+0x220]
4011:	00
4012:	48 89 44 24 08       	mov    QWORD PTR [rsp+0x8],rax
4017:	eb 50                	jmp    4069 <main+0x2119>
4019:	41 83 7f 38 ff       	cmp    DWORD PTR [r15+0x38],0xffffffff
401e:	74 3a                	je     405a <main+0x210a>
4020:	48 8b 54 24 08       	mov    rdx,QWORD PTR [rsp+0x8]
4025:	49 8b 37             	mov    rsi,QWORD PTR [r15]
4028:	bf 01 00 00 00       	mov    edi,0x1
402d:	e8 7e dd ff ff       	call   1db0 <__xstat@plt>
4032:	85 c0                	test   eax,eax
4034:	75 24                	jne    405a <main+0x210a>
4036:	48 8b 84 24 20 02 00 	mov    rax,QWORD PTR [rsp+0x220]
403d:	00
403e:	49 39 47 20          	cmp    QWORD PTR [r15+0x20],rax
4042:	0f 85 9f 05 00 00    	jne    45e7 <main+0x2697>
4048:	48 8b 84 24 28 02 00 	mov    rax,QWORD PTR [rsp+0x228]
404f:	00
4050:	49 39 47 28          	cmp    QWORD PTR [r15+0x28],rax
4054:	0f 85 8d 05 00 00    	jne    45e7 <main+0x2697>
405a:	48 89 de             	mov    rsi,rbx
405d:	4c 89 ff             	mov    rdi,r15
4060:	e8 6b 11 00 00       	call   51d0 <check_fspec>
4065:	49 83 c7 60          	add    r15,0x60
4069:	49 39 ef             	cmp    r15,rbp
406c:	74 1c                	je     408a <main+0x213a>
406e:	41 80 7f 34 00       	cmp    BYTE PTR [r15+0x34],0x0
4073:	75 f0                	jne    4065 <main+0x2115>
4075:	83 3d a4 bf 20 00 01 	cmp    DWORD PTR [rip+0x20bfa4],0x1        # 210020 <follow_mode>
407c:	75 9b                	jne    4019 <main+0x20c9>
407e:	31 f6                	xor    esi,esi
4080:	4c 89 ff             	mov    rdi,r15
4083:	e8 08 1a 00 00       	call   5a90 <recheck>
4088:	eb d0                	jmp    405a <main+0x210a>
408a:	49 8d 44 24 11       	lea    rax,[r12+0x11]
408f:	45 31 ff             	xor    r15d,r15d
4092:	48 89 c7             	mov    rdi,rax
4095:	48 89 44 24 38       	mov    QWORD PTR [rsp+0x38],rax
409a:	e8 31 64 00 00       	call   a4d0 <xmalloc>
409f:	44 89 e9             	mov    ecx,r13d
40a2:	48 89 44 24 10       	mov    QWORD PTR [rsp+0x10],rax
40a7:	b8 01 00 00 00       	mov    eax,0x1
40ac:	48 d3 e0             	shl    rax,cl
40af:	48 c7 44 24 08 00 00 	mov    QWORD PTR [rsp+0x8],0x0
40b6:	00 00
40b8:	c7 44 24 48 03 00 00 	mov    DWORD PTR [rsp+0x48],0x3
40bf:	00
40c0:	48 89 44 24 70       	mov    QWORD PTR [rsp+0x70],rax
40c5:	48 8d 84 24 10 01 00 	lea    rax,[rsp+0x110]
40cc:	00
40cd:	48 89 44 24 58       	mov    QWORD PTR [rsp+0x58],rax
40d2:	49 63 c5             	movsxd rax,r13d
40d5:	48 89 84 24 80 00 00 	mov    QWORD PTR [rsp+0x80],rax
40dc:	00
40dd:	83 3d 3c bf 20 00 01 	cmp    DWORD PTR [rip+0x20bf3c],0x1        # 210020 <follow_mode>
40e4:	0f 84 91 01 00 00    	je     427b <main+0x232b>
40ea:	0f b6 6c 24 20       	movzx  ebp,BYTE PTR [rsp+0x20]
40ef:	48 8d 9c 24 a0 00 00 	lea    rbx,[rsp+0xa0]
40f6:	00
40f7:	4c 3b 7c 24 08       	cmp    r15,QWORD PTR [rsp+0x8]
40fc:	0f 82 db 04 00 00    	jb     45dd <main+0x268d>
4102:	8b 3d 08 c0 20 00    	mov    edi,DWORD PTR [rip+0x20c008]        # 210110 <pid>
4108:	85 ff                	test   edi,edi
410a:	74 43                	je     414f <main+0x21ff>
410c:	40 84 ed             	test   bpl,bpl
410f:	0f 85 7a 05 00 00    	jne    468f <main+0x273f>
4115:	31 f6                	xor    esi,esi
4117:	e8 54 dc ff ff       	call   1d70 <kill@plt>
411c:	85 c0                	test   eax,eax
411e:	0f 84 19 01 00 00    	je     423d <main+0x22ed>
4124:	e8 e7 d9 ff ff       	call   1b10 <__errno_location@plt>
4129:	83 38 01             	cmp    DWORD PTR [rax],0x1
412c:	0f 84 0b 01 00 00    	je     423d <main+0x22ed>
4132:	0f b6 6c 24 50       	movzx  ebp,BYTE PTR [rsp+0x50]
4137:	48 c7 84 24 a8 00 00 	mov    QWORD PTR [rsp+0xa8],0x0
413e:	00 00 00 00 00
4143:	48 c7 84 24 a0 00 00 	mov    QWORD PTR [rsp+0xa0],0x0
414a:	00 00 00 00 00
414f:	31 c0                	xor    eax,eax
4151:	b9 10 00 00 00       	mov    ecx,0x10
4156:	48 8b 7c 24 58       	mov    rdi,QWORD PTR [rsp+0x58]
415b:	fc                   	cld
415c:	f3 48 ab             	rep stos QWORD PTR es:[rdi],rax
415f:	48 8b bc 24 80 00 00 	mov    rdi,QWORD PTR [rsp+0x80]
4166:	00
4167:	e8 e4 da ff ff       	call   1c50 <__fdelt_chk@plt>
416c:	48 8b 4c 24 70       	mov    rcx,QWORD PTR [rsp+0x70]
4171:	48 09 8c c4 10 01 00 	or     QWORD PTR [rsp+rax*8+0x110],rcx
4178:	00
4179:	80 3d 97 bf 20 00 00 	cmp    BYTE PTR [rip+0x20bf97],0x0        # 210117 <monitor_output>
4180:	74 09                	je     418b <main+0x223b>
4182:	48 83 8c 24 10 01 00 	or     QWORD PTR [rsp+0x110],0x2
4189:	00 02
418b:	45 31 c0             	xor    r8d,r8d
418e:	83 3d 7b bf 20 00 00 	cmp    DWORD PTR [rip+0x20bf7b],0x0        # 210110 <pid>
4195:	bf 01 00 00 00       	mov    edi,0x1
419a:	48 8b 74 24 58       	mov    rsi,QWORD PTR [rsp+0x58]
419f:	4c 0f 45 c3          	cmovne r8,rbx
41a3:	45 85 ed             	test   r13d,r13d
41a6:	41 0f 4f fd          	cmovg  edi,r13d
41aa:	31 c9                	xor    ecx,ecx
41ac:	31 d2                	xor    edx,edx
41ae:	83 c7 01             	add    edi,0x1
41b1:	e8 ea db ff ff       	call   1da0 <select@plt>
41b6:	85 c0                	test   eax,eax
41b8:	0f 84 39 ff ff ff    	je     40f7 <main+0x21a7>
41be:	83 c0 01             	add    eax,0x1
41c1:	40 88 6c 24 20       	mov    BYTE PTR [rsp+0x20],bpl
41c6:	0f 84 ca 04 00 00    	je     4696 <main+0x2746>
41cc:	f6 84 24 10 01 00 00 	test   BYTE PTR [rsp+0x110],0x2
41d3:	02
41d4:	0f 85 67 06 00 00    	jne    4841 <main+0x28f1>
41da:	48 8b 54 24 38       	mov    rdx,QWORD PTR [rsp+0x38]
41df:	48 8b 74 24 10       	mov    rsi,QWORD PTR [rsp+0x10]
41e4:	44 89 ef             	mov    edi,r13d
41e7:	e8 24 5c 00 00       	call   9e10 <safe_read>
41ec:	48 85 c0             	test   rax,rax
41ef:	48 89 44 24 08       	mov    QWORD PTR [rsp+0x8],rax
41f4:	0f 85 ca 00 00 00    	jne    42c4 <main+0x2374>
41fa:	83 7c 24 48 00       	cmp    DWORD PTR [rsp+0x48],0x0
41ff:	0f 84 67 03 00 00    	je     456c <main+0x261c>
4205:	48 8b 74 24 38       	mov    rsi,QWORD PTR [rsp+0x38]
420a:	48 8b 7c 24 10       	mov    rdi,QWORD PTR [rsp+0x10]
420f:	45 31 ff             	xor    r15d,r15d
4212:	83 6c 24 48 01       	sub    DWORD PTR [rsp+0x48],0x1
4217:	48 89 f0             	mov    rax,rsi
421a:	48 01 f0             	add    rax,rsi
421d:	48 89 c6             	mov    rsi,rax
4220:	48 89 44 24 38       	mov    QWORD PTR [rsp+0x38],rax
4225:	e8 06 63 00 00       	call   a530 <xrealloc>
422a:	48 c7 44 24 08 00 00 	mov    QWORD PTR [rsp+0x8],0x0
4231:	00 00
4233:	48 89 44 24 10       	mov    QWORD PTR [rsp+0x10],rax
4238:	e9 a0 fe ff ff       	jmp    40dd <main+0x218d>
423d:	f2 0f 10 64 24 30    	movsd  xmm4,QWORD PTR [rsp+0x30]
4243:	66 0f ef c0          	pxor   xmm0,xmm0
4247:	f2 48 0f 2c c4       	cvttsd2si rax,xmm4
424c:	f2 48 0f 2a c0       	cvtsi2sd xmm0,rax
4251:	48 89 84 24 a0 00 00 	mov    QWORD PTR [rsp+0xa0],rax
4258:	00
4259:	f2 0f 5c e0          	subsd  xmm4,xmm0
425d:	f2 0f 10 05 03 87 00 	movsd  xmm0,QWORD PTR [rip+0x8703]        # c968 <follow_mode_map+0x10>
4264:	00
4265:	f2 0f 59 c4          	mulsd  xmm0,xmm4
4269:	f2 48 0f 2c c0       	cvttsd2si rax,xmm0
426e:	48 89 84 24 a8 00 00 	mov    QWORD PTR [rsp+0xa8],rax
4275:	00
4276:	e9 d4 fe ff ff       	jmp    414f <main+0x21ff>
427b:	80 3d 98 be 20 00 00 	cmp    BYTE PTR [rip+0x20be98],0x0        # 21011a <reopen_inaccessible_files>
4282:	0f 85 62 fe ff ff    	jne    40ea <main+0x219a>
4288:	4c 89 f7             	mov    rdi,r14
428b:	e8 30 2e 00 00       	call   70c0 <hash_get_n_entries>
4290:	48 85 c0             	test   rax,rax
4293:	0f 85 51 fe ff ff    	jne    40ea <main+0x219a>
4299:	48 8d 35 ac 76 00 00 	lea    rsi,[rip+0x76ac]        # b94c <_IO_stdin_used+0x34c>
42a0:	ba 05 00 00 00       	mov    edx,0x5
42a5:	31 ff                	xor    edi,edi
42a7:	e8 24 d9 ff ff       	call   1bd0 <dcgettext@plt>
42ac:	31 f6                	xor    esi,esi
42ae:	48 89 c2             	mov    rdx,rax
42b1:	31 ff                	xor    edi,edi
42b3:	31 c0                	xor    eax,eax
42b5:	e8 a6 db ff ff       	call   1e60 <error@plt>
42ba:	b8 01 00 00 00       	mov    eax,0x1
42bf:	e9 64 e7 ff ff       	jmp    2a28 <main+0xad8>
42c4:	45 31 ff             	xor    r15d,r15d
42c7:	48 83 7c 24 08 ff    	cmp    QWORD PTR [rsp+0x8],0xffffffffffffffff
42cd:	0f 84 8b 02 00 00    	je     455e <main+0x260e>
42d3:	48 8b 44 24 10       	mov    rax,QWORD PTR [rsp+0x10]
42d8:	4a 8d 2c 38          	lea    rbp,[rax+r15*1]
42dc:	8b 55 0c             	mov    edx,DWORD PTR [rbp+0xc]
42df:	8b 4d 04             	mov    ecx,DWORD PTR [rbp+0x4]
42e2:	f6 c5 04             	test   ch,0x4
42e5:	4d 8d 7c 17 10       	lea    r15,[r15+rdx*1+0x10]
42ea:	0f 84 c3 00 00 00    	je     43b3 <main+0x2463>
42f0:	85 d2                	test   edx,edx
42f2:	0f 84 08 02 00 00    	je     4500 <main+0x25b0>
42f8:	48 8d 45 10          	lea    rax,[rbp+0x10]
42fc:	4c 89 7c 24 68       	mov    QWORD PTR [rsp+0x68],r15
4301:	48 8b 5c 24 28       	mov    rbx,QWORD PTR [rsp+0x28]
4306:	4d 89 f7             	mov    r15,r14
4309:	45 31 e4             	xor    r12d,r12d
430c:	45 89 ee             	mov    r14d,r13d
430f:	48 89 44 24 78       	mov    QWORD PTR [rsp+0x78],rax
4314:	49 89 ed             	mov    r13,rbp
4317:	48 8b 6c 24 18       	mov    rbp,QWORD PTR [rsp+0x18]
431c:	eb 08                	jmp    4326 <main+0x23d6>
431e:	49 83 c4 01          	add    r12,0x1
4322:	48 83 c3 60          	add    rbx,0x60
4326:	4c 39 e5             	cmp    rbp,r12
4329:	0f 84 ab 00 00 00    	je     43da <main+0x248a>
432f:	41 8b 45 00          	mov    eax,DWORD PTR [r13+0x0]
4333:	39 43 48             	cmp    DWORD PTR [rbx+0x48],eax
4336:	75 e6                	jne    431e <main+0x23ce>
4338:	48 8b 73 50          	mov    rsi,QWORD PTR [rbx+0x50]
433c:	48 03 33             	add    rsi,QWORD PTR [rbx]
433f:	48 8b 7c 24 78       	mov    rdi,QWORD PTR [rsp+0x78]
4344:	89 8c 24 8c 00 00 00 	mov    DWORD PTR [rsp+0x8c],ecx
434b:	e8 f0 d9 ff ff       	call   1d40 <strcmp@plt>
4350:	85 c0                	test   eax,eax
4352:	8b 8c 24 8c 00 00 00 	mov    ecx,DWORD PTR [rsp+0x8c]
4359:	75 c3                	jne    431e <main+0x23ce>
435b:	49 6b dc 60          	imul   rbx,r12,0x60
435f:	4c 89 ed             	mov    rbp,r13
4362:	45 89 f5             	mov    r13d,r14d
4365:	48 03 5c 24 28       	add    rbx,QWORD PTR [rsp+0x28]
436a:	80 e5 02             	and    ch,0x2
436d:	4d 89 fe             	mov    r14,r15
4370:	4c 8b 7c 24 68       	mov    r15,QWORD PTR [rsp+0x68]
4375:	0f 84 84 00 00 00    	je     43ff <main+0x24af>
437b:	83 3d 9e bc 20 00 01 	cmp    DWORD PTR [rip+0x20bc9e],0x1        # 210020 <follow_mode>
4382:	0f 84 46 02 00 00    	je     45ce <main+0x267e>
4388:	48 85 db             	test   rbx,rbx
438b:	0f 84 4c fd ff ff    	je     40dd <main+0x218d>
4391:	8b 45 04             	mov    eax,DWORD PTR [rbp+0x4]
4394:	a9 04 0e 00 00       	test   eax,0xe04
4399:	74 4f                	je     43ea <main+0x249a>
439b:	f6 c4 04             	test   ah,0x4
439e:	0f 85 0f 02 00 00    	jne    45b3 <main+0x2663>
43a4:	31 f6                	xor    esi,esi
43a6:	48 89 df             	mov    rdi,rbx
43a9:	e8 e2 16 00 00       	call   5a90 <recheck>
43ae:	e9 2a fd ff ff       	jmp    40dd <main+0x218d>
43b3:	85 d2                	test   edx,edx
43b5:	0f 85 3d ff ff ff    	jne    42f8 <main+0x23a8>
43bb:	8b 55 00             	mov    edx,DWORD PTR [rbp+0x0]
43be:	48 8d b4 24 b0 00 00 	lea    rsi,[rsp+0xb0]
43c5:	00
43c6:	4c 89 f7             	mov    rdi,r14
43c9:	89 94 24 f4 00 00 00 	mov    DWORD PTR [rsp+0xf4],edx
43d0:	e8 fb 2e 00 00       	call   72d0 <hash_lookup>
43d5:	48 89 c3             	mov    rbx,rax
43d8:	eb ae                	jmp    4388 <main+0x2438>
43da:	45 89 f5             	mov    r13d,r14d
43dd:	4d 89 fe             	mov    r14,r15
43e0:	4c 8b 7c 24 68       	mov    r15,QWORD PTR [rsp+0x68]
43e5:	e9 f3 fc ff ff       	jmp    40dd <main+0x218d>
43ea:	48 8d b4 24 98 00 00 	lea    rsi,[rsp+0x98]
43f1:	00
43f2:	48 89 df             	mov    rdi,rbx
43f5:	e8 d6 0d 00 00       	call   51d0 <check_fspec>
43fa:	e9 de fc ff ff       	jmp    40dd <main+0x218d>
43ff:	8b 54 24 44          	mov    edx,DWORD PTR [rsp+0x44]
4403:	48 8b 33             	mov    rsi,QWORD PTR [rbx]
4406:	44 89 ef             	mov    edi,r13d
4409:	e8 d2 d9 ff ff       	call   1de0 <inotify_add_watch@plt>
440e:	85 c0                	test   eax,eax
4410:	41 89 c4             	mov    r12d,eax
4413:	79 59                	jns    446e <main+0x251e>
4415:	e8 f6 d6 ff ff       	call   1b10 <__errno_location@plt>
441a:	49 89 c0             	mov    r8,rax
441d:	8b 00                	mov    eax,DWORD PTR [rax]
441f:	83 e0 ef             	and    eax,0xffffffef
4422:	83 f8 0c             	cmp    eax,0xc
4425:	0f 84 16 02 00 00    	je     4641 <main+0x26f1>
442b:	48 8b 33             	mov    rsi,QWORD PTR [rbx]
442e:	bf 04 00 00 00       	mov    edi,0x4
4433:	4c 89 44 24 78       	mov    QWORD PTR [rsp+0x78],r8
4438:	e8 e3 56 00 00       	call   9b20 <quotearg_style>
443d:	48 8d 35 e8 74 00 00 	lea    rsi,[rip+0x74e8]        # b92c <_IO_stdin_used+0x32c>
4444:	ba 05 00 00 00       	mov    edx,0x5
4449:	31 ff                	xor    edi,edi
444b:	48 89 44 24 68       	mov    QWORD PTR [rsp+0x68],rax
4450:	e8 7b d7 ff ff       	call   1bd0 <dcgettext@plt>
4455:	4c 8b 44 24 78       	mov    r8,QWORD PTR [rsp+0x78]
445a:	48 8b 4c 24 68       	mov    rcx,QWORD PTR [rsp+0x68]
445f:	48 89 c2             	mov    rdx,rax
4462:	31 ff                	xor    edi,edi
4464:	31 c0                	xor    eax,eax
4466:	41 8b 30             	mov    esi,DWORD PTR [r8]
4469:	e8 f2 d9 ff ff       	call   1e60 <error@plt>
446e:	8b 73 44             	mov    esi,DWORD PTR [rbx+0x44]
4471:	85 f6                	test   esi,esi
4473:	78 09                	js     447e <main+0x252e>
4475:	41 39 f4             	cmp    r12d,esi
4478:	0f 84 fd fe ff ff    	je     437b <main+0x242b>
447e:	85 f6                	test   esi,esi
4480:	78 13                	js     4495 <main+0x2545>
4482:	44 89 ef             	mov    edi,r13d
4485:	e8 96 da ff ff       	call   1f20 <inotify_rm_watch@plt>
448a:	48 89 de             	mov    rsi,rbx
448d:	4c 89 f7             	mov    rdi,r14
4490:	e8 0b 39 00 00       	call   7da0 <hash_delete>
4495:	44 89 63 44          	mov    DWORD PTR [rbx+0x44],r12d
4499:	41 83 c4 01          	add    r12d,0x1
449d:	0f 84 3a fc ff ff    	je     40dd <main+0x218d>
44a3:	48 89 de             	mov    rsi,rbx
44a6:	4c 89 f7             	mov    rdi,r14
44a9:	e8 f2 38 00 00       	call   7da0 <hash_delete>
44ae:	48 85 c0             	test   rax,rax
44b1:	49 89 c4             	mov    r12,rax
44b4:	74 31                	je     44e7 <main+0x2597>
44b6:	48 39 c3             	cmp    rbx,rax
44b9:	74 2c                	je     44e7 <main+0x2597>
44bb:	83 3d 5e bb 20 00 01 	cmp    DWORD PTR [rip+0x20bb5e],0x1        # 210020 <follow_mode>
44c2:	0f 84 b8 01 00 00    	je     4680 <main+0x2730>
44c8:	49 8b 3c 24          	mov    rdi,QWORD PTR [r12]
44cc:	41 c7 44 24 44 ff ff 	mov    DWORD PTR [r12+0x44],0xffffffff
44d3:	ff ff
44d5:	e8 06 05 00 00       	call   49e0 <pretty_name.isra.7>
44da:	41 8b 7c 24 38       	mov    edi,DWORD PTR [r12+0x38]
44df:	48 89 c6             	mov    rsi,rax
44e2:	e8 39 05 00 00       	call   4a20 <close_fd>
44e7:	48 89 de             	mov    rsi,rbx
44ea:	4c 89 f7             	mov    rdi,r14
44ed:	e8 4e 38 00 00       	call   7d40 <hash_insert>
44f2:	48 85 c0             	test   rax,rax
44f5:	0f 85 80 fe ff ff    	jne    437b <main+0x242b>
44fb:	e8 20 62 00 00       	call   a720 <xalloc_die>
4500:	8b 55 00             	mov    edx,DWORD PTR [rbp+0x0]
4503:	31 c0                	xor    eax,eax
4505:	eb 04                	jmp    450b <main+0x25bb>
4507:	48 83 c0 01          	add    rax,0x1
450b:	48 39 44 24 18       	cmp    QWORD PTR [rsp+0x18],rax
4510:	0f 84 a8 fe ff ff    	je     43be <main+0x246e>
4516:	48 6b c8 60          	imul   rcx,rax,0x60
451a:	48 8b 74 24 28       	mov    rsi,QWORD PTR [rsp+0x28]
451f:	39 54 0e 48          	cmp    DWORD PTR [rsi+rcx*1+0x48],edx
4523:	75 e2                	jne    4507 <main+0x25b7>
4525:	4c 89 f7             	mov    rdi,r14
4528:	e8 63 32 00 00       	call   7790 <hash_free>
452d:	48 8d 35 84 83 00 00 	lea    rsi,[rip+0x8384]        # c8b8 <_IO_stdin_used+0x12b8>
4534:	ba 05 00 00 00       	mov    edx,0x5
4539:	31 ff                	xor    edi,edi
453b:	e8 90 d6 ff ff       	call   1bd0 <dcgettext@plt>
4540:	31 f6                	xor    esi,esi
4542:	48 89 c2             	mov    rdx,rax
4545:	31 ff                	xor    edi,edi
4547:	31 c0                	xor    eax,eax
4549:	e8 12 d9 ff ff       	call   1e60 <error@plt>
454e:	e8 bd d5 ff ff       	call   1b10 <__errno_location@plt>
4553:	c7 00 00 00 00 00    	mov    DWORD PTR [rax],0x0
4559:	e9 9f f9 ff ff       	jmp    3efd <main+0x1fad>
455e:	e8 ad d5 ff ff       	call   1b10 <__errno_location@plt>
4563:	83 38 16             	cmp    DWORD PTR [rax],0x16
4566:	0f 84 8e fc ff ff    	je     41fa <main+0x22aa>
456c:	48 8d 35 ec 73 00 00 	lea    rsi,[rip+0x73ec]        # b95f <_IO_stdin_used+0x35f>
4573:	ba 05 00 00 00       	mov    edx,0x5
4578:	31 ff                	xor    edi,edi
457a:	e8 51 d6 ff ff       	call   1bd0 <dcgettext@plt>
457f:	48 89 c3             	mov    rbx,rax
4582:	e8 89 d5 ff ff       	call   1b10 <__errno_location@plt>
4587:	8b 30                	mov    esi,DWORD PTR [rax]
4589:	48 89 da             	mov    rdx,rbx
458c:	bf 01 00 00 00       	mov    edi,0x1
4591:	31 c0                	xor    eax,eax
4593:	e8 c8 d8 ff ff       	call   1e60 <error@plt>
4598:	80 7c 24 10 00       	cmp    BYTE PTR [rsp+0x10],0x0
459d:	0f 85 47 f9 ff ff    	jne    3eea <main+0x1f9a>
45a3:	80 7c 24 38 00       	cmp    BYTE PTR [rsp+0x38],0x0
45a8:	0f 85 3d fa ff ff    	jne    3feb <main+0x209b>
45ae:	e9 07 fd ff ff       	jmp    42ba <main+0x236a>
45b3:	8b 73 44             	mov    esi,DWORD PTR [rbx+0x44]
45b6:	44 89 ef             	mov    edi,r13d
45b9:	e8 62 d9 ff ff       	call   1f20 <inotify_rm_watch@plt>
45be:	48 89 de             	mov    rsi,rbx
45c1:	4c 89 f7             	mov    rdi,r14
45c4:	e8 d7 37 00 00       	call   7da0 <hash_delete>
45c9:	e9 d6 fd ff ff       	jmp    43a4 <main+0x2454>
45ce:	31 f6                	xor    esi,esi
45d0:	48 89 df             	mov    rdi,rbx
45d3:	e8 b8 14 00 00       	call   5a90 <recheck>
45d8:	e9 ab fd ff ff       	jmp    4388 <main+0x2438>
45dd:	40 88 6c 24 20       	mov    BYTE PTR [rsp+0x20],bpl
45e2:	e9 ec fc ff ff       	jmp    42d3 <main+0x2383>
45e7:	49 8b 3f             	mov    rdi,QWORD PTR [r15]
45ea:	e8 f1 03 00 00       	call   49e0 <pretty_name.isra.7>
45ef:	bf 04 00 00 00       	mov    edi,0x4
45f4:	48 89 c6             	mov    rsi,rax
45f7:	e8 24 55 00 00       	call   9b20 <quotearg_style>
45fc:	48 8d 35 39 73 00 00 	lea    rsi,[rip+0x7339]        # b93c <_IO_stdin_used+0x33c>
4603:	ba 05 00 00 00       	mov    edx,0x5
4608:	31 ff                	xor    edi,edi
460a:	48 89 c5             	mov    rbp,rax
460d:	e8 be d5 ff ff       	call   1bd0 <dcgettext@plt>
4612:	49 89 c4             	mov    r12,rax
4615:	e8 f6 d4 ff ff       	call   1b10 <__errno_location@plt>
461a:	8b 30                	mov    esi,DWORD PTR [rax]
461c:	48 89 c3             	mov    rbx,rax
461f:	48 89 e9             	mov    rcx,rbp
4622:	4c 89 e2             	mov    rdx,r12
4625:	31 ff                	xor    edi,edi
4627:	31 c0                	xor    eax,eax
4629:	e8 32 d8 ff ff       	call   1e60 <error@plt>
462e:	4c 89 f7             	mov    rdi,r14
4631:	e8 5a 31 00 00       	call   7790 <hash_free>
4636:	c7 03 00 00 00 00    	mov    DWORD PTR [rbx],0x0
463c:	e9 bc f8 ff ff       	jmp    3efd <main+0x1fad>
4641:	48 8d 35 c8 72 00 00 	lea    rsi,[rip+0x72c8]        # b910 <_IO_stdin_used+0x310>
4648:	ba 05 00 00 00       	mov    edx,0x5
464d:	31 ff                	xor    edi,edi
464f:	4c 89 44 24 08       	mov    QWORD PTR [rsp+0x8],r8
4654:	e8 77 d5 ff ff       	call   1bd0 <dcgettext@plt>
4659:	31 f6                	xor    esi,esi
465b:	48 89 c2             	mov    rdx,rax
465e:	31 ff                	xor    edi,edi
4660:	31 c0                	xor    eax,eax
4662:	e8 f9 d7 ff ff       	call   1e60 <error@plt>
4667:	4c 89 f7             	mov    rdi,r14
466a:	e8 21 31 00 00       	call   7790 <hash_free>
466f:	4c 8b 44 24 08       	mov    r8,QWORD PTR [rsp+0x8]
4674:	41 c7 00 00 00 00 00 	mov    DWORD PTR [r8],0x0
467b:	e9 7d f8 ff ff       	jmp    3efd <main+0x1fad>
4680:	31 f6                	xor    esi,esi
4682:	48 89 c7             	mov    rdi,rax
4685:	e8 06 14 00 00       	call   5a90 <recheck>
468a:	e9 39 fe ff ff       	jmp    44c8 <main+0x2578>
468f:	31 ff                	xor    edi,edi
4691:	e8 2a d8 ff ff       	call   1ec0 <exit@plt>
4696:	48 8d 35 eb 81 00 00 	lea    rsi,[rip+0x81eb]        # c888 <_IO_stdin_used+0x1288>
469d:	ba 05 00 00 00       	mov    edx,0x5
46a2:	31 ff                	xor    edi,edi
46a4:	e8 27 d5 ff ff       	call   1bd0 <dcgettext@plt>
46a9:	48 89 c3             	mov    rbx,rax
46ac:	e8 5f d4 ff ff       	call   1b10 <__errno_location@plt>
46b1:	8b 30                	mov    esi,DWORD PTR [rax]
46b3:	48 89 da             	mov    rdx,rbx
46b6:	bf 01 00 00 00       	mov    edi,0x1
46bb:	31 c0                	xor    eax,eax
46bd:	e8 9e d7 ff ff       	call   1e60 <error@plt>
46c2:	e8 49 d4 ff ff       	call   1b10 <__errno_location@plt>
46c7:	83 38 1c             	cmp    DWORD PTR [rax],0x1c
46ca:	49 89 df             	mov    r15,rbx
46cd:	4c 8b 74 24 08       	mov    r14,QWORD PTR [rsp+0x8]
46d2:	48 89 c3             	mov    rbx,rax
46d5:	0f 84 ee f7 ff ff    	je     3ec9 <main+0x1f79>
46db:	49 8b 37             	mov    rsi,QWORD PTR [r15]
46de:	bf 04 00 00 00       	mov    edi,0x4
46e3:	e8 38 54 00 00       	call   9b20 <quotearg_style>
46e8:	48 8d 35 71 81 00 00 	lea    rsi,[rip+0x8171]        # c860 <_IO_stdin_used+0x1260>
46ef:	31 ff                	xor    edi,edi
46f1:	ba 05 00 00 00       	mov    edx,0x5
46f6:	48 89 c5             	mov    rbp,rax
46f9:	e8 d2 d4 ff ff       	call   1bd0 <dcgettext@plt>
46fe:	8b 33                	mov    esi,DWORD PTR [rbx]
4700:	48 89 c2             	mov    rdx,rax
4703:	48 89 e9             	mov    rcx,rbp
4706:	31 ff                	xor    edi,edi
4708:	31 c0                	xor    eax,eax
470a:	e8 51 d7 ff ff       	call   1e60 <error@plt>
470f:	e9 d6 f7 ff ff       	jmp    3eea <main+0x1f9a>
4714:	48 8b 7d 08          	mov    rdi,QWORD PTR [rbp+0x8]
4718:	e8 d3 56 00 00       	call   9df0 <quote>
471d:	48 8d 35 cf 70 00 00 	lea    rsi,[rip+0x70cf]        # b7f3 <_IO_stdin_used+0x1f3>
4724:	ba 05 00 00 00       	mov    edx,0x5
4729:	31 ff                	xor    edi,edi
472b:	48 89 c5             	mov    rbp,rax
472e:	e8 9d d4 ff ff       	call   1bd0 <dcgettext@plt>
4733:	48 89 c3             	mov    rbx,rax
4736:	e8 d5 d3 ff ff       	call   1b10 <__errno_location@plt>
473b:	8b 30                	mov    esi,DWORD PTR [rax]
473d:	48 8d 15 be 70 00 00 	lea    rdx,[rip+0x70be]        # b802 <_IO_stdin_used+0x202>
4744:	49 89 e8             	mov    r8,rbp
4747:	48 89 d9             	mov    rcx,rbx
474a:	bf 01 00 00 00       	mov    edi,0x1
474f:	31 c0                	xor    eax,eax
4751:	e8 0a d7 ff ff       	call   1e60 <error@plt>
4756:	48 8d 35 39 6f 00 00 	lea    rsi,[rip+0x6f39]        # b696 <_IO_stdin_used+0x96>
475d:	ba 05 00 00 00       	mov    edx,0x5
4762:	31 ff                	xor    edi,edi
4764:	e8 67 d4 ff ff       	call   1bd0 <dcgettext@plt>
4769:	48 89 c3             	mov    rbx,rax
476c:	e8 9f d3 ff ff       	call   1b10 <__errno_location@plt>
4771:	8b 30                	mov    esi,DWORD PTR [rax]
4773:	48 89 da             	mov    rdx,rbx
4776:	bf 01 00 00 00       	mov    edi,0x1
477b:	31 c0                	xor    eax,eax
477d:	e8 de d6 ff ff       	call   1e60 <error@plt>
4782:	48 c7 c1 fe ff ff ff 	mov    rcx,0xfffffffffffffffe
4789:	e9 3a ed ff ff       	jmp    34c8 <main+0x1578>
478e:	4c 89 ea             	mov    rdx,r13
4791:	be 03 00 00 00       	mov    esi,0x3
4796:	31 ff                	xor    edi,edi
4798:	48 89 04 24          	mov    QWORD PTR [rsp],rax
479c:	e8 7f 54 00 00       	call   9c20 <quotearg_n_style_colon>
47a1:	48 8d 35 70 81 00 00 	lea    rsi,[rip+0x8170]        # c918 <_IO_stdin_used+0x1318>
47a8:	ba 05 00 00 00       	mov    edx,0x5
47ad:	31 ff                	xor    edi,edi
47af:	48 89 c3             	mov    rbx,rax
47b2:	e8 19 d4 ff ff       	call   1bd0 <dcgettext@plt>
47b7:	4c 8b 0c 24          	mov    r9,QWORD PTR [rsp]
47bb:	48 89 c2             	mov    rdx,rax
47be:	48 89 d9             	mov    rcx,rbx
47c1:	bf 01 00 00 00       	mov    edi,0x1
47c6:	31 c0                	xor    eax,eax
47c8:	41 8b 31             	mov    esi,DWORD PTR [r9]
47cb:	e8 90 d6 ff ff       	call   1e60 <error@plt>
47d0:	49 8b 07             	mov    rax,QWORD PTR [r15]
47d3:	e9 92 df ff ff       	jmp    276a <main+0x81a>
47d8:	48 8d 35 10 70 00 00 	lea    rsi,[rip+0x7010]        # b7ef <_IO_stdin_used+0x1ef>
47df:	bf 04 00 00 00       	mov    edi,0x4
47e4:	e8 37 53 00 00       	call   9b20 <quotearg_style>
47e9:	48 8d 35 d8 70 00 00 	lea    rsi,[rip+0x70d8]        # b8c8 <_IO_stdin_used+0x2c8>
47f0:	48 89 c3             	mov    rbx,rax
47f3:	ba 05 00 00 00       	mov    edx,0x5
47f8:	31 ff                	xor    edi,edi
47fa:	e8 d1 d3 ff ff       	call   1bd0 <dcgettext@plt>
47ff:	48 89 d9             	mov    rcx,rbx
4802:	48 89 c2             	mov    rdx,rax
4805:	31 f6                	xor    esi,esi
4807:	bf 01 00 00 00       	mov    edi,0x1
480c:	31 c0                	xor    eax,eax
480e:	e8 4d d6 ff ff       	call   1e60 <error@plt>
4813:	48 8d 0d 2e 81 00 00 	lea    rcx,[rip+0x812e]        # c948 <__PRETTY_FUNCTION__.7486>
481a:	48 8d 35 81 6e 00 00 	lea    rsi,[rip+0x6e81]        # b6a2 <_IO_stdin_used+0xa2>
4821:	48 8d 3d e4 70 00 00 	lea    rdi,[rip+0x70e4]        # b90c <_IO_stdin_used+0x30c>
4828:	ba e0 02 00 00       	mov    edx,0x2e0
482d:	e8 7e d4 ff ff       	call   1cb0 <__assert_fail@plt>
4832:	b9 01 00 00 00       	mov    ecx,0x1
4837:	e9 49 de ff ff       	jmp    2685 <main+0x735>
483c:	e8 cf d3 ff ff       	call   1c10 <__stack_chk_fail@plt>
4841:	bf 0d 00 00 00       	mov    edi,0xd
4846:	e8 95 d2 ff ff       	call   1ae0 <raise@plt>
484b:	bf 01 00 00 00       	mov    edi,0x1
4850:	e8 6b d6 ff ff       	call   1ec0 <exit@plt>
4855:	48 8d 35 3a 6e 00 00 	lea    rsi,[rip+0x6e3a]        # b696 <_IO_stdin_used+0x96>
485c:	ba 05 00 00 00       	mov    edx,0x5
4861:	31 ff                	xor    edi,edi
4863:	e8 68 d3 ff ff       	call   1bd0 <dcgettext@plt>
4868:	48 89 c3             	mov    rbx,rax
486b:	e8 a0 d2 ff ff       	call   1b10 <__errno_location@plt>
4870:	8b 30                	mov    esi,DWORD PTR [rax]
4872:	48 89 da             	mov    rdx,rbx
4875:	bf 01 00 00 00       	mov    edi,0x1
487a:	31 c0                	xor    eax,eax
487c:	e8 df d5 ff ff       	call   1e60 <error@plt>
4881:	48 8d 35 9e 6d 00 00 	lea    rsi,[rip+0x6d9e]        # b626 <_IO_stdin_used+0x26>
4888:	ba 05 00 00 00       	mov    edx,0x5
488d:	31 ff                	xor    edi,edi
488f:	e8 3c d3 ff ff       	call   1bd0 <dcgettext@plt>
4894:	48 89 c3             	mov    rbx,rax
4897:	e8 74 d2 ff ff       	call   1b10 <__errno_location@plt>
489c:	8b 30                	mov    esi,DWORD PTR [rax]
489e:	48 89 da             	mov    rdx,rbx
48a1:	bf 01 00 00 00       	mov    edi,0x1
48a6:	31 c0                	xor    eax,eax
48a8:	e8 b3 d5 ff ff       	call   1e60 <error@plt>
48ad:	0f 1f 00             	nop    DWORD PTR [rax]

00000000000048b0 <_start>:
48b0:	31 ed                	xor    ebp,ebp
48b2:	49 89 d1             	mov    r9,rdx
48b5:	5e                   	pop    rsi
48b6:	48 89 e2             	mov    rdx,rsp
48b9:	48 83 e4 f0          	and    rsp,0xfffffffffffffff0
48bd:	50                   	push   rax
48be:	54                   	push   rsp
48bf:	4c 8d 05 0a 6d 00 00 	lea    r8,[rip+0x6d0a]        # b5d0 <__libc_csu_fini>
48c6:	48 8d 0d 93 6c 00 00 	lea    rcx,[rip+0x6c93]        # b560 <__libc_csu_init>
48cd:	48 8d 3d 7c d6 ff ff 	lea    rdi,[rip+0xffffffffffffd67c]        # 1f50 <main>
48d4:	ff 15 06 b7 20 00    	call   QWORD PTR [rip+0x20b706]        # 20ffe0 <__libc_start_main@GLIBC_2.2.5>
48da:	f4                   	hlt
48db:	0f 1f 44 00 00       	nop    DWORD PTR [rax+rax*1+0x0]

00000000000048e0 <deregister_tm_clones>:
48e0:	48 8d 3d d9 b7 20 00 	lea    rdi,[rip+0x20b7d9]        # 2100c0 <__progname@@GLIBC_2.2.5>
48e7:	55                   	push   rbp
48e8:	48 8d 05 d1 b7 20 00 	lea    rax,[rip+0x20b7d1]        # 2100c0 <__progname@@GLIBC_2.2.5>
48ef:	48 39 f8             	cmp    rax,rdi
48f2:	48 89 e5             	mov    rbp,rsp
48f5:	74 19                	je     4910 <deregister_tm_clones+0x30>
48f7:	48 8b 05 da b6 20 00 	mov    rax,QWORD PTR [rip+0x20b6da]        # 20ffd8 <_ITM_deregisterTMCloneTable>
48fe:	48 85 c0             	test   rax,rax
4901:	74 0d                	je     4910 <deregister_tm_clones+0x30>
4903:	5d                   	pop    rbp
4904:	ff e0                	jmp    rax
4906:	66 2e 0f 1f 84 00 00 	nop    WORD PTR cs:[rax+rax*1+0x0]
490d:	00 00 00
4910:	5d                   	pop    rbp
4911:	c3                   	ret
4912:	0f 1f 40 00          	nop    DWORD PTR [rax+0x0]
4916:	66 2e 0f 1f 84 00 00 	nop    WORD PTR cs:[rax+rax*1+0x0]
491d:	00 00 00

0000000000004920 <register_tm_clones>:
4920:	48 8d 3d 99 b7 20 00 	lea    rdi,[rip+0x20b799]        # 2100c0 <__progname@@GLIBC_2.2.5>
4927:	48 8d 35 92 b7 20 00 	lea    rsi,[rip+0x20b792]        # 2100c0 <__progname@@GLIBC_2.2.5>
492e:	55                   	push   rbp
492f:	48 29 fe             	sub    rsi,rdi
4932:	48 89 e5             	mov    rbp,rsp
4935:	48 c1 fe 03          	sar    rsi,0x3
4939:	48 89 f0             	mov    rax,rsi
493c:	48 c1 e8 3f          	shr    rax,0x3f
4940:	48 01 c6             	add    rsi,rax
4943:	48 d1 fe             	sar    rsi,1
4946:	74 18                	je     4960 <register_tm_clones+0x40>
4948:	48 8b 05 a1 b6 20 00 	mov    rax,QWORD PTR [rip+0x20b6a1]        # 20fff0 <_ITM_registerTMCloneTable>
494f:	48 85 c0             	test   rax,rax
4952:	74 0c                	je     4960 <register_tm_clones+0x40>
4954:	5d                   	pop    rbp
4955:	ff e0                	jmp    rax
4957:	66 0f 1f 84 00 00 00 	nop    WORD PTR [rax+rax*1+0x0]
495e:	00 00
4960:	5d                   	pop    rbp
4961:	c3                   	ret
4962:	0f 1f 40 00          	nop    DWORD PTR [rax+0x0]
4966:	66 2e 0f 1f 84 00 00 	nop    WORD PTR cs:[rax+rax*1+0x0]
496d:	00 00 00

0000000000004970 <__do_global_dtors_aux>:
4970:	80 3d 91 b7 20 00 00 	cmp    BYTE PTR [rip+0x20b791],0x0        # 210108 <completed.7697>
4977:	75 2f                	jne    49a8 <__do_global_dtors_aux+0x38>
4979:	48 83 3d 77 b6 20 00 	cmp    QWORD PTR [rip+0x20b677],0x0        # 20fff8 <__cxa_finalize@GLIBC_2.2.5>
4980:	00
4981:	55                   	push   rbp
4982:	48 89 e5             	mov    rbp,rsp
4985:	74 0c                	je     4993 <__do_global_dtors_aux+0x23>
4987:	48 8b 3d 7a b6 20 00 	mov    rdi,QWORD PTR [rip+0x20b67a]        # 210008 <__dso_handle>
498e:	e8 ad d5 ff ff       	call   1f40 <__cxa_finalize@plt>
4993:	e8 48 ff ff ff       	call   48e0 <deregister_tm_clones>
4998:	c6 05 69 b7 20 00 01 	mov    BYTE PTR [rip+0x20b769],0x1        # 210108 <completed.7697>
499f:	5d                   	pop    rbp
49a0:	c3                   	ret
49a1:	0f 1f 80 00 00 00 00 	nop    DWORD PTR [rax+0x0]
49a8:	f3 c3                	repz ret
49aa:	66 0f 1f 44 00 00    	nop    WORD PTR [rax+rax*1+0x0]

00000000000049b0 <frame_dummy>:
49b0:	55                   	push   rbp
49b1:	48 89 e5             	mov    rbp,rsp
49b4:	5d                   	pop    rbp
49b5:	e9 66 ff ff ff       	jmp    4920 <register_tm_clones>
49ba:	66 0f 1f 44 00 00    	nop    WORD PTR [rax+rax*1+0x0]

00000000000049c0 <wd_hasher>:
49c0:	48 63 47 44          	movsxd rax,DWORD PTR [rdi+0x44]
49c4:	31 d2                	xor    edx,edx
49c6:	48 f7 f6             	div    rsi
49c9:	48 89 d0             	mov    rax,rdx
49cc:	c3                   	ret
49cd:	0f 1f 00             	nop    DWORD PTR [rax]

00000000000049d0 <wd_comparator>:
49d0:	8b 46 44             	mov    eax,DWORD PTR [rsi+0x44]
49d3:	39 47 44             	cmp    DWORD PTR [rdi+0x44],eax
49d6:	0f 94 c0             	sete   al
49d9:	c3                   	ret
49da:	66 0f 1f 44 00 00    	nop    WORD PTR [rax+rax*1+0x0]

00000000000049e0 <pretty_name.isra.7>:
49e0:	48 89 f8             	mov    rax,rdi
49e3:	48 8d 3d 05 6e 00 00 	lea    rdi,[rip+0x6e05]        # b7ef <_IO_stdin_used+0x1ef>
49ea:	b9 02 00 00 00       	mov    ecx,0x2
49ef:	48 89 c6             	mov    rsi,rax
49f2:	f3 a6                	repz cmps BYTE PTR ds:[rsi],BYTE PTR es:[rdi]
49f4:	0f 97 c2             	seta   dl
49f7:	80 da 00             	sbb    dl,0x0
49fa:	84 d2                	test   dl,dl
49fc:	74 02                	je     4a00 <pretty_name.isra.7+0x20>
49fe:	f3 c3                	repz ret
4a00:	48 8d 35 fd 6b 00 00 	lea    rsi,[rip+0x6bfd]        # b604 <_IO_stdin_used+0x4>
4a07:	ba 05 00 00 00       	mov    edx,0x5
4a0c:	31 ff                	xor    edi,edi
4a0e:	e9 bd d1 ff ff       	jmp    1bd0 <dcgettext@plt>
4a13:	0f 1f 00             	nop    DWORD PTR [rax]
4a16:	66 2e 0f 1f 84 00 00 	nop    WORD PTR cs:[rax+rax*1+0x0]
4a1d:	00 00 00

0000000000004a20 <close_fd>:
4a20:	8d 47 01             	lea    eax,[rdi+0x1]
4a23:	83 f8 01             	cmp    eax,0x1
4a26:	76 18                	jbe    4a40 <close_fd+0x20>
4a28:	41 54                	push   r12
4a2a:	55                   	push   rbp
4a2b:	48 89 f5             	mov    rbp,rsi
4a2e:	53                   	push   rbx
4a2f:	89 fb                	mov    ebx,edi
4a31:	e8 aa d2 ff ff       	call   1ce0 <close@plt>
4a36:	85 c0                	test   eax,eax
4a38:	75 0e                	jne    4a48 <close_fd+0x28>
4a3a:	5b                   	pop    rbx
4a3b:	5d                   	pop    rbp
4a3c:	41 5c                	pop    r12
4a3e:	c3                   	ret
4a3f:	90                   	nop
4a40:	f3 c3                	repz ret
4a42:	66 0f 1f 44 00 00    	nop    WORD PTR [rax+rax*1+0x0]
4a48:	48 89 ee             	mov    rsi,rbp
4a4b:	bf 04 00 00 00       	mov    edi,0x4
4a50:	e8 cb 50 00 00       	call   9b20 <quotearg_style>
4a55:	48 8d 35 b7 6b 00 00 	lea    rsi,[rip+0x6bb7]        # b613 <_IO_stdin_used+0x13>
4a5c:	ba 05 00 00 00       	mov    edx,0x5
4a61:	31 ff                	xor    edi,edi
4a63:	49 89 c4             	mov    r12,rax
4a66:	e8 65 d1 ff ff       	call   1bd0 <dcgettext@plt>
4a6b:	48 89 c5             	mov    rbp,rax
4a6e:	e8 9d d0 ff ff       	call   1b10 <__errno_location@plt>
4a73:	41 89 d8             	mov    r8d,ebx
4a76:	4c 89 e1             	mov    rcx,r12
4a79:	48 89 ea             	mov    rdx,rbp
4a7c:	5b                   	pop    rbx
4a7d:	5d                   	pop    rbp
4a7e:	41 5c                	pop    r12
4a80:	8b 30                	mov    esi,DWORD PTR [rax]
4a82:	31 ff                	xor    edi,edi
4a84:	31 c0                	xor    eax,eax
4a86:	e9 d5 d3 ff ff       	jmp    1e60 <error@plt>
4a8b:	0f 1f 44 00 00       	nop    DWORD PTR [rax+rax*1+0x0]

0000000000004a90 <xwrite_stdout.part.10>:
4a90:	55                   	push   rbp
4a91:	53                   	push   rbx
4a92:	48 89 f2             	mov    rdx,rsi
4a95:	48 89 f3             	mov    rbx,rsi
4a98:	be 01 00 00 00       	mov    esi,0x1
4a9d:	48 83 ec 08          	sub    rsp,0x8
4aa1:	48 8b 0d 20 b6 20 00 	mov    rcx,QWORD PTR [rip+0x20b620]        # 2100c8 <stdout@@GLIBC_2.2.5>
4aa8:	e8 73 d3 ff ff       	call   1e20 <fwrite_unlocked@plt>
4aad:	48 39 c3             	cmp    rbx,rax
4ab0:	77 07                	ja     4ab9 <xwrite_stdout.part.10+0x29>
4ab2:	48 83 c4 08          	add    rsp,0x8
4ab6:	5b                   	pop    rbx
4ab7:	5d                   	pop    rbp
4ab8:	c3                   	ret
4ab9:	48 8b 3d 08 b6 20 00 	mov    rdi,QWORD PTR [rip+0x20b608]        # 2100c8 <stdout@@GLIBC_2.2.5>
4ac0:	e8 bb d0 ff ff       	call   1b80 <clearerr_unlocked@plt>
4ac5:	48 8d 35 5a 6b 00 00 	lea    rsi,[rip+0x6b5a]        # b626 <_IO_stdin_used+0x26>
4acc:	bf 04 00 00 00       	mov    edi,0x4
4ad1:	e8 4a 50 00 00       	call   9b20 <quotearg_style>
4ad6:	48 8d 35 59 6b 00 00 	lea    rsi,[rip+0x6b59]        # b636 <_IO_stdin_used+0x36>
4add:	ba 05 00 00 00       	mov    edx,0x5
4ae2:	31 ff                	xor    edi,edi
4ae4:	48 89 c5             	mov    rbp,rax
4ae7:	e8 e4 d0 ff ff       	call   1bd0 <dcgettext@plt>
4aec:	48 89 c3             	mov    rbx,rax
4aef:	e8 1c d0 ff ff       	call   1b10 <__errno_location@plt>
4af4:	8b 30                	mov    esi,DWORD PTR [rax]
4af6:	48 89 e9             	mov    rcx,rbp
4af9:	48 89 da             	mov    rdx,rbx
4afc:	bf 01 00 00 00       	mov    edi,0x1
4b01:	31 c0                	xor    eax,eax
4b03:	e8 58 d3 ff ff       	call   1e60 <error@plt>
4b08:	0f 1f 84 00 00 00 00 	nop    DWORD PTR [rax+rax*1+0x0]
4b0f:	00

0000000000004b10 <start_lines>:
4b10:	41 57                	push   r15
4b12:	41 56                	push   r14
4b14:	41 55                	push   r13
4b16:	41 54                	push   r12
4b18:	55                   	push   rbp
4b19:	53                   	push   rbx
4b1a:	48 81 ec 28 20 00 00 	sub    rsp,0x2028
4b21:	64 48 8b 04 25 28 00 	mov    rax,QWORD PTR fs:0x28
4b28:	00 00
4b2a:	48 89 84 24 18 20 00 	mov    QWORD PTR [rsp+0x2018],rax
4b31:	00
4b32:	31 c0                	xor    eax,eax
4b34:	48 85 d2             	test   rdx,rdx
4b37:	48 89 7c 24 08       	mov    QWORD PTR [rsp+0x8],rdi
4b3c:	74 7a                	je     4bb8 <start_lines+0xa8>
4b3e:	4c 8d 6c 24 10       	lea    r13,[rsp+0x10]
4b43:	41 89 f7             	mov    r15d,esi
4b46:	48 89 d3             	mov    rbx,rdx
4b49:	49 89 ce             	mov    r14,rcx
4b4c:	ba 00 20 00 00       	mov    edx,0x2000
4b51:	4c 89 ee             	mov    rsi,r13
4b54:	44 89 ff             	mov    edi,r15d
4b57:	e8 b4 52 00 00       	call   9e10 <safe_read>
4b5c:	48 85 c0             	test   rax,rax
4b5f:	0f 84 8d 00 00 00    	je     4bf2 <start_lines+0xe2>
4b65:	48 83 f8 ff          	cmp    rax,0xffffffffffffffff
4b69:	0f 84 8a 00 00 00    	je     4bf9 <start_lines+0xe9>
4b6f:	49 01 06             	add    QWORD PTR [r14],rax
4b72:	44 0f be 25 9a b5 20 	movsx  r12d,BYTE PTR [rip+0x20b59a]        # 210114 <line_end>
4b79:	00
4b7a:	49 8d 6c 05 00       	lea    rbp,[r13+rax*1+0x0]
4b7f:	4c 89 ef             	mov    rdi,r13
4b82:	66 0f 1f 44 00 00    	nop    WORD PTR [rax+rax*1+0x0]
4b88:	48 89 ea             	mov    rdx,rbp
4b8b:	44 89 e6             	mov    esi,r12d
4b8e:	48 29 fa             	sub    rdx,rdi
4b91:	e8 5a d1 ff ff       	call   1cf0 <memchr@plt>
4b96:	48 85 c0             	test   rax,rax
4b99:	74 b1                	je     4b4c <start_lines+0x3c>
4b9b:	48 83 eb 01          	sub    rbx,0x1
4b9f:	48 8d 78 01          	lea    rdi,[rax+0x1]
4ba3:	75 e3                	jne    4b88 <start_lines+0x78>
4ba5:	31 c0                	xor    eax,eax
4ba7:	48 39 fd             	cmp    rbp,rdi
4baa:	76 0c                	jbe    4bb8 <start_lines+0xa8>
4bac:	48 29 fd             	sub    rbp,rdi
4baf:	75 2f                	jne    4be0 <start_lines+0xd0>
4bb1:	0f 1f 80 00 00 00 00 	nop    DWORD PTR [rax+0x0]
4bb8:	48 8b 8c 24 18 20 00 	mov    rcx,QWORD PTR [rsp+0x2018]
4bbf:	00
4bc0:	64 48 33 0c 25 28 00 	xor    rcx,QWORD PTR fs:0x28
4bc7:	00 00
4bc9:	75 76                	jne    4c41 <start_lines+0x131>
4bcb:	48 81 c4 28 20 00 00 	add    rsp,0x2028
4bd2:	5b                   	pop    rbx
4bd3:	5d                   	pop    rbp
4bd4:	41 5c                	pop    r12
4bd6:	41 5d                	pop    r13
4bd8:	41 5e                	pop    r14
4bda:	41 5f                	pop    r15
4bdc:	c3                   	ret
4bdd:	0f 1f 00             	nop    DWORD PTR [rax]
4be0:	48 89 ee             	mov    rsi,rbp
4be3:	89 44 24 08          	mov    DWORD PTR [rsp+0x8],eax
4be7:	e8 a4 fe ff ff       	call   4a90 <xwrite_stdout.part.10>
4bec:	8b 44 24 08          	mov    eax,DWORD PTR [rsp+0x8]
4bf0:	eb c6                	jmp    4bb8 <start_lines+0xa8>
4bf2:	b8 ff ff ff ff       	mov    eax,0xffffffff
4bf7:	eb bf                	jmp    4bb8 <start_lines+0xa8>
4bf9:	48 8b 74 24 08       	mov    rsi,QWORD PTR [rsp+0x8]
4bfe:	bf 04 00 00 00       	mov    edi,0x4
4c03:	e8 18 4f 00 00       	call   9b20 <quotearg_style>
4c08:	48 8d 35 38 6a 00 00 	lea    rsi,[rip+0x6a38]        # b647 <_IO_stdin_used+0x47>
4c0f:	ba 05 00 00 00       	mov    edx,0x5
4c14:	31 ff                	xor    edi,edi
4c16:	48 89 c5             	mov    rbp,rax
4c19:	e8 b2 cf ff ff       	call   1bd0 <dcgettext@plt>
4c1e:	48 89 c3             	mov    rbx,rax
4c21:	e8 ea ce ff ff       	call   1b10 <__errno_location@plt>
4c26:	8b 30                	mov    esi,DWORD PTR [rax]
4c28:	48 89 e9             	mov    rcx,rbp
4c2b:	31 c0                	xor    eax,eax
4c2d:	48 89 da             	mov    rdx,rbx
4c30:	31 ff                	xor    edi,edi
4c32:	e8 29 d2 ff ff       	call   1e60 <error@plt>
4c37:	b8 01 00 00 00       	mov    eax,0x1
4c3c:	e9 77 ff ff ff       	jmp    4bb8 <start_lines+0xa8>
4c41:	e8 ca cf ff ff       	call   1c10 <__stack_chk_fail@plt>
4c46:	66 2e 0f 1f 84 00 00 	nop    WORD PTR cs:[rax+rax*1+0x0]
4c4d:	00 00 00

0000000000004c50 <dump_remainder>:
4c50:	41 57                	push   r15
4c52:	41 56                	push   r14
4c54:	49 89 ce             	mov    r14,rcx
4c57:	41 55                	push   r13
4c59:	41 54                	push   r12
4c5b:	45 31 e4             	xor    r12d,r12d
4c5e:	55                   	push   rbp
4c5f:	53                   	push   rbx
4c60:	89 fd                	mov    ebp,edi
4c62:	48 89 cb             	mov    rbx,rcx
4c65:	48 81 ec 28 20 00 00 	sub    rsp,0x2028
4c6c:	64 48 8b 04 25 28 00 	mov    rax,QWORD PTR fs:0x28
4c73:	00 00
4c75:	48 89 84 24 18 20 00 	mov    QWORD PTR [rsp+0x2018],rax
4c7c:	00
4c7d:	31 c0                	xor    eax,eax
4c7f:	4c 8d 6c 24 10       	lea    r13,[rsp+0x10]
4c84:	48 89 74 24 08       	mov    QWORD PTR [rsp+0x8],rsi
4c89:	89 54 24 04          	mov    DWORD PTR [rsp+0x4],edx
4c8d:	0f 1f 00             	nop    DWORD PTR [rax]
4c90:	8b 7c 24 04          	mov    edi,DWORD PTR [rsp+0x4]
4c94:	48 81 fb 00 20 00 00 	cmp    rbx,0x2000
4c9b:	ba 00 20 00 00       	mov    edx,0x2000
4ca0:	48 0f 46 d3          	cmovbe rdx,rbx
4ca4:	4c 89 ee             	mov    rsi,r13
4ca7:	e8 64 51 00 00       	call   9e10 <safe_read>
4cac:	48 83 f8 ff          	cmp    rax,0xffffffffffffffff
4cb0:	49 89 c7             	mov    r15,rax
4cb3:	74 6b                	je     4d20 <dump_remainder+0xd0>
4cb5:	48 85 c0             	test   rax,rax
4cb8:	74 73                	je     4d2d <dump_remainder+0xdd>
4cba:	40 84 ed             	test   bpl,bpl
4cbd:	74 38                	je     4cf7 <dump_remainder+0xa7>
4cbf:	80 3d 4a b3 20 00 00 	cmp    BYTE PTR [rip+0x20b34a],0x0        # 210010 <first_file.7393>
4cc6:	48 8d 05 34 83 00 00 	lea    rax,[rip+0x8334]        # d001 <quoting_style_vals+0x81>
4ccd:	48 8d 15 2c 83 00 00 	lea    rdx,[rip+0x832c]        # d000 <quoting_style_vals+0x80>
4cd4:	48 8b 4c 24 08       	mov    rcx,QWORD PTR [rsp+0x8]
4cd9:	48 8d 35 78 69 00 00 	lea    rsi,[rip+0x6978]        # b658 <_IO_stdin_used+0x58>
4ce0:	bf 01 00 00 00       	mov    edi,0x1
4ce5:	48 0f 45 d0          	cmovne rdx,rax
4ce9:	31 c0                	xor    eax,eax
4ceb:	e8 60 d1 ff ff       	call   1e50 <__printf_chk@plt>
4cf0:	c6 05 19 b3 20 00 00 	mov    BYTE PTR [rip+0x20b319],0x0        # 210010 <first_file.7393>
4cf7:	4c 89 fe             	mov    rsi,r15
4cfa:	4c 89 ef             	mov    rdi,r13
4cfd:	4d 01 fc             	add    r12,r15
4d00:	e8 8b fd ff ff       	call   4a90 <xwrite_stdout.part.10>
4d05:	49 83 fe ff          	cmp    r14,0xffffffffffffffff
4d09:	74 0b                	je     4d16 <dump_remainder+0xc6>
4d0b:	4c 29 fb             	sub    rbx,r15
4d0e:	74 1d                	je     4d2d <dump_remainder+0xdd>
4d10:	49 83 fe fe          	cmp    r14,0xfffffffffffffffe
4d14:	74 17                	je     4d2d <dump_remainder+0xdd>
4d16:	31 ed                	xor    ebp,ebp
4d18:	e9 73 ff ff ff       	jmp    4c90 <dump_remainder+0x40>
4d1d:	0f 1f 00             	nop    DWORD PTR [rax]
4d20:	e8 eb cd ff ff       	call   1b10 <__errno_location@plt>
4d25:	83 38 0b             	cmp    DWORD PTR [rax],0xb
4d28:	48 89 c3             	mov    rbx,rax
4d2b:	75 2d                	jne    4d5a <dump_remainder+0x10a>
4d2d:	48 8b 8c 24 18 20 00 	mov    rcx,QWORD PTR [rsp+0x2018]
4d34:	00
4d35:	64 48 33 0c 25 28 00 	xor    rcx,QWORD PTR fs:0x28
4d3c:	00 00
4d3e:	4c 89 e0             	mov    rax,r12
4d41:	75 12                	jne    4d55 <dump_remainder+0x105>
4d43:	48 81 c4 28 20 00 00 	add    rsp,0x2028
4d4a:	5b                   	pop    rbx
4d4b:	5d                   	pop    rbp
4d4c:	41 5c                	pop    r12
4d4e:	41 5d                	pop    r13
4d50:	41 5e                	pop    r14
4d52:	41 5f                	pop    r15
4d54:	c3                   	ret
4d55:	e8 b6 ce ff ff       	call   1c10 <__stack_chk_fail@plt>
4d5a:	48 8b 74 24 08       	mov    rsi,QWORD PTR [rsp+0x8]
4d5f:	bf 04 00 00 00       	mov    edi,0x4
4d64:	e8 b7 4d 00 00       	call   9b20 <quotearg_style>
4d69:	48 8d 35 d7 68 00 00 	lea    rsi,[rip+0x68d7]        # b647 <_IO_stdin_used+0x47>
4d70:	ba 05 00 00 00       	mov    edx,0x5
4d75:	31 ff                	xor    edi,edi
4d77:	48 89 c5             	mov    rbp,rax
4d7a:	e8 51 ce ff ff       	call   1bd0 <dcgettext@plt>
4d7f:	8b 33                	mov    esi,DWORD PTR [rbx]
4d81:	48 89 c2             	mov    rdx,rax
4d84:	48 89 e9             	mov    rcx,rbp
4d87:	bf 01 00 00 00       	mov    edi,0x1
4d8c:	31 c0                	xor    eax,eax
4d8e:	e8 cd d0 ff ff       	call   1e60 <error@plt>
4d93:	0f 1f 00             	nop    DWORD PTR [rax]
4d96:	66 2e 0f 1f 84 00 00 	nop    WORD PTR cs:[rax+rax*1+0x0]
4d9d:	00 00 00

0000000000004da0 <start_bytes>:
4da0:	41 56                	push   r14
4da2:	41 55                	push   r13
4da4:	41 54                	push   r12
4da6:	55                   	push   rbp
4da7:	53                   	push   rbx
4da8:	48 81 ec 10 20 00 00 	sub    rsp,0x2010
4daf:	64 48 8b 04 25 28 00 	mov    rax,QWORD PTR fs:0x28
4db6:	00 00
4db8:	48 89 84 24 08 20 00 	mov    QWORD PTR [rsp+0x2008],rax
4dbf:	00
4dc0:	31 c0                	xor    eax,eax
4dc2:	48 85 d2             	test   rdx,rdx
4dc5:	74 61                	je     4e28 <start_bytes+0x88>
4dc7:	49 89 fe             	mov    r14,rdi
4dca:	41 89 f5             	mov    r13d,esi
4dcd:	48 89 d3             	mov    rbx,rdx
4dd0:	48 89 cd             	mov    rbp,rcx
4dd3:	49 89 e4             	mov    r12,rsp
4dd6:	eb 1c                	jmp    4df4 <start_bytes+0x54>
4dd8:	0f 1f 84 00 00 00 00 	nop    DWORD PTR [rax+rax*1+0x0]
4ddf:	00
4de0:	48 83 f8 ff          	cmp    rax,0xffffffffffffffff
4de4:	74 6a                	je     4e50 <start_bytes+0xb0>
4de6:	48 01 45 00          	add    QWORD PTR [rbp+0x0],rax
4dea:	48 39 d8             	cmp    rax,rbx
4ded:	77 21                	ja     4e10 <start_bytes+0x70>
4def:	48 29 c3             	sub    rbx,rax
4df2:	74 34                	je     4e28 <start_bytes+0x88>
4df4:	ba 00 20 00 00       	mov    edx,0x2000
4df9:	4c 89 e6             	mov    rsi,r12
4dfc:	44 89 ef             	mov    edi,r13d
4dff:	e8 0c 50 00 00       	call   9e10 <safe_read>
4e04:	48 85 c0             	test   rax,rax
4e07:	75 d7                	jne    4de0 <start_bytes+0x40>
4e09:	b8 ff ff ff ff       	mov    eax,0xffffffff
4e0e:	eb 1a                	jmp    4e2a <start_bytes+0x8a>
4e10:	48 29 d8             	sub    rax,rbx
4e13:	74 13                	je     4e28 <start_bytes+0x88>
4e15:	49 8d 3c 1c          	lea    rdi,[r12+rbx*1]
4e19:	48 89 c6             	mov    rsi,rax
4e1c:	e8 6f fc ff ff       	call   4a90 <xwrite_stdout.part.10>
4e21:	0f 1f 80 00 00 00 00 	nop    DWORD PTR [rax+0x0]
4e28:	31 c0                	xor    eax,eax
4e2a:	48 8b 8c 24 08 20 00 	mov    rcx,QWORD PTR [rsp+0x2008]
4e31:	00
4e32:	64 48 33 0c 25 28 00 	xor    rcx,QWORD PTR fs:0x28
4e39:	00 00
4e3b:	75 56                	jne    4e93 <start_bytes+0xf3>
4e3d:	48 81 c4 10 20 00 00 	add    rsp,0x2010
4e44:	5b                   	pop    rbx
4e45:	5d                   	pop    rbp
4e46:	41 5c                	pop    r12
4e48:	41 5d                	pop    r13
4e4a:	41 5e                	pop    r14
4e4c:	c3                   	ret
4e4d:	0f 1f 00             	nop    DWORD PTR [rax]
4e50:	4c 89 f6             	mov    rsi,r14
4e53:	bf 04 00 00 00       	mov    edi,0x4
4e58:	e8 c3 4c 00 00       	call   9b20 <quotearg_style>
4e5d:	48 8d 35 e3 67 00 00 	lea    rsi,[rip+0x67e3]        # b647 <_IO_stdin_used+0x47>
4e64:	ba 05 00 00 00       	mov    edx,0x5
4e69:	31 ff                	xor    edi,edi
4e6b:	48 89 c5             	mov    rbp,rax
4e6e:	e8 5d cd ff ff       	call   1bd0 <dcgettext@plt>
4e73:	48 89 c3             	mov    rbx,rax
4e76:	e8 95 cc ff ff       	call   1b10 <__errno_location@plt>
4e7b:	8b 30                	mov    esi,DWORD PTR [rax]
4e7d:	48 89 e9             	mov    rcx,rbp
4e80:	31 c0                	xor    eax,eax
4e82:	48 89 da             	mov    rdx,rbx
4e85:	31 ff                	xor    edi,edi
4e87:	e8 d4 cf ff ff       	call   1e60 <error@plt>
4e8c:	b8 01 00 00 00       	mov    eax,0x1
4e91:	eb 97                	jmp    4e2a <start_bytes+0x8a>
4e93:	e8 78 cd ff ff       	call   1c10 <__stack_chk_fail@plt>
4e98:	0f 1f 84 00 00 00 00 	nop    DWORD PTR [rax+rax*1+0x0]
4e9f:	00

0000000000004ea0 <xlseek>:
4ea0:	41 55                	push   r13
4ea2:	41 54                	push   r12
4ea4:	49 89 cc             	mov    r12,rcx
4ea7:	55                   	push   rbp
4ea8:	53                   	push   rbx
4ea9:	48 89 f5             	mov    rbp,rsi
4eac:	89 d3                	mov    ebx,edx
4eae:	48 83 ec 28          	sub    rsp,0x28
4eb2:	64 48 8b 04 25 28 00 	mov    rax,QWORD PTR fs:0x28
4eb9:	00 00
4ebb:	48 89 44 24 18       	mov    QWORD PTR [rsp+0x18],rax
4ec0:	31 c0                	xor    eax,eax
4ec2:	e8 d9 cd ff ff       	call   1ca0 <lseek@plt>
4ec7:	48 85 c0             	test   rax,rax
4eca:	78 24                	js     4ef0 <xlseek+0x50>
4ecc:	48 8b 4c 24 18       	mov    rcx,QWORD PTR [rsp+0x18]
4ed1:	64 48 33 0c 25 28 00 	xor    rcx,QWORD PTR fs:0x28
4ed8:	00 00
4eda:	0f 85 86 00 00 00    	jne    4f66 <xlseek+0xc6>
4ee0:	48 83 c4 28          	add    rsp,0x28
4ee4:	5b                   	pop    rbx
4ee5:	5d                   	pop    rbp
4ee6:	41 5c                	pop    r12
4ee8:	41 5d                	pop    r13
4eea:	c3                   	ret
4eeb:	0f 1f 44 00 00       	nop    DWORD PTR [rax+rax*1+0x0]
4ef0:	48 89 ef             	mov    rdi,rbp
4ef3:	48 89 e6             	mov    rsi,rsp
4ef6:	e8 b5 30 00 00       	call   7fb0 <offtostr>
4efb:	49 89 c5             	mov    r13,rax
4efe:	e8 0d cc ff ff       	call   1b10 <__errno_location@plt>
4f03:	31 ff                	xor    edi,edi
4f05:	83 fb 01             	cmp    ebx,0x1
4f08:	48 89 c5             	mov    rbp,rax
4f0b:	4c 89 e2             	mov    rdx,r12
4f0e:	be 03 00 00 00       	mov    esi,0x3
4f13:	74 3b                	je     4f50 <xlseek+0xb0>
4f15:	e8 06 4d 00 00       	call   9c20 <quotearg_n_style_colon>
4f1a:	48 8d 35 45 67 00 00 	lea    rsi,[rip+0x6745]        # b666 <_IO_stdin_used+0x66>
4f21:	48 89 c3             	mov    rbx,rax
4f24:	ba 05 00 00 00       	mov    edx,0x5
4f29:	31 ff                	xor    edi,edi
4f2b:	e8 a0 cc ff ff       	call   1bd0 <dcgettext@plt>
4f30:	8b 75 00             	mov    esi,DWORD PTR [rbp+0x0]
4f33:	48 89 c2             	mov    rdx,rax
4f36:	31 ff                	xor    edi,edi
4f38:	4d 89 e8             	mov    r8,r13
4f3b:	48 89 d9             	mov    rcx,rbx
4f3e:	31 c0                	xor    eax,eax
4f40:	e8 1b cf ff ff       	call   1e60 <error@plt>
4f45:	bf 01 00 00 00       	mov    edi,0x1
4f4a:	e8 71 cf ff ff       	call   1ec0 <exit@plt>
4f4f:	90                   	nop
4f50:	e8 cb 4c 00 00       	call   9c20 <quotearg_n_style_colon>
4f55:	ba 05 00 00 00       	mov    edx,0x5
4f5a:	48 89 c3             	mov    rbx,rax
4f5d:	48 8d 35 c4 6a 00 00 	lea    rsi,[rip+0x6ac4]        # ba28 <_IO_stdin_used+0x428>
4f64:	eb c3                	jmp    4f29 <xlseek+0x89>
4f66:	e8 a5 cc ff ff       	call   1c10 <__stack_chk_fail@plt>
4f6b:	0f 1f 44 00 00       	nop    DWORD PTR [rax+rax*1+0x0]

0000000000004f70 <file_lines>:
4f70:	41 57                	push   r15
4f72:	41 56                	push   r14
4f74:	41 55                	push   r13
4f76:	41 54                	push   r12
4f78:	55                   	push   rbp
4f79:	53                   	push   rbx
4f7a:	48 81 ec 38 20 00 00 	sub    rsp,0x2038
4f81:	64 48 8b 04 25 28 00 	mov    rax,QWORD PTR fs:0x28
4f88:	00 00
4f8a:	48 89 84 24 28 20 00 	mov    QWORD PTR [rsp+0x2028],rax
4f91:	00
4f92:	31 c0                	xor    eax,eax
4f94:	48 85 d2             	test   rdx,rdx
4f97:	48 89 7c 24 08       	mov    QWORD PTR [rsp+0x8],rdi
4f9c:	48 89 4c 24 10       	mov    QWORD PTR [rsp+0x10],rcx
4fa1:	4c 89 44 24 18       	mov    QWORD PTR [rsp+0x18],r8
4fa6:	4c 89 0c 24          	mov    QWORD PTR [rsp],r9
4faa:	0f 84 20 01 00 00    	je     50d0 <file_lines+0x160>
4fb0:	4c 89 c5             	mov    rbp,r8
4fb3:	41 89 f6             	mov    r14d,esi
4fb6:	48 8d 5c 24 20       	lea    rbx,[rsp+0x20]
4fbb:	48 29 cd             	sub    rbp,rcx
4fbe:	4c 89 c6             	mov    rsi,r8
4fc1:	48 89 f9             	mov    rcx,rdi
4fc4:	48 89 e8             	mov    rax,rbp
4fc7:	44 89 f7             	mov    edi,r14d
4fca:	49 89 d7             	mov    r15,rdx
4fcd:	48 c1 f8 3f          	sar    rax,0x3f
4fd1:	48 c1 e8 33          	shr    rax,0x33
4fd5:	48 01 c5             	add    rbp,rax
4fd8:	81 e5 ff 1f 00 00    	and    ebp,0x1fff
4fde:	48 29 c5             	sub    rbp,rax
4fe1:	b8 00 20 00 00       	mov    eax,0x2000
4fe6:	48 0f 44 e8          	cmove  rbp,rax
4fea:	31 d2                	xor    edx,edx
4fec:	48 29 ee             	sub    rsi,rbp
4fef:	49 89 f5             	mov    r13,rsi
4ff2:	e8 a9 fe ff ff       	call   4ea0 <xlseek>
4ff7:	48 89 ea             	mov    rdx,rbp
4ffa:	48 89 de             	mov    rsi,rbx
4ffd:	44 89 f7             	mov    edi,r14d
5000:	e8 0b 4e 00 00       	call   9e10 <safe_read>
5005:	48 83 f8 ff          	cmp    rax,0xffffffffffffffff
5009:	49 89 c4             	mov    r12,rax
500c:	0f 84 2e 01 00 00    	je     5140 <file_lines+0x1d0>
5012:	48 8b 34 24          	mov    rsi,QWORD PTR [rsp]
5016:	49 8d 44 05 00       	lea    rax,[r13+rax*1+0x0]
501b:	4d 85 e4             	test   r12,r12
501e:	48 89 06             	mov    QWORD PTR [rsi],rax
5021:	74 4f                	je     5072 <file_lines+0x102>
5023:	0f b6 05 ea b0 20 00 	movzx  eax,BYTE PTR [rip+0x20b0ea]        # 210114 <line_end>
502a:	42 38 44 24 1f       	cmp    BYTE PTR [rsp+r12*1+0x1f],al
502f:	0f 95 c0             	setne  al
5032:	0f b6 c0             	movzx  eax,al
5035:	49 29 c7             	sub    r15,rax
5038:	0f be 2d d5 b0 20 00 	movsx  ebp,BYTE PTR [rip+0x20b0d5]        # 210114 <line_end>
503f:	4c 89 e2             	mov    rdx,r12
5042:	eb 1f                	jmp    5063 <file_lines+0xf3>
5044:	0f 1f 40 00          	nop    DWORD PTR [rax+0x0]
5048:	48 89 c2             	mov    rdx,rax
504b:	49 8d 4f ff          	lea    rcx,[r15-0x1]
504f:	48 29 da             	sub    rdx,rbx
5052:	4d 85 ff             	test   r15,r15
5055:	0f 84 a5 00 00 00    	je     5100 <file_lines+0x190>
505b:	48 85 d2             	test   rdx,rdx
505e:	49 89 cf             	mov    r15,rcx
5061:	74 0f                	je     5072 <file_lines+0x102>
5063:	89 ee                	mov    esi,ebp
5065:	48 89 df             	mov    rdi,rbx
5068:	e8 03 ce ff ff       	call   1e70 <memrchr@plt>
506d:	48 85 c0             	test   rax,rax
5070:	75 d6                	jne    5048 <file_lines+0xd8>
5072:	4c 3b 6c 24 10       	cmp    r13,QWORD PTR [rsp+0x10]
5077:	0f 84 08 01 00 00    	je     5185 <file_lines+0x215>
507d:	48 8b 4c 24 08       	mov    rcx,QWORD PTR [rsp+0x8]
5082:	49 81 ed 00 20 00 00 	sub    r13,0x2000
5089:	31 d2                	xor    edx,edx
508b:	4c 89 ee             	mov    rsi,r13
508e:	44 89 f7             	mov    edi,r14d
5091:	e8 0a fe ff ff       	call   4ea0 <xlseek>
5096:	ba 00 20 00 00       	mov    edx,0x2000
509b:	48 89 de             	mov    rsi,rbx
509e:	44 89 f7             	mov    edi,r14d
50a1:	e8 6a 4d 00 00       	call   9e10 <safe_read>
50a6:	48 83 f8 ff          	cmp    rax,0xffffffffffffffff
50aa:	49 89 c4             	mov    r12,rax
50ad:	0f 84 8d 00 00 00    	je     5140 <file_lines+0x1d0>
50b3:	48 8b 3c 24          	mov    rdi,QWORD PTR [rsp]
50b7:	49 8d 44 05 00       	lea    rax,[r13+rax*1+0x0]
50bc:	4d 85 e4             	test   r12,r12
50bf:	48 89 07             	mov    QWORD PTR [rdi],rax
50c2:	0f 85 70 ff ff ff    	jne    5038 <file_lines+0xc8>
50c8:	0f 1f 84 00 00 00 00 	nop    DWORD PTR [rax+rax*1+0x0]
50cf:	00
50d0:	b8 01 00 00 00       	mov    eax,0x1
50d5:	48 8b bc 24 28 20 00 	mov    rdi,QWORD PTR [rsp+0x2028]
50dc:	00
50dd:	64 48 33 3c 25 28 00 	xor    rdi,QWORD PTR fs:0x28
50e4:	00 00
50e6:	0f 85 d4 00 00 00    	jne    51c0 <file_lines+0x250>
50ec:	48 81 c4 38 20 00 00 	add    rsp,0x2038
50f3:	5b                   	pop    rbx
50f4:	5d                   	pop    rbp
50f5:	41 5c                	pop    r12
50f7:	41 5d                	pop    r13
50f9:	41 5e                	pop    r14
50fb:	41 5f                	pop    r15
50fd:	c3                   	ret
50fe:	66 90                	xchg   ax,ax
5100:	49 8d 74 24 ff       	lea    rsi,[r12-0x1]
5105:	48 39 d6             	cmp    rsi,rdx
5108:	74 0c                	je     5116 <file_lines+0x1a6>
510a:	48 8d 78 01          	lea    rdi,[rax+0x1]
510e:	48 29 d6             	sub    rsi,rdx
5111:	e8 7a f9 ff ff       	call   4a90 <xwrite_stdout.part.10>
5116:	48 8b 4c 24 18       	mov    rcx,QWORD PTR [rsp+0x18]
511b:	48 8b 74 24 08       	mov    rsi,QWORD PTR [rsp+0x8]
5120:	44 89 f2             	mov    edx,r14d
5123:	31 ff                	xor    edi,edi
5125:	4c 29 e1             	sub    rcx,r12
5128:	4c 29 e9             	sub    rcx,r13
512b:	e8 20 fb ff ff       	call   4c50 <dump_remainder>
5130:	48 8b 1c 24          	mov    rbx,QWORD PTR [rsp]
5134:	48 01 03             	add    QWORD PTR [rbx],rax
5137:	b8 01 00 00 00       	mov    eax,0x1
513c:	eb 97                	jmp    50d5 <file_lines+0x165>
513e:	66 90                	xchg   ax,ax
5140:	48 8b 74 24 08       	mov    rsi,QWORD PTR [rsp+0x8]
5145:	bf 04 00 00 00       	mov    edi,0x4
514a:	e8 d1 49 00 00       	call   9b20 <quotearg_style>
514f:	48 8d 35 f1 64 00 00 	lea    rsi,[rip+0x64f1]        # b647 <_IO_stdin_used+0x47>
5156:	ba 05 00 00 00       	mov    edx,0x5
515b:	31 ff                	xor    edi,edi
515d:	48 89 c5             	mov    rbp,rax
5160:	e8 6b ca ff ff       	call   1bd0 <dcgettext@plt>
5165:	48 89 c3             	mov    rbx,rax
5168:	e8 a3 c9 ff ff       	call   1b10 <__errno_location@plt>
516d:	8b 30                	mov    esi,DWORD PTR [rax]
516f:	48 89 e9             	mov    rcx,rbp
5172:	31 c0                	xor    eax,eax
5174:	48 89 da             	mov    rdx,rbx
5177:	31 ff                	xor    edi,edi
5179:	e8 e2 cc ff ff       	call   1e60 <error@plt>
517e:	31 c0                	xor    eax,eax
5180:	e9 50 ff ff ff       	jmp    50d5 <file_lines+0x165>
5185:	48 8b 5c 24 08       	mov    rbx,QWORD PTR [rsp+0x8]
518a:	4c 89 ee             	mov    rsi,r13
518d:	31 d2                	xor    edx,edx
518f:	44 89 f7             	mov    edi,r14d
5192:	48 89 d9             	mov    rcx,rbx
5195:	e8 06 fd ff ff       	call   4ea0 <xlseek>
519a:	48 8b 4c 24 18       	mov    rcx,QWORD PTR [rsp+0x18]
519f:	44 89 f2             	mov    edx,r14d
51a2:	48 89 de             	mov    rsi,rbx
51a5:	31 ff                	xor    edi,edi
51a7:	e8 a4 fa ff ff       	call   4c50 <dump_remainder>
51ac:	49 01 c5             	add    r13,rax
51af:	48 8b 04 24          	mov    rax,QWORD PTR [rsp]
51b3:	4c 89 28             	mov    QWORD PTR [rax],r13
51b6:	b8 01 00 00 00       	mov    eax,0x1
51bb:	e9 15 ff ff ff       	jmp    50d5 <file_lines+0x165>
51c0:	e8 4b ca ff ff       	call   1c10 <__stack_chk_fail@plt>
51c5:	90                   	nop
51c6:	66 2e 0f 1f 84 00 00 	nop    WORD PTR cs:[rax+rax*1+0x0]
51cd:	00 00 00

00000000000051d0 <check_fspec>:
51d0:	41 56                	push   r14
51d2:	41 55                	push   r13
51d4:	41 54                	push   r12
51d6:	55                   	push   rbp
51d7:	53                   	push   rbx
51d8:	48 81 ec a0 00 00 00 	sub    rsp,0xa0
51df:	64 48 8b 04 25 28 00 	mov    rax,QWORD PTR fs:0x28
51e6:	00 00
51e8:	48 89 84 24 98 00 00 	mov    QWORD PTR [rsp+0x98],rax
51ef:	00
51f0:	31 c0                	xor    eax,eax
51f2:	83 7f 38 ff          	cmp    DWORD PTR [rdi+0x38],0xffffffff
51f6:	75 28                	jne    5220 <check_fspec+0x50>
51f8:	48 8b 84 24 98 00 00 	mov    rax,QWORD PTR [rsp+0x98]
51ff:	00
5200:	64 48 33 04 25 28 00 	xor    rax,QWORD PTR fs:0x28
5207:	00 00
5209:	0f 85 83 01 00 00    	jne    5392 <check_fspec+0x1c2>
520f:	48 81 c4 a0 00 00 00 	add    rsp,0xa0
5216:	5b                   	pop    rbx
5217:	5d                   	pop    rbp
5218:	41 5c                	pop    r12
521a:	41 5d                	pop    r13
521c:	41 5e                	pop    r14
521e:	c3                   	ret
521f:	90                   	nop
5220:	48 89 fb             	mov    rbx,rdi
5223:	48 8b 3f             	mov    rdi,QWORD PTR [rdi]
5226:	49 89 f4             	mov    r12,rsi
5229:	e8 b2 f7 ff ff       	call   49e0 <pretty_name.isra.7>
522e:	8b 73 38             	mov    esi,DWORD PTR [rbx+0x38]
5231:	48 89 e2             	mov    rdx,rsp
5234:	bf 01 00 00 00       	mov    edi,0x1
5239:	49 89 c5             	mov    r13,rax
523c:	e8 bf cb ff ff       	call   1e00 <__fxstat@plt>
5241:	85 c0                	test   eax,eax
5243:	89 c5                	mov    ebp,eax
5245:	0f 85 95 00 00 00    	jne    52e0 <check_fspec+0x110>
524b:	8b 43 30             	mov    eax,DWORD PTR [rbx+0x30]
524e:	25 00 f0 00 00       	and    eax,0xf000
5253:	3d 00 80 00 00       	cmp    eax,0x8000
5258:	0f 84 aa 00 00 00    	je     5308 <check_fspec+0x138>
525e:	80 3d b0 ae 20 00 00 	cmp    BYTE PTR [rip+0x20aeb0],0x0        # 210115 <print_headers>
5265:	74 0a                	je     5271 <check_fspec+0xa1>
5267:	31 ed                	xor    ebp,ebp
5269:	49 39 1c 24          	cmp    QWORD PTR [r12],rbx
526d:	40 0f 95 c5          	setne  bpl
5271:	8b 53 38             	mov    edx,DWORD PTR [rbx+0x38]
5274:	48 c7 c1 ff ff ff ff 	mov    rcx,0xffffffffffffffff
527b:	4c 89 ee             	mov    rsi,r13
527e:	89 ef                	mov    edi,ebp
5280:	e8 cb f9 ff ff       	call   4c50 <dump_remainder>
5285:	48 01 43 08          	add    QWORD PTR [rbx+0x8],rax
5289:	48 85 c0             	test   rax,rax
528c:	0f 84 66 ff ff ff    	je     51f8 <check_fspec+0x28>
5292:	48 8b 3d 2f ae 20 00 	mov    rdi,QWORD PTR [rip+0x20ae2f]        # 2100c8 <stdout@@GLIBC_2.2.5>
5299:	49 89 1c 24          	mov    QWORD PTR [r12],rbx
529d:	e8 4e cc ff ff       	call   1ef0 <fflush_unlocked@plt>
52a2:	85 c0                	test   eax,eax
52a4:	0f 84 4e ff ff ff    	je     51f8 <check_fspec+0x28>
52aa:	48 8d 35 e5 63 00 00 	lea    rsi,[rip+0x63e5]        # b696 <_IO_stdin_used+0x96>
52b1:	ba 05 00 00 00       	mov    edx,0x5
52b6:	31 ff                	xor    edi,edi
52b8:	e8 13 c9 ff ff       	call   1bd0 <dcgettext@plt>
52bd:	48 89 c3             	mov    rbx,rax
52c0:	e8 4b c8 ff ff       	call   1b10 <__errno_location@plt>
52c5:	8b 30                	mov    esi,DWORD PTR [rax]
52c7:	48 89 da             	mov    rdx,rbx
52ca:	bf 01 00 00 00       	mov    edi,0x1
52cf:	31 c0                	xor    eax,eax
52d1:	e8 8a cb ff ff       	call   1e60 <error@plt>
52d6:	66 2e 0f 1f 84 00 00 	nop    WORD PTR cs:[rax+rax*1+0x0]
52dd:	00 00 00
52e0:	e8 2b c8 ff ff       	call   1b10 <__errno_location@plt>
52e5:	8b 00                	mov    eax,DWORD PTR [rax]
52e7:	8b 7b 38             	mov    edi,DWORD PTR [rbx+0x38]
52ea:	4c 89 ee             	mov    rsi,r13
52ed:	89 43 3c             	mov    DWORD PTR [rbx+0x3c],eax
52f0:	e8 2b f7 ff ff       	call   4a20 <close_fd>
52f5:	c7 43 38 ff ff ff ff 	mov    DWORD PTR [rbx+0x38],0xffffffff
52fc:	e9 f7 fe ff ff       	jmp    51f8 <check_fspec+0x28>
5301:	0f 1f 80 00 00 00 00 	nop    DWORD PTR [rax+0x0]
5308:	48 8b 43 08          	mov    rax,QWORD PTR [rbx+0x8]
530c:	48 39 44 24 30       	cmp    QWORD PTR [rsp+0x30],rax
5311:	7c 2d                	jl     5340 <check_fspec+0x170>
5313:	0f 85 45 ff ff ff    	jne    525e <check_fspec+0x8e>
5319:	48 8b 43 10          	mov    rax,QWORD PTR [rbx+0x10]
531d:	48 39 44 24 58       	cmp    QWORD PTR [rsp+0x58],rax
5322:	0f 85 36 ff ff ff    	jne    525e <check_fspec+0x8e>
5328:	8b 44 24 60          	mov    eax,DWORD PTR [rsp+0x60]
532c:	39 43 18             	cmp    DWORD PTR [rbx+0x18],eax
532f:	0f 85 29 ff ff ff    	jne    525e <check_fspec+0x8e>
5335:	e9 be fe ff ff       	jmp    51f8 <check_fspec+0x28>
533a:	66 0f 1f 44 00 00    	nop    WORD PTR [rax+rax*1+0x0]
5340:	4c 89 ea             	mov    rdx,r13
5343:	be 03 00 00 00       	mov    esi,0x3
5348:	31 ff                	xor    edi,edi
534a:	e8 d1 48 00 00       	call   9c20 <quotearg_n_style_colon>
534f:	48 8d 35 2d 63 00 00 	lea    rsi,[rip+0x632d]        # b683 <_IO_stdin_used+0x83>
5356:	49 89 c6             	mov    r14,rax
5359:	ba 05 00 00 00       	mov    edx,0x5
535e:	31 ff                	xor    edi,edi
5360:	e8 6b c8 ff ff       	call   1bd0 <dcgettext@plt>
5365:	4c 89 f1             	mov    rcx,r14
5368:	48 89 c2             	mov    rdx,rax
536b:	31 f6                	xor    esi,esi
536d:	31 ff                	xor    edi,edi
536f:	31 c0                	xor    eax,eax
5371:	e8 ea ca ff ff       	call   1e60 <error@plt>
5376:	8b 7b 38             	mov    edi,DWORD PTR [rbx+0x38]
5379:	4c 89 e9             	mov    rcx,r13
537c:	31 d2                	xor    edx,edx
537e:	31 f6                	xor    esi,esi
5380:	e8 1b fb ff ff       	call   4ea0 <xlseek>
5385:	48 c7 43 08 00 00 00 	mov    QWORD PTR [rbx+0x8],0x0
538c:	00
538d:	e9 cc fe ff ff       	jmp    525e <check_fspec+0x8e>
5392:	e8 79 c8 ff ff       	call   1c10 <__stack_chk_fail@plt>
5397:	66 0f 1f 84 00 00 00 	nop    WORD PTR [rax+rax*1+0x0]
539e:	00 00

00000000000053a0 <fremote>:
53a0:	41 54                	push   r12
53a2:	55                   	push   rbp
53a3:	48 89 f5             	mov    rbp,rsi
53a6:	53                   	push   rbx
53a7:	48 83 c4 80          	add    rsp,0xffffffffffffff80
53ab:	48 89 e6             	mov    rsi,rsp
53ae:	64 48 8b 04 25 28 00 	mov    rax,QWORD PTR fs:0x28
53b5:	00 00
53b7:	48 89 44 24 78       	mov    QWORD PTR [rsp+0x78],rax
53bc:	31 c0                	xor    eax,eax
53be:	e8 dd ca ff ff       	call   1ea0 <fstatfs@plt>
53c3:	85 c0                	test   eax,eax
53c5:	74 39                	je     5400 <fremote+0x60>
53c7:	e8 44 c7 ff ff       	call   1b10 <__errno_location@plt>
53cc:	83 38 26             	cmp    DWORD PTR [rax],0x26
53cf:	49 89 c4             	mov    r12,rax
53d2:	bb 01 00 00 00       	mov    ebx,0x1
53d7:	0f 85 93 00 00 00    	jne    5470 <fremote+0xd0>
53dd:	48 8b 4c 24 78       	mov    rcx,QWORD PTR [rsp+0x78]
53e2:	64 48 33 0c 25 28 00 	xor    rcx,QWORD PTR fs:0x28
53e9:	00 00
53eb:	89 d8                	mov    eax,ebx
53ed:	0f 85 94 06 00 00    	jne    5a87 <fremote+0x6e7>
53f3:	48 83 ec 80          	sub    rsp,0xffffffffffffff80
53f7:	5b                   	pop    rbx
53f8:	5d                   	pop    rbp
53f9:	41 5c                	pop    r12
53fb:	c3                   	ret
53fc:	0f 1f 40 00          	nop    DWORD PTR [rax+0x0]
5400:	48 8b 04 24          	mov    rax,QWORD PTR [rsp]
5404:	48 3d 02 02 80 19    	cmp    rax,0x19800202
540a:	74 54                	je     5460 <fremote+0xc0>
540c:	0f 8f 9e 00 00 00    	jg     54b0 <fremote+0x110>
5412:	48 3d 60 96 00 00    	cmp    rax,0x9660
5418:	74 46                	je     5460 <fremote+0xc0>
541a:	0f 8f 40 01 00 00    	jg     5560 <fremote+0x1c0>
5420:	48 3d 34 34 00 00    	cmp    rax,0x3434
5426:	74 38                	je     5460 <fremote+0xc0>
5428:	0f 8f 8a 01 00 00    	jg     55b8 <fremote+0x218>
542e:	48 3d 7d 13 00 00    	cmp    rax,0x137d
5434:	74 2a                	je     5460 <fremote+0xc0>
5436:	0f 8e b4 03 00 00    	jle    57f0 <fremote+0x450>
543c:	48 3d d1 1c 00 00    	cmp    rax,0x1cd1
5442:	74 1c                	je     5460 <fremote+0xc0>
5444:	0f 8f 76 04 00 00    	jg     58c0 <fremote+0x520>
544a:	48 3d 7f 13 00 00    	cmp    rax,0x137f
5450:	74 0e                	je     5460 <fremote+0xc0>
5452:	48 3d 8f 13 00 00    	cmp    rax,0x138f
5458:	0f 85 32 02 00 00    	jne    5690 <fremote+0x2f0>
545e:	66 90                	xchg   ax,ax
5460:	31 db                	xor    ebx,ebx
5462:	e9 76 ff ff ff       	jmp    53dd <fremote+0x3d>
5467:	66 0f 1f 84 00 00 00 	nop    WORD PTR [rax+rax*1+0x0]
546e:	00 00
5470:	48 89 ee             	mov    rsi,rbp
5473:	bf 04 00 00 00       	mov    edi,0x4
5478:	e8 a3 46 00 00       	call   9b20 <quotearg_style>
547d:	48 8d 35 cc 65 00 00 	lea    rsi,[rip+0x65cc]        # ba50 <_IO_stdin_used+0x450>
5484:	31 ff                	xor    edi,edi
5486:	ba 05 00 00 00       	mov    edx,0x5
548b:	48 89 c5             	mov    rbp,rax
548e:	e8 3d c7 ff ff       	call   1bd0 <dcgettext@plt>
5493:	41 8b 34 24          	mov    esi,DWORD PTR [r12]
5497:	48 89 c2             	mov    rdx,rax
549a:	48 89 e9             	mov    rcx,rbp
549d:	31 ff                	xor    edi,edi
549f:	31 c0                	xor    eax,eax
54a1:	e8 ba c9 ff ff       	call   1e60 <error@plt>
54a6:	e9 32 ff ff ff       	jmp    53dd <fremote+0x3d>
54ab:	0f 1f 44 00 00       	nop    DWORD PTR [rax+rax*1+0x0]
54b0:	48 3d 6c 67 65 61    	cmp    rax,0x6165676c
54b6:	74 a8                	je     5460 <fremote+0xc0>
54b8:	7e 4e                	jle    5508 <fremote+0x168>
54ba:	48 3d 79 72 72 73    	cmp    rax,0x73727279
54c0:	74 9e                	je     5460 <fremote+0xc0>
54c2:	0f 8f 38 01 00 00    	jg     5600 <fremote+0x260>
54c8:	48 3d 78 61 64 64    	cmp    rax,0x64646178
54ce:	74 90                	je     5460 <fremote+0xc0>
54d0:	0f 8f 0a 02 00 00    	jg     56e0 <fremote+0x340>
54d6:	48 3d 72 65 65 62    	cmp    rax,0x62656572
54dc:	74 82                	je     5460 <fremote+0xc0>
54de:	0f 8f 9c 03 00 00    	jg     5880 <fremote+0x4e0>
54e4:	48 3d 76 65 64 62    	cmp    rax,0x62646576
54ea:	0f 84 70 ff ff ff    	je     5460 <fremote+0xc0>
54f0:	48 3d 70 65 65 62    	cmp    rax,0x62656570
54f6:	0f 85 94 01 00 00    	jne    5690 <fremote+0x2f0>
54fc:	31 db                	xor    ebx,ebx
54fe:	e9 da fe ff ff       	jmp    53dd <fremote+0x3d>
5503:	0f 1f 44 00 00       	nop    DWORD PTR [rax+rax*1+0x0]
5508:	48 3d 53 46 58 45    	cmp    rax,0x45584653
550e:	0f 84 4c ff ff ff    	je     5460 <fremote+0xc0>
5514:	0f 8f 36 01 00 00    	jg     5650 <fremote+0x2b0>
551a:	48 3d c1 2f c1 2f    	cmp    rax,0x2fc12fc1
5520:	0f 84 3a ff ff ff    	je     5460 <fremote+0xc0>
5526:	0f 8e 1c 02 00 00    	jle    5748 <fremote+0x3a8>
552c:	48 3d 4d 4e 49 42    	cmp    rax,0x42494e4d
5532:	0f 84 28 ff ff ff    	je     5460 <fremote+0xc0>
5538:	0f 8f 72 04 00 00    	jg     59b0 <fremote+0x610>
553e:	48 3d 4a 46 53 31    	cmp    rax,0x3153464a
5544:	0f 84 16 ff ff ff    	je     5460 <fremote+0xc0>
554a:	48 3d 31 53 46 42    	cmp    rax,0x42465331
5550:	0f 85 3a 01 00 00    	jne    5690 <fremote+0x2f0>
5556:	31 db                	xor    ebx,ebx
5558:	e9 80 fe ff ff       	jmp    53dd <fremote+0x3d>
555d:	0f 1f 00             	nop    DWORD PTR [rax]
5560:	48 3d ee ff c0 00    	cmp    rax,0xc0ffee
5566:	0f 84 f4 fe ff ff    	je     5460 <fremote+0xc0>
556c:	0f 8f 2e 01 00 00    	jg     56a0 <fremote+0x300>
5572:	48 3d 51 ef 00 00    	cmp    rax,0xef51
5578:	0f 84 e2 fe ff ff    	je     5460 <fremote+0xc0>
557e:	0f 8e cc 02 00 00    	jle    5850 <fremote+0x4b0>
5584:	48 3d 54 19 01 00    	cmp    rax,0x11954
558a:	0f 84 d0 fe ff ff    	je     5460 <fremote+0xc0>
5590:	0f 8f 72 03 00 00    	jg     5908 <fremote+0x568>
5596:	48 3d 53 ef 00 00    	cmp    rax,0xef53
559c:	0f 84 be fe ff ff    	je     5460 <fremote+0xc0>
55a2:	48 3d 5f f1 00 00    	cmp    rax,0xf15f
55a8:	0f 85 e2 00 00 00    	jne    5690 <fremote+0x2f0>
55ae:	31 db                	xor    ebx,ebx
55b0:	e9 28 fe ff ff       	jmp    53dd <fremote+0x3d>
55b5:	0f 1f 00             	nop    DWORD PTR [rax]
55b8:	48 3d 58 48 00 00    	cmp    rax,0x4858
55be:	0f 84 9c fe ff ff    	je     5460 <fremote+0xc0>
55c4:	0f 8f 4e 02 00 00    	jg     5818 <fremote+0x478>
55ca:	48 3d 06 40 00 00    	cmp    rax,0x4006
55d0:	0f 84 8a fe ff ff    	je     5460 <fremote+0xc0>
55d6:	0f 8f c4 02 00 00    	jg     58a0 <fremote+0x500>
55dc:	48 3d 00 40 00 00    	cmp    rax,0x4000
55e2:	0f 84 78 fe ff ff    	je     5460 <fremote+0xc0>
55e8:	48 3d 04 40 00 00    	cmp    rax,0x4004
55ee:	0f 85 9c 00 00 00    	jne    5690 <fremote+0x2f0>
55f4:	31 db                	xor    ebx,ebx
55f6:	e9 e2 fd ff ff       	jmp    53dd <fremote+0x3d>
55fb:	0f 1f 44 00 00       	nop    DWORD PTR [rax+rax*1+0x0]
5600:	ba 68 81 7e c9       	mov    edx,0xc97e8168
5605:	48 39 d0             	cmp    rax,rdx
5608:	0f 84 52 fe ff ff    	je     5460 <fremote+0xc0>
560e:	0f 8f 94 01 00 00    	jg     57a8 <fremote+0x408>
5614:	48 81 ea 2a 19 5b 38 	sub    rdx,0x385b192a
561b:	48 39 d0             	cmp    rax,rdx
561e:	0f 84 3c fe ff ff    	je     5460 <fremote+0xc0>
5624:	48 39 d0             	cmp    rax,rdx
5627:	0f 8f b3 02 00 00    	jg     58e0 <fremote+0x540>
562d:	48 3d 63 61 72 74    	cmp    rax,0x74726163
5633:	0f 84 27 fe ff ff    	je     5460 <fremote+0xc0>
5639:	48 81 ea 48 0f 9f 0b 	sub    rdx,0xb9f0f48
5640:	48 39 d0             	cmp    rax,rdx
5643:	75 4b                	jne    5690 <fremote+0x2f0>
5645:	31 db                	xor    ebx,ebx
5647:	e9 91 fd ff ff       	jmp    53dd <fremote+0x3d>
564c:	0f 1f 40 00          	nop    DWORD PTR [rax+0x0]
5650:	48 3d 00 01 19 54    	cmp    rax,0x54190100
5656:	0f 84 04 fe ff ff    	je     5460 <fremote+0xc0>
565c:	0f 8f ae 00 00 00    	jg     5710 <fremote+0x370>
5662:	48 3d 46 48 46 53    	cmp    rax,0x53464846
5668:	0f 84 f2 fd ff ff    	je     5460 <fremote+0xc0>
566e:	0f 8f dc 02 00 00    	jg     5950 <fremote+0x5b0>
5674:	48 3d 73 49 65 52    	cmp    rax,0x52654973
567a:	0f 84 e0 fd ff ff    	je     5460 <fremote+0xc0>
5680:	48 3d 4d 31 46 53    	cmp    rax,0x5346314d
5686:	0f 84 d4 fd ff ff    	je     5460 <fremote+0xc0>
568c:	0f 1f 40 00          	nop    DWORD PTR [rax+0x0]
5690:	bb 01 00 00 00       	mov    ebx,0x1
5695:	e9 43 fd ff ff       	jmp    53dd <fremote+0x3d>
569a:	66 0f 1f 44 00 00    	nop    WORD PTR [rax+rax*1+0x0]
56a0:	48 3d 21 58 65 07    	cmp    rax,0x7655821
56a6:	0f 84 b4 fd ff ff    	je     5460 <fremote+0xc0>
56ac:	0f 8e be 00 00 00    	jle    5770 <fremote+0x3d0>
56b2:	48 3d 54 78 30 11    	cmp    rax,0x11307854
56b8:	0f 84 a2 fd ff ff    	je     5460 <fremote+0xc0>
56be:	0f 8f 2c 03 00 00    	jg     59f0 <fremote+0x650>
56c4:	48 3d 34 19 04 09    	cmp    rax,0x9041934
56ca:	0f 84 90 fd ff ff    	je     5460 <fremote+0xc0>
56d0:	48 3d ea 1d ad 0b    	cmp    rax,0xbad1dea
56d6:	75 b8                	jne    5690 <fremote+0x2f0>
56d8:	31 db                	xor    ebx,ebx
56da:	e9 fe fc ff ff       	jmp    53dd <fremote+0x3d>
56df:	90                   	nop
56e0:	48 3d 73 66 73 6e    	cmp    rax,0x6e736673
56e6:	0f 84 74 fd ff ff    	je     5460 <fremote+0xc0>
56ec:	0f 8f 7e 02 00 00    	jg     5970 <fremote+0x5d0>
56f2:	48 3d 69 69 59 67    	cmp    rax,0x67596969
56f8:	0f 84 62 fd ff ff    	je     5460 <fremote+0xc0>
56fe:	48 3d 22 11 19 68    	cmp    rax,0x68191122
5704:	75 8a                	jne    5690 <fremote+0x2f0>
5706:	31 db                	xor    ebx,ebx
5708:	e9 d0 fc ff ff       	jmp    53dd <fremote+0x3d>
570d:	0f 1f 00             	nop    DWORD PTR [rax]
5710:	48 3d 42 53 46 58    	cmp    rax,0x58465342
5716:	0f 84 44 fd ff ff    	je     5460 <fremote+0xc0>
571c:	0f 8f ae 02 00 00    	jg     59d0 <fremote+0x630>
5722:	48 3d 53 46 5a 56    	cmp    rax,0x565a4653
5728:	0f 84 32 fd ff ff    	je     5460 <fremote+0xc0>
572e:	48 3d 29 58 29 58    	cmp    rax,0x58295829
5734:	0f 85 56 ff ff ff    	jne    5690 <fremote+0x2f0>
573a:	31 db                	xor    ebx,ebx
573c:	e9 9c fc ff ff       	jmp    53dd <fremote+0x3d>
5741:	0f 1f 80 00 00 00 00 	nop    DWORD PTR [rax+0x0]
5748:	48 3d 05 19 05 24    	cmp    rax,0x24051905
574e:	0f 84 0c fd ff ff    	je     5460 <fremote+0xc0>
5754:	0f 8f d6 01 00 00    	jg     5930 <fremote+0x590>
575a:	48 3d ce fa ad 1b    	cmp    rax,0x1badface
5760:	0f 85 2a ff ff ff    	jne    5690 <fremote+0x2f0>
5766:	31 db                	xor    ebx,ebx
5768:	e9 70 fc ff ff       	jmp    53dd <fremote+0x3d>
576d:	0f 1f 00             	nop    DWORD PTR [rax]
5770:	48 3d 6d d1 2f 01    	cmp    rax,0x12fd16d
5776:	0f 84 e4 fc ff ff    	je     5460 <fremote+0xc0>
577c:	0f 8f ee 02 00 00    	jg     5a70 <fremote+0x6d0>
5782:	48 3d 94 19 02 01    	cmp    rax,0x1021994
5788:	0f 84 d2 fc ff ff    	je     5460 <fremote+0xc0>
578e:	48 3d 97 19 02 01    	cmp    rax,0x1021997
5794:	0f 85 f6 fe ff ff    	jne    5690 <fremote+0x2f0>
579a:	31 db                	xor    ebx,ebx
579c:	e9 3c fc ff ff       	jmp    53dd <fremote+0x3d>
57a1:	0f 1f 80 00 00 00 00 	nop    DWORD PTR [rax+0x0]
57a8:	ba 10 20 f5 f2       	mov    edx,0xf2f52010
57ad:	48 39 d0             	cmp    rax,rdx
57b0:	0f 84 aa fc ff ff    	je     5460 <fremote+0xc0>
57b6:	48 39 d0             	cmp    rax,rdx
57b9:	0f 8f 69 02 00 00    	jg     5a28 <fremote+0x688>
57bf:	48 81 ea ff d5 f6 27 	sub    rdx,0x27f6d5ff
57c6:	48 39 d0             	cmp    rax,rdx
57c9:	0f 84 91 fc ff ff    	je     5460 <fremote+0xc0>
57cf:	48 81 c2 d3 37 60 13 	add    rdx,0x136037d3
57d6:	48 39 d0             	cmp    rax,rdx
57d9:	0f 85 b1 fe ff ff    	jne    5690 <fremote+0x2f0>
57df:	31 db                	xor    ebx,ebx
57e1:	e9 f7 fb ff ff       	jmp    53dd <fremote+0x3d>
57e6:	66 2e 0f 1f 84 00 00 	nop    WORD PTR cs:[rax+rax*1+0x0]
57ed:	00 00 00
57f0:	48 3d 87 01 00 00    	cmp    rax,0x187
57f6:	0f 84 64 fc ff ff    	je     5460 <fremote+0xc0>
57fc:	0f 8f 8e 01 00 00    	jg     5990 <fremote+0x5f0>
5802:	48 83 f8 2f          	cmp    rax,0x2f
5806:	0f 85 84 fe ff ff    	jne    5690 <fremote+0x2f0>
580c:	31 db                	xor    ebx,ebx
580e:	e9 ca fb ff ff       	jmp    53dd <fremote+0x3d>
5813:	0f 1f 44 00 00       	nop    DWORD PTR [rax+rax*1+0x0]
5818:	48 3d f5 5d 00 00    	cmp    rax,0x5df5
581e:	0f 84 3c fc ff ff    	je     5460 <fremote+0xc0>
5824:	0f 8f 26 02 00 00    	jg     5a50 <fremote+0x6b0>
582a:	48 3d 44 4d 00 00    	cmp    rax,0x4d44
5830:	0f 84 2a fc ff ff    	je     5460 <fremote+0xc0>
5836:	48 3d 5a 4d 00 00    	cmp    rax,0x4d5a
583c:	0f 85 4e fe ff ff    	jne    5690 <fremote+0x2f0>
5842:	31 db                	xor    ebx,ebx
5844:	e9 94 fb ff ff       	jmp    53dd <fremote+0x3d>
5849:	0f 1f 80 00 00 00 00 	nop    DWORD PTR [rax+0x0]
5850:	48 3d f5 ad 00 00    	cmp    rax,0xadf5
5856:	0f 84 04 fc ff ff    	je     5460 <fremote+0xc0>
585c:	0f 8f ae 01 00 00    	jg     5a10 <fremote+0x670>
5862:	48 2d a0 9f 00 00    	sub    rax,0x9fa0
5868:	48 83 f8 02          	cmp    rax,0x2
586c:	0f 87 1e fe ff ff    	ja     5690 <fremote+0x2f0>
5872:	31 db                	xor    ebx,ebx
5874:	e9 64 fb ff ff       	jmp    53dd <fremote+0x3d>
5879:	0f 1f 80 00 00 00 00 	nop    DWORD PTR [rax+0x0]
5880:	48 3d 70 72 67 63    	cmp    rax,0x63677270
5886:	0f 84 d4 fb ff ff    	je     5460 <fremote+0xc0>
588c:	48 3d 20 67 62 64    	cmp    rax,0x64626720
5892:	0f 85 f8 fd ff ff    	jne    5690 <fremote+0x2f0>
5898:	31 db                	xor    ebx,ebx
589a:	e9 3e fb ff ff       	jmp    53dd <fremote+0x3d>
589f:	90                   	nop
58a0:	48 3d 44 42 00 00    	cmp    rax,0x4244
58a6:	0f 84 b4 fb ff ff    	je     5460 <fremote+0xc0>
58ac:	48 3d 2b 48 00 00    	cmp    rax,0x482b
58b2:	0f 85 d8 fd ff ff    	jne    5690 <fremote+0x2f0>
58b8:	31 db                	xor    ebx,ebx
58ba:	e9 1e fb ff ff       	jmp    53dd <fremote+0x3d>
58bf:	90                   	nop
58c0:	48 3d 68 24 00 00    	cmp    rax,0x2468
58c6:	0f 84 94 fb ff ff    	je     5460 <fremote+0xc0>
58cc:	48 3d 78 24 00 00    	cmp    rax,0x2478
58d2:	0f 85 b8 fd ff ff    	jne    5690 <fremote+0x2f0>
58d8:	31 db                	xor    ebx,ebx
58da:	e9 fe fa ff ff       	jmp    53dd <fremote+0x3d>
58df:	90                   	nop
58e0:	ba f6 58 84 95       	mov    edx,0x958458f6
58e5:	48 39 d0             	cmp    rax,rdx
58e8:	0f 84 72 fb ff ff    	je     5460 <fremote+0xc0>
58ee:	48 81 c2 7e c0 35 16 	add    rdx,0x1635c07e
58f5:	48 39 d0             	cmp    rax,rdx
58f8:	0f 85 92 fd ff ff    	jne    5690 <fremote+0x2f0>
58fe:	31 db                	xor    ebx,ebx
5900:	e9 d8 fa ff ff       	jmp    53dd <fremote+0x3d>
5905:	0f 1f 00             	nop    DWORD PTR [rax]
5908:	48 3d eb e0 27 00    	cmp    rax,0x27e0eb
590e:	0f 84 4c fb ff ff    	je     5460 <fremote+0xc0>
5914:	48 3d 53 4a 41 00    	cmp    rax,0x414a53
591a:	0f 85 70 fd ff ff    	jne    5690 <fremote+0x2f0>
5920:	31 db                	xor    ebx,ebx
5922:	e9 b6 fa ff ff       	jmp    53dd <fremote+0x3d>
5927:	66 0f 1f 84 00 00 00 	nop    WORD PTR [rax+rax*1+0x0]
592e:	00 00
5930:	48 3d 45 3d cd 28    	cmp    rax,0x28cd3d45
5936:	0f 84 24 fb ff ff    	je     5460 <fremote+0xc0>
593c:	48 3d ea 1d ad 2b    	cmp    rax,0x2bad1dea
5942:	0f 85 48 fd ff ff    	jne    5690 <fremote+0x2f0>
5948:	31 db                	xor    ebx,ebx
594a:	e9 8e fa ff ff       	jmp    53dd <fremote+0x3d>
594f:	90                   	nop
5950:	48 3d 4e 54 46 53    	cmp    rax,0x5346544e
5956:	0f 84 04 fb ff ff    	je     5460 <fremote+0xc0>
595c:	48 3d 4b 43 4f 53    	cmp    rax,0x534f434b
5962:	0f 85 28 fd ff ff    	jne    5690 <fremote+0x2f0>
5968:	31 db                	xor    ebx,ebx
596a:	e9 6e fa ff ff       	jmp    53dd <fremote+0x3d>
596f:	90                   	nop
5970:	48 3d 73 66 63 73    	cmp    rax,0x73636673
5976:	0f 84 e4 fa ff ff    	je     5460 <fremote+0xc0>
597c:	48 3d 68 73 71 73    	cmp    rax,0x73717368
5982:	0f 85 08 fd ff ff    	jne    5690 <fremote+0x2f0>
5988:	31 db                	xor    ebx,ebx
598a:	e9 4e fa ff ff       	jmp    53dd <fremote+0x3d>
598f:	90                   	nop
5990:	48 3d c0 07 00 00    	cmp    rax,0x7c0
5996:	0f 84 c4 fa ff ff    	je     5460 <fremote+0xc0>
599c:	48 3d 73 13 00 00    	cmp    rax,0x1373
59a2:	0f 85 e8 fc ff ff    	jne    5690 <fremote+0x2f0>
59a8:	31 db                	xor    ebx,ebx
59aa:	e9 2e fa ff ff       	jmp    53dd <fremote+0x3d>
59af:	90                   	nop
59b0:	48 3d 53 5d 41 43    	cmp    rax,0x43415d53
59b6:	0f 84 a4 fa ff ff    	je     5460 <fremote+0xc0>
59bc:	48 3d 28 cd 3d 45    	cmp    rax,0x453dcd28
59c2:	0f 85 c8 fc ff ff    	jne    5690 <fremote+0x2f0>
59c8:	31 db                	xor    ebx,ebx
59ca:	e9 0e fa ff ff       	jmp    53dd <fremote+0x3d>
59cf:	90                   	nop
59d0:	48 3d f0 69 3c 5a    	cmp    rax,0x5a3c69f0
59d6:	0f 84 84 fa ff ff    	je     5460 <fremote+0xc0>
59dc:	48 3d f5 2d ca 5d    	cmp    rax,0x5dca2df5
59e2:	0f 85 a8 fc ff ff    	jne    5690 <fremote+0x2f0>
59e8:	31 db                	xor    ebx,ebx
59ea:	e9 ee f9 ff ff       	jmp    53dd <fremote+0x3d>
59ef:	90                   	nop
59f0:	48 3d 66 13 66 13    	cmp    rax,0x13661366
59f6:	0f 84 64 fa ff ff    	je     5460 <fremote+0xc0>
59fc:	48 3d 46 33 01 15    	cmp    rax,0x15013346
5a02:	0f 85 88 fc ff ff    	jne    5690 <fremote+0x2f0>
5a08:	31 db                	xor    ebx,ebx
5a0a:	e9 ce f9 ff ff       	jmp    53dd <fremote+0x3d>
5a0f:	90                   	nop
5a10:	48 3d ff ad 00 00    	cmp    rax,0xadff
5a16:	0f 85 74 fc ff ff    	jne    5690 <fremote+0x2f0>
5a1c:	31 db                	xor    ebx,ebx
5a1e:	e9 ba f9 ff ff       	jmp    53dd <fremote+0x3d>
5a23:	0f 1f 44 00 00       	nop    DWORD PTR [rax+rax*1+0x0]
5a28:	ba 8c ff 7c f9       	mov    edx,0xf97cff8c
5a2d:	48 39 d0             	cmp    rax,rdx
5a30:	0f 84 2a fa ff ff    	je     5460 <fremote+0xc0>
5a36:	48 81 c2 bd e8 18 00 	add    rdx,0x18e8bd
5a3d:	48 39 d0             	cmp    rax,rdx
5a40:	0f 85 4a fc ff ff    	jne    5690 <fremote+0x2f0>
5a46:	31 db                	xor    ebx,ebx
5a48:	e9 90 f9 ff ff       	jmp    53dd <fremote+0x3d>
5a4d:	0f 1f 00             	nop    DWORD PTR [rax]
5a50:	48 3d 75 72 00 00    	cmp    rax,0x7275
5a56:	0f 84 04 fa ff ff    	je     5460 <fremote+0xc0>
5a5c:	48 3d b6 72 00 00    	cmp    rax,0x72b6
5a62:	0f 85 28 fc ff ff    	jne    5690 <fremote+0x2f0>
5a68:	31 db                	xor    ebx,ebx
5a6a:	e9 6e f9 ff ff       	jmp    53dd <fremote+0x3d>
5a6f:	90                   	nop
5a70:	48 2d b4 f7 2f 01    	sub    rax,0x12ff7b4
5a76:	48 83 f8 03          	cmp    rax,0x3
5a7a:	0f 87 10 fc ff ff    	ja     5690 <fremote+0x2f0>
5a80:	31 db                	xor    ebx,ebx
5a82:	e9 56 f9 ff ff       	jmp    53dd <fremote+0x3d>
5a87:	e8 84 c1 ff ff       	call   1c10 <__stack_chk_fail@plt>
5a8c:	0f 1f 40 00          	nop    DWORD PTR [rax+0x0]

0000000000005a90 <recheck>:
5a90:	41 57                	push   r15
5a92:	41 56                	push   r14
5a94:	b9 02 00 00 00       	mov    ecx,0x2
5a99:	41 55                	push   r13
5a9b:	41 54                	push   r12
5a9d:	41 89 f5             	mov    r13d,esi
5aa0:	55                   	push   rbp
5aa1:	53                   	push   rbx
5aa2:	48 89 fb             	mov    rbx,rdi
5aa5:	48 81 ec b8 00 00 00 	sub    rsp,0xb8
5aac:	44 8b 73 3c          	mov    r14d,DWORD PTR [rbx+0x3c]
5ab0:	64 48 8b 04 25 28 00 	mov    rax,QWORD PTR fs:0x28
5ab7:	00 00
5ab9:	48 89 84 24 a8 00 00 	mov    QWORD PTR [rsp+0xa8],rax
5ac0:	00
5ac1:	31 c0                	xor    eax,eax
5ac3:	48 8b 07             	mov    rax,QWORD PTR [rdi]
5ac6:	48 8d 3d 22 5d 00 00 	lea    rdi,[rip+0x5d22]        # b7ef <_IO_stdin_used+0x1ef>
5acd:	48 89 c6             	mov    rsi,rax
5ad0:	f3 a6                	repz cmps BYTE PTR ds:[rsi],BYTE PTR es:[rdi]
5ad2:	0f b6 4b 36          	movzx  ecx,BYTE PTR [rbx+0x36]
5ad6:	40 0f 97 c5          	seta   bpl
5ada:	40 80 dd 00          	sbb    bpl,0x0
5ade:	40 0f be ed          	movsx  ebp,bpl
5ae2:	85 ed                	test   ebp,ebp
5ae4:	88 4c 24 07          	mov    BYTE PTR [rsp+0x7],cl
5ae8:	0f 84 12 01 00 00    	je     5c00 <recheck+0x170>
5aee:	31 f6                	xor    esi,esi
5af0:	45 84 ed             	test   r13b,r13b
5af3:	48 89 c7             	mov    rdi,rax
5af6:	40 0f 94 c6          	sete   sil
5afa:	31 c0                	xor    eax,eax
5afc:	c1 e6 0b             	shl    esi,0xb
5aff:	e8 5c 11 00 00       	call   6c60 <open_safer>
5b04:	41 89 c4             	mov    r12d,eax
5b07:	8b 43 3c             	mov    eax,DWORD PTR [rbx+0x3c]
5b0a:	83 7b 38 ff          	cmp    DWORD PTR [rbx+0x38],0xffffffff
5b0e:	0f 94 c2             	sete   dl
5b11:	85 c0                	test   eax,eax
5b13:	0f 94 c0             	sete   al
5b16:	38 c2                	cmp    dl,al
5b18:	0f 84 9d 05 00 00    	je     60bb <recheck+0x62b>
5b1e:	44 0f b6 3d f4 a5 20 	movzx  r15d,BYTE PTR [rip+0x20a5f4]        # 21011a <reopen_inaccessible_files>
5b25:	00
5b26:	0f b6 05 df a5 20 00 	movzx  eax,BYTE PTR [rip+0x20a5df]        # 21010c <disable_inotify>
5b2d:	45 84 ff             	test   r15b,r15b
5b30:	0f 85 da 00 00 00    	jne    5c10 <recheck+0x180>
5b36:	84 c0                	test   al,al
5b38:	c6 43 36 01          	mov    BYTE PTR [rbx+0x36],0x1
5b3c:	0f 84 a6 03 00 00    	je     5ee8 <recheck+0x458>
5b42:	41 83 fc ff          	cmp    r12d,0xffffffff
5b46:	0f 85 24 04 00 00    	jne    5f70 <recheck+0x4e0>
5b4c:	44 0f b6 7b 36       	movzx  r15d,BYTE PTR [rbx+0x36]
5b51:	48 8b 2b             	mov    rbp,QWORD PTR [rbx]
5b54:	e8 b7 bf ff ff       	call   1b10 <__errno_location@plt>
5b59:	49 89 c5             	mov    r13,rax
5b5c:	8b 00                	mov    eax,DWORD PTR [rax]
5b5e:	45 84 ff             	test   r15b,r15b
5b61:	89 43 3c             	mov    DWORD PTR [rbx+0x3c],eax
5b64:	0f 84 4f 02 00 00    	je     5db9 <recheck+0x329>
5b6a:	45 39 75 00          	cmp    DWORD PTR [r13+0x0],r14d
5b6e:	74 31                	je     5ba1 <recheck+0x111>
5b70:	48 89 ef             	mov    rdi,rbp
5b73:	e8 68 ee ff ff       	call   49e0 <pretty_name.isra.7>
5b78:	be 03 00 00 00       	mov    esi,0x3
5b7d:	48 89 c2             	mov    rdx,rax
5b80:	31 ff                	xor    edi,edi
5b82:	e8 99 40 00 00       	call   9c20 <quotearg_n_style_colon>
5b87:	41 8b 75 00          	mov    esi,DWORD PTR [r13+0x0]
5b8b:	48 8d 15 3a 6e 00 00 	lea    rdx,[rip+0x6e3a]        # c9cc <follow_mode_map+0x74>
5b92:	48 89 c1             	mov    rcx,rax
5b95:	31 ff                	xor    edi,edi
5b97:	31 c0                	xor    eax,eax
5b99:	e8 c2 c2 ff ff       	call   1e60 <error@plt>
5b9e:	48 8b 2b             	mov    rbp,QWORD PTR [rbx]
5ba1:	48 89 ef             	mov    rdi,rbp
5ba4:	e8 37 ee ff ff       	call   49e0 <pretty_name.isra.7>
5ba9:	44 89 e7             	mov    edi,r12d
5bac:	48 89 c6             	mov    rsi,rax
5baf:	e8 6c ee ff ff       	call   4a20 <close_fd>
5bb4:	48 8b 3b             	mov    rdi,QWORD PTR [rbx]
5bb7:	e8 24 ee ff ff       	call   49e0 <pretty_name.isra.7>
5bbc:	8b 7b 38             	mov    edi,DWORD PTR [rbx+0x38]
5bbf:	48 89 c6             	mov    rsi,rax
5bc2:	e8 59 ee ff ff       	call   4a20 <close_fd>
5bc7:	c7 43 38 ff ff ff ff 	mov    DWORD PTR [rbx+0x38],0xffffffff
5bce:	48 8b 84 24 a8 00 00 	mov    rax,QWORD PTR [rsp+0xa8]
5bd5:	00
5bd6:	64 48 33 04 25 28 00 	xor    rax,QWORD PTR fs:0x28
5bdd:	00 00
5bdf:	0f 85 d1 04 00 00    	jne    60b6 <recheck+0x626>
5be5:	48 81 c4 b8 00 00 00 	add    rsp,0xb8
5bec:	5b                   	pop    rbx
5bed:	5d                   	pop    rbp
5bee:	41 5c                	pop    r12
5bf0:	41 5d                	pop    r13
5bf2:	41 5e                	pop    r14
5bf4:	41 5f                	pop    r15
5bf6:	c3                   	ret
5bf7:	66 0f 1f 84 00 00 00 	nop    WORD PTR [rax+rax*1+0x0]
5bfe:	00 00
5c00:	44 89 f0             	mov    eax,r14d
5c03:	45 31 e4             	xor    r12d,r12d
5c06:	e9 ff fe ff ff       	jmp    5b0a <recheck+0x7a>
5c0b:	0f 1f 44 00 00       	nop    DWORD PTR [rax+rax*1+0x0]
5c10:	41 83 fc ff          	cmp    r12d,0xffffffff
5c14:	0f 84 86 01 00 00    	je     5da0 <recheck+0x310>
5c1a:	84 c0                	test   al,al
5c1c:	c6 43 36 01          	mov    BYTE PTR [rbx+0x36],0x1
5c20:	4c 8d 44 24 10       	lea    r8,[rsp+0x10]
5c25:	0f 84 55 03 00 00    	je     5f80 <recheck+0x4f0>
5c2b:	4c 89 c2             	mov    rdx,r8
5c2e:	44 89 e6             	mov    esi,r12d
5c31:	bf 01 00 00 00       	mov    edi,0x1
5c36:	e8 c5 c1 ff ff       	call   1e00 <__fxstat@plt>
5c3b:	85 c0                	test   eax,eax
5c3d:	0f 88 09 ff ff ff    	js     5b4c <recheck+0xbc>
5c43:	8b 54 24 28          	mov    edx,DWORD PTR [rsp+0x28]
5c47:	89 d0                	mov    eax,edx
5c49:	25 00 f0 00 00       	and    eax,0xf000
5c4e:	2d 00 10 00 00       	sub    eax,0x1000
5c53:	a9 00 e0 ff ff       	test   eax,0xffffe000
5c58:	74 56                	je     5cb0 <recheck+0x220>
5c5a:	81 e2 00 b0 00 00    	and    edx,0xb000
5c60:	81 fa 00 80 00 00    	cmp    edx,0x8000
5c66:	74 48                	je     5cb0 <recheck+0x220>
5c68:	45 84 ff             	test   r15b,r15b
5c6b:	c7 43 3c ff ff ff ff 	mov    DWORD PTR [rbx+0x3c],0xffffffff
5c72:	c6 43 36 00          	mov    BYTE PTR [rbx+0x36],0x0
5c76:	0f 84 f4 01 00 00    	je     5e70 <recheck+0x3e0>
5c7c:	83 3d 9d a3 20 00 01 	cmp    DWORD PTR [rip+0x20a39d],0x1        # 210020 <follow_mode>
5c83:	0f 85 e7 01 00 00    	jne    5e70 <recheck+0x3e0>
5c89:	80 7c 24 07 00       	cmp    BYTE PTR [rsp+0x7],0x0
5c8e:	c6 43 34 00          	mov    BYTE PTR [rbx+0x34],0x0
5c92:	48 8b 2b             	mov    rbp,QWORD PTR [rbx]
5c95:	0f 84 3f 04 00 00    	je     60da <recheck+0x64a>
5c9b:	4c 8d 2d 5f 73 00 00 	lea    r13,[rip+0x735f]        # d001 <quoting_style_vals+0x81>
5ca2:	e9 f3 01 00 00       	jmp    5e9a <recheck+0x40a>
5ca7:	66 0f 1f 84 00 00 00 	nop    WORD PTR [rax+rax*1+0x0]
5cae:	00 00
5cb0:	48 8b 3b             	mov    rdi,QWORD PTR [rbx]
5cb3:	e8 28 ed ff ff       	call   49e0 <pretty_name.isra.7>
5cb8:	44 89 e7             	mov    edi,r12d
5cbb:	48 89 c6             	mov    rsi,rax
5cbe:	e8 dd f6 ff ff       	call   53a0 <fremote>
5cc3:	84 c0                	test   al,al
5cc5:	88 43 35             	mov    BYTE PTR [rbx+0x35],al
5cc8:	0f 85 42 01 00 00    	jne    5e10 <recheck+0x380>
5cce:	41 83 e6 fd          	and    r14d,0xfffffffd
5cd2:	c7 43 3c 00 00 00 00 	mov    DWORD PTR [rbx+0x3c],0x0
5cd9:	8b 43 38             	mov    eax,DWORD PTR [rbx+0x38]
5cdc:	0f 84 de 02 00 00    	je     5fc0 <recheck+0x530>
5ce2:	83 f8 ff             	cmp    eax,0xffffffff
5ce5:	0f 85 05 04 00 00    	jne    60f0 <recheck+0x660>
5ceb:	48 8b 3b             	mov    rdi,QWORD PTR [rbx]
5cee:	e8 ed ec ff ff       	call   49e0 <pretty_name.isra.7>
5cf3:	bf 04 00 00 00       	mov    edi,0x4
5cf8:	48 89 c6             	mov    rsi,rax
5cfb:	e8 20 3e 00 00       	call   9b20 <quotearg_style>
5d00:	48 8d 35 0c 5a 00 00 	lea    rsi,[rip+0x5a0c]        # b713 <_IO_stdin_used+0x113>
5d07:	49 89 c6             	mov    r14,rax
5d0a:	ba 05 00 00 00       	mov    edx,0x5
5d0f:	31 ff                	xor    edi,edi
5d11:	e8 ba be ff ff       	call   1bd0 <dcgettext@plt>
5d16:	4c 89 f1             	mov    rcx,r14
5d19:	48 89 c2             	mov    rdx,rax
5d1c:	31 f6                	xor    esi,esi
5d1e:	31 ff                	xor    edi,edi
5d20:	31 c0                	xor    eax,eax
5d22:	e8 39 c1 ff ff       	call   1e60 <error@plt>
5d27:	85 ed                	test   ebp,ebp
5d29:	b8 ff ff ff ff       	mov    eax,0xffffffff
5d2e:	45 0f b6 ed          	movzx  r13d,r13b
5d32:	44 0f 44 e8          	cmove  r13d,eax
5d36:	48 8b 44 24 68       	mov    rax,QWORD PTR [rsp+0x68]
5d3b:	48 8b 3b             	mov    rdi,QWORD PTR [rbx]
5d3e:	44 89 63 38          	mov    DWORD PTR [rbx+0x38],r12d
5d42:	48 c7 43 08 00 00 00 	mov    QWORD PTR [rbx+0x8],0x0
5d49:	00
5d4a:	44 89 6b 40          	mov    DWORD PTR [rbx+0x40],r13d
5d4e:	48 c7 43 58 00 00 00 	mov    QWORD PTR [rbx+0x58],0x0
5d55:	00
5d56:	48 89 43 10          	mov    QWORD PTR [rbx+0x10],rax
5d5a:	48 8b 44 24 70       	mov    rax,QWORD PTR [rsp+0x70]
5d5f:	c6 43 34 00          	mov    BYTE PTR [rbx+0x34],0x0
5d63:	48 89 43 18          	mov    QWORD PTR [rbx+0x18],rax
5d67:	48 8b 44 24 10       	mov    rax,QWORD PTR [rsp+0x10]
5d6c:	48 89 43 20          	mov    QWORD PTR [rbx+0x20],rax
5d70:	48 8b 44 24 18       	mov    rax,QWORD PTR [rsp+0x18]
5d75:	48 89 43 28          	mov    QWORD PTR [rbx+0x28],rax
5d79:	8b 44 24 28          	mov    eax,DWORD PTR [rsp+0x28]
5d7d:	89 43 30             	mov    DWORD PTR [rbx+0x30],eax
5d80:	e8 5b ec ff ff       	call   49e0 <pretty_name.isra.7>
5d85:	31 d2                	xor    edx,edx
5d87:	48 89 c1             	mov    rcx,rax
5d8a:	31 f6                	xor    esi,esi
5d8c:	44 89 e7             	mov    edi,r12d
5d8f:	e8 0c f1 ff ff       	call   4ea0 <xlseek>
5d94:	e9 35 fe ff ff       	jmp    5bce <recheck+0x13e>
5d99:	0f 1f 80 00 00 00 00 	nop    DWORD PTR [rax+0x0]
5da0:	84 c0                	test   al,al
5da2:	c6 43 36 00          	mov    BYTE PTR [rbx+0x36],0x0
5da6:	48 8b 2b             	mov    rbp,QWORD PTR [rbx]
5da9:	0f 84 a9 02 00 00    	je     6058 <recheck+0x5c8>
5daf:	e8 5c bd ff ff       	call   1b10 <__errno_location@plt>
5db4:	8b 00                	mov    eax,DWORD PTR [rax]
5db6:	89 43 3c             	mov    DWORD PTR [rbx+0x3c],eax
5db9:	80 7c 24 07 00       	cmp    BYTE PTR [rsp+0x7],0x0
5dbe:	0f 84 dd fd ff ff    	je     5ba1 <recheck+0x111>
5dc4:	48 89 ef             	mov    rdi,rbp
5dc7:	e8 14 ec ff ff       	call   49e0 <pretty_name.isra.7>
5dcc:	bf 04 00 00 00       	mov    edi,0x4
5dd1:	48 89 c6             	mov    rsi,rax
5dd4:	e8 47 3d 00 00       	call   9b20 <quotearg_style>
5dd9:	48 8d 35 f3 58 00 00 	lea    rsi,[rip+0x58f3]        # b6d3 <_IO_stdin_used+0xd3>
5de0:	ba 05 00 00 00       	mov    edx,0x5
5de5:	31 ff                	xor    edi,edi
5de7:	48 89 c5             	mov    rbp,rax
5dea:	e8 e1 bd ff ff       	call   1bd0 <dcgettext@plt>
5def:	8b 73 3c             	mov    esi,DWORD PTR [rbx+0x3c]
5df2:	48 89 e9             	mov    rcx,rbp
5df5:	48 89 c2             	mov    rdx,rax
5df8:	31 ff                	xor    edi,edi
5dfa:	31 c0                	xor    eax,eax
5dfc:	e8 5f c0 ff ff       	call   1e60 <error@plt>
5e01:	48 8b 2b             	mov    rbp,QWORD PTR [rbx]
5e04:	e9 98 fd ff ff       	jmp    5ba1 <recheck+0x111>
5e09:	0f 1f 80 00 00 00 00 	nop    DWORD PTR [rax+0x0]
5e10:	80 3d f5 a2 20 00 00 	cmp    BYTE PTR [rip+0x20a2f5],0x0        # 21010c <disable_inotify>
5e17:	0f 85 b1 fe ff ff    	jne    5cce <recheck+0x23e>
5e1d:	48 8b 3b             	mov    rdi,QWORD PTR [rbx]
5e20:	c7 43 3c ff ff ff ff 	mov    DWORD PTR [rbx+0x3c],0xffffffff
5e27:	e8 b4 eb ff ff       	call   49e0 <pretty_name.isra.7>
5e2c:	bf 04 00 00 00       	mov    edi,0x4
5e31:	48 89 c6             	mov    rsi,rax
5e34:	e8 e7 3c 00 00       	call   9b20 <quotearg_style>
5e39:	48 8d 35 b0 5c 00 00 	lea    rsi,[rip+0x5cb0]        # baf0 <_IO_stdin_used+0x4f0>
5e40:	48 89 c5             	mov    rbp,rax
5e43:	ba 05 00 00 00       	mov    edx,0x5
5e48:	31 ff                	xor    edi,edi
5e4a:	e8 81 bd ff ff       	call   1bd0 <dcgettext@plt>
5e4f:	48 89 e9             	mov    rcx,rbp
5e52:	48 89 c2             	mov    rdx,rax
5e55:	31 f6                	xor    esi,esi
5e57:	31 ff                	xor    edi,edi
5e59:	31 c0                	xor    eax,eax
5e5b:	e8 00 c0 ff ff       	call   1e60 <error@plt>
5e60:	c6 43 34 01          	mov    BYTE PTR [rbx+0x34],0x1
5e64:	c6 43 35 01          	mov    BYTE PTR [rbx+0x35],0x1
5e68:	48 8b 2b             	mov    rbp,QWORD PTR [rbx]
5e6b:	e9 31 fd ff ff       	jmp    5ba1 <recheck+0x111>
5e70:	80 7c 24 07 00       	cmp    BYTE PTR [rsp+0x7],0x0
5e75:	c6 43 34 01          	mov    BYTE PTR [rbx+0x34],0x1
5e79:	75 06                	jne    5e81 <recheck+0x3f1>
5e7b:	41 83 fe ff          	cmp    r14d,0xffffffff
5e7f:	74 58                	je     5ed9 <recheck+0x449>
5e81:	48 8d 35 66 58 00 00 	lea    rsi,[rip+0x5866]        # b6ee <_IO_stdin_used+0xee>
5e88:	ba 05 00 00 00       	mov    edx,0x5
5e8d:	31 ff                	xor    edi,edi
5e8f:	e8 3c bd ff ff       	call   1bd0 <dcgettext@plt>
5e94:	48 8b 2b             	mov    rbp,QWORD PTR [rbx]
5e97:	49 89 c5             	mov    r13,rax
5e9a:	48 89 ef             	mov    rdi,rbp
5e9d:	e8 3e eb ff ff       	call   49e0 <pretty_name.isra.7>
5ea2:	bf 04 00 00 00       	mov    edi,0x4
5ea7:	48 89 c6             	mov    rsi,rax
5eaa:	e8 71 3c 00 00       	call   9b20 <quotearg_style>
5eaf:	48 8d 35 0a 5c 00 00 	lea    rsi,[rip+0x5c0a]        # bac0 <_IO_stdin_used+0x4c0>
5eb6:	48 89 c5             	mov    rbp,rax
5eb9:	ba 05 00 00 00       	mov    edx,0x5
5ebe:	31 ff                	xor    edi,edi
5ec0:	e8 0b bd ff ff       	call   1bd0 <dcgettext@plt>
5ec5:	4d 89 e8             	mov    r8,r13
5ec8:	48 89 c2             	mov    rdx,rax
5ecb:	48 89 e9             	mov    rcx,rbp
5ece:	31 f6                	xor    esi,esi
5ed0:	31 ff                	xor    edi,edi
5ed2:	31 c0                	xor    eax,eax
5ed4:	e8 87 bf ff ff       	call   1e60 <error@plt>
5ed9:	48 8b 2b             	mov    rbp,QWORD PTR [rbx]
5edc:	e9 c0 fc ff ff       	jmp    5ba1 <recheck+0x111>
5ee1:	0f 1f 80 00 00 00 00 	nop    DWORD PTR [rax+0x0]
5ee8:	4c 8d 44 24 10       	lea    r8,[rsp+0x10]
5eed:	48 8b 33             	mov    rsi,QWORD PTR [rbx]
5ef0:	bf 01 00 00 00       	mov    edi,0x1
5ef5:	4c 89 c2             	mov    rdx,r8
5ef8:	e8 03 bd ff ff       	call   1c00 <__lxstat@plt>
5efd:	85 c0                	test   eax,eax
5eff:	0f 85 3d fc ff ff    	jne    5b42 <recheck+0xb2>
5f05:	8b 44 24 28          	mov    eax,DWORD PTR [rsp+0x28]
5f09:	25 00 f0 00 00       	and    eax,0xf000
5f0e:	3d 00 a0 00 00       	cmp    eax,0xa000
5f13:	0f 85 29 fc ff ff    	jne    5b42 <recheck+0xb2>
5f19:	48 8b 3b             	mov    rdi,QWORD PTR [rbx]
5f1c:	c7 43 3c ff ff ff ff 	mov    DWORD PTR [rbx+0x3c],0xffffffff
5f23:	c6 43 34 01          	mov    BYTE PTR [rbx+0x34],0x1
5f27:	e8 b4 ea ff ff       	call   49e0 <pretty_name.isra.7>
5f2c:	bf 04 00 00 00       	mov    edi,0x4
5f31:	48 89 c6             	mov    rsi,rax
5f34:	e8 e7 3b 00 00       	call   9b20 <quotearg_style>
5f39:	48 8d 35 48 5b 00 00 	lea    rsi,[rip+0x5b48]        # ba88 <_IO_stdin_used+0x488>
5f40:	48 89 c5             	mov    rbp,rax
5f43:	ba 05 00 00 00       	mov    edx,0x5
5f48:	31 ff                	xor    edi,edi
5f4a:	e8 81 bc ff ff       	call   1bd0 <dcgettext@plt>
5f4f:	48 89 e9             	mov    rcx,rbp
5f52:	48 89 c2             	mov    rdx,rax
5f55:	31 f6                	xor    esi,esi
5f57:	31 ff                	xor    edi,edi
5f59:	31 c0                	xor    eax,eax
5f5b:	e8 00 bf ff ff       	call   1e60 <error@plt>
5f60:	48 8b 2b             	mov    rbp,QWORD PTR [rbx]
5f63:	e9 39 fc ff ff       	jmp    5ba1 <recheck+0x111>
5f68:	0f 1f 84 00 00 00 00 	nop    DWORD PTR [rax+rax*1+0x0]
5f6f:	00
5f70:	4c 8d 44 24 10       	lea    r8,[rsp+0x10]
5f75:	e9 b1 fc ff ff       	jmp    5c2b <recheck+0x19b>
5f7a:	66 0f 1f 44 00 00    	nop    WORD PTR [rax+rax*1+0x0]
5f80:	48 8b 33             	mov    rsi,QWORD PTR [rbx]
5f83:	4c 89 c2             	mov    rdx,r8
5f86:	bf 01 00 00 00       	mov    edi,0x1
5f8b:	4c 89 44 24 08       	mov    QWORD PTR [rsp+0x8],r8
5f90:	e8 6b bc ff ff       	call   1c00 <__lxstat@plt>
5f95:	85 c0                	test   eax,eax
5f97:	4c 8b 44 24 08       	mov    r8,QWORD PTR [rsp+0x8]
5f9c:	0f 85 89 fc ff ff    	jne    5c2b <recheck+0x19b>
5fa2:	8b 44 24 28          	mov    eax,DWORD PTR [rsp+0x28]
5fa6:	25 00 f0 00 00       	and    eax,0xf000
5fab:	3d 00 a0 00 00       	cmp    eax,0xa000
5fb0:	0f 85 75 fc ff ff    	jne    5c2b <recheck+0x19b>
5fb6:	e9 5e ff ff ff       	jmp    5f19 <recheck+0x489>
5fbb:	0f 1f 44 00 00       	nop    DWORD PTR [rax+rax*1+0x0]
5fc0:	83 f8 ff             	cmp    eax,0xffffffff
5fc3:	48 8b 3b             	mov    rdi,QWORD PTR [rbx]
5fc6:	0f 84 c4 00 00 00    	je     6090 <recheck+0x600>
5fcc:	48 8b 44 24 18       	mov    rax,QWORD PTR [rsp+0x18]
5fd1:	48 39 43 28          	cmp    QWORD PTR [rbx+0x28],rax
5fd5:	75 29                	jne    6000 <recheck+0x570>
5fd7:	48 8b 44 24 10       	mov    rax,QWORD PTR [rsp+0x10]
5fdc:	48 39 43 20          	cmp    QWORD PTR [rbx+0x20],rax
5fe0:	75 1e                	jne    6000 <recheck+0x570>
5fe2:	e8 f9 e9 ff ff       	call   49e0 <pretty_name.isra.7>
5fe7:	44 89 e7             	mov    edi,r12d
5fea:	48 89 c6             	mov    rsi,rax
5fed:	e8 2e ea ff ff       	call   4a20 <close_fd>
5ff2:	e9 d7 fb ff ff       	jmp    5bce <recheck+0x13e>
5ff7:	66 0f 1f 84 00 00 00 	nop    WORD PTR [rax+rax*1+0x0]
5ffe:	00 00
6000:	e8 db e9 ff ff       	call   49e0 <pretty_name.isra.7>
6005:	bf 04 00 00 00       	mov    edi,0x4
600a:	48 89 c6             	mov    rsi,rax
600d:	e8 0e 3b 00 00       	call   9b20 <quotearg_style>
6012:	48 8d 35 37 5b 00 00 	lea    rsi,[rip+0x5b37]        # bb50 <_IO_stdin_used+0x550>
6019:	49 89 c6             	mov    r14,rax
601c:	31 ff                	xor    edi,edi
601e:	ba 05 00 00 00       	mov    edx,0x5
6023:	e8 a8 bb ff ff       	call   1bd0 <dcgettext@plt>
6028:	31 f6                	xor    esi,esi
602a:	48 89 c2             	mov    rdx,rax
602d:	4c 89 f1             	mov    rcx,r14
6030:	31 ff                	xor    edi,edi
6032:	31 c0                	xor    eax,eax
6034:	e8 27 be ff ff       	call   1e60 <error@plt>
6039:	48 8b 3b             	mov    rdi,QWORD PTR [rbx]
603c:	e8 9f e9 ff ff       	call   49e0 <pretty_name.isra.7>
6041:	8b 7b 38             	mov    edi,DWORD PTR [rbx+0x38]
6044:	48 89 c6             	mov    rsi,rax
6047:	e8 d4 e9 ff ff       	call   4a20 <close_fd>
604c:	e9 d6 fc ff ff       	jmp    5d27 <recheck+0x297>
6051:	0f 1f 80 00 00 00 00 	nop    DWORD PTR [rax+0x0]
6058:	48 8d 54 24 10       	lea    rdx,[rsp+0x10]
605d:	48 89 ee             	mov    rsi,rbp
6060:	bf 01 00 00 00       	mov    edi,0x1
6065:	e8 96 bb ff ff       	call   1c00 <__lxstat@plt>
606a:	85 c0                	test   eax,eax
606c:	0f 85 da fa ff ff    	jne    5b4c <recheck+0xbc>
6072:	8b 44 24 28          	mov    eax,DWORD PTR [rsp+0x28]
6076:	25 00 f0 00 00       	and    eax,0xf000
607b:	3d 00 a0 00 00       	cmp    eax,0xa000
6080:	0f 85 c6 fa ff ff    	jne    5b4c <recheck+0xbc>
6086:	e9 8e fe ff ff       	jmp    5f19 <recheck+0x489>
608b:	0f 1f 44 00 00       	nop    DWORD PTR [rax+rax*1+0x0]
6090:	e8 4b e9 ff ff       	call   49e0 <pretty_name.isra.7>
6095:	bf 04 00 00 00       	mov    edi,0x4
609a:	48 89 c6             	mov    rsi,rax
609d:	e8 7e 3a 00 00       	call   9b20 <quotearg_style>
60a2:	ba 05 00 00 00       	mov    edx,0x5
60a7:	49 89 c6             	mov    r14,rax
60aa:	48 8d 35 77 5a 00 00 	lea    rsi,[rip+0x5a77]        # bb28 <_IO_stdin_used+0x528>
60b1:	e9 59 fc ff ff       	jmp    5d0f <recheck+0x27f>
60b6:	e8 55 bb ff ff       	call   1c10 <__stack_chk_fail@plt>
60bb:	48 8d 0d 7e 68 00 00 	lea    rcx,[rip+0x687e]        # c940 <__PRETTY_FUNCTION__.7576>
60c2:	48 8d 35 d9 55 00 00 	lea    rsi,[rip+0x55d9]        # b6a2 <_IO_stdin_used+0xa2>
60c9:	48 8d 3d ef 55 00 00 	lea    rdi,[rip+0x55ef]        # b6bf <_IO_stdin_used+0xbf>
60d0:	ba df 03 00 00       	mov    edx,0x3df
60d5:	e8 d6 bb ff ff       	call   1cb0 <__assert_fail@plt>
60da:	41 83 c6 01          	add    r14d,0x1
60de:	4c 8d 2d 1c 6f 00 00 	lea    r13,[rip+0x6f1c]        # d001 <quoting_style_vals+0x81>
60e5:	0f 85 af fd ff ff    	jne    5e9a <recheck+0x40a>
60eb:	e9 b1 fa ff ff       	jmp    5ba1 <recheck+0x111>
60f0:	48 8d 0d 49 68 00 00 	lea    rcx,[rip+0x6849]        # c940 <__PRETTY_FUNCTION__.7576>
60f7:	48 8d 35 a4 55 00 00 	lea    rsi,[rip+0x55a4]        # b6a2 <_IO_stdin_used+0xa2>
60fe:	48 8d 3d 02 56 00 00 	lea    rdi,[rip+0x5602]        # b707 <_IO_stdin_used+0x107>
6105:	ba 2c 04 00 00       	mov    edx,0x42c
610a:	e8 a1 bb ff ff       	call   1cb0 <__assert_fail@plt>
610f:	90                   	nop

0000000000006110 <usage>:
6110:	41 55                	push   r13
6112:	41 54                	push   r12
6114:	ba 05 00 00 00       	mov    edx,0x5
6119:	55                   	push   rbp
611a:	53                   	push   rbx
611b:	89 fd                	mov    ebp,edi
611d:	48 81 ec 88 00 00 00 	sub    rsp,0x88
6124:	48 8b 1d 05 a0 20 00 	mov    rbx,QWORD PTR [rip+0x20a005]        # 210130 <program_name>
612b:	64 48 8b 04 25 28 00 	mov    rax,QWORD PTR fs:0x28
6132:	00 00
6134:	48 89 44 24 78       	mov    QWORD PTR [rsp+0x78],rax
6139:	31 c0                	xor    eax,eax
613b:	85 ff                	test   edi,edi
613d:	74 2e                	je     616d <usage+0x5d>
613f:	48 8d 35 3a 5a 00 00 	lea    rsi,[rip+0x5a3a]        # bb80 <_IO_stdin_used+0x580>
6146:	31 ff                	xor    edi,edi
6148:	e8 83 ba ff ff       	call   1bd0 <dcgettext@plt>
614d:	48 8b 3d ac 9f 20 00 	mov    rdi,QWORD PTR [rip+0x209fac]        # 210100 <stderr@@GLIBC_2.2.5>
6154:	48 89 c2             	mov    rdx,rax
6157:	48 89 d9             	mov    rcx,rbx
615a:	be 01 00 00 00       	mov    esi,0x1
615f:	31 c0                	xor    eax,eax
6161:	e8 7a bd ff ff       	call   1ee0 <__fprintf_chk@plt>
6166:	89 ef                	mov    edi,ebp
6168:	e8 53 bd ff ff       	call   1ec0 <exit@plt>
616d:	48 8d 35 34 5a 00 00 	lea    rsi,[rip+0x5a34]        # bba8 <_IO_stdin_used+0x5a8>
6174:	31 ff                	xor    edi,edi
6176:	e8 55 ba ff ff       	call   1bd0 <dcgettext@plt>
617b:	48 89 da             	mov    rdx,rbx
617e:	48 89 c6             	mov    rsi,rax
6181:	bf 01 00 00 00       	mov    edi,0x1
6186:	31 c0                	xor    eax,eax
6188:	e8 c3 bc ff ff       	call   1e50 <__printf_chk@plt>
618d:	48 8d 35 3c 5a 00 00 	lea    rsi,[rip+0x5a3c]        # bbd0 <_IO_stdin_used+0x5d0>
6194:	31 ff                	xor    edi,edi
6196:	ba 05 00 00 00       	mov    edx,0x5
619b:	e8 30 ba ff ff       	call   1bd0 <dcgettext@plt>
61a0:	ba 0a 00 00 00       	mov    edx,0xa
61a5:	48 89 c6             	mov    rsi,rax
61a8:	bf 01 00 00 00       	mov    edi,0x1
61ad:	31 c0                	xor    eax,eax
61af:	e8 9c bc ff ff       	call   1e50 <__printf_chk@plt>
61b4:	48 8b 1d 0d 9f 20 00 	mov    rbx,QWORD PTR [rip+0x209f0d]        # 2100c8 <stdout@@GLIBC_2.2.5>
61bb:	48 8d 35 96 5a 00 00 	lea    rsi,[rip+0x5a96]        # bc58 <_IO_stdin_used+0x658>
61c2:	ba 05 00 00 00       	mov    edx,0x5
61c7:	31 ff                	xor    edi,edi
61c9:	e8 02 ba ff ff       	call   1bd0 <dcgettext@plt>
61ce:	48 89 de             	mov    rsi,rbx
61d1:	48 89 c7             	mov    rdi,rax
61d4:	e8 47 bb ff ff       	call   1d20 <fputs_unlocked@plt>
61d9:	48 8b 1d e8 9e 20 00 	mov    rbx,QWORD PTR [rip+0x209ee8]        # 2100c8 <stdout@@GLIBC_2.2.5>
61e0:	48 8d 35 a9 5a 00 00 	lea    rsi,[rip+0x5aa9]        # bc90 <_IO_stdin_used+0x690>
61e7:	ba 05 00 00 00       	mov    edx,0x5
61ec:	31 ff                	xor    edi,edi
61ee:	e8 dd b9 ff ff       	call   1bd0 <dcgettext@plt>
61f3:	48 89 de             	mov    rsi,rbx
61f6:	48 89 c7             	mov    rdi,rax
61f9:	e8 22 bb ff ff       	call   1d20 <fputs_unlocked@plt>
61fe:	48 8b 1d c3 9e 20 00 	mov    rbx,QWORD PTR [rip+0x209ec3]        # 2100c8 <stdout@@GLIBC_2.2.5>
6205:	48 8d 35 d4 5a 00 00 	lea    rsi,[rip+0x5ad4]        # bce0 <_IO_stdin_used+0x6e0>
620c:	ba 05 00 00 00       	mov    edx,0x5
6211:	31 ff                	xor    edi,edi
6213:	e8 b8 b9 ff ff       	call   1bd0 <dcgettext@plt>
6218:	48 89 de             	mov    rsi,rbx
621b:	48 89 c7             	mov    rdi,rax
621e:	e8 fd ba ff ff       	call   1d20 <fputs_unlocked@plt>
6223:	48 8b 1d 9e 9e 20 00 	mov    rbx,QWORD PTR [rip+0x209e9e]        # 2100c8 <stdout@@GLIBC_2.2.5>
622a:	48 8d 35 47 5b 00 00 	lea    rsi,[rip+0x5b47]        # bd78 <_IO_stdin_used+0x778>
6231:	ba 05 00 00 00       	mov    edx,0x5
6236:	31 ff                	xor    edi,edi
6238:	e8 93 b9 ff ff       	call   1bd0 <dcgettext@plt>
623d:	48 89 de             	mov    rsi,rbx
6240:	48 89 c7             	mov    rdi,rax
6243:	e8 d8 ba ff ff       	call   1d20 <fputs_unlocked@plt>
6248:	48 8d 35 19 5c 00 00 	lea    rsi,[rip+0x5c19]        # be68 <_IO_stdin_used+0x868>
624f:	31 ff                	xor    edi,edi
6251:	ba 05 00 00 00       	mov    edx,0x5
6256:	e8 75 b9 ff ff       	call   1bd0 <dcgettext@plt>
625b:	b9 05 00 00 00       	mov    ecx,0x5
6260:	48 89 c6             	mov    rsi,rax
6263:	ba 0a 00 00 00       	mov    edx,0xa
6268:	bf 01 00 00 00       	mov    edi,0x1
626d:	31 c0                	xor    eax,eax
626f:	e8 dc bb ff ff       	call   1e50 <__printf_chk@plt>
6274:	48 8b 1d 4d 9e 20 00 	mov    rbx,QWORD PTR [rip+0x209e4d]        # 2100c8 <stdout@@GLIBC_2.2.5>
627b:	48 8d 35 16 5e 00 00 	lea    rsi,[rip+0x5e16]        # c098 <_IO_stdin_used+0xa98>
6282:	ba 05 00 00 00       	mov    edx,0x5
6287:	31 ff                	xor    edi,edi
6289:	e8 42 b9 ff ff       	call   1bd0 <dcgettext@plt>
628e:	48 89 de             	mov    rsi,rbx
6291:	48 89 c7             	mov    rdi,rax
6294:	e8 87 ba ff ff       	call   1d20 <fputs_unlocked@plt>
6299:	48 8b 1d 28 9e 20 00 	mov    rbx,QWORD PTR [rip+0x209e28]        # 2100c8 <stdout@@GLIBC_2.2.5>
62a0:	48 8d 35 c9 5e 00 00 	lea    rsi,[rip+0x5ec9]        # c170 <_IO_stdin_used+0xb70>
62a7:	ba 05 00 00 00       	mov    edx,0x5
62ac:	31 ff                	xor    edi,edi
62ae:	e8 1d b9 ff ff       	call   1bd0 <dcgettext@plt>
62b3:	48 89 de             	mov    rsi,rbx
62b6:	48 89 c7             	mov    rdi,rax
62b9:	e8 62 ba ff ff       	call   1d20 <fputs_unlocked@plt>
62be:	48 8b 1d 03 9e 20 00 	mov    rbx,QWORD PTR [rip+0x209e03]        # 2100c8 <stdout@@GLIBC_2.2.5>
62c5:	48 8d 35 f4 5f 00 00 	lea    rsi,[rip+0x5ff4]        # c2c0 <_IO_stdin_used+0xcc0>
62cc:	ba 05 00 00 00       	mov    edx,0x5
62d1:	31 ff                	xor    edi,edi
62d3:	e8 f8 b8 ff ff       	call   1bd0 <dcgettext@plt>
62d8:	48 89 de             	mov    rsi,rbx
62db:	48 89 c7             	mov    rdi,rax
62de:	e8 3d ba ff ff       	call   1d20 <fputs_unlocked@plt>
62e3:	48 8b 1d de 9d 20 00 	mov    rbx,QWORD PTR [rip+0x209dde]        # 2100c8 <stdout@@GLIBC_2.2.5>
62ea:	48 8d 35 0f 60 00 00 	lea    rsi,[rip+0x600f]        # c300 <_IO_stdin_used+0xd00>
62f1:	ba 05 00 00 00       	mov    edx,0x5
62f6:	31 ff                	xor    edi,edi
62f8:	e8 d3 b8 ff ff       	call   1bd0 <dcgettext@plt>
62fd:	48 89 de             	mov    rsi,rbx
6300:	48 89 c7             	mov    rdi,rax
6303:	e8 18 ba ff ff       	call   1d20 <fputs_unlocked@plt>
6308:	48 8b 1d b9 9d 20 00 	mov    rbx,QWORD PTR [rip+0x209db9]        # 2100c8 <stdout@@GLIBC_2.2.5>
630f:	48 8d 35 1a 60 00 00 	lea    rsi,[rip+0x601a]        # c330 <_IO_stdin_used+0xd30>
6316:	ba 05 00 00 00       	mov    edx,0x5
631b:	31 ff                	xor    edi,edi
631d:	e8 ae b8 ff ff       	call   1bd0 <dcgettext@plt>
6322:	48 89 de             	mov    rsi,rbx
6325:	48 89 c7             	mov    rdi,rax
6328:	e8 f3 b9 ff ff       	call   1d20 <fputs_unlocked@plt>
632d:	48 8b 1d 94 9d 20 00 	mov    rbx,QWORD PTR [rip+0x209d94]        # 2100c8 <stdout@@GLIBC_2.2.5>
6334:	48 8d 35 2d 60 00 00 	lea    rsi,[rip+0x602d]        # c368 <_IO_stdin_used+0xd68>
633b:	ba 05 00 00 00       	mov    edx,0x5
6340:	31 ff                	xor    edi,edi
6342:	e8 89 b8 ff ff       	call   1bd0 <dcgettext@plt>
6347:	48 89 de             	mov    rsi,rbx
634a:	48 89 c7             	mov    rdi,rax
634d:	e8 ce b9 ff ff       	call   1d20 <fputs_unlocked@plt>
6352:	48 8b 1d 6f 9d 20 00 	mov    rbx,QWORD PTR [rip+0x209d6f]        # 2100c8 <stdout@@GLIBC_2.2.5>
6359:	48 8d 35 e0 60 00 00 	lea    rsi,[rip+0x60e0]        # c440 <_IO_stdin_used+0xe40>
6360:	ba 05 00 00 00       	mov    edx,0x5
6365:	31 ff                	xor    edi,edi
6367:	e8 64 b8 ff ff       	call   1bd0 <dcgettext@plt>
636c:	48 89 de             	mov    rsi,rbx
636f:	48 89 c7             	mov    rdi,rax
6372:	48 8d 1d b3 53 00 00 	lea    rbx,[rip+0x53b3]        # b72c <_IO_stdin_used+0x12c>
6379:	e8 a2 b9 ff ff       	call   1d20 <fputs_unlocked@plt>
637e:	48 8d 05 ac 53 00 00 	lea    rax,[rip+0x53ac]        # b731 <_IO_stdin_used+0x131>
6385:	48 8d 0d e6 53 00 00 	lea    rcx,[rip+0x53e6]        # b772 <_IO_stdin_used+0x172>
638c:	48 c7 44 24 60 00 00 	mov    QWORD PTR [rsp+0x60],0x0
6393:	00 00
6395:	48 c7 44 24 68 00 00 	mov    QWORD PTR [rsp+0x68],0x0
639c:	00 00
639e:	48 89 e2             	mov    rdx,rsp
63a1:	48 89 04 24          	mov    QWORD PTR [rsp],rax
63a5:	48 8d 05 87 53 00 00 	lea    rax,[rip+0x5387]        # b733 <_IO_stdin_used+0x133>
63ac:	48 89 4c 24 30       	mov    QWORD PTR [rsp+0x30],rcx
63b1:	48 8d 0d c4 53 00 00 	lea    rcx,[rip+0x53c4]        # b77c <_IO_stdin_used+0x17c>
63b8:	48 89 44 24 08       	mov    QWORD PTR [rsp+0x8],rax
63bd:	48 8d 05 e7 53 00 00 	lea    rax,[rip+0x53e7]        # b7ab <_IO_stdin_used+0x1ab>
63c4:	48 89 4c 24 40       	mov    QWORD PTR [rsp+0x40],rcx
63c9:	48 8d 0d b6 53 00 00 	lea    rcx,[rip+0x53b6]        # b786 <_IO_stdin_used+0x186>
63d0:	48 89 44 24 10       	mov    QWORD PTR [rsp+0x10],rax
63d5:	48 8d 05 67 53 00 00 	lea    rax,[rip+0x5367]        # b743 <_IO_stdin_used+0x143>
63dc:	48 89 4c 24 50       	mov    QWORD PTR [rsp+0x50],rcx
63e1:	48 89 44 24 18       	mov    QWORD PTR [rsp+0x18],rax
63e6:	48 8d 05 6c 53 00 00 	lea    rax,[rip+0x536c]        # b759 <_IO_stdin_used+0x159>
63ed:	48 89 44 24 20       	mov    QWORD PTR [rsp+0x20],rax
63f2:	48 8d 05 6a 53 00 00 	lea    rax,[rip+0x536a]        # b763 <_IO_stdin_used+0x163>
63f9:	48 89 44 24 28       	mov    QWORD PTR [rsp+0x28],rax
63fe:	48 89 44 24 38       	mov    QWORD PTR [rsp+0x38],rax
6403:	48 89 44 24 48       	mov    QWORD PTR [rsp+0x48],rax
6408:	48 89 44 24 58       	mov    QWORD PTR [rsp+0x58],rax
640d:	0f 1f 00             	nop    DWORD PTR [rax]
6410:	48 83 c2 10          	add    rdx,0x10
6414:	48 8b 3a             	mov    rdi,QWORD PTR [rdx]
6417:	48 85 ff             	test   rdi,rdi
641a:	74 13                	je     642f <usage+0x31f>
641c:	b9 05 00 00 00       	mov    ecx,0x5
6421:	48 89 de             	mov    rsi,rbx
6424:	f3 a6                	repz cmps BYTE PTR ds:[rsi],BYTE PTR es:[rdi]
6426:	0f 97 c0             	seta   al
6429:	1c 00                	sbb    al,0x0
642b:	84 c0                	test   al,al
642d:	75 e1                	jne    6410 <usage+0x300>
642f:	4c 8b 62 08          	mov    r12,QWORD PTR [rdx+0x8]
6433:	31 ff                	xor    edi,edi
6435:	ba 05 00 00 00       	mov    edx,0x5
643a:	48 8d 35 4f 53 00 00 	lea    rsi,[rip+0x534f]        # b790 <_IO_stdin_used+0x190>
6441:	4d 85 e4             	test   r12,r12
6444:	0f 84 c1 00 00 00    	je     650b <usage+0x3fb>
644a:	e8 81 b7 ff ff       	call   1bd0 <dcgettext@plt>
644f:	48 8d 0d a2 61 00 00 	lea    rcx,[rip+0x61a2]        # c5f8 <_IO_stdin_used+0xff8>
6456:	48 8d 15 4a 53 00 00 	lea    rdx,[rip+0x534a]        # b7a7 <_IO_stdin_used+0x1a7>
645d:	48 89 c6             	mov    rsi,rax
6460:	bf 01 00 00 00       	mov    edi,0x1
6465:	31 c0                	xor    eax,eax
6467:	e8 e4 b9 ff ff       	call   1e50 <__printf_chk@plt>
646c:	31 f6                	xor    esi,esi
646e:	bf 05 00 00 00       	mov    edi,0x5
6473:	e8 c8 b9 ff ff       	call   1e40 <setlocale@plt>
6478:	48 85 c0             	test   rax,rax
647b:	74 1c                	je     6499 <usage+0x389>
647d:	48 8d 35 31 53 00 00 	lea    rsi,[rip+0x5331]        # b7b5 <_IO_stdin_used+0x1b5>
6484:	ba 03 00 00 00       	mov    edx,0x3
6489:	48 89 c7             	mov    rdi,rax
648c:	e8 8f b6 ff ff       	call   1b20 <strncmp@plt>
6491:	85 c0                	test   eax,eax
6493:	0f 85 07 01 00 00    	jne    65a0 <usage+0x490>
6499:	48 8d 35 19 53 00 00 	lea    rsi,[rip+0x5319]        # b7b9 <_IO_stdin_used+0x1b9>
64a0:	31 ff                	xor    edi,edi
64a2:	ba 05 00 00 00       	mov    edx,0x5
64a7:	e8 24 b7 ff ff       	call   1bd0 <dcgettext@plt>
64ac:	48 8d 0d 79 52 00 00 	lea    rcx,[rip+0x5279]        # b72c <_IO_stdin_used+0x12c>
64b3:	48 8d 15 3e 61 00 00 	lea    rdx,[rip+0x613e]        # c5f8 <_IO_stdin_used+0xff8>
64ba:	48 89 c6             	mov    rsi,rax
64bd:	bf 01 00 00 00       	mov    edi,0x1
64c2:	31 c0                	xor    eax,eax
64c4:	e8 87 b9 ff ff       	call   1e50 <__printf_chk@plt>
64c9:	49 39 dc             	cmp    r12,rbx
64cc:	48 8d 0d 7a 52 00 00 	lea    rcx,[rip+0x527a]        # b74d <_IO_stdin_used+0x14d>
64d3:	48 8d 1d 27 6b 00 00 	lea    rbx,[rip+0x6b27]        # d001 <quoting_style_vals+0x81>
64da:	48 0f 44 d9          	cmove  rbx,rcx
64de:	48 8d 35 83 61 00 00 	lea    rsi,[rip+0x6183]        # c668 <_IO_stdin_used+0x1068>
64e5:	31 ff                	xor    edi,edi
64e7:	ba 05 00 00 00       	mov    edx,0x5
64ec:	e8 df b6 ff ff       	call   1bd0 <dcgettext@plt>
64f1:	48 89 d9             	mov    rcx,rbx
64f4:	48 89 c6             	mov    rsi,rax
64f7:	4c 89 e2             	mov    rdx,r12
64fa:	bf 01 00 00 00       	mov    edi,0x1
64ff:	31 c0                	xor    eax,eax
6501:	e8 4a b9 ff ff       	call   1e50 <__printf_chk@plt>
6506:	e9 5b fc ff ff       	jmp    6166 <usage+0x56>
650b:	e8 c0 b6 ff ff       	call   1bd0 <dcgettext@plt>
6510:	48 8d 0d e1 60 00 00 	lea    rcx,[rip+0x60e1]        # c5f8 <_IO_stdin_used+0xff8>
6517:	48 8d 15 89 52 00 00 	lea    rdx,[rip+0x5289]        # b7a7 <_IO_stdin_used+0x1a7>
651e:	48 89 c6             	mov    rsi,rax
6521:	bf 01 00 00 00       	mov    edi,0x1
6526:	31 c0                	xor    eax,eax
6528:	e8 23 b9 ff ff       	call   1e50 <__printf_chk@plt>
652d:	31 f6                	xor    esi,esi
652f:	bf 05 00 00 00       	mov    edi,0x5
6534:	e8 07 b9 ff ff       	call   1e40 <setlocale@plt>
6539:	48 85 c0             	test   rax,rax
653c:	74 18                	je     6556 <usage+0x446>
653e:	48 8d 35 70 52 00 00 	lea    rsi,[rip+0x5270]        # b7b5 <_IO_stdin_used+0x1b5>
6545:	ba 03 00 00 00       	mov    edx,0x3
654a:	48 89 c7             	mov    rdi,rax
654d:	e8 ce b5 ff ff       	call   1b20 <strncmp@plt>
6552:	85 c0                	test   eax,eax
6554:	75 43                	jne    6599 <usage+0x489>
6556:	48 8d 35 5c 52 00 00 	lea    rsi,[rip+0x525c]        # b7b9 <_IO_stdin_used+0x1b9>
655d:	ba 05 00 00 00       	mov    edx,0x5
6562:	31 ff                	xor    edi,edi
6564:	4c 8d 25 c1 51 00 00 	lea    r12,[rip+0x51c1]        # b72c <_IO_stdin_used+0x12c>
656b:	48 8d 1d db 51 00 00 	lea    rbx,[rip+0x51db]        # b74d <_IO_stdin_used+0x14d>
6572:	e8 59 b6 ff ff       	call   1bd0 <dcgettext@plt>
6577:	48 8d 0d ae 51 00 00 	lea    rcx,[rip+0x51ae]        # b72c <_IO_stdin_used+0x12c>
657e:	48 8d 15 73 60 00 00 	lea    rdx,[rip+0x6073]        # c5f8 <_IO_stdin_used+0xff8>
6585:	48 89 c6             	mov    rsi,rax
6588:	bf 01 00 00 00       	mov    edi,0x1
658d:	31 c0                	xor    eax,eax
658f:	e8 bc b8 ff ff       	call   1e50 <__printf_chk@plt>
6594:	e9 45 ff ff ff       	jmp    64de <usage+0x3ce>
6599:	4c 8d 25 8c 51 00 00 	lea    r12,[rip+0x518c]        # b72c <_IO_stdin_used+0x12c>
65a0:	4c 8b 2d 21 9b 20 00 	mov    r13,QWORD PTR [rip+0x209b21]        # 2100c8 <stdout@@GLIBC_2.2.5>
65a7:	48 8d 35 72 60 00 00 	lea    rsi,[rip+0x6072]        # c620 <_IO_stdin_used+0x1020>
65ae:	31 ff                	xor    edi,edi
65b0:	ba 05 00 00 00       	mov    edx,0x5
65b5:	e8 16 b6 ff ff       	call   1bd0 <dcgettext@plt>
65ba:	4c 89 ee             	mov    rsi,r13
65bd:	48 89 c7             	mov    rdi,rax
65c0:	e8 5b b7 ff ff       	call   1d20 <fputs_unlocked@plt>
65c5:	e9 cf fe ff ff       	jmp    6499 <usage+0x389>
65ca:	66 0f 1f 44 00 00    	nop    WORD PTR [rax+rax*1+0x0]

00000000000065d0 <__argmatch_die>:
65d0:	bf 01 00 00 00       	mov    edi,0x1
65d5:	e9 36 fb ff ff       	jmp    6110 <usage>
65da:	66 0f 1f 44 00 00    	nop    WORD PTR [rax+rax*1+0x0]

00000000000065e0 <argmatch>:
65e0:	41 57                	push   r15
65e2:	41 56                	push   r14
65e4:	49 89 f7             	mov    r15,rsi
65e7:	41 55                	push   r13
65e9:	41 54                	push   r12
65eb:	49 89 cd             	mov    r13,rcx
65ee:	55                   	push   rbp
65ef:	53                   	push   rbx
65f0:	48 89 d5             	mov    rbp,rdx
65f3:	48 83 ec 28          	sub    rsp,0x28
65f7:	48 89 7c 24 08       	mov    QWORD PTR [rsp+0x8],rdi
65fc:	48 89 54 24 18       	mov    QWORD PTR [rsp+0x18],rdx
6601:	e8 ea b5 ff ff       	call   1bf0 <strlen@plt>
6606:	4d 8b 37             	mov    r14,QWORD PTR [r15]
6609:	48 c7 04 24 ff ff ff 	mov    QWORD PTR [rsp],0xffffffffffffffff
6610:	ff
6611:	4d 85 f6             	test   r14,r14
6614:	0f 84 b3 00 00 00    	je     66cd <argmatch+0xed>
661a:	49 89 c4             	mov    r12,rax
661d:	c6 44 24 17 00       	mov    BYTE PTR [rsp+0x17],0x0
6622:	31 db                	xor    ebx,ebx
6624:	eb 51                	jmp    6677 <argmatch+0x97>
6626:	66 2e 0f 1f 84 00 00 	nop    WORD PTR cs:[rax+rax*1+0x0]
662d:	00 00 00
6630:	48 8b 44 24 18       	mov    rax,QWORD PTR [rsp+0x18]
6635:	48 85 c0             	test   rax,rax
6638:	0f 84 a2 00 00 00    	je     66e0 <argmatch+0x100>
663e:	48 8b 3c 24          	mov    rdi,QWORD PTR [rsp]
6642:	4c 89 ea             	mov    rdx,r13
6645:	48 89 ee             	mov    rsi,rbp
6648:	49 0f af fd          	imul   rdi,r13
664c:	48 01 c7             	add    rdi,rax
664f:	e8 bc b6 ff ff       	call   1d10 <memcmp@plt>
6654:	85 c0                	test   eax,eax
6656:	0f b6 44 24 17       	movzx  eax,BYTE PTR [rsp+0x17]
665b:	b9 01 00 00 00       	mov    ecx,0x1
6660:	0f 45 c1             	cmovne eax,ecx
6663:	88 44 24 17          	mov    BYTE PTR [rsp+0x17],al
6667:	48 83 c3 01          	add    rbx,0x1
666b:	4c 01 ed             	add    rbp,r13
666e:	4d 8b 34 df          	mov    r14,QWORD PTR [r15+rbx*8]
6672:	4d 85 f6             	test   r14,r14
6675:	74 41                	je     66b8 <argmatch+0xd8>
6677:	48 8b 74 24 08       	mov    rsi,QWORD PTR [rsp+0x8]
667c:	4c 89 e2             	mov    rdx,r12
667f:	4c 89 f7             	mov    rdi,r14
6682:	e8 99 b4 ff ff       	call   1b20 <strncmp@plt>
6687:	85 c0                	test   eax,eax
6689:	75 dc                	jne    6667 <argmatch+0x87>
668b:	4c 89 f7             	mov    rdi,r14
668e:	e8 5d b5 ff ff       	call   1bf0 <strlen@plt>
6693:	4c 39 e0             	cmp    rax,r12
6696:	74 58                	je     66f0 <argmatch+0x110>
6698:	48 83 3c 24 ff       	cmp    QWORD PTR [rsp],0xffffffffffffffff
669d:	75 91                	jne    6630 <argmatch+0x50>
669f:	48 89 1c 24          	mov    QWORD PTR [rsp],rbx
66a3:	48 83 c3 01          	add    rbx,0x1
66a7:	4c 01 ed             	add    rbp,r13
66aa:	4d 8b 34 df          	mov    r14,QWORD PTR [r15+rbx*8]
66ae:	4d 85 f6             	test   r14,r14
66b1:	75 c4                	jne    6677 <argmatch+0x97>
66b3:	0f 1f 44 00 00       	nop    DWORD PTR [rax+rax*1+0x0]
66b8:	80 7c 24 17 00       	cmp    BYTE PTR [rsp+0x17],0x0
66bd:	48 c7 c0 fe ff ff ff 	mov    rax,0xfffffffffffffffe
66c4:	48 0f 44 04 24       	cmove  rax,QWORD PTR [rsp]
66c9:	48 89 04 24          	mov    QWORD PTR [rsp],rax
66cd:	48 8b 04 24          	mov    rax,QWORD PTR [rsp]
66d1:	48 83 c4 28          	add    rsp,0x28
66d5:	5b                   	pop    rbx
66d6:	5d                   	pop    rbp
66d7:	41 5c                	pop    r12
66d9:	41 5d                	pop    r13
66db:	41 5e                	pop    r14
66dd:	41 5f                	pop    r15
66df:	c3                   	ret
66e0:	c6 44 24 17 01       	mov    BYTE PTR [rsp+0x17],0x1
66e5:	eb 80                	jmp    6667 <argmatch+0x87>
66e7:	66 0f 1f 84 00 00 00 	nop    WORD PTR [rax+rax*1+0x0]
66ee:	00 00
66f0:	48 89 1c 24          	mov    QWORD PTR [rsp],rbx
66f4:	eb d7                	jmp    66cd <argmatch+0xed>
66f6:	66 2e 0f 1f 84 00 00 	nop    WORD PTR cs:[rax+rax*1+0x0]
66fd:	00 00 00

0000000000006700 <argmatch_invalid>:
6700:	48 83 fa ff          	cmp    rdx,0xffffffffffffffff
6704:	41 54                	push   r12
6706:	ba 05 00 00 00       	mov    edx,0x5
670b:	55                   	push   rbp
670c:	49 89 f4             	mov    r12,rsi
670f:	53                   	push   rbx
6710:	48 89 fd             	mov    rbp,rdi
6713:	74 4b                	je     6760 <argmatch_invalid+0x60>
6715:	48 8d 35 74 62 00 00 	lea    rsi,[rip+0x6274]        # c990 <follow_mode_map+0x38>
671c:	31 ff                	xor    edi,edi
671e:	e8 ad b4 ff ff       	call   1bd0 <dcgettext@plt>
6723:	48 89 c3             	mov    rbx,rax
6726:	48 89 ee             	mov    rsi,rbp
6729:	bf 01 00 00 00       	mov    edi,0x1
672e:	e8 9d 36 00 00       	call   9dd0 <quote_n>
6733:	4c 89 e2             	mov    rdx,r12
6736:	48 89 c5             	mov    rbp,rax
6739:	be 08 00 00 00       	mov    esi,0x8
673e:	31 ff                	xor    edi,edi
6740:	e8 bb 32 00 00       	call   9a00 <quotearg_n_style>
6745:	49 89 e8             	mov    r8,rbp
6748:	48 89 da             	mov    rdx,rbx
674b:	48 89 c1             	mov    rcx,rax
674e:	5b                   	pop    rbx
674f:	5d                   	pop    rbp
6750:	41 5c                	pop    r12
6752:	31 f6                	xor    esi,esi
6754:	31 ff                	xor    edi,edi
6756:	31 c0                	xor    eax,eax
6758:	e9 03 b7 ff ff       	jmp    1e60 <error@plt>
675d:	0f 1f 00             	nop    DWORD PTR [rax]
6760:	48 8d 35 0e 62 00 00 	lea    rsi,[rip+0x620e]        # c975 <follow_mode_map+0x1d>
6767:	31 ff                	xor    edi,edi
6769:	e8 62 b4 ff ff       	call   1bd0 <dcgettext@plt>
676e:	48 89 c3             	mov    rbx,rax
6771:	eb b3                	jmp    6726 <argmatch_invalid+0x26>
6773:	0f 1f 00             	nop    DWORD PTR [rax]
6776:	66 2e 0f 1f 84 00 00 	nop    WORD PTR cs:[rax+rax*1+0x0]
677d:	00 00 00

0000000000006780 <argmatch_valid>:
6780:	41 57                	push   r15
6782:	41 56                	push   r14
6784:	49 89 fe             	mov    r14,rdi
6787:	41 55                	push   r13
6789:	41 54                	push   r12
678b:	31 ff                	xor    edi,edi
678d:	55                   	push   rbp
678e:	53                   	push   rbx
678f:	48 89 f5             	mov    rbp,rsi
6792:	48 8d 35 14 62 00 00 	lea    rsi,[rip+0x6214]        # c9ad <follow_mode_map+0x55>
6799:	49 89 d4             	mov    r12,rdx
679c:	ba 05 00 00 00       	mov    edx,0x5
67a1:	48 83 ec 08          	sub    rsp,0x8
67a5:	48 8b 1d 54 99 20 00 	mov    rbx,QWORD PTR [rip+0x209954]        # 210100 <stderr@@GLIBC_2.2.5>
67ac:	e8 1f b4 ff ff       	call   1bd0 <dcgettext@plt>
67b1:	48 89 c7             	mov    rdi,rax
67b4:	48 89 de             	mov    rsi,rbx
67b7:	e8 64 b5 ff ff       	call   1d20 <fputs_unlocked@plt>
67bc:	4d 8b 3e             	mov    r15,QWORD PTR [r14]
67bf:	4d 85 ff             	test   r15,r15
67c2:	0f 84 90 00 00 00    	je     6858 <argmatch_valid+0xd8>
67c8:	45 31 ed             	xor    r13d,r13d
67cb:	31 db                	xor    ebx,ebx
67cd:	eb 39                	jmp    6808 <argmatch_valid+0x88>
67cf:	90                   	nop
67d0:	4c 89 ff             	mov    rdi,r15
67d3:	48 83 c3 01          	add    rbx,0x1
67d7:	49 89 ed             	mov    r13,rbp
67da:	e8 11 36 00 00       	call   9df0 <quote>
67df:	48 8b 3d 1a 99 20 00 	mov    rdi,QWORD PTR [rip+0x20991a]        # 210100 <stderr@@GLIBC_2.2.5>
67e6:	48 8d 15 d5 61 00 00 	lea    rdx,[rip+0x61d5]        # c9c2 <follow_mode_map+0x6a>
67ed:	48 89 c1             	mov    rcx,rax
67f0:	be 01 00 00 00       	mov    esi,0x1
67f5:	31 c0                	xor    eax,eax
67f7:	4c 01 e5             	add    rbp,r12
67fa:	e8 e1 b6 ff ff       	call   1ee0 <__fprintf_chk@plt>
67ff:	4d 8b 3c de          	mov    r15,QWORD PTR [r14+rbx*8]
6803:	4d 85 ff             	test   r15,r15
6806:	74 50                	je     6858 <argmatch_valid+0xd8>
6808:	48 85 db             	test   rbx,rbx
680b:	74 c3                	je     67d0 <argmatch_valid+0x50>
680d:	4c 89 e2             	mov    rdx,r12
6810:	48 89 ee             	mov    rsi,rbp
6813:	4c 89 ef             	mov    rdi,r13
6816:	e8 f5 b4 ff ff       	call   1d10 <memcmp@plt>
681b:	85 c0                	test   eax,eax
681d:	75 b1                	jne    67d0 <argmatch_valid+0x50>
681f:	4c 89 ff             	mov    rdi,r15
6822:	48 83 c3 01          	add    rbx,0x1
6826:	4c 01 e5             	add    rbp,r12
6829:	e8 c2 35 00 00       	call   9df0 <quote>
682e:	48 8b 3d cb 98 20 00 	mov    rdi,QWORD PTR [rip+0x2098cb]        # 210100 <stderr@@GLIBC_2.2.5>
6835:	48 8d 15 8e 61 00 00 	lea    rdx,[rip+0x618e]        # c9ca <follow_mode_map+0x72>
683c:	48 89 c1             	mov    rcx,rax
683f:	be 01 00 00 00       	mov    esi,0x1
6844:	31 c0                	xor    eax,eax
6846:	e8 95 b6 ff ff       	call   1ee0 <__fprintf_chk@plt>
684b:	4d 8b 3c de          	mov    r15,QWORD PTR [r14+rbx*8]
684f:	4d 85 ff             	test   r15,r15
6852:	75 b4                	jne    6808 <argmatch_valid+0x88>
6854:	0f 1f 40 00          	nop    DWORD PTR [rax+0x0]
6858:	48 8b 3d a1 98 20 00 	mov    rdi,QWORD PTR [rip+0x2098a1]        # 210100 <stderr@@GLIBC_2.2.5>
685f:	48 8b 47 28          	mov    rax,QWORD PTR [rdi+0x28]
6863:	48 3b 47 30          	cmp    rax,QWORD PTR [rdi+0x30]
6867:	73 1f                	jae    6888 <argmatch_valid+0x108>
6869:	48 8d 50 01          	lea    rdx,[rax+0x1]
686d:	48 89 57 28          	mov    QWORD PTR [rdi+0x28],rdx
6871:	c6 00 0a             	mov    BYTE PTR [rax],0xa
6874:	48 83 c4 08          	add    rsp,0x8
6878:	5b                   	pop    rbx
6879:	5d                   	pop    rbp
687a:	41 5c                	pop    r12
687c:	41 5d                	pop    r13
687e:	41 5e                	pop    r14
6880:	41 5f                	pop    r15
6882:	c3                   	ret
6883:	0f 1f 44 00 00       	nop    DWORD PTR [rax+rax*1+0x0]
6888:	48 83 c4 08          	add    rsp,0x8
688c:	be 0a 00 00 00       	mov    esi,0xa
6891:	5b                   	pop    rbx
6892:	5d                   	pop    rbp
6893:	41 5c                	pop    r12
6895:	41 5d                	pop    r13
6897:	41 5e                	pop    r14
6899:	41 5f                	pop    r15
689b:	e9 e0 b3 ff ff       	jmp    1c80 <__overflow@plt>

00000000000068a0 <__xargmatch_internal>:
68a0:	41 57                	push   r15
68a2:	41 56                	push   r14
68a4:	49 89 fe             	mov    r14,rdi
68a7:	41 55                	push   r13
68a9:	41 54                	push   r12
68ab:	49 89 f4             	mov    r12,rsi
68ae:	55                   	push   rbp
68af:	53                   	push   rbx
68b0:	48 89 cd             	mov    rbp,rcx
68b3:	48 89 d3             	mov    rbx,rdx
68b6:	4c 89 c1             	mov    rcx,r8
68b9:	48 89 ea             	mov    rdx,rbp
68bc:	48 83 ec 08          	sub    rsp,0x8
68c0:	48 89 de             	mov    rsi,rbx
68c3:	4c 89 e7             	mov    rdi,r12
68c6:	4d 89 c7             	mov    r15,r8
68c9:	4d 89 cd             	mov    r13,r9
68cc:	e8 0f fd ff ff       	call   65e0 <argmatch>
68d1:	48 85 c0             	test   rax,rax
68d4:	78 0f                	js     68e5 <__xargmatch_internal+0x45>
68d6:	48 83 c4 08          	add    rsp,0x8
68da:	5b                   	pop    rbx
68db:	5d                   	pop    rbp
68dc:	41 5c                	pop    r12
68de:	41 5d                	pop    r13
68e0:	41 5e                	pop    r14
68e2:	41 5f                	pop    r15
68e4:	c3                   	ret
68e5:	48 89 c2             	mov    rdx,rax
68e8:	4c 89 e6             	mov    rsi,r12
68eb:	4c 89 f7             	mov    rdi,r14
68ee:	e8 0d fe ff ff       	call   6700 <argmatch_invalid>
68f3:	4c 89 fa             	mov    rdx,r15
68f6:	48 89 ee             	mov    rsi,rbp
68f9:	48 89 df             	mov    rdi,rbx
68fc:	e8 7f fe ff ff       	call   6780 <argmatch_valid>
6901:	41 ff d5             	call   r13
6904:	48 c7 c0 ff ff ff ff 	mov    rax,0xffffffffffffffff
690b:	eb c9                	jmp    68d6 <__xargmatch_internal+0x36>
690d:	0f 1f 00             	nop    DWORD PTR [rax]

0000000000006910 <argmatch_to_argument>:
6910:	41 56                	push   r14
6912:	41 55                	push   r13
6914:	41 54                	push   r12
6916:	55                   	push   rbp
6917:	53                   	push   rbx
6918:	4c 8b 36             	mov    r14,QWORD PTR [rsi]
691b:	4d 85 f6             	test   r14,r14
691e:	74 31                	je     6951 <argmatch_to_argument+0x41>
6920:	49 89 cc             	mov    r12,rcx
6923:	49 89 fd             	mov    r13,rdi
6926:	48 89 d5             	mov    rbp,rdx
6929:	48 8d 5e 08          	lea    rbx,[rsi+0x8]
692d:	eb 10                	jmp    693f <argmatch_to_argument+0x2f>
692f:	90                   	nop
6930:	4c 8b 33             	mov    r14,QWORD PTR [rbx]
6933:	4c 01 e5             	add    rbp,r12
6936:	48 83 c3 08          	add    rbx,0x8
693a:	4d 85 f6             	test   r14,r14
693d:	74 12                	je     6951 <argmatch_to_argument+0x41>
693f:	4c 89 e2             	mov    rdx,r12
6942:	48 89 ee             	mov    rsi,rbp
6945:	4c 89 ef             	mov    rdi,r13
6948:	e8 c3 b3 ff ff       	call   1d10 <memcmp@plt>
694d:	85 c0                	test   eax,eax
694f:	75 df                	jne    6930 <argmatch_to_argument+0x20>
6951:	5b                   	pop    rbx
6952:	4c 89 f0             	mov    rax,r14
6955:	5d                   	pop    rbp
6956:	41 5c                	pop    r12
6958:	41 5d                	pop    r13
695a:	41 5e                	pop    r14
695c:	c3                   	ret
695d:	0f 1f 00             	nop    DWORD PTR [rax]

0000000000006960 <cl_strtod>:
6960:	41 55                	push   r13
6962:	41 54                	push   r12
6964:	55                   	push   rbp
6965:	53                   	push   rbx
6966:	48 89 f3             	mov    rbx,rsi
6969:	48 89 fd             	mov    rbp,rdi
696c:	48 83 ec 38          	sub    rsp,0x38
6970:	48 8d 74 24 18       	lea    rsi,[rsp+0x18]
6975:	64 48 8b 04 25 28 00 	mov    rax,QWORD PTR fs:0x28
697c:	00 00
697e:	48 89 44 24 28       	mov    QWORD PTR [rsp+0x28],rax
6983:	31 c0                	xor    eax,eax
6985:	e8 d6 b1 ff ff       	call   1b60 <strtod@plt>
698a:	48 8b 44 24 18       	mov    rax,QWORD PTR [rsp+0x18]
698f:	66 0f 28 c8          	movapd xmm1,xmm0
6993:	80 38 00             	cmp    BYTE PTR [rax],0x0
6996:	75 30                	jne    69c8 <cl_strtod+0x68>
6998:	48 85 db             	test   rbx,rbx
699b:	74 08                	je     69a5 <cl_strtod+0x45>
699d:	48 8b 44 24 18       	mov    rax,QWORD PTR [rsp+0x18]
69a2:	48 89 03             	mov    QWORD PTR [rbx],rax
69a5:	48 8b 44 24 28       	mov    rax,QWORD PTR [rsp+0x28]
69aa:	64 48 33 04 25 28 00 	xor    rax,QWORD PTR fs:0x28
69b1:	00 00
69b3:	66 0f 28 c1          	movapd xmm0,xmm1
69b7:	75 55                	jne    6a0e <cl_strtod+0xae>
69b9:	48 83 c4 38          	add    rsp,0x38
69bd:	5b                   	pop    rbx
69be:	5d                   	pop    rbp
69bf:	41 5c                	pop    r12
69c1:	41 5d                	pop    r13
69c3:	c3                   	ret
69c4:	0f 1f 40 00          	nop    DWORD PTR [rax+0x0]
69c8:	f2 0f 11 44 24 08    	movsd  QWORD PTR [rsp+0x8],xmm0
69ce:	e8 3d b1 ff ff       	call   1b10 <__errno_location@plt>
69d3:	48 8d 74 24 20       	lea    rsi,[rsp+0x20]
69d8:	48 89 ef             	mov    rdi,rbp
69db:	49 89 c4             	mov    r12,rax
69de:	44 8b 28             	mov    r13d,DWORD PTR [rax]
69e1:	e8 fa 47 00 00       	call   b1e0 <c_strtod>
69e6:	48 8b 44 24 20       	mov    rax,QWORD PTR [rsp+0x20]
69eb:	48 39 44 24 18       	cmp    QWORD PTR [rsp+0x18],rax
69f0:	f2 0f 10 4c 24 08    	movsd  xmm1,QWORD PTR [rsp+0x8]
69f6:	73 10                	jae    6a08 <cl_strtod+0xa8>
69f8:	48 89 44 24 18       	mov    QWORD PTR [rsp+0x18],rax
69fd:	66 0f 28 c8          	movapd xmm1,xmm0
6a01:	eb 95                	jmp    6998 <cl_strtod+0x38>
6a03:	0f 1f 44 00 00       	nop    DWORD PTR [rax+rax*1+0x0]
6a08:	45 89 2c 24          	mov    DWORD PTR [r12],r13d
6a0c:	eb 8a                	jmp    6998 <cl_strtod+0x38>
6a0e:	e8 fd b1 ff ff       	call   1c10 <__stack_chk_fail@plt>
6a13:	66 2e 0f 1f 84 00 00 	nop    WORD PTR cs:[rax+rax*1+0x0]
6a1a:	00 00 00
6a1d:	0f 1f 00             	nop    DWORD PTR [rax]

0000000000006a20 <close_stdout_set_file_name>:
6a20:	48 89 3d 01 97 20 00 	mov    QWORD PTR [rip+0x209701],rdi        # 210128 <file_name>
6a27:	c3                   	ret
6a28:	0f 1f 84 00 00 00 00 	nop    DWORD PTR [rax+rax*1+0x0]
6a2f:	00

0000000000006a30 <close_stdout_set_ignore_EPIPE>:
6a30:	40 88 3d e9 96 20 00 	mov    BYTE PTR [rip+0x2096e9],dil        # 210120 <ignore_EPIPE>
6a37:	c3                   	ret
6a38:	0f 1f 84 00 00 00 00 	nop    DWORD PTR [rax+rax*1+0x0]
6a3f:	00

0000000000006a40 <close_stdout>:
6a40:	55                   	push   rbp
6a41:	53                   	push   rbx
6a42:	48 83 ec 08          	sub    rsp,0x8
6a46:	48 8b 3d 7b 96 20 00 	mov    rdi,QWORD PTR [rip+0x20967b]        # 2100c8 <stdout@@GLIBC_2.2.5>
6a4d:	e8 fe 47 00 00       	call   b250 <close_stream>
6a52:	85 c0                	test   eax,eax
6a54:	74 16                	je     6a6c <close_stdout+0x2c>
6a56:	e8 b5 b0 ff ff       	call   1b10 <__errno_location@plt>
6a5b:	80 3d be 96 20 00 00 	cmp    BYTE PTR [rip+0x2096be],0x0        # 210120 <ignore_EPIPE>
6a62:	48 89 c3             	mov    rbx,rax
6a65:	74 1c                	je     6a83 <close_stdout+0x43>
6a67:	83 38 20             	cmp    DWORD PTR [rax],0x20
6a6a:	75 17                	jne    6a83 <close_stdout+0x43>
6a6c:	48 8b 3d 8d 96 20 00 	mov    rdi,QWORD PTR [rip+0x20968d]        # 210100 <stderr@@GLIBC_2.2.5>
6a73:	e8 d8 47 00 00       	call   b250 <close_stream>
6a78:	85 c0                	test   eax,eax
6a7a:	75 46                	jne    6ac2 <close_stdout+0x82>
6a7c:	48 83 c4 08          	add    rsp,0x8
6a80:	5b                   	pop    rbx
6a81:	5d                   	pop    rbp
6a82:	c3                   	ret
6a83:	48 8d 35 0c 4c 00 00 	lea    rsi,[rip+0x4c0c]        # b696 <_IO_stdin_used+0x96>
6a8a:	31 ff                	xor    edi,edi
6a8c:	ba 05 00 00 00       	mov    edx,0x5
6a91:	e8 3a b1 ff ff       	call   1bd0 <dcgettext@plt>
6a96:	48 8b 3d 8b 96 20 00 	mov    rdi,QWORD PTR [rip+0x20968b]        # 210128 <file_name>
6a9d:	48 89 c5             	mov    rbp,rax
6aa0:	48 85 ff             	test   rdi,rdi
6aa3:	74 28                	je     6acd <close_stdout+0x8d>
6aa5:	e8 46 31 00 00       	call   9bf0 <quotearg_colon>
6aaa:	8b 33                	mov    esi,DWORD PTR [rbx]
6aac:	48 8d 15 4f 4d 00 00 	lea    rdx,[rip+0x4d4f]        # b802 <_IO_stdin_used+0x202>
6ab3:	48 89 c1             	mov    rcx,rax
6ab6:	49 89 e8             	mov    r8,rbp
6ab9:	31 ff                	xor    edi,edi
6abb:	31 c0                	xor    eax,eax
6abd:	e8 9e b3 ff ff       	call   1e60 <error@plt>
6ac2:	8b 3d 78 95 20 00    	mov    edi,DWORD PTR [rip+0x209578]        # 210040 <exit_failure>
6ac8:	e8 63 b0 ff ff       	call   1b30 <_exit@plt>
6acd:	8b 33                	mov    esi,DWORD PTR [rbx]
6acf:	48 8d 15 f6 5e 00 00 	lea    rdx,[rip+0x5ef6]        # c9cc <follow_mode_map+0x74>
6ad6:	48 89 c1             	mov    rcx,rax
6ad9:	31 ff                	xor    edi,edi
6adb:	31 c0                	xor    eax,eax
6add:	e8 7e b3 ff ff       	call   1e60 <error@plt>
6ae2:	eb de                	jmp    6ac2 <close_stdout+0x82>
6ae4:	66 2e 0f 1f 84 00 00 	nop    WORD PTR cs:[rax+rax*1+0x0]
6aeb:	00 00 00
6aee:	66 90                	xchg   ax,ax

0000000000006af0 <dir_len>:
6af0:	55                   	push   rbp
6af1:	53                   	push   rbx
6af2:	31 ed                	xor    ebp,ebp
6af4:	48 89 fb             	mov    rbx,rdi
6af7:	48 83 ec 08          	sub    rsp,0x8
6afb:	80 3f 2f             	cmp    BYTE PTR [rdi],0x2f
6afe:	40 0f 94 c5          	sete   bpl
6b02:	e8 a9 00 00 00       	call   6bb0 <last_component>
6b07:	48 89 c1             	mov    rcx,rax
6b0a:	48 29 d9             	sub    rcx,rbx
6b0d:	48 39 e9             	cmp    rcx,rbp
6b10:	76 2e                	jbe    6b40 <dir_len+0x50>
6b12:	80 78 ff 2f          	cmp    BYTE PTR [rax-0x1],0x2f
6b16:	48 8d 51 ff          	lea    rdx,[rcx-0x1]
6b1a:	74 12                	je     6b2e <dir_len+0x3e>
6b1c:	eb 22                	jmp    6b40 <dir_len+0x50>
6b1e:	66 90                	xchg   ax,ax
6b20:	80 7c 13 ff 2f       	cmp    BYTE PTR [rbx+rdx*1-0x1],0x2f
6b25:	48 8d 42 ff          	lea    rax,[rdx-0x1]
6b29:	75 08                	jne    6b33 <dir_len+0x43>
6b2b:	48 89 c2             	mov    rdx,rax
6b2e:	48 39 d5             	cmp    rbp,rdx
6b31:	75 ed                	jne    6b20 <dir_len+0x30>
6b33:	48 83 c4 08          	add    rsp,0x8
6b37:	48 89 d0             	mov    rax,rdx
6b3a:	5b                   	pop    rbx
6b3b:	5d                   	pop    rbp
6b3c:	c3                   	ret
6b3d:	0f 1f 00             	nop    DWORD PTR [rax]
6b40:	48 83 c4 08          	add    rsp,0x8
6b44:	48 89 ca             	mov    rdx,rcx
6b47:	48 89 d0             	mov    rax,rdx
6b4a:	5b                   	pop    rbx
6b4b:	5d                   	pop    rbp
6b4c:	c3                   	ret
6b4d:	0f 1f 00             	nop    DWORD PTR [rax]

0000000000006b50 <mdir_name>:
6b50:	55                   	push   rbp
6b51:	53                   	push   rbx
6b52:	48 89 fd             	mov    rbp,rdi
6b55:	48 83 ec 08          	sub    rsp,0x8
6b59:	e8 92 ff ff ff       	call   6af0 <dir_len>
6b5e:	48 85 c0             	test   rax,rax
6b61:	48 89 c3             	mov    rbx,rax
6b64:	0f 94 c0             	sete   al
6b67:	0f b6 c0             	movzx  eax,al
6b6a:	48 8d 7c 03 01       	lea    rdi,[rbx+rax*1+0x1]
6b6f:	e8 4c b2 ff ff       	call   1dc0 <malloc@plt>
6b74:	48 85 c0             	test   rax,rax
6b77:	48 89 c1             	mov    rcx,rax
6b7a:	74 1a                	je     6b96 <mdir_name+0x46>
6b7c:	48 89 da             	mov    rdx,rbx
6b7f:	48 89 ee             	mov    rsi,rbp
6b82:	48 89 c7             	mov    rdi,rax
6b85:	e8 d6 b1 ff ff       	call   1d60 <memcpy@plt>
6b8a:	48 85 db             	test   rbx,rbx
6b8d:	48 89 c1             	mov    rcx,rax
6b90:	74 0e                	je     6ba0 <mdir_name+0x50>
6b92:	c6 04 19 00          	mov    BYTE PTR [rcx+rbx*1],0x0
6b96:	48 83 c4 08          	add    rsp,0x8
6b9a:	48 89 c8             	mov    rax,rcx
6b9d:	5b                   	pop    rbx
6b9e:	5d                   	pop    rbp
6b9f:	c3                   	ret
6ba0:	c6 00 2e             	mov    BYTE PTR [rax],0x2e
6ba3:	bb 01 00 00 00       	mov    ebx,0x1
6ba8:	eb e8                	jmp    6b92 <mdir_name+0x42>
6baa:	66 0f 1f 44 00 00    	nop    WORD PTR [rax+rax*1+0x0]

0000000000006bb0 <last_component>:
6bb0:	0f b6 17             	movzx  edx,BYTE PTR [rdi]
6bb3:	48 89 f8             	mov    rax,rdi
6bb6:	80 fa 2f             	cmp    dl,0x2f
6bb9:	75 11                	jne    6bcc <last_component+0x1c>
6bbb:	0f 1f 44 00 00       	nop    DWORD PTR [rax+rax*1+0x0]
6bc0:	48 83 c0 01          	add    rax,0x1
6bc4:	0f b6 10             	movzx  edx,BYTE PTR [rax]
6bc7:	80 fa 2f             	cmp    dl,0x2f
6bca:	74 f4                	je     6bc0 <last_component+0x10>
6bcc:	84 d2                	test   dl,dl
6bce:	74 3a                	je     6c0a <last_component+0x5a>
6bd0:	48 89 c1             	mov    rcx,rax
6bd3:	31 f6                	xor    esi,esi
6bd5:	eb 1e                	jmp    6bf5 <last_component+0x45>
6bd7:	66 0f 1f 84 00 00 00 	nop    WORD PTR [rax+rax*1+0x0]
6bde:	00 00
6be0:	40 84 f6             	test   sil,sil
6be3:	74 05                	je     6bea <last_component+0x3a>
6be5:	48 89 c8             	mov    rax,rcx
6be8:	31 f6                	xor    esi,esi
6bea:	48 83 c1 01          	add    rcx,0x1
6bee:	0f b6 11             	movzx  edx,BYTE PTR [rcx]
6bf1:	84 d2                	test   dl,dl
6bf3:	74 15                	je     6c0a <last_component+0x5a>
6bf5:	80 fa 2f             	cmp    dl,0x2f
6bf8:	75 e6                	jne    6be0 <last_component+0x30>
6bfa:	48 83 c1 01          	add    rcx,0x1
6bfe:	0f b6 11             	movzx  edx,BYTE PTR [rcx]
6c01:	be 01 00 00 00       	mov    esi,0x1
6c06:	84 d2                	test   dl,dl
6c08:	75 eb                	jne    6bf5 <last_component+0x45>
6c0a:	f3 c3                	repz ret
6c0c:	0f 1f 40 00          	nop    DWORD PTR [rax+0x0]

0000000000006c10 <base_len>:
6c10:	53                   	push   rbx
6c11:	48 89 fb             	mov    rbx,rdi
6c14:	e8 d7 af ff ff       	call   1bf0 <strlen@plt>
6c19:	48 83 f8 01          	cmp    rax,0x1
6c1d:	76 0b                	jbe    6c2a <base_len+0x1a>
6c1f:	80 7c 03 ff 2f       	cmp    BYTE PTR [rbx+rax*1-0x1],0x2f
6c24:	48 8d 50 ff          	lea    rdx,[rax-0x1]
6c28:	74 0e                	je     6c38 <base_len+0x28>
6c2a:	5b                   	pop    rbx
6c2b:	c3                   	ret
6c2c:	0f 1f 40 00          	nop    DWORD PTR [rax+0x0]
6c30:	48 89 c2             	mov    rdx,rax
6c33:	0f 1f 44 00 00       	nop    DWORD PTR [rax+rax*1+0x0]
6c38:	48 83 fa 01          	cmp    rdx,0x1
6c3c:	74 12                	je     6c50 <base_len+0x40>
6c3e:	80 7c 13 ff 2f       	cmp    BYTE PTR [rbx+rdx*1-0x1],0x2f
6c43:	48 8d 42 ff          	lea    rax,[rdx-0x1]
6c47:	74 e7                	je     6c30 <base_len+0x20>
6c49:	48 89 d0             	mov    rax,rdx
6c4c:	5b                   	pop    rbx
6c4d:	c3                   	ret
6c4e:	66 90                	xchg   ax,ax
6c50:	b8 01 00 00 00       	mov    eax,0x1
6c55:	5b                   	pop    rbx
6c56:	c3                   	ret
6c57:	66 0f 1f 84 00 00 00 	nop    WORD PTR [rax+rax*1+0x0]
6c5e:	00 00

0000000000006c60 <open_safer>:
6c60:	48 83 ec 58          	sub    rsp,0x58
6c64:	48 89 54 24 30       	mov    QWORD PTR [rsp+0x30],rdx
6c69:	31 d2                	xor    edx,edx
6c6b:	64 48 8b 04 25 28 00 	mov    rax,QWORD PTR fs:0x28
6c72:	00 00
6c74:	48 89 44 24 18       	mov    QWORD PTR [rsp+0x18],rax
6c79:	31 c0                	xor    eax,eax
6c7b:	40 f6 c6 40          	test   sil,0x40
6c7f:	75 27                	jne    6ca8 <open_safer+0x48>
6c81:	31 c0                	xor    eax,eax
6c83:	e8 f8 b1 ff ff       	call   1e80 <open@plt>
6c88:	89 c7                	mov    edi,eax
6c8a:	e8 e1 31 00 00       	call   9e70 <fd_safer>
6c8f:	48 8b 4c 24 18       	mov    rcx,QWORD PTR [rsp+0x18]
6c94:	64 48 33 0c 25 28 00 	xor    rcx,QWORD PTR fs:0x28
6c9b:	00 00
6c9d:	75 2a                	jne    6cc9 <open_safer+0x69>
6c9f:	48 83 c4 58          	add    rsp,0x58
6ca3:	c3                   	ret
6ca4:	0f 1f 40 00          	nop    DWORD PTR [rax+0x0]
6ca8:	48 8d 44 24 60       	lea    rax,[rsp+0x60]
6cad:	c7 04 24 10 00 00 00 	mov    DWORD PTR [rsp],0x10
6cb4:	8b 54 24 30          	mov    edx,DWORD PTR [rsp+0x30]
6cb8:	48 89 44 24 08       	mov    QWORD PTR [rsp+0x8],rax
6cbd:	48 8d 44 24 20       	lea    rax,[rsp+0x20]
6cc2:	48 89 44 24 10       	mov    QWORD PTR [rsp+0x10],rax
6cc7:	eb b8                	jmp    6c81 <open_safer+0x21>
6cc9:	e8 42 af ff ff       	call   1c10 <__stack_chk_fail@plt>
6cce:	66 90                	xchg   ax,ax

0000000000006cd0 <next_prime>:
6cd0:	48 83 ff 0a          	cmp    rdi,0xa
6cd4:	b8 0a 00 00 00       	mov    eax,0xa
6cd9:	49 b9 ab aa aa aa aa 	movabs r9,0xaaaaaaaaaaaaaaab
6ce0:	aa aa aa
6ce3:	48 0f 42 f8          	cmovb  rdi,rax
6ce7:	48 83 cf 01          	or     rdi,0x1
6ceb:	48 83 ff ff          	cmp    rdi,0xffffffffffffffff
6cef:	74 6e                	je     6d5f <next_prime+0x8f>
6cf1:	0f 1f 80 00 00 00 00 	nop    DWORD PTR [rax+0x0]
6cf8:	48 89 f8             	mov    rax,rdi
6cfb:	48 89 f9             	mov    rcx,rdi
6cfe:	49 f7 e1             	mul    r9
6d01:	48 89 d0             	mov    rax,rdx
6d04:	48 d1 e8             	shr    rax,1
6d07:	48 8d 04 40          	lea    rax,[rax+rax*2]
6d0b:	48 29 c1             	sub    rcx,rax
6d0e:	48 83 ff 09          	cmp    rdi,0x9
6d12:	48 89 c8             	mov    rax,rcx
6d15:	76 39                	jbe    6d50 <next_prime+0x80>
6d17:	48 85 c9             	test   rcx,rcx
6d1a:	74 39                	je     6d55 <next_prime+0x85>
6d1c:	41 b8 10 00 00 00    	mov    r8d,0x10
6d22:	be 09 00 00 00       	mov    esi,0x9
6d27:	b9 03 00 00 00       	mov    ecx,0x3
6d2c:	eb 0b                	jmp    6d39 <next_prime+0x69>
6d2e:	66 90                	xchg   ax,ax
6d30:	49 83 c0 08          	add    r8,0x8
6d34:	48 85 d2             	test   rdx,rdx
6d37:	74 1c                	je     6d55 <next_prime+0x85>
6d39:	48 83 c1 02          	add    rcx,0x2
6d3d:	31 d2                	xor    edx,edx
6d3f:	48 89 f8             	mov    rax,rdi
6d42:	48 f7 f1             	div    rcx
6d45:	4c 01 c6             	add    rsi,r8
6d48:	48 39 fe             	cmp    rsi,rdi
6d4b:	48 89 d0             	mov    rax,rdx
6d4e:	72 e0                	jb     6d30 <next_prime+0x60>
6d50:	48 85 c0             	test   rax,rax
6d53:	75 0a                	jne    6d5f <next_prime+0x8f>
6d55:	48 83 c7 02          	add    rdi,0x2
6d59:	48 83 ff ff          	cmp    rdi,0xffffffffffffffff
6d5d:	75 99                	jne    6cf8 <next_prime+0x28>
6d5f:	48 89 f8             	mov    rax,rdi
6d62:	c3                   	ret
6d63:	0f 1f 00             	nop    DWORD PTR [rax]
6d66:	66 2e 0f 1f 84 00 00 	nop    WORD PTR cs:[rax+rax*1+0x0]
6d6d:	00 00 00

0000000000006d70 <raw_hasher>:
6d70:	48 89 f8             	mov    rax,rdi
6d73:	31 d2                	xor    edx,edx
6d75:	48 c1 c8 03          	ror    rax,0x3
6d79:	48 f7 f6             	div    rsi
6d7c:	48 89 d0             	mov    rax,rdx
6d7f:	c3                   	ret

0000000000006d80 <raw_comparator>:
6d80:	48 39 f7             	cmp    rdi,rsi
6d83:	0f 94 c0             	sete   al
6d86:	c3                   	ret
6d87:	66 0f 1f 84 00 00 00 	nop    WORD PTR [rax+rax*1+0x0]
6d8e:	00 00

0000000000006d90 <safe_hasher>:
6d90:	53                   	push   rbx
6d91:	48 89 fb             	mov    rbx,rdi
6d94:	48 89 f7             	mov    rdi,rsi
6d97:	48 8b 73 10          	mov    rsi,QWORD PTR [rbx+0x10]
6d9b:	ff 53 30             	call   QWORD PTR [rbx+0x30]
6d9e:	48 39 43 10          	cmp    QWORD PTR [rbx+0x10],rax
6da2:	76 09                	jbe    6dad <safe_hasher+0x1d>
6da4:	48 c1 e0 04          	shl    rax,0x4
6da8:	48 03 03             	add    rax,QWORD PTR [rbx]
6dab:	5b                   	pop    rbx
6dac:	c3                   	ret
6dad:	e8 4e ad ff ff       	call   1b00 <abort@plt>
6db2:	0f 1f 40 00          	nop    DWORD PTR [rax+0x0]
6db6:	66 2e 0f 1f 84 00 00 	nop    WORD PTR cs:[rax+rax*1+0x0]
6dbd:	00 00 00

0000000000006dc0 <hash_find_entry>:
6dc0:	41 56                	push   r14
6dc2:	41 55                	push   r13
6dc4:	49 89 d6             	mov    r14,rdx
6dc7:	41 54                	push   r12
6dc9:	55                   	push   rbp
6dca:	49 89 fc             	mov    r12,rdi
6dcd:	53                   	push   rbx
6dce:	48 89 f5             	mov    rbp,rsi
6dd1:	41 89 cd             	mov    r13d,ecx
6dd4:	e8 b7 ff ff ff       	call   6d90 <safe_hasher>
6dd9:	49 89 06             	mov    QWORD PTR [r14],rax
6ddc:	48 8b 30             	mov    rsi,QWORD PTR [rax]
6ddf:	48 85 f6             	test   rsi,rsi
6de2:	0f 84 e8 00 00 00    	je     6ed0 <hash_find_entry+0x110>
6de8:	48 39 ee             	cmp    rsi,rbp
6deb:	48 89 c3             	mov    rbx,rax
6dee:	0f 84 8f 00 00 00    	je     6e83 <hash_find_entry+0xc3>
6df4:	48 89 ef             	mov    rdi,rbp
6df7:	41 ff 54 24 38       	call   QWORD PTR [r12+0x38]
6dfc:	84 c0                	test   al,al
6dfe:	0f 85 7c 00 00 00    	jne    6e80 <hash_find_entry+0xc0>
6e04:	48 8b 43 08          	mov    rax,QWORD PTR [rbx+0x8]
6e08:	48 85 c0             	test   rax,rax
6e0b:	0f 84 bf 00 00 00    	je     6ed0 <hash_find_entry+0x110>
6e11:	48 8b 30             	mov    rsi,QWORD PTR [rax]
6e14:	48 39 f5             	cmp    rbp,rsi
6e17:	75 20                	jne    6e39 <hash_find_entry+0x79>
6e19:	eb 31                	jmp    6e4c <hash_find_entry+0x8c>
6e1b:	0f 1f 44 00 00       	nop    DWORD PTR [rax+rax*1+0x0]
6e20:	48 8b 5b 08          	mov    rbx,QWORD PTR [rbx+0x8]
6e24:	48 8b 43 08          	mov    rax,QWORD PTR [rbx+0x8]
6e28:	48 85 c0             	test   rax,rax
6e2b:	0f 84 9f 00 00 00    	je     6ed0 <hash_find_entry+0x110>
6e31:	48 8b 30             	mov    rsi,QWORD PTR [rax]
6e34:	48 39 ee             	cmp    rsi,rbp
6e37:	74 13                	je     6e4c <hash_find_entry+0x8c>
6e39:	48 89 ef             	mov    rdi,rbp
6e3c:	41 ff 54 24 38       	call   QWORD PTR [r12+0x38]
6e41:	84 c0                	test   al,al
6e43:	74 db                	je     6e20 <hash_find_entry+0x60>
6e45:	48 8b 43 08          	mov    rax,QWORD PTR [rbx+0x8]
6e49:	48 8b 30             	mov    rsi,QWORD PTR [rax]
6e4c:	45 84 ed             	test   r13b,r13b
6e4f:	74 1d                	je     6e6e <hash_find_entry+0xae>
6e51:	48 8b 50 08          	mov    rdx,QWORD PTR [rax+0x8]
6e55:	48 89 53 08          	mov    QWORD PTR [rbx+0x8],rdx
6e59:	48 c7 00 00 00 00 00 	mov    QWORD PTR [rax],0x0
6e60:	49 8b 54 24 48       	mov    rdx,QWORD PTR [r12+0x48]
6e65:	48 89 50 08          	mov    QWORD PTR [rax+0x8],rdx
6e69:	49 89 44 24 48       	mov    QWORD PTR [r12+0x48],rax
6e6e:	5b                   	pop    rbx
6e6f:	48 89 f0             	mov    rax,rsi
6e72:	5d                   	pop    rbp
6e73:	41 5c                	pop    r12
6e75:	41 5d                	pop    r13
6e77:	41 5e                	pop    r14
6e79:	c3                   	ret
6e7a:	66 0f 1f 44 00 00    	nop    WORD PTR [rax+rax*1+0x0]
6e80:	48 8b 33             	mov    rsi,QWORD PTR [rbx]
6e83:	45 84 ed             	test   r13b,r13b
6e86:	74 e6                	je     6e6e <hash_find_entry+0xae>
6e88:	48 8b 43 08          	mov    rax,QWORD PTR [rbx+0x8]
6e8c:	48 85 c0             	test   rax,rax
6e8f:	74 2f                	je     6ec0 <hash_find_entry+0x100>
6e91:	f3 0f 6f 00          	movdqu xmm0,XMMWORD PTR [rax]
6e95:	0f 11 03             	movups XMMWORD PTR [rbx],xmm0
6e98:	48 c7 00 00 00 00 00 	mov    QWORD PTR [rax],0x0
6e9f:	49 8b 54 24 48       	mov    rdx,QWORD PTR [r12+0x48]
6ea4:	48 89 50 08          	mov    QWORD PTR [rax+0x8],rdx
6ea8:	49 89 44 24 48       	mov    QWORD PTR [r12+0x48],rax
6ead:	48 89 f0             	mov    rax,rsi
6eb0:	5b                   	pop    rbx
6eb1:	5d                   	pop    rbp
6eb2:	41 5c                	pop    r12
6eb4:	41 5d                	pop    r13
6eb6:	41 5e                	pop    r14
6eb8:	c3                   	ret
6eb9:	0f 1f 80 00 00 00 00 	nop    DWORD PTR [rax+0x0]
6ec0:	48 c7 03 00 00 00 00 	mov    QWORD PTR [rbx],0x0
6ec7:	eb a5                	jmp    6e6e <hash_find_entry+0xae>
6ec9:	0f 1f 80 00 00 00 00 	nop    DWORD PTR [rax+0x0]
6ed0:	31 f6                	xor    esi,esi
6ed2:	5b                   	pop    rbx
6ed3:	48 89 f0             	mov    rax,rsi
6ed6:	5d                   	pop    rbp
6ed7:	41 5c                	pop    r12
6ed9:	41 5d                	pop    r13
6edb:	41 5e                	pop    r14
6edd:	c3                   	ret
6ede:	66 90                	xchg   ax,ax

0000000000006ee0 <check_tuning.isra.0>:
6ee0:	48 8b 17             	mov    rdx,QWORD PTR [rdi]
6ee3:	48 8d 0d 56 5b 00 00 	lea    rcx,[rip+0x5b56]        # ca40 <default_tuning>
6eea:	b8 01 00 00 00       	mov    eax,0x1
6eef:	48 39 ca             	cmp    rdx,rcx
6ef2:	74 61                	je     6f55 <check_tuning.isra.0+0x75>
6ef4:	f3 0f 10 42 08       	movss  xmm0,DWORD PTR [rdx+0x8]
6ef9:	0f 2e 05 54 5b 00 00 	ucomiss xmm0,DWORD PTR [rip+0x5b54]        # ca54 <default_tuning+0x14>
6f00:	76 4e                	jbe    6f50 <check_tuning.isra.0+0x70>
6f02:	f3 0f 10 0d 4e 5b 00 	movss  xmm1,DWORD PTR [rip+0x5b4e]        # ca58 <default_tuning+0x18>
6f09:	00
6f0a:	0f 2e c8             	ucomiss xmm1,xmm0
6f0d:	76 41                	jbe    6f50 <check_tuning.isra.0+0x70>
6f0f:	f3 0f 10 4a 0c       	movss  xmm1,DWORD PTR [rdx+0xc]
6f14:	0f 2e 0d 41 5b 00 00 	ucomiss xmm1,DWORD PTR [rip+0x5b41]        # ca5c <default_tuning+0x1c>
6f1b:	76 33                	jbe    6f50 <check_tuning.isra.0+0x70>
6f1d:	f3 0f 10 0a          	movss  xmm1,DWORD PTR [rdx]
6f21:	0f 2e 0d 38 5b 00 00 	ucomiss xmm1,DWORD PTR [rip+0x5b38]        # ca60 <default_tuning+0x20>
6f28:	72 26                	jb     6f50 <check_tuning.isra.0+0x70>
6f2a:	f3 0f 58 0d 22 5b 00 	addss  xmm1,DWORD PTR [rip+0x5b22]        # ca54 <default_tuning+0x14>
6f31:	00
6f32:	f3 0f 10 52 04       	movss  xmm2,DWORD PTR [rdx+0x4]
6f37:	0f 2e d1             	ucomiss xmm2,xmm1
6f3a:	76 14                	jbe    6f50 <check_tuning.isra.0+0x70>
6f3c:	f3 0f 10 1d 20 5b 00 	movss  xmm3,DWORD PTR [rip+0x5b20]        # ca64 <default_tuning+0x24>
6f43:	00
6f44:	0f 2e da             	ucomiss xmm3,xmm2
6f47:	72 07                	jb     6f50 <check_tuning.isra.0+0x70>
6f49:	0f 2e c1             	ucomiss xmm0,xmm1
6f4c:	77 07                	ja     6f55 <check_tuning.isra.0+0x75>
6f4e:	66 90                	xchg   ax,ax
6f50:	48 89 0f             	mov    QWORD PTR [rdi],rcx
6f53:	31 c0                	xor    eax,eax
6f55:	f3 c3                	repz ret
6f57:	66 0f 1f 84 00 00 00 	nop    WORD PTR [rax+rax*1+0x0]
6f5e:	00 00

0000000000006f60 <transfer_entries>:
6f60:	41 57                	push   r15
6f62:	41 56                	push   r14
6f64:	41 55                	push   r13
6f66:	41 54                	push   r12
6f68:	55                   	push   rbp
6f69:	53                   	push   rbx
6f6a:	48 83 ec 08          	sub    rsp,0x8
6f6e:	4c 8b 26             	mov    r12,QWORD PTR [rsi]
6f71:	4c 3b 66 08          	cmp    r12,QWORD PTR [rsi+0x8]
6f75:	0f 83 dd 00 00 00    	jae    7058 <transfer_entries+0xf8>
6f7b:	48 89 fd             	mov    rbp,rdi
6f7e:	49 89 f5             	mov    r13,rsi
6f81:	41 89 d6             	mov    r14d,edx
6f84:	0f 1f 40 00          	nop    DWORD PTR [rax+0x0]
6f88:	4d 8b 3c 24          	mov    r15,QWORD PTR [r12]
6f8c:	4d 85 ff             	test   r15,r15
6f8f:	0f 84 b5 00 00 00    	je     704a <transfer_entries+0xea>
6f95:	49 8b 5c 24 08       	mov    rbx,QWORD PTR [r12+0x8]
6f9a:	48 85 db             	test   rbx,rbx
6f9d:	75 1d                	jne    6fbc <transfer_entries+0x5c>
6f9f:	eb 5a                	jmp    6ffb <transfer_entries+0x9b>
6fa1:	0f 1f 80 00 00 00 00 	nop    DWORD PTR [rax+0x0]
6fa8:	48 8b 48 08          	mov    rcx,QWORD PTR [rax+0x8]
6fac:	48 85 d2             	test   rdx,rdx
6faf:	48 89 4b 08          	mov    QWORD PTR [rbx+0x8],rcx
6fb3:	48 89 58 08          	mov    QWORD PTR [rax+0x8],rbx
6fb7:	48 89 d3             	mov    rbx,rdx
6fba:	74 3b                	je     6ff7 <transfer_entries+0x97>
6fbc:	4c 8b 3b             	mov    r15,QWORD PTR [rbx]
6fbf:	48 89 ef             	mov    rdi,rbp
6fc2:	4c 89 fe             	mov    rsi,r15
6fc5:	e8 c6 fd ff ff       	call   6d90 <safe_hasher>
6fca:	48 83 38 00          	cmp    QWORD PTR [rax],0x0
6fce:	48 8b 53 08          	mov    rdx,QWORD PTR [rbx+0x8]
6fd2:	75 d4                	jne    6fa8 <transfer_entries+0x48>
6fd4:	4c 89 38             	mov    QWORD PTR [rax],r15
6fd7:	48 83 45 18 01       	add    QWORD PTR [rbp+0x18],0x1
6fdc:	48 85 d2             	test   rdx,rdx
6fdf:	48 c7 03 00 00 00 00 	mov    QWORD PTR [rbx],0x0
6fe6:	48 8b 45 48          	mov    rax,QWORD PTR [rbp+0x48]
6fea:	48 89 43 08          	mov    QWORD PTR [rbx+0x8],rax
6fee:	48 89 5d 48          	mov    QWORD PTR [rbp+0x48],rbx
6ff2:	48 89 d3             	mov    rbx,rdx
6ff5:	75 c5                	jne    6fbc <transfer_entries+0x5c>
6ff7:	4d 8b 3c 24          	mov    r15,QWORD PTR [r12]
6ffb:	45 84 f6             	test   r14b,r14b
6ffe:	49 c7 44 24 08 00 00 	mov    QWORD PTR [r12+0x8],0x0
7005:	00 00
7007:	75 41                	jne    704a <transfer_entries+0xea>
7009:	4c 89 fe             	mov    rsi,r15
700c:	48 89 ef             	mov    rdi,rbp
700f:	e8 7c fd ff ff       	call   6d90 <safe_hasher>
7014:	48 83 38 00          	cmp    QWORD PTR [rax],0x0
7018:	48 89 c3             	mov    rbx,rax
701b:	74 53                	je     7070 <transfer_entries+0x110>
701d:	48 8b 45 48          	mov    rax,QWORD PTR [rbp+0x48]
7021:	48 85 c0             	test   rax,rax
7024:	74 5a                	je     7080 <transfer_entries+0x120>
7026:	48 8b 50 08          	mov    rdx,QWORD PTR [rax+0x8]
702a:	48 89 55 48          	mov    QWORD PTR [rbp+0x48],rdx
702e:	48 8b 53 08          	mov    rdx,QWORD PTR [rbx+0x8]
7032:	4c 89 38             	mov    QWORD PTR [rax],r15
7035:	48 89 50 08          	mov    QWORD PTR [rax+0x8],rdx
7039:	48 89 43 08          	mov    QWORD PTR [rbx+0x8],rax
703d:	49 c7 04 24 00 00 00 	mov    QWORD PTR [r12],0x0
7044:	00
7045:	49 83 6d 18 01       	sub    QWORD PTR [r13+0x18],0x1
704a:	49 83 c4 10          	add    r12,0x10
704e:	4d 39 65 08          	cmp    QWORD PTR [r13+0x8],r12
7052:	0f 87 30 ff ff ff    	ja     6f88 <transfer_entries+0x28>
7058:	48 83 c4 08          	add    rsp,0x8
705c:	b8 01 00 00 00       	mov    eax,0x1
7061:	5b                   	pop    rbx
7062:	5d                   	pop    rbp
7063:	41 5c                	pop    r12
7065:	41 5d                	pop    r13
7067:	41 5e                	pop    r14
7069:	41 5f                	pop    r15
706b:	c3                   	ret
706c:	0f 1f 40 00          	nop    DWORD PTR [rax+0x0]
7070:	4c 89 38             	mov    QWORD PTR [rax],r15
7073:	48 83 45 18 01       	add    QWORD PTR [rbp+0x18],0x1
7078:	eb c3                	jmp    703d <transfer_entries+0xdd>
707a:	66 0f 1f 44 00 00    	nop    WORD PTR [rax+rax*1+0x0]
7080:	bf 10 00 00 00       	mov    edi,0x10
7085:	e8 36 ad ff ff       	call   1dc0 <malloc@plt>
708a:	48 85 c0             	test   rax,rax
708d:	75 9f                	jne    702e <transfer_entries+0xce>
708f:	48 83 c4 08          	add    rsp,0x8
7093:	31 c0                	xor    eax,eax
7095:	5b                   	pop    rbx
7096:	5d                   	pop    rbp
7097:	41 5c                	pop    r12
7099:	41 5d                	pop    r13
709b:	41 5e                	pop    r14
709d:	41 5f                	pop    r15
709f:	c3                   	ret

00000000000070a0 <hash_get_n_buckets>:
70a0:	48 8b 47 10          	mov    rax,QWORD PTR [rdi+0x10]
70a4:	c3                   	ret
70a5:	90                   	nop
70a6:	66 2e 0f 1f 84 00 00 	nop    WORD PTR cs:[rax+rax*1+0x0]
70ad:	00 00 00

00000000000070b0 <hash_get_n_buckets_used>:
70b0:	48 8b 47 18          	mov    rax,QWORD PTR [rdi+0x18]
70b4:	c3                   	ret
70b5:	90                   	nop
70b6:	66 2e 0f 1f 84 00 00 	nop    WORD PTR cs:[rax+rax*1+0x0]
70bd:	00 00 00

00000000000070c0 <hash_get_n_entries>:
70c0:	48 8b 47 20          	mov    rax,QWORD PTR [rdi+0x20]
70c4:	c3                   	ret
70c5:	90                   	nop
70c6:	66 2e 0f 1f 84 00 00 	nop    WORD PTR cs:[rax+rax*1+0x0]
70cd:	00 00 00

00000000000070d0 <hash_get_max_bucket_length>:
70d0:	48 8b 37             	mov    rsi,QWORD PTR [rdi]
70d3:	48 8b 7f 08          	mov    rdi,QWORD PTR [rdi+0x8]
70d7:	31 c0                	xor    eax,eax
70d9:	48 39 fe             	cmp    rsi,rdi
70dc:	73 39                	jae    7117 <hash_get_max_bucket_length+0x47>
70de:	66 90                	xchg   ax,ax
70e0:	48 83 3e 00          	cmp    QWORD PTR [rsi],0x0
70e4:	74 26                	je     710c <hash_get_max_bucket_length+0x3c>
70e6:	48 8b 56 08          	mov    rdx,QWORD PTR [rsi+0x8]
70ea:	b9 01 00 00 00       	mov    ecx,0x1
70ef:	48 85 d2             	test   rdx,rdx
70f2:	74 11                	je     7105 <hash_get_max_bucket_length+0x35>
70f4:	0f 1f 40 00          	nop    DWORD PTR [rax+0x0]
70f8:	48 8b 52 08          	mov    rdx,QWORD PTR [rdx+0x8]
70fc:	48 83 c1 01          	add    rcx,0x1
7100:	48 85 d2             	test   rdx,rdx
7103:	75 f3                	jne    70f8 <hash_get_max_bucket_length+0x28>
7105:	48 39 c8             	cmp    rax,rcx
7108:	48 0f 42 c1          	cmovb  rax,rcx
710c:	48 83 c6 10          	add    rsi,0x10
7110:	48 39 fe             	cmp    rsi,rdi
7113:	72 cb                	jb     70e0 <hash_get_max_bucket_length+0x10>
7115:	f3 c3                	repz ret
7117:	f3 c3                	repz ret
7119:	0f 1f 80 00 00 00 00 	nop    DWORD PTR [rax+0x0]

0000000000007120 <hash_table_ok>:
7120:	48 8b 0f             	mov    rcx,QWORD PTR [rdi]
7123:	4c 8b 47 08          	mov    r8,QWORD PTR [rdi+0x8]
7127:	31 d2                	xor    edx,edx
7129:	31 f6                	xor    esi,esi
712b:	4c 39 c1             	cmp    rcx,r8
712e:	73 36                	jae    7166 <hash_table_ok+0x46>
7130:	48 83 39 00          	cmp    QWORD PTR [rcx],0x0
7134:	74 27                	je     715d <hash_table_ok+0x3d>
7136:	48 8b 41 08          	mov    rax,QWORD PTR [rcx+0x8]
713a:	48 83 c6 01          	add    rsi,0x1
713e:	48 83 c2 01          	add    rdx,0x1
7142:	48 85 c0             	test   rax,rax
7145:	74 16                	je     715d <hash_table_ok+0x3d>
7147:	66 0f 1f 84 00 00 00 	nop    WORD PTR [rax+rax*1+0x0]
714e:	00 00
7150:	48 8b 40 08          	mov    rax,QWORD PTR [rax+0x8]
7154:	48 83 c2 01          	add    rdx,0x1
7158:	48 85 c0             	test   rax,rax
715b:	75 f3                	jne    7150 <hash_table_ok+0x30>
715d:	48 83 c1 10          	add    rcx,0x10
7161:	4c 39 c1             	cmp    rcx,r8
7164:	72 ca                	jb     7130 <hash_table_ok+0x10>
7166:	31 c0                	xor    eax,eax
7168:	48 39 77 18          	cmp    QWORD PTR [rdi+0x18],rsi
716c:	74 02                	je     7170 <hash_table_ok+0x50>
716e:	f3 c3                	repz ret
7170:	48 39 57 20          	cmp    QWORD PTR [rdi+0x20],rdx
7174:	0f 94 c0             	sete   al
7177:	c3                   	ret
7178:	0f 1f 84 00 00 00 00 	nop    DWORD PTR [rax+rax*1+0x0]
717f:	00

0000000000007180 <hash_print_statistics>:
7180:	41 55                	push   r13
7182:	41 54                	push   r12
7184:	49 89 f4             	mov    r12,rsi
7187:	55                   	push   rbp
7188:	53                   	push   rbx
7189:	31 db                	xor    ebx,ebx
718b:	48 83 ec 08          	sub    rsp,0x8
718f:	48 8b 37             	mov    rsi,QWORD PTR [rdi]
7192:	48 8b 4f 20          	mov    rcx,QWORD PTR [rdi+0x20]
7196:	48 8b 6f 10          	mov    rbp,QWORD PTR [rdi+0x10]
719a:	4c 8b 6f 18          	mov    r13,QWORD PTR [rdi+0x18]
719e:	48 8b 7f 08          	mov    rdi,QWORD PTR [rdi+0x8]
71a2:	48 39 fe             	cmp    rsi,rdi
71a5:	73 3e                	jae    71e5 <hash_print_statistics+0x65>
71a7:	66 0f 1f 84 00 00 00 	nop    WORD PTR [rax+rax*1+0x0]
71ae:	00 00
71b0:	48 83 3e 00          	cmp    QWORD PTR [rsi],0x0
71b4:	74 26                	je     71dc <hash_print_statistics+0x5c>
71b6:	48 8b 46 08          	mov    rax,QWORD PTR [rsi+0x8]
71ba:	ba 01 00 00 00       	mov    edx,0x1
71bf:	48 85 c0             	test   rax,rax
71c2:	74 11                	je     71d5 <hash_print_statistics+0x55>
71c4:	0f 1f 40 00          	nop    DWORD PTR [rax+0x0]
71c8:	48 8b 40 08          	mov    rax,QWORD PTR [rax+0x8]
71cc:	48 83 c2 01          	add    rdx,0x1
71d0:	48 85 c0             	test   rax,rax
71d3:	75 f3                	jne    71c8 <hash_print_statistics+0x48>
71d5:	48 39 d3             	cmp    rbx,rdx
71d8:	48 0f 42 da          	cmovb  rbx,rdx
71dc:	48 83 c6 10          	add    rsi,0x10
71e0:	48 39 fe             	cmp    rsi,rdi
71e3:	72 cb                	jb     71b0 <hash_print_statistics+0x30>
71e5:	48 8d 15 e3 57 00 00 	lea    rdx,[rip+0x57e3]        # c9cf <follow_mode_map+0x77>
71ec:	be 01 00 00 00       	mov    esi,0x1
71f1:	4c 89 e7             	mov    rdi,r12
71f4:	31 c0                	xor    eax,eax
71f6:	e8 e5 ac ff ff       	call   1ee0 <__fprintf_chk@plt>
71fb:	48 8d 15 e5 57 00 00 	lea    rdx,[rip+0x57e5]        # c9e7 <follow_mode_map+0x8f>
7202:	31 c0                	xor    eax,eax
7204:	48 89 e9             	mov    rcx,rbp
7207:	be 01 00 00 00       	mov    esi,0x1
720c:	4c 89 e7             	mov    rdi,r12
720f:	e8 cc ac ff ff       	call   1ee0 <__fprintf_chk@plt>
7214:	4d 85 ed             	test   r13,r13
7217:	78 67                	js     7280 <hash_print_statistics+0x100>
7219:	66 0f ef c0          	pxor   xmm0,xmm0
721d:	48 85 ed             	test   rbp,rbp
7220:	f2 49 0f 2a c5       	cvtsi2sd xmm0,r13
7225:	f2 0f 59 05 4b 58 00 	mulsd  xmm0,QWORD PTR [rip+0x584b]        # ca78 <default_tuning+0x38>
722c:	00
722d:	78 7a                	js     72a9 <hash_print_statistics+0x129>
722f:	66 0f ef c9          	pxor   xmm1,xmm1
7233:	f2 48 0f 2a cd       	cvtsi2sd xmm1,rbp
7238:	f2 0f 5e c1          	divsd  xmm0,xmm1
723c:	48 8d 15 d5 57 00 00 	lea    rdx,[rip+0x57d5]        # ca18 <follow_mode_map+0xc0>
7243:	4c 89 e9             	mov    rcx,r13
7246:	4c 89 e7             	mov    rdi,r12
7249:	be 01 00 00 00       	mov    esi,0x1
724e:	b8 01 00 00 00       	mov    eax,0x1
7253:	e8 88 ac ff ff       	call   1ee0 <__fprintf_chk@plt>
7258:	48 83 c4 08          	add    rsp,0x8
725c:	48 89 d9             	mov    rcx,rbx
725f:	4c 89 e7             	mov    rdi,r12
7262:	5b                   	pop    rbx
7263:	5d                   	pop    rbp
7264:	41 5c                	pop    r12
7266:	41 5d                	pop    r13
7268:	48 8d 15 90 57 00 00 	lea    rdx,[rip+0x5790]        # c9ff <follow_mode_map+0xa7>
726f:	be 01 00 00 00       	mov    esi,0x1
7274:	31 c0                	xor    eax,eax
7276:	e9 65 ac ff ff       	jmp    1ee0 <__fprintf_chk@plt>
727b:	0f 1f 44 00 00       	nop    DWORD PTR [rax+rax*1+0x0]
7280:	4c 89 e8             	mov    rax,r13
7283:	4c 89 ea             	mov    rdx,r13
7286:	66 0f ef c0          	pxor   xmm0,xmm0
728a:	48 d1 e8             	shr    rax,1
728d:	83 e2 01             	and    edx,0x1
7290:	48 09 d0             	or     rax,rdx
7293:	48 85 ed             	test   rbp,rbp
7296:	f2 48 0f 2a c0       	cvtsi2sd xmm0,rax
729b:	f2 0f 58 c0          	addsd  xmm0,xmm0
729f:	f2 0f 59 05 d1 57 00 	mulsd  xmm0,QWORD PTR [rip+0x57d1]        # ca78 <default_tuning+0x38>
72a6:	00
72a7:	79 86                	jns    722f <hash_print_statistics+0xaf>
72a9:	48 89 e8             	mov    rax,rbp
72ac:	66 0f ef c9          	pxor   xmm1,xmm1
72b0:	48 d1 e8             	shr    rax,1
72b3:	83 e5 01             	and    ebp,0x1
72b6:	48 09 e8             	or     rax,rbp
72b9:	f2 48 0f 2a c8       	cvtsi2sd xmm1,rax
72be:	f2 0f 58 c9          	addsd  xmm1,xmm1
72c2:	e9 71 ff ff ff       	jmp    7238 <hash_print_statistics+0xb8>
72c7:	66 0f 1f 84 00 00 00 	nop    WORD PTR [rax+rax*1+0x0]
72ce:	00 00

00000000000072d0 <hash_lookup>:
72d0:	41 54                	push   r12
72d2:	55                   	push   rbp
72d3:	49 89 fc             	mov    r12,rdi
72d6:	53                   	push   rbx
72d7:	48 89 f5             	mov    rbp,rsi
72da:	e8 b1 fa ff ff       	call   6d90 <safe_hasher>
72df:	48 8b 30             	mov    rsi,QWORD PTR [rax]
72e2:	48 85 f6             	test   rsi,rsi
72e5:	74 26                	je     730d <hash_lookup+0x3d>
72e7:	48 89 c3             	mov    rbx,rax
72ea:	eb 07                	jmp    72f3 <hash_lookup+0x23>
72ec:	0f 1f 40 00          	nop    DWORD PTR [rax+0x0]
72f0:	48 8b 33             	mov    rsi,QWORD PTR [rbx]
72f3:	48 39 ee             	cmp    rsi,rbp
72f6:	74 17                	je     730f <hash_lookup+0x3f>
72f8:	48 89 ef             	mov    rdi,rbp
72fb:	41 ff 54 24 38       	call   QWORD PTR [r12+0x38]
7300:	84 c0                	test   al,al
7302:	75 1c                	jne    7320 <hash_lookup+0x50>
7304:	48 8b 5b 08          	mov    rbx,QWORD PTR [rbx+0x8]
7308:	48 85 db             	test   rbx,rbx
730b:	75 e3                	jne    72f0 <hash_lookup+0x20>
730d:	31 f6                	xor    esi,esi
730f:	5b                   	pop    rbx
7310:	48 89 f0             	mov    rax,rsi
7313:	5d                   	pop    rbp
7314:	41 5c                	pop    r12
7316:	c3                   	ret
7317:	66 0f 1f 84 00 00 00 	nop    WORD PTR [rax+rax*1+0x0]
731e:	00 00
7320:	48 8b 33             	mov    rsi,QWORD PTR [rbx]
7323:	5b                   	pop    rbx
7324:	5d                   	pop    rbp
7325:	48 89 f0             	mov    rax,rsi
7328:	41 5c                	pop    r12
732a:	c3                   	ret
732b:	0f 1f 44 00 00       	nop    DWORD PTR [rax+rax*1+0x0]

0000000000007330 <hash_get_first>:
7330:	48 83 7f 20 00       	cmp    QWORD PTR [rdi+0x20],0x0
7335:	74 2c                	je     7363 <hash_get_first+0x33>
7337:	48 8b 17             	mov    rdx,QWORD PTR [rdi]
733a:	48 8b 4f 08          	mov    rcx,QWORD PTR [rdi+0x8]
733e:	48 39 ca             	cmp    rdx,rcx
7341:	73 25                	jae    7368 <hash_get_first+0x38>
7343:	48 8b 02             	mov    rax,QWORD PTR [rdx]
7346:	48 85 c0             	test   rax,rax
7349:	75 1b                	jne    7366 <hash_get_first+0x36>
734b:	0f 1f 44 00 00       	nop    DWORD PTR [rax+rax*1+0x0]
7350:	48 83 c2 10          	add    rdx,0x10
7354:	48 39 ca             	cmp    rdx,rcx
7357:	73 0f                	jae    7368 <hash_get_first+0x38>
7359:	48 8b 02             	mov    rax,QWORD PTR [rdx]
735c:	48 85 c0             	test   rax,rax
735f:	74 ef                	je     7350 <hash_get_first+0x20>
7361:	f3 c3                	repz ret
7363:	31 c0                	xor    eax,eax
7365:	c3                   	ret
7366:	f3 c3                	repz ret
7368:	48 83 ec 08          	sub    rsp,0x8
736c:	e8 8f a7 ff ff       	call   1b00 <abort@plt>
7371:	0f 1f 44 00 00       	nop    DWORD PTR [rax+rax*1+0x0]
7376:	66 2e 0f 1f 84 00 00 	nop    WORD PTR cs:[rax+rax*1+0x0]
737d:	00 00 00

0000000000007380 <hash_get_next>:
7380:	55                   	push   rbp
7381:	53                   	push   rbx
7382:	48 89 fd             	mov    rbp,rdi
7385:	48 89 f3             	mov    rbx,rsi
7388:	48 83 ec 08          	sub    rsp,0x8
738c:	e8 ff f9 ff ff       	call   6d90 <safe_hasher>
7391:	48 89 c2             	mov    rdx,rax
7394:	48 89 c1             	mov    rcx,rax
7397:	48 8b 02             	mov    rax,QWORD PTR [rdx]
739a:	48 8b 52 08          	mov    rdx,QWORD PTR [rdx+0x8]
739e:	48 39 d8             	cmp    rax,rbx
73a1:	74 16                	je     73b9 <hash_get_next+0x39>
73a3:	0f 1f 44 00 00       	nop    DWORD PTR [rax+rax*1+0x0]
73a8:	48 85 d2             	test   rdx,rdx
73ab:	74 11                	je     73be <hash_get_next+0x3e>
73ad:	48 8b 02             	mov    rax,QWORD PTR [rdx]
73b0:	48 8b 52 08          	mov    rdx,QWORD PTR [rdx+0x8]
73b4:	48 39 d8             	cmp    rax,rbx
73b7:	75 ef                	jne    73a8 <hash_get_next+0x28>
73b9:	48 85 d2             	test   rdx,rdx
73bc:	75 2a                	jne    73e8 <hash_get_next+0x68>
73be:	48 8b 55 08          	mov    rdx,QWORD PTR [rbp+0x8]
73c2:	eb 0c                	jmp    73d0 <hash_get_next+0x50>
73c4:	0f 1f 40 00          	nop    DWORD PTR [rax+0x0]
73c8:	48 8b 01             	mov    rax,QWORD PTR [rcx]
73cb:	48 85 c0             	test   rax,rax
73ce:	75 0b                	jne    73db <hash_get_next+0x5b>
73d0:	48 83 c1 10          	add    rcx,0x10
73d4:	48 39 ca             	cmp    rdx,rcx
73d7:	77 ef                	ja     73c8 <hash_get_next+0x48>
73d9:	31 c0                	xor    eax,eax
73db:	48 83 c4 08          	add    rsp,0x8
73df:	5b                   	pop    rbx
73e0:	5d                   	pop    rbp
73e1:	c3                   	ret
73e2:	66 0f 1f 44 00 00    	nop    WORD PTR [rax+rax*1+0x0]
73e8:	48 8b 02             	mov    rax,QWORD PTR [rdx]
73eb:	48 83 c4 08          	add    rsp,0x8
73ef:	5b                   	pop    rbx
73f0:	5d                   	pop    rbp
73f1:	c3                   	ret
73f2:	0f 1f 40 00          	nop    DWORD PTR [rax+0x0]
73f6:	66 2e 0f 1f 84 00 00 	nop    WORD PTR cs:[rax+rax*1+0x0]
73fd:	00 00 00

0000000000007400 <hash_get_entries>:
7400:	4c 8b 0f             	mov    r9,QWORD PTR [rdi]
7403:	4c 39 4f 08          	cmp    QWORD PTR [rdi+0x8],r9
7407:	76 59                	jbe    7462 <hash_get_entries+0x62>
7409:	45 31 c0             	xor    r8d,r8d
740c:	49 8b 09             	mov    rcx,QWORD PTR [r9]
740f:	48 85 c9             	test   rcx,rcx
7412:	74 39                	je     744d <hash_get_entries+0x4d>
7414:	4c 39 c2             	cmp    rdx,r8
7417:	76 3e                	jbe    7457 <hash_get_entries+0x57>
7419:	4a 89 0c c6          	mov    QWORD PTR [rsi+r8*8],rcx
741d:	49 8b 49 08          	mov    rcx,QWORD PTR [r9+0x8]
7421:	49 8d 40 01          	lea    rax,[r8+0x1]
7425:	48 85 c9             	test   rcx,rcx
7428:	74 20                	je     744a <hash_get_entries+0x4a>
742a:	66 0f 1f 44 00 00    	nop    WORD PTR [rax+rax*1+0x0]
7430:	48 39 c2             	cmp    rdx,rax
7433:	74 2b                	je     7460 <hash_get_entries+0x60>
7435:	4c 8b 01             	mov    r8,QWORD PTR [rcx]
7438:	48 83 c0 01          	add    rax,0x1
743c:	4c 89 44 c6 f8       	mov    QWORD PTR [rsi+rax*8-0x8],r8
7441:	48 8b 49 08          	mov    rcx,QWORD PTR [rcx+0x8]
7445:	48 85 c9             	test   rcx,rcx
7448:	75 e6                	jne    7430 <hash_get_entries+0x30>
744a:	49 89 c0             	mov    r8,rax
744d:	49 83 c1 10          	add    r9,0x10
7451:	4c 39 4f 08          	cmp    QWORD PTR [rdi+0x8],r9
7455:	77 b5                	ja     740c <hash_get_entries+0xc>
7457:	4c 89 c0             	mov    rax,r8
745a:	c3                   	ret
745b:	0f 1f 44 00 00       	nop    DWORD PTR [rax+rax*1+0x0]
7460:	f3 c3                	repz ret
7462:	31 c0                	xor    eax,eax
7464:	c3                   	ret
7465:	90                   	nop
7466:	66 2e 0f 1f 84 00 00 	nop    WORD PTR cs:[rax+rax*1+0x0]
746d:	00 00 00

0000000000007470 <hash_do_for_each>:
7470:	41 57                	push   r15
7472:	41 56                	push   r14
7474:	41 55                	push   r13
7476:	41 54                	push   r12
7478:	55                   	push   rbp
7479:	53                   	push   rbx
747a:	48 83 ec 08          	sub    rsp,0x8
747e:	4c 8b 37             	mov    r14,QWORD PTR [rdi]
7481:	4c 39 77 08          	cmp    QWORD PTR [rdi+0x8],r14
7485:	76 4f                	jbe    74d6 <hash_do_for_each+0x66>
7487:	49 89 d5             	mov    r13,rdx
748a:	49 89 f4             	mov    r12,rsi
748d:	49 89 ff             	mov    r15,rdi
7490:	31 ed                	xor    ebp,ebp
7492:	49 8b 3e             	mov    rdi,QWORD PTR [r14]
7495:	48 85 ff             	test   rdi,rdi
7498:	74 20                	je     74ba <hash_do_for_each+0x4a>
749a:	4c 89 f3             	mov    rbx,r14
749d:	eb 04                	jmp    74a3 <hash_do_for_each+0x33>
749f:	90                   	nop
74a0:	48 8b 3b             	mov    rdi,QWORD PTR [rbx]
74a3:	4c 89 ee             	mov    rsi,r13
74a6:	41 ff d4             	call   r12
74a9:	84 c0                	test   al,al
74ab:	74 17                	je     74c4 <hash_do_for_each+0x54>
74ad:	48 8b 5b 08          	mov    rbx,QWORD PTR [rbx+0x8]
74b1:	48 83 c5 01          	add    rbp,0x1
74b5:	48 85 db             	test   rbx,rbx
74b8:	75 e6                	jne    74a0 <hash_do_for_each+0x30>
74ba:	49 83 c6 10          	add    r14,0x10
74be:	4d 39 77 08          	cmp    QWORD PTR [r15+0x8],r14
74c2:	77 ce                	ja     7492 <hash_do_for_each+0x22>
74c4:	48 83 c4 08          	add    rsp,0x8
74c8:	48 89 e8             	mov    rax,rbp
74cb:	5b                   	pop    rbx
74cc:	5d                   	pop    rbp
74cd:	41 5c                	pop    r12
74cf:	41 5d                	pop    r13
74d1:	41 5e                	pop    r14
74d3:	41 5f                	pop    r15
74d5:	c3                   	ret
74d6:	31 ed                	xor    ebp,ebp
74d8:	eb ea                	jmp    74c4 <hash_do_for_each+0x54>
74da:	66 0f 1f 44 00 00    	nop    WORD PTR [rax+rax*1+0x0]

00000000000074e0 <hash_string>:
74e0:	0f b6 0f             	movzx  ecx,BYTE PTR [rdi]
74e3:	31 d2                	xor    edx,edx
74e5:	84 c9                	test   cl,cl
74e7:	74 24                	je     750d <hash_string+0x2d>
74e9:	0f 1f 80 00 00 00 00 	nop    DWORD PTR [rax+0x0]
74f0:	48 89 d0             	mov    rax,rdx
74f3:	48 83 c7 01          	add    rdi,0x1
74f7:	48 c1 e0 05          	shl    rax,0x5
74fb:	48 29 d0             	sub    rax,rdx
74fe:	31 d2                	xor    edx,edx
7500:	48 01 c8             	add    rax,rcx
7503:	0f b6 0f             	movzx  ecx,BYTE PTR [rdi]
7506:	48 f7 f6             	div    rsi
7509:	84 c9                	test   cl,cl
750b:	75 e3                	jne    74f0 <hash_string+0x10>
750d:	48 89 d0             	mov    rax,rdx
7510:	c3                   	ret
7511:	0f 1f 44 00 00       	nop    DWORD PTR [rax+rax*1+0x0]
7516:	66 2e 0f 1f 84 00 00 	nop    WORD PTR cs:[rax+rax*1+0x0]
751d:	00 00 00

0000000000007520 <hash_reset_tuning>:
7520:	48 b8 00 00 00 00 00 	movabs rax,0x3f80000000000000
7527:	00 80 3f
752a:	c6 47 10 00          	mov    BYTE PTR [rdi+0x10],0x0
752e:	48 89 07             	mov    QWORD PTR [rdi],rax
7531:	48 b8 cd cc 4c 3f f4 	movabs rax,0x3fb4fdf43f4ccccd
7538:	fd b4 3f
753b:	48 89 47 08          	mov    QWORD PTR [rdi+0x8],rax
753f:	c3                   	ret

0000000000007540 <hash_initialize>:
7540:	41 57                	push   r15
7542:	41 56                	push   r14
7544:	48 8d 05 25 f8 ff ff 	lea    rax,[rip+0xfffffffffffff825]        # 6d70 <raw_hasher>
754b:	41 55                	push   r13
754d:	41 54                	push   r12
754f:	49 89 d4             	mov    r12,rdx
7552:	55                   	push   rbp
7553:	53                   	push   rbx
7554:	49 89 cd             	mov    r13,rcx
7557:	48 89 fd             	mov    rbp,rdi
755a:	bf 50 00 00 00       	mov    edi,0x50
755f:	49 89 f7             	mov    r15,rsi
7562:	48 83 ec 08          	sub    rsp,0x8
7566:	48 85 d2             	test   rdx,rdx
7569:	4d 89 c6             	mov    r14,r8
756c:	4c 0f 44 e0          	cmove  r12,rax
7570:	48 8d 05 09 f8 ff ff 	lea    rax,[rip+0xfffffffffffff809]        # 6d80 <raw_comparator>
7577:	48 85 c9             	test   rcx,rcx
757a:	4c 0f 44 e8          	cmove  r13,rax
757e:	e8 3d a8 ff ff       	call   1dc0 <malloc@plt>
7583:	48 85 c0             	test   rax,rax
7586:	48 89 c3             	mov    rbx,rax
7589:	0f 84 ab 00 00 00    	je     763a <hash_initialize+0xfa>
758f:	4d 85 ff             	test   r15,r15
7592:	48 8d 78 28          	lea    rdi,[rax+0x28]
7596:	0f 84 b4 00 00 00    	je     7650 <hash_initialize+0x110>
759c:	4c 89 78 28          	mov    QWORD PTR [rax+0x28],r15
75a0:	e8 3b f9 ff ff       	call   6ee0 <check_tuning.isra.0>
75a5:	84 c0                	test   al,al
75a7:	0f 84 83 00 00 00    	je     7630 <hash_initialize+0xf0>
75ad:	41 80 7f 10 00       	cmp    BYTE PTR [r15+0x10],0x0
75b2:	0f 84 f8 00 00 00    	je     76b0 <hash_initialize+0x170>
75b8:	48 89 ef             	mov    rdi,rbp
75bb:	e8 10 f7 ff ff       	call   6cd0 <next_prime>
75c0:	ba 08 00 00 00       	mov    edx,0x8
75c5:	48 89 c5             	mov    rbp,rax
75c8:	31 c9                	xor    ecx,ecx
75ca:	48 89 d0             	mov    rax,rdx
75cd:	48 f7 e5             	mul    rbp
75d0:	0f 80 14 01 00 00    	jo     76ea <hash_initialize+0x1aa>
75d6:	48 85 c0             	test   rax,rax
75d9:	78 55                	js     7630 <hash_initialize+0xf0>
75db:	48 85 c9             	test   rcx,rcx
75de:	75 50                	jne    7630 <hash_initialize+0xf0>
75e0:	48 85 ed             	test   rbp,rbp
75e3:	48 89 6b 10          	mov    QWORD PTR [rbx+0x10],rbp
75e7:	74 47                	je     7630 <hash_initialize+0xf0>
75e9:	be 10 00 00 00       	mov    esi,0x10
75ee:	48 89 ef             	mov    rdi,rbp
75f1:	e8 3a a7 ff ff       	call   1d30 <calloc@plt>
75f6:	48 85 c0             	test   rax,rax
75f9:	48 89 03             	mov    QWORD PTR [rbx],rax
75fc:	74 32                	je     7630 <hash_initialize+0xf0>
75fe:	48 c1 e5 04          	shl    rbp,0x4
7602:	48 c7 43 18 00 00 00 	mov    QWORD PTR [rbx+0x18],0x0
7609:	00
760a:	48 c7 43 20 00 00 00 	mov    QWORD PTR [rbx+0x20],0x0
7611:	00
7612:	48 01 c5             	add    rbp,rax
7615:	4c 89 63 30          	mov    QWORD PTR [rbx+0x30],r12
7619:	4c 89 6b 38          	mov    QWORD PTR [rbx+0x38],r13
761d:	48 89 6b 08          	mov    QWORD PTR [rbx+0x8],rbp
7621:	4c 89 73 40          	mov    QWORD PTR [rbx+0x40],r14
7625:	48 c7 43 48 00 00 00 	mov    QWORD PTR [rbx+0x48],0x0
762c:	00
762d:	eb 0b                	jmp    763a <hash_initialize+0xfa>
762f:	90                   	nop
7630:	48 89 df             	mov    rdi,rbx
7633:	31 db                	xor    ebx,ebx
7635:	e8 b6 a4 ff ff       	call   1af0 <free@plt>
763a:	48 83 c4 08          	add    rsp,0x8
763e:	48 89 d8             	mov    rax,rbx
7641:	5b                   	pop    rbx
7642:	5d                   	pop    rbp
7643:	41 5c                	pop    r12
7645:	41 5d                	pop    r13
7647:	41 5e                	pop    r14
7649:	41 5f                	pop    r15
764b:	c3                   	ret
764c:	0f 1f 40 00          	nop    DWORD PTR [rax+0x0]
7650:	48 8d 05 e9 53 00 00 	lea    rax,[rip+0x53e9]        # ca40 <default_tuning>
7657:	48 89 43 28          	mov    QWORD PTR [rbx+0x28],rax
765b:	e8 80 f8 ff ff       	call   6ee0 <check_tuning.isra.0>
7660:	84 c0                	test   al,al
7662:	f3 0f 10 0d fe 53 00 	movss  xmm1,DWORD PTR [rip+0x53fe]        # ca68 <default_tuning+0x28>
7669:	00
766a:	74 c4                	je     7630 <hash_initialize+0xf0>
766c:	48 85 ed             	test   rbp,rbp
766f:	78 4a                	js     76bb <hash_initialize+0x17b>
7671:	66 0f ef c0          	pxor   xmm0,xmm0
7675:	f3 48 0f 2a c5       	cvtsi2ss xmm0,rbp
767a:	f3 0f 5e c1          	divss  xmm0,xmm1
767e:	0f 2e 05 e7 53 00 00 	ucomiss xmm0,DWORD PTR [rip+0x53e7]        # ca6c <default_tuning+0x2c>
7685:	73 a9                	jae    7630 <hash_initialize+0xf0>
7687:	0f 2e 05 e2 53 00 00 	ucomiss xmm0,DWORD PTR [rip+0x53e2]        # ca70 <default_tuning+0x30>
768e:	72 50                	jb     76e0 <hash_initialize+0x1a0>
7690:	f3 0f 5c 05 d8 53 00 	subss  xmm0,DWORD PTR [rip+0x53d8]        # ca70 <default_tuning+0x30>
7697:	00
7698:	48 b8 00 00 00 00 00 	movabs rax,0x8000000000000000
769f:	00 00 80
76a2:	f3 48 0f 2c e8       	cvttss2si rbp,xmm0
76a7:	48 31 c5             	xor    rbp,rax
76aa:	e9 09 ff ff ff       	jmp    75b8 <hash_initialize+0x78>
76af:	90                   	nop
76b0:	48 85 ed             	test   rbp,rbp
76b3:	f3 41 0f 10 4f 08    	movss  xmm1,DWORD PTR [r15+0x8]
76b9:	79 b6                	jns    7671 <hash_initialize+0x131>
76bb:	48 89 e8             	mov    rax,rbp
76be:	66 0f ef c0          	pxor   xmm0,xmm0
76c2:	48 d1 e8             	shr    rax,1
76c5:	83 e5 01             	and    ebp,0x1
76c8:	48 09 e8             	or     rax,rbp
76cb:	f3 48 0f 2a c0       	cvtsi2ss xmm0,rax
76d0:	f3 0f 58 c0          	addss  xmm0,xmm0
76d4:	eb a4                	jmp    767a <hash_initialize+0x13a>
76d6:	66 2e 0f 1f 84 00 00 	nop    WORD PTR cs:[rax+rax*1+0x0]
76dd:	00 00 00
76e0:	f3 48 0f 2c e8       	cvttss2si rbp,xmm0
76e5:	e9 ce fe ff ff       	jmp    75b8 <hash_initialize+0x78>
76ea:	b9 01 00 00 00       	mov    ecx,0x1
76ef:	e9 e2 fe ff ff       	jmp    75d6 <hash_initialize+0x96>
76f4:	66 90                	xchg   ax,ax
76f6:	66 2e 0f 1f 84 00 00 	nop    WORD PTR cs:[rax+rax*1+0x0]
76fd:	00 00 00

0000000000007700 <hash_clear>:
7700:	41 54                	push   r12
7702:	55                   	push   rbp
7703:	48 89 fd             	mov    rbp,rdi
7706:	53                   	push   rbx
7707:	4c 8b 27             	mov    r12,QWORD PTR [rdi]
770a:	4c 3b 67 08          	cmp    r12,QWORD PTR [rdi+0x8]
770e:	73 6b                	jae    777b <hash_clear+0x7b>
7710:	49 83 3c 24 00       	cmp    QWORD PTR [r12],0x0
7715:	74 5a                	je     7771 <hash_clear+0x71>
7717:	49 8b 5c 24 08       	mov    rbx,QWORD PTR [r12+0x8]
771c:	48 8b 45 40          	mov    rax,QWORD PTR [rbp+0x40]
7720:	48 85 db             	test   rbx,rbx
7723:	74 30                	je     7755 <hash_clear+0x55>
7725:	0f 1f 00             	nop    DWORD PTR [rax]
7728:	48 85 c0             	test   rax,rax
772b:	74 09                	je     7736 <hash_clear+0x36>
772d:	48 8b 3b             	mov    rdi,QWORD PTR [rbx]
7730:	ff d0                	call   rax
7732:	48 8b 45 40          	mov    rax,QWORD PTR [rbp+0x40]
7736:	48 8b 53 08          	mov    rdx,QWORD PTR [rbx+0x8]
773a:	48 8b 4d 48          	mov    rcx,QWORD PTR [rbp+0x48]
773e:	48 c7 03 00 00 00 00 	mov    QWORD PTR [rbx],0x0
7745:	48 85 d2             	test   rdx,rdx
7748:	48 89 4b 08          	mov    QWORD PTR [rbx+0x8],rcx
774c:	48 89 5d 48          	mov    QWORD PTR [rbp+0x48],rbx
7750:	48 89 d3             	mov    rbx,rdx
7753:	75 d3                	jne    7728 <hash_clear+0x28>
7755:	48 85 c0             	test   rax,rax
7758:	74 06                	je     7760 <hash_clear+0x60>
775a:	49 8b 3c 24          	mov    rdi,QWORD PTR [r12]
775e:	ff d0                	call   rax
7760:	49 c7 04 24 00 00 00 	mov    QWORD PTR [r12],0x0
7767:	00
7768:	49 c7 44 24 08 00 00 	mov    QWORD PTR [r12+0x8],0x0
776f:	00 00
7771:	49 83 c4 10          	add    r12,0x10
7775:	4c 39 65 08          	cmp    QWORD PTR [rbp+0x8],r12
7779:	77 95                	ja     7710 <hash_clear+0x10>
777b:	48 c7 45 18 00 00 00 	mov    QWORD PTR [rbp+0x18],0x0
7782:	00
7783:	48 c7 45 20 00 00 00 	mov    QWORD PTR [rbp+0x20],0x0
778a:	00
778b:	5b                   	pop    rbx
778c:	5d                   	pop    rbp
778d:	41 5c                	pop    r12
778f:	c3                   	ret

0000000000007790 <hash_free>:
7790:	41 54                	push   r12
7792:	55                   	push   rbp
7793:	49 89 fc             	mov    r12,rdi
7796:	53                   	push   rbx
7797:	48 83 7f 40 00       	cmp    QWORD PTR [rdi+0x40],0x0
779c:	48 8b 2f             	mov    rbp,QWORD PTR [rdi]
779f:	48 8b 47 08          	mov    rax,QWORD PTR [rdi+0x8]
77a3:	74 4e                	je     77f3 <hash_free+0x63>
77a5:	48 83 7f 20 00       	cmp    QWORD PTR [rdi+0x20],0x0
77aa:	74 47                	je     77f3 <hash_free+0x63>
77ac:	48 39 c5             	cmp    rbp,rax
77af:	73 7b                	jae    782c <hash_free+0x9c>
77b1:	0f 1f 80 00 00 00 00 	nop    DWORD PTR [rax+0x0]
77b8:	48 8b 7d 00          	mov    rdi,QWORD PTR [rbp+0x0]
77bc:	48 85 ff             	test   rdi,rdi
77bf:	74 25                	je     77e6 <hash_free+0x56>
77c1:	48 89 eb             	mov    rbx,rbp
77c4:	eb 0d                	jmp    77d3 <hash_free+0x43>
77c6:	66 2e 0f 1f 84 00 00 	nop    WORD PTR cs:[rax+rax*1+0x0]
77cd:	00 00 00
77d0:	48 8b 3b             	mov    rdi,QWORD PTR [rbx]
77d3:	41 ff 54 24 40       	call   QWORD PTR [r12+0x40]
77d8:	48 8b 5b 08          	mov    rbx,QWORD PTR [rbx+0x8]
77dc:	48 85 db             	test   rbx,rbx
77df:	75 ef                	jne    77d0 <hash_free+0x40>
77e1:	49 8b 44 24 08       	mov    rax,QWORD PTR [r12+0x8]
77e6:	48 83 c5 10          	add    rbp,0x10
77ea:	48 39 e8             	cmp    rax,rbp
77ed:	77 c9                	ja     77b8 <hash_free+0x28>
77ef:	49 8b 2c 24          	mov    rbp,QWORD PTR [r12]
77f3:	48 39 c5             	cmp    rbp,rax
77f6:	73 34                	jae    782c <hash_free+0x9c>
77f8:	0f 1f 84 00 00 00 00 	nop    DWORD PTR [rax+rax*1+0x0]
77ff:	00
7800:	48 8b 7d 08          	mov    rdi,QWORD PTR [rbp+0x8]
7804:	48 85 ff             	test   rdi,rdi
7807:	74 18                	je     7821 <hash_free+0x91>
7809:	0f 1f 80 00 00 00 00 	nop    DWORD PTR [rax+0x0]
7810:	48 8b 5f 08          	mov    rbx,QWORD PTR [rdi+0x8]
7814:	e8 d7 a2 ff ff       	call   1af0 <free@plt>
7819:	48 85 db             	test   rbx,rbx
781c:	48 89 df             	mov    rdi,rbx
781f:	75 ef                	jne    7810 <hash_free+0x80>
7821:	48 83 c5 10          	add    rbp,0x10
7825:	49 39 6c 24 08       	cmp    QWORD PTR [r12+0x8],rbp
782a:	77 d4                	ja     7800 <hash_free+0x70>
782c:	49 8b 7c 24 48       	mov    rdi,QWORD PTR [r12+0x48]
7831:	48 85 ff             	test   rdi,rdi
7834:	74 1b                	je     7851 <hash_free+0xc1>
7836:	66 2e 0f 1f 84 00 00 	nop    WORD PTR cs:[rax+rax*1+0x0]
783d:	00 00 00
7840:	48 8b 5f 08          	mov    rbx,QWORD PTR [rdi+0x8]
7844:	e8 a7 a2 ff ff       	call   1af0 <free@plt>
7849:	48 85 db             	test   rbx,rbx
784c:	48 89 df             	mov    rdi,rbx
784f:	75 ef                	jne    7840 <hash_free+0xb0>
7851:	49 8b 3c 24          	mov    rdi,QWORD PTR [r12]
7855:	e8 96 a2 ff ff       	call   1af0 <free@plt>
785a:	5b                   	pop    rbx
785b:	4c 89 e7             	mov    rdi,r12
785e:	5d                   	pop    rbp
785f:	41 5c                	pop    r12
7861:	e9 8a a2 ff ff       	jmp    1af0 <free@plt>
7866:	66 2e 0f 1f 84 00 00 	nop    WORD PTR cs:[rax+rax*1+0x0]
786d:	00 00 00

0000000000007870 <hash_rehash>:
7870:	41 54                	push   r12
7872:	55                   	push   rbp
7873:	48 89 fd             	mov    rbp,rdi
7876:	53                   	push   rbx
7877:	48 83 ec 60          	sub    rsp,0x60
787b:	4c 8b 67 28          	mov    r12,QWORD PTR [rdi+0x28]
787f:	64 48 8b 04 25 28 00 	mov    rax,QWORD PTR fs:0x28
7886:	00 00
7888:	48 89 44 24 58       	mov    QWORD PTR [rsp+0x58],rax
788d:	31 c0                	xor    eax,eax
788f:	41 80 7c 24 10 00    	cmp    BYTE PTR [r12+0x10],0x0
7895:	75 51                	jne    78e8 <hash_rehash+0x78>
7897:	48 85 f6             	test   rsi,rsi
789a:	0f 88 78 01 00 00    	js     7a18 <hash_rehash+0x1a8>
78a0:	66 0f ef c0          	pxor   xmm0,xmm0
78a4:	f3 48 0f 2a c6       	cvtsi2ss xmm0,rsi
78a9:	f3 41 0f 5e 44 24 08 	divss  xmm0,DWORD PTR [r12+0x8]
78b0:	0f 2e 05 b5 51 00 00 	ucomiss xmm0,DWORD PTR [rip+0x51b5]        # ca6c <default_tuning+0x2c>
78b7:	0f 83 33 01 00 00    	jae    79f0 <hash_rehash+0x180>
78bd:	0f 2e 05 ac 51 00 00 	ucomiss xmm0,DWORD PTR [rip+0x51ac]        # ca70 <default_tuning+0x30>
78c4:	0f 82 76 01 00 00    	jb     7a40 <hash_rehash+0x1d0>
78ca:	f3 0f 5c 05 9e 51 00 	subss  xmm0,DWORD PTR [rip+0x519e]        # ca70 <default_tuning+0x30>
78d1:	00
78d2:	48 b8 00 00 00 00 00 	movabs rax,0x8000000000000000
78d9:	00 00 80
78dc:	f3 48 0f 2c f0       	cvttss2si rsi,xmm0
78e1:	48 31 c6             	xor    rsi,rax
78e4:	0f 1f 40 00          	nop    DWORD PTR [rax+0x0]
78e8:	48 89 f7             	mov    rdi,rsi
78eb:	e8 e0 f3 ff ff       	call   6cd0 <next_prime>
78f0:	ba 08 00 00 00       	mov    edx,0x8
78f5:	48 89 c3             	mov    rbx,rax
78f8:	31 c9                	xor    ecx,ecx
78fa:	48 89 d0             	mov    rax,rdx
78fd:	48 f7 e3             	mul    rbx
7900:	0f 80 99 01 00 00    	jo     7a9f <hash_rehash+0x22f>
7906:	48 85 c0             	test   rax,rax
7909:	b8 01 00 00 00       	mov    eax,0x1
790e:	48 0f 48 c8          	cmovs  rcx,rax
7912:	48 85 db             	test   rbx,rbx
7915:	0f 84 d5 00 00 00    	je     79f0 <hash_rehash+0x180>
791b:	83 e1 01             	and    ecx,0x1
791e:	0f 85 cc 00 00 00    	jne    79f0 <hash_rehash+0x180>
7924:	48 39 5d 10          	cmp    QWORD PTR [rbp+0x10],rbx
7928:	0f 84 22 01 00 00    	je     7a50 <hash_rehash+0x1e0>
792e:	be 10 00 00 00       	mov    esi,0x10
7933:	48 89 df             	mov    rdi,rbx
7936:	e8 f5 a3 ff ff       	call   1d30 <calloc@plt>
793b:	48 85 c0             	test   rax,rax
793e:	48 89 04 24          	mov    QWORD PTR [rsp],rax
7942:	0f 84 a8 00 00 00    	je     79f0 <hash_rehash+0x180>
7948:	48 89 5c 24 10       	mov    QWORD PTR [rsp+0x10],rbx
794d:	48 c1 e3 04          	shl    rbx,0x4
7951:	4c 89 64 24 28       	mov    QWORD PTR [rsp+0x28],r12
7956:	48 01 c3             	add    rbx,rax
7959:	48 8b 45 30          	mov    rax,QWORD PTR [rbp+0x30]
795d:	49 89 e4             	mov    r12,rsp
7960:	31 d2                	xor    edx,edx
7962:	48 89 ee             	mov    rsi,rbp
7965:	4c 89 e7             	mov    rdi,r12
7968:	48 89 5c 24 08       	mov    QWORD PTR [rsp+0x8],rbx
796d:	48 c7 44 24 18 00 00 	mov    QWORD PTR [rsp+0x18],0x0
7974:	00 00
7976:	48 89 44 24 30       	mov    QWORD PTR [rsp+0x30],rax
797b:	48 8b 45 38          	mov    rax,QWORD PTR [rbp+0x38]
797f:	48 c7 44 24 20 00 00 	mov    QWORD PTR [rsp+0x20],0x0
7986:	00 00
7988:	48 89 44 24 38       	mov    QWORD PTR [rsp+0x38],rax
798d:	48 8b 45 40          	mov    rax,QWORD PTR [rbp+0x40]
7991:	48 89 44 24 40       	mov    QWORD PTR [rsp+0x40],rax
7996:	48 8b 45 48          	mov    rax,QWORD PTR [rbp+0x48]
799a:	48 89 44 24 48       	mov    QWORD PTR [rsp+0x48],rax
799f:	e8 bc f5 ff ff       	call   6f60 <transfer_entries>
79a4:	84 c0                	test   al,al
79a6:	89 c3                	mov    ebx,eax
79a8:	0f 85 b2 00 00 00    	jne    7a60 <hash_rehash+0x1f0>
79ae:	48 8b 44 24 48       	mov    rax,QWORD PTR [rsp+0x48]
79b3:	ba 01 00 00 00       	mov    edx,0x1
79b8:	4c 89 e6             	mov    rsi,r12
79bb:	48 89 ef             	mov    rdi,rbp
79be:	48 89 45 48          	mov    QWORD PTR [rbp+0x48],rax
79c2:	e8 99 f5 ff ff       	call   6f60 <transfer_entries>
79c7:	84 c0                	test   al,al
79c9:	0f 84 da 00 00 00    	je     7aa9 <hash_rehash+0x239>
79cf:	31 d2                	xor    edx,edx
79d1:	4c 89 e6             	mov    rsi,r12
79d4:	48 89 ef             	mov    rdi,rbp
79d7:	e8 84 f5 ff ff       	call   6f60 <transfer_entries>
79dc:	84 c0                	test   al,al
79de:	0f 84 c5 00 00 00    	je     7aa9 <hash_rehash+0x239>
79e4:	48 8b 3c 24          	mov    rdi,QWORD PTR [rsp]
79e8:	e8 03 a1 ff ff       	call   1af0 <free@plt>
79ed:	eb 03                	jmp    79f2 <hash_rehash+0x182>
79ef:	90                   	nop
79f0:	31 db                	xor    ebx,ebx
79f2:	48 8b 4c 24 58       	mov    rcx,QWORD PTR [rsp+0x58]
79f7:	64 48 33 0c 25 28 00 	xor    rcx,QWORD PTR fs:0x28
79fe:	00 00
7a00:	89 d8                	mov    eax,ebx
7a02:	0f 85 92 00 00 00    	jne    7a9a <hash_rehash+0x22a>
7a08:	48 83 c4 60          	add    rsp,0x60
7a0c:	5b                   	pop    rbx
7a0d:	5d                   	pop    rbp
7a0e:	41 5c                	pop    r12
7a10:	c3                   	ret
7a11:	0f 1f 80 00 00 00 00 	nop    DWORD PTR [rax+0x0]
7a18:	48 89 f0             	mov    rax,rsi
7a1b:	66 0f ef c0          	pxor   xmm0,xmm0
7a1f:	48 d1 e8             	shr    rax,1
7a22:	83 e6 01             	and    esi,0x1
7a25:	48 09 f0             	or     rax,rsi
7a28:	f3 48 0f 2a c0       	cvtsi2ss xmm0,rax
7a2d:	f3 0f 58 c0          	addss  xmm0,xmm0
7a31:	e9 73 fe ff ff       	jmp    78a9 <hash_rehash+0x39>
7a36:	66 2e 0f 1f 84 00 00 	nop    WORD PTR cs:[rax+rax*1+0x0]
7a3d:	00 00 00
7a40:	f3 48 0f 2c f0       	cvttss2si rsi,xmm0
7a45:	e9 9e fe ff ff       	jmp    78e8 <hash_rehash+0x78>
7a4a:	66 0f 1f 44 00 00    	nop    WORD PTR [rax+rax*1+0x0]
7a50:	bb 01 00 00 00       	mov    ebx,0x1
7a55:	eb 9b                	jmp    79f2 <hash_rehash+0x182>
7a57:	66 0f 1f 84 00 00 00 	nop    WORD PTR [rax+rax*1+0x0]
7a5e:	00 00
7a60:	48 8b 7d 00          	mov    rdi,QWORD PTR [rbp+0x0]
7a64:	e8 87 a0 ff ff       	call   1af0 <free@plt>
7a69:	48 8b 04 24          	mov    rax,QWORD PTR [rsp]
7a6d:	48 89 45 00          	mov    QWORD PTR [rbp+0x0],rax
7a71:	48 8b 44 24 08       	mov    rax,QWORD PTR [rsp+0x8]
7a76:	48 89 45 08          	mov    QWORD PTR [rbp+0x8],rax
7a7a:	48 8b 44 24 10       	mov    rax,QWORD PTR [rsp+0x10]
7a7f:	48 89 45 10          	mov    QWORD PTR [rbp+0x10],rax
7a83:	48 8b 44 24 18       	mov    rax,QWORD PTR [rsp+0x18]
7a88:	48 89 45 18          	mov    QWORD PTR [rbp+0x18],rax
7a8c:	48 8b 44 24 48       	mov    rax,QWORD PTR [rsp+0x48]
7a91:	48 89 45 48          	mov    QWORD PTR [rbp+0x48],rax
7a95:	e9 58 ff ff ff       	jmp    79f2 <hash_rehash+0x182>
7a9a:	e8 71 a1 ff ff       	call   1c10 <__stack_chk_fail@plt>
7a9f:	b9 01 00 00 00       	mov    ecx,0x1
7aa4:	e9 5d fe ff ff       	jmp    7906 <hash_rehash+0x96>
7aa9:	e8 52 a0 ff ff       	call   1b00 <abort@plt>
7aae:	66 90                	xchg   ax,ax

0000000000007ab0 <hash_insert_if_absent>:
7ab0:	41 55                	push   r13
7ab2:	41 54                	push   r12
7ab4:	55                   	push   rbp
7ab5:	53                   	push   rbx
7ab6:	48 83 ec 18          	sub    rsp,0x18
7aba:	64 48 8b 04 25 28 00 	mov    rax,QWORD PTR fs:0x28
7ac1:	00 00
7ac3:	48 89 44 24 08       	mov    QWORD PTR [rsp+0x8],rax
7ac8:	31 c0                	xor    eax,eax
7aca:	48 85 f6             	test   rsi,rsi
7acd:	0f 84 ba 01 00 00    	je     7c8d <hash_insert_if_absent+0x1dd>
7ad3:	49 89 e4             	mov    r12,rsp
7ad6:	31 c9                	xor    ecx,ecx
7ad8:	49 89 d5             	mov    r13,rdx
7adb:	4c 89 e2             	mov    rdx,r12
7ade:	48 89 fb             	mov    rbx,rdi
7ae1:	48 89 f5             	mov    rbp,rsi
7ae4:	e8 d7 f2 ff ff       	call   6dc0 <hash_find_entry>
7ae9:	48 85 c0             	test   rax,rax
7aec:	48 89 c2             	mov    rdx,rax
7aef:	74 2f                	je     7b20 <hash_insert_if_absent+0x70>
7af1:	31 c0                	xor    eax,eax
7af3:	4d 85 ed             	test   r13,r13
7af6:	74 04                	je     7afc <hash_insert_if_absent+0x4c>
7af8:	49 89 55 00          	mov    QWORD PTR [r13+0x0],rdx
7afc:	48 8b 4c 24 08       	mov    rcx,QWORD PTR [rsp+0x8]
7b01:	64 48 33 0c 25 28 00 	xor    rcx,QWORD PTR fs:0x28
7b08:	00 00
7b0a:	0f 85 1f 02 00 00    	jne    7d2f <hash_insert_if_absent+0x27f>
7b10:	48 83 c4 18          	add    rsp,0x18
7b14:	5b                   	pop    rbx
7b15:	5d                   	pop    rbp
7b16:	41 5c                	pop    r12
7b18:	41 5d                	pop    r13
7b1a:	c3                   	ret
7b1b:	0f 1f 44 00 00       	nop    DWORD PTR [rax+rax*1+0x0]
7b20:	48 8b 43 18          	mov    rax,QWORD PTR [rbx+0x18]
7b24:	48 85 c0             	test   rax,rax
7b27:	78 77                	js     7ba0 <hash_insert_if_absent+0xf0>
7b29:	66 0f ef c9          	pxor   xmm1,xmm1
7b2d:	48 8b 53 28          	mov    rdx,QWORD PTR [rbx+0x28]
7b31:	f3 48 0f 2a c8       	cvtsi2ss xmm1,rax
7b36:	48 8b 43 10          	mov    rax,QWORD PTR [rbx+0x10]
7b3a:	48 85 c0             	test   rax,rax
7b3d:	0f 88 87 00 00 00    	js     7bca <hash_insert_if_absent+0x11a>
7b43:	66 0f ef c0          	pxor   xmm0,xmm0
7b47:	f3 48 0f 2a c0       	cvtsi2ss xmm0,rax
7b4c:	f3 0f 59 42 08       	mulss  xmm0,DWORD PTR [rdx+0x8]
7b51:	0f 2e c8             	ucomiss xmm1,xmm0
7b54:	0f 87 96 00 00 00    	ja     7bf0 <hash_insert_if_absent+0x140>
7b5a:	4c 8b 24 24          	mov    r12,QWORD PTR [rsp]
7b5e:	49 83 3c 24 00       	cmp    QWORD PTR [r12],0x0
7b63:	0f 84 2f 01 00 00    	je     7c98 <hash_insert_if_absent+0x1e8>
7b69:	48 8b 43 48          	mov    rax,QWORD PTR [rbx+0x48]
7b6d:	48 85 c0             	test   rax,rax
7b70:	0f 84 3a 01 00 00    	je     7cb0 <hash_insert_if_absent+0x200>
7b76:	48 8b 50 08          	mov    rdx,QWORD PTR [rax+0x8]
7b7a:	48 89 53 48          	mov    QWORD PTR [rbx+0x48],rdx
7b7e:	49 8b 54 24 08       	mov    rdx,QWORD PTR [r12+0x8]
7b83:	48 89 28             	mov    QWORD PTR [rax],rbp
7b86:	48 89 50 08          	mov    QWORD PTR [rax+0x8],rdx
7b8a:	49 89 44 24 08       	mov    QWORD PTR [r12+0x8],rax
7b8f:	b8 01 00 00 00       	mov    eax,0x1
7b94:	48 83 43 20 01       	add    QWORD PTR [rbx+0x20],0x1
7b99:	e9 5e ff ff ff       	jmp    7afc <hash_insert_if_absent+0x4c>
7b9e:	66 90                	xchg   ax,ax
7ba0:	48 89 c2             	mov    rdx,rax
7ba3:	66 0f ef c9          	pxor   xmm1,xmm1
7ba7:	83 e0 01             	and    eax,0x1
7baa:	48 d1 ea             	shr    rdx,1
7bad:	48 09 c2             	or     rdx,rax
7bb0:	48 8b 43 10          	mov    rax,QWORD PTR [rbx+0x10]
7bb4:	f3 48 0f 2a ca       	cvtsi2ss xmm1,rdx
7bb9:	48 8b 53 28          	mov    rdx,QWORD PTR [rbx+0x28]
7bbd:	48 85 c0             	test   rax,rax
7bc0:	f3 0f 58 c9          	addss  xmm1,xmm1
7bc4:	0f 89 79 ff ff ff    	jns    7b43 <hash_insert_if_absent+0x93>
7bca:	48 89 c1             	mov    rcx,rax
7bcd:	66 0f ef c0          	pxor   xmm0,xmm0
7bd1:	48 d1 e9             	shr    rcx,1
7bd4:	83 e0 01             	and    eax,0x1
7bd7:	48 09 c1             	or     rcx,rax
7bda:	f3 48 0f 2a c1       	cvtsi2ss xmm0,rcx
7bdf:	f3 0f 58 c0          	addss  xmm0,xmm0
7be3:	e9 64 ff ff ff       	jmp    7b4c <hash_insert_if_absent+0x9c>
7be8:	0f 1f 84 00 00 00 00 	nop    DWORD PTR [rax+rax*1+0x0]
7bef:	00
7bf0:	48 8d 7b 28          	lea    rdi,[rbx+0x28]
7bf4:	e8 e7 f2 ff ff       	call   6ee0 <check_tuning.isra.0>
7bf9:	48 8b 43 10          	mov    rax,QWORD PTR [rbx+0x10]
7bfd:	48 8b 53 28          	mov    rdx,QWORD PTR [rbx+0x28]
7c01:	48 85 c0             	test   rax,rax
7c04:	f3 0f 10 52 08       	movss  xmm2,DWORD PTR [rdx+0x8]
7c09:	0f 88 c1 00 00 00    	js     7cd0 <hash_insert_if_absent+0x220>
7c0f:	66 0f ef c0          	pxor   xmm0,xmm0
7c13:	f3 48 0f 2a c0       	cvtsi2ss xmm0,rax
7c18:	48 8b 43 18          	mov    rax,QWORD PTR [rbx+0x18]
7c1c:	48 85 c0             	test   rax,rax
7c1f:	0f 88 cb 00 00 00    	js     7cf0 <hash_insert_if_absent+0x240>
7c25:	66 0f ef c9          	pxor   xmm1,xmm1
7c29:	f3 48 0f 2a c8       	cvtsi2ss xmm1,rax
7c2e:	0f 28 da             	movaps xmm3,xmm2
7c31:	f3 0f 59 d8          	mulss  xmm3,xmm0
7c35:	0f 2e cb             	ucomiss xmm1,xmm3
7c38:	0f 86 1c ff ff ff    	jbe    7b5a <hash_insert_if_absent+0xaa>
7c3e:	80 7a 10 00          	cmp    BYTE PTR [rdx+0x10],0x0
7c42:	f3 0f 59 42 0c       	mulss  xmm0,DWORD PTR [rdx+0xc]
7c47:	75 04                	jne    7c4d <hash_insert_if_absent+0x19d>
7c49:	f3 0f 59 c2          	mulss  xmm0,xmm2
7c4d:	0f 2e 05 18 4e 00 00 	ucomiss xmm0,DWORD PTR [rip+0x4e18]        # ca6c <default_tuning+0x2c>
7c54:	73 6d                	jae    7cc3 <hash_insert_if_absent+0x213>
7c56:	0f 2e 05 13 4e 00 00 	ucomiss xmm0,DWORD PTR [rip+0x4e13]        # ca70 <default_tuning+0x30>
7c5d:	0f 83 ad 00 00 00    	jae    7d10 <hash_insert_if_absent+0x260>
7c63:	f3 48 0f 2c f0       	cvttss2si rsi,xmm0
7c68:	48 89 df             	mov    rdi,rbx
7c6b:	e8 00 fc ff ff       	call   7870 <hash_rehash>
7c70:	84 c0                	test   al,al
7c72:	74 4f                	je     7cc3 <hash_insert_if_absent+0x213>
7c74:	31 c9                	xor    ecx,ecx
7c76:	4c 89 e2             	mov    rdx,r12
7c79:	48 89 ee             	mov    rsi,rbp
7c7c:	48 89 df             	mov    rdi,rbx
7c7f:	e8 3c f1 ff ff       	call   6dc0 <hash_find_entry>
7c84:	48 85 c0             	test   rax,rax
7c87:	0f 84 cd fe ff ff    	je     7b5a <hash_insert_if_absent+0xaa>
7c8d:	e8 6e 9e ff ff       	call   1b00 <abort@plt>
7c92:	66 0f 1f 44 00 00    	nop    WORD PTR [rax+rax*1+0x0]
7c98:	49 89 2c 24          	mov    QWORD PTR [r12],rbp
7c9c:	b8 01 00 00 00       	mov    eax,0x1
7ca1:	48 83 43 20 01       	add    QWORD PTR [rbx+0x20],0x1
7ca6:	48 83 43 18 01       	add    QWORD PTR [rbx+0x18],0x1
7cab:	e9 4c fe ff ff       	jmp    7afc <hash_insert_if_absent+0x4c>
7cb0:	bf 10 00 00 00       	mov    edi,0x10
7cb5:	e8 06 a1 ff ff       	call   1dc0 <malloc@plt>
7cba:	48 85 c0             	test   rax,rax
7cbd:	0f 85 bb fe ff ff    	jne    7b7e <hash_insert_if_absent+0xce>
7cc3:	b8 ff ff ff ff       	mov    eax,0xffffffff
7cc8:	e9 2f fe ff ff       	jmp    7afc <hash_insert_if_absent+0x4c>
7ccd:	0f 1f 00             	nop    DWORD PTR [rax]
7cd0:	48 89 c1             	mov    rcx,rax
7cd3:	66 0f ef c0          	pxor   xmm0,xmm0
7cd7:	48 d1 e9             	shr    rcx,1
7cda:	83 e0 01             	and    eax,0x1
7cdd:	48 09 c1             	or     rcx,rax
7ce0:	f3 48 0f 2a c1       	cvtsi2ss xmm0,rcx
7ce5:	f3 0f 58 c0          	addss  xmm0,xmm0
7ce9:	e9 2a ff ff ff       	jmp    7c18 <hash_insert_if_absent+0x168>
7cee:	66 90                	xchg   ax,ax
7cf0:	48 89 c1             	mov    rcx,rax
7cf3:	66 0f ef c9          	pxor   xmm1,xmm1
7cf7:	48 d1 e9             	shr    rcx,1
7cfa:	83 e0 01             	and    eax,0x1
7cfd:	48 09 c1             	or     rcx,rax
7d00:	f3 48 0f 2a c9       	cvtsi2ss xmm1,rcx
7d05:	f3 0f 58 c9          	addss  xmm1,xmm1
7d09:	e9 20 ff ff ff       	jmp    7c2e <hash_insert_if_absent+0x17e>
7d0e:	66 90                	xchg   ax,ax
7d10:	f3 0f 5c 05 58 4d 00 	subss  xmm0,DWORD PTR [rip+0x4d58]        # ca70 <default_tuning+0x30>
7d17:	00
7d18:	48 b8 00 00 00 00 00 	movabs rax,0x8000000000000000
7d1f:	00 00 80
7d22:	f3 48 0f 2c f0       	cvttss2si rsi,xmm0
7d27:	48 31 c6             	xor    rsi,rax
7d2a:	e9 39 ff ff ff       	jmp    7c68 <hash_insert_if_absent+0x1b8>
7d2f:	e8 dc 9e ff ff       	call   1c10 <__stack_chk_fail@plt>
7d34:	66 90                	xchg   ax,ax
7d36:	66 2e 0f 1f 84 00 00 	nop    WORD PTR cs:[rax+rax*1+0x0]
7d3d:	00 00 00

0000000000007d40 <hash_insert>:
7d40:	53                   	push   rbx
7d41:	48 89 f3             	mov    rbx,rsi
7d44:	48 83 ec 10          	sub    rsp,0x10
7d48:	48 89 e2             	mov    rdx,rsp
7d4b:	64 48 8b 04 25 28 00 	mov    rax,QWORD PTR fs:0x28
7d52:	00 00
7d54:	48 89 44 24 08       	mov    QWORD PTR [rsp+0x8],rax
7d59:	31 c0                	xor    eax,eax
7d5b:	e8 50 fd ff ff       	call   7ab0 <hash_insert_if_absent>
7d60:	83 f8 ff             	cmp    eax,0xffffffff
7d63:	74 2b                	je     7d90 <hash_insert+0x50>
7d65:	85 c0                	test   eax,eax
7d67:	75 04                	jne    7d6d <hash_insert+0x2d>
7d69:	48 8b 1c 24          	mov    rbx,QWORD PTR [rsp]
7d6d:	48 8b 4c 24 08       	mov    rcx,QWORD PTR [rsp+0x8]
7d72:	64 48 33 0c 25 28 00 	xor    rcx,QWORD PTR fs:0x28
7d79:	00 00
7d7b:	48 89 d8             	mov    rax,rbx
7d7e:	75 14                	jne    7d94 <hash_insert+0x54>
7d80:	48 83 c4 10          	add    rsp,0x10
7d84:	5b                   	pop    rbx
7d85:	c3                   	ret
7d86:	66 2e 0f 1f 84 00 00 	nop    WORD PTR cs:[rax+rax*1+0x0]
7d8d:	00 00 00
7d90:	31 db                	xor    ebx,ebx
7d92:	eb d9                	jmp    7d6d <hash_insert+0x2d>
7d94:	e8 77 9e ff ff       	call   1c10 <__stack_chk_fail@plt>
7d99:	0f 1f 80 00 00 00 00 	nop    DWORD PTR [rax+0x0]

0000000000007da0 <hash_delete>:
7da0:	41 54                	push   r12
7da2:	55                   	push   rbp
7da3:	b9 01 00 00 00       	mov    ecx,0x1
7da8:	53                   	push   rbx
7da9:	48 89 fb             	mov    rbx,rdi
7dac:	48 83 ec 10          	sub    rsp,0x10
7db0:	48 89 e2             	mov    rdx,rsp
7db3:	64 48 8b 04 25 28 00 	mov    rax,QWORD PTR fs:0x28
7dba:	00 00
7dbc:	48 89 44 24 08       	mov    QWORD PTR [rsp+0x8],rax
7dc1:	31 c0                	xor    eax,eax
7dc3:	e8 f8 ef ff ff       	call   6dc0 <hash_find_entry>
7dc8:	48 85 c0             	test   rax,rax
7dcb:	48 89 c5             	mov    rbp,rax
7dce:	74 0f                	je     7ddf <hash_delete+0x3f>
7dd0:	48 8b 04 24          	mov    rax,QWORD PTR [rsp]
7dd4:	48 83 6b 20 01       	sub    QWORD PTR [rbx+0x20],0x1
7dd9:	48 83 38 00          	cmp    QWORD PTR [rax],0x0
7ddd:	74 21                	je     7e00 <hash_delete+0x60>
7ddf:	48 8b 4c 24 08       	mov    rcx,QWORD PTR [rsp+0x8]
7de4:	64 48 33 0c 25 28 00 	xor    rcx,QWORD PTR fs:0x28
7deb:	00 00
7ded:	48 89 e8             	mov    rax,rbp
7df0:	0f 85 a8 01 00 00    	jne    7f9e <hash_delete+0x1fe>
7df6:	48 83 c4 10          	add    rsp,0x10
7dfa:	5b                   	pop    rbx
7dfb:	5d                   	pop    rbp
7dfc:	41 5c                	pop    r12
7dfe:	c3                   	ret
7dff:	90                   	nop
7e00:	48 8b 43 18          	mov    rax,QWORD PTR [rbx+0x18]
7e04:	48 83 e8 01          	sub    rax,0x1
7e08:	48 85 c0             	test   rax,rax
7e0b:	48 89 43 18          	mov    QWORD PTR [rbx+0x18],rax
7e0f:	0f 88 fb 00 00 00    	js     7f10 <hash_delete+0x170>
7e15:	66 0f ef c0          	pxor   xmm0,xmm0
7e19:	f3 48 0f 2a c0       	cvtsi2ss xmm0,rax
7e1e:	48 8b 43 10          	mov    rax,QWORD PTR [rbx+0x10]
7e22:	48 8b 53 28          	mov    rdx,QWORD PTR [rbx+0x28]
7e26:	48 85 c0             	test   rax,rax
7e29:	0f 88 c1 00 00 00    	js     7ef0 <hash_delete+0x150>
7e2f:	66 0f ef c9          	pxor   xmm1,xmm1
7e33:	f3 48 0f 2a c8       	cvtsi2ss xmm1,rax
7e38:	f3 0f 59 0a          	mulss  xmm1,DWORD PTR [rdx]
7e3c:	0f 2e c8             	ucomiss xmm1,xmm0
7e3f:	76 9e                	jbe    7ddf <hash_delete+0x3f>
7e41:	48 8d 7b 28          	lea    rdi,[rbx+0x28]
7e45:	e8 96 f0 ff ff       	call   6ee0 <check_tuning.isra.0>
7e4a:	48 8b 43 10          	mov    rax,QWORD PTR [rbx+0x10]
7e4e:	48 8b 53 28          	mov    rdx,QWORD PTR [rbx+0x28]
7e52:	48 85 c0             	test   rax,rax
7e55:	0f 88 25 01 00 00    	js     7f80 <hash_delete+0x1e0>
7e5b:	66 0f ef c0          	pxor   xmm0,xmm0
7e5f:	f3 48 0f 2a c0       	cvtsi2ss xmm0,rax
7e64:	48 8b 43 18          	mov    rax,QWORD PTR [rbx+0x18]
7e68:	48 85 c0             	test   rax,rax
7e6b:	0f 88 ef 00 00 00    	js     7f60 <hash_delete+0x1c0>
7e71:	66 0f ef c9          	pxor   xmm1,xmm1
7e75:	f3 48 0f 2a c8       	cvtsi2ss xmm1,rax
7e7a:	f3 0f 10 12          	movss  xmm2,DWORD PTR [rdx]
7e7e:	f3 0f 59 d0          	mulss  xmm2,xmm0
7e82:	0f 2e d1             	ucomiss xmm2,xmm1
7e85:	0f 86 54 ff ff ff    	jbe    7ddf <hash_delete+0x3f>
7e8b:	80 7a 10 00          	cmp    BYTE PTR [rdx+0x10],0x0
7e8f:	f3 0f 59 42 04       	mulss  xmm0,DWORD PTR [rdx+0x4]
7e94:	0f 84 b6 00 00 00    	je     7f50 <hash_delete+0x1b0>
7e9a:	0f 2e 05 cf 4b 00 00 	ucomiss xmm0,DWORD PTR [rip+0x4bcf]        # ca70 <default_tuning+0x30>
7ea1:	0f 83 89 00 00 00    	jae    7f30 <hash_delete+0x190>
7ea7:	f3 48 0f 2c f0       	cvttss2si rsi,xmm0
7eac:	48 89 df             	mov    rdi,rbx
7eaf:	e8 bc f9 ff ff       	call   7870 <hash_rehash>
7eb4:	84 c0                	test   al,al
7eb6:	0f 85 23 ff ff ff    	jne    7ddf <hash_delete+0x3f>
7ebc:	48 8b 7b 48          	mov    rdi,QWORD PTR [rbx+0x48]
7ec0:	48 85 ff             	test   rdi,rdi
7ec3:	74 14                	je     7ed9 <hash_delete+0x139>
7ec5:	0f 1f 00             	nop    DWORD PTR [rax]
7ec8:	4c 8b 67 08          	mov    r12,QWORD PTR [rdi+0x8]
7ecc:	e8 1f 9c ff ff       	call   1af0 <free@plt>
7ed1:	4d 85 e4             	test   r12,r12
7ed4:	4c 89 e7             	mov    rdi,r12
7ed7:	75 ef                	jne    7ec8 <hash_delete+0x128>
7ed9:	48 c7 43 48 00 00 00 	mov    QWORD PTR [rbx+0x48],0x0
7ee0:	00
7ee1:	e9 f9 fe ff ff       	jmp    7ddf <hash_delete+0x3f>
7ee6:	66 2e 0f 1f 84 00 00 	nop    WORD PTR cs:[rax+rax*1+0x0]
7eed:	00 00 00
7ef0:	48 89 c1             	mov    rcx,rax
7ef3:	66 0f ef c9          	pxor   xmm1,xmm1
7ef7:	48 d1 e9             	shr    rcx,1
7efa:	83 e0 01             	and    eax,0x1
7efd:	48 09 c1             	or     rcx,rax
7f00:	f3 48 0f 2a c9       	cvtsi2ss xmm1,rcx
7f05:	f3 0f 58 c9          	addss  xmm1,xmm1
7f09:	e9 2a ff ff ff       	jmp    7e38 <hash_delete+0x98>
7f0e:	66 90                	xchg   ax,ax
7f10:	48 89 c2             	mov    rdx,rax
7f13:	66 0f ef c0          	pxor   xmm0,xmm0
7f17:	48 d1 ea             	shr    rdx,1
7f1a:	83 e0 01             	and    eax,0x1
7f1d:	48 09 c2             	or     rdx,rax
7f20:	f3 48 0f 2a c2       	cvtsi2ss xmm0,rdx
7f25:	f3 0f 58 c0          	addss  xmm0,xmm0
7f29:	e9 f0 fe ff ff       	jmp    7e1e <hash_delete+0x7e>
7f2e:	66 90                	xchg   ax,ax
7f30:	f3 0f 5c 05 38 4b 00 	subss  xmm0,DWORD PTR [rip+0x4b38]        # ca70 <default_tuning+0x30>
7f37:	00
7f38:	48 b8 00 00 00 00 00 	movabs rax,0x8000000000000000
7f3f:	00 00 80
7f42:	f3 48 0f 2c f0       	cvttss2si rsi,xmm0
7f47:	48 31 c6             	xor    rsi,rax
7f4a:	e9 5d ff ff ff       	jmp    7eac <hash_delete+0x10c>
7f4f:	90                   	nop
7f50:	f3 0f 59 42 08       	mulss  xmm0,DWORD PTR [rdx+0x8]
7f55:	e9 40 ff ff ff       	jmp    7e9a <hash_delete+0xfa>
7f5a:	66 0f 1f 44 00 00    	nop    WORD PTR [rax+rax*1+0x0]
7f60:	48 89 c1             	mov    rcx,rax
7f63:	66 0f ef c9          	pxor   xmm1,xmm1
7f67:	48 d1 e9             	shr    rcx,1
7f6a:	83 e0 01             	and    eax,0x1
7f6d:	48 09 c1             	or     rcx,rax
7f70:	f3 48 0f 2a c9       	cvtsi2ss xmm1,rcx
7f75:	f3 0f 58 c9          	addss  xmm1,xmm1
7f79:	e9 fc fe ff ff       	jmp    7e7a <hash_delete+0xda>
7f7e:	66 90                	xchg   ax,ax
7f80:	48 89 c1             	mov    rcx,rax
7f83:	66 0f ef c0          	pxor   xmm0,xmm0
7f87:	48 d1 e9             	shr    rcx,1
7f8a:	83 e0 01             	and    eax,0x1
7f8d:	48 09 c1             	or     rcx,rax
7f90:	f3 48 0f 2a c1       	cvtsi2ss xmm0,rcx
7f95:	f3 0f 58 c0          	addss  xmm0,xmm0
7f99:	e9 c6 fe ff ff       	jmp    7e64 <hash_delete+0xc4>
7f9e:	e8 6d 9c ff ff       	call   1c10 <__stack_chk_fail@plt>
7fa3:	66 2e 0f 1f 84 00 00 	nop    WORD PTR cs:[rax+rax*1+0x0]
7faa:	00 00 00
7fad:	0f 1f 00             	nop    DWORD PTR [rax]

0000000000007fb0 <offtostr>:
7fb0:	48 85 ff             	test   rdi,rdi
7fb3:	48 8d 4e 14          	lea    rcx,[rsi+0x14]
7fb7:	c6 46 14 00          	mov    BYTE PTR [rsi+0x14],0x0
7fbb:	49 b9 67 66 66 66 66 	movabs r9,0x6666666666666667
7fc2:	66 66 66
7fc5:	48 be cd cc cc cc cc 	movabs rsi,0xcccccccccccccccd
7fcc:	cc cc cc
7fcf:	41 b8 30 00 00 00    	mov    r8d,0x30
7fd5:	78 3c                	js     8013 <offtostr+0x63>
7fd7:	66 0f 1f 84 00 00 00 	nop    WORD PTR [rax+rax*1+0x0]
7fde:	00 00
7fe0:	48 89 f8             	mov    rax,rdi
7fe3:	48 83 e9 01          	sub    rcx,0x1
7fe7:	48 f7 e6             	mul    rsi
7fea:	48 c1 ea 03          	shr    rdx,0x3
7fee:	48 8d 04 92          	lea    rax,[rdx+rdx*4]
7ff2:	48 01 c0             	add    rax,rax
7ff5:	48 29 c7             	sub    rdi,rax
7ff8:	83 c7 30             	add    edi,0x30
7ffb:	48 85 d2             	test   rdx,rdx
7ffe:	40 88 39             	mov    BYTE PTR [rcx],dil
8001:	48 89 d7             	mov    rdi,rdx
8004:	75 da                	jne    7fe0 <offtostr+0x30>
8006:	48 89 c8             	mov    rax,rcx
8009:	c3                   	ret
800a:	66 0f 1f 44 00 00    	nop    WORD PTR [rax+rax*1+0x0]
8010:	48 89 f1             	mov    rcx,rsi
8013:	48 89 f8             	mov    rax,rdi
8016:	48 8d 71 ff          	lea    rsi,[rcx-0x1]
801a:	49 f7 e9             	imul   r9
801d:	48 89 f8             	mov    rax,rdi
8020:	48 c1 f8 3f          	sar    rax,0x3f
8024:	48 c1 fa 02          	sar    rdx,0x2
8028:	48 29 c2             	sub    rdx,rax
802b:	48 8d 04 92          	lea    rax,[rdx+rdx*4]
802f:	41 8d 04 40          	lea    eax,[r8+rax*2]
8033:	29 f8                	sub    eax,edi
8035:	48 85 d2             	test   rdx,rdx
8038:	48 89 d7             	mov    rdi,rdx
803b:	88 41 ff             	mov    BYTE PTR [rcx-0x1],al
803e:	75 d0                	jne    8010 <offtostr+0x60>
8040:	48 83 e9 02          	sub    rcx,0x2
8044:	c6 46 ff 2d          	mov    BYTE PTR [rsi-0x1],0x2d
8048:	48 89 c8             	mov    rax,rcx
804b:	c3                   	ret
804c:	0f 1f 40 00          	nop    DWORD PTR [rax+0x0]

0000000000008050 <posix2_version>:
8050:	53                   	push   rbx
8051:	48 8d 3d 28 4a 00 00 	lea    rdi,[rip+0x4a28]        # ca80 <default_tuning+0x40>
8058:	bb 69 10 03 00       	mov    ebx,0x31069
805d:	48 83 ec 10          	sub    rsp,0x10
8061:	64 48 8b 04 25 28 00 	mov    rax,QWORD PTR fs:0x28
8068:	00 00
806a:	48 89 44 24 08       	mov    QWORD PTR [rsp+0x8],rax
806f:	31 c0                	xor    eax,eax
8071:	e8 5a 9a ff ff       	call   1ad0 <getenv@plt>
8076:	48 85 c0             	test   rax,rax
8079:	74 05                	je     8080 <posix2_version+0x30>
807b:	80 38 00             	cmp    BYTE PTR [rax],0x0
807e:	75 20                	jne    80a0 <posix2_version+0x50>
8080:	48 8b 4c 24 08       	mov    rcx,QWORD PTR [rsp+0x8]
8085:	64 48 33 0c 25 28 00 	xor    rcx,QWORD PTR fs:0x28
808c:	00 00
808e:	89 d8                	mov    eax,ebx
8090:	75 47                	jne    80d9 <posix2_version+0x89>
8092:	48 83 c4 10          	add    rsp,0x10
8096:	5b                   	pop    rbx
8097:	c3                   	ret
8098:	0f 1f 84 00 00 00 00 	nop    DWORD PTR [rax+rax*1+0x0]
809f:	00
80a0:	ba 0a 00 00 00       	mov    edx,0xa
80a5:	48 89 e6             	mov    rsi,rsp
80a8:	48 89 c7             	mov    rdi,rax
80ab:	e8 a0 9c ff ff       	call   1d50 <strtol@plt>
80b0:	48 8b 14 24          	mov    rdx,QWORD PTR [rsp]
80b4:	80 3a 00             	cmp    BYTE PTR [rdx],0x0
80b7:	75 c7                	jne    8080 <posix2_version+0x30>
80b9:	48 3d 00 00 00 80    	cmp    rax,0xffffffff80000000
80bf:	7c 11                	jl     80d2 <posix2_version+0x82>
80c1:	48 3d ff ff ff 7f    	cmp    rax,0x7fffffff
80c7:	bb ff ff ff 7f       	mov    ebx,0x7fffffff
80cc:	48 0f 4e d8          	cmovle rbx,rax
80d0:	eb ae                	jmp    8080 <posix2_version+0x30>
80d2:	bb 00 00 00 80       	mov    ebx,0x80000000
80d7:	eb a7                	jmp    8080 <posix2_version+0x30>
80d9:	e8 32 9b ff ff       	call   1c10 <__stack_chk_fail@plt>
80de:	66 90                	xchg   ax,ax

00000000000080e0 <set_program_name>:
80e0:	48 85 ff             	test   rdi,rdi
80e3:	53                   	push   rbx
80e4:	74 77                	je     815d <set_program_name+0x7d>
80e6:	be 2f 00 00 00       	mov    esi,0x2f
80eb:	48 89 fb             	mov    rbx,rdi
80ee:	e8 9d 9b ff ff       	call   1c90 <strrchr@plt>
80f3:	48 85 c0             	test   rax,rax
80f6:	74 55                	je     814d <set_program_name+0x6d>
80f8:	4c 8d 40 01          	lea    r8,[rax+0x1]
80fc:	4c 89 c2             	mov    rdx,r8
80ff:	48 29 da             	sub    rdx,rbx
8102:	48 83 fa 06          	cmp    rdx,0x6
8106:	7e 45                	jle    814d <set_program_name+0x6d>
8108:	48 8d 70 fa          	lea    rsi,[rax-0x6]
810c:	48 8d 3d b5 49 00 00 	lea    rdi,[rip+0x49b5]        # cac8 <default_tuning+0x88>
8113:	b9 07 00 00 00       	mov    ecx,0x7
8118:	f3 a6                	repz cmps BYTE PTR ds:[rsi],BYTE PTR es:[rdi]
811a:	0f 97 c2             	seta   dl
811d:	80 da 00             	sbb    dl,0x0
8120:	84 d2                	test   dl,dl
8122:	75 29                	jne    814d <set_program_name+0x6d>
8124:	48 8d 3d a5 49 00 00 	lea    rdi,[rip+0x49a5]        # cad0 <default_tuning+0x90>
812b:	b9 03 00 00 00       	mov    ecx,0x3
8130:	4c 89 c6             	mov    rsi,r8
8133:	4c 89 c3             	mov    rbx,r8
8136:	f3 a6                	repz cmps BYTE PTR ds:[rsi],BYTE PTR es:[rdi]
8138:	0f 97 c2             	seta   dl
813b:	80 da 00             	sbb    dl,0x0
813e:	84 d2                	test   dl,dl
8140:	75 0b                	jne    814d <set_program_name+0x6d>
8142:	48 8d 58 04          	lea    rbx,[rax+0x4]
8146:	48 89 1d 73 7f 20 00 	mov    QWORD PTR [rip+0x207f73],rbx        # 2100c0 <__progname@@GLIBC_2.2.5>
814d:	48 89 1d dc 7f 20 00 	mov    QWORD PTR [rip+0x207fdc],rbx        # 210130 <program_name>
8154:	48 89 1d 85 7f 20 00 	mov    QWORD PTR [rip+0x207f85],rbx        # 2100e0 <__progname_full@@GLIBC_2.2.5>
815b:	5b                   	pop    rbx
815c:	c3                   	ret
815d:	48 8b 0d 9c 7f 20 00 	mov    rcx,QWORD PTR [rip+0x207f9c]        # 210100 <stderr@@GLIBC_2.2.5>
8164:	48 8d 3d 25 49 00 00 	lea    rdi,[rip+0x4925]        # ca90 <default_tuning+0x50>
816b:	ba 37 00 00 00       	mov    edx,0x37
8170:	be 01 00 00 00       	mov    esi,0x1
8175:	e8 56 9d ff ff       	call   1ed0 <fwrite@plt>
817a:	e8 81 99 ff ff       	call   1b00 <abort@plt>
817f:	90                   	nop

0000000000008180 <gettext_quote.part.1>:
8180:	55                   	push   rbp
8181:	53                   	push   rbx
8182:	48 89 fd             	mov    rbp,rdi
8185:	89 f3                	mov    ebx,esi
8187:	48 83 ec 08          	sub    rsp,0x8
818b:	e8 60 32 00 00       	call   b3f0 <locale_charset>
8190:	0f b6 10             	movzx  edx,BYTE PTR [rax]
8193:	83 e2 df             	and    edx,0xffffffdf
8196:	80 fa 55             	cmp    dl,0x55
8199:	74 75                	je     8210 <gettext_quote.part.1+0x90>
819b:	80 fa 47             	cmp    dl,0x47
819e:	74 20                	je     81c0 <gettext_quote.part.1+0x40>
81a0:	48 8d 05 3c 49 00 00 	lea    rax,[rip+0x493c]        # cae3 <default_tuning+0xa3>
81a7:	48 8d 15 37 49 00 00 	lea    rdx,[rip+0x4937]        # cae5 <default_tuning+0xa5>
81ae:	83 fb 09             	cmp    ebx,0x9
81b1:	48 0f 45 c2          	cmovne rax,rdx
81b5:	48 83 c4 08          	add    rsp,0x8
81b9:	5b                   	pop    rbx
81ba:	5d                   	pop    rbp
81bb:	c3                   	ret
81bc:	0f 1f 40 00          	nop    DWORD PTR [rax+0x0]
81c0:	0f b6 50 01          	movzx  edx,BYTE PTR [rax+0x1]
81c4:	83 e2 df             	and    edx,0xffffffdf
81c7:	80 fa 42             	cmp    dl,0x42
81ca:	75 d4                	jne    81a0 <gettext_quote.part.1+0x20>
81cc:	80 78 02 31          	cmp    BYTE PTR [rax+0x2],0x31
81d0:	75 ce                	jne    81a0 <gettext_quote.part.1+0x20>
81d2:	80 78 03 38          	cmp    BYTE PTR [rax+0x3],0x38
81d6:	75 c8                	jne    81a0 <gettext_quote.part.1+0x20>
81d8:	80 78 04 30          	cmp    BYTE PTR [rax+0x4],0x30
81dc:	75 c2                	jne    81a0 <gettext_quote.part.1+0x20>
81de:	80 78 05 33          	cmp    BYTE PTR [rax+0x5],0x33
81e2:	75 bc                	jne    81a0 <gettext_quote.part.1+0x20>
81e4:	80 78 06 30          	cmp    BYTE PTR [rax+0x6],0x30
81e8:	75 b6                	jne    81a0 <gettext_quote.part.1+0x20>
81ea:	80 78 07 00          	cmp    BYTE PTR [rax+0x7],0x0
81ee:	75 b0                	jne    81a0 <gettext_quote.part.1+0x20>
81f0:	80 7d 00 60          	cmp    BYTE PTR [rbp+0x0],0x60
81f4:	48 8d 05 e1 48 00 00 	lea    rax,[rip+0x48e1]        # cadc <default_tuning+0x9c>
81fb:	48 8d 15 de 48 00 00 	lea    rdx,[rip+0x48de]        # cae0 <default_tuning+0xa0>
8202:	48 0f 45 c2          	cmovne rax,rdx
8206:	48 83 c4 08          	add    rsp,0x8
820a:	5b                   	pop    rbx
820b:	5d                   	pop    rbp
820c:	c3                   	ret
820d:	0f 1f 00             	nop    DWORD PTR [rax]
8210:	0f b6 50 01          	movzx  edx,BYTE PTR [rax+0x1]
8214:	83 e2 df             	and    edx,0xffffffdf
8217:	80 fa 54             	cmp    dl,0x54
821a:	75 84                	jne    81a0 <gettext_quote.part.1+0x20>
821c:	0f b6 50 02          	movzx  edx,BYTE PTR [rax+0x2]
8220:	83 e2 df             	and    edx,0xffffffdf
8223:	80 fa 46             	cmp    dl,0x46
8226:	0f 85 74 ff ff ff    	jne    81a0 <gettext_quote.part.1+0x20>
822c:	80 78 03 2d          	cmp    BYTE PTR [rax+0x3],0x2d
8230:	0f 85 6a ff ff ff    	jne    81a0 <gettext_quote.part.1+0x20>
8236:	80 78 04 38          	cmp    BYTE PTR [rax+0x4],0x38
823a:	0f 85 60 ff ff ff    	jne    81a0 <gettext_quote.part.1+0x20>
8240:	80 78 05 00          	cmp    BYTE PTR [rax+0x5],0x0
8244:	0f 85 56 ff ff ff    	jne    81a0 <gettext_quote.part.1+0x20>
824a:	80 7d 00 60          	cmp    BYTE PTR [rbp+0x0],0x60
824e:	48 8d 05 7f 48 00 00 	lea    rax,[rip+0x487f]        # cad4 <default_tuning+0x94>
8255:	48 8d 15 7c 48 00 00 	lea    rdx,[rip+0x487c]        # cad8 <default_tuning+0x98>
825c:	48 0f 45 c2          	cmovne rax,rdx
8260:	48 83 c4 08          	add    rsp,0x8
8264:	5b                   	pop    rbx
8265:	5d                   	pop    rbp
8266:	c3                   	ret
8267:	66 0f 1f 84 00 00 00 	nop    WORD PTR [rax+rax*1+0x0]
826e:	00 00

0000000000008270 <quotearg_buffer_restyled>:
8270:	41 57                	push   r15
8272:	41 56                	push   r14
8274:	45 89 c7             	mov    r15d,r8d
8277:	41 55                	push   r13
8279:	41 54                	push   r12
827b:	49 89 fe             	mov    r14,rdi
827e:	55                   	push   rbp
827f:	53                   	push   rbx
8280:	44 89 cb             	mov    ebx,r9d
8283:	49 89 f5             	mov    r13,rsi
8286:	48 89 cd             	mov    rbp,rcx
8289:	83 e3 02             	and    ebx,0x2
828c:	48 81 ec b8 00 00 00 	sub    rsp,0xb8
8293:	48 8b 84 24 f0 00 00 	mov    rax,QWORD PTR [rsp+0xf0]
829a:	00
829b:	48 89 54 24 10       	mov    QWORD PTR [rsp+0x10],rdx
82a0:	44 89 44 24 08       	mov    DWORD PTR [rsp+0x8],r8d
82a5:	44 89 4c 24 78       	mov    DWORD PTR [rsp+0x78],r9d
82aa:	48 89 44 24 20       	mov    QWORD PTR [rsp+0x20],rax
82af:	48 8b 84 24 f8 00 00 	mov    rax,QWORD PTR [rsp+0xf8]
82b6:	00
82b7:	48 89 44 24 68       	mov    QWORD PTR [rsp+0x68],rax
82bc:	48 8b 84 24 00 01 00 	mov    rax,QWORD PTR [rsp+0x100]
82c3:	00
82c4:	48 89 44 24 60       	mov    QWORD PTR [rsp+0x60],rax
82c9:	64 48 8b 04 25 28 00 	mov    rax,QWORD PTR fs:0x28
82d0:	00 00
82d2:	48 89 84 24 a8 00 00 	mov    QWORD PTR [rsp+0xa8],rax
82d9:	00
82da:	31 c0                	xor    eax,eax
82dc:	e8 ff 98 ff ff       	call   1be0 <__ctype_get_mb_cur_max@plt>
82e1:	41 83 ff 0a          	cmp    r15d,0xa
82e5:	48 89 44 24 58       	mov    QWORD PTR [rsp+0x58],rax
82ea:	0f 87 af 11 00 00    	ja     949f <quotearg_buffer_restyled+0x122f>
82f0:	48 8d 0d 49 48 00 00 	lea    rcx,[rip+0x4849]        # cb40 <default_tuning+0x100>
82f7:	44 89 fa             	mov    edx,r15d
82fa:	48 63 04 91          	movsxd rax,DWORD PTR [rcx+rdx*4]
82fe:	48 01 c8             	add    rax,rcx
8301:	ff e0                	jmp    rax
8303:	c6 44 24 0e 01       	mov    BYTE PTR [rsp+0xe],0x1
8308:	c6 44 24 7c 00       	mov    BYTE PTR [rsp+0x7c],0x0
830d:	45 31 e4             	xor    r12d,r12d
8310:	48 c7 44 24 50 00 00 	mov    QWORD PTR [rsp+0x50],0x0
8317:	00 00
8319:	c6 44 24 0f 01       	mov    BYTE PTR [rsp+0xf],0x1
831e:	c6 44 24 0d 00       	mov    BYTE PTR [rsp+0xd],0x0
8323:	48 8d 05 bb 47 00 00 	lea    rax,[rip+0x47bb]        # cae5 <default_tuning+0xa5>
832a:	48 c7 44 24 18 01 00 	mov    QWORD PTR [rsp+0x18],0x1
8331:	00 00
8333:	45 31 ff             	xor    r15d,r15d
8336:	c7 44 24 08 02 00 00 	mov    DWORD PTR [rsp+0x8],0x2
833d:	00
833e:	48 89 44 24 48       	mov    QWORD PTR [rsp+0x48],rax
8343:	45 31 db             	xor    r11d,r11d
8346:	48 89 e8             	mov    rax,rbp
8349:	45 89 e0             	mov    r8d,r12d
834c:	4c 89 dd             	mov    rbp,r11
834f:	49 89 c3             	mov    r11,rax
8352:	66 0f 1f 44 00 00    	nop    WORD PTR [rax+rax*1+0x0]
8358:	49 39 eb             	cmp    r11,rbp
835b:	41 0f 95 c4          	setne  r12b
835f:	49 83 fb ff          	cmp    r11,0xffffffffffffffff
8363:	75 0d                	jne    8372 <quotearg_buffer_restyled+0x102>
8365:	48 8b 44 24 10       	mov    rax,QWORD PTR [rsp+0x10]
836a:	80 3c 28 00          	cmp    BYTE PTR [rax+rbp*1],0x0
836e:	41 0f 95 c4          	setne  r12b
8372:	45 84 e4             	test   r12b,r12b
8375:	0f 84 55 06 00 00    	je     89d0 <quotearg_buffer_restyled+0x760>
837b:	83 7c 24 08 02       	cmp    DWORD PTR [rsp+0x8],0x2
8380:	48 8b 7c 24 10       	mov    rdi,QWORD PTR [rsp+0x10]
8385:	4c 8d 0c 2f          	lea    r9,[rdi+rbp*1]
8389:	0f 95 c0             	setne  al
838c:	22 44 24 0d          	and    al,BYTE PTR [rsp+0xd]
8390:	41 89 c2             	mov    r10d,eax
8393:	0f 84 a7 00 00 00    	je     8440 <quotearg_buffer_restyled+0x1d0>
8399:	48 8b 44 24 18       	mov    rax,QWORD PTR [rsp+0x18]
839e:	48 85 c0             	test   rax,rax
83a1:	0f 84 29 04 00 00    	je     87d0 <quotearg_buffer_restyled+0x560>
83a7:	49 83 fb ff          	cmp    r11,0xffffffffffffffff
83ab:	48 8d 5c 05 00       	lea    rbx,[rbp+rax*1+0x0]
83b0:	75 2e                	jne    83e0 <quotearg_buffer_restyled+0x170>
83b2:	48 83 f8 01          	cmp    rax,0x1
83b6:	76 28                	jbe    83e0 <quotearg_buffer_restyled+0x170>
83b8:	44 88 44 24 38       	mov    BYTE PTR [rsp+0x38],r8b
83bd:	44 88 54 24 30       	mov    BYTE PTR [rsp+0x30],r10b
83c2:	4c 89 4c 24 28       	mov    QWORD PTR [rsp+0x28],r9
83c7:	e8 24 98 ff ff       	call   1bf0 <strlen@plt>
83cc:	44 0f b6 44 24 38    	movzx  r8d,BYTE PTR [rsp+0x38]
83d2:	44 0f b6 54 24 30    	movzx  r10d,BYTE PTR [rsp+0x30]
83d8:	49 89 c3             	mov    r11,rax
83db:	4c 8b 4c 24 28       	mov    r9,QWORD PTR [rsp+0x28]
83e0:	4c 39 db             	cmp    rbx,r11
83e3:	44 88 54 24 28       	mov    BYTE PTR [rsp+0x28],r10b
83e8:	0f 87 b2 05 00 00    	ja     89a0 <quotearg_buffer_restyled+0x730>
83ee:	48 8b 54 24 18       	mov    rdx,QWORD PTR [rsp+0x18]
83f3:	48 8b 74 24 48       	mov    rsi,QWORD PTR [rsp+0x48]
83f8:	4c 89 cf             	mov    rdi,r9
83fb:	4c 89 5c 24 40       	mov    QWORD PTR [rsp+0x40],r11
8400:	44 88 44 24 38       	mov    BYTE PTR [rsp+0x38],r8b
8405:	4c 89 4c 24 30       	mov    QWORD PTR [rsp+0x30],r9
840a:	e8 01 99 ff ff       	call   1d10 <memcmp@plt>
840f:	85 c0                	test   eax,eax
8411:	4c 8b 4c 24 30       	mov    r9,QWORD PTR [rsp+0x30]
8416:	44 0f b6 44 24 38    	movzx  r8d,BYTE PTR [rsp+0x38]
841c:	4c 8b 5c 24 40       	mov    r11,QWORD PTR [rsp+0x40]
8421:	0f 85 79 05 00 00    	jne    89a0 <quotearg_buffer_restyled+0x730>
8427:	80 7c 24 0f 00       	cmp    BYTE PTR [rsp+0xf],0x0
842c:	44 0f b6 54 24 28    	movzx  r10d,BYTE PTR [rsp+0x28]
8432:	0f 85 7d 0f 00 00    	jne    93b5 <quotearg_buffer_restyled+0x1145>
8438:	0f 1f 84 00 00 00 00 	nop    DWORD PTR [rax+rax*1+0x0]
843f:	00
8440:	41 0f b6 19          	movzx  ebx,BYTE PTR [r9]
8444:	80 fb 7e             	cmp    bl,0x7e
8447:	0f 87 1b 03 00 00    	ja     8768 <quotearg_buffer_restyled+0x4f8>
844d:	48 8d 0d 18 47 00 00 	lea    rcx,[rip+0x4718]        # cb6c <default_tuning+0x12c>
8454:	0f b6 d3             	movzx  edx,bl
8457:	48 63 04 91          	movsxd rax,DWORD PTR [rcx+rdx*4]
845b:	48 01 c8             	add    rax,rcx
845e:	ff e0                	jmp    rax
8460:	45 31 d2             	xor    r10d,r10d
8463:	49 83 fb 01          	cmp    r11,0x1
8467:	0f 95 c0             	setne  al
846a:	49 83 fb ff          	cmp    r11,0xffffffffffffffff
846e:	75 0c                	jne    847c <quotearg_buffer_restyled+0x20c>
8470:	48 8b 44 24 10       	mov    rax,QWORD PTR [rsp+0x10]
8475:	80 78 01 00          	cmp    BYTE PTR [rax+0x1],0x0
8479:	0f 95 c0             	setne  al
847c:	83 7c 24 08 02       	cmp    DWORD PTR [rsp+0x8],0x2
8481:	0f 94 c2             	sete   dl
8484:	84 c0                	test   al,al
8486:	0f 84 4c 02 00 00    	je     86d8 <quotearg_buffer_restyled+0x468>
848c:	45 31 e4             	xor    r12d,r12d
848f:	31 c0                	xor    eax,eax
8491:	0f 1f 80 00 00 00 00 	nop    DWORD PTR [rax+0x0]
8498:	80 7c 24 0d 01       	cmp    BYTE PTR [rsp+0xd],0x1
849d:	0f 85 0f 01 00 00    	jne    85b2 <quotearg_buffer_restyled+0x342>
84a3:	84 d2                	test   dl,dl
84a5:	0f 85 07 01 00 00    	jne    85b2 <quotearg_buffer_restyled+0x342>
84ab:	48 8b 74 24 20       	mov    rsi,QWORD PTR [rsp+0x20]
84b0:	48 85 f6             	test   rsi,rsi
84b3:	74 14                	je     84c9 <quotearg_buffer_restyled+0x259>
84b5:	89 da                	mov    edx,ebx
84b7:	c0 ea 05             	shr    dl,0x5
84ba:	0f b6 d2             	movzx  edx,dl
84bd:	8b 14 96             	mov    edx,DWORD PTR [rsi+rdx*4]
84c0:	0f a3 da             	bt     edx,ebx
84c3:	0f 82 4a 01 00 00    	jb     8613 <quotearg_buffer_restyled+0x3a3>
84c9:	45 84 d2             	test   r10b,r10b
84cc:	0f 85 41 01 00 00    	jne    8613 <quotearg_buffer_restyled+0x3a3>
84d2:	83 f0 01             	xor    eax,0x1
84d5:	48 83 c5 01          	add    rbp,0x1
84d9:	44 21 c0             	and    eax,r8d
84dc:	84 c0                	test   al,al
84de:	74 20                	je     8500 <quotearg_buffer_restyled+0x290>
84e0:	4d 39 fd             	cmp    r13,r15
84e3:	76 05                	jbe    84ea <quotearg_buffer_restyled+0x27a>
84e5:	43 c6 04 3e 27       	mov    BYTE PTR [r14+r15*1],0x27
84ea:	49 8d 47 01          	lea    rax,[r15+0x1]
84ee:	49 39 c5             	cmp    r13,rax
84f1:	76 06                	jbe    84f9 <quotearg_buffer_restyled+0x289>
84f3:	43 c6 44 3e 01 27    	mov    BYTE PTR [r14+r15*1+0x1],0x27
84f9:	49 83 c7 02          	add    r15,0x2
84fd:	45 31 c0             	xor    r8d,r8d
8500:	4d 39 ef             	cmp    r15,r13
8503:	73 04                	jae    8509 <quotearg_buffer_restyled+0x299>
8505:	43 88 1c 3e          	mov    BYTE PTR [r14+r15*1],bl
8509:	0f b6 7c 24 0e       	movzx  edi,BYTE PTR [rsp+0xe]
850e:	49 83 c7 01          	add    r15,0x1
8512:	b8 00 00 00 00       	mov    eax,0x0
8517:	45 84 e4             	test   r12b,r12b
851a:	0f 44 f8             	cmove  edi,eax
851d:	40 88 7c 24 0e       	mov    BYTE PTR [rsp+0xe],dil
8522:	e9 31 fe ff ff       	jmp    8358 <quotearg_buffer_restyled+0xe8>
8527:	66 0f 1f 84 00 00 00 	nop    WORD PTR [rax+rax*1+0x0]
852e:	00 00
8530:	45 31 d2             	xor    r10d,r10d
8533:	8b 44 24 08          	mov    eax,DWORD PTR [rsp+0x8]
8537:	83 f8 02             	cmp    eax,0x2
853a:	0f 84 b8 05 00 00    	je     8af8 <quotearg_buffer_restyled+0x888>
8540:	83 f8 05             	cmp    eax,0x5
8543:	0f 84 6f 05 00 00    	je     8ab8 <quotearg_buffer_restyled+0x848>
8549:	83 f8 02             	cmp    eax,0x2
854c:	bb 3f 00 00 00       	mov    ebx,0x3f
8551:	0f 94 c2             	sete   dl
8554:	45 31 e4             	xor    r12d,r12d
8557:	31 c0                	xor    eax,eax
8559:	e9 3a ff ff ff       	jmp    8498 <quotearg_buffer_restyled+0x228>
855e:	66 90                	xchg   ax,ax
8560:	45 31 d2             	xor    r10d,r10d
8563:	83 7c 24 08 02       	cmp    DWORD PTR [rsp+0x8],0x2
8568:	0f 84 02 05 00 00    	je     8a70 <quotearg_buffer_restyled+0x800>
856e:	44 88 64 24 7c       	mov    BYTE PTR [rsp+0x7c],r12b
8573:	31 d2                	xor    edx,edx
8575:	31 c0                	xor    eax,eax
8577:	bb 27 00 00 00       	mov    ebx,0x27
857c:	e9 17 ff ff ff       	jmp    8498 <quotearg_buffer_restyled+0x228>
8581:	0f 1f 80 00 00 00 00 	nop    DWORD PTR [rax+0x0]
8588:	ba 09 00 00 00       	mov    edx,0x9
858d:	bb 74 00 00 00       	mov    ebx,0x74
8592:	83 7c 24 08 02       	cmp    DWORD PTR [rsp+0x8],0x2
8597:	0f 94 c0             	sete   al
859a:	22 44 24 0f          	and    al,BYTE PTR [rsp+0xf]
859e:	0f 85 4a 01 00 00    	jne    86ee <quotearg_buffer_restyled+0x47e>
85a4:	80 7c 24 0d 00       	cmp    BYTE PTR [rsp+0xd],0x0
85a9:	75 65                	jne    8610 <quotearg_buffer_restyled+0x3a0>
85ab:	89 d3                	mov    ebx,edx
85ad:	45 31 e4             	xor    r12d,r12d
85b0:	31 c0                	xor    eax,eax
85b2:	80 7c 24 0f 00       	cmp    BYTE PTR [rsp+0xf],0x0
85b7:	0f 85 ee fe ff ff    	jne    84ab <quotearg_buffer_restyled+0x23b>
85bd:	e9 07 ff ff ff       	jmp    84c9 <quotearg_buffer_restyled+0x259>
85c2:	66 0f 1f 44 00 00    	nop    WORD PTR [rax+rax*1+0x0]
85c8:	ba 08 00 00 00       	mov    edx,0x8
85cd:	bb 62 00 00 00       	mov    ebx,0x62
85d2:	eb d0                	jmp    85a4 <quotearg_buffer_restyled+0x334>
85d4:	0f 1f 40 00          	nop    DWORD PTR [rax+0x0]
85d8:	83 7c 24 08 02       	cmp    DWORD PTR [rsp+0x8],0x2
85dd:	0f 84 cd 03 00 00    	je     89b0 <quotearg_buffer_restyled+0x740>
85e3:	80 7c 24 0d 00       	cmp    BYTE PTR [rsp+0xd],0x0
85e8:	0f 84 12 02 00 00    	je     8800 <quotearg_buffer_restyled+0x590>
85ee:	80 7c 24 0f 00       	cmp    BYTE PTR [rsp+0xf],0x0
85f3:	0f 84 07 02 00 00    	je     8800 <quotearg_buffer_restyled+0x590>
85f9:	48 83 7c 24 18 00    	cmp    QWORD PTR [rsp+0x18],0x0
85ff:	0f 85 b6 03 00 00    	jne    89bb <quotearg_buffer_restyled+0x74b>
8605:	bb 5c 00 00 00       	mov    ebx,0x5c
860a:	66 0f 1f 44 00 00    	nop    WORD PTR [rax+rax*1+0x0]
8610:	45 31 e4             	xor    r12d,r12d
8613:	83 7c 24 08 02       	cmp    DWORD PTR [rsp+0x8],0x2
8618:	0f 94 c2             	sete   dl
861b:	80 7c 24 0f 00       	cmp    BYTE PTR [rsp+0xf],0x0
8620:	89 d0                	mov    eax,edx
8622:	0f 85 50 08 00 00    	jne    8e78 <quotearg_buffer_restyled+0xc08>
8628:	44 89 c0             	mov    eax,r8d
862b:	83 f0 01             	xor    eax,0x1
862e:	20 d0                	and    al,dl
8630:	74 2f                	je     8661 <quotearg_buffer_restyled+0x3f1>
8632:	4d 39 fd             	cmp    r13,r15
8635:	76 05                	jbe    863c <quotearg_buffer_restyled+0x3cc>
8637:	43 c6 04 3e 27       	mov    BYTE PTR [r14+r15*1],0x27
863c:	49 8d 57 01          	lea    rdx,[r15+0x1]
8640:	49 39 d5             	cmp    r13,rdx
8643:	76 06                	jbe    864b <quotearg_buffer_restyled+0x3db>
8645:	43 c6 44 3e 01 24    	mov    BYTE PTR [r14+r15*1+0x1],0x24
864b:	49 8d 57 02          	lea    rdx,[r15+0x2]
864f:	49 39 d5             	cmp    r13,rdx
8652:	76 06                	jbe    865a <quotearg_buffer_restyled+0x3ea>
8654:	43 c6 44 3e 02 27    	mov    BYTE PTR [r14+r15*1+0x2],0x27
865a:	49 83 c7 03          	add    r15,0x3
865e:	41 89 c0             	mov    r8d,eax
8661:	4d 39 fd             	cmp    r13,r15
8664:	76 05                	jbe    866b <quotearg_buffer_restyled+0x3fb>
8666:	43 c6 04 3e 5c       	mov    BYTE PTR [r14+r15*1],0x5c
866b:	49 83 c7 01          	add    r15,0x1
866f:	48 83 c5 01          	add    rbp,0x1
8673:	e9 88 fe ff ff       	jmp    8500 <quotearg_buffer_restyled+0x290>
8678:	0f 1f 84 00 00 00 00 	nop    DWORD PTR [rax+rax*1+0x0]
867f:	00
8680:	80 7c 24 0d 00       	cmp    BYTE PTR [rsp+0xd],0x0
8685:	0f 85 c8 01 00 00    	jne    8853 <quotearg_buffer_restyled+0x5e3>
868b:	31 d2                	xor    edx,edx
868d:	f6 44 24 78 01       	test   BYTE PTR [rsp+0x78],0x1
8692:	0f 84 13 ff ff ff    	je     85ab <quotearg_buffer_restyled+0x33b>
8698:	48 83 c5 01          	add    rbp,0x1
869c:	e9 b7 fc ff ff       	jmp    8358 <quotearg_buffer_restyled+0xe8>
86a1:	0f 1f 80 00 00 00 00 	nop    DWORD PTR [rax+0x0]
86a8:	83 7c 24 08 02       	cmp    DWORD PTR [rsp+0x8],0x2
86ad:	0f 94 c2             	sete   dl
86b0:	31 c0                	xor    eax,eax
86b2:	e9 e1 fd ff ff       	jmp    8498 <quotearg_buffer_restyled+0x228>
86b7:	66 0f 1f 84 00 00 00 	nop    WORD PTR [rax+rax*1+0x0]
86be:	00 00
86c0:	ba 07 00 00 00       	mov    edx,0x7
86c5:	bb 61 00 00 00       	mov    ebx,0x61
86ca:	e9 d5 fe ff ff       	jmp    85a4 <quotearg_buffer_restyled+0x334>
86cf:	90                   	nop
86d0:	83 7c 24 08 02       	cmp    DWORD PTR [rsp+0x8],0x2
86d5:	0f 94 c2             	sete   dl
86d8:	48 85 ed             	test   rbp,rbp
86db:	0f 85 ab fd ff ff    	jne    848c <quotearg_buffer_restyled+0x21c>
86e1:	0f b6 44 24 0f       	movzx  eax,BYTE PTR [rsp+0xf]
86e6:	20 d0                	and    al,dl
86e8:	0f 84 aa fd ff ff    	je     8498 <quotearg_buffer_restyled+0x228>
86ee:	4c 89 dd             	mov    rbp,r11
86f1:	c7 44 24 08 02 00 00 	mov    DWORD PTR [rsp+0x8],0x2
86f8:	00
86f9:	e9 fb 06 00 00       	jmp    8df9 <quotearg_buffer_restyled+0xb89>
86fe:	66 90                	xchg   ax,ax
8700:	83 7c 24 08 02       	cmp    DWORD PTR [rsp+0x8],0x2
8705:	0f 94 c2             	sete   dl
8708:	45 31 e4             	xor    r12d,r12d
870b:	eb d4                	jmp    86e1 <quotearg_buffer_restyled+0x471>
870d:	0f 1f 00             	nop    DWORD PTR [rax]
8710:	83 7c 24 08 02       	cmp    DWORD PTR [rsp+0x8],0x2
8715:	bb 20 00 00 00       	mov    ebx,0x20
871a:	0f 94 c2             	sete   dl
871d:	eb c2                	jmp    86e1 <quotearg_buffer_restyled+0x471>
871f:	90                   	nop
8720:	ba 0d 00 00 00       	mov    edx,0xd
8725:	bb 72 00 00 00       	mov    ebx,0x72
872a:	e9 63 fe ff ff       	jmp    8592 <quotearg_buffer_restyled+0x322>
872f:	90                   	nop
8730:	ba 0c 00 00 00       	mov    edx,0xc
8735:	bb 66 00 00 00       	mov    ebx,0x66
873a:	e9 65 fe ff ff       	jmp    85a4 <quotearg_buffer_restyled+0x334>
873f:	90                   	nop
8740:	ba 0b 00 00 00       	mov    edx,0xb
8745:	bb 76 00 00 00       	mov    ebx,0x76
874a:	e9 55 fe ff ff       	jmp    85a4 <quotearg_buffer_restyled+0x334>
874f:	90                   	nop
8750:	ba 0a 00 00 00       	mov    edx,0xa
8755:	bb 6e 00 00 00       	mov    ebx,0x6e
875a:	e9 33 fe ff ff       	jmp    8592 <quotearg_buffer_restyled+0x322>
875f:	90                   	nop
8760:	45 31 d2             	xor    r10d,r10d
8763:	0f 1f 44 00 00       	nop    DWORD PTR [rax+rax*1+0x0]
8768:	48 83 7c 24 58 01    	cmp    QWORD PTR [rsp+0x58],0x1
876e:	0f 85 a4 03 00 00    	jne    8b18 <quotearg_buffer_restyled+0x8a8>
8774:	4c 89 5c 24 38       	mov    QWORD PTR [rsp+0x38],r11
8779:	44 88 44 24 30       	mov    BYTE PTR [rsp+0x30],r8b
877e:	44 88 54 24 28       	mov    BYTE PTR [rsp+0x28],r10b
8783:	e8 a8 97 ff ff       	call   1f30 <__ctype_b_loc@plt>
8788:	48 8b 08             	mov    rcx,QWORD PTR [rax]
878b:	0f b6 d3             	movzx  edx,bl
878e:	44 0f b6 54 24 28    	movzx  r10d,BYTE PTR [rsp+0x28]
8794:	44 0f b6 44 24 30    	movzx  r8d,BYTE PTR [rsp+0x30]
879a:	4c 8b 5c 24 38       	mov    r11,QWORD PTR [rsp+0x38]
879f:	bf 01 00 00 00       	mov    edi,0x1
87a4:	0f b7 04 51          	movzx  eax,WORD PTR [rcx+rdx*2]
87a8:	66 25 00 40          	and    ax,0x4000
87ac:	41 0f 95 c4          	setne  r12b
87b0:	0f 94 c0             	sete   al
87b3:	22 44 24 0d          	and    al,BYTE PTR [rsp+0xd]
87b7:	84 c0                	test   al,al
87b9:	0f 85 92 09 00 00    	jne    9151 <quotearg_buffer_restyled+0xee1>
87bf:	83 7c 24 08 02       	cmp    DWORD PTR [rsp+0x8],0x2
87c4:	0f 94 c2             	sete   dl
87c7:	e9 cc fc ff ff       	jmp    8498 <quotearg_buffer_restyled+0x228>
87cc:	0f 1f 40 00          	nop    DWORD PTR [rax+0x0]
87d0:	41 0f b6 19          	movzx  ebx,BYTE PTR [r9]
87d4:	80 fb 7e             	cmp    bl,0x7e
87d7:	77 87                	ja     8760 <quotearg_buffer_restyled+0x4f0>
87d9:	48 8d 0d 88 45 00 00 	lea    rcx,[rip+0x4588]        # cd68 <default_tuning+0x328>
87e0:	0f b6 d3             	movzx  edx,bl
87e3:	48 63 04 91          	movsxd rax,DWORD PTR [rcx+rdx*4]
87e7:	48 01 c8             	add    rax,rcx
87ea:	ff e0                	jmp    rax
87ec:	0f 1f 40 00          	nop    DWORD PTR [rax+0x0]
87f0:	45 31 d2             	xor    r10d,r10d
87f3:	80 7c 24 0d 00       	cmp    BYTE PTR [rsp+0xd],0x0
87f8:	0f 85 f0 fd ff ff    	jne    85ee <quotearg_buffer_restyled+0x37e>
87fe:	66 90                	xchg   ax,ax
8800:	ba 5c 00 00 00       	mov    edx,0x5c
8805:	bb 5c 00 00 00       	mov    ebx,0x5c
880a:	e9 95 fd ff ff       	jmp    85a4 <quotearg_buffer_restyled+0x334>
880f:	90                   	nop
8810:	ba 0c 00 00 00       	mov    edx,0xc
8815:	45 31 d2             	xor    r10d,r10d
8818:	bb 66 00 00 00       	mov    ebx,0x66
881d:	e9 82 fd ff ff       	jmp    85a4 <quotearg_buffer_restyled+0x334>
8822:	66 0f 1f 44 00 00    	nop    WORD PTR [rax+rax*1+0x0]
8828:	ba 0a 00 00 00       	mov    edx,0xa
882d:	45 31 d2             	xor    r10d,r10d
8830:	bb 6e 00 00 00       	mov    ebx,0x6e
8835:	e9 58 fd ff ff       	jmp    8592 <quotearg_buffer_restyled+0x322>
883a:	66 0f 1f 44 00 00    	nop    WORD PTR [rax+rax*1+0x0]
8840:	bb 61 00 00 00       	mov    ebx,0x61
8845:	e9 c6 fd ff ff       	jmp    8610 <quotearg_buffer_restyled+0x3a0>
884a:	66 0f 1f 44 00 00    	nop    WORD PTR [rax+rax*1+0x0]
8850:	45 31 d2             	xor    r10d,r10d
8853:	83 7c 24 08 02       	cmp    DWORD PTR [rsp+0x8],0x2
8858:	0f 94 c2             	sete   dl
885b:	80 7c 24 0f 00       	cmp    BYTE PTR [rsp+0xf],0x0
8860:	0f 85 94 0b 00 00    	jne    93fa <quotearg_buffer_restyled+0x118a>
8866:	44 89 c0             	mov    eax,r8d
8869:	4c 89 f9             	mov    rcx,r15
886c:	83 f0 01             	xor    eax,0x1
886f:	20 d0                	and    al,dl
8871:	74 2d                	je     88a0 <quotearg_buffer_restyled+0x630>
8873:	4d 39 fd             	cmp    r13,r15
8876:	76 05                	jbe    887d <quotearg_buffer_restyled+0x60d>
8878:	43 c6 04 3e 27       	mov    BYTE PTR [r14+r15*1],0x27
887d:	49 8d 4f 01          	lea    rcx,[r15+0x1]
8881:	49 39 cd             	cmp    r13,rcx
8884:	76 06                	jbe    888c <quotearg_buffer_restyled+0x61c>
8886:	43 c6 44 3e 01 24    	mov    BYTE PTR [r14+r15*1+0x1],0x24
888c:	49 8d 4f 02          	lea    rcx,[r15+0x2]
8890:	49 39 cd             	cmp    r13,rcx
8893:	0f 87 30 06 00 00    	ja     8ec9 <quotearg_buffer_restyled+0xc59>
8899:	49 8d 4f 03          	lea    rcx,[r15+0x3]
889d:	41 89 c0             	mov    r8d,eax
88a0:	49 39 cd             	cmp    r13,rcx
88a3:	76 05                	jbe    88aa <quotearg_buffer_restyled+0x63a>
88a5:	41 c6 04 0e 5c       	mov    BYTE PTR [r14+rcx*1],0x5c
88aa:	83 7c 24 08 02       	cmp    DWORD PTR [rsp+0x8],0x2
88af:	4c 8d 79 01          	lea    r15,[rcx+0x1]
88b3:	0f 84 00 06 00 00    	je     8eb9 <quotearg_buffer_restyled+0xc49>
88b9:	48 8d 45 01          	lea    rax,[rbp+0x1]
88bd:	4c 39 d8             	cmp    rax,r11
88c0:	73 19                	jae    88db <quotearg_buffer_restyled+0x66b>
88c2:	48 8b 44 24 10       	mov    rax,QWORD PTR [rsp+0x10]
88c7:	0f b6 44 28 01       	movzx  eax,BYTE PTR [rax+rbp*1+0x1]
88cc:	88 44 24 28          	mov    BYTE PTR [rsp+0x28],al
88d0:	83 e8 30             	sub    eax,0x30
88d3:	3c 09                	cmp    al,0x9
88d5:	0f 86 2e 08 00 00    	jbe    9109 <quotearg_buffer_restyled+0xe99>
88db:	44 89 e0             	mov    eax,r12d
88de:	bb 30 00 00 00       	mov    ebx,0x30
88e3:	45 31 e4             	xor    r12d,r12d
88e6:	e9 ad fb ff ff       	jmp    8498 <quotearg_buffer_restyled+0x228>
88eb:	0f 1f 44 00 00       	nop    DWORD PTR [rax+rax*1+0x0]
88f0:	83 7c 24 08 02       	cmp    DWORD PTR [rsp+0x8],0x2
88f5:	45 89 d4             	mov    r12d,r10d
88f8:	0f 94 c2             	sete   dl
88fb:	45 31 d2             	xor    r10d,r10d
88fe:	31 c0                	xor    eax,eax
8900:	e9 93 fb ff ff       	jmp    8498 <quotearg_buffer_restyled+0x228>
8905:	0f 1f 00             	nop    DWORD PTR [rax]
8908:	83 7c 24 08 02       	cmp    DWORD PTR [rsp+0x8],0x2
890d:	0f 94 c2             	sete   dl
8910:	45 31 d2             	xor    r10d,r10d
8913:	e9 c0 fd ff ff       	jmp    86d8 <quotearg_buffer_restyled+0x468>
8918:	0f 1f 84 00 00 00 00 	nop    DWORD PTR [rax+rax*1+0x0]
891f:	00
8920:	83 7c 24 08 02       	cmp    DWORD PTR [rsp+0x8],0x2
8925:	0f 94 c2             	sete   dl
8928:	45 31 d2             	xor    r10d,r10d
892b:	45 31 e4             	xor    r12d,r12d
892e:	e9 ae fd ff ff       	jmp    86e1 <quotearg_buffer_restyled+0x471>
8933:	0f 1f 44 00 00       	nop    DWORD PTR [rax+rax*1+0x0]
8938:	83 7c 24 08 02       	cmp    DWORD PTR [rsp+0x8],0x2
893d:	45 89 d4             	mov    r12d,r10d
8940:	bb 20 00 00 00       	mov    ebx,0x20
8945:	0f 94 c2             	sete   dl
8948:	45 31 d2             	xor    r10d,r10d
894b:	e9 91 fd ff ff       	jmp    86e1 <quotearg_buffer_restyled+0x471>
8950:	ba 0d 00 00 00       	mov    edx,0xd
8955:	45 31 d2             	xor    r10d,r10d
8958:	bb 72 00 00 00       	mov    ebx,0x72
895d:	e9 30 fc ff ff       	jmp    8592 <quotearg_buffer_restyled+0x322>
8962:	66 0f 1f 44 00 00    	nop    WORD PTR [rax+rax*1+0x0]
8968:	bb 76 00 00 00       	mov    ebx,0x76
896d:	e9 9e fc ff ff       	jmp    8610 <quotearg_buffer_restyled+0x3a0>
8972:	66 0f 1f 44 00 00    	nop    WORD PTR [rax+rax*1+0x0]
8978:	ba 09 00 00 00       	mov    edx,0x9
897d:	45 31 d2             	xor    r10d,r10d
8980:	bb 74 00 00 00       	mov    ebx,0x74
8985:	e9 08 fc ff ff       	jmp    8592 <quotearg_buffer_restyled+0x322>
898a:	66 0f 1f 44 00 00    	nop    WORD PTR [rax+rax*1+0x0]
8990:	bb 62 00 00 00       	mov    ebx,0x62
8995:	e9 76 fc ff ff       	jmp    8610 <quotearg_buffer_restyled+0x3a0>
899a:	66 0f 1f 44 00 00    	nop    WORD PTR [rax+rax*1+0x0]
89a0:	45 31 d2             	xor    r10d,r10d
89a3:	e9 98 fa ff ff       	jmp    8440 <quotearg_buffer_restyled+0x1d0>
89a8:	0f 1f 84 00 00 00 00 	nop    DWORD PTR [rax+rax*1+0x0]
89af:	00
89b0:	80 7c 24 0f 00       	cmp    BYTE PTR [rsp+0xf],0x0
89b5:	0f 85 65 09 00 00    	jne    9320 <quotearg_buffer_restyled+0x10b0>
89bb:	48 83 c5 01          	add    rbp,0x1
89bf:	44 89 c0             	mov    eax,r8d
89c2:	45 31 e4             	xor    r12d,r12d
89c5:	bb 5c 00 00 00       	mov    ebx,0x5c
89ca:	e9 0d fb ff ff       	jmp    84dc <quotearg_buffer_restyled+0x26c>
89cf:	90                   	nop
89d0:	83 7c 24 08 02       	cmp    DWORD PTR [rsp+0x8],0x2
89d5:	0f b6 5c 24 0f       	movzx  ebx,BYTE PTR [rsp+0xf]
89da:	45 89 c4             	mov    r12d,r8d
89dd:	4c 89 dd             	mov    rbp,r11
89e0:	0f 94 c2             	sete   dl
89e3:	89 d8                	mov    eax,ebx
89e5:	4d 85 ff             	test   r15,r15
89e8:	0f 94 c1             	sete   cl
89eb:	21 d0                	and    eax,edx
89ed:	20 c8                	and    al,cl
89ef:	0f 85 61 0a 00 00    	jne    9456 <quotearg_buffer_restyled+0x11e6>
89f5:	89 d8                	mov    eax,ebx
89f7:	83 f0 01             	xor    eax,0x1
89fa:	20 c2                	and    dl,al
89fc:	0f 84 6a 09 00 00    	je     936c <quotearg_buffer_restyled+0x10fc>
8a02:	80 7c 24 7c 00       	cmp    BYTE PTR [rsp+0x7c],0x0
8a07:	0f 84 5d 09 00 00    	je     936a <quotearg_buffer_restyled+0x10fa>
8a0d:	80 7c 24 0e 00       	cmp    BYTE PTR [rsp+0xe],0x0
8a12:	0f 85 f5 09 00 00    	jne    940d <quotearg_buffer_restyled+0x119d>
8a18:	4d 85 ed             	test   r13,r13
8a1b:	0f 94 c0             	sete   al
8a1e:	48 83 7c 24 50 00    	cmp    QWORD PTR [rsp+0x50],0x0
8a24:	0f 95 c2             	setne  dl
8a27:	20 d0                	and    al,dl
8a29:	0f 84 1d 0a 00 00    	je     944c <quotearg_buffer_restyled+0x11dc>
8a2f:	4c 8b 6c 24 50       	mov    r13,QWORD PTR [rsp+0x50]
8a34:	48 8d 1d aa 40 00 00 	lea    rbx,[rip+0x40aa]        # cae5 <default_tuning+0xa5>
8a3b:	41 c6 06 27          	mov    BYTE PTR [r14],0x27
8a3f:	c7 44 24 08 02 00 00 	mov    DWORD PTR [rsp+0x8],0x2
8a46:	00
8a47:	41 bf 01 00 00 00    	mov    r15d,0x1
8a4d:	48 c7 44 24 18 01 00 	mov    QWORD PTR [rsp+0x18],0x1
8a54:	00 00
8a56:	c6 44 24 0f 00       	mov    BYTE PTR [rsp+0xf],0x0
8a5b:	48 89 5c 24 48       	mov    QWORD PTR [rsp+0x48],rbx
8a60:	88 44 24 7c          	mov    BYTE PTR [rsp+0x7c],al
8a64:	e9 da f8 ff ff       	jmp    8343 <quotearg_buffer_restyled+0xd3>
8a69:	0f 1f 80 00 00 00 00 	nop    DWORD PTR [rax+0x0]
8a70:	80 7c 24 0f 00       	cmp    BYTE PTR [rsp+0xf],0x0
8a75:	0f 85 a5 08 00 00    	jne    9320 <quotearg_buffer_restyled+0x10b0>
8a7b:	4d 85 ed             	test   r13,r13
8a7e:	0f 84 fc 03 00 00    	je     8e80 <quotearg_buffer_restyled+0xc10>
8a84:	31 d2                	xor    edx,edx
8a86:	48 83 7c 24 50 00    	cmp    QWORD PTR [rsp+0x50],0x0
8a8c:	0f 85 ee 03 00 00    	jne    8e80 <quotearg_buffer_restyled+0xc10>
8a92:	4c 89 6c 24 50       	mov    QWORD PTR [rsp+0x50],r13
8a97:	49 83 c7 03          	add    r15,0x3
8a9b:	31 c0                	xor    eax,eax
8a9d:	44 88 64 24 7c       	mov    BYTE PTR [rsp+0x7c],r12b
8aa2:	45 31 c0             	xor    r8d,r8d
8aa5:	49 89 d5             	mov    r13,rdx
8aa8:	bb 27 00 00 00       	mov    ebx,0x27
8aad:	e9 17 fa ff ff       	jmp    84c9 <quotearg_buffer_restyled+0x259>
8ab2:	66 0f 1f 44 00 00    	nop    WORD PTR [rax+rax*1+0x0]
8ab8:	f6 44 24 78 04       	test   BYTE PTR [rsp+0x78],0x4
8abd:	74 21                	je     8ae0 <quotearg_buffer_restyled+0x870>
8abf:	48 8d 4d 02          	lea    rcx,[rbp+0x2]
8ac3:	4c 39 d9             	cmp    rcx,r11
8ac6:	73 18                	jae    8ae0 <quotearg_buffer_restyled+0x870>
8ac8:	48 8b 44 24 10       	mov    rax,QWORD PTR [rsp+0x10]
8acd:	80 7c 28 01 3f       	cmp    BYTE PTR [rax+rbp*1+0x1],0x3f
8ad2:	0f 84 8a 07 00 00    	je     9262 <quotearg_buffer_restyled+0xff2>
8ad8:	0f 1f 84 00 00 00 00 	nop    DWORD PTR [rax+rax*1+0x0]
8adf:	00
8ae0:	31 d2                	xor    edx,edx
8ae2:	45 31 e4             	xor    r12d,r12d
8ae5:	31 c0                	xor    eax,eax
8ae7:	bb 3f 00 00 00       	mov    ebx,0x3f
8aec:	e9 a7 f9 ff ff       	jmp    8498 <quotearg_buffer_restyled+0x228>
8af1:	0f 1f 80 00 00 00 00 	nop    DWORD PTR [rax+0x0]
8af8:	80 7c 24 0f 00       	cmp    BYTE PTR [rsp+0xf],0x0
8afd:	0f 85 1d 08 00 00    	jne    9320 <quotearg_buffer_restyled+0x10b0>
8b03:	45 31 e4             	xor    r12d,r12d
8b06:	31 c0                	xor    eax,eax
8b08:	bb 3f 00 00 00       	mov    ebx,0x3f
8b0d:	e9 b7 f9 ff ff       	jmp    84c9 <quotearg_buffer_restyled+0x259>
8b12:	66 0f 1f 44 00 00    	nop    WORD PTR [rax+rax*1+0x0]
8b18:	48 8d 84 24 a0 00 00 	lea    rax,[rsp+0xa0]
8b1f:	00
8b20:	49 83 fb ff          	cmp    r11,0xffffffffffffffff
8b24:	48 c7 84 24 a0 00 00 	mov    QWORD PTR [rsp+0xa0],0x0
8b2b:	00 00 00 00 00
8b30:	48 89 44 24 28       	mov    QWORD PTR [rsp+0x28],rax
8b35:	75 2d                	jne    8b64 <quotearg_buffer_restyled+0x8f4>
8b37:	48 8b 7c 24 10       	mov    rdi,QWORD PTR [rsp+0x10]
8b3c:	44 88 44 24 40       	mov    BYTE PTR [rsp+0x40],r8b
8b41:	44 88 54 24 38       	mov    BYTE PTR [rsp+0x38],r10b
8b46:	4c 89 4c 24 30       	mov    QWORD PTR [rsp+0x30],r9
8b4b:	e8 a0 90 ff ff       	call   1bf0 <strlen@plt>
8b50:	44 0f b6 44 24 40    	movzx  r8d,BYTE PTR [rsp+0x40]
8b56:	44 0f b6 54 24 38    	movzx  r10d,BYTE PTR [rsp+0x38]
8b5c:	49 89 c3             	mov    r11,rax
8b5f:	4c 8b 4c 24 30       	mov    r9,QWORD PTR [rsp+0x30]
8b64:	48 8d 84 24 9c 00 00 	lea    rax,[rsp+0x9c]
8b6b:	00
8b6c:	31 c9                	xor    ecx,ecx
8b6e:	88 5c 24 7e          	mov    BYTE PTR [rsp+0x7e],bl
8b72:	44 88 44 24 7d       	mov    BYTE PTR [rsp+0x7d],r8b
8b77:	48 89 cb             	mov    rbx,rcx
8b7a:	4c 89 8c 24 88 00 00 	mov    QWORD PTR [rsp+0x88],r9
8b81:	00
8b82:	48 89 44 24 38       	mov    QWORD PTR [rsp+0x38],rax
8b87:	44 88 54 24 7f       	mov    BYTE PTR [rsp+0x7f],r10b
8b8c:	4c 89 bc 24 80 00 00 	mov    QWORD PTR [rsp+0x80],r15
8b93:	00
8b94:	4c 89 74 24 40       	mov    QWORD PTR [rsp+0x40],r14
8b99:	4c 89 6c 24 70       	mov    QWORD PTR [rsp+0x70],r13
8b9e:	4c 89 5c 24 30       	mov    QWORD PTR [rsp+0x30],r11
8ba3:	48 8b 44 24 10       	mov    rax,QWORD PTR [rsp+0x10]
8ba8:	4c 8d 74 1d 00       	lea    r14,[rbp+rbx*1+0x0]
8bad:	48 8b 54 24 30       	mov    rdx,QWORD PTR [rsp+0x30]
8bb2:	48 8b 4c 24 28       	mov    rcx,QWORD PTR [rsp+0x28]
8bb7:	48 8b 7c 24 38       	mov    rdi,QWORD PTR [rsp+0x38]
8bbc:	4e 8d 2c 30          	lea    r13,[rax+r14*1]
8bc0:	4c 29 f2             	sub    rdx,r14
8bc3:	4c 89 ee             	mov    rsi,r13
8bc6:	e8 b5 24 00 00       	call   b080 <rpl_mbrtowc>
8bcb:	48 85 c0             	test   rax,rax
8bce:	49 89 c7             	mov    r15,rax
8bd1:	74 4e                	je     8c21 <quotearg_buffer_restyled+0x9b1>
8bd3:	48 83 f8 ff          	cmp    rax,0xffffffffffffffff
8bd7:	0f 84 18 06 00 00    	je     91f5 <quotearg_buffer_restyled+0xf85>
8bdd:	48 83 f8 fe          	cmp    rax,0xfffffffffffffffe
8be1:	0f 84 9a 05 00 00    	je     9181 <quotearg_buffer_restyled+0xf11>
8be7:	83 7c 24 08 02       	cmp    DWORD PTR [rsp+0x8],0x2
8bec:	0f 94 c0             	sete   al
8bef:	22 44 24 0f          	and    al,BYTE PTR [rsp+0xf]
8bf3:	0f 85 97 01 00 00    	jne    8d90 <quotearg_buffer_restyled+0xb20>
8bf9:	8b bc 24 9c 00 00 00 	mov    edi,DWORD PTR [rsp+0x9c]
8c00:	e8 0b 93 ff ff       	call   1f10 <iswprint@plt>
8c05:	48 8b 7c 24 28       	mov    rdi,QWORD PTR [rsp+0x28]
8c0a:	85 c0                	test   eax,eax
8c0c:	b8 00 00 00 00       	mov    eax,0x0
8c11:	44 0f 44 e0          	cmove  r12d,eax
8c15:	4c 01 fb             	add    rbx,r15
8c18:	e8 e3 92 ff ff       	call   1f00 <mbsinit@plt>
8c1d:	85 c0                	test   eax,eax
8c1f:	74 82                	je     8ba3 <quotearg_buffer_restyled+0x933>
8c21:	44 89 e2             	mov    edx,r12d
8c24:	48 89 df             	mov    rdi,rbx
8c27:	44 0f b6 44 24 7d    	movzx  r8d,BYTE PTR [rsp+0x7d]
8c2d:	83 f2 01             	xor    edx,0x1
8c30:	0f b6 5c 24 7e       	movzx  ebx,BYTE PTR [rsp+0x7e]
8c35:	44 0f b6 54 24 7f    	movzx  r10d,BYTE PTR [rsp+0x7f]
8c3b:	22 54 24 0d          	and    dl,BYTE PTR [rsp+0xd]
8c3f:	4c 8b bc 24 80 00 00 	mov    r15,QWORD PTR [rsp+0x80]
8c46:	00
8c47:	4c 8b 74 24 40       	mov    r14,QWORD PTR [rsp+0x40]
8c4c:	4c 8b 6c 24 70       	mov    r13,QWORD PTR [rsp+0x70]
8c51:	4c 8b 5c 24 30       	mov    r11,QWORD PTR [rsp+0x30]
8c56:	48 83 ff 01          	cmp    rdi,0x1
8c5a:	0f 86 fb 05 00 00    	jbe    925b <quotearg_buffer_restyled+0xfeb>
8c60:	48 89 f9             	mov    rcx,rdi
8c63:	31 f6                	xor    esi,esi
8c65:	44 0f b6 4c 24 0f    	movzx  r9d,BYTE PTR [rsp+0xf]
8c6b:	48 01 e9             	add    rcx,rbp
8c6e:	48 8b 7c 24 10       	mov    rdi,QWORD PTR [rsp+0x10]
8c73:	e9 b6 00 00 00       	jmp    8d2e <quotearg_buffer_restyled+0xabe>
8c78:	0f 1f 84 00 00 00 00 	nop    DWORD PTR [rax+rax*1+0x0]
8c7f:	00
8c80:	83 7c 24 08 02       	cmp    DWORD PTR [rsp+0x8],0x2
8c85:	0f 94 c0             	sete   al
8c88:	45 84 c9             	test   r9b,r9b
8c8b:	0f 85 af 04 00 00    	jne    9140 <quotearg_buffer_restyled+0xed0>
8c91:	44 89 c6             	mov    esi,r8d
8c94:	83 f6 01             	xor    esi,0x1
8c97:	40 20 f0             	and    al,sil
8c9a:	74 2f                	je     8ccb <quotearg_buffer_restyled+0xa5b>
8c9c:	4d 39 fd             	cmp    r13,r15
8c9f:	76 05                	jbe    8ca6 <quotearg_buffer_restyled+0xa36>
8ca1:	43 c6 04 3e 27       	mov    BYTE PTR [r14+r15*1],0x27
8ca6:	49 8d 77 01          	lea    rsi,[r15+0x1]
8caa:	49 39 f5             	cmp    r13,rsi
8cad:	76 06                	jbe    8cb5 <quotearg_buffer_restyled+0xa45>
8caf:	43 c6 44 3e 01 24    	mov    BYTE PTR [r14+r15*1+0x1],0x24
8cb5:	49 8d 77 02          	lea    rsi,[r15+0x2]
8cb9:	49 39 f5             	cmp    r13,rsi
8cbc:	76 06                	jbe    8cc4 <quotearg_buffer_restyled+0xa54>
8cbe:	43 c6 44 3e 02 27    	mov    BYTE PTR [r14+r15*1+0x2],0x27
8cc4:	49 83 c7 03          	add    r15,0x3
8cc8:	41 89 c0             	mov    r8d,eax
8ccb:	4d 39 fd             	cmp    r13,r15
8cce:	76 05                	jbe    8cd5 <quotearg_buffer_restyled+0xa65>
8cd0:	43 c6 04 3e 5c       	mov    BYTE PTR [r14+r15*1],0x5c
8cd5:	49 8d 47 01          	lea    rax,[r15+0x1]
8cd9:	49 39 c5             	cmp    r13,rax
8cdc:	76 0d                	jbe    8ceb <quotearg_buffer_restyled+0xa7b>
8cde:	89 d8                	mov    eax,ebx
8ce0:	c0 e8 06             	shr    al,0x6
8ce3:	83 c0 30             	add    eax,0x30
8ce6:	43 88 44 3e 01       	mov    BYTE PTR [r14+r15*1+0x1],al
8ceb:	49 8d 47 02          	lea    rax,[r15+0x2]
8cef:	49 39 c5             	cmp    r13,rax
8cf2:	76 10                	jbe    8d04 <quotearg_buffer_restyled+0xa94>
8cf4:	89 d8                	mov    eax,ebx
8cf6:	c0 e8 03             	shr    al,0x3
8cf9:	83 e0 07             	and    eax,0x7
8cfc:	83 c0 30             	add    eax,0x30
8cff:	43 88 44 3e 02       	mov    BYTE PTR [r14+r15*1+0x2],al
8d04:	83 e3 07             	and    ebx,0x7
8d07:	48 83 c5 01          	add    rbp,0x1
8d0b:	49 83 c7 03          	add    r15,0x3
8d0f:	83 c3 30             	add    ebx,0x30
8d12:	48 39 cd             	cmp    rbp,rcx
8d15:	0f 83 e5 f7 ff ff    	jae    8500 <quotearg_buffer_restyled+0x290>
8d1b:	89 d6                	mov    esi,edx
8d1d:	4d 39 fd             	cmp    r13,r15
8d20:	76 04                	jbe    8d26 <quotearg_buffer_restyled+0xab6>
8d22:	43 88 1c 3e          	mov    BYTE PTR [r14+r15*1],bl
8d26:	0f b6 1c 2f          	movzx  ebx,BYTE PTR [rdi+rbp*1]
8d2a:	49 83 c7 01          	add    r15,0x1
8d2e:	84 d2                	test   dl,dl
8d30:	0f 85 4a ff ff ff    	jne    8c80 <quotearg_buffer_restyled+0xa10>
8d36:	89 f0                	mov    eax,esi
8d38:	83 f0 01             	xor    eax,0x1
8d3b:	44 21 c0             	and    eax,r8d
8d3e:	45 84 d2             	test   r10b,r10b
8d41:	74 0e                	je     8d51 <quotearg_buffer_restyled+0xae1>
8d43:	4d 39 fd             	cmp    r13,r15
8d46:	76 05                	jbe    8d4d <quotearg_buffer_restyled+0xadd>
8d48:	43 c6 04 3e 5c       	mov    BYTE PTR [r14+r15*1],0x5c
8d4d:	49 83 c7 01          	add    r15,0x1
8d51:	48 83 c5 01          	add    rbp,0x1
8d55:	48 39 cd             	cmp    rbp,rcx
8d58:	0f 83 7e f7 ff ff    	jae    84dc <quotearg_buffer_restyled+0x26c>
8d5e:	84 c0                	test   al,al
8d60:	0f 84 f8 03 00 00    	je     915e <quotearg_buffer_restyled+0xeee>
8d66:	4d 39 fd             	cmp    r13,r15
8d69:	76 05                	jbe    8d70 <quotearg_buffer_restyled+0xb00>
8d6b:	43 c6 04 3e 27       	mov    BYTE PTR [r14+r15*1],0x27
8d70:	49 8d 47 01          	lea    rax,[r15+0x1]
8d74:	49 39 c5             	cmp    r13,rax
8d77:	76 06                	jbe    8d7f <quotearg_buffer_restyled+0xb0f>
8d79:	43 c6 44 3e 01 27    	mov    BYTE PTR [r14+r15*1+0x1],0x27
8d7f:	49 83 c7 02          	add    r15,0x2
8d83:	45 31 d2             	xor    r10d,r10d
8d86:	45 31 c0             	xor    r8d,r8d
8d89:	eb 92                	jmp    8d1d <quotearg_buffer_restyled+0xaad>
8d8b:	0f 1f 44 00 00       	nop    DWORD PTR [rax+rax*1+0x0]
8d90:	49 83 ff 01          	cmp    r15,0x1
8d94:	0f 84 5f fe ff ff    	je     8bf9 <quotearg_buffer_restyled+0x989>
8d9a:	48 8b 7c 24 10       	mov    rdi,QWORD PTR [rsp+0x10]
8d9f:	4a 8d 0c 3f          	lea    rcx,[rdi+r15*1]
8da3:	4a 8d 54 37 01       	lea    rdx,[rdi+r14*1+0x1]
8da8:	4e 8d 04 31          	lea    r8,[rcx+r14*1]
8dac:	eb 0f                	jmp    8dbd <quotearg_buffer_restyled+0xb4d>
8dae:	66 90                	xchg   ax,ax
8db0:	48 83 c2 01          	add    rdx,0x1
8db4:	49 39 d0             	cmp    r8,rdx
8db7:	0f 84 3c fe ff ff    	je     8bf9 <quotearg_buffer_restyled+0x989>
8dbd:	0f b6 0a             	movzx  ecx,BYTE PTR [rdx]
8dc0:	83 e9 5b             	sub    ecx,0x5b
8dc3:	80 f9 21             	cmp    cl,0x21
8dc6:	77 e8                	ja     8db0 <quotearg_buffer_restyled+0xb40>
8dc8:	be 01 00 00 00       	mov    esi,0x1
8dcd:	48 d3 e6             	shl    rsi,cl
8dd0:	48 89 f1             	mov    rcx,rsi
8dd3:	48 be 2b 00 00 00 02 	movabs rsi,0x20000002b
8dda:	00 00 00
8ddd:	48 85 f1             	test   rcx,rsi
8de0:	74 ce                	je     8db0 <quotearg_buffer_restyled+0xb40>
8de2:	4c 8b 74 24 40       	mov    r14,QWORD PTR [rsp+0x40]
8de7:	4c 8b 6c 24 70       	mov    r13,QWORD PTR [rsp+0x70]
8dec:	48 8b 6c 24 30       	mov    rbp,QWORD PTR [rsp+0x30]
8df1:	c7 44 24 08 02 00 00 	mov    DWORD PTR [rsp+0x8],0x2
8df8:	00
8df9:	80 7c 24 0d 00       	cmp    BYTE PTR [rsp+0xd],0x0
8dfe:	74 10                	je     8e10 <quotearg_buffer_restyled+0xba0>
8e00:	84 c0                	test   al,al
8e02:	b8 04 00 00 00       	mov    eax,0x4
8e07:	0f 44 44 24 08       	cmove  eax,DWORD PTR [rsp+0x8]
8e0c:	89 44 24 08          	mov    DWORD PTR [rsp+0x8],eax
8e10:	48 83 ec 08          	sub    rsp,0x8
8e14:	48 89 e9             	mov    rcx,rbp
8e17:	4c 89 ee             	mov    rsi,r13
8e1a:	ff 74 24 68          	push   QWORD PTR [rsp+0x68]
8e1e:	ff 74 24 78          	push   QWORD PTR [rsp+0x78]
8e22:	4c 89 f7             	mov    rdi,r14
8e25:	6a 00                	push   0x0
8e27:	44 8b 8c 24 98 00 00 	mov    r9d,DWORD PTR [rsp+0x98]
8e2e:	00
8e2f:	44 8b 44 24 28       	mov    r8d,DWORD PTR [rsp+0x28]
8e34:	48 8b 54 24 30       	mov    rdx,QWORD PTR [rsp+0x30]
8e39:	41 83 e1 fd          	and    r9d,0xfffffffd
8e3d:	e8 2e f4 ff ff       	call   8270 <quotearg_buffer_restyled>
8e42:	48 83 c4 20          	add    rsp,0x20
8e46:	49 89 c7             	mov    r15,rax
8e49:	48 8b 9c 24 a8 00 00 	mov    rbx,QWORD PTR [rsp+0xa8]
8e50:	00
8e51:	64 48 33 1c 25 28 00 	xor    rbx,QWORD PTR fs:0x28
8e58:	00 00
8e5a:	4c 89 f8             	mov    rax,r15
8e5d:	0f 85 00 06 00 00    	jne    9463 <quotearg_buffer_restyled+0x11f3>
8e63:	48 81 c4 b8 00 00 00 	add    rsp,0xb8
8e6a:	5b                   	pop    rbx
8e6b:	5d                   	pop    rbp
8e6c:	41 5c                	pop    r12
8e6e:	41 5d                	pop    r13
8e70:	41 5e                	pop    r14
8e72:	41 5f                	pop    r15
8e74:	c3                   	ret
8e75:	0f 1f 00             	nop    DWORD PTR [rax]
8e78:	4c 89 dd             	mov    rbp,r11
8e7b:	e9 79 ff ff ff       	jmp    8df9 <quotearg_buffer_restyled+0xb89>
8e80:	4d 39 fd             	cmp    r13,r15
8e83:	76 05                	jbe    8e8a <quotearg_buffer_restyled+0xc1a>
8e85:	43 c6 04 3e 27       	mov    BYTE PTR [r14+r15*1],0x27
8e8a:	49 8d 47 01          	lea    rax,[r15+0x1]
8e8e:	49 39 c5             	cmp    r13,rax
8e91:	76 06                	jbe    8e99 <quotearg_buffer_restyled+0xc29>
8e93:	43 c6 44 3e 01 5c    	mov    BYTE PTR [r14+r15*1+0x1],0x5c
8e99:	49 8d 47 02          	lea    rax,[r15+0x2]
8e9d:	49 39 c5             	cmp    r13,rax
8ea0:	0f 86 ec 05 00 00    	jbe    9492 <quotearg_buffer_restyled+0x1222>
8ea6:	4c 89 ea             	mov    rdx,r13
8ea9:	43 c6 44 3e 02 27    	mov    BYTE PTR [r14+r15*1+0x2],0x27
8eaf:	4c 8b 6c 24 50       	mov    r13,QWORD PTR [rsp+0x50]
8eb4:	e9 d9 fb ff ff       	jmp    8a92 <quotearg_buffer_restyled+0x822>
8eb9:	44 89 e0             	mov    eax,r12d
8ebc:	bb 30 00 00 00       	mov    ebx,0x30
8ec1:	45 31 e4             	xor    r12d,r12d
8ec4:	e9 00 f6 ff ff       	jmp    84c9 <quotearg_buffer_restyled+0x259>
8ec9:	43 c6 44 3e 02 27    	mov    BYTE PTR [r14+r15*1+0x2],0x27
8ecf:	e9 c5 f9 ff ff       	jmp    8899 <quotearg_buffer_restyled+0x629>
8ed4:	85 db                	test   ebx,ebx
8ed6:	0f 85 27 f4 ff ff    	jne    8303 <quotearg_buffer_restyled+0x93>
8edc:	c6 44 24 0d 01       	mov    BYTE PTR [rsp+0xd],0x1
8ee1:	4d 85 ed             	test   r13,r13
8ee4:	0f 85 90 05 00 00    	jne    947a <quotearg_buffer_restyled+0x120a>
8eea:	48 8d 05 f4 3b 00 00 	lea    rax,[rip+0x3bf4]        # cae5 <default_tuning+0xa5>
8ef1:	48 c7 44 24 50 00 00 	mov    QWORD PTR [rsp+0x50],0x0
8ef8:	00 00
8efa:	c6 44 24 0e 01       	mov    BYTE PTR [rsp+0xe],0x1
8eff:	c6 44 24 7c 00       	mov    BYTE PTR [rsp+0x7c],0x0
8f04:	45 31 e4             	xor    r12d,r12d
8f07:	c6 44 24 0f 00       	mov    BYTE PTR [rsp+0xf],0x0
8f0c:	48 c7 44 24 18 01 00 	mov    QWORD PTR [rsp+0x18],0x1
8f13:	00 00
8f15:	48 89 44 24 48       	mov    QWORD PTR [rsp+0x48],rax
8f1a:	41 bf 01 00 00 00    	mov    r15d,0x1
8f20:	c7 44 24 08 02 00 00 	mov    DWORD PTR [rsp+0x8],0x2
8f27:	00
8f28:	e9 16 f4 ff ff       	jmp    8343 <quotearg_buffer_restyled+0xd3>
8f2d:	0f 1f 00             	nop    DWORD PTR [rax]
8f30:	85 db                	test   ebx,ebx
8f32:	0f 85 f5 03 00 00    	jne    932d <quotearg_buffer_restyled+0x10bd>
8f38:	4d 85 ed             	test   r13,r13
8f3b:	0f 84 25 02 00 00    	je     9166 <quotearg_buffer_restyled+0xef6>
8f41:	41 c6 06 22          	mov    BYTE PTR [r14],0x22
8f45:	c6 44 24 0e 01       	mov    BYTE PTR [rsp+0xe],0x1
8f4a:	45 31 e4             	xor    r12d,r12d
8f4d:	c6 44 24 7c 00       	mov    BYTE PTR [rsp+0x7c],0x0
8f52:	48 c7 44 24 50 00 00 	mov    QWORD PTR [rsp+0x50],0x0
8f59:	00 00
8f5b:	48 8d 05 81 3b 00 00 	lea    rax,[rip+0x3b81]        # cae3 <default_tuning+0xa3>
8f62:	c6 44 24 0f 00       	mov    BYTE PTR [rsp+0xf],0x0
8f67:	c6 44 24 0d 01       	mov    BYTE PTR [rsp+0xd],0x1
8f6c:	48 c7 44 24 18 01 00 	mov    QWORD PTR [rsp+0x18],0x1
8f73:	00 00
8f75:	41 bf 01 00 00 00    	mov    r15d,0x1
8f7b:	48 89 44 24 48       	mov    QWORD PTR [rsp+0x48],rax
8f80:	e9 be f3 ff ff       	jmp    8343 <quotearg_buffer_restyled+0xd3>
8f85:	48 8d 05 57 3b 00 00 	lea    rax,[rip+0x3b57]        # cae3 <default_tuning+0xa3>
8f8c:	c6 44 24 0e 01       	mov    BYTE PTR [rsp+0xe],0x1
8f91:	c6 44 24 7c 00       	mov    BYTE PTR [rsp+0x7c],0x0
8f96:	45 31 e4             	xor    r12d,r12d
8f99:	48 c7 44 24 50 00 00 	mov    QWORD PTR [rsp+0x50],0x0
8fa0:	00 00
8fa2:	c6 44 24 0f 01       	mov    BYTE PTR [rsp+0xf],0x1
8fa7:	c6 44 24 0d 01       	mov    BYTE PTR [rsp+0xd],0x1
8fac:	48 c7 44 24 18 01 00 	mov    QWORD PTR [rsp+0x18],0x1
8fb3:	00 00
8fb5:	45 31 ff             	xor    r15d,r15d
8fb8:	48 89 44 24 48       	mov    QWORD PTR [rsp+0x48],rax
8fbd:	c7 44 24 08 05 00 00 	mov    DWORD PTR [rsp+0x8],0x5
8fc4:	00
8fc5:	e9 79 f3 ff ff       	jmp    8343 <quotearg_buffer_restyled+0xd3>
8fca:	c6 44 24 0e 01       	mov    BYTE PTR [rsp+0xe],0x1
8fcf:	c6 44 24 7c 00       	mov    BYTE PTR [rsp+0x7c],0x0
8fd4:	45 31 e4             	xor    r12d,r12d
8fd7:	48 c7 44 24 50 00 00 	mov    QWORD PTR [rsp+0x50],0x0
8fde:	00 00
8fe0:	c6 44 24 0f 00       	mov    BYTE PTR [rsp+0xf],0x0
8fe5:	45 31 ff             	xor    r15d,r15d
8fe8:	c6 44 24 0d 01       	mov    BYTE PTR [rsp+0xd],0x1
8fed:	48 c7 44 24 18 00 00 	mov    QWORD PTR [rsp+0x18],0x0
8ff4:	00 00
8ff6:	48 c7 44 24 48 00 00 	mov    QWORD PTR [rsp+0x48],0x0
8ffd:	00 00
8fff:	e9 3f f3 ff ff       	jmp    8343 <quotearg_buffer_restyled+0xd3>
9004:	83 7c 24 08 0a       	cmp    DWORD PTR [rsp+0x8],0xa
9009:	74 56                	je     9061 <quotearg_buffer_restyled+0xdf1>
900b:	48 8d 35 d5 3a 00 00 	lea    rsi,[rip+0x3ad5]        # cae7 <default_tuning+0xa7>
9012:	31 ff                	xor    edi,edi
9014:	ba 05 00 00 00       	mov    edx,0x5
9019:	e8 b2 8b ff ff       	call   1bd0 <dcgettext@plt>
901e:	48 89 c1             	mov    rcx,rax
9021:	48 89 44 24 68       	mov    QWORD PTR [rsp+0x68],rax
9026:	48 8d 05 ba 3a 00 00 	lea    rax,[rip+0x3aba]        # cae7 <default_tuning+0xa7>
902d:	48 39 c1             	cmp    rcx,rax
9030:	0f 84 98 03 00 00    	je     93ce <quotearg_buffer_restyled+0x115e>
9036:	48 8d 35 a8 3a 00 00 	lea    rsi,[rip+0x3aa8]        # cae5 <default_tuning+0xa5>
903d:	31 ff                	xor    edi,edi
903f:	ba 05 00 00 00       	mov    edx,0x5
9044:	e8 87 8b ff ff       	call   1bd0 <dcgettext@plt>
9049:	48 89 c1             	mov    rcx,rax
904c:	48 89 44 24 60       	mov    QWORD PTR [rsp+0x60],rax
9051:	48 8d 05 8d 3a 00 00 	lea    rax,[rip+0x3a8d]        # cae5 <default_tuning+0xa5>
9058:	48 39 c1             	cmp    rcx,rax
905b:	0f 84 83 03 00 00    	je     93e4 <quotearg_buffer_restyled+0x1174>
9061:	45 31 ff             	xor    r15d,r15d
9064:	85 db                	test   ebx,ebx
9066:	0f 84 c1 01 00 00    	je     922d <quotearg_buffer_restyled+0xfbd>
906c:	85 db                	test   ebx,ebx
906e:	48 8b 5c 24 60       	mov    rbx,QWORD PTR [rsp+0x60]
9073:	0f 95 44 24 0f       	setne  BYTE PTR [rsp+0xf]
9078:	45 31 e4             	xor    r12d,r12d
907b:	48 89 df             	mov    rdi,rbx
907e:	e8 6d 8b ff ff       	call   1bf0 <strlen@plt>
9083:	48 89 5c 24 48       	mov    QWORD PTR [rsp+0x48],rbx
9088:	48 89 44 24 18       	mov    QWORD PTR [rsp+0x18],rax
908d:	c6 44 24 0e 01       	mov    BYTE PTR [rsp+0xe],0x1
9092:	c6 44 24 7c 00       	mov    BYTE PTR [rsp+0x7c],0x0
9097:	48 c7 44 24 50 00 00 	mov    QWORD PTR [rsp+0x50],0x0
909e:	00 00
90a0:	c6 44 24 0d 01       	mov    BYTE PTR [rsp+0xd],0x1
90a5:	e9 99 f2 ff ff       	jmp    8343 <quotearg_buffer_restyled+0xd3>
90aa:	c6 44 24 0e 01       	mov    BYTE PTR [rsp+0xe],0x1
90af:	c6 44 24 7c 00       	mov    BYTE PTR [rsp+0x7c],0x0
90b4:	45 31 e4             	xor    r12d,r12d
90b7:	48 c7 44 24 50 00 00 	mov    QWORD PTR [rsp+0x50],0x0
90be:	00 00
90c0:	c6 44 24 0f 00       	mov    BYTE PTR [rsp+0xf],0x0
90c5:	45 31 ff             	xor    r15d,r15d
90c8:	c6 44 24 0d 00       	mov    BYTE PTR [rsp+0xd],0x0
90cd:	48 c7 44 24 18 00 00 	mov    QWORD PTR [rsp+0x18],0x0
90d4:	00 00
90d6:	48 c7 44 24 48 00 00 	mov    QWORD PTR [rsp+0x48],0x0
90dd:	00 00
90df:	e9 5f f2 ff ff       	jmp    8343 <quotearg_buffer_restyled+0xd3>
90e4:	c6 44 24 0e 01       	mov    BYTE PTR [rsp+0xe],0x1
90e9:	c6 44 24 7c 00       	mov    BYTE PTR [rsp+0x7c],0x0
90ee:	45 31 e4             	xor    r12d,r12d
90f1:	48 c7 44 24 50 00 00 	mov    QWORD PTR [rsp+0x50],0x0
90f8:	00 00
90fa:	c6 44 24 0f 01       	mov    BYTE PTR [rsp+0xf],0x1
90ff:	c6 44 24 0d 01       	mov    BYTE PTR [rsp+0xd],0x1
9104:	e9 1a f2 ff ff       	jmp    8323 <quotearg_buffer_restyled+0xb3>
9109:	4d 39 fd             	cmp    r13,r15
910c:	76 05                	jbe    9113 <quotearg_buffer_restyled+0xea3>
910e:	43 c6 04 3e 30       	mov    BYTE PTR [r14+r15*1],0x30
9113:	48 8d 41 02          	lea    rax,[rcx+0x2]
9117:	49 39 c5             	cmp    r13,rax
911a:	76 06                	jbe    9122 <quotearg_buffer_restyled+0xeb2>
911c:	41 c6 44 0e 02 30    	mov    BYTE PTR [r14+rcx*1+0x2],0x30
9122:	44 89 e0             	mov    eax,r12d
9125:	4c 8d 79 03          	lea    r15,[rcx+0x3]
9129:	45 31 e4             	xor    r12d,r12d
912c:	bb 30 00 00 00       	mov    ebx,0x30
9131:	e9 62 f3 ff ff       	jmp    8498 <quotearg_buffer_restyled+0x228>
9136:	66 2e 0f 1f 84 00 00 	nop    WORD PTR cs:[rax+rax*1+0x0]
913d:	00 00 00
9140:	0f b6 5c 24 0f       	movzx  ebx,BYTE PTR [rsp+0xf]
9145:	4c 89 dd             	mov    rbp,r11
9148:	88 5c 24 0d          	mov    BYTE PTR [rsp+0xd],bl
914c:	e9 a8 fc ff ff       	jmp    8df9 <quotearg_buffer_restyled+0xb89>
9151:	0f b6 54 24 0d       	movzx  edx,BYTE PTR [rsp+0xd]
9156:	45 31 e4             	xor    r12d,r12d
9159:	e9 02 fb ff ff       	jmp    8c60 <quotearg_buffer_restyled+0x9f0>
915e:	45 31 d2             	xor    r10d,r10d
9161:	e9 b7 fb ff ff       	jmp    8d1d <quotearg_buffer_restyled+0xaad>
9166:	48 c7 44 24 50 00 00 	mov    QWORD PTR [rsp+0x50],0x0
916d:	00 00
916f:	c6 44 24 0e 01       	mov    BYTE PTR [rsp+0xe],0x1
9174:	45 31 e4             	xor    r12d,r12d
9177:	c6 44 24 7c 00       	mov    BYTE PTR [rsp+0x7c],0x0
917c:	e9 da fd ff ff       	jmp    8f5b <quotearg_buffer_restyled+0xceb>
9181:	4c 8b 5c 24 30       	mov    r11,QWORD PTR [rsp+0x30]
9186:	4c 89 f6             	mov    rsi,r14
9189:	4c 89 e9             	mov    rcx,r13
918c:	48 89 d8             	mov    rax,rbx
918f:	48 89 df             	mov    rdi,rbx
9192:	44 0f b6 44 24 7d    	movzx  r8d,BYTE PTR [rsp+0x7d]
9198:	0f b6 5c 24 7e       	movzx  ebx,BYTE PTR [rsp+0x7e]
919d:	4c 8b 8c 24 88 00 00 	mov    r9,QWORD PTR [rsp+0x88]
91a4:	00
91a5:	4c 39 de             	cmp    rsi,r11
91a8:	44 0f b6 54 24 7f    	movzx  r10d,BYTE PTR [rsp+0x7f]
91ae:	4c 8b bc 24 80 00 00 	mov    r15,QWORD PTR [rsp+0x80]
91b5:	00
91b6:	4c 8b 74 24 40       	mov    r14,QWORD PTR [rsp+0x40]
91bb:	4c 8b 6c 24 70       	mov    r13,QWORD PTR [rsp+0x70]
91c0:	73 26                	jae    91e8 <quotearg_buffer_restyled+0xf78>
91c2:	80 39 00             	cmp    BYTE PTR [rcx],0x0
91c5:	75 10                	jne    91d7 <quotearg_buffer_restyled+0xf67>
91c7:	eb 1f                	jmp    91e8 <quotearg_buffer_restyled+0xf78>
91c9:	0f 1f 80 00 00 00 00 	nop    DWORD PTR [rax+0x0]
91d0:	41 80 3c 01 00       	cmp    BYTE PTR [r9+rax*1],0x0
91d5:	74 0e                	je     91e5 <quotearg_buffer_restyled+0xf75>
91d7:	48 83 c0 01          	add    rax,0x1
91db:	48 8d 54 05 00       	lea    rdx,[rbp+rax*1+0x0]
91e0:	49 39 d3             	cmp    r11,rdx
91e3:	77 eb                	ja     91d0 <quotearg_buffer_restyled+0xf60>
91e5:	48 89 c7             	mov    rdi,rax
91e8:	0f b6 54 24 0d       	movzx  edx,BYTE PTR [rsp+0xd]
91ed:	45 31 e4             	xor    r12d,r12d
91f0:	e9 61 fa ff ff       	jmp    8c56 <quotearg_buffer_restyled+0x9e6>
91f5:	48 89 df             	mov    rdi,rbx
91f8:	44 0f b6 44 24 7d    	movzx  r8d,BYTE PTR [rsp+0x7d]
91fe:	0f b6 5c 24 7e       	movzx  ebx,BYTE PTR [rsp+0x7e]
9203:	44 0f b6 54 24 7f    	movzx  r10d,BYTE PTR [rsp+0x7f]
9209:	4c 8b bc 24 80 00 00 	mov    r15,QWORD PTR [rsp+0x80]
9210:	00
9211:	45 31 e4             	xor    r12d,r12d
9214:	4c 8b 74 24 40       	mov    r14,QWORD PTR [rsp+0x40]
9219:	4c 8b 6c 24 70       	mov    r13,QWORD PTR [rsp+0x70]
921e:	4c 8b 5c 24 30       	mov    r11,QWORD PTR [rsp+0x30]
9223:	0f b6 54 24 0d       	movzx  edx,BYTE PTR [rsp+0xd]
9228:	e9 29 fa ff ff       	jmp    8c56 <quotearg_buffer_restyled+0x9e6>
922d:	48 8b 54 24 68       	mov    rdx,QWORD PTR [rsp+0x68]
9232:	0f b6 02             	movzx  eax,BYTE PTR [rdx]
9235:	84 c0                	test   al,al
9237:	0f 84 2f fe ff ff    	je     906c <quotearg_buffer_restyled+0xdfc>
923d:	0f 1f 00             	nop    DWORD PTR [rax]
9240:	4d 39 fd             	cmp    r13,r15
9243:	76 04                	jbe    9249 <quotearg_buffer_restyled+0xfd9>
9245:	43 88 04 3e          	mov    BYTE PTR [r14+r15*1],al
9249:	49 83 c7 01          	add    r15,0x1
924d:	42 0f b6 04 3a       	movzx  eax,BYTE PTR [rdx+r15*1]
9252:	84 c0                	test   al,al
9254:	75 ea                	jne    9240 <quotearg_buffer_restyled+0xfd0>
9256:	e9 11 fe ff ff       	jmp    906c <quotearg_buffer_restyled+0xdfc>
925b:	89 d0                	mov    eax,edx
925d:	e9 55 f5 ff ff       	jmp    87b7 <quotearg_buffer_restyled+0x547>
9262:	0f b6 1c 08          	movzx  ebx,BYTE PTR [rax+rcx*1]
9266:	80 fb 3e             	cmp    bl,0x3e
9269:	0f 87 71 f8 ff ff    	ja     8ae0 <quotearg_buffer_restyled+0x870>
926f:	48 b8 00 00 00 00 82 	movabs rax,0x7000a38200000000
9276:	a3 00 70
9279:	48 0f a3 d8          	bt     rax,rbx
927d:	0f 83 5d f8 ff ff    	jae    8ae0 <quotearg_buffer_restyled+0x870>
9283:	80 7c 24 0f 00       	cmp    BYTE PTR [rsp+0xf],0x0
9288:	0f 85 e4 01 00 00    	jne    9472 <quotearg_buffer_restyled+0x1202>
928e:	4d 39 fd             	cmp    r13,r15
9291:	76 05                	jbe    9298 <quotearg_buffer_restyled+0x1028>
9293:	43 c6 04 3e 3f       	mov    BYTE PTR [r14+r15*1],0x3f
9298:	49 8d 47 01          	lea    rax,[r15+0x1]
929c:	49 39 c5             	cmp    r13,rax
929f:	76 06                	jbe    92a7 <quotearg_buffer_restyled+0x1037>
92a1:	43 c6 44 3e 01 22    	mov    BYTE PTR [r14+r15*1+0x1],0x22
92a7:	49 8d 47 02          	lea    rax,[r15+0x2]
92ab:	49 39 c5             	cmp    r13,rax
92ae:	76 06                	jbe    92b6 <quotearg_buffer_restyled+0x1046>
92b0:	43 c6 44 3e 02 22    	mov    BYTE PTR [r14+r15*1+0x2],0x22
92b6:	49 8d 47 03          	lea    rax,[r15+0x3]
92ba:	49 39 c5             	cmp    r13,rax
92bd:	76 06                	jbe    92c5 <quotearg_buffer_restyled+0x1055>
92bf:	43 c6 44 3e 03 3f    	mov    BYTE PTR [r14+r15*1+0x3],0x3f
92c5:	49 83 c7 04          	add    r15,0x4
92c9:	31 d2                	xor    edx,edx
92cb:	45 31 e4             	xor    r12d,r12d
92ce:	31 c0                	xor    eax,eax
92d0:	48 89 cd             	mov    rbp,rcx
92d3:	e9 c0 f1 ff ff       	jmp    8498 <quotearg_buffer_restyled+0x228>
92d8:	85 db                	test   ebx,ebx
92da:	0f 84 88 01 00 00    	je     9468 <quotearg_buffer_restyled+0x11f8>
92e0:	48 8d 05 fe 37 00 00 	lea    rax,[rip+0x37fe]        # cae5 <default_tuning+0xa5>
92e7:	c6 44 24 0e 01       	mov    BYTE PTR [rsp+0xe],0x1
92ec:	c6 44 24 7c 00       	mov    BYTE PTR [rsp+0x7c],0x0
92f1:	45 31 e4             	xor    r12d,r12d
92f4:	48 c7 44 24 50 00 00 	mov    QWORD PTR [rsp+0x50],0x0
92fb:	00 00
92fd:	c6 44 24 0f 01       	mov    BYTE PTR [rsp+0xf],0x1
9302:	c6 44 24 0d 00       	mov    BYTE PTR [rsp+0xd],0x0
9307:	48 c7 44 24 18 01 00 	mov    QWORD PTR [rsp+0x18],0x1
930e:	00 00
9310:	45 31 ff             	xor    r15d,r15d
9313:	48 89 44 24 48       	mov    QWORD PTR [rsp+0x48],rax
9318:	e9 26 f0 ff ff       	jmp    8343 <quotearg_buffer_restyled+0xd3>
931d:	0f 1f 00             	nop    DWORD PTR [rax]
9320:	4c 89 dd             	mov    rbp,r11
9323:	0f b6 44 24 0f       	movzx  eax,BYTE PTR [rsp+0xf]
9328:	e9 cc fa ff ff       	jmp    8df9 <quotearg_buffer_restyled+0xb89>
932d:	48 8d 05 af 37 00 00 	lea    rax,[rip+0x37af]        # cae3 <default_tuning+0xa3>
9334:	c6 44 24 0e 01       	mov    BYTE PTR [rsp+0xe],0x1
9339:	c6 44 24 7c 00       	mov    BYTE PTR [rsp+0x7c],0x0
933e:	45 31 e4             	xor    r12d,r12d
9341:	48 c7 44 24 50 00 00 	mov    QWORD PTR [rsp+0x50],0x0
9348:	00 00
934a:	c6 44 24 0f 01       	mov    BYTE PTR [rsp+0xf],0x1
934f:	c6 44 24 0d 01       	mov    BYTE PTR [rsp+0xd],0x1
9354:	48 c7 44 24 18 01 00 	mov    QWORD PTR [rsp+0x18],0x1
935b:	00 00
935d:	45 31 ff             	xor    r15d,r15d
9360:	48 89 44 24 48       	mov    QWORD PTR [rsp+0x48],rax
9365:	e9 d9 ef ff ff       	jmp    8343 <quotearg_buffer_restyled+0xd3>
936a:	89 d0                	mov    eax,edx
936c:	48 8b 5c 24 48       	mov    rbx,QWORD PTR [rsp+0x48]
9371:	48 85 db             	test   rbx,rbx
9374:	74 2c                	je     93a2 <quotearg_buffer_restyled+0x1132>
9376:	84 c0                	test   al,al
9378:	74 28                	je     93a2 <quotearg_buffer_restyled+0x1132>
937a:	0f b6 0b             	movzx  ecx,BYTE PTR [rbx]
937d:	48 89 d8             	mov    rax,rbx
9380:	84 c9                	test   cl,cl
9382:	74 1e                	je     93a2 <quotearg_buffer_restyled+0x1132>
9384:	4c 89 fa             	mov    rdx,r15
9387:	4c 29 f8             	sub    rax,r15
938a:	49 39 d5             	cmp    r13,rdx
938d:	76 04                	jbe    9393 <quotearg_buffer_restyled+0x1123>
938f:	41 88 0c 16          	mov    BYTE PTR [r14+rdx*1],cl
9393:	48 83 c2 01          	add    rdx,0x1
9397:	0f b6 0c 10          	movzx  ecx,BYTE PTR [rax+rdx*1]
939b:	84 c9                	test   cl,cl
939d:	75 eb                	jne    938a <quotearg_buffer_restyled+0x111a>
939f:	49 89 d7             	mov    r15,rdx
93a2:	4d 39 fd             	cmp    r13,r15
93a5:	0f 86 9e fa ff ff    	jbe    8e49 <quotearg_buffer_restyled+0xbd9>
93ab:	43 c6 04 3e 00       	mov    BYTE PTR [r14+r15*1],0x0
93b0:	e9 94 fa ff ff       	jmp    8e49 <quotearg_buffer_restyled+0xbd9>
93b5:	83 7c 24 08 02       	cmp    DWORD PTR [rsp+0x8],0x2
93ba:	0f b6 5c 24 0f       	movzx  ebx,BYTE PTR [rsp+0xf]
93bf:	4c 89 dd             	mov    rbp,r11
93c2:	0f 94 c0             	sete   al
93c5:	88 5c 24 0d          	mov    BYTE PTR [rsp+0xd],bl
93c9:	e9 2b fa ff ff       	jmp    8df9 <quotearg_buffer_restyled+0xb89>
93ce:	8b 74 24 08          	mov    esi,DWORD PTR [rsp+0x8]
93d2:	48 89 cf             	mov    rdi,rcx
93d5:	e8 a6 ed ff ff       	call   8180 <gettext_quote.part.1>
93da:	48 89 44 24 68       	mov    QWORD PTR [rsp+0x68],rax
93df:	e9 52 fc ff ff       	jmp    9036 <quotearg_buffer_restyled+0xdc6>
93e4:	8b 74 24 08          	mov    esi,DWORD PTR [rsp+0x8]
93e8:	48 89 cf             	mov    rdi,rcx
93eb:	e8 90 ed ff ff       	call   8180 <gettext_quote.part.1>
93f0:	48 89 44 24 60       	mov    QWORD PTR [rsp+0x60],rax
93f5:	e9 67 fc ff ff       	jmp    9061 <quotearg_buffer_restyled+0xdf1>
93fa:	0f b6 5c 24 0f       	movzx  ebx,BYTE PTR [rsp+0xf]
93ff:	4c 89 dd             	mov    rbp,r11
9402:	89 d0                	mov    eax,edx
9404:	88 5c 24 0d          	mov    BYTE PTR [rsp+0xd],bl
9408:	e9 ec f9 ff ff       	jmp    8df9 <quotearg_buffer_restyled+0xb89>
940d:	48 83 ec 08          	sub    rsp,0x8
9411:	41 b8 05 00 00 00    	mov    r8d,0x5
9417:	4c 89 d9             	mov    rcx,r11
941a:	ff 74 24 68          	push   QWORD PTR [rsp+0x68]
941e:	ff 74 24 78          	push   QWORD PTR [rsp+0x78]
9422:	4c 89 f7             	mov    rdi,r14
9425:	ff 74 24 38          	push   QWORD PTR [rsp+0x38]
9429:	44 8b 8c 24 98 00 00 	mov    r9d,DWORD PTR [rsp+0x98]
9430:	00
9431:	48 8b 54 24 30       	mov    rdx,QWORD PTR [rsp+0x30]
9436:	48 8b 74 24 70       	mov    rsi,QWORD PTR [rsp+0x70]
943b:	e8 30 ee ff ff       	call   8270 <quotearg_buffer_restyled>
9440:	48 83 c4 20          	add    rsp,0x20
9444:	49 89 c7             	mov    r15,rax
9447:	e9 fd f9 ff ff       	jmp    8e49 <quotearg_buffer_restyled+0xbd9>
944c:	0f b6 44 24 7c       	movzx  eax,BYTE PTR [rsp+0x7c]
9451:	e9 16 ff ff ff       	jmp    936c <quotearg_buffer_restyled+0x10fc>
9456:	c7 44 24 08 02 00 00 	mov    DWORD PTR [rsp+0x8],0x2
945d:	00
945e:	e9 96 f9 ff ff       	jmp    8df9 <quotearg_buffer_restyled+0xb89>
9463:	e8 a8 87 ff ff       	call   1c10 <__stack_chk_fail@plt>
9468:	c6 44 24 0d 00       	mov    BYTE PTR [rsp+0xd],0x0
946d:	e9 6f fa ff ff       	jmp    8ee1 <quotearg_buffer_restyled+0xc71>
9472:	4c 89 dd             	mov    rbp,r11
9475:	e9 96 f9 ff ff       	jmp    8e10 <quotearg_buffer_restyled+0xba0>
947a:	c6 44 24 0e 01       	mov    BYTE PTR [rsp+0xe],0x1
947f:	31 c0                	xor    eax,eax
9481:	45 31 e4             	xor    r12d,r12d
9484:	48 c7 44 24 50 00 00 	mov    QWORD PTR [rsp+0x50],0x0
948b:	00 00
948d:	e9 a2 f5 ff ff       	jmp    8a34 <quotearg_buffer_restyled+0x7c4>
9492:	4c 89 ea             	mov    rdx,r13
9495:	4c 8b 6c 24 50       	mov    r13,QWORD PTR [rsp+0x50]
949a:	e9 f3 f5 ff ff       	jmp    8a92 <quotearg_buffer_restyled+0x822>
949f:	e8 5c 86 ff ff       	call   1b00 <abort@plt>
94a4:	66 90                	xchg   ax,ax
94a6:	66 2e 0f 1f 84 00 00 	nop    WORD PTR cs:[rax+rax*1+0x0]
94ad:	00 00 00

00000000000094b0 <quotearg_n_options>:
94b0:	41 57                	push   r15
94b2:	41 56                	push   r14
94b4:	4c 63 ff             	movsxd r15,edi
94b7:	41 55                	push   r13
94b9:	41 54                	push   r12
94bb:	49 89 d6             	mov    r14,rdx
94be:	55                   	push   rbp
94bf:	53                   	push   rbx
94c0:	48 89 cd             	mov    rbp,rcx
94c3:	48 83 ec 28          	sub    rsp,0x28
94c7:	48 89 74 24 08       	mov    QWORD PTR [rsp+0x8],rsi
94cc:	e8 3f 86 ff ff       	call   1b10 <__errno_location@plt>
94d1:	49 89 c5             	mov    r13,rax
94d4:	8b 00                	mov    eax,DWORD PTR [rax]
94d6:	45 85 ff             	test   r15d,r15d
94d9:	48 8b 1d c0 6b 20 00 	mov    rbx,QWORD PTR [rip+0x206bc0]        # 2100a0 <slotvec>
94e0:	89 44 24 18          	mov    DWORD PTR [rsp+0x18],eax
94e4:	0f 88 67 01 00 00    	js     9651 <quotearg_n_options+0x1a1>
94ea:	44 39 3d a7 6b 20 00 	cmp    DWORD PTR [rip+0x206ba7],r15d        # 210098 <nslots>
94f1:	7f 62                	jg     9555 <quotearg_n_options+0xa5>
94f3:	41 81 ff ff ff ff 7f 	cmp    r15d,0x7fffffff
94fa:	0f 84 56 01 00 00    	je     9656 <quotearg_n_options+0x1a6>
9500:	45 8d 67 01          	lea    r12d,[r15+0x1]
9504:	48 8d 05 a5 6b 20 00 	lea    rax,[rip+0x206ba5]        # 2100b0 <slotvec0>
950b:	49 63 f4             	movsxd rsi,r12d
950e:	48 c1 e6 04          	shl    rsi,0x4
9512:	48 39 c3             	cmp    rbx,rax
9515:	0f 84 15 01 00 00    	je     9630 <quotearg_n_options+0x180>
951b:	48 89 df             	mov    rdi,rbx
951e:	e8 0d 10 00 00       	call   a530 <xrealloc>
9523:	48 89 c3             	mov    rbx,rax
9526:	48 89 05 73 6b 20 00 	mov    QWORD PTR [rip+0x206b73],rax        # 2100a0 <slotvec>
952d:	48 63 3d 64 6b 20 00 	movsxd rdi,DWORD PTR [rip+0x206b64]        # 210098 <nslots>
9534:	44 89 e2             	mov    edx,r12d
9537:	31 f6                	xor    esi,esi
9539:	29 fa                	sub    edx,edi
953b:	48 c1 e7 04          	shl    rdi,0x4
953f:	48 63 d2             	movsxd rdx,edx
9542:	48 01 df             	add    rdi,rbx
9545:	48 c1 e2 04          	shl    rdx,0x4
9549:	e8 82 87 ff ff       	call   1cd0 <memset@plt>
954e:	44 89 25 43 6b 20 00 	mov    DWORD PTR [rip+0x206b43],r12d        # 210098 <nslots>
9555:	8b 45 04             	mov    eax,DWORD PTR [rbp+0x4]
9558:	49 c1 e7 04          	shl    r15,0x4
955c:	48 83 ec 08          	sub    rsp,0x8
9560:	4c 01 fb             	add    rbx,r15
9563:	4c 8d 7d 08          	lea    r15,[rbp+0x8]
9567:	44 8b 45 00          	mov    r8d,DWORD PTR [rbp+0x0]
956b:	4c 8b 1b             	mov    r11,QWORD PTR [rbx]
956e:	4c 8b 63 08          	mov    r12,QWORD PTR [rbx+0x8]
9572:	4c 89 f1             	mov    rcx,r14
9575:	83 c8 01             	or     eax,0x1
9578:	89 44 24 24          	mov    DWORD PTR [rsp+0x24],eax
957c:	ff 75 30             	push   QWORD PTR [rbp+0x30]
957f:	41 89 c1             	mov    r9d,eax
9582:	ff 75 28             	push   QWORD PTR [rbp+0x28]
9585:	41 57                	push   r15
9587:	4c 89 de             	mov    rsi,r11
958a:	48 8b 54 24 28       	mov    rdx,QWORD PTR [rsp+0x28]
958f:	4c 89 e7             	mov    rdi,r12
9592:	4c 89 5c 24 30       	mov    QWORD PTR [rsp+0x30],r11
9597:	e8 d4 ec ff ff       	call   8270 <quotearg_buffer_restyled>
959c:	48 83 c4 20          	add    rsp,0x20
95a0:	4c 8b 5c 24 10       	mov    r11,QWORD PTR [rsp+0x10]
95a5:	49 39 c3             	cmp    r11,rax
95a8:	77 67                	ja     9611 <quotearg_n_options+0x161>
95aa:	48 8d 70 01          	lea    rsi,[rax+0x1]
95ae:	48 8d 05 8b 6b 20 00 	lea    rax,[rip+0x206b8b]        # 210140 <slot0>
95b5:	49 39 c4             	cmp    r12,rax
95b8:	48 89 33             	mov    QWORD PTR [rbx],rsi
95bb:	74 12                	je     95cf <quotearg_n_options+0x11f>
95bd:	4c 89 e7             	mov    rdi,r12
95c0:	48 89 74 24 10       	mov    QWORD PTR [rsp+0x10],rsi
95c5:	e8 26 85 ff ff       	call   1af0 <free@plt>
95ca:	48 8b 74 24 10       	mov    rsi,QWORD PTR [rsp+0x10]
95cf:	48 89 f7             	mov    rdi,rsi
95d2:	48 89 74 24 10       	mov    QWORD PTR [rsp+0x10],rsi
95d7:	e8 f4 0e 00 00       	call   a4d0 <xmalloc>
95dc:	48 83 ec 08          	sub    rsp,0x8
95e0:	48 89 43 08          	mov    QWORD PTR [rbx+0x8],rax
95e4:	44 8b 45 00          	mov    r8d,DWORD PTR [rbp+0x0]
95e8:	ff 75 30             	push   QWORD PTR [rbp+0x30]
95eb:	ff 75 28             	push   QWORD PTR [rbp+0x28]
95ee:	4c 89 f1             	mov    rcx,r14
95f1:	41 57                	push   r15
95f3:	44 8b 4c 24 3c       	mov    r9d,DWORD PTR [rsp+0x3c]
95f8:	48 89 c7             	mov    rdi,rax
95fb:	48 8b 54 24 28       	mov    rdx,QWORD PTR [rsp+0x28]
9600:	48 8b 74 24 30       	mov    rsi,QWORD PTR [rsp+0x30]
9605:	49 89 c4             	mov    r12,rax
9608:	e8 63 ec ff ff       	call   8270 <quotearg_buffer_restyled>
960d:	48 83 c4 20          	add    rsp,0x20
9611:	8b 44 24 18          	mov    eax,DWORD PTR [rsp+0x18]
9615:	41 89 45 00          	mov    DWORD PTR [r13+0x0],eax
9619:	48 83 c4 28          	add    rsp,0x28
961d:	4c 89 e0             	mov    rax,r12
9620:	5b                   	pop    rbx
9621:	5d                   	pop    rbp
9622:	41 5c                	pop    r12
9624:	41 5d                	pop    r13
9626:	41 5e                	pop    r14
9628:	41 5f                	pop    r15
962a:	c3                   	ret
962b:	0f 1f 44 00 00       	nop    DWORD PTR [rax+rax*1+0x0]
9630:	31 ff                	xor    edi,edi
9632:	e8 f9 0e 00 00       	call   a530 <xrealloc>
9637:	66 0f 6f 05 71 6a 20 	movdqa xmm0,XMMWORD PTR [rip+0x206a71]        # 2100b0 <slotvec0>
963e:	00
963f:	48 89 c3             	mov    rbx,rax
9642:	48 89 05 57 6a 20 00 	mov    QWORD PTR [rip+0x206a57],rax        # 2100a0 <slotvec>
9649:	0f 11 00             	movups XMMWORD PTR [rax],xmm0
964c:	e9 dc fe ff ff       	jmp    952d <quotearg_n_options+0x7d>
9651:	e8 aa 84 ff ff       	call   1b00 <abort@plt>
9656:	e8 c5 10 00 00       	call   a720 <xalloc_die>
965b:	0f 1f 44 00 00       	nop    DWORD PTR [rax+rax*1+0x0]

0000000000009660 <clone_quoting_options>:
9660:	41 54                	push   r12
9662:	55                   	push   rbp
9663:	53                   	push   rbx
9664:	48 89 fb             	mov    rbx,rdi
9667:	e8 a4 84 ff ff       	call   1b10 <__errno_location@plt>
966c:	44 8b 20             	mov    r12d,DWORD PTR [rax]
966f:	48 89 c5             	mov    rbp,rax
9672:	48 8d 05 c7 6b 20 00 	lea    rax,[rip+0x206bc7]        # 210240 <default_quoting_options>
9679:	48 85 db             	test   rbx,rbx
967c:	be 38 00 00 00       	mov    esi,0x38
9681:	48 0f 44 d8          	cmove  rbx,rax
9685:	48 89 df             	mov    rdi,rbx
9688:	e8 43 10 00 00       	call   a6d0 <xmemdup>
968d:	44 89 65 00          	mov    DWORD PTR [rbp+0x0],r12d
9691:	5b                   	pop    rbx
9692:	5d                   	pop    rbp
9693:	41 5c                	pop    r12
9695:	c3                   	ret
9696:	66 2e 0f 1f 84 00 00 	nop    WORD PTR cs:[rax+rax*1+0x0]
969d:	00 00 00

00000000000096a0 <get_quoting_style>:
96a0:	48 8d 05 99 6b 20 00 	lea    rax,[rip+0x206b99]        # 210240 <default_quoting_options>
96a7:	48 85 ff             	test   rdi,rdi
96aa:	48 0f 44 f8          	cmove  rdi,rax
96ae:	8b 07                	mov    eax,DWORD PTR [rdi]
96b0:	c3                   	ret
96b1:	0f 1f 44 00 00       	nop    DWORD PTR [rax+rax*1+0x0]
96b6:	66 2e 0f 1f 84 00 00 	nop    WORD PTR cs:[rax+rax*1+0x0]
96bd:	00 00 00

00000000000096c0 <set_quoting_style>:
96c0:	48 8d 05 79 6b 20 00 	lea    rax,[rip+0x206b79]        # 210240 <default_quoting_options>
96c7:	48 85 ff             	test   rdi,rdi
96ca:	48 0f 44 f8          	cmove  rdi,rax
96ce:	89 37                	mov    DWORD PTR [rdi],esi
96d0:	c3                   	ret
96d1:	0f 1f 44 00 00       	nop    DWORD PTR [rax+rax*1+0x0]
96d6:	66 2e 0f 1f 84 00 00 	nop    WORD PTR cs:[rax+rax*1+0x0]
96dd:	00 00 00

00000000000096e0 <set_char_quoting>:
96e0:	48 8d 05 59 6b 20 00 	lea    rax,[rip+0x206b59]        # 210240 <default_quoting_options>
96e7:	48 85 ff             	test   rdi,rdi
96ea:	89 f1                	mov    ecx,esi
96ec:	48 0f 44 f8          	cmove  rdi,rax
96f0:	89 f0                	mov    eax,esi
96f2:	83 e1 1f             	and    ecx,0x1f
96f5:	c0 e8 05             	shr    al,0x5
96f8:	0f b6 c0             	movzx  eax,al
96fb:	48 8d 7c 87 08       	lea    rdi,[rdi+rax*4+0x8]
9700:	8b 37                	mov    esi,DWORD PTR [rdi]
9702:	89 f0                	mov    eax,esi
9704:	d3 e8                	shr    eax,cl
9706:	31 c2                	xor    edx,eax
9708:	83 e0 01             	and    eax,0x1
970b:	83 e2 01             	and    edx,0x1
970e:	d3 e2                	shl    edx,cl
9710:	31 f2                	xor    edx,esi
9712:	89 17                	mov    DWORD PTR [rdi],edx
9714:	c3                   	ret
9715:	90                   	nop
9716:	66 2e 0f 1f 84 00 00 	nop    WORD PTR cs:[rax+rax*1+0x0]
971d:	00 00 00

0000000000009720 <set_quoting_flags>:
9720:	48 8d 05 19 6b 20 00 	lea    rax,[rip+0x206b19]        # 210240 <default_quoting_options>
9727:	48 85 ff             	test   rdi,rdi
972a:	48 0f 44 f8          	cmove  rdi,rax
972e:	8b 47 04             	mov    eax,DWORD PTR [rdi+0x4]
9731:	89 77 04             	mov    DWORD PTR [rdi+0x4],esi
9734:	c3                   	ret
9735:	90                   	nop
9736:	66 2e 0f 1f 84 00 00 	nop    WORD PTR cs:[rax+rax*1+0x0]
973d:	00 00 00

0000000000009740 <set_custom_quoting>:
9740:	48 8d 05 f9 6a 20 00 	lea    rax,[rip+0x206af9]        # 210240 <default_quoting_options>
9747:	48 85 ff             	test   rdi,rdi
974a:	48 0f 44 f8          	cmove  rdi,rax
974e:	48 85 f6             	test   rsi,rsi
9751:	c7 07 0a 00 00 00    	mov    DWORD PTR [rdi],0xa
9757:	74 0e                	je     9767 <set_custom_quoting+0x27>
9759:	48 85 d2             	test   rdx,rdx
975c:	74 09                	je     9767 <set_custom_quoting+0x27>
975e:	48 89 77 28          	mov    QWORD PTR [rdi+0x28],rsi
9762:	48 89 57 30          	mov    QWORD PTR [rdi+0x30],rdx
9766:	c3                   	ret
9767:	48 83 ec 08          	sub    rsp,0x8
976b:	e8 90 83 ff ff       	call   1b00 <abort@plt>

0000000000009770 <quotearg_buffer>:
9770:	41 57                	push   r15
9772:	41 56                	push   r14
9774:	48 8d 05 c5 6a 20 00 	lea    rax,[rip+0x206ac5]        # 210240 <default_quoting_options>
977b:	41 55                	push   r13
977d:	41 54                	push   r12
977f:	49 89 fd             	mov    r13,rdi
9782:	55                   	push   rbp
9783:	53                   	push   rbx
9784:	4c 89 c3             	mov    rbx,r8
9787:	49 89 f6             	mov    r14,rsi
978a:	49 89 d7             	mov    r15,rdx
978d:	48 83 ec 18          	sub    rsp,0x18
9791:	4d 85 c0             	test   r8,r8
9794:	48 0f 44 d8          	cmove  rbx,rax
9798:	48 89 4c 24 08       	mov    QWORD PTR [rsp+0x8],rcx
979d:	e8 6e 83 ff ff       	call   1b10 <__errno_location@plt>
97a2:	44 8b 20             	mov    r12d,DWORD PTR [rax]
97a5:	48 89 c5             	mov    rbp,rax
97a8:	48 8d 43 08          	lea    rax,[rbx+0x8]
97ac:	48 83 ec 08          	sub    rsp,0x8
97b0:	44 8b 4b 04          	mov    r9d,DWORD PTR [rbx+0x4]
97b4:	ff 73 30             	push   QWORD PTR [rbx+0x30]
97b7:	44 8b 03             	mov    r8d,DWORD PTR [rbx]
97ba:	ff 73 28             	push   QWORD PTR [rbx+0x28]
97bd:	4c 89 fa             	mov    rdx,r15
97c0:	50                   	push   rax
97c1:	48 8b 4c 24 28       	mov    rcx,QWORD PTR [rsp+0x28]
97c6:	4c 89 f6             	mov    rsi,r14
97c9:	4c 89 ef             	mov    rdi,r13
97cc:	e8 9f ea ff ff       	call   8270 <quotearg_buffer_restyled>
97d1:	44 89 65 00          	mov    DWORD PTR [rbp+0x0],r12d
97d5:	48 83 c4 38          	add    rsp,0x38
97d9:	5b                   	pop    rbx
97da:	5d                   	pop    rbp
97db:	41 5c                	pop    r12
97dd:	41 5d                	pop    r13
97df:	41 5e                	pop    r14
97e1:	41 5f                	pop    r15
97e3:	c3                   	ret
97e4:	66 90                	xchg   ax,ax
97e6:	66 2e 0f 1f 84 00 00 	nop    WORD PTR cs:[rax+rax*1+0x0]
97ed:	00 00 00

00000000000097f0 <quotearg_alloc_mem>:
97f0:	41 57                	push   r15
97f2:	41 56                	push   r14
97f4:	48 8d 05 45 6a 20 00 	lea    rax,[rip+0x206a45]        # 210240 <default_quoting_options>
97fb:	41 55                	push   r13
97fd:	41 54                	push   r12
97ff:	49 89 d4             	mov    r12,rdx
9802:	55                   	push   rbp
9803:	53                   	push   rbx
9804:	48 89 cb             	mov    rbx,rcx
9807:	49 89 fe             	mov    r14,rdi
980a:	49 89 f7             	mov    r15,rsi
980d:	48 83 ec 38          	sub    rsp,0x38
9811:	48 85 c9             	test   rcx,rcx
9814:	48 0f 44 d8          	cmove  rbx,rax
9818:	31 ed                	xor    ebp,ebp
981a:	e8 f1 82 ff ff       	call   1b10 <__errno_location@plt>
981f:	4d 85 e4             	test   r12,r12
9822:	49 89 c5             	mov    r13,rax
9825:	8b 00                	mov    eax,DWORD PTR [rax]
9827:	40 0f 94 c5          	sete   bpl
982b:	0b 6b 04             	or     ebp,DWORD PTR [rbx+0x4]
982e:	4c 8d 53 08          	lea    r10,[rbx+0x8]
9832:	48 83 ec 08          	sub    rsp,0x8
9836:	44 8b 03             	mov    r8d,DWORD PTR [rbx]
9839:	4c 89 f9             	mov    rcx,r15
983c:	89 44 24 14          	mov    DWORD PTR [rsp+0x14],eax
9840:	ff 73 30             	push   QWORD PTR [rbx+0x30]
9843:	4c 89 f2             	mov    rdx,r14
9846:	ff 73 28             	push   QWORD PTR [rbx+0x28]
9849:	41 52                	push   r10
984b:	31 f6                	xor    esi,esi
984d:	41 89 e9             	mov    r9d,ebp
9850:	31 ff                	xor    edi,edi
9852:	4c 89 54 24 40       	mov    QWORD PTR [rsp+0x40],r10
9857:	e8 14 ea ff ff       	call   8270 <quotearg_buffer_restyled>
985c:	48 8d 70 01          	lea    rsi,[rax+0x1]
9860:	48 89 44 24 48       	mov    QWORD PTR [rsp+0x48],rax
9865:	48 83 c4 20          	add    rsp,0x20
9869:	48 89 f7             	mov    rdi,rsi
986c:	48 89 74 24 18       	mov    QWORD PTR [rsp+0x18],rsi
9871:	e8 5a 0c 00 00       	call   a4d0 <xmalloc>
9876:	48 89 44 24 10       	mov    QWORD PTR [rsp+0x10],rax
987b:	48 83 ec 08          	sub    rsp,0x8
987f:	ff 73 30             	push   QWORD PTR [rbx+0x30]
9882:	ff 73 28             	push   QWORD PTR [rbx+0x28]
9885:	4c 8b 54 24 38       	mov    r10,QWORD PTR [rsp+0x38]
988a:	41 89 e9             	mov    r9d,ebp
988d:	44 8b 03             	mov    r8d,DWORD PTR [rbx]
9890:	4c 89 f9             	mov    rcx,r15
9893:	4c 89 f2             	mov    rdx,r14
9896:	48 89 c7             	mov    rdi,rax
9899:	41 52                	push   r10
989b:	48 8b 74 24 38       	mov    rsi,QWORD PTR [rsp+0x38]
98a0:	e8 cb e9 ff ff       	call   8270 <quotearg_buffer_restyled>
98a5:	8b 44 24 2c          	mov    eax,DWORD PTR [rsp+0x2c]
98a9:	48 83 c4 20          	add    rsp,0x20
98ad:	4d 85 e4             	test   r12,r12
98b0:	41 89 45 00          	mov    DWORD PTR [r13+0x0],eax
98b4:	74 09                	je     98bf <quotearg_alloc_mem+0xcf>
98b6:	4c 8b 5c 24 28       	mov    r11,QWORD PTR [rsp+0x28]
98bb:	4d 89 1c 24          	mov    QWORD PTR [r12],r11
98bf:	48 8b 44 24 10       	mov    rax,QWORD PTR [rsp+0x10]
98c4:	48 83 c4 38          	add    rsp,0x38
98c8:	5b                   	pop    rbx
98c9:	5d                   	pop    rbp
98ca:	41 5c                	pop    r12
98cc:	41 5d                	pop    r13
98ce:	41 5e                	pop    r14
98d0:	41 5f                	pop    r15
98d2:	c3                   	ret
98d3:	0f 1f 00             	nop    DWORD PTR [rax]
98d6:	66 2e 0f 1f 84 00 00 	nop    WORD PTR cs:[rax+rax*1+0x0]
98dd:	00 00 00

00000000000098e0 <quotearg_alloc>:
98e0:	48 89 d1             	mov    rcx,rdx
98e3:	31 d2                	xor    edx,edx
98e5:	e9 06 ff ff ff       	jmp    97f0 <quotearg_alloc_mem>
98ea:	66 0f 1f 44 00 00    	nop    WORD PTR [rax+rax*1+0x0]

00000000000098f0 <quotearg_free>:
98f0:	8b 05 a2 67 20 00    	mov    eax,DWORD PTR [rip+0x2067a2]        # 210098 <nslots>
98f6:	41 54                	push   r12
98f8:	4c 8b 25 a1 67 20 00 	mov    r12,QWORD PTR [rip+0x2067a1]        # 2100a0 <slotvec>
98ff:	55                   	push   rbp
9900:	53                   	push   rbx
9901:	83 f8 01             	cmp    eax,0x1
9904:	7e 2b                	jle    9931 <quotearg_free+0x41>
9906:	83 e8 02             	sub    eax,0x2
9909:	49 8d 5c 24 18       	lea    rbx,[r12+0x18]
990e:	48 c1 e0 04          	shl    rax,0x4
9912:	49 8d 6c 04 28       	lea    rbp,[r12+rax*1+0x28]
9917:	66 0f 1f 84 00 00 00 	nop    WORD PTR [rax+rax*1+0x0]
991e:	00 00
9920:	48 8b 3b             	mov    rdi,QWORD PTR [rbx]
9923:	48 83 c3 10          	add    rbx,0x10
9927:	e8 c4 81 ff ff       	call   1af0 <free@plt>
992c:	48 39 eb             	cmp    rbx,rbp
992f:	75 ef                	jne    9920 <quotearg_free+0x30>
9931:	49 8b 7c 24 08       	mov    rdi,QWORD PTR [r12+0x8]
9936:	48 8d 1d 03 68 20 00 	lea    rbx,[rip+0x206803]        # 210140 <slot0>
993d:	48 39 df             	cmp    rdi,rbx
9940:	74 17                	je     9959 <quotearg_free+0x69>
9942:	e8 a9 81 ff ff       	call   1af0 <free@plt>
9947:	48 c7 05 5e 67 20 00 	mov    QWORD PTR [rip+0x20675e],0x100        # 2100b0 <slotvec0>
994e:	00 01 00 00
9952:	48 89 1d 5f 67 20 00 	mov    QWORD PTR [rip+0x20675f],rbx        # 2100b8 <slotvec0+0x8>
9959:	48 8d 1d 50 67 20 00 	lea    rbx,[rip+0x206750]        # 2100b0 <slotvec0>
9960:	49 39 dc             	cmp    r12,rbx
9963:	74 0f                	je     9974 <quotearg_free+0x84>
9965:	4c 89 e7             	mov    rdi,r12
9968:	e8 83 81 ff ff       	call   1af0 <free@plt>
996d:	48 89 1d 2c 67 20 00 	mov    QWORD PTR [rip+0x20672c],rbx        # 2100a0 <slotvec>
9974:	5b                   	pop    rbx
9975:	c7 05 19 67 20 00 01 	mov    DWORD PTR [rip+0x206719],0x1        # 210098 <nslots>
997c:	00 00 00
997f:	5d                   	pop    rbp
9980:	41 5c                	pop    r12
9982:	c3                   	ret
9983:	0f 1f 00             	nop    DWORD PTR [rax]
9986:	66 2e 0f 1f 84 00 00 	nop    WORD PTR cs:[rax+rax*1+0x0]
998d:	00 00 00

0000000000009990 <quotearg_n>:
9990:	48 8d 0d a9 68 20 00 	lea    rcx,[rip+0x2068a9]        # 210240 <default_quoting_options>
9997:	48 c7 c2 ff ff ff ff 	mov    rdx,0xffffffffffffffff
999e:	e9 0d fb ff ff       	jmp    94b0 <quotearg_n_options>
99a3:	0f 1f 00             	nop    DWORD PTR [rax]
99a6:	66 2e 0f 1f 84 00 00 	nop    WORD PTR cs:[rax+rax*1+0x0]
99ad:	00 00 00

00000000000099b0 <quotearg_n_mem>:
99b0:	48 8d 0d 89 68 20 00 	lea    rcx,[rip+0x206889]        # 210240 <default_quoting_options>
99b7:	e9 f4 fa ff ff       	jmp    94b0 <quotearg_n_options>
99bc:	0f 1f 40 00          	nop    DWORD PTR [rax+0x0]

00000000000099c0 <quotearg>:
99c0:	48 8d 0d 79 68 20 00 	lea    rcx,[rip+0x206879]        # 210240 <default_quoting_options>
99c7:	48 89 fe             	mov    rsi,rdi
99ca:	48 c7 c2 ff ff ff ff 	mov    rdx,0xffffffffffffffff
99d1:	31 ff                	xor    edi,edi
99d3:	e9 d8 fa ff ff       	jmp    94b0 <quotearg_n_options>
99d8:	0f 1f 84 00 00 00 00 	nop    DWORD PTR [rax+rax*1+0x0]
99df:	00

00000000000099e0 <quotearg_mem>:
99e0:	48 8d 0d 59 68 20 00 	lea    rcx,[rip+0x206859]        # 210240 <default_quoting_options>
99e7:	48 89 f2             	mov    rdx,rsi
99ea:	48 89 fe             	mov    rsi,rdi
99ed:	31 ff                	xor    edi,edi
99ef:	e9 bc fa ff ff       	jmp    94b0 <quotearg_n_options>
99f4:	66 90                	xchg   ax,ax
99f6:	66 2e 0f 1f 84 00 00 	nop    WORD PTR cs:[rax+rax*1+0x0]
99fd:	00 00 00

0000000000009a00 <quotearg_n_style>:
9a00:	48 83 ec 48          	sub    rsp,0x48
9a04:	48 89 d0             	mov    rax,rdx
9a07:	64 48 8b 14 25 28 00 	mov    rdx,QWORD PTR fs:0x28
9a0e:	00 00
9a10:	48 89 54 24 38       	mov    QWORD PTR [rsp+0x38],rdx
9a15:	31 d2                	xor    edx,edx
9a17:	83 fe 0a             	cmp    esi,0xa
9a1a:	74 68                	je     9a84 <quotearg_n_style+0x84>
9a1c:	89 34 24             	mov    DWORD PTR [rsp],esi
9a1f:	48 89 e1             	mov    rcx,rsp
9a22:	48 c7 c2 ff ff ff ff 	mov    rdx,0xffffffffffffffff
9a29:	48 89 c6             	mov    rsi,rax
9a2c:	48 c7 44 24 04 00 00 	mov    QWORD PTR [rsp+0x4],0x0
9a33:	00 00
9a35:	48 c7 44 24 0c 00 00 	mov    QWORD PTR [rsp+0xc],0x0
9a3c:	00 00
9a3e:	48 c7 44 24 14 00 00 	mov    QWORD PTR [rsp+0x14],0x0
9a45:	00 00
9a47:	48 c7 44 24 1c 00 00 	mov    QWORD PTR [rsp+0x1c],0x0
9a4e:	00 00
9a50:	48 c7 44 24 24 00 00 	mov    QWORD PTR [rsp+0x24],0x0
9a57:	00 00
9a59:	48 c7 44 24 2c 00 00 	mov    QWORD PTR [rsp+0x2c],0x0
9a60:	00 00
9a62:	c7 44 24 34 00 00 00 	mov    DWORD PTR [rsp+0x34],0x0
9a69:	00
9a6a:	e8 41 fa ff ff       	call   94b0 <quotearg_n_options>
9a6f:	48 8b 4c 24 38       	mov    rcx,QWORD PTR [rsp+0x38]
9a74:	64 48 33 0c 25 28 00 	xor    rcx,QWORD PTR fs:0x28
9a7b:	00 00
9a7d:	75 0a                	jne    9a89 <quotearg_n_style+0x89>
9a7f:	48 83 c4 48          	add    rsp,0x48
9a83:	c3                   	ret
9a84:	e8 77 80 ff ff       	call   1b00 <abort@plt>
9a89:	e8 82 81 ff ff       	call   1c10 <__stack_chk_fail@plt>
9a8e:	66 90                	xchg   ax,ax

0000000000009a90 <quotearg_n_style_mem>:
9a90:	48 83 ec 48          	sub    rsp,0x48
9a94:	48 89 d0             	mov    rax,rdx
9a97:	48 89 ca             	mov    rdx,rcx
9a9a:	64 48 8b 0c 25 28 00 	mov    rcx,QWORD PTR fs:0x28
9aa1:	00 00
9aa3:	48 89 4c 24 38       	mov    QWORD PTR [rsp+0x38],rcx
9aa8:	31 c9                	xor    ecx,ecx
9aaa:	83 fe 0a             	cmp    esi,0xa
9aad:	74 61                	je     9b10 <quotearg_n_style_mem+0x80>
9aaf:	89 34 24             	mov    DWORD PTR [rsp],esi
9ab2:	48 89 e1             	mov    rcx,rsp
9ab5:	48 89 c6             	mov    rsi,rax
9ab8:	48 c7 44 24 04 00 00 	mov    QWORD PTR [rsp+0x4],0x0
9abf:	00 00
9ac1:	48 c7 44 24 0c 00 00 	mov    QWORD PTR [rsp+0xc],0x0
9ac8:	00 00
9aca:	48 c7 44 24 14 00 00 	mov    QWORD PTR [rsp+0x14],0x0
9ad1:	00 00
9ad3:	48 c7 44 24 1c 00 00 	mov    QWORD PTR [rsp+0x1c],0x0
9ada:	00 00
9adc:	48 c7 44 24 24 00 00 	mov    QWORD PTR [rsp+0x24],0x0
9ae3:	00 00
9ae5:	48 c7 44 24 2c 00 00 	mov    QWORD PTR [rsp+0x2c],0x0
9aec:	00 00
9aee:	c7 44 24 34 00 00 00 	mov    DWORD PTR [rsp+0x34],0x0
9af5:	00
9af6:	e8 b5 f9 ff ff       	call   94b0 <quotearg_n_options>
9afb:	48 8b 54 24 38       	mov    rdx,QWORD PTR [rsp+0x38]
9b00:	64 48 33 14 25 28 00 	xor    rdx,QWORD PTR fs:0x28
9b07:	00 00
9b09:	75 0a                	jne    9b15 <quotearg_n_style_mem+0x85>
9b0b:	48 83 c4 48          	add    rsp,0x48
9b0f:	c3                   	ret
9b10:	e8 eb 7f ff ff       	call   1b00 <abort@plt>
9b15:	e8 f6 80 ff ff       	call   1c10 <__stack_chk_fail@plt>
9b1a:	66 0f 1f 44 00 00    	nop    WORD PTR [rax+rax*1+0x0]

0000000000009b20 <quotearg_style>:
9b20:	48 89 f2             	mov    rdx,rsi
9b23:	89 fe                	mov    esi,edi
9b25:	31 ff                	xor    edi,edi
9b27:	e9 d4 fe ff ff       	jmp    9a00 <quotearg_n_style>
9b2c:	0f 1f 40 00          	nop    DWORD PTR [rax+0x0]

0000000000009b30 <quotearg_style_mem>:
9b30:	48 89 d1             	mov    rcx,rdx
9b33:	48 89 f2             	mov    rdx,rsi
9b36:	89 fe                	mov    esi,edi
9b38:	31 ff                	xor    edi,edi
9b3a:	e9 51 ff ff ff       	jmp    9a90 <quotearg_n_style_mem>
9b3f:	90                   	nop

0000000000009b40 <quotearg_char_mem>:
9b40:	48 83 ec 48          	sub    rsp,0x48
9b44:	89 d1                	mov    ecx,edx
9b46:	64 48 8b 04 25 28 00 	mov    rax,QWORD PTR fs:0x28
9b4d:	00 00
9b4f:	48 89 44 24 38       	mov    QWORD PTR [rsp+0x38],rax
9b54:	31 c0                	xor    eax,eax
9b56:	48 8b 05 13 67 20 00 	mov    rax,QWORD PTR [rip+0x206713]        # 210270 <default_quoting_options+0x30>
9b5d:	49 89 e0             	mov    r8,rsp
9b60:	83 e1 1f             	and    ecx,0x1f
9b63:	66 0f 6f 05 d5 66 20 	movdqa xmm0,XMMWORD PTR [rip+0x2066d5]        # 210240 <default_quoting_options>
9b6a:	00
9b6b:	48 89 44 24 30       	mov    QWORD PTR [rsp+0x30],rax
9b70:	89 d0                	mov    eax,edx
9b72:	0f 29 04 24          	movaps XMMWORD PTR [rsp],xmm0
9b76:	c0 e8 05             	shr    al,0x5
9b79:	0f b6 c0             	movzx  eax,al
9b7c:	4d 8d 4c 80 08       	lea    r9,[r8+rax*4+0x8]
9b81:	66 0f 6f 05 c7 66 20 	movdqa xmm0,XMMWORD PTR [rip+0x2066c7]        # 210250 <default_quoting_options+0x10>
9b88:	00
9b89:	0f 29 44 24 10       	movaps XMMWORD PTR [rsp+0x10],xmm0
9b8e:	66 0f 6f 05 ca 66 20 	movdqa xmm0,XMMWORD PTR [rip+0x2066ca]        # 210260 <default_quoting_options+0x20>
9b95:	00
9b96:	0f 29 44 24 20       	movaps XMMWORD PTR [rsp+0x20],xmm0
9b9b:	41 8b 11             	mov    edx,DWORD PTR [r9]
9b9e:	89 d0                	mov    eax,edx
9ba0:	d3 e8                	shr    eax,cl
9ba2:	f7 d0                	not    eax
9ba4:	83 e0 01             	and    eax,0x1
9ba7:	d3 e0                	shl    eax,cl
9ba9:	4c 89 c1             	mov    rcx,r8
9bac:	31 d0                	xor    eax,edx
9bae:	48 89 f2             	mov    rdx,rsi
9bb1:	48 89 fe             	mov    rsi,rdi
9bb4:	41 89 01             	mov    DWORD PTR [r9],eax
9bb7:	31 ff                	xor    edi,edi
9bb9:	e8 f2 f8 ff ff       	call   94b0 <quotearg_n_options>
9bbe:	48 8b 74 24 38       	mov    rsi,QWORD PTR [rsp+0x38]
9bc3:	64 48 33 34 25 28 00 	xor    rsi,QWORD PTR fs:0x28
9bca:	00 00
9bcc:	75 05                	jne    9bd3 <quotearg_char_mem+0x93>
9bce:	48 83 c4 48          	add    rsp,0x48
9bd2:	c3                   	ret
9bd3:	e8 38 80 ff ff       	call   1c10 <__stack_chk_fail@plt>
9bd8:	0f 1f 84 00 00 00 00 	nop    DWORD PTR [rax+rax*1+0x0]
9bdf:	00

0000000000009be0 <quotearg_char>:
9be0:	40 0f be d6          	movsx  edx,sil
9be4:	48 c7 c6 ff ff ff ff 	mov    rsi,0xffffffffffffffff
9beb:	e9 50 ff ff ff       	jmp    9b40 <quotearg_char_mem>

0000000000009bf0 <quotearg_colon>:
9bf0:	ba 3a 00 00 00       	mov    edx,0x3a
9bf5:	48 c7 c6 ff ff ff ff 	mov    rsi,0xffffffffffffffff
9bfc:	e9 3f ff ff ff       	jmp    9b40 <quotearg_char_mem>
9c01:	0f 1f 44 00 00       	nop    DWORD PTR [rax+rax*1+0x0]
9c06:	66 2e 0f 1f 84 00 00 	nop    WORD PTR cs:[rax+rax*1+0x0]
9c0d:	00 00 00

0000000000009c10 <quotearg_colon_mem>:
9c10:	ba 3a 00 00 00       	mov    edx,0x3a
9c15:	e9 26 ff ff ff       	jmp    9b40 <quotearg_char_mem>
9c1a:	66 0f 1f 44 00 00    	nop    WORD PTR [rax+rax*1+0x0]

0000000000009c20 <quotearg_n_style_colon>:
9c20:	48 83 ec 48          	sub    rsp,0x48
9c24:	48 89 d0             	mov    rax,rdx
9c27:	64 48 8b 14 25 28 00 	mov    rdx,QWORD PTR fs:0x28
9c2e:	00 00
9c30:	48 89 54 24 38       	mov    QWORD PTR [rsp+0x38],rdx
9c35:	31 d2                	xor    edx,edx
9c37:	83 fe 0a             	cmp    esi,0xa
9c3a:	74 68                	je     9ca4 <quotearg_n_style_colon+0x84>
9c3c:	89 34 24             	mov    DWORD PTR [rsp],esi
9c3f:	48 89 e1             	mov    rcx,rsp
9c42:	48 c7 c2 ff ff ff ff 	mov    rdx,0xffffffffffffffff
9c49:	48 89 c6             	mov    rsi,rax
9c4c:	48 c7 44 24 04 00 00 	mov    QWORD PTR [rsp+0x4],0x0
9c53:	00 00
9c55:	48 c7 44 24 0c 00 00 	mov    QWORD PTR [rsp+0xc],0x4000000
9c5c:	00 04
9c5e:	48 c7 44 24 14 00 00 	mov    QWORD PTR [rsp+0x14],0x0
9c65:	00 00
9c67:	48 c7 44 24 1c 00 00 	mov    QWORD PTR [rsp+0x1c],0x0
9c6e:	00 00
9c70:	48 c7 44 24 24 00 00 	mov    QWORD PTR [rsp+0x24],0x0
9c77:	00 00
9c79:	48 c7 44 24 2c 00 00 	mov    QWORD PTR [rsp+0x2c],0x0
9c80:	00 00
9c82:	c7 44 24 34 00 00 00 	mov    DWORD PTR [rsp+0x34],0x0
9c89:	00
9c8a:	e8 21 f8 ff ff       	call   94b0 <quotearg_n_options>
9c8f:	48 8b 4c 24 38       	mov    rcx,QWORD PTR [rsp+0x38]
9c94:	64 48 33 0c 25 28 00 	xor    rcx,QWORD PTR fs:0x28
9c9b:	00 00
9c9d:	75 0a                	jne    9ca9 <quotearg_n_style_colon+0x89>
9c9f:	48 83 c4 48          	add    rsp,0x48
9ca3:	c3                   	ret
9ca4:	e8 57 7e ff ff       	call   1b00 <abort@plt>
9ca9:	e8 62 7f ff ff       	call   1c10 <__stack_chk_fail@plt>
9cae:	66 90                	xchg   ax,ax

0000000000009cb0 <quotearg_n_custom_mem>:
9cb0:	48 83 ec 48          	sub    rsp,0x48
9cb4:	49 89 c9             	mov    r9,rcx
9cb7:	48 8b 0d b2 65 20 00 	mov    rcx,QWORD PTR [rip+0x2065b2]        # 210270 <default_quoting_options+0x30>
9cbe:	66 0f 6f 05 7a 65 20 	movdqa xmm0,XMMWORD PTR [rip+0x20657a]        # 210240 <default_quoting_options>
9cc5:	00
9cc6:	64 48 8b 04 25 28 00 	mov    rax,QWORD PTR fs:0x28
9ccd:	00 00
9ccf:	48 89 44 24 38       	mov    QWORD PTR [rsp+0x38],rax
9cd4:	31 c0                	xor    eax,eax
9cd6:	0f 29 04 24          	movaps XMMWORD PTR [rsp],xmm0
9cda:	48 85 f6             	test   rsi,rsi
9cdd:	48 89 4c 24 30       	mov    QWORD PTR [rsp+0x30],rcx
9ce2:	c7 04 24 0a 00 00 00 	mov    DWORD PTR [rsp],0xa
9ce9:	66 0f 6f 05 5f 65 20 	movdqa xmm0,XMMWORD PTR [rip+0x20655f]        # 210250 <default_quoting_options+0x10>
9cf0:	00
9cf1:	0f 29 44 24 10       	movaps XMMWORD PTR [rsp+0x10],xmm0
9cf6:	66 0f 6f 05 62 65 20 	movdqa xmm0,XMMWORD PTR [rip+0x206562]        # 210260 <default_quoting_options+0x20>
9cfd:	00
9cfe:	0f 29 44 24 20       	movaps XMMWORD PTR [rsp+0x20],xmm0
9d03:	74 32                	je     9d37 <quotearg_n_custom_mem+0x87>
9d05:	48 85 d2             	test   rdx,rdx
9d08:	74 2d                	je     9d37 <quotearg_n_custom_mem+0x87>
9d0a:	48 89 74 24 28       	mov    QWORD PTR [rsp+0x28],rsi
9d0f:	48 89 54 24 30       	mov    QWORD PTR [rsp+0x30],rdx
9d14:	48 89 e1             	mov    rcx,rsp
9d17:	4c 89 c2             	mov    rdx,r8
9d1a:	4c 89 ce             	mov    rsi,r9
9d1d:	e8 8e f7 ff ff       	call   94b0 <quotearg_n_options>
9d22:	48 8b 7c 24 38       	mov    rdi,QWORD PTR [rsp+0x38]
9d27:	64 48 33 3c 25 28 00 	xor    rdi,QWORD PTR fs:0x28
9d2e:	00 00
9d30:	75 0a                	jne    9d3c <quotearg_n_custom_mem+0x8c>
9d32:	48 83 c4 48          	add    rsp,0x48
9d36:	c3                   	ret
9d37:	e8 c4 7d ff ff       	call   1b00 <abort@plt>
9d3c:	e8 cf 7e ff ff       	call   1c10 <__stack_chk_fail@plt>
9d41:	0f 1f 44 00 00       	nop    DWORD PTR [rax+rax*1+0x0]
9d46:	66 2e 0f 1f 84 00 00 	nop    WORD PTR cs:[rax+rax*1+0x0]
9d4d:	00 00 00

0000000000009d50 <quotearg_n_custom>:
9d50:	49 c7 c0 ff ff ff ff 	mov    r8,0xffffffffffffffff
9d57:	e9 54 ff ff ff       	jmp    9cb0 <quotearg_n_custom_mem>
9d5c:	0f 1f 40 00          	nop    DWORD PTR [rax+0x0]

0000000000009d60 <quotearg_custom>:
9d60:	48 89 d1             	mov    rcx,rdx
9d63:	49 c7 c0 ff ff ff ff 	mov    r8,0xffffffffffffffff
9d6a:	48 89 f2             	mov    rdx,rsi
9d6d:	48 89 fe             	mov    rsi,rdi
9d70:	31 ff                	xor    edi,edi
9d72:	e9 39 ff ff ff       	jmp    9cb0 <quotearg_n_custom_mem>
9d77:	66 0f 1f 84 00 00 00 	nop    WORD PTR [rax+rax*1+0x0]
9d7e:	00 00

0000000000009d80 <quotearg_custom_mem>:
9d80:	49 89 c8             	mov    r8,rcx
9d83:	48 89 d1             	mov    rcx,rdx
9d86:	48 89 f2             	mov    rdx,rsi
9d89:	48 89 fe             	mov    rsi,rdi
9d8c:	31 ff                	xor    edi,edi
9d8e:	e9 1d ff ff ff       	jmp    9cb0 <quotearg_n_custom_mem>
9d93:	0f 1f 00             	nop    DWORD PTR [rax]
9d96:	66 2e 0f 1f 84 00 00 	nop    WORD PTR cs:[rax+rax*1+0x0]
9d9d:	00 00 00

0000000000009da0 <quote_n_mem>:
9da0:	48 8d 0d b9 62 20 00 	lea    rcx,[rip+0x2062b9]        # 210060 <quote_quoting_options>
9da7:	e9 04 f7 ff ff       	jmp    94b0 <quotearg_n_options>
9dac:	0f 1f 40 00          	nop    DWORD PTR [rax+0x0]

0000000000009db0 <quote_mem>:
9db0:	48 8d 0d a9 62 20 00 	lea    rcx,[rip+0x2062a9]        # 210060 <quote_quoting_options>
9db7:	48 89 f2             	mov    rdx,rsi
9dba:	48 89 fe             	mov    rsi,rdi
9dbd:	31 ff                	xor    edi,edi
9dbf:	e9 ec f6 ff ff       	jmp    94b0 <quotearg_n_options>
9dc4:	66 90                	xchg   ax,ax
9dc6:	66 2e 0f 1f 84 00 00 	nop    WORD PTR cs:[rax+rax*1+0x0]
9dcd:	00 00 00

0000000000009dd0 <quote_n>:
9dd0:	48 8d 0d 89 62 20 00 	lea    rcx,[rip+0x206289]        # 210060 <quote_quoting_options>
9dd7:	48 c7 c2 ff ff ff ff 	mov    rdx,0xffffffffffffffff
9dde:	e9 cd f6 ff ff       	jmp    94b0 <quotearg_n_options>
9de3:	0f 1f 00             	nop    DWORD PTR [rax]
9de6:	66 2e 0f 1f 84 00 00 	nop    WORD PTR cs:[rax+rax*1+0x0]
9ded:	00 00 00

0000000000009df0 <quote>:
9df0:	48 8d 0d 69 62 20 00 	lea    rcx,[rip+0x206269]        # 210060 <quote_quoting_options>
9df7:	48 89 fe             	mov    rsi,rdi
9dfa:	48 c7 c2 ff ff ff ff 	mov    rdx,0xffffffffffffffff
9e01:	31 ff                	xor    edi,edi
9e03:	e9 a8 f6 ff ff       	jmp    94b0 <quotearg_n_options>
9e08:	0f 1f 84 00 00 00 00 	nop    DWORD PTR [rax+rax*1+0x0]
9e0f:	00

0000000000009e10 <safe_read>:
9e10:	41 55                	push   r13
9e12:	41 54                	push   r12
9e14:	41 89 fd             	mov    r13d,edi
9e17:	55                   	push   rbp
9e18:	53                   	push   rbx
9e19:	49 89 f4             	mov    r12,rsi
9e1c:	48 89 d3             	mov    rbx,rdx
9e1f:	48 83 ec 08          	sub    rsp,0x8
9e23:	0f 1f 44 00 00       	nop    DWORD PTR [rax+rax*1+0x0]
9e28:	48 89 da             	mov    rdx,rbx
9e2b:	4c 89 e6             	mov    rsi,r12
9e2e:	44 89 ef             	mov    edi,r13d
9e31:	e8 ca 7e ff ff       	call   1d00 <read@plt>
9e36:	48 85 c0             	test   rax,rax
9e39:	48 89 c5             	mov    rbp,rax
9e3c:	79 22                	jns    9e60 <safe_read+0x50>
9e3e:	e8 cd 7c ff ff       	call   1b10 <__errno_location@plt>
9e43:	8b 00                	mov    eax,DWORD PTR [rax]
9e45:	83 f8 04             	cmp    eax,0x4
9e48:	74 de                	je     9e28 <safe_read+0x18>
9e4a:	48 81 fb 00 00 f0 7f 	cmp    rbx,0x7ff00000
9e51:	76 0d                	jbe    9e60 <safe_read+0x50>
9e53:	83 f8 16             	cmp    eax,0x16
9e56:	75 08                	jne    9e60 <safe_read+0x50>
9e58:	bb 00 00 f0 7f       	mov    ebx,0x7ff00000
9e5d:	eb c9                	jmp    9e28 <safe_read+0x18>
9e5f:	90                   	nop
9e60:	48 83 c4 08          	add    rsp,0x8
9e64:	48 89 e8             	mov    rax,rbp
9e67:	5b                   	pop    rbx
9e68:	5d                   	pop    rbp
9e69:	41 5c                	pop    r12
9e6b:	41 5d                	pop    r13
9e6d:	c3                   	ret
9e6e:	66 90                	xchg   ax,ax

0000000000009e70 <fd_safer>:
9e70:	41 55                	push   r13
9e72:	41 54                	push   r12
9e74:	55                   	push   rbp
9e75:	53                   	push   rbx
9e76:	89 fb                	mov    ebx,edi
9e78:	48 83 ec 08          	sub    rsp,0x8
9e7c:	83 ff 02             	cmp    edi,0x2
9e7f:	77 21                	ja     9ea2 <fd_safer+0x32>
9e81:	e8 aa 15 00 00       	call   b430 <dup_safer>
9e86:	41 89 c4             	mov    r12d,eax
9e89:	e8 82 7c ff ff       	call   1b10 <__errno_location@plt>
9e8e:	44 8b 28             	mov    r13d,DWORD PTR [rax]
9e91:	48 89 c5             	mov    rbp,rax
9e94:	89 df                	mov    edi,ebx
9e96:	e8 45 7e ff ff       	call   1ce0 <close@plt>
9e9b:	44 89 e3             	mov    ebx,r12d
9e9e:	44 89 6d 00          	mov    DWORD PTR [rbp+0x0],r13d
9ea2:	48 83 c4 08          	add    rsp,0x8
9ea6:	89 d8                	mov    eax,ebx
9ea8:	5b                   	pop    rbx
9ea9:	5d                   	pop    rbp
9eaa:	41 5c                	pop    r12
9eac:	41 5d                	pop    r13
9eae:	c3                   	ret
9eaf:	90                   	nop

0000000000009eb0 <version_etc_arn>:
9eb0:	41 57                	push   r15
9eb2:	41 56                	push   r14
9eb4:	41 55                	push   r13
9eb6:	41 54                	push   r12
9eb8:	4d 89 cc             	mov    r12,r9
9ebb:	55                   	push   rbp
9ebc:	53                   	push   rbx
9ebd:	48 89 fd             	mov    rbp,rdi
9ec0:	4c 89 c3             	mov    rbx,r8
9ec3:	48 83 ec 28          	sub    rsp,0x28
9ec7:	48 85 f6             	test   rsi,rsi
9eca:	0f 84 18 01 00 00    	je     9fe8 <version_etc_arn+0x138>
9ed0:	49 89 d0             	mov    r8,rdx
9ed3:	48 8d 15 ce 30 00 00 	lea    rdx,[rip+0x30ce]        # cfa8 <quoting_style_vals+0x28>
9eda:	49 89 c9             	mov    r9,rcx
9edd:	31 c0                	xor    eax,eax
9edf:	48 89 f1             	mov    rcx,rsi
9ee2:	be 01 00 00 00       	mov    esi,0x1
9ee7:	e8 f4 7f ff ff       	call   1ee0 <__fprintf_chk@plt>
9eec:	48 8d 35 c8 30 00 00 	lea    rsi,[rip+0x30c8]        # cfbb <quoting_style_vals+0x3b>
9ef3:	31 ff                	xor    edi,edi
9ef5:	ba 05 00 00 00       	mov    edx,0x5
9efa:	e8 d1 7c ff ff       	call   1bd0 <dcgettext@plt>
9eff:	48 8d 15 da 33 00 00 	lea    rdx,[rip+0x33da]        # d2e0 <version_etc_copyright>
9f06:	48 89 c1             	mov    rcx,rax
9f09:	41 b8 e3 07 00 00    	mov    r8d,0x7e3
9f0f:	be 01 00 00 00       	mov    esi,0x1
9f14:	48 89 ef             	mov    rdi,rbp
9f17:	31 c0                	xor    eax,eax
9f19:	e8 c2 7f ff ff       	call   1ee0 <__fprintf_chk@plt>
9f1e:	48 8d 35 23 31 00 00 	lea    rsi,[rip+0x3123]        # d048 <quoting_style_vals+0xc8>
9f25:	31 ff                	xor    edi,edi
9f27:	ba 05 00 00 00       	mov    edx,0x5
9f2c:	e8 9f 7c ff ff       	call   1bd0 <dcgettext@plt>
9f31:	48 89 ee             	mov    rsi,rbp
9f34:	48 89 c7             	mov    rdi,rax
9f37:	e8 e4 7d ff ff       	call   1d20 <fputs_unlocked@plt>
9f3c:	49 83 fc 09          	cmp    r12,0x9
9f40:	0f 87 3a 03 00 00    	ja     a280 <version_etc_arn+0x3d0>
9f46:	48 8d 15 57 33 00 00 	lea    rdx,[rip+0x3357]        # d2a4 <quoting_style_vals+0x324>
9f4d:	4a 63 04 a2          	movsxd rax,DWORD PTR [rdx+r12*4]
9f51:	48 01 d0             	add    rax,rdx
9f54:	ff e0                	jmp    rax
9f56:	66 2e 0f 1f 84 00 00 	nop    WORD PTR cs:[rax+rax*1+0x0]
9f5d:	00 00 00
9f60:	4c 8b 4b 38          	mov    r9,QWORD PTR [rbx+0x38]
9f64:	48 8b 43 10          	mov    rax,QWORD PTR [rbx+0x10]
9f68:	48 8d 35 49 32 00 00 	lea    rsi,[rip+0x3249]        # d1b8 <quoting_style_vals+0x238>
9f6f:	4c 8b 43 08          	mov    r8,QWORD PTR [rbx+0x8]
9f73:	ba 05 00 00 00       	mov    edx,0x5
9f78:	31 ff                	xor    edi,edi
9f7a:	4c 8b 6b 30          	mov    r13,QWORD PTR [rbx+0x30]
9f7e:	4c 8b 63 28          	mov    r12,QWORD PTR [rbx+0x28]
9f82:	4c 89 4c 24 10       	mov    QWORD PTR [rsp+0x10],r9
9f87:	4c 8b 7b 20          	mov    r15,QWORD PTR [rbx+0x20]
9f8b:	4c 8b 73 18          	mov    r14,QWORD PTR [rbx+0x18]
9f8f:	48 89 04 24          	mov    QWORD PTR [rsp],rax
9f93:	4c 89 44 24 08       	mov    QWORD PTR [rsp+0x8],r8
9f98:	48 8b 1b             	mov    rbx,QWORD PTR [rbx]
9f9b:	e8 30 7c ff ff       	call   1bd0 <dcgettext@plt>
9fa0:	48 83 ec 08          	sub    rsp,0x8
9fa4:	4c 8b 4c 24 18       	mov    r9,QWORD PTR [rsp+0x18]
9fa9:	48 89 c2             	mov    rdx,rax
9fac:	48 89 d9             	mov    rcx,rbx
9faf:	be 01 00 00 00       	mov    esi,0x1
9fb4:	48 89 ef             	mov    rdi,rbp
9fb7:	31 c0                	xor    eax,eax
9fb9:	41 51                	push   r9
9fbb:	41 55                	push   r13
9fbd:	41 54                	push   r12
9fbf:	41 57                	push   r15
9fc1:	41 56                	push   r14
9fc3:	4c 8b 4c 24 30       	mov    r9,QWORD PTR [rsp+0x30]
9fc8:	4c 8b 44 24 38       	mov    r8,QWORD PTR [rsp+0x38]
9fcd:	e8 0e 7f ff ff       	call   1ee0 <__fprintf_chk@plt>
9fd2:	48 83 c4 30          	add    rsp,0x30
9fd6:	48 83 c4 28          	add    rsp,0x28
9fda:	5b                   	pop    rbx
9fdb:	5d                   	pop    rbp
9fdc:	41 5c                	pop    r12
9fde:	41 5d                	pop    r13
9fe0:	41 5e                	pop    r14
9fe2:	41 5f                	pop    r15
9fe4:	c3                   	ret
9fe5:	0f 1f 00             	nop    DWORD PTR [rax]
9fe8:	49 89 c8             	mov    r8,rcx
9feb:	48 89 d1             	mov    rcx,rdx
9fee:	48 8d 15 bf 2f 00 00 	lea    rdx,[rip+0x2fbf]        # cfb4 <quoting_style_vals+0x34>
9ff5:	be 01 00 00 00       	mov    esi,0x1
9ffa:	31 c0                	xor    eax,eax
9ffc:	e8 df 7e ff ff       	call   1ee0 <__fprintf_chk@plt>
a001:	e9 e6 fe ff ff       	jmp    9eec <version_etc_arn+0x3c>
a006:	66 2e 0f 1f 84 00 00 	nop    WORD PTR cs:[rax+rax*1+0x0]
a00d:	00 00 00
a010:	4c 8b 53 40          	mov    r10,QWORD PTR [rbx+0x40]
a014:	4c 8b 4b 38          	mov    r9,QWORD PTR [rbx+0x38]
a018:	48 8d 35 c9 31 00 00 	lea    rsi,[rip+0x31c9]        # d1e8 <quoting_style_vals+0x268>
a01f:	48 8b 43 10          	mov    rax,QWORD PTR [rbx+0x10]
a023:	4c 8b 43 08          	mov    r8,QWORD PTR [rbx+0x8]
a027:	ba 05 00 00 00       	mov    edx,0x5
a02c:	4c 8b 6b 30          	mov    r13,QWORD PTR [rbx+0x30]
a030:	4c 8b 63 28          	mov    r12,QWORD PTR [rbx+0x28]
a034:	4c 8b 7b 20          	mov    r15,QWORD PTR [rbx+0x20]
a038:	4c 8b 73 18          	mov    r14,QWORD PTR [rbx+0x18]
a03c:	48 8b 1b             	mov    rbx,QWORD PTR [rbx]
a03f:	4c 89 54 24 18       	mov    QWORD PTR [rsp+0x18],r10
a044:	4c 89 4c 24 10       	mov    QWORD PTR [rsp+0x10],r9
a049:	48 89 04 24          	mov    QWORD PTR [rsp],rax
a04d:	4c 89 44 24 08       	mov    QWORD PTR [rsp+0x8],r8
a052:	31 ff                	xor    edi,edi
a054:	e8 77 7b ff ff       	call   1bd0 <dcgettext@plt>
a059:	4c 8b 54 24 18       	mov    r10,QWORD PTR [rsp+0x18]
a05e:	41 52                	push   r10
a060:	e9 3f ff ff ff       	jmp    9fa4 <version_etc_arn+0xf4>
a065:	0f 1f 00             	nop    DWORD PTR [rax]
a068:	48 8b 1b             	mov    rbx,QWORD PTR [rbx]
a06b:	48 8d 35 4d 2f 00 00 	lea    rsi,[rip+0x2f4d]        # cfbf <quoting_style_vals+0x3f>
a072:	ba 05 00 00 00       	mov    edx,0x5
a077:	31 ff                	xor    edi,edi
a079:	e8 52 7b ff ff       	call   1bd0 <dcgettext@plt>
a07e:	48 83 c4 28          	add    rsp,0x28
a082:	48 89 d9             	mov    rcx,rbx
a085:	48 89 ef             	mov    rdi,rbp
a088:	5b                   	pop    rbx
a089:	5d                   	pop    rbp
a08a:	41 5c                	pop    r12
a08c:	41 5d                	pop    r13
a08e:	41 5e                	pop    r14
a090:	41 5f                	pop    r15
a092:	48 89 c2             	mov    rdx,rax
a095:	be 01 00 00 00       	mov    esi,0x1
a09a:	31 c0                	xor    eax,eax
a09c:	e9 3f 7e ff ff       	jmp    1ee0 <__fprintf_chk@plt>
a0a1:	0f 1f 80 00 00 00 00 	nop    DWORD PTR [rax+0x0]
a0a8:	4c 8b 63 08          	mov    r12,QWORD PTR [rbx+0x8]
a0ac:	48 8d 35 1c 2f 00 00 	lea    rsi,[rip+0x2f1c]        # cfcf <quoting_style_vals+0x4f>
a0b3:	48 8b 1b             	mov    rbx,QWORD PTR [rbx]
a0b6:	ba 05 00 00 00       	mov    edx,0x5
a0bb:	31 ff                	xor    edi,edi
a0bd:	e8 0e 7b ff ff       	call   1bd0 <dcgettext@plt>
a0c2:	48 83 c4 28          	add    rsp,0x28
a0c6:	4d 89 e0             	mov    r8,r12
a0c9:	48 89 d9             	mov    rcx,rbx
a0cc:	48 89 ef             	mov    rdi,rbp
a0cf:	48 89 c2             	mov    rdx,rax
a0d2:	be 01 00 00 00       	mov    esi,0x1
a0d7:	5b                   	pop    rbx
a0d8:	5d                   	pop    rbp
a0d9:	41 5c                	pop    r12
a0db:	41 5d                	pop    r13
a0dd:	41 5e                	pop    r14
a0df:	41 5f                	pop    r15
a0e1:	31 c0                	xor    eax,eax
a0e3:	e9 f8 7d ff ff       	jmp    1ee0 <__fprintf_chk@plt>
a0e8:	0f 1f 84 00 00 00 00 	nop    DWORD PTR [rax+rax*1+0x0]
a0ef:	00
a0f0:	4c 8b 6b 10          	mov    r13,QWORD PTR [rbx+0x10]
a0f4:	4c 8b 63 08          	mov    r12,QWORD PTR [rbx+0x8]
a0f8:	48 8d 35 e7 2e 00 00 	lea    rsi,[rip+0x2ee7]        # cfe6 <quoting_style_vals+0x66>
a0ff:	48 8b 1b             	mov    rbx,QWORD PTR [rbx]
a102:	ba 05 00 00 00       	mov    edx,0x5
a107:	31 ff                	xor    edi,edi
a109:	e8 c2 7a ff ff       	call   1bd0 <dcgettext@plt>
a10e:	48 83 c4 28          	add    rsp,0x28
a112:	4d 89 e9             	mov    r9,r13
a115:	4d 89 e0             	mov    r8,r12
a118:	48 89 d9             	mov    rcx,rbx
a11b:	48 89 ef             	mov    rdi,rbp
a11e:	48 89 c2             	mov    rdx,rax
a121:	5b                   	pop    rbx
a122:	5d                   	pop    rbp
a123:	41 5c                	pop    r12
a125:	41 5d                	pop    r13
a127:	41 5e                	pop    r14
a129:	41 5f                	pop    r15
a12b:	be 01 00 00 00       	mov    esi,0x1
a130:	31 c0                	xor    eax,eax
a132:	e9 a9 7d ff ff       	jmp    1ee0 <__fprintf_chk@plt>
a137:	66 0f 1f 84 00 00 00 	nop    WORD PTR [rax+rax*1+0x0]
a13e:	00 00
a140:	48 8d 35 d1 2f 00 00 	lea    rsi,[rip+0x2fd1]        # d118 <quoting_style_vals+0x198>
a147:	ba 05 00 00 00       	mov    edx,0x5
a14c:	31 ff                	xor    edi,edi
a14e:	4c 8b 73 18          	mov    r14,QWORD PTR [rbx+0x18]
a152:	4c 8b 6b 10          	mov    r13,QWORD PTR [rbx+0x10]
a156:	4c 8b 63 08          	mov    r12,QWORD PTR [rbx+0x8]
a15a:	48 8b 1b             	mov    rbx,QWORD PTR [rbx]
a15d:	e8 6e 7a ff ff       	call   1bd0 <dcgettext@plt>
a162:	48 83 ec 08          	sub    rsp,0x8
a166:	41 56                	push   r14
a168:	48 89 c2             	mov    rdx,rax
a16b:	4d 89 e9             	mov    r9,r13
a16e:	4d 89 e0             	mov    r8,r12
a171:	48 89 d9             	mov    rcx,rbx
a174:	48 89 ef             	mov    rdi,rbp
a177:	be 01 00 00 00       	mov    esi,0x1
a17c:	31 c0                	xor    eax,eax
a17e:	e8 5d 7d ff ff       	call   1ee0 <__fprintf_chk@plt>
a183:	58                   	pop    rax
a184:	5a                   	pop    rdx
a185:	48 83 c4 28          	add    rsp,0x28
a189:	5b                   	pop    rbx
a18a:	5d                   	pop    rbp
a18b:	41 5c                	pop    r12
a18d:	41 5d                	pop    r13
a18f:	41 5e                	pop    r14
a191:	41 5f                	pop    r15
a193:	c3                   	ret
a194:	0f 1f 40 00          	nop    DWORD PTR [rax+0x0]
a198:	4c 8b 7b 20          	mov    r15,QWORD PTR [rbx+0x20]
a19c:	48 8d 35 95 2f 00 00 	lea    rsi,[rip+0x2f95]        # d138 <quoting_style_vals+0x1b8>
a1a3:	ba 05 00 00 00       	mov    edx,0x5
a1a8:	31 ff                	xor    edi,edi
a1aa:	4c 8b 73 18          	mov    r14,QWORD PTR [rbx+0x18]
a1ae:	4c 8b 6b 10          	mov    r13,QWORD PTR [rbx+0x10]
a1b2:	4c 8b 63 08          	mov    r12,QWORD PTR [rbx+0x8]
a1b6:	48 8b 1b             	mov    rbx,QWORD PTR [rbx]
a1b9:	e8 12 7a ff ff       	call   1bd0 <dcgettext@plt>
a1be:	41 57                	push   r15
a1c0:	eb a4                	jmp    a166 <version_etc_arn+0x2b6>
a1c2:	66 0f 1f 44 00 00    	nop    WORD PTR [rax+rax*1+0x0]
a1c8:	4c 8b 43 08          	mov    r8,QWORD PTR [rbx+0x8]
a1cc:	4c 8b 63 28          	mov    r12,QWORD PTR [rbx+0x28]
a1d0:	48 8d 35 89 2f 00 00 	lea    rsi,[rip+0x2f89]        # d160 <quoting_style_vals+0x1e0>
a1d7:	4c 8b 7b 20          	mov    r15,QWORD PTR [rbx+0x20]
a1db:	4c 8b 73 18          	mov    r14,QWORD PTR [rbx+0x18]
a1df:	ba 05 00 00 00       	mov    edx,0x5
a1e4:	4c 8b 6b 10          	mov    r13,QWORD PTR [rbx+0x10]
a1e8:	31 ff                	xor    edi,edi
a1ea:	48 8b 1b             	mov    rbx,QWORD PTR [rbx]
a1ed:	4c 89 04 24          	mov    QWORD PTR [rsp],r8
a1f1:	e8 da 79 ff ff       	call   1bd0 <dcgettext@plt>
a1f6:	48 83 ec 08          	sub    rsp,0x8
a1fa:	4d 89 e9             	mov    r9,r13
a1fd:	41 54                	push   r12
a1ff:	41 57                	push   r15
a201:	41 56                	push   r14
a203:	4c 8b 44 24 20       	mov    r8,QWORD PTR [rsp+0x20]
a208:	48 89 d9             	mov    rcx,rbx
a20b:	48 89 c2             	mov    rdx,rax
a20e:	48 89 ef             	mov    rdi,rbp
a211:	be 01 00 00 00       	mov    esi,0x1
a216:	31 c0                	xor    eax,eax
a218:	e8 c3 7c ff ff       	call   1ee0 <__fprintf_chk@plt>
a21d:	48 83 c4 20          	add    rsp,0x20
a221:	48 83 c4 28          	add    rsp,0x28
a225:	5b                   	pop    rbx
a226:	5d                   	pop    rbp
a227:	41 5c                	pop    r12
a229:	41 5d                	pop    r13
a22b:	41 5e                	pop    r14
a22d:	41 5f                	pop    r15
a22f:	c3                   	ret
a230:	4c 8b 4b 10          	mov    r9,QWORD PTR [rbx+0x10]
a234:	4c 8b 6b 30          	mov    r13,QWORD PTR [rbx+0x30]
a238:	48 8d 35 49 2f 00 00 	lea    rsi,[rip+0x2f49]        # d188 <quoting_style_vals+0x208>
a23f:	4c 8b 63 28          	mov    r12,QWORD PTR [rbx+0x28]
a243:	4c 8b 7b 20          	mov    r15,QWORD PTR [rbx+0x20]
a247:	ba 05 00 00 00       	mov    edx,0x5
a24c:	4c 8b 73 18          	mov    r14,QWORD PTR [rbx+0x18]
a250:	4c 8b 43 08          	mov    r8,QWORD PTR [rbx+0x8]
a254:	31 ff                	xor    edi,edi
a256:	4c 89 4c 24 08       	mov    QWORD PTR [rsp+0x8],r9
a25b:	48 8b 1b             	mov    rbx,QWORD PTR [rbx]
a25e:	4c 89 04 24          	mov    QWORD PTR [rsp],r8
a262:	e8 69 79 ff ff       	call   1bd0 <dcgettext@plt>
a267:	41 55                	push   r13
a269:	41 54                	push   r12
a26b:	41 57                	push   r15
a26d:	41 56                	push   r14
a26f:	4c 8b 4c 24 28       	mov    r9,QWORD PTR [rsp+0x28]
a274:	eb 8d                	jmp    a203 <version_etc_arn+0x353>
a276:	66 2e 0f 1f 84 00 00 	nop    WORD PTR cs:[rax+rax*1+0x0]
a27d:	00 00 00
a280:	4c 8b 53 40          	mov    r10,QWORD PTR [rbx+0x40]
a284:	4c 8b 4b 38          	mov    r9,QWORD PTR [rbx+0x38]
a288:	ba 05 00 00 00       	mov    edx,0x5
a28d:	48 8b 43 10          	mov    rax,QWORD PTR [rbx+0x10]
a291:	4c 8b 43 08          	mov    r8,QWORD PTR [rbx+0x8]
a295:	48 8d 35 84 2f 00 00 	lea    rsi,[rip+0x2f84]        # d220 <quoting_style_vals+0x2a0>
a29c:	4c 8b 6b 30          	mov    r13,QWORD PTR [rbx+0x30]
a2a0:	4c 8b 63 28          	mov    r12,QWORD PTR [rbx+0x28]
a2a4:	4c 8b 7b 20          	mov    r15,QWORD PTR [rbx+0x20]
a2a8:	4c 8b 73 18          	mov    r14,QWORD PTR [rbx+0x18]
a2ac:	4c 89 54 24 18       	mov    QWORD PTR [rsp+0x18],r10
a2b1:	4c 89 4c 24 10       	mov    QWORD PTR [rsp+0x10],r9
a2b6:	48 89 04 24          	mov    QWORD PTR [rsp],rax
a2ba:	4c 89 44 24 08       	mov    QWORD PTR [rsp+0x8],r8
a2bf:	48 8b 1b             	mov    rbx,QWORD PTR [rbx]
a2c2:	e9 8b fd ff ff       	jmp    a052 <version_etc_arn+0x1a2>
a2c7:	66 0f 1f 84 00 00 00 	nop    WORD PTR [rax+rax*1+0x0]
a2ce:	00 00

000000000000a2d0 <version_etc_ar>:
a2d0:	45 31 c9             	xor    r9d,r9d
a2d3:	49 83 38 00          	cmp    QWORD PTR [r8],0x0
a2d7:	74 12                	je     a2eb <version_etc_ar+0x1b>
a2d9:	0f 1f 80 00 00 00 00 	nop    DWORD PTR [rax+0x0]
a2e0:	49 83 c1 01          	add    r9,0x1
a2e4:	4b 83 3c c8 00       	cmp    QWORD PTR [r8+r9*8],0x0
a2e9:	75 f5                	jne    a2e0 <version_etc_ar+0x10>
a2eb:	e9 c0 fb ff ff       	jmp    9eb0 <version_etc_arn>

000000000000a2f0 <version_etc_va>:
a2f0:	48 83 ec 68          	sub    rsp,0x68
a2f4:	4d 89 c2             	mov    r10,r8
a2f7:	45 31 c9             	xor    r9d,r9d
a2fa:	64 48 8b 04 25 28 00 	mov    rax,QWORD PTR fs:0x28
a301:	00 00
a303:	48 89 44 24 58       	mov    QWORD PTR [rsp+0x58],rax
a308:	31 c0                	xor    eax,eax
a30a:	49 89 e0             	mov    r8,rsp
a30d:	0f 1f 00             	nop    DWORD PTR [rax]
a310:	41 8b 02             	mov    eax,DWORD PTR [r10]
a313:	83 f8 2f             	cmp    eax,0x2f
a316:	77 42                	ja     a35a <version_etc_va+0x6a>
a318:	41 89 c3             	mov    r11d,eax
a31b:	4d 03 5a 10          	add    r11,QWORD PTR [r10+0x10]
a31f:	83 c0 08             	add    eax,0x8
a322:	41 89 02             	mov    DWORD PTR [r10],eax
a325:	49 8b 03             	mov    rax,QWORD PTR [r11]
a328:	48 85 c0             	test   rax,rax
a32b:	4b 89 04 c8          	mov    QWORD PTR [r8+r9*8],rax
a32f:	74 0a                	je     a33b <version_etc_va+0x4b>
a331:	49 83 c1 01          	add    r9,0x1
a335:	49 83 f9 0a          	cmp    r9,0xa
a339:	75 d5                	jne    a310 <version_etc_va+0x20>
a33b:	e8 70 fb ff ff       	call   9eb0 <version_etc_arn>
a340:	48 8b 44 24 58       	mov    rax,QWORD PTR [rsp+0x58]
a345:	64 48 33 04 25 28 00 	xor    rax,QWORD PTR fs:0x28
a34c:	00 00
a34e:	75 05                	jne    a355 <version_etc_va+0x65>
a350:	48 83 c4 68          	add    rsp,0x68
a354:	c3                   	ret
a355:	e8 b6 78 ff ff       	call   1c10 <__stack_chk_fail@plt>
a35a:	4d 8b 5a 08          	mov    r11,QWORD PTR [r10+0x8]
a35e:	49 8d 43 08          	lea    rax,[r11+0x8]
a362:	49 89 42 08          	mov    QWORD PTR [r10+0x8],rax
a366:	eb bd                	jmp    a325 <version_etc_va+0x35>
a368:	0f 1f 84 00 00 00 00 	nop    DWORD PTR [rax+rax*1+0x0]
a36f:	00

000000000000a370 <version_etc>:
a370:	55                   	push   rbp
a371:	53                   	push   rbx
a372:	41 ba 20 00 00 00    	mov    r10d,0x20
a378:	45 31 db             	xor    r11d,r11d
a37b:	48 81 ec b8 00 00 00 	sub    rsp,0xb8
a382:	64 48 8b 04 25 28 00 	mov    rax,QWORD PTR fs:0x28
a389:	00 00
a38b:	48 89 44 24 78       	mov    QWORD PTR [rsp+0x78],rax
a390:	31 c0                	xor    eax,eax
a392:	48 8d 84 24 d0 00 00 	lea    rax,[rsp+0xd0]
a399:	00
a39a:	4c 89 84 24 a0 00 00 	mov    QWORD PTR [rsp+0xa0],r8
a3a1:	00
a3a2:	48 8d 9c 24 d0 00 00 	lea    rbx,[rsp+0xd0]
a3a9:	00
a3aa:	4c 8d 44 24 20       	lea    r8,[rsp+0x20]
a3af:	4c 89 8c 24 a8 00 00 	mov    QWORD PTR [rsp+0xa8],r9
a3b6:	00
a3b7:	c7 44 24 08 20 00 00 	mov    DWORD PTR [rsp+0x8],0x20
a3be:	00
a3bf:	48 89 44 24 10       	mov    QWORD PTR [rsp+0x10],rax
a3c4:	48 8d 84 24 80 00 00 	lea    rax,[rsp+0x80]
a3cb:	00
a3cc:	45 31 c9             	xor    r9d,r9d
a3cf:	48 89 44 24 18       	mov    QWORD PTR [rsp+0x18],rax
a3d4:	48 89 c5             	mov    rbp,rax
a3d7:	66 0f 1f 84 00 00 00 	nop    WORD PTR [rax+rax*1+0x0]
a3de:	00 00
a3e0:	41 83 fa 2f          	cmp    r10d,0x2f
a3e4:	77 56                	ja     a43c <version_etc+0xcc>
a3e6:	44 89 d0             	mov    eax,r10d
a3e9:	41 bb 01 00 00 00    	mov    r11d,0x1
a3ef:	41 83 c2 08          	add    r10d,0x8
a3f3:	48 01 e8             	add    rax,rbp
a3f6:	48 8b 00             	mov    rax,QWORD PTR [rax]
a3f9:	48 85 c0             	test   rax,rax
a3fc:	4b 89 04 c8          	mov    QWORD PTR [r8+r9*8],rax
a400:	74 0a                	je     a40c <version_etc+0x9c>
a402:	49 83 c1 01          	add    r9,0x1
a406:	49 83 f9 0a          	cmp    r9,0xa
a40a:	75 d4                	jne    a3e0 <version_etc+0x70>
a40c:	45 84 db             	test   r11b,r11b
a40f:	75 24                	jne    a435 <version_etc+0xc5>
a411:	e8 9a fa ff ff       	call   9eb0 <version_etc_arn>
a416:	48 8b 44 24 78       	mov    rax,QWORD PTR [rsp+0x78]
a41b:	64 48 33 04 25 28 00 	xor    rax,QWORD PTR fs:0x28
a422:	00 00
a424:	75 0a                	jne    a430 <version_etc+0xc0>
a426:	48 81 c4 b8 00 00 00 	add    rsp,0xb8
a42d:	5b                   	pop    rbx
a42e:	5d                   	pop    rbp
a42f:	c3                   	ret
a430:	e8 db 77 ff ff       	call   1c10 <__stack_chk_fail@plt>
a435:	44 89 54 24 08       	mov    DWORD PTR [rsp+0x8],r10d
a43a:	eb d5                	jmp    a411 <version_etc+0xa1>
a43c:	48 89 d8             	mov    rax,rbx
a43f:	48 83 c3 08          	add    rbx,0x8
a443:	eb b1                	jmp    a3f6 <version_etc+0x86>
a445:	90                   	nop
a446:	66 2e 0f 1f 84 00 00 	nop    WORD PTR cs:[rax+rax*1+0x0]
a44d:	00 00 00

000000000000a450 <emit_bug_reporting_address>:
a450:	53                   	push   rbx
a451:	48 8d 35 aa 2b 00 00 	lea    rsi,[rip+0x2baa]        # d002 <quoting_style_vals+0x82>
a458:	ba 05 00 00 00       	mov    edx,0x5
a45d:	31 ff                	xor    edi,edi
a45f:	e8 6c 77 ff ff       	call   1bd0 <dcgettext@plt>
a464:	48 8d 15 ac 2b 00 00 	lea    rdx,[rip+0x2bac]        # d017 <quoting_style_vals+0x97>
a46b:	48 89 c6             	mov    rsi,rax
a46e:	bf 01 00 00 00       	mov    edi,0x1
a473:	31 c0                	xor    eax,eax
a475:	e8 d6 79 ff ff       	call   1e50 <__printf_chk@plt>
a47a:	48 8d 35 ac 2b 00 00 	lea    rsi,[rip+0x2bac]        # d02d <quoting_style_vals+0xad>
a481:	ba 05 00 00 00       	mov    edx,0x5
a486:	31 ff                	xor    edi,edi
a488:	e8 43 77 ff ff       	call   1bd0 <dcgettext@plt>
a48d:	48 8d 0d 64 21 00 00 	lea    rcx,[rip+0x2164]        # c5f8 <_IO_stdin_used+0xff8>
a494:	48 8d 15 0c 13 00 00 	lea    rdx,[rip+0x130c]        # b7a7 <_IO_stdin_used+0x1a7>
a49b:	48 89 c6             	mov    rsi,rax
a49e:	bf 01 00 00 00       	mov    edi,0x1
a4a3:	31 c0                	xor    eax,eax
a4a5:	e8 a6 79 ff ff       	call   1e50 <__printf_chk@plt>
a4aa:	48 8b 1d 17 5c 20 00 	mov    rbx,QWORD PTR [rip+0x205c17]        # 2100c8 <stdout@@GLIBC_2.2.5>
a4b1:	48 8d 35 a8 2d 00 00 	lea    rsi,[rip+0x2da8]        # d260 <quoting_style_vals+0x2e0>
a4b8:	31 ff                	xor    edi,edi
a4ba:	ba 05 00 00 00       	mov    edx,0x5
a4bf:	e8 0c 77 ff ff       	call   1bd0 <dcgettext@plt>
a4c4:	48 89 de             	mov    rsi,rbx
a4c7:	48 89 c7             	mov    rdi,rax
a4ca:	5b                   	pop    rbx
a4cb:	e9 50 78 ff ff       	jmp    1d20 <fputs_unlocked@plt>

000000000000a4d0 <xmalloc>:
a4d0:	53                   	push   rbx
a4d1:	48 89 fb             	mov    rbx,rdi
a4d4:	e8 e7 78 ff ff       	call   1dc0 <malloc@plt>
a4d9:	48 85 c0             	test   rax,rax
a4dc:	75 05                	jne    a4e3 <xmalloc+0x13>
a4de:	48 85 db             	test   rbx,rbx
a4e1:	75 02                	jne    a4e5 <xmalloc+0x15>
a4e3:	5b                   	pop    rbx
a4e4:	c3                   	ret
a4e5:	e8 36 02 00 00       	call   a720 <xalloc_die>
a4ea:	66 0f 1f 44 00 00    	nop    WORD PTR [rax+rax*1+0x0]

000000000000a4f0 <xnmalloc>:
a4f0:	48 89 f8             	mov    rax,rdi
a4f3:	48 f7 e6             	mul    rsi
a4f6:	48 89 c7             	mov    rdi,rax
a4f9:	0f 90 c0             	seto   al
a4fc:	48 85 ff             	test   rdi,rdi
a4ff:	78 0a                	js     a50b <xnmalloc+0x1b>
a501:	0f b6 c0             	movzx  eax,al
a504:	48 85 c0             	test   rax,rax
a507:	75 02                	jne    a50b <xnmalloc+0x1b>
a509:	eb c5                	jmp    a4d0 <xmalloc>
a50b:	48 83 ec 08          	sub    rsp,0x8
a50f:	e8 0c 02 00 00       	call   a720 <xalloc_die>
a514:	66 90                	xchg   ax,ax
a516:	66 2e 0f 1f 84 00 00 	nop    WORD PTR cs:[rax+rax*1+0x0]
a51d:	00 00 00

000000000000a520 <xcharalloc>:
a520:	eb ae                	jmp    a4d0 <xmalloc>
a522:	0f 1f 40 00          	nop    DWORD PTR [rax+0x0]
a526:	66 2e 0f 1f 84 00 00 	nop    WORD PTR cs:[rax+rax*1+0x0]
a52d:	00 00 00

000000000000a530 <xrealloc>:
a530:	48 85 f6             	test   rsi,rsi
a533:	53                   	push   rbx
a534:	48 89 f3             	mov    rbx,rsi
a537:	75 05                	jne    a53e <xrealloc+0xe>
a539:	48 85 ff             	test   rdi,rdi
a53c:	75 1a                	jne    a558 <xrealloc+0x28>
a53e:	48 89 de             	mov    rsi,rbx
a541:	e8 ea 78 ff ff       	call   1e30 <realloc@plt>
a546:	48 85 c0             	test   rax,rax
a549:	75 05                	jne    a550 <xrealloc+0x20>
a54b:	48 85 db             	test   rbx,rbx
a54e:	75 11                	jne    a561 <xrealloc+0x31>
a550:	5b                   	pop    rbx
a551:	c3                   	ret
a552:	66 0f 1f 44 00 00    	nop    WORD PTR [rax+rax*1+0x0]
a558:	e8 93 75 ff ff       	call   1af0 <free@plt>
a55d:	31 c0                	xor    eax,eax
a55f:	5b                   	pop    rbx
a560:	c3                   	ret
a561:	e8 ba 01 00 00       	call   a720 <xalloc_die>
a566:	66 2e 0f 1f 84 00 00 	nop    WORD PTR cs:[rax+rax*1+0x0]
a56d:	00 00 00

000000000000a570 <xnrealloc>:
a570:	48 89 f0             	mov    rax,rsi
a573:	48 f7 e2             	mul    rdx
a576:	48 89 c6             	mov    rsi,rax
a579:	0f 90 c0             	seto   al
a57c:	48 85 f6             	test   rsi,rsi
a57f:	78 0a                	js     a58b <xnrealloc+0x1b>
a581:	0f b6 c0             	movzx  eax,al
a584:	48 85 c0             	test   rax,rax
a587:	75 02                	jne    a58b <xnrealloc+0x1b>
a589:	eb a5                	jmp    a530 <xrealloc>
a58b:	48 83 ec 08          	sub    rsp,0x8
a58f:	e8 8c 01 00 00       	call   a720 <xalloc_die>
a594:	66 90                	xchg   ax,ax
a596:	66 2e 0f 1f 84 00 00 	nop    WORD PTR cs:[rax+rax*1+0x0]
a59d:	00 00 00

000000000000a5a0 <x2nrealloc>:
a5a0:	48 85 ff             	test   rdi,rdi
a5a3:	49 89 d1             	mov    r9,rdx
a5a6:	48 8b 0e             	mov    rcx,QWORD PTR [rsi]
a5a9:	74 35                	je     a5e0 <x2nrealloc+0x40>
a5ab:	31 d2                	xor    edx,edx
a5ad:	48 b8 54 55 55 55 55 	movabs rax,0x5555555555555554
a5b4:	55 55 55
a5b7:	49 f7 f1             	div    r9
a5ba:	48 39 c8             	cmp    rax,rcx
a5bd:	76 3c                	jbe    a5fb <x2nrealloc+0x5b>
a5bf:	48 89 c8             	mov    rax,rcx
a5c2:	48 d1 e8             	shr    rax,1
a5c5:	48 8d 4c 08 01       	lea    rcx,[rax+rcx*1+0x1]
a5ca:	48 89 0e             	mov    QWORD PTR [rsi],rcx
a5cd:	49 0f af c9          	imul   rcx,r9
a5d1:	48 89 ce             	mov    rsi,rcx
a5d4:	e9 57 ff ff ff       	jmp    a530 <xrealloc>
a5d9:	0f 1f 80 00 00 00 00 	nop    DWORD PTR [rax+0x0]
a5e0:	48 85 c9             	test   rcx,rcx
a5e3:	74 23                	je     a608 <x2nrealloc+0x68>
a5e5:	48 89 c8             	mov    rax,rcx
a5e8:	49 f7 e1             	mul    r9
a5eb:	0f 90 c2             	seto   dl
a5ee:	48 85 c0             	test   rax,rax
a5f1:	0f b6 d2             	movzx  edx,dl
a5f4:	78 05                	js     a5fb <x2nrealloc+0x5b>
a5f6:	48 85 d2             	test   rdx,rdx
a5f9:	74 cf                	je     a5ca <x2nrealloc+0x2a>
a5fb:	48 83 ec 08          	sub    rsp,0x8
a5ff:	e8 1c 01 00 00       	call   a720 <xalloc_die>
a604:	0f 1f 40 00          	nop    DWORD PTR [rax+0x0]
a608:	31 d2                	xor    edx,edx
a60a:	b8 80 00 00 00       	mov    eax,0x80
a60f:	45 31 c0             	xor    r8d,r8d
a612:	49 f7 f1             	div    r9
a615:	48 85 c0             	test   rax,rax
a618:	41 0f 94 c0          	sete   r8b
a61c:	49 8d 0c 00          	lea    rcx,[r8+rax*1]
a620:	eb c3                	jmp    a5e5 <x2nrealloc+0x45>
a622:	0f 1f 40 00          	nop    DWORD PTR [rax+0x0]
a626:	66 2e 0f 1f 84 00 00 	nop    WORD PTR cs:[rax+rax*1+0x0]
a62d:	00 00 00

000000000000a630 <x2realloc>:
a630:	48 85 ff             	test   rdi,rdi
a633:	48 8b 06             	mov    rax,QWORD PTR [rsi]
a636:	74 28                	je     a660 <x2realloc+0x30>
a638:	48 ba 53 55 55 55 55 	movabs rdx,0x5555555555555553
a63f:	55 55 55
a642:	48 39 d0             	cmp    rax,rdx
a645:	77 2a                	ja     a671 <x2realloc+0x41>
a647:	48 89 c2             	mov    rdx,rax
a64a:	48 d1 ea             	shr    rdx,1
a64d:	48 8d 44 02 01       	lea    rax,[rdx+rax*1+0x1]
a652:	48 89 06             	mov    QWORD PTR [rsi],rax
a655:	48 89 c6             	mov    rsi,rax
a658:	e9 d3 fe ff ff       	jmp    a530 <xrealloc>
a65d:	0f 1f 00             	nop    DWORD PTR [rax]
a660:	48 85 c0             	test   rax,rax
a663:	ba 80 00 00 00       	mov    edx,0x80
a668:	48 0f 44 c2          	cmove  rax,rdx
a66c:	48 85 c0             	test   rax,rax
a66f:	79 e1                	jns    a652 <x2realloc+0x22>
a671:	48 83 ec 08          	sub    rsp,0x8
a675:	e8 a6 00 00 00       	call   a720 <xalloc_die>
a67a:	66 0f 1f 44 00 00    	nop    WORD PTR [rax+rax*1+0x0]

000000000000a680 <xzalloc>:
a680:	53                   	push   rbx
a681:	48 89 fb             	mov    rbx,rdi
a684:	e8 47 fe ff ff       	call   a4d0 <xmalloc>
a689:	48 89 da             	mov    rdx,rbx
a68c:	31 f6                	xor    esi,esi
a68e:	48 89 c7             	mov    rdi,rax
a691:	5b                   	pop    rbx
a692:	e9 39 76 ff ff       	jmp    1cd0 <memset@plt>
a697:	66 0f 1f 84 00 00 00 	nop    WORD PTR [rax+rax*1+0x0]
a69e:	00 00

000000000000a6a0 <xcalloc>:
a6a0:	48 89 f8             	mov    rax,rdi
a6a3:	48 83 ec 08          	sub    rsp,0x8
a6a7:	48 f7 e6             	mul    rsi
a6aa:	0f 90 c2             	seto   dl
a6ad:	48 85 c0             	test   rax,rax
a6b0:	78 17                	js     a6c9 <xcalloc+0x29>
a6b2:	0f b6 d2             	movzx  edx,dl
a6b5:	48 85 d2             	test   rdx,rdx
a6b8:	75 0f                	jne    a6c9 <xcalloc+0x29>
a6ba:	e8 71 76 ff ff       	call   1d30 <calloc@plt>
a6bf:	48 85 c0             	test   rax,rax
a6c2:	74 05                	je     a6c9 <xcalloc+0x29>
a6c4:	48 83 c4 08          	add    rsp,0x8
a6c8:	c3                   	ret
a6c9:	e8 52 00 00 00       	call   a720 <xalloc_die>
a6ce:	66 90                	xchg   ax,ax

000000000000a6d0 <xmemdup>:
a6d0:	55                   	push   rbp
a6d1:	53                   	push   rbx
a6d2:	48 89 fd             	mov    rbp,rdi
a6d5:	48 89 f7             	mov    rdi,rsi
a6d8:	48 89 f3             	mov    rbx,rsi
a6db:	48 83 ec 08          	sub    rsp,0x8
a6df:	e8 ec fd ff ff       	call   a4d0 <xmalloc>
a6e4:	48 83 c4 08          	add    rsp,0x8
a6e8:	48 89 da             	mov    rdx,rbx
a6eb:	48 89 ee             	mov    rsi,rbp
a6ee:	5b                   	pop    rbx
a6ef:	5d                   	pop    rbp
a6f0:	48 89 c7             	mov    rdi,rax
a6f3:	e9 68 76 ff ff       	jmp    1d60 <memcpy@plt>
a6f8:	0f 1f 84 00 00 00 00 	nop    DWORD PTR [rax+rax*1+0x0]
a6ff:	00

000000000000a700 <xstrdup>:
a700:	53                   	push   rbx
a701:	48 89 fb             	mov    rbx,rdi
a704:	e8 e7 74 ff ff       	call   1bf0 <strlen@plt>
a709:	48 89 df             	mov    rdi,rbx
a70c:	48 8d 70 01          	lea    rsi,[rax+0x1]
a710:	5b                   	pop    rbx
a711:	eb bd                	jmp    a6d0 <xmemdup>
a713:	66 2e 0f 1f 84 00 00 	nop    WORD PTR cs:[rax+rax*1+0x0]
a71a:	00 00 00
a71d:	0f 1f 00             	nop    DWORD PTR [rax]

000000000000a720 <xalloc_die>:
a720:	48 8d 35 e8 2b 00 00 	lea    rsi,[rip+0x2be8]        # d30f <version_etc_copyright+0x2f>
a727:	48 83 ec 08          	sub    rsp,0x8
a72b:	ba 05 00 00 00       	mov    edx,0x5
a730:	31 ff                	xor    edi,edi
a732:	e8 99 74 ff ff       	call   1bd0 <dcgettext@plt>
a737:	8b 3d 03 59 20 00    	mov    edi,DWORD PTR [rip+0x205903]        # 210040 <exit_failure>
a73d:	48 8d 15 88 22 00 00 	lea    rdx,[rip+0x2288]        # c9cc <follow_mode_map+0x74>
a744:	48 89 c1             	mov    rcx,rax
a747:	31 f6                	xor    esi,esi
a749:	31 c0                	xor    eax,eax
a74b:	e8 10 77 ff ff       	call   1e60 <error@plt>
a750:	e8 ab 73 ff ff       	call   1b00 <abort@plt>
a755:	66 2e 0f 1f 84 00 00 	nop    WORD PTR cs:[rax+rax*1+0x0]
a75c:	00 00 00
a75f:	90                   	nop

000000000000a760 <xnumtoumax>:
a760:	41 57                	push   r15
a762:	41 56                	push   r14
a764:	49 89 cf             	mov    r15,rcx
a767:	41 55                	push   r13
a769:	41 54                	push   r12
a76b:	49 89 d6             	mov    r14,rdx
a76e:	55                   	push   rbp
a76f:	53                   	push   rbx
a770:	89 f2                	mov    edx,esi
a772:	31 f6                	xor    esi,esi
a774:	49 89 fc             	mov    r12,rdi
a777:	4d 89 cd             	mov    r13,r9
a77a:	48 83 ec 18          	sub    rsp,0x18
a77e:	48 89 e1             	mov    rcx,rsp
a781:	8b 5c 24 50          	mov    ebx,DWORD PTR [rsp+0x50]
a785:	64 48 8b 04 25 28 00 	mov    rax,QWORD PTR fs:0x28
a78c:	00 00
a78e:	48 89 44 24 08       	mov    QWORD PTR [rsp+0x8],rax
a793:	31 c0                	xor    eax,eax
a795:	e8 46 02 00 00       	call   a9e0 <xstrtoumax>
a79a:	85 c0                	test   eax,eax
a79c:	0f 85 8e 00 00 00    	jne    a830 <xnumtoumax+0xd0>
a7a2:	48 8b 2c 24          	mov    rbp,QWORD PTR [rsp]
a7a6:	4c 39 f5             	cmp    rbp,r14
a7a9:	72 05                	jb     a7b0 <xnumtoumax+0x50>
a7ab:	4c 39 fd             	cmp    rbp,r15
a7ae:	76 54                	jbe    a804 <xnumtoumax+0xa4>
a7b0:	e8 5b 73 ff ff       	call   1b10 <__errno_location@plt>
a7b5:	48 81 fd 00 00 00 40 	cmp    rbp,0x40000000
a7bc:	49 89 c6             	mov    r14,rax
a7bf:	19 c0                	sbb    eax,eax
a7c1:	83 e0 d7             	and    eax,0xffffffd7
a7c4:	83 c0 4b             	add    eax,0x4b
a7c7:	41 89 06             	mov    DWORD PTR [r14],eax
a7ca:	4c 89 e7             	mov    rdi,r12
a7cd:	e8 1e f6 ff ff       	call   9df0 <quote>
a7d2:	41 8b 36             	mov    esi,DWORD PTR [r14]
a7d5:	49 89 c0             	mov    r8,rax
a7d8:	b8 00 00 00 00       	mov    eax,0x0
a7dd:	48 8d 15 1e 10 00 00 	lea    rdx,[rip+0x101e]        # b802 <_IO_stdin_used+0x202>
a7e4:	4c 89 e9             	mov    rcx,r13
a7e7:	83 fe 16             	cmp    esi,0x16
a7ea:	0f 44 f0             	cmove  esi,eax
a7ed:	85 db                	test   ebx,ebx
a7ef:	b8 01 00 00 00       	mov    eax,0x1
a7f4:	0f 44 d8             	cmove  ebx,eax
a7f7:	31 c0                	xor    eax,eax
a7f9:	89 df                	mov    edi,ebx
a7fb:	e8 60 76 ff ff       	call   1e60 <error@plt>
a800:	48 8b 2c 24          	mov    rbp,QWORD PTR [rsp]
a804:	48 8b 54 24 08       	mov    rdx,QWORD PTR [rsp+0x8]
a809:	64 48 33 14 25 28 00 	xor    rdx,QWORD PTR fs:0x28
a810:	00 00
a812:	48 89 e8             	mov    rax,rbp
a815:	75 44                	jne    a85b <xnumtoumax+0xfb>
a817:	48 83 c4 18          	add    rsp,0x18
a81b:	5b                   	pop    rbx
a81c:	5d                   	pop    rbp
a81d:	41 5c                	pop    r12
a81f:	41 5d                	pop    r13
a821:	41 5e                	pop    r14
a823:	41 5f                	pop    r15
a825:	c3                   	ret
a826:	66 2e 0f 1f 84 00 00 	nop    WORD PTR cs:[rax+rax*1+0x0]
a82d:	00 00 00
a830:	89 c5                	mov    ebp,eax
a832:	e8 d9 72 ff ff       	call   1b10 <__errno_location@plt>
a837:	83 fd 01             	cmp    ebp,0x1
a83a:	49 89 c6             	mov    r14,rax
a83d:	74 11                	je     a850 <xnumtoumax+0xf0>
a83f:	83 fd 03             	cmp    ebp,0x3
a842:	75 86                	jne    a7ca <xnumtoumax+0x6a>
a844:	c7 00 00 00 00 00    	mov    DWORD PTR [rax],0x0
a84a:	e9 7b ff ff ff       	jmp    a7ca <xnumtoumax+0x6a>
a84f:	90                   	nop
a850:	c7 00 4b 00 00 00    	mov    DWORD PTR [rax],0x4b
a856:	e9 6f ff ff ff       	jmp    a7ca <xnumtoumax+0x6a>
a85b:	e8 b0 73 ff ff       	call   1c10 <__stack_chk_fail@plt>

000000000000a860 <xdectoumax>:
a860:	48 83 ec 10          	sub    rsp,0x10
a864:	41 51                	push   r9
a866:	4d 89 c1             	mov    r9,r8
a869:	49 89 c8             	mov    r8,rcx
a86c:	48 89 d1             	mov    rcx,rdx
a86f:	48 89 f2             	mov    rdx,rsi
a872:	be 0a 00 00 00       	mov    esi,0xa
a877:	e8 e4 fe ff ff       	call   a760 <xnumtoumax>
a87c:	48 83 c4 18          	add    rsp,0x18
a880:	c3                   	ret
a881:	66 2e 0f 1f 84 00 00 	nop    WORD PTR cs:[rax+rax*1+0x0]
a888:	00 00 00
a88b:	0f 1f 44 00 00       	nop    DWORD PTR [rax+rax*1+0x0]

000000000000a890 <xnanosleep>:
a890:	55                   	push   rbp
a891:	53                   	push   rbx
a892:	48 83 ec 28          	sub    rsp,0x28
a896:	64 48 8b 04 25 28 00 	mov    rax,QWORD PTR fs:0x28
a89d:	00 00
a89f:	48 89 44 24 18       	mov    QWORD PTR [rsp+0x18],rax
a8a4:	31 c0                	xor    eax,eax
a8a6:	48 89 e5             	mov    rbp,rsp
a8a9:	e8 22 0a 00 00       	call   b2d0 <dtotimespec>
a8ae:	48 89 04 24          	mov    QWORD PTR [rsp],rax
a8b2:	48 89 54 24 08       	mov    QWORD PTR [rsp+0x8],rdx
a8b7:	e8 54 72 ff ff       	call   1b10 <__errno_location@plt>
a8bc:	48 89 c3             	mov    rbx,rax
a8bf:	eb 0f                	jmp    a8d0 <xnanosleep+0x40>
a8c1:	0f 1f 80 00 00 00 00 	nop    DWORD PTR [rax+0x0]
a8c8:	f7 03 fb ff ff ff    	test   DWORD PTR [rbx],0xfffffffb
a8ce:	75 30                	jne    a900 <xnanosleep+0x70>
a8d0:	31 f6                	xor    esi,esi
a8d2:	c7 03 00 00 00 00    	mov    DWORD PTR [rbx],0x0
a8d8:	48 89 ef             	mov    rdi,rbp
a8db:	e8 30 08 00 00       	call   b110 <rpl_nanosleep>
a8e0:	85 c0                	test   eax,eax
a8e2:	75 e4                	jne    a8c8 <xnanosleep+0x38>
a8e4:	48 8b 54 24 18       	mov    rdx,QWORD PTR [rsp+0x18]
a8e9:	64 48 33 14 25 28 00 	xor    rdx,QWORD PTR fs:0x28
a8f0:	00 00
a8f2:	75 13                	jne    a907 <xnanosleep+0x77>
a8f4:	48 83 c4 28          	add    rsp,0x28
a8f8:	5b                   	pop    rbx
a8f9:	5d                   	pop    rbp
a8fa:	c3                   	ret
a8fb:	0f 1f 44 00 00       	nop    DWORD PTR [rax+rax*1+0x0]
a900:	b8 ff ff ff ff       	mov    eax,0xffffffff
a905:	eb dd                	jmp    a8e4 <xnanosleep+0x54>
a907:	e8 04 73 ff ff       	call   1c10 <__stack_chk_fail@plt>
a90c:	0f 1f 40 00          	nop    DWORD PTR [rax+0x0]

000000000000a910 <xstrtod>:
a910:	41 56                	push   r14
a912:	41 55                	push   r13
a914:	49 89 ce             	mov    r14,rcx
a917:	41 54                	push   r12
a919:	55                   	push   rbp
a91a:	48 89 fd             	mov    rbp,rdi
a91d:	53                   	push   rbx
a91e:	49 89 d5             	mov    r13,rdx
a921:	48 89 f3             	mov    rbx,rsi
a924:	48 83 ec 10          	sub    rsp,0x10
a928:	64 48 8b 04 25 28 00 	mov    rax,QWORD PTR fs:0x28
a92f:	00 00
a931:	48 89 44 24 08       	mov    QWORD PTR [rsp+0x8],rax
a936:	31 c0                	xor    eax,eax
a938:	e8 d3 71 ff ff       	call   1b10 <__errno_location@plt>
a93d:	48 89 e6             	mov    rsi,rsp
a940:	49 89 c4             	mov    r12,rax
a943:	c7 00 00 00 00 00    	mov    DWORD PTR [rax],0x0
a949:	48 89 ef             	mov    rdi,rbp
a94c:	41 ff d6             	call   r14
a94f:	48 8b 0c 24          	mov    rcx,QWORD PTR [rsp]
a953:	48 39 e9             	cmp    rcx,rbp
a956:	74 70                	je     a9c8 <xstrtod+0xb8>
a958:	48 85 db             	test   rbx,rbx
a95b:	74 4b                	je     a9a8 <xstrtod+0x98>
a95d:	66 0f 2e 05 bb 29 00 	ucomisd xmm0,QWORD PTR [rip+0x29bb]        # d320 <version_etc_copyright+0x40>
a964:	00
a965:	7a 07                	jp     a96e <xstrtod+0x5e>
a967:	b8 01 00 00 00       	mov    eax,0x1
a96c:	74 0d                	je     a97b <xstrtod+0x6b>
a96e:	41 83 3c 24 22       	cmp    DWORD PTR [r12],0x22
a973:	0f 95 c0             	setne  al
a976:	48 85 db             	test   rbx,rbx
a979:	74 03                	je     a97e <xstrtod+0x6e>
a97b:	48 89 0b             	mov    QWORD PTR [rbx],rcx
a97e:	48 8b 54 24 08       	mov    rdx,QWORD PTR [rsp+0x8]
a983:	64 48 33 14 25 28 00 	xor    rdx,QWORD PTR fs:0x28
a98a:	00 00
a98c:	f2 41 0f 11 45 00    	movsd  QWORD PTR [r13+0x0],xmm0
a992:	75 38                	jne    a9cc <xstrtod+0xbc>
a994:	48 83 c4 10          	add    rsp,0x10
a998:	5b                   	pop    rbx
a999:	5d                   	pop    rbp
a99a:	41 5c                	pop    r12
a99c:	41 5d                	pop    r13
a99e:	41 5e                	pop    r14
a9a0:	c3                   	ret
a9a1:	0f 1f 80 00 00 00 00 	nop    DWORD PTR [rax+0x0]
a9a8:	31 c0                	xor    eax,eax
a9aa:	80 39 00             	cmp    BYTE PTR [rcx],0x0
a9ad:	75 cf                	jne    a97e <xstrtod+0x6e>
a9af:	66 0f 2e 05 69 29 00 	ucomisd xmm0,QWORD PTR [rip+0x2969]        # d320 <version_etc_copyright+0x40>
a9b6:	00
a9b7:	7a b5                	jp     a96e <xstrtod+0x5e>
a9b9:	75 b3                	jne    a96e <xstrtod+0x5e>
a9bb:	b8 01 00 00 00       	mov    eax,0x1
a9c0:	eb bc                	jmp    a97e <xstrtod+0x6e>
a9c2:	66 0f 1f 44 00 00    	nop    WORD PTR [rax+rax*1+0x0]
a9c8:	31 c0                	xor    eax,eax
a9ca:	eb aa                	jmp    a976 <xstrtod+0x66>
a9cc:	e8 3f 72 ff ff       	call   1c10 <__stack_chk_fail@plt>
a9d1:	66 2e 0f 1f 84 00 00 	nop    WORD PTR cs:[rax+rax*1+0x0]
a9d8:	00 00 00
a9db:	0f 1f 44 00 00       	nop    DWORD PTR [rax+rax*1+0x0]

000000000000a9e0 <xstrtoumax>:
a9e0:	41 57                	push   r15
a9e2:	41 56                	push   r14
a9e4:	41 55                	push   r13
a9e6:	41 54                	push   r12
a9e8:	55                   	push   rbp
a9e9:	53                   	push   rbx
a9ea:	48 83 ec 28          	sub    rsp,0x28
a9ee:	64 48 8b 04 25 28 00 	mov    rax,QWORD PTR fs:0x28
a9f5:	00 00
a9f7:	48 89 44 24 18       	mov    QWORD PTR [rsp+0x18],rax
a9fc:	31 c0                	xor    eax,eax
a9fe:	83 fa 24             	cmp    edx,0x24
aa01:	0f 87 5e 03 00 00    	ja     ad65 <xstrtoumax+0x385>
aa07:	48 8d 44 24 10       	lea    rax,[rsp+0x10]
aa0c:	49 89 f7             	mov    r15,rsi
aa0f:	48 85 f6             	test   rsi,rsi
aa12:	48 89 fd             	mov    rbp,rdi
aa15:	89 54 24 08          	mov    DWORD PTR [rsp+0x8],edx
aa19:	49 89 ce             	mov    r14,rcx
aa1c:	4d 89 c5             	mov    r13,r8
aa1f:	4c 0f 44 f8          	cmove  r15,rax
aa23:	e8 e8 70 ff ff       	call   1b10 <__errno_location@plt>
aa28:	c7 00 00 00 00 00    	mov    DWORD PTR [rax],0x0
aa2e:	49 89 c4             	mov    r12,rax
aa31:	0f b6 5d 00          	movzx  ebx,BYTE PTR [rbp+0x0]
aa35:	e8 f6 74 ff ff       	call   1f30 <__ctype_b_loc@plt>
aa3a:	8b 54 24 08          	mov    edx,DWORD PTR [rsp+0x8]
aa3e:	48 8b 30             	mov    rsi,QWORD PTR [rax]
aa41:	48 89 e8             	mov    rax,rbp
aa44:	eb 11                	jmp    aa57 <xstrtoumax+0x77>
aa46:	66 2e 0f 1f 84 00 00 	nop    WORD PTR cs:[rax+rax*1+0x0]
aa4d:	00 00 00
aa50:	48 83 c0 01          	add    rax,0x1
aa54:	0f b6 18             	movzx  ebx,BYTE PTR [rax]
aa57:	0f b6 cb             	movzx  ecx,bl
aa5a:	f6 44 4e 01 20       	test   BYTE PTR [rsi+rcx*2+0x1],0x20
aa5f:	75 ef                	jne    aa50 <xstrtoumax+0x70>
aa61:	80 fb 2d             	cmp    bl,0x2d
aa64:	74 52                	je     aab8 <xstrtoumax+0xd8>
aa66:	31 c9                	xor    ecx,ecx
aa68:	4c 89 fe             	mov    rsi,r15
aa6b:	48 89 ef             	mov    rdi,rbp
aa6e:	e8 4d 72 ff ff       	call   1cc0 <__strtoul_internal@plt>
aa73:	49 8b 0f             	mov    rcx,QWORD PTR [r15]
aa76:	48 89 c3             	mov    rbx,rax
aa79:	48 39 e9             	cmp    rcx,rbp
aa7c:	74 2a                	je     aaa8 <xstrtoumax+0xc8>
aa7e:	41 8b 04 24          	mov    eax,DWORD PTR [r12]
aa82:	85 c0                	test   eax,eax
aa84:	74 62                	je     aae8 <xstrtoumax+0x108>
aa86:	83 f8 22             	cmp    eax,0x22
aa89:	bd 01 00 00 00       	mov    ebp,0x1
aa8e:	75 28                	jne    aab8 <xstrtoumax+0xd8>
aa90:	4d 85 ed             	test   r13,r13
aa93:	74 09                	je     aa9e <xstrtoumax+0xbe>
aa95:	44 0f b6 21          	movzx  r12d,BYTE PTR [rcx]
aa99:	45 84 e4             	test   r12b,r12b
aa9c:	75 79                	jne    ab17 <xstrtoumax+0x137>
aa9e:	49 89 1e             	mov    QWORD PTR [r14],rbx
aaa1:	eb 1a                	jmp    aabd <xstrtoumax+0xdd>
aaa3:	0f 1f 44 00 00       	nop    DWORD PTR [rax+rax*1+0x0]
aaa8:	4d 85 ed             	test   r13,r13
aaab:	48 89 4c 24 08       	mov    QWORD PTR [rsp+0x8],rcx
aab0:	75 3e                	jne    aaf0 <xstrtoumax+0x110>
aab2:	66 0f 1f 44 00 00    	nop    WORD PTR [rax+rax*1+0x0]
aab8:	bd 04 00 00 00       	mov    ebp,0x4
aabd:	48 8b 7c 24 18       	mov    rdi,QWORD PTR [rsp+0x18]
aac2:	64 48 33 3c 25 28 00 	xor    rdi,QWORD PTR fs:0x28
aac9:	00 00
aacb:	89 e8                	mov    eax,ebp
aacd:	0f 85 8d 02 00 00    	jne    ad60 <xstrtoumax+0x380>
aad3:	48 83 c4 28          	add    rsp,0x28
aad7:	5b                   	pop    rbx
aad8:	5d                   	pop    rbp
aad9:	41 5c                	pop    r12
aadb:	41 5d                	pop    r13
aadd:	41 5e                	pop    r14
aadf:	41 5f                	pop    r15
aae1:	c3                   	ret
aae2:	66 0f 1f 44 00 00    	nop    WORD PTR [rax+rax*1+0x0]
aae8:	31 ed                	xor    ebp,ebp
aaea:	eb a4                	jmp    aa90 <xstrtoumax+0xb0>
aaec:	0f 1f 40 00          	nop    DWORD PTR [rax+0x0]
aaf0:	44 0f b6 65 00       	movzx  r12d,BYTE PTR [rbp+0x0]
aaf5:	45 84 e4             	test   r12b,r12b
aaf8:	74 be                	je     aab8 <xstrtoumax+0xd8>
aafa:	41 0f be f4          	movsx  esi,r12b
aafe:	4c 89 ef             	mov    rdi,r13
ab01:	31 ed                	xor    ebp,ebp
ab03:	e8 38 71 ff ff       	call   1c40 <strchr@plt>
ab08:	48 85 c0             	test   rax,rax
ab0b:	bb 01 00 00 00       	mov    ebx,0x1
ab10:	48 8b 4c 24 08       	mov    rcx,QWORD PTR [rsp+0x8]
ab15:	74 a1                	je     aab8 <xstrtoumax+0xd8>
ab17:	41 0f be f4          	movsx  esi,r12b
ab1b:	4c 89 ef             	mov    rdi,r13
ab1e:	48 89 4c 24 08       	mov    QWORD PTR [rsp+0x8],rcx
ab23:	e8 18 71 ff ff       	call   1c40 <strchr@plt>
ab28:	48 85 c0             	test   rax,rax
ab2b:	48 8b 4c 24 08       	mov    rcx,QWORD PTR [rsp+0x8]
ab30:	0f 84 c6 00 00 00    	je     abfc <xstrtoumax+0x21c>
ab36:	41 8d 44 24 bb       	lea    eax,[r12-0x45]
ab3b:	3c 2f                	cmp    al,0x2f
ab3d:	77 51                	ja     ab90 <xstrtoumax+0x1b0>
ab3f:	48 ba 45 89 30 00 44 	movabs rdx,0x814400308945
ab46:	81 00 00
ab49:	48 0f a3 c2          	bt     rdx,rax
ab4d:	73 41                	jae    ab90 <xstrtoumax+0x1b0>
ab4f:	be 30 00 00 00       	mov    esi,0x30
ab54:	4c 89 ef             	mov    rdi,r13
ab57:	48 89 4c 24 08       	mov    QWORD PTR [rsp+0x8],rcx
ab5c:	e8 df 70 ff ff       	call   1c40 <strchr@plt>
ab61:	48 85 c0             	test   rax,rax
ab64:	48 8b 4c 24 08       	mov    rcx,QWORD PTR [rsp+0x8]
ab69:	74 25                	je     ab90 <xstrtoumax+0x1b0>
ab6b:	0f b6 41 01          	movzx  eax,BYTE PTR [rcx+0x1]
ab6f:	3c 44                	cmp    al,0x44
ab71:	74 0c                	je     ab7f <xstrtoumax+0x19f>
ab73:	3c 69                	cmp    al,0x69
ab75:	0f 84 cd 01 00 00    	je     ad48 <xstrtoumax+0x368>
ab7b:	3c 42                	cmp    al,0x42
ab7d:	75 11                	jne    ab90 <xstrtoumax+0x1b0>
ab7f:	bf 02 00 00 00       	mov    edi,0x2
ab84:	be e8 03 00 00       	mov    esi,0x3e8
ab89:	eb 0f                	jmp    ab9a <xstrtoumax+0x1ba>
ab8b:	0f 1f 44 00 00       	nop    DWORD PTR [rax+rax*1+0x0]
ab90:	bf 01 00 00 00       	mov    edi,0x1
ab95:	be 00 04 00 00       	mov    esi,0x400
ab9a:	41 83 ec 42          	sub    r12d,0x42
ab9e:	41 80 fc 35          	cmp    r12b,0x35
aba2:	77 58                	ja     abfc <xstrtoumax+0x21c>
aba4:	48 8d 15 c5 27 00 00 	lea    rdx,[rip+0x27c5]        # d370 <version_etc_copyright+0x90>
abab:	45 0f b6 e4          	movzx  r12d,r12b
abaf:	4a 63 04 a2          	movsxd rax,DWORD PTR [rdx+r12*4]
abb3:	48 01 d0             	add    rax,rdx
abb6:	ff e0                	jmp    rax
abb8:	48 89 d8             	mov    rax,rbx
abbb:	48 f7 e6             	mul    rsi
abbe:	0f 80 ed 01 00 00    	jo     adb1 <xstrtoumax+0x3d1>
abc4:	45 31 c0             	xor    r8d,r8d
abc7:	48 f7 e6             	mul    rsi
abca:	0f 80 d2 01 00 00    	jo     ada2 <xstrtoumax+0x3c2>
abd0:	48 89 c3             	mov    rbx,rax
abd3:	44 09 c5             	or     ebp,r8d
abd6:	66 2e 0f 1f 84 00 00 	nop    WORD PTR cs:[rax+rax*1+0x0]
abdd:	00 00 00
abe0:	48 63 ff             	movsxd rdi,edi
abe3:	89 e8                	mov    eax,ebp
abe5:	48 01 f9             	add    rcx,rdi
abe8:	83 c8 02             	or     eax,0x2
abeb:	49 89 0f             	mov    QWORD PTR [r15],rcx
abee:	80 39 00             	cmp    BYTE PTR [rcx],0x0
abf1:	49 89 1e             	mov    QWORD PTR [r14],rbx
abf4:	0f 45 e8             	cmovne ebp,eax
abf7:	e9 c1 fe ff ff       	jmp    aabd <xstrtoumax+0xdd>
abfc:	49 89 1e             	mov    QWORD PTR [r14],rbx
abff:	83 cd 02             	or     ebp,0x2
ac02:	e9 b6 fe ff ff       	jmp    aabd <xstrtoumax+0xdd>
ac07:	ba 02 00 00 00       	mov    edx,0x2
ac0c:	48 89 d0             	mov    rax,rdx
ac0f:	48 f7 e3             	mul    rbx
ac12:	0f 80 96 00 00 00    	jo     acae <xstrtoumax+0x2ce>
ac18:	48 01 db             	add    rbx,rbx
ac1b:	eb c3                	jmp    abe0 <xstrtoumax+0x200>
ac1d:	ba 00 02 00 00       	mov    edx,0x200
ac22:	48 89 d0             	mov    rax,rdx
ac25:	48 f7 e3             	mul    rbx
ac28:	0f 80 80 00 00 00    	jo     acae <xstrtoumax+0x2ce>
ac2e:	48 c1 e3 09          	shl    rbx,0x9
ac32:	eb ac                	jmp    abe0 <xstrtoumax+0x200>
ac34:	41 b8 07 00 00 00    	mov    r8d,0x7
ac3a:	45 31 c9             	xor    r9d,r9d
ac3d:	0f 1f 00             	nop    DWORD PTR [rax]
ac40:	48 89 d8             	mov    rax,rbx
ac43:	48 f7 e6             	mul    rsi
ac46:	48 89 c3             	mov    rbx,rax
ac49:	0f 80 8f 01 00 00    	jo     adde <xstrtoumax+0x3fe>
ac4f:	41 83 e8 01          	sub    r8d,0x1
ac53:	75 eb                	jne    ac40 <xstrtoumax+0x260>
ac55:	44 09 cd             	or     ebp,r9d
ac58:	eb 86                	jmp    abe0 <xstrtoumax+0x200>
ac5a:	41 b8 08 00 00 00    	mov    r8d,0x8
ac60:	45 31 c9             	xor    r9d,r9d
ac63:	0f 1f 44 00 00       	nop    DWORD PTR [rax+rax*1+0x0]
ac68:	48 89 d8             	mov    rax,rbx
ac6b:	48 f7 e6             	mul    rsi
ac6e:	48 89 c3             	mov    rbx,rax
ac71:	0f 80 49 01 00 00    	jo     adc0 <xstrtoumax+0x3e0>
ac77:	41 83 e8 01          	sub    r8d,0x1
ac7b:	75 eb                	jne    ac68 <xstrtoumax+0x288>
ac7d:	eb d6                	jmp    ac55 <xstrtoumax+0x275>
ac7f:	41 b8 04 00 00 00    	mov    r8d,0x4
ac85:	45 31 c9             	xor    r9d,r9d
ac88:	48 89 d8             	mov    rax,rbx
ac8b:	48 f7 e6             	mul    rsi
ac8e:	48 89 c3             	mov    rbx,rax
ac91:	0f 80 fc 00 00 00    	jo     ad93 <xstrtoumax+0x3b3>
ac97:	41 83 e8 01          	sub    r8d,0x1
ac9b:	75 eb                	jne    ac88 <xstrtoumax+0x2a8>
ac9d:	eb b6                	jmp    ac55 <xstrtoumax+0x275>
ac9f:	48 89 d8             	mov    rax,rbx
aca2:	48 f7 e6             	mul    rsi
aca5:	48 89 c3             	mov    rbx,rax
aca8:	0f 81 32 ff ff ff    	jno    abe0 <xstrtoumax+0x200>
acae:	bd 01 00 00 00       	mov    ebp,0x1
acb3:	48 83 cb ff          	or     rbx,0xffffffffffffffff
acb7:	e9 24 ff ff ff       	jmp    abe0 <xstrtoumax+0x200>
acbc:	0f 1f 40 00          	nop    DWORD PTR [rax+0x0]
acc0:	41 b8 05 00 00 00    	mov    r8d,0x5
acc6:	45 31 c9             	xor    r9d,r9d
acc9:	48 89 d8             	mov    rax,rbx
accc:	48 f7 e6             	mul    rsi
accf:	48 89 c3             	mov    rbx,rax
acd2:	0f 80 f7 00 00 00    	jo     adcf <xstrtoumax+0x3ef>
acd8:	41 83 e8 01          	sub    r8d,0x1
acdc:	75 eb                	jne    acc9 <xstrtoumax+0x2e9>
acde:	e9 72 ff ff ff       	jmp    ac55 <xstrtoumax+0x275>
ace3:	41 b8 06 00 00 00    	mov    r8d,0x6
ace9:	45 31 c9             	xor    r9d,r9d
acec:	48 89 d8             	mov    rax,rbx
acef:	48 f7 e6             	mul    rsi
acf2:	48 89 c3             	mov    rbx,rax
acf5:	0f 80 89 00 00 00    	jo     ad84 <xstrtoumax+0x3a4>
acfb:	41 83 e8 01          	sub    r8d,0x1
acff:	75 eb                	jne    acec <xstrtoumax+0x30c>
ad01:	e9 4f ff ff ff       	jmp    ac55 <xstrtoumax+0x275>
ad06:	ba 00 04 00 00       	mov    edx,0x400
ad0b:	48 89 d0             	mov    rax,rdx
ad0e:	48 f7 e3             	mul    rbx
ad11:	70 9b                	jo     acae <xstrtoumax+0x2ce>
ad13:	48 c1 e3 0a          	shl    rbx,0xa
ad17:	e9 c4 fe ff ff       	jmp    abe0 <xstrtoumax+0x200>
ad1c:	48 89 d8             	mov    rax,rbx
ad1f:	48 f7 e6             	mul    rsi
ad22:	0f 80 c5 00 00 00    	jo     aded <xstrtoumax+0x40d>
ad28:	45 31 c0             	xor    r8d,r8d
ad2b:	48 f7 e6             	mul    rsi
ad2e:	0f 81 93 fe ff ff    	jno    abc7 <xstrtoumax+0x1e7>
ad34:	41 b8 01 00 00 00    	mov    r8d,0x1
ad3a:	48 83 c8 ff          	or     rax,0xffffffffffffffff
ad3e:	e9 84 fe ff ff       	jmp    abc7 <xstrtoumax+0x1e7>
ad43:	0f 1f 44 00 00       	nop    DWORD PTR [rax+rax*1+0x0]
ad48:	31 ff                	xor    edi,edi
ad4a:	80 79 02 42          	cmp    BYTE PTR [rcx+0x2],0x42
ad4e:	be 00 04 00 00       	mov    esi,0x400
ad53:	40 0f 94 c7          	sete   dil
ad57:	8d 7c 3f 01          	lea    edi,[rdi+rdi*1+0x1]
ad5b:	e9 3a fe ff ff       	jmp    ab9a <xstrtoumax+0x1ba>
ad60:	e8 ab 6e ff ff       	call   1c10 <__stack_chk_fail@plt>
ad65:	48 8d 0d dc 26 00 00 	lea    rcx,[rip+0x26dc]        # d448 <__PRETTY_FUNCTION__.4162>
ad6c:	48 8d 35 b5 25 00 00 	lea    rsi,[rip+0x25b5]        # d328 <version_etc_copyright+0x48>
ad73:	48 8d 3d ce 25 00 00 	lea    rdi,[rip+0x25ce]        # d348 <version_etc_copyright+0x68>
ad7a:	ba 54 00 00 00       	mov    edx,0x54
ad7f:	e8 2c 6f ff ff       	call   1cb0 <__assert_fail@plt>
ad84:	41 b9 01 00 00 00    	mov    r9d,0x1
ad8a:	48 83 cb ff          	or     rbx,0xffffffffffffffff
ad8e:	e9 68 ff ff ff       	jmp    acfb <xstrtoumax+0x31b>
ad93:	41 b9 01 00 00 00    	mov    r9d,0x1
ad99:	48 83 cb ff          	or     rbx,0xffffffffffffffff
ad9d:	e9 f5 fe ff ff       	jmp    ac97 <xstrtoumax+0x2b7>
ada2:	41 b8 01 00 00 00    	mov    r8d,0x1
ada8:	48 83 cb ff          	or     rbx,0xffffffffffffffff
adac:	e9 22 fe ff ff       	jmp    abd3 <xstrtoumax+0x1f3>
adb1:	48 83 c8 ff          	or     rax,0xffffffffffffffff
adb5:	41 b8 01 00 00 00    	mov    r8d,0x1
adbb:	e9 07 fe ff ff       	jmp    abc7 <xstrtoumax+0x1e7>
adc0:	41 b9 01 00 00 00    	mov    r9d,0x1
adc6:	48 83 cb ff          	or     rbx,0xffffffffffffffff
adca:	e9 a8 fe ff ff       	jmp    ac77 <xstrtoumax+0x297>
adcf:	41 b9 01 00 00 00    	mov    r9d,0x1
add5:	48 83 cb ff          	or     rbx,0xffffffffffffffff
add9:	e9 fa fe ff ff       	jmp    acd8 <xstrtoumax+0x2f8>
adde:	41 b9 01 00 00 00    	mov    r9d,0x1
ade4:	48 83 cb ff          	or     rbx,0xffffffffffffffff
ade8:	e9 62 fe ff ff       	jmp    ac4f <xstrtoumax+0x26f>
aded:	41 b8 01 00 00 00    	mov    r8d,0x1
adf3:	48 83 c8 ff          	or     rax,0xffffffffffffffff
adf7:	e9 2f ff ff ff       	jmp    ad2b <xstrtoumax+0x34b>
adfc:	0f 1f 40 00          	nop    DWORD PTR [rax+0x0]

000000000000ae00 <rpl_fcntl>:
ae00:	41 54                	push   r12
ae02:	55                   	push   rbp
ae03:	89 fd                	mov    ebp,edi
ae05:	53                   	push   rbx
ae06:	48 83 ec 50          	sub    rsp,0x50
ae0a:	64 48 8b 04 25 28 00 	mov    rax,QWORD PTR fs:0x28
ae11:	00 00
ae13:	48 89 44 24 18       	mov    QWORD PTR [rsp+0x18],rax
ae18:	31 c0                	xor    eax,eax
ae1a:	48 8d 44 24 70       	lea    rax,[rsp+0x70]
ae1f:	85 f6                	test   esi,esi
ae21:	48 89 54 24 30       	mov    QWORD PTR [rsp+0x30],rdx
ae26:	48 89 4c 24 38       	mov    QWORD PTR [rsp+0x38],rcx
ae2b:	4c 89 44 24 40       	mov    QWORD PTR [rsp+0x40],r8
ae30:	48 89 44 24 08       	mov    QWORD PTR [rsp+0x8],rax
ae35:	48 8d 44 24 20       	lea    rax,[rsp+0x20]
ae3a:	4c 89 4c 24 48       	mov    QWORD PTR [rsp+0x48],r9
ae3f:	c7 04 24 10 00 00 00 	mov    DWORD PTR [rsp],0x10
ae46:	48 89 44 24 10       	mov    QWORD PTR [rsp+0x10],rax
ae4b:	0f 84 01 02 00 00    	je     b052 <rpl_fcntl+0x252>
ae51:	81 fe 06 04 00 00    	cmp    esi,0x406
ae57:	75 47                	jne    aea0 <rpl_fcntl+0xa0>
ae59:	48 8b 44 24 10       	mov    rax,QWORD PTR [rsp+0x10]
ae5e:	83 3d 13 54 20 00 00 	cmp    DWORD PTR [rip+0x205413],0x0        # 210278 <have_dupfd_cloexec.3326>
ae65:	c7 04 24 18 00 00 00 	mov    DWORD PTR [rsp],0x18
ae6c:	44 8b 60 10          	mov    r12d,DWORD PTR [rax+0x10]
ae70:	44 89 e2             	mov    edx,r12d
ae73:	0f 88 2a 01 00 00    	js     afa3 <rpl_fcntl+0x1a3>
ae79:	31 c0                	xor    eax,eax
ae7b:	be 06 04 00 00       	mov    esi,0x406
ae80:	e8 eb 6c ff ff       	call   1b70 <fcntl@plt>
ae85:	85 c0                	test   eax,eax
ae87:	89 c3                	mov    ebx,eax
ae89:	0f 88 89 01 00 00    	js     b018 <rpl_fcntl+0x218>
ae8f:	c7 05 df 53 20 00 01 	mov    DWORD PTR [rip+0x2053df],0x1        # 210278 <have_dupfd_cloexec.3326>
ae96:	00 00 00
ae99:	eb 45                	jmp    aee0 <rpl_fcntl+0xe0>
ae9b:	0f 1f 44 00 00       	nop    DWORD PTR [rax+rax*1+0x0]
aea0:	83 fe 0b             	cmp    esi,0xb
aea3:	74 2b                	je     aed0 <rpl_fcntl+0xd0>
aea5:	7f 59                	jg     af00 <rpl_fcntl+0x100>
aea7:	83 fe 04             	cmp    esi,0x4
aeaa:	0f 84 d0 00 00 00    	je     af80 <rpl_fcntl+0x180>
aeb0:	0f 8f ba 00 00 00    	jg     af70 <rpl_fcntl+0x170>
aeb6:	83 fe 02             	cmp    esi,0x2
aeb9:	0f 84 c1 00 00 00    	je     af80 <rpl_fcntl+0x180>
aebf:	7f 0f                	jg     aed0 <rpl_fcntl+0xd0>
aec1:	83 fe 01             	cmp    esi,0x1
aec4:	75 62                	jne    af28 <rpl_fcntl+0x128>
aec6:	66 2e 0f 1f 84 00 00 	nop    WORD PTR cs:[rax+rax*1+0x0]
aecd:	00 00 00
aed0:	89 ef                	mov    edi,ebp
aed2:	31 c0                	xor    eax,eax
aed4:	e8 97 6c ff ff       	call   1b70 <fcntl@plt>
aed9:	89 c3                	mov    ebx,eax
aedb:	0f 1f 44 00 00       	nop    DWORD PTR [rax+rax*1+0x0]
aee0:	48 8b 4c 24 18       	mov    rcx,QWORD PTR [rsp+0x18]
aee5:	64 48 33 0c 25 28 00 	xor    rcx,QWORD PTR fs:0x28
aeec:	00 00
aeee:	89 d8                	mov    eax,ebx
aef0:	0f 85 57 01 00 00    	jne    b04d <rpl_fcntl+0x24d>
aef6:	48 83 c4 50          	add    rsp,0x50
aefa:	5b                   	pop    rbx
aefb:	5d                   	pop    rbp
aefc:	41 5c                	pop    r12
aefe:	c3                   	ret
aeff:	90                   	nop
af00:	81 fe 07 04 00 00    	cmp    esi,0x407
af06:	7f 48                	jg     af50 <rpl_fcntl+0x150>
af08:	81 fe 06 04 00 00    	cmp    esi,0x406
af0e:	7d 70                	jge    af80 <rpl_fcntl+0x180>
af10:	81 fe 01 04 00 00    	cmp    esi,0x401
af16:	74 b8                	je     aed0 <rpl_fcntl+0xd0>
af18:	81 fe 02 04 00 00    	cmp    esi,0x402
af1e:	74 60                	je     af80 <rpl_fcntl+0x180>
af20:	81 fe 00 04 00 00    	cmp    esi,0x400
af26:	74 58                	je     af80 <rpl_fcntl+0x180>
af28:	8b 04 24             	mov    eax,DWORD PTR [rsp]
af2b:	83 f8 2f             	cmp    eax,0x2f
af2e:	0f 87 36 01 00 00    	ja     b06a <rpl_fcntl+0x26a>
af34:	48 03 44 24 10       	add    rax,QWORD PTR [rsp+0x10]
af39:	48 8b 10             	mov    rdx,QWORD PTR [rax]
af3c:	89 ef                	mov    edi,ebp
af3e:	31 c0                	xor    eax,eax
af40:	e8 2b 6c ff ff       	call   1b70 <fcntl@plt>
af45:	89 c3                	mov    ebx,eax
af47:	eb 97                	jmp    aee0 <rpl_fcntl+0xe0>
af49:	0f 1f 80 00 00 00 00 	nop    DWORD PTR [rax+0x0]
af50:	81 fe 09 04 00 00    	cmp    esi,0x409
af56:	74 28                	je     af80 <rpl_fcntl+0x180>
af58:	0f 8c 72 ff ff ff    	jl     aed0 <rpl_fcntl+0xd0>
af5e:	81 fe 0a 04 00 00    	cmp    esi,0x40a
af64:	75 c2                	jne    af28 <rpl_fcntl+0x128>
af66:	e9 65 ff ff ff       	jmp    aed0 <rpl_fcntl+0xd0>
af6b:	0f 1f 44 00 00       	nop    DWORD PTR [rax+rax*1+0x0]
af70:	83 fe 09             	cmp    esi,0x9
af73:	0f 84 57 ff ff ff    	je     aed0 <rpl_fcntl+0xd0>
af79:	7f 05                	jg     af80 <rpl_fcntl+0x180>
af7b:	83 fe 08             	cmp    esi,0x8
af7e:	75 a8                	jne    af28 <rpl_fcntl+0x128>
af80:	8b 04 24             	mov    eax,DWORD PTR [rsp]
af83:	83 f8 2f             	cmp    eax,0x2f
af86:	0f 87 e8 00 00 00    	ja     b074 <rpl_fcntl+0x274>
af8c:	48 03 44 24 10       	add    rax,QWORD PTR [rsp+0x10]
af91:	8b 10                	mov    edx,DWORD PTR [rax]
af93:	89 ef                	mov    edi,ebp
af95:	31 c0                	xor    eax,eax
af97:	e8 d4 6b ff ff       	call   1b70 <fcntl@plt>
af9c:	89 c3                	mov    ebx,eax
af9e:	e9 3d ff ff ff       	jmp    aee0 <rpl_fcntl+0xe0>
afa3:	31 f6                	xor    esi,esi
afa5:	31 c0                	xor    eax,eax
afa7:	e8 c4 6b ff ff       	call   1b70 <fcntl@plt>
afac:	85 c0                	test   eax,eax
afae:	89 c3                	mov    ebx,eax
afb0:	0f 88 2a ff ff ff    	js     aee0 <rpl_fcntl+0xe0>
afb6:	83 3d bb 52 20 00 ff 	cmp    DWORD PTR [rip+0x2052bb],0xffffffff        # 210278 <have_dupfd_cloexec.3326>
afbd:	0f 85 1d ff ff ff    	jne    aee0 <rpl_fcntl+0xe0>
afc3:	31 c0                	xor    eax,eax
afc5:	be 01 00 00 00       	mov    esi,0x1
afca:	89 df                	mov    edi,ebx
afcc:	e8 9f 6b ff ff       	call   1b70 <fcntl@plt>
afd1:	85 c0                	test   eax,eax
afd3:	78 1c                	js     aff1 <rpl_fcntl+0x1f1>
afd5:	83 c8 01             	or     eax,0x1
afd8:	be 02 00 00 00       	mov    esi,0x2
afdd:	89 df                	mov    edi,ebx
afdf:	89 c2                	mov    edx,eax
afe1:	31 c0                	xor    eax,eax
afe3:	e8 88 6b ff ff       	call   1b70 <fcntl@plt>
afe8:	83 f8 ff             	cmp    eax,0xffffffff
afeb:	0f 85 ef fe ff ff    	jne    aee0 <rpl_fcntl+0xe0>
aff1:	e8 1a 6b ff ff       	call   1b10 <__errno_location@plt>
aff6:	44 8b 20             	mov    r12d,DWORD PTR [rax]
aff9:	48 89 c5             	mov    rbp,rax
affc:	89 df                	mov    edi,ebx
affe:	e8 dd 6c ff ff       	call   1ce0 <close@plt>
b003:	bb ff ff ff ff       	mov    ebx,0xffffffff
b008:	44 89 65 00          	mov    DWORD PTR [rbp+0x0],r12d
b00c:	e9 cf fe ff ff       	jmp    aee0 <rpl_fcntl+0xe0>
b011:	0f 1f 80 00 00 00 00 	nop    DWORD PTR [rax+0x0]
b018:	e8 f3 6a ff ff       	call   1b10 <__errno_location@plt>
b01d:	83 38 16             	cmp    DWORD PTR [rax],0x16
b020:	0f 85 69 fe ff ff    	jne    ae8f <rpl_fcntl+0x8f>
b026:	31 f6                	xor    esi,esi
b028:	31 c0                	xor    eax,eax
b02a:	44 89 e2             	mov    edx,r12d
b02d:	89 ef                	mov    edi,ebp
b02f:	e8 3c 6b ff ff       	call   1b70 <fcntl@plt>
b034:	85 c0                	test   eax,eax
b036:	89 c3                	mov    ebx,eax
b038:	0f 88 a2 fe ff ff    	js     aee0 <rpl_fcntl+0xe0>
b03e:	c7 05 30 52 20 00 ff 	mov    DWORD PTR [rip+0x205230],0xffffffff        # 210278 <have_dupfd_cloexec.3326>
b045:	ff ff ff
b048:	e9 76 ff ff ff       	jmp    afc3 <rpl_fcntl+0x1c3>
b04d:	e8 be 6b ff ff       	call   1c10 <__stack_chk_fail@plt>
b052:	48 8b 44 24 10       	mov    rax,QWORD PTR [rsp+0x10]
b057:	31 f6                	xor    esi,esi
b059:	8b 50 10             	mov    edx,DWORD PTR [rax+0x10]
b05c:	31 c0                	xor    eax,eax
b05e:	e8 0d 6b ff ff       	call   1b70 <fcntl@plt>
b063:	89 c3                	mov    ebx,eax
b065:	e9 76 fe ff ff       	jmp    aee0 <rpl_fcntl+0xe0>
b06a:	48 8b 44 24 08       	mov    rax,QWORD PTR [rsp+0x8]
b06f:	e9 c5 fe ff ff       	jmp    af39 <rpl_fcntl+0x139>
b074:	48 8b 44 24 08       	mov    rax,QWORD PTR [rsp+0x8]
b079:	e9 13 ff ff ff       	jmp    af91 <rpl_fcntl+0x191>
b07e:	66 90                	xchg   ax,ax

000000000000b080 <rpl_mbrtowc>:
b080:	41 55                	push   r13
b082:	41 54                	push   r12
b084:	49 89 f5             	mov    r13,rsi
b087:	55                   	push   rbp
b088:	53                   	push   rbx
b089:	48 89 fb             	mov    rbx,rdi
b08c:	49 89 d4             	mov    r12,rdx
b08f:	48 83 ec 18          	sub    rsp,0x18
b093:	64 48 8b 04 25 28 00 	mov    rax,QWORD PTR fs:0x28
b09a:	00 00
b09c:	48 89 44 24 08       	mov    QWORD PTR [rsp+0x8],rax
b0a1:	31 c0                	xor    eax,eax
b0a3:	48 8d 44 24 04       	lea    rax,[rsp+0x4]
b0a8:	48 85 ff             	test   rdi,rdi
b0ab:	48 0f 44 d8          	cmove  rbx,rax
b0af:	48 89 df             	mov    rdi,rbx
b0b2:	e8 79 6b ff ff       	call   1c30 <mbrtowc@plt>
b0b7:	48 83 f8 fd          	cmp    rax,0xfffffffffffffffd
b0bb:	48 89 c5             	mov    rbp,rax
b0be:	76 20                	jbe    b0e0 <rpl_mbrtowc+0x60>
b0c0:	4d 85 e4             	test   r12,r12
b0c3:	74 1b                	je     b0e0 <rpl_mbrtowc+0x60>
b0c5:	31 ff                	xor    edi,edi
b0c7:	e8 c4 02 00 00       	call   b390 <hard_locale>
b0cc:	84 c0                	test   al,al
b0ce:	75 10                	jne    b0e0 <rpl_mbrtowc+0x60>
b0d0:	41 0f b6 45 00       	movzx  eax,BYTE PTR [r13+0x0]
b0d5:	bd 01 00 00 00       	mov    ebp,0x1
b0da:	89 03                	mov    DWORD PTR [rbx],eax
b0dc:	0f 1f 40 00          	nop    DWORD PTR [rax+0x0]
b0e0:	48 8b 54 24 08       	mov    rdx,QWORD PTR [rsp+0x8]
b0e5:	64 48 33 14 25 28 00 	xor    rdx,QWORD PTR fs:0x28
b0ec:	00 00
b0ee:	48 89 e8             	mov    rax,rbp
b0f1:	75 0b                	jne    b0fe <rpl_mbrtowc+0x7e>
b0f3:	48 83 c4 18          	add    rsp,0x18
b0f7:	5b                   	pop    rbx
b0f8:	5d                   	pop    rbp
b0f9:	41 5c                	pop    r12
b0fb:	41 5d                	pop    r13
b0fd:	c3                   	ret
b0fe:	e8 0d 6b ff ff       	call   1c10 <__stack_chk_fail@plt>
b103:	66 2e 0f 1f 84 00 00 	nop    WORD PTR cs:[rax+rax*1+0x0]
b10a:	00 00 00
b10d:	0f 1f 00             	nop    DWORD PTR [rax]

000000000000b110 <rpl_nanosleep>:
b110:	41 54                	push   r12
b112:	55                   	push   rbp
b113:	53                   	push   rbx
b114:	48 83 ec 20          	sub    rsp,0x20
b118:	64 48 8b 04 25 28 00 	mov    rax,QWORD PTR fs:0x28
b11f:	00 00
b121:	48 89 44 24 18       	mov    QWORD PTR [rsp+0x18],rax
b126:	31 c0                	xor    eax,eax
b128:	48 8b 47 08          	mov    rax,QWORD PTR [rdi+0x8]
b12c:	48 3d ff c9 9a 3b    	cmp    rax,0x3b9ac9ff
b132:	0f 87 88 00 00 00    	ja     b1c0 <rpl_nanosleep+0xb0>
b138:	48 8b 1f             	mov    rbx,QWORD PTR [rdi]
b13b:	48 89 f5             	mov    rbp,rsi
b13e:	48 89 44 24 08       	mov    QWORD PTR [rsp+0x8],rax
b143:	49 89 e4             	mov    r12,rsp
b146:	48 81 fb 00 a4 1f 00 	cmp    rbx,0x1fa400
b14d:	7f 1b                	jg     b16a <rpl_nanosleep+0x5a>
b14f:	eb 47                	jmp    b198 <rpl_nanosleep+0x88>
b151:	0f 1f 80 00 00 00 00 	nop    DWORD PTR [rax+0x0]
b158:	48 81 fb 00 a4 1f 00 	cmp    rbx,0x1fa400
b15f:	48 c7 44 24 08 00 00 	mov    QWORD PTR [rsp+0x8],0x0
b166:	00 00
b168:	7e 2e                	jle    b198 <rpl_nanosleep+0x88>
b16a:	48 89 ee             	mov    rsi,rbp
b16d:	4c 89 e7             	mov    rdi,r12
b170:	48 c7 04 24 00 a4 1f 	mov    QWORD PTR [rsp],0x1fa400
b177:	00
b178:	48 81 eb 00 a4 1f 00 	sub    rbx,0x1fa400
b17f:	e8 ec 6a ff ff       	call   1c70 <nanosleep@plt>
b184:	85 c0                	test   eax,eax
b186:	74 d0                	je     b158 <rpl_nanosleep+0x48>
b188:	48 85 ed             	test   rbp,rbp
b18b:	74 1a                	je     b1a7 <rpl_nanosleep+0x97>
b18d:	48 01 5d 00          	add    QWORD PTR [rbp+0x0],rbx
b191:	eb 14                	jmp    b1a7 <rpl_nanosleep+0x97>
b193:	0f 1f 44 00 00       	nop    DWORD PTR [rax+rax*1+0x0]
b198:	48 89 ee             	mov    rsi,rbp
b19b:	4c 89 e7             	mov    rdi,r12
b19e:	48 89 1c 24          	mov    QWORD PTR [rsp],rbx
b1a2:	e8 c9 6a ff ff       	call   1c70 <nanosleep@plt>
b1a7:	48 8b 54 24 18       	mov    rdx,QWORD PTR [rsp+0x18]
b1ac:	64 48 33 14 25 28 00 	xor    rdx,QWORD PTR fs:0x28
b1b3:	00 00
b1b5:	75 1b                	jne    b1d2 <rpl_nanosleep+0xc2>
b1b7:	48 83 c4 20          	add    rsp,0x20
b1bb:	5b                   	pop    rbx
b1bc:	5d                   	pop    rbp
b1bd:	41 5c                	pop    r12
b1bf:	c3                   	ret
b1c0:	e8 4b 69 ff ff       	call   1b10 <__errno_location@plt>
b1c5:	c7 00 16 00 00 00    	mov    DWORD PTR [rax],0x16
b1cb:	b8 ff ff ff ff       	mov    eax,0xffffffff
b1d0:	eb d5                	jmp    b1a7 <rpl_nanosleep+0x97>
b1d2:	e8 39 6a ff ff       	call   1c10 <__stack_chk_fail@plt>
b1d7:	66 0f 1f 84 00 00 00 	nop    WORD PTR [rax+rax*1+0x0]
b1de:	00 00

000000000000b1e0 <c_strtod>:
b1e0:	55                   	push   rbp
b1e1:	53                   	push   rbx
b1e2:	48 89 fd             	mov    rbp,rdi
b1e5:	48 89 f3             	mov    rbx,rsi
b1e8:	48 83 ec 08          	sub    rsp,0x8
b1ec:	48 8b 05 8d 50 20 00 	mov    rax,QWORD PTR [rip+0x20508d]        # 210280 <c_locale_cache>
b1f3:	48 85 c0             	test   rax,rax
b1f6:	74 38                	je     b230 <c_strtod+0x50>
b1f8:	48 8b 15 81 50 20 00 	mov    rdx,QWORD PTR [rip+0x205081]        # 210280 <c_locale_cache>
b1ff:	48 85 d2             	test   rdx,rdx
b202:	74 14                	je     b218 <c_strtod+0x38>
b204:	48 83 c4 08          	add    rsp,0x8
b208:	48 89 de             	mov    rsi,rbx
b20b:	48 89 ef             	mov    rdi,rbp
b20e:	5b                   	pop    rbx
b20f:	5d                   	pop    rbp
b210:	e9 8b 69 ff ff       	jmp    1ba0 <strtod_l@plt>
b215:	0f 1f 00             	nop    DWORD PTR [rax]
b218:	48 85 db             	test   rbx,rbx
b21b:	66 0f ef c0          	pxor   xmm0,xmm0
b21f:	74 07                	je     b228 <c_strtod+0x48>
b221:	66 0f ef c0          	pxor   xmm0,xmm0
b225:	48 89 2b             	mov    QWORD PTR [rbx],rbp
b228:	48 83 c4 08          	add    rsp,0x8
b22c:	5b                   	pop    rbx
b22d:	5d                   	pop    rbp
b22e:	c3                   	ret
b22f:	90                   	nop
b230:	48 8d 35 1c 22 00 00 	lea    rsi,[rip+0x221c]        # d453 <__PRETTY_FUNCTION__.4162+0xb>
b237:	31 d2                	xor    edx,edx
b239:	bf bf 1f 00 00       	mov    edi,0x1fbf
b23e:	e8 1d 6a ff ff       	call   1c60 <newlocale@plt>
b243:	48 89 05 36 50 20 00 	mov    QWORD PTR [rip+0x205036],rax        # 210280 <c_locale_cache>
b24a:	eb ac                	jmp    b1f8 <c_strtod+0x18>
b24c:	0f 1f 40 00          	nop    DWORD PTR [rax+0x0]

000000000000b250 <close_stream>:
b250:	41 54                	push   r12
b252:	55                   	push   rbp
b253:	48 89 fd             	mov    rbp,rdi
b256:	53                   	push   rbx
b257:	e8 e4 68 ff ff       	call   1b40 <__fpending@plt>
b25c:	8b 5d 00             	mov    ebx,DWORD PTR [rbp+0x0]
b25f:	48 89 ef             	mov    rdi,rbp
b262:	49 89 c4             	mov    r12,rax
b265:	e8 d6 01 00 00       	call   b440 <rpl_fclose>
b26a:	83 e3 20             	and    ebx,0x20
b26d:	85 db                	test   ebx,ebx
b26f:	75 17                	jne    b288 <close_stream+0x38>
b271:	85 c0                	test   eax,eax
b273:	74 0a                	je     b27f <close_stream+0x2f>
b275:	4d 85 e4             	test   r12,r12
b278:	b8 ff ff ff ff       	mov    eax,0xffffffff
b27d:	74 39                	je     b2b8 <close_stream+0x68>
b27f:	5b                   	pop    rbx
b280:	5d                   	pop    rbp
b281:	41 5c                	pop    r12
b283:	c3                   	ret
b284:	0f 1f 40 00          	nop    DWORD PTR [rax+0x0]
b288:	85 c0                	test   eax,eax
b28a:	75 1c                	jne    b2a8 <close_stream+0x58>
b28c:	e8 7f 68 ff ff       	call   1b10 <__errno_location@plt>
b291:	c7 00 00 00 00 00    	mov    DWORD PTR [rax],0x0
b297:	b8 ff ff ff ff       	mov    eax,0xffffffff
b29c:	5b                   	pop    rbx
b29d:	5d                   	pop    rbp
b29e:	41 5c                	pop    r12
b2a0:	c3                   	ret
b2a1:	0f 1f 80 00 00 00 00 	nop    DWORD PTR [rax+0x0]
b2a8:	5b                   	pop    rbx
b2a9:	b8 ff ff ff ff       	mov    eax,0xffffffff
b2ae:	5d                   	pop    rbp
b2af:	41 5c                	pop    r12
b2b1:	c3                   	ret
b2b2:	66 0f 1f 44 00 00    	nop    WORD PTR [rax+rax*1+0x0]
b2b8:	e8 53 68 ff ff       	call   1b10 <__errno_location@plt>
b2bd:	83 38 09             	cmp    DWORD PTR [rax],0x9
b2c0:	5b                   	pop    rbx
b2c1:	5d                   	pop    rbp
b2c2:	41 5c                	pop    r12
b2c4:	0f 95 c0             	setne  al
b2c7:	0f b6 c0             	movzx  eax,al
b2ca:	f7 d8                	neg    eax
b2cc:	c3                   	ret
b2cd:	0f 1f 00             	nop    DWORD PTR [rax]

000000000000b2d0 <dtotimespec>:
b2d0:	66 0f 2e 05 80 21 00 	ucomisd xmm0,QWORD PTR [rip+0x2180]        # d458 <__PRETTY_FUNCTION__.4162+0x10>
b2d7:	00
b2d8:	0f 86 92 00 00 00    	jbe    b370 <dtotimespec+0xa0>
b2de:	f2 0f 10 0d 7a 21 00 	movsd  xmm1,QWORD PTR [rip+0x217a]        # d460 <__PRETTY_FUNCTION__.4162+0x18>
b2e5:	00
b2e6:	66 0f 2e c8          	ucomisd xmm1,xmm0
b2ea:	76 6c                	jbe    b358 <dtotimespec+0x88>
b2ec:	f2 48 0f 2c f0       	cvttsd2si rsi,xmm0
b2f1:	66 0f ef c9          	pxor   xmm1,xmm1
b2f5:	31 c9                	xor    ecx,ecx
b2f7:	f2 48 0f 2a ce       	cvtsi2sd xmm1,rsi
b2fc:	f2 0f 5c c1          	subsd  xmm0,xmm1
b300:	66 0f ef c9          	pxor   xmm1,xmm1
b304:	f2 0f 59 05 5c 21 00 	mulsd  xmm0,QWORD PTR [rip+0x215c]        # d468 <__PRETTY_FUNCTION__.4162+0x20>
b30b:	00
b30c:	f2 48 0f 2c d0       	cvttsd2si rdx,xmm0
b311:	f2 48 0f 2a ca       	cvtsi2sd xmm1,rdx
b316:	66 0f 2e c1          	ucomisd xmm0,xmm1
b31a:	0f 97 c1             	seta   cl
b31d:	48 01 d1             	add    rcx,rdx
b320:	48 ba b3 94 d6 26 e8 	movabs rdx,0x112e0be826d694b3
b327:	0b 2e 11
b32a:	48 89 c8             	mov    rax,rcx
b32d:	48 f7 ea             	imul   rdx
b330:	48 89 c8             	mov    rax,rcx
b333:	48 c1 f8 3f          	sar    rax,0x3f
b337:	48 c1 fa 1a          	sar    rdx,0x1a
b33b:	48 29 c2             	sub    rdx,rax
b33e:	48 8d 04 32          	lea    rax,[rdx+rsi*1]
b342:	48 69 d2 00 ca 9a 3b 	imul   rdx,rdx,0x3b9aca00
b349:	48 29 d1             	sub    rcx,rdx
b34c:	48 89 ca             	mov    rdx,rcx
b34f:	78 2f                	js     b380 <dtotimespec+0xb0>
b351:	f3 c3                	repz ret
b353:	0f 1f 44 00 00       	nop    DWORD PTR [rax+rax*1+0x0]
b358:	48 b8 ff ff ff ff ff 	movabs rax,0x7fffffffffffffff
b35f:	ff ff 7f
b362:	ba ff c9 9a 3b       	mov    edx,0x3b9ac9ff
b367:	c3                   	ret
b368:	0f 1f 84 00 00 00 00 	nop    DWORD PTR [rax+rax*1+0x0]
b36f:	00
b370:	48 b8 00 00 00 00 00 	movabs rax,0x8000000000000000
b377:	00 00 80
b37a:	31 d2                	xor    edx,edx
b37c:	c3                   	ret
b37d:	0f 1f 00             	nop    DWORD PTR [rax]
b380:	48 83 e8 01          	sub    rax,0x1
b384:	48 81 c2 00 ca 9a 3b 	add    rdx,0x3b9aca00
b38b:	c3                   	ret
b38c:	0f 1f 40 00          	nop    DWORD PTR [rax+0x0]

000000000000b390 <hard_locale>:
b390:	48 83 ec 08          	sub    rsp,0x8
b394:	31 f6                	xor    esi,esi
b396:	e8 a5 6a ff ff       	call   1e40 <setlocale@plt>
b39b:	48 89 c2             	mov    rdx,rax
b39e:	b8 01 00 00 00       	mov    eax,0x1
b3a3:	48 85 d2             	test   rdx,rdx
b3a6:	74 1d                	je     b3c5 <hard_locale+0x35>
b3a8:	48 8d 3d a4 20 00 00 	lea    rdi,[rip+0x20a4]        # d453 <__PRETTY_FUNCTION__.4162+0xb>
b3af:	b9 02 00 00 00       	mov    ecx,0x2
b3b4:	48 89 d6             	mov    rsi,rdx
b3b7:	f3 a6                	repz cmps BYTE PTR ds:[rsi],BYTE PTR es:[rdi]
b3b9:	0f 97 c1             	seta   cl
b3bc:	80 d9 00             	sbb    cl,0x0
b3bf:	31 c0                	xor    eax,eax
b3c1:	84 c9                	test   cl,cl
b3c3:	75 0b                	jne    b3d0 <hard_locale+0x40>
b3c5:	48 83 c4 08          	add    rsp,0x8
b3c9:	c3                   	ret
b3ca:	66 0f 1f 44 00 00    	nop    WORD PTR [rax+rax*1+0x0]
b3d0:	48 8d 3d 99 20 00 00 	lea    rdi,[rip+0x2099]        # d470 <__PRETTY_FUNCTION__.4162+0x28>
b3d7:	b9 06 00 00 00       	mov    ecx,0x6
b3dc:	48 89 d6             	mov    rsi,rdx
b3df:	f3 a6                	repz cmps BYTE PTR ds:[rsi],BYTE PTR es:[rdi]
b3e1:	0f 97 c0             	seta   al
b3e4:	1c 00                	sbb    al,0x0
b3e6:	84 c0                	test   al,al
b3e8:	0f 95 c0             	setne  al
b3eb:	48 83 c4 08          	add    rsp,0x8
b3ef:	c3                   	ret

000000000000b3f0 <locale_charset>:
b3f0:	48 83 ec 08          	sub    rsp,0x8
b3f4:	bf 0e 00 00 00       	mov    edi,0xe
b3f9:	e8 f2 69 ff ff       	call   1df0 <nl_langinfo@plt>
b3fe:	48 85 c0             	test   rax,rax
b401:	74 1d                	je     b420 <locale_charset+0x30>
b403:	80 38 00             	cmp    BYTE PTR [rax],0x0
b406:	48 8d 15 69 20 00 00 	lea    rdx,[rip+0x2069]        # d476 <__PRETTY_FUNCTION__.4162+0x2e>
b40d:	48 0f 44 c2          	cmove  rax,rdx
b411:	48 83 c4 08          	add    rsp,0x8
b415:	c3                   	ret
b416:	66 2e 0f 1f 84 00 00 	nop    WORD PTR cs:[rax+rax*1+0x0]
b41d:	00 00 00
b420:	48 8d 05 4f 20 00 00 	lea    rax,[rip+0x204f]        # d476 <__PRETTY_FUNCTION__.4162+0x2e>
b427:	48 83 c4 08          	add    rsp,0x8
b42b:	c3                   	ret
b42c:	0f 1f 40 00          	nop    DWORD PTR [rax+0x0]

000000000000b430 <dup_safer>:
b430:	ba 03 00 00 00       	mov    edx,0x3
b435:	31 f6                	xor    esi,esi
b437:	31 c0                	xor    eax,eax
b439:	e9 c2 f9 ff ff       	jmp    ae00 <rpl_fcntl>
b43e:	66 90                	xchg   ax,ax

000000000000b440 <rpl_fclose>:
b440:	41 54                	push   r12
b442:	55                   	push   rbp
b443:	53                   	push   rbx
b444:	48 89 fb             	mov    rbx,rdi
b447:	e8 44 69 ff ff       	call   1d90 <fileno@plt>
b44c:	85 c0                	test   eax,eax
b44e:	48 89 df             	mov    rdi,rbx
b451:	78 54                	js     b4a7 <rpl_fclose+0x67>
b453:	e8 b8 69 ff ff       	call   1e10 <__freading@plt>
b458:	85 c0                	test   eax,eax
b45a:	75 2c                	jne    b488 <rpl_fclose+0x48>
b45c:	48 89 df             	mov    rdi,rbx
b45f:	e8 5c 00 00 00       	call   b4c0 <rpl_fflush>
b464:	85 c0                	test   eax,eax
b466:	74 3c                	je     b4a4 <rpl_fclose+0x64>
b468:	e8 a3 66 ff ff       	call   1b10 <__errno_location@plt>
b46d:	44 8b 20             	mov    r12d,DWORD PTR [rax]
b470:	48 89 df             	mov    rdi,rbx
b473:	48 89 c5             	mov    rbp,rax
b476:	e8 35 67 ff ff       	call   1bb0 <fclose@plt>
b47b:	45 85 e4             	test   r12d,r12d
b47e:	75 30                	jne    b4b0 <rpl_fclose+0x70>
b480:	5b                   	pop    rbx
b481:	5d                   	pop    rbp
b482:	41 5c                	pop    r12
b484:	c3                   	ret
b485:	0f 1f 00             	nop    DWORD PTR [rax]
b488:	48 89 df             	mov    rdi,rbx
b48b:	e8 00 69 ff ff       	call   1d90 <fileno@plt>
b490:	31 f6                	xor    esi,esi
b492:	ba 01 00 00 00       	mov    edx,0x1
b497:	89 c7                	mov    edi,eax
b499:	e8 02 68 ff ff       	call   1ca0 <lseek@plt>
b49e:	48 83 f8 ff          	cmp    rax,0xffffffffffffffff
b4a2:	75 b8                	jne    b45c <rpl_fclose+0x1c>
b4a4:	48 89 df             	mov    rdi,rbx
b4a7:	5b                   	pop    rbx
b4a8:	5d                   	pop    rbp
b4a9:	41 5c                	pop    r12
b4ab:	e9 00 67 ff ff       	jmp    1bb0 <fclose@plt>
b4b0:	44 89 65 00          	mov    DWORD PTR [rbp+0x0],r12d
b4b4:	b8 ff ff ff ff       	mov    eax,0xffffffff
b4b9:	eb c5                	jmp    b480 <rpl_fclose+0x40>
b4bb:	0f 1f 44 00 00       	nop    DWORD PTR [rax+rax*1+0x0]

000000000000b4c0 <rpl_fflush>:
b4c0:	48 85 ff             	test   rdi,rdi
b4c3:	53                   	push   rbx
b4c4:	48 89 fb             	mov    rbx,rdi
b4c7:	74 11                	je     b4da <rpl_fflush+0x1a>
b4c9:	e8 42 69 ff ff       	call   1e10 <__freading@plt>
b4ce:	85 c0                	test   eax,eax
b4d0:	74 08                	je     b4da <rpl_fflush+0x1a>
b4d2:	f7 03 00 01 00 00    	test   DWORD PTR [rbx],0x100
b4d8:	75 0e                	jne    b4e8 <rpl_fflush+0x28>
b4da:	48 89 df             	mov    rdi,rbx
b4dd:	5b                   	pop    rbx
b4de:	e9 ed 68 ff ff       	jmp    1dd0 <fflush@plt>
b4e3:	0f 1f 44 00 00       	nop    DWORD PTR [rax+rax*1+0x0]
b4e8:	48 89 df             	mov    rdi,rbx
b4eb:	ba 01 00 00 00       	mov    edx,0x1
b4f0:	31 f6                	xor    esi,esi
b4f2:	e8 09 00 00 00       	call   b500 <rpl_fseeko>
b4f7:	48 89 df             	mov    rdi,rbx
b4fa:	5b                   	pop    rbx
b4fb:	e9 d0 68 ff ff       	jmp    1dd0 <fflush@plt>

000000000000b500 <rpl_fseeko>:
b500:	48 8b 47 08          	mov    rax,QWORD PTR [rdi+0x8]
b504:	48 39 47 10          	cmp    QWORD PTR [rdi+0x10],rax
b508:	74 06                	je     b510 <rpl_fseeko+0x10>
b50a:	e9 81 69 ff ff       	jmp    1e90 <fseeko@plt>
b50f:	90                   	nop
b510:	48 8b 47 20          	mov    rax,QWORD PTR [rdi+0x20]
b514:	48 39 47 28          	cmp    QWORD PTR [rdi+0x28],rax
b518:	75 f0                	jne    b50a <rpl_fseeko+0xa>
b51a:	48 83 7f 48 00       	cmp    QWORD PTR [rdi+0x48],0x0
b51f:	75 e9                	jne    b50a <rpl_fseeko+0xa>
b521:	41 54                	push   r12
b523:	55                   	push   rbp
b524:	41 89 d4             	mov    r12d,edx
b527:	53                   	push   rbx
b528:	48 89 f5             	mov    rbp,rsi
b52b:	48 89 fb             	mov    rbx,rdi
b52e:	e8 5d 68 ff ff       	call   1d90 <fileno@plt>
b533:	44 89 e2             	mov    edx,r12d
b536:	48 89 ee             	mov    rsi,rbp
b539:	89 c7                	mov    edi,eax
b53b:	e8 60 67 ff ff       	call   1ca0 <lseek@plt>
b540:	48 83 f8 ff          	cmp    rax,0xffffffffffffffff
b544:	74 0c                	je     b552 <rpl_fseeko+0x52>
b546:	83 23 ef             	and    DWORD PTR [rbx],0xffffffef
b549:	48 89 83 90 00 00 00 	mov    QWORD PTR [rbx+0x90],rax
b550:	31 c0                	xor    eax,eax
b552:	5b                   	pop    rbx
b553:	5d                   	pop    rbp
b554:	41 5c                	pop    r12
b556:	c3                   	ret
b557:	66 0f 1f 84 00 00 00 	nop    WORD PTR [rax+rax*1+0x0]
b55e:	00 00

000000000000b560 <__libc_csu_init>:
b560:	41 57                	push   r15
b562:	41 56                	push   r14
b564:	49 89 d7             	mov    r15,rdx
b567:	41 55                	push   r13
b569:	41 54                	push   r12
b56b:	4c 8d 25 9e 43 20 00 	lea    r12,[rip+0x20439e]        # 20f910 <__frame_dummy_init_array_entry>
b572:	55                   	push   rbp
b573:	48 8d 2d 9e 43 20 00 	lea    rbp,[rip+0x20439e]        # 20f918 <__init_array_end>
b57a:	53                   	push   rbx
b57b:	41 89 fd             	mov    r13d,edi
b57e:	49 89 f6             	mov    r14,rsi
b581:	4c 29 e5             	sub    rbp,r12
b584:	48 83 ec 08          	sub    rsp,0x8
b588:	48 c1 fd 03          	sar    rbp,0x3
b58c:	e8 17 65 ff ff       	call   1aa8 <_init>
b591:	48 85 ed             	test   rbp,rbp
b594:	74 20                	je     b5b6 <__libc_csu_init+0x56>
b596:	31 db                	xor    ebx,ebx
b598:	0f 1f 84 00 00 00 00 	nop    DWORD PTR [rax+rax*1+0x0]
b59f:	00
b5a0:	4c 89 fa             	mov    rdx,r15
b5a3:	4c 89 f6             	mov    rsi,r14
b5a6:	44 89 ef             	mov    edi,r13d
b5a9:	41 ff 14 dc          	call   QWORD PTR [r12+rbx*8]
b5ad:	48 83 c3 01          	add    rbx,0x1
b5b1:	48 39 dd             	cmp    rbp,rbx
b5b4:	75 ea                	jne    b5a0 <__libc_csu_init+0x40>
b5b6:	48 83 c4 08          	add    rsp,0x8
b5ba:	5b                   	pop    rbx
b5bb:	5d                   	pop    rbp
b5bc:	41 5c                	pop    r12
b5be:	41 5d                	pop    r13
b5c0:	41 5e                	pop    r14
b5c2:	41 5f                	pop    r15
b5c4:	c3                   	ret
b5c5:	90                   	nop
b5c6:	66 2e 0f 1f 84 00 00 	nop    WORD PTR cs:[rax+rax*1+0x0]
b5cd:	00 00 00

000000000000b5d0 <__libc_csu_fini>:
b5d0:	f3 c3                	repz ret
b5d2:	66 2e 0f 1f 84 00 00 	nop    WORD PTR cs:[rax+rax*1+0x0]
b5d9:	00 00 00
b5dc:	0f 1f 40 00          	nop    DWORD PTR [rax+0x0]

000000000000b5e0 <atexit>:
b5e0:	48 8b 15 21 4a 20 00 	mov    rdx,QWORD PTR [rip+0x204a21]        # 210008 <__dso_handle>
b5e7:	31 f6                	xor    esi,esi
b5e9:	e9 c2 68 ff ff       	jmp    1eb0 <__cxa_atexit@plt>

Disassembly of section .fini:

000000000000b5f0 <_fini>:
b5f0:	48 83 ec 08          	sub    rsp,0x8
b5f4:	48 83 c4 08          	add    rsp,0x8
b5f8:	c3                   	ret
