


Disassembly of section .init:

00000000000026b0 <_init>:
26b0:	48 83 ec 08          	sub    rsp,0x8
26b4:	48 8b 05 2d 29 21 00 	mov    rax,QWORD PTR [rip+0x21292d]        # 214fe8 <__gmon_start__>
26bb:	48 85 c0             	test   rax,rax
26be:	74 02                	je     26c2 <_init+0x12>
26c0:	ff d0                	call   rax
26c2:	48 83 c4 08          	add    rsp,0x8
26c6:	c3                   	ret

Disassembly of section .plt:

00000000000026d0 <.plt>:
26d0:	ff 35 ba 26 21 00    	push   QWORD PTR [rip+0x2126ba]        # 214d90 <_GLOBAL_OFFSET_TABLE_+0x8>
26d6:	ff 25 bc 26 21 00    	jmp    QWORD PTR [rip+0x2126bc]        # 214d98 <_GLOBAL_OFFSET_TABLE_+0x10>
26dc:	0f 1f 40 00          	nop    DWORD PTR [rax+0x0]

00000000000026e0 <__ctype_toupper_loc@plt>:
26e0:	ff 25 ba 26 21 00    	jmp    QWORD PTR [rip+0x2126ba]        # 214da0 <__ctype_toupper_loc@GLIBC_2.3>
26e6:	68 00 00 00 00       	push   0x0
26eb:	e9 e0 ff ff ff       	jmp    26d0 <.plt>

00000000000026f0 <getenv@plt>:
26f0:	ff 25 b2 26 21 00    	jmp    QWORD PTR [rip+0x2126b2]        # 214da8 <getenv@GLIBC_2.2.5>
26f6:	68 01 00 00 00       	push   0x1
26fb:	e9 d0 ff ff ff       	jmp    26d0 <.plt>

0000000000002700 <__snprintf_chk@plt>:
2700:	ff 25 aa 26 21 00    	jmp    QWORD PTR [rip+0x2126aa]        # 214db0 <__snprintf_chk@GLIBC_2.3.4>
2706:	68 02 00 00 00       	push   0x2
270b:	e9 c0 ff ff ff       	jmp    26d0 <.plt>

0000000000002710 <free@plt>:
2710:	ff 25 a2 26 21 00    	jmp    QWORD PTR [rip+0x2126a2]        # 214db8 <free@GLIBC_2.2.5>
2716:	68 03 00 00 00       	push   0x3
271b:	e9 b0 ff ff ff       	jmp    26d0 <.plt>

0000000000002720 <utimensat@plt>:
2720:	ff 25 9a 26 21 00    	jmp    QWORD PTR [rip+0x21269a]        # 214dc0 <utimensat@GLIBC_2.6>
2726:	68 04 00 00 00       	push   0x4
272b:	e9 a0 ff ff ff       	jmp    26d0 <.plt>

0000000000002730 <localtime@plt>:
2730:	ff 25 92 26 21 00    	jmp    QWORD PTR [rip+0x212692]        # 214dc8 <localtime@GLIBC_2.2.5>
2736:	68 05 00 00 00       	push   0x5
273b:	e9 90 ff ff ff       	jmp    26d0 <.plt>

0000000000002740 <abort@plt>:
2740:	ff 25 8a 26 21 00    	jmp    QWORD PTR [rip+0x21268a]        # 214dd0 <abort@GLIBC_2.2.5>
2746:	68 06 00 00 00       	push   0x6
274b:	e9 80 ff ff ff       	jmp    26d0 <.plt>

0000000000002750 <__errno_location@plt>:
2750:	ff 25 82 26 21 00    	jmp    QWORD PTR [rip+0x212682]        # 214dd8 <__errno_location@GLIBC_2.2.5>
2756:	68 07 00 00 00       	push   0x7
275b:	e9 70 ff ff ff       	jmp    26d0 <.plt>

0000000000002760 <strncmp@plt>:
2760:	ff 25 7a 26 21 00    	jmp    QWORD PTR [rip+0x21267a]        # 214de0 <strncmp@GLIBC_2.2.5>
2766:	68 08 00 00 00       	push   0x8
276b:	e9 60 ff ff ff       	jmp    26d0 <.plt>

0000000000002770 <localtime_r@plt>:
2770:	ff 25 72 26 21 00    	jmp    QWORD PTR [rip+0x212672]        # 214de8 <localtime_r@GLIBC_2.2.5>
2776:	68 09 00 00 00       	push   0x9
277b:	e9 50 ff ff ff       	jmp    26d0 <.plt>

0000000000002780 <_exit@plt>:
2780:	ff 25 6a 26 21 00    	jmp    QWORD PTR [rip+0x21266a]        # 214df0 <_exit@GLIBC_2.2.5>
2786:	68 0a 00 00 00       	push   0xa
278b:	e9 40 ff ff ff       	jmp    26d0 <.plt>

0000000000002790 <__fpending@plt>:
2790:	ff 25 62 26 21 00    	jmp    QWORD PTR [rip+0x212662]        # 214df8 <__fpending@GLIBC_2.2.5>
2796:	68 0b 00 00 00       	push   0xb
279b:	e9 30 ff ff ff       	jmp    26d0 <.plt>

00000000000027a0 <clock_gettime@plt>:
27a0:	ff 25 5a 26 21 00    	jmp    QWORD PTR [rip+0x21265a]        # 214e00 <clock_gettime@GLIBC_2.17>
27a6:	68 0c 00 00 00       	push   0xc
27ab:	e9 20 ff ff ff       	jmp    26d0 <.plt>

00000000000027b0 <setenv@plt>:
27b0:	ff 25 52 26 21 00    	jmp    QWORD PTR [rip+0x212652]        # 214e08 <setenv@GLIBC_2.2.5>
27b6:	68 0d 00 00 00       	push   0xd
27bb:	e9 10 ff ff ff       	jmp    26d0 <.plt>

00000000000027c0 <textdomain@plt>:
27c0:	ff 25 4a 26 21 00    	jmp    QWORD PTR [rip+0x21264a]        # 214e10 <textdomain@GLIBC_2.2.5>
27c6:	68 0e 00 00 00       	push   0xe
27cb:	e9 00 ff ff ff       	jmp    26d0 <.plt>

00000000000027d0 <fclose@plt>:
27d0:	ff 25 42 26 21 00    	jmp    QWORD PTR [rip+0x212642]        # 214e18 <fclose@GLIBC_2.2.5>
27d6:	68 0f 00 00 00       	push   0xf
27db:	e9 f0 fe ff ff       	jmp    26d0 <.plt>

00000000000027e0 <bindtextdomain@plt>:
27e0:	ff 25 3a 26 21 00    	jmp    QWORD PTR [rip+0x21263a]        # 214e20 <bindtextdomain@GLIBC_2.2.5>
27e6:	68 10 00 00 00       	push   0x10
27eb:	e9 e0 fe ff ff       	jmp    26d0 <.plt>

00000000000027f0 <dcgettext@plt>:
27f0:	ff 25 32 26 21 00    	jmp    QWORD PTR [rip+0x212632]        # 214e28 <dcgettext@GLIBC_2.2.5>
27f6:	68 11 00 00 00       	push   0x11
27fb:	e9 d0 fe ff ff       	jmp    26d0 <.plt>

0000000000002800 <__ctype_get_mb_cur_max@plt>:
2800:	ff 25 2a 26 21 00    	jmp    QWORD PTR [rip+0x21262a]        # 214e30 <__ctype_get_mb_cur_max@GLIBC_2.2.5>
2806:	68 12 00 00 00       	push   0x12
280b:	e9 c0 fe ff ff       	jmp    26d0 <.plt>

0000000000002810 <strlen@plt>:
2810:	ff 25 22 26 21 00    	jmp    QWORD PTR [rip+0x212622]        # 214e38 <strlen@GLIBC_2.2.5>
2816:	68 13 00 00 00       	push   0x13
281b:	e9 b0 fe ff ff       	jmp    26d0 <.plt>

0000000000002820 <__lxstat@plt>:
2820:	ff 25 1a 26 21 00    	jmp    QWORD PTR [rip+0x21261a]        # 214e40 <__lxstat@GLIBC_2.2.5>
2826:	68 14 00 00 00       	push   0x14
282b:	e9 a0 fe ff ff       	jmp    26d0 <.plt>

0000000000002830 <__stack_chk_fail@plt>:
2830:	ff 25 12 26 21 00    	jmp    QWORD PTR [rip+0x212612]        # 214e48 <__stack_chk_fail@GLIBC_2.4>
2836:	68 15 00 00 00       	push   0x15
283b:	e9 90 fe ff ff       	jmp    26d0 <.plt>

0000000000002840 <getopt_long@plt>:
2840:	ff 25 0a 26 21 00    	jmp    QWORD PTR [rip+0x21260a]        # 214e50 <getopt_long@GLIBC_2.2.5>
2846:	68 16 00 00 00       	push   0x16
284b:	e9 80 fe ff ff       	jmp    26d0 <.plt>

0000000000002850 <mbrtowc@plt>:
2850:	ff 25 02 26 21 00    	jmp    QWORD PTR [rip+0x212602]        # 214e58 <mbrtowc@GLIBC_2.2.5>
2856:	68 17 00 00 00       	push   0x17
285b:	e9 70 fe ff ff       	jmp    26d0 <.plt>

0000000000002860 <dup2@plt>:
2860:	ff 25 fa 25 21 00    	jmp    QWORD PTR [rip+0x2125fa]        # 214e60 <dup2@GLIBC_2.2.5>
2866:	68 18 00 00 00       	push   0x18
286b:	e9 60 fe ff ff       	jmp    26d0 <.plt>

0000000000002870 <strchr@plt>:
2870:	ff 25 f2 25 21 00    	jmp    QWORD PTR [rip+0x2125f2]        # 214e68 <strchr@GLIBC_2.2.5>
2876:	68 19 00 00 00       	push   0x19
287b:	e9 50 fe ff ff       	jmp    26d0 <.plt>

0000000000002880 <snprintf@plt>:
2880:	ff 25 ea 25 21 00    	jmp    QWORD PTR [rip+0x2125ea]        # 214e70 <snprintf@GLIBC_2.2.5>
2886:	68 1a 00 00 00       	push   0x1a
288b:	e9 40 fe ff ff       	jmp    26d0 <.plt>

0000000000002890 <__overflow@plt>:
2890:	ff 25 e2 25 21 00    	jmp    QWORD PTR [rip+0x2125e2]        # 214e78 <__overflow@GLIBC_2.2.5>
2896:	68 1b 00 00 00       	push   0x1b
289b:	e9 30 fe ff ff       	jmp    26d0 <.plt>

00000000000028a0 <strrchr@plt>:
28a0:	ff 25 da 25 21 00    	jmp    QWORD PTR [rip+0x2125da]        # 214e80 <strrchr@GLIBC_2.2.5>
28a6:	68 1c 00 00 00       	push   0x1c
28ab:	e9 20 fe ff ff       	jmp    26d0 <.plt>

00000000000028b0 <gmtime_r@plt>:
28b0:	ff 25 d2 25 21 00    	jmp    QWORD PTR [rip+0x2125d2]        # 214e88 <gmtime_r@GLIBC_2.2.5>
28b6:	68 1d 00 00 00       	push   0x1d
28bb:	e9 10 fe ff ff       	jmp    26d0 <.plt>

00000000000028c0 <lseek@plt>:
28c0:	ff 25 ca 25 21 00    	jmp    QWORD PTR [rip+0x2125ca]        # 214e90 <lseek@GLIBC_2.2.5>
28c6:	68 1e 00 00 00       	push   0x1e
28cb:	e9 00 fe ff ff       	jmp    26d0 <.plt>

00000000000028d0 <__assert_fail@plt>:
28d0:	ff 25 c2 25 21 00    	jmp    QWORD PTR [rip+0x2125c2]        # 214e98 <__assert_fail@GLIBC_2.2.5>
28d6:	68 1f 00 00 00       	push   0x1f
28db:	e9 f0 fd ff ff       	jmp    26d0 <.plt>

00000000000028e0 <fputs@plt>:
28e0:	ff 25 ba 25 21 00    	jmp    QWORD PTR [rip+0x2125ba]        # 214ea0 <fputs@GLIBC_2.2.5>
28e6:	68 20 00 00 00       	push   0x20
28eb:	e9 e0 fd ff ff       	jmp    26d0 <.plt>

00000000000028f0 <memset@plt>:
28f0:	ff 25 b2 25 21 00    	jmp    QWORD PTR [rip+0x2125b2]        # 214ea8 <memset@GLIBC_2.2.5>
28f6:	68 21 00 00 00       	push   0x21
28fb:	e9 d0 fd ff ff       	jmp    26d0 <.plt>

0000000000002900 <close@plt>:
2900:	ff 25 aa 25 21 00    	jmp    QWORD PTR [rip+0x2125aa]        # 214eb0 <close@GLIBC_2.2.5>
2906:	68 22 00 00 00       	push   0x22
290b:	e9 c0 fd ff ff       	jmp    26d0 <.plt>

0000000000002910 <fputc@plt>:
2910:	ff 25 a2 25 21 00    	jmp    QWORD PTR [rip+0x2125a2]        # 214eb8 <fputc@GLIBC_2.2.5>
2916:	68 23 00 00 00       	push   0x23
291b:	e9 b0 fd ff ff       	jmp    26d0 <.plt>

0000000000002920 <memcmp@plt>:
2920:	ff 25 9a 25 21 00    	jmp    QWORD PTR [rip+0x21259a]        # 214ec0 <memcmp@GLIBC_2.2.5>
2926:	68 24 00 00 00       	push   0x24
292b:	e9 a0 fd ff ff       	jmp    26d0 <.plt>

0000000000002930 <fputs_unlocked@plt>:
2930:	ff 25 92 25 21 00    	jmp    QWORD PTR [rip+0x212592]        # 214ec8 <fputs_unlocked@GLIBC_2.2.5>
2936:	68 25 00 00 00       	push   0x25
293b:	e9 90 fd ff ff       	jmp    26d0 <.plt>

0000000000002940 <calloc@plt>:
2940:	ff 25 8a 25 21 00    	jmp    QWORD PTR [rip+0x21258a]        # 214ed0 <calloc@GLIBC_2.2.5>
2946:	68 26 00 00 00       	push   0x26
294b:	e9 80 fd ff ff       	jmp    26d0 <.plt>

0000000000002950 <strcmp@plt>:
2950:	ff 25 82 25 21 00    	jmp    QWORD PTR [rip+0x212582]        # 214ed8 <strcmp@GLIBC_2.2.5>
2956:	68 27 00 00 00       	push   0x27
295b:	e9 70 fd ff ff       	jmp    26d0 <.plt>

0000000000002960 <strtol@plt>:
2960:	ff 25 7a 25 21 00    	jmp    QWORD PTR [rip+0x21257a]        # 214ee0 <strtol@GLIBC_2.2.5>
2966:	68 28 00 00 00       	push   0x28
296b:	e9 60 fd ff ff       	jmp    26d0 <.plt>

0000000000002970 <memcpy@plt>:
2970:	ff 25 72 25 21 00    	jmp    QWORD PTR [rip+0x212572]        # 214ee8 <memcpy@GLIBC_2.14>
2976:	68 29 00 00 00       	push   0x29
297b:	e9 50 fd ff ff       	jmp    26d0 <.plt>

0000000000002980 <tzset@plt>:
2980:	ff 25 6a 25 21 00    	jmp    QWORD PTR [rip+0x21256a]        # 214ef0 <tzset@GLIBC_2.2.5>
2986:	68 2a 00 00 00       	push   0x2a
298b:	e9 40 fd ff ff       	jmp    26d0 <.plt>

0000000000002990 <time@plt>:
2990:	ff 25 62 25 21 00    	jmp    QWORD PTR [rip+0x212562]        # 214ef8 <time@GLIBC_2.2.5>
2996:	68 2b 00 00 00       	push   0x2b
299b:	e9 30 fd ff ff       	jmp    26d0 <.plt>

00000000000029a0 <fileno@plt>:
29a0:	ff 25 5a 25 21 00    	jmp    QWORD PTR [rip+0x21255a]        # 214f00 <fileno@GLIBC_2.2.5>
29a6:	68 2c 00 00 00       	push   0x2c
29ab:	e9 20 fd ff ff       	jmp    26d0 <.plt>

00000000000029b0 <__stpcpy_chk@plt>:
29b0:	ff 25 52 25 21 00    	jmp    QWORD PTR [rip+0x212552]        # 214f08 <__stpcpy_chk@GLIBC_2.3.4>
29b6:	68 2d 00 00 00       	push   0x2d
29bb:	e9 10 fd ff ff       	jmp    26d0 <.plt>

00000000000029c0 <__xstat@plt>:
29c0:	ff 25 4a 25 21 00    	jmp    QWORD PTR [rip+0x21254a]        # 214f10 <__xstat@GLIBC_2.2.5>
29c6:	68 2e 00 00 00       	push   0x2e
29cb:	e9 00 fd ff ff       	jmp    26d0 <.plt>

00000000000029d0 <malloc@plt>:
29d0:	ff 25 42 25 21 00    	jmp    QWORD PTR [rip+0x212542]        # 214f18 <malloc@GLIBC_2.2.5>
29d6:	68 2f 00 00 00       	push   0x2f
29db:	e9 f0 fc ff ff       	jmp    26d0 <.plt>

00000000000029e0 <fflush@plt>:
29e0:	ff 25 3a 25 21 00    	jmp    QWORD PTR [rip+0x21253a]        # 214f20 <fflush@GLIBC_2.2.5>
29e6:	68 30 00 00 00       	push   0x30
29eb:	e9 e0 fc ff ff       	jmp    26d0 <.plt>

00000000000029f0 <nl_langinfo@plt>:
29f0:	ff 25 32 25 21 00    	jmp    QWORD PTR [rip+0x212532]        # 214f28 <nl_langinfo@GLIBC_2.2.5>
29f6:	68 31 00 00 00       	push   0x31
29fb:	e9 d0 fc ff ff       	jmp    26d0 <.plt>

0000000000002a00 <mktime@plt>:
2a00:	ff 25 2a 25 21 00    	jmp    QWORD PTR [rip+0x21252a]        # 214f30 <mktime@GLIBC_2.2.5>
2a06:	68 32 00 00 00       	push   0x32
2a0b:	e9 c0 fc ff ff       	jmp    26d0 <.plt>

0000000000002a10 <__freading@plt>:
2a10:	ff 25 22 25 21 00    	jmp    QWORD PTR [rip+0x212522]        # 214f38 <__freading@GLIBC_2.2.5>
2a16:	68 33 00 00 00       	push   0x33
2a1b:	e9 b0 fc ff ff       	jmp    26d0 <.plt>

0000000000002a20 <realloc@plt>:
2a20:	ff 25 1a 25 21 00    	jmp    QWORD PTR [rip+0x21251a]        # 214f40 <realloc@GLIBC_2.2.5>
2a26:	68 34 00 00 00       	push   0x34
2a2b:	e9 a0 fc ff ff       	jmp    26d0 <.plt>

0000000000002a30 <setlocale@plt>:
2a30:	ff 25 12 25 21 00    	jmp    QWORD PTR [rip+0x212512]        # 214f48 <setlocale@GLIBC_2.2.5>
2a36:	68 35 00 00 00       	push   0x35
2a3b:	e9 90 fc ff ff       	jmp    26d0 <.plt>

0000000000002a40 <__printf_chk@plt>:
2a40:	ff 25 0a 25 21 00    	jmp    QWORD PTR [rip+0x21250a]        # 214f50 <__printf_chk@GLIBC_2.3.4>
2a46:	68 36 00 00 00       	push   0x36
2a4b:	e9 80 fc ff ff       	jmp    26d0 <.plt>

0000000000002a50 <timegm@plt>:
2a50:	ff 25 02 25 21 00    	jmp    QWORD PTR [rip+0x212502]        # 214f58 <timegm@GLIBC_2.2.5>
2a56:	68 37 00 00 00       	push   0x37
2a5b:	e9 70 fc ff ff       	jmp    26d0 <.plt>

0000000000002a60 <strftime@plt>:
2a60:	ff 25 fa 24 21 00    	jmp    QWORD PTR [rip+0x2124fa]        # 214f60 <strftime@GLIBC_2.2.5>
2a66:	68 38 00 00 00       	push   0x38
2a6b:	e9 60 fc ff ff       	jmp    26d0 <.plt>

0000000000002a70 <error@plt>:
2a70:	ff 25 f2 24 21 00    	jmp    QWORD PTR [rip+0x2124f2]        # 214f68 <error@GLIBC_2.2.5>
2a76:	68 39 00 00 00       	push   0x39
2a7b:	e9 50 fc ff ff       	jmp    26d0 <.plt>

0000000000002a80 <open@plt>:
2a80:	ff 25 ea 24 21 00    	jmp    QWORD PTR [rip+0x2124ea]        # 214f70 <open@GLIBC_2.2.5>
2a86:	68 3a 00 00 00       	push   0x3a
2a8b:	e9 40 fc ff ff       	jmp    26d0 <.plt>

0000000000002a90 <fseeko@plt>:
2a90:	ff 25 e2 24 21 00    	jmp    QWORD PTR [rip+0x2124e2]        # 214f78 <fseeko@GLIBC_2.2.5>
2a96:	68 3b 00 00 00       	push   0x3b
2a9b:	e9 30 fc ff ff       	jmp    26d0 <.plt>

0000000000002aa0 <unsetenv@plt>:
2aa0:	ff 25 da 24 21 00    	jmp    QWORD PTR [rip+0x2124da]        # 214f80 <unsetenv@GLIBC_2.2.5>
2aa6:	68 3c 00 00 00       	push   0x3c
2aab:	e9 20 fc ff ff       	jmp    26d0 <.plt>

0000000000002ab0 <futimens@plt>:
2ab0:	ff 25 d2 24 21 00    	jmp    QWORD PTR [rip+0x2124d2]        # 214f88 <futimens@GLIBC_2.6>
2ab6:	68 3d 00 00 00       	push   0x3d
2abb:	e9 10 fc ff ff       	jmp    26d0 <.plt>

0000000000002ac0 <__cxa_atexit@plt>:
2ac0:	ff 25 ca 24 21 00    	jmp    QWORD PTR [rip+0x2124ca]        # 214f90 <__cxa_atexit@GLIBC_2.2.5>
2ac6:	68 3e 00 00 00       	push   0x3e
2acb:	e9 00 fc ff ff       	jmp    26d0 <.plt>

0000000000002ad0 <exit@plt>:
2ad0:	ff 25 c2 24 21 00    	jmp    QWORD PTR [rip+0x2124c2]        # 214f98 <exit@GLIBC_2.2.5>
2ad6:	68 3f 00 00 00       	push   0x3f
2adb:	e9 f0 fb ff ff       	jmp    26d0 <.plt>

0000000000002ae0 <fwrite@plt>:
2ae0:	ff 25 ba 24 21 00    	jmp    QWORD PTR [rip+0x2124ba]        # 214fa0 <fwrite@GLIBC_2.2.5>
2ae6:	68 40 00 00 00       	push   0x40
2aeb:	e9 e0 fb ff ff       	jmp    26d0 <.plt>

0000000000002af0 <__fprintf_chk@plt>:
2af0:	ff 25 b2 24 21 00    	jmp    QWORD PTR [rip+0x2124b2]        # 214fa8 <__fprintf_chk@GLIBC_2.3.4>
2af6:	68 41 00 00 00       	push   0x41
2afb:	e9 d0 fb ff ff       	jmp    26d0 <.plt>

0000000000002b00 <mbsinit@plt>:
2b00:	ff 25 aa 24 21 00    	jmp    QWORD PTR [rip+0x2124aa]        # 214fb0 <mbsinit@GLIBC_2.2.5>
2b06:	68 42 00 00 00       	push   0x42
2b0b:	e9 c0 fb ff ff       	jmp    26d0 <.plt>

0000000000002b10 <iswprint@plt>:
2b10:	ff 25 a2 24 21 00    	jmp    QWORD PTR [rip+0x2124a2]        # 214fb8 <iswprint@GLIBC_2.2.5>
2b16:	68 43 00 00 00       	push   0x43
2b1b:	e9 b0 fb ff ff       	jmp    26d0 <.plt>

0000000000002b20 <__ctype_tolower_loc@plt>:
2b20:	ff 25 9a 24 21 00    	jmp    QWORD PTR [rip+0x21249a]        # 214fc0 <__ctype_tolower_loc@GLIBC_2.3>
2b26:	68 44 00 00 00       	push   0x44
2b2b:	e9 a0 fb ff ff       	jmp    26d0 <.plt>

0000000000002b30 <__ctype_b_loc@plt>:
2b30:	ff 25 92 24 21 00    	jmp    QWORD PTR [rip+0x212492]        # 214fc8 <__ctype_b_loc@GLIBC_2.3>
2b36:	68 45 00 00 00       	push   0x45
2b3b:	e9 90 fb ff ff       	jmp    26d0 <.plt>

0000000000002b40 <__sprintf_chk@plt>:
2b40:	ff 25 8a 24 21 00    	jmp    QWORD PTR [rip+0x21248a]        # 214fd0 <__sprintf_chk@GLIBC_2.3.4>
2b46:	68 46 00 00 00       	push   0x46
2b4b:	e9 80 fb ff ff       	jmp    26d0 <.plt>

Disassembly of section .plt.got:

0000000000002b50 <__cxa_finalize@plt>:
2b50:	ff 25 a2 24 21 00    	jmp    QWORD PTR [rip+0x2124a2]        # 214ff8 <__cxa_finalize@GLIBC_2.2.5>
2b56:	66 90                	xchg   ax,ax

Disassembly of section .text:

0000000000002b60 <tm_year_str>:
2b60:	89 f8                	mov    eax,edi
2b62:	b9 64 00 00 00       	mov    ecx,0x64
2b67:	53                   	push   rbx
2b68:	99                   	cdq
2b69:	48 89 f3             	mov    rbx,rsi
2b6c:	f7 f9                	idiv   ecx
2b6e:	31 c9                	xor    ecx,ecx
2b70:	44 8d 40 13          	lea    r8d,[rax+0x13]
2b74:	89 d6                	mov    esi,edx
2b76:	c1 fe 1f             	sar    esi,0x1f
2b79:	44 89 c0             	mov    eax,r8d
2b7c:	31 f2                	xor    edx,esi
2b7e:	c1 f8 1f             	sar    eax,0x1f
2b81:	41 31 c0             	xor    r8d,eax
2b84:	81 ff 94 f8 ff ff    	cmp    edi,0xfffff894
2b8a:	48 8d 3d 2c d5 00 00 	lea    rdi,[rip+0xd52c]        # 100bd <time_masks+0x8d>
2b91:	0f 9d c1             	setge  cl
2b94:	29 f2                	sub    edx,esi
2b96:	41 29 c0             	sub    r8d,eax
2b99:	48 01 f9             	add    rcx,rdi
2b9c:	41 89 d1             	mov    r9d,edx
2b9f:	48 89 df             	mov    rdi,rbx
2ba2:	48 83 ca ff          	or     rdx,0xffffffffffffffff
2ba6:	be 01 00 00 00       	mov    esi,0x1
2bab:	31 c0                	xor    eax,eax
2bad:	e8 8e ff ff ff       	call   2b40 <__sprintf_chk@plt>
2bb2:	48 89 d8             	mov    rax,rbx
2bb5:	5b                   	pop    rbx
2bb6:	c3                   	ret
2bb7:	66 0f 1f 84 00 00 00 	nop    WORD PTR [rax+rax*1+0x0]
2bbe:	00 00

0000000000002bc0 <main>:
2bc0:	41 57                	push   r15
2bc2:	41 56                	push   r14
2bc4:	45 31 ff             	xor    r15d,r15d
2bc7:	41 55                	push   r13
2bc9:	41 54                	push   r12
2bcb:	41 89 fc             	mov    r12d,edi
2bce:	55                   	push   rbp
2bcf:	53                   	push   rbx
2bd0:	48 89 f5             	mov    rbp,rsi
2bd3:	4c 8d 2d 66 15 21 00 	lea    r13,[rip+0x211566]        # 214140 <longopts>
2bda:	45 31 f6             	xor    r14d,r14d
2bdd:	48 81 ec f8 00 00 00 	sub    rsp,0xf8
2be4:	48 8b 3e             	mov    rdi,QWORD PTR [rsi]
2be7:	64 48 8b 04 25 28 00 	mov    rax,QWORD PTR fs:0x28
2bee:	00 00
2bf0:	48 89 84 24 e8 00 00 	mov    QWORD PTR [rsp+0xe8],rax
2bf7:	00
2bf8:	31 c0                	xor    eax,eax
2bfa:	e8 81 5f 00 00       	call   8b80 <set_program_name>
2bff:	48 8d 35 70 d7 00 00 	lea    rsi,[rip+0xd770]        # 10376 <time_masks+0x346>
2c06:	bf 06 00 00 00       	mov    edi,0x6
2c0b:	e8 20 fe ff ff       	call   2a30 <setlocale@plt>
2c10:	48 8d 35 cd cb 00 00 	lea    rsi,[rip+0xcbcd]        # f7e4 <_IO_stdin_used+0xc4>
2c17:	48 8d 3d 9d cb 00 00 	lea    rdi,[rip+0xcb9d]        # f7bb <_IO_stdin_used+0x9b>
2c1e:	e8 bd fb ff ff       	call   27e0 <bindtextdomain@plt>
2c23:	48 8d 3d 91 cb 00 00 	lea    rdi,[rip+0xcb91]        # f7bb <_IO_stdin_used+0x9b>
2c2a:	e8 91 fb ff ff       	call   27c0 <textdomain@plt>
2c2f:	48 8d 3d 0a 12 00 00 	lea    rdi,[rip+0x120a]        # 3e40 <close_stdout>
2c36:	e8 c5 ca 00 00       	call   f700 <atexit>
2c3b:	c7 05 ff 24 21 00 00 	mov    DWORD PTR [rip+0x2124ff],0x0        # 215144 <change_times>
2c42:	00 00 00
2c45:	c6 05 f6 24 21 00 00 	mov    BYTE PTR [rip+0x2124f6],0x0        # 215142 <use_ref>
2c4c:	c6 05 f0 24 21 00 00 	mov    BYTE PTR [rip+0x2124f0],0x0        # 215143 <no_create>
2c53:	0f 1f 44 00 00       	nop    DWORD PTR [rax+rax*1+0x0]
2c58:	48 8d 15 e6 cb 00 00 	lea    rdx,[rip+0xcbe6]        # f845 <_IO_stdin_used+0x125>
2c5f:	45 31 c0             	xor    r8d,r8d
2c62:	4c 89 e9             	mov    rcx,r13
2c65:	48 89 ee             	mov    rsi,rbp
2c68:	44 89 e7             	mov    edi,r12d
2c6b:	e8 d0 fb ff ff       	call   2840 <getopt_long@plt>
2c70:	83 f8 ff             	cmp    eax,0xffffffff
2c73:	89 c3                	mov    ebx,eax
2c75:	0f 84 b7 01 00 00    	je     2e32 <main+0x272>
2c7b:	83 fb 66             	cmp    ebx,0x66
2c7e:	74 d8                	je     2c58 <main+0x98>
2c80:	7e 2e                	jle    2cb0 <main+0xf0>
2c82:	83 fb 72             	cmp    ebx,0x72
2c85:	0f 84 25 01 00 00    	je     2db0 <main+0x1f0>
2c8b:	7f 53                	jg     2ce0 <main+0x120>
2c8d:	83 fb 68             	cmp    ebx,0x68
2c90:	0f 84 0a 01 00 00    	je     2da0 <main+0x1e0>
2c96:	83 fb 6d             	cmp    ebx,0x6d
2c99:	0f 85 37 07 00 00    	jne    33d6 <main+0x816>
2c9f:	83 0d 9e 24 21 00 02 	or     DWORD PTR [rip+0x21249e],0x2        # 215144 <change_times>
2ca6:	eb b0                	jmp    2c58 <main+0x98>
2ca8:	0f 1f 84 00 00 00 00 	nop    DWORD PTR [rax+rax*1+0x0]
2caf:	00
2cb0:	83 fb 61             	cmp    ebx,0x61
2cb3:	0f 84 27 01 00 00    	je     2de0 <main+0x220>
2cb9:	7e 7d                	jle    2d38 <main+0x178>
2cbb:	83 fb 63             	cmp    ebx,0x63
2cbe:	0f 84 0c 01 00 00    	je     2dd0 <main+0x210>
2cc4:	83 fb 64             	cmp    ebx,0x64
2cc7:	0f 85 09 07 00 00    	jne    33d6 <main+0x816>
2ccd:	4c 8b 3d e4 23 21 00 	mov    r15,QWORD PTR [rip+0x2123e4]        # 2150b8 <optarg@@GLIBC_2.2.5>
2cd4:	eb 82                	jmp    2c58 <main+0x98>
2cd6:	66 2e 0f 1f 84 00 00 	nop    WORD PTR cs:[rax+rax*1+0x0]
2cdd:	00 00 00
2ce0:	83 fb 74             	cmp    ebx,0x74
2ce3:	0f 84 07 01 00 00    	je     2df0 <main+0x230>
2ce9:	83 c3 80             	add    ebx,0xffffff80
2cec:	0f 85 e4 06 00 00    	jne    33d6 <main+0x816>
2cf2:	4c 8b 0d 1f 23 21 00 	mov    r9,QWORD PTR [rip+0x21231f]        # 215018 <argmatch_die>
2cf9:	48 8b 35 b8 23 21 00 	mov    rsi,QWORD PTR [rip+0x2123b8]        # 2150b8 <optarg@@GLIBC_2.2.5>
2d00:	48 8d 15 f9 13 21 00 	lea    rdx,[rip+0x2113f9]        # 214100 <time_args>
2d07:	48 8d 0d 22 d3 00 00 	lea    rcx,[rip+0xd322]        # 10030 <time_masks>
2d0e:	48 8d 3d e7 ca 00 00 	lea    rdi,[rip+0xcae7]        # f7fc <_IO_stdin_used+0xdc>
2d15:	41 b8 04 00 00 00    	mov    r8d,0x4
2d1b:	e8 40 10 00 00       	call   3d60 <__xargmatch_internal>
2d20:	48 8d 15 09 d3 00 00 	lea    rdx,[rip+0xd309]        # 10030 <time_masks>
2d27:	8b 04 82             	mov    eax,DWORD PTR [rdx+rax*4]
2d2a:	09 05 14 24 21 00    	or     DWORD PTR [rip+0x212414],eax        # 215144 <change_times>
2d30:	e9 23 ff ff ff       	jmp    2c58 <main+0x98>
2d35:	0f 1f 00             	nop    DWORD PTR [rax]
2d38:	81 fb 7d ff ff ff    	cmp    ebx,0xffffff7d
2d3e:	0f 85 62 06 00 00    	jne    33a6 <main+0x7e6>
2d44:	48 8d 05 d2 ca 00 00 	lea    rax,[rip+0xcad2]        # f81d <_IO_stdin_used+0xfd>
2d4b:	6a 00                	push   0x0
2d4d:	48 8b 3d 54 23 21 00 	mov    rdi,QWORD PTR [rip+0x212354]        # 2150a8 <stdout@@GLIBC_2.2.5>
2d54:	48 8b 0d b5 22 21 00 	mov    rcx,QWORD PTR [rip+0x2122b5]        # 215010 <Version>
2d5b:	4c 8d 0d a1 ca 00 00 	lea    r9,[rip+0xcaa1]        # f803 <_IO_stdin_used+0xe3>
2d62:	4c 8d 05 a9 ca 00 00 	lea    r8,[rip+0xcaa9]        # f812 <_IO_stdin_used+0xf2>
2d69:	50                   	push   rax
2d6a:	48 8d 05 b8 ca 00 00 	lea    rax,[rip+0xcab8]        # f829 <_IO_stdin_used+0x109>
2d71:	48 8d 15 3f ca 00 00 	lea    rdx,[rip+0xca3f]        # f7b7 <_IO_stdin_used+0x97>
2d78:	48 8d 35 bc c9 00 00 	lea    rsi,[rip+0xc9bc]        # f73b <_IO_stdin_used+0x1b>
2d7f:	50                   	push   rax
2d80:	48 8d 05 b2 ca 00 00 	lea    rax,[rip+0xcab2]        # f839 <_IO_stdin_used+0x119>
2d87:	50                   	push   rax
2d88:	31 c0                	xor    eax,eax
2d8a:	e8 e1 7f 00 00       	call   ad70 <version_etc>
2d8f:	48 83 c4 20          	add    rsp,0x20
2d93:	31 ff                	xor    edi,edi
2d95:	e8 36 fd ff ff       	call   2ad0 <exit@plt>
2d9a:	66 0f 1f 44 00 00    	nop    WORD PTR [rax+rax*1+0x0]
2da0:	c6 05 9a 23 21 00 01 	mov    BYTE PTR [rip+0x21239a],0x1        # 215141 <no_dereference>
2da7:	e9 ac fe ff ff       	jmp    2c58 <main+0x98>
2dac:	0f 1f 40 00          	nop    DWORD PTR [rax+0x0]
2db0:	48 8b 05 01 23 21 00 	mov    rax,QWORD PTR [rip+0x212301]        # 2150b8 <optarg@@GLIBC_2.2.5>
2db7:	c6 05 84 23 21 00 01 	mov    BYTE PTR [rip+0x212384],0x1        # 215142 <use_ref>
2dbe:	48 89 05 3b 23 21 00 	mov    QWORD PTR [rip+0x21233b],rax        # 215100 <ref_file>
2dc5:	e9 8e fe ff ff       	jmp    2c58 <main+0x98>
2dca:	66 0f 1f 44 00 00    	nop    WORD PTR [rax+rax*1+0x0]
2dd0:	c6 05 6c 23 21 00 01 	mov    BYTE PTR [rip+0x21236c],0x1        # 215143 <no_create>
2dd7:	e9 7c fe ff ff       	jmp    2c58 <main+0x98>
2ddc:	0f 1f 40 00          	nop    DWORD PTR [rax+0x0]
2de0:	83 0d 5d 23 21 00 01 	or     DWORD PTR [rip+0x21235d],0x1        # 215144 <change_times>
2de7:	e9 6c fe ff ff       	jmp    2c58 <main+0x98>
2dec:	0f 1f 40 00          	nop    DWORD PTR [rax+0x0]
2df0:	48 8b 35 c1 22 21 00 	mov    rsi,QWORD PTR [rip+0x2122c1]        # 2150b8 <optarg@@GLIBC_2.2.5>
2df7:	48 8d 3d 22 23 21 00 	lea    rdi,[rip+0x212322]        # 215120 <newtime>
2dfe:	ba 06 00 00 00       	mov    edx,0x6
2e03:	e8 f8 59 00 00       	call   8800 <posixtime>
2e08:	84 c0                	test   al,al
2e0a:	41 89 c6             	mov    r14d,eax
2e0d:	0f 84 f1 05 00 00    	je     3404 <main+0x844>
2e13:	48 c7 05 0a 23 21 00 	mov    QWORD PTR [rip+0x21230a],0x0        # 215128 <newtime+0x8>
2e1a:	00 00 00 00
2e1e:	66 0f 6f 05 fa 22 21 	movdqa xmm0,XMMWORD PTR [rip+0x2122fa]        # 215120 <newtime>
2e25:	00
2e26:	0f 29 05 03 23 21 00 	movaps XMMWORD PTR [rip+0x212303],xmm0        # 215130 <newtime+0x10>
2e2d:	e9 26 fe ff ff       	jmp    2c58 <main+0x98>
2e32:	83 3d 0b 23 21 00 00 	cmp    DWORD PTR [rip+0x21230b],0x0        # 215144 <change_times>
2e39:	75 0a                	jne    2e45 <main+0x285>
2e3b:	c7 05 ff 22 21 00 03 	mov    DWORD PTR [rip+0x2122ff],0x3        # 215144 <change_times>
2e42:	00 00 00
2e45:	45 84 f6             	test   r14b,r14b
2e48:	0f b6 05 f3 22 21 00 	movzx  eax,BYTE PTR [rip+0x2122f3]        # 215142 <use_ref>
2e4f:	0f 84 21 02 00 00    	je     3076 <main+0x4b6>
2e55:	4d 85 ff             	test   r15,r15
2e58:	0f 85 b8 06 00 00    	jne    3516 <main+0x956>
2e5e:	84 c0                	test   al,al
2e60:	0f 85 b0 06 00 00    	jne    3516 <main+0x956>
2e66:	8b 05 44 22 21 00    	mov    eax,DWORD PTR [rip+0x212244]        # 2150b0 <optind@@GLIBC_2.2.5>
2e6c:	44 39 e0             	cmp    eax,r12d
2e6f:	0f 84 40 05 00 00    	je     33b5 <main+0x7f5>
2e75:	c6 44 24 0c 01       	mov    BYTE PTR [rsp+0xc],0x1
2e7a:	0f 8c d0 00 00 00    	jl     2f50 <main+0x390>
2e80:	e9 f6 02 00 00       	jmp    317b <main+0x5bb>
2e85:	45 31 c0             	xor    r8d,r8d
2e88:	4c 89 ea             	mov    rdx,r13
2e8b:	be 9c ff ff ff       	mov    esi,0xffffff9c
2e90:	44 89 ff             	mov    edi,r15d
2e93:	44 88 54 24 10       	mov    BYTE PTR [rsp+0x10],r10b
2e98:	e8 b3 10 00 00       	call   3f50 <fdutimensat>
2e9d:	45 85 ff             	test   r15d,r15d
2ea0:	89 c2                	mov    edx,eax
2ea2:	44 0f b6 54 24 10    	movzx  r10d,BYTE PTR [rsp+0x10]
2ea8:	75 22                	jne    2ecc <main+0x30c>
2eaa:	31 ff                	xor    edi,edi
2eac:	44 88 54 24 18       	mov    BYTE PTR [rsp+0x18],r10b
2eb1:	89 54 24 10          	mov    DWORD PTR [rsp+0x10],edx
2eb5:	e8 46 fa ff ff       	call   2900 <close@plt>
2eba:	85 c0                	test   eax,eax
2ebc:	8b 54 24 10          	mov    edx,DWORD PTR [rsp+0x10]
2ec0:	44 0f b6 54 24 18    	movzx  r10d,BYTE PTR [rsp+0x18]
2ec6:	0f 85 03 03 00 00    	jne    31cf <main+0x60f>
2ecc:	85 d2                	test   edx,edx
2ece:	0f 84 8c 02 00 00    	je     3160 <main+0x5a0>
2ed4:	45 85 f6             	test   r14d,r14d
2ed7:	0f 85 5c 01 00 00    	jne    3039 <main+0x479>
2edd:	e8 6e f8 ff ff       	call   2750 <__errno_location@plt>
2ee2:	80 3d 5a 22 21 00 00 	cmp    BYTE PTR [rip+0x21225a],0x0        # 215143 <no_create>
2ee9:	74 09                	je     2ef4 <main+0x334>
2eeb:	83 38 02             	cmp    DWORD PTR [rax],0x2
2eee:	0f 84 6c 02 00 00    	je     3160 <main+0x5a0>
2ef4:	4c 89 ee             	mov    rsi,r13
2ef7:	bf 04 00 00 00       	mov    edi,0x4
2efc:	e8 bf 76 00 00       	call   a5c0 <quotearg_style>
2f01:	48 8d 35 c8 c9 00 00 	lea    rsi,[rip+0xc9c8]        # f8d0 <_IO_stdin_used+0x1b0>
2f08:	ba 05 00 00 00       	mov    edx,0x5
2f0d:	31 ff                	xor    edi,edi
2f0f:	49 89 c6             	mov    r14,rax
2f12:	e8 d9 f8 ff ff       	call   27f0 <dcgettext@plt>
2f17:	49 89 c5             	mov    r13,rax
2f1a:	e8 31 f8 ff ff       	call   2750 <__errno_location@plt>
2f1f:	8b 30                	mov    esi,DWORD PTR [rax]
2f21:	4c 89 f1             	mov    rcx,r14
2f24:	4c 89 ea             	mov    rdx,r13
2f27:	31 ff                	xor    edi,edi
2f29:	31 c0                	xor    eax,eax
2f2b:	e8 40 fb ff ff       	call   2a70 <error@plt>
2f30:	45 31 d2             	xor    r10d,r10d
2f33:	8b 05 77 21 21 00    	mov    eax,DWORD PTR [rip+0x212177]        # 2150b0 <optind@@GLIBC_2.2.5>
2f39:	44 20 54 24 0c       	and    BYTE PTR [rsp+0xc],r10b
2f3e:	83 c0 01             	add    eax,0x1
2f41:	44 39 e0             	cmp    eax,r12d
2f44:	89 05 66 21 21 00    	mov    DWORD PTR [rip+0x212166],eax        # 2150b0 <optind@@GLIBC_2.2.5>
2f4a:	0f 8d 2b 02 00 00    	jge    317b <main+0x5bb>
2f50:	48 98                	cdqe
2f52:	48 8d 3d e9 d2 00 00 	lea    rdi,[rip+0xd2e9]        # 10242 <time_masks+0x212>
2f59:	b9 02 00 00 00       	mov    ecx,0x2
2f5e:	4c 8b 6c c5 00       	mov    r13,QWORD PTR [rbp+rax*8+0x0]
2f63:	41 bf 01 00 00 00    	mov    r15d,0x1
2f69:	4c 89 ee             	mov    rsi,r13
2f6c:	f3 a6                	repz cmps BYTE PTR ds:[rsi],BYTE PTR es:[rdi]
2f6e:	41 0f 97 c1          	seta   r9b
2f72:	41 80 d9 00          	sbb    r9b,0x0
2f76:	45 0f be f1          	movsx  r14d,r9b
2f7a:	45 85 f6             	test   r14d,r14d
2f7d:	74 1c                	je     2f9b <main+0x3db>
2f7f:	80 3d bd 21 21 00 00 	cmp    BYTE PTR [rip+0x2121bd],0x0        # 215143 <no_create>
2f86:	75 0d                	jne    2f95 <main+0x3d5>
2f88:	80 3d b2 21 21 00 00 	cmp    BYTE PTR [rip+0x2121b2],0x0        # 215141 <no_dereference>
2f8f:	0f 84 3f 03 00 00    	je     32d4 <main+0x714>
2f95:	41 89 df             	mov    r15d,ebx
2f98:	45 31 f6             	xor    r14d,r14d
2f9b:	8b 05 a3 21 21 00    	mov    eax,DWORD PTR [rip+0x2121a3]        # 215144 <change_times>
2fa1:	83 f8 03             	cmp    eax,0x3
2fa4:	74 1d                	je     2fc3 <main+0x403>
2fa6:	83 f8 02             	cmp    eax,0x2
2fa9:	0f 84 bc 01 00 00    	je     316b <main+0x5ab>
2faf:	83 e8 01             	sub    eax,0x1
2fb2:	0f 85 2d 04 00 00    	jne    33e5 <main+0x825>
2fb8:	48 c7 05 75 21 21 00 	mov    QWORD PTR [rip+0x212175],0x3ffffffe        # 215138 <newtime+0x18>
2fbf:	fe ff ff 3f
2fc3:	80 3d 76 21 21 00 00 	cmp    BYTE PTR [rip+0x212176],0x0        # 215140 <amtime_now>
2fca:	48 8d 05 4f 21 21 00 	lea    rax,[rip+0x21214f]        # 215120 <newtime>
2fd1:	b9 00 00 00 00       	mov    ecx,0x0
2fd6:	48 0f 44 c8          	cmove  rcx,rax
2fda:	41 83 ff ff          	cmp    r15d,0xffffffff
2fde:	41 0f 94 c2          	sete   r10b
2fe2:	44 22 15 58 21 21 00 	and    r10b,BYTE PTR [rip+0x212158]        # 215141 <no_dereference>
2fe9:	0f 85 c3 01 00 00    	jne    31b2 <main+0x5f2>
2fef:	41 83 ff 01          	cmp    r15d,0x1
2ff3:	0f 85 8c fe ff ff    	jne    2e85 <main+0x2c5>
2ff9:	45 31 c0             	xor    r8d,r8d
2ffc:	31 d2                	xor    edx,edx
2ffe:	be 9c ff ff ff       	mov    esi,0xffffff9c
3003:	bf 01 00 00 00       	mov    edi,0x1
3008:	e8 43 0f 00 00       	call   3f50 <fdutimensat>
300d:	85 c0                	test   eax,eax
300f:	0f 84 4b 01 00 00    	je     3160 <main+0x5a0>
3015:	e8 36 f7 ff ff       	call   2750 <__errno_location@plt>
301a:	83 38 09             	cmp    DWORD PTR [rax],0x9
301d:	0f 85 b1 fe ff ff    	jne    2ed4 <main+0x314>
3023:	80 3d 19 21 21 00 00 	cmp    BYTE PTR [rip+0x212119],0x0        # 215143 <no_create>
302a:	0f 85 30 01 00 00    	jne    3160 <main+0x5a0>
3030:	45 85 f6             	test   r14d,r14d
3033:	0f 84 bb fe ff ff    	je     2ef4 <main+0x334>
3039:	4c 89 ee             	mov    rsi,r13
303c:	bf 04 00 00 00       	mov    edi,0x4
3041:	e8 7a 75 00 00       	call   a5c0 <quotearg_style>
3046:	48 8d 35 73 c8 00 00 	lea    rsi,[rip+0xc873]        # f8c0 <_IO_stdin_used+0x1a0>
304d:	49 89 c5             	mov    r13,rax
3050:	ba 05 00 00 00       	mov    edx,0x5
3055:	31 ff                	xor    edi,edi
3057:	e8 94 f7 ff ff       	call   27f0 <dcgettext@plt>
305c:	4c 89 e9             	mov    rcx,r13
305f:	48 89 c2             	mov    rdx,rax
3062:	44 89 f6             	mov    esi,r14d
3065:	31 ff                	xor    edi,edi
3067:	31 c0                	xor    eax,eax
3069:	e8 02 fa ff ff       	call   2a70 <error@plt>
306e:	45 31 d2             	xor    r10d,r10d
3071:	e9 bd fe ff ff       	jmp    2f33 <main+0x373>
3076:	84 c0                	test   al,al
3078:	0f 85 9d 01 00 00    	jne    321b <main+0x65b>
307e:	4d 85 ff             	test   r15,r15
3081:	0f 84 9f 00 00 00    	je     3126 <main+0x566>
3087:	4c 8d 6c 24 20       	lea    r13,[rsp+0x20]
308c:	4c 89 ef             	mov    rdi,r13
308f:	e8 4c 0f 00 00       	call   3fe0 <gettime>
3094:	48 8d 3d 85 20 21 00 	lea    rdi,[rip+0x212085]        # 215120 <newtime>
309b:	4c 89 ea             	mov    rdx,r13
309e:	4c 89 fe             	mov    rsi,r15
30a1:	e8 9a 05 00 00       	call   3640 <get_reldate>
30a6:	83 3d 97 20 21 00 03 	cmp    DWORD PTR [rip+0x212097],0x3        # 215144 <change_times>
30ad:	66 0f 6f 05 6b 20 21 	movdqa xmm0,XMMWORD PTR [rip+0x21206b]        # 215120 <newtime>
30b4:	00
30b5:	0f 29 05 74 20 21 00 	movaps XMMWORD PTR [rip+0x212074],xmm0        # 215130 <newtime+0x10>
30bc:	0f 85 a4 fd ff ff    	jne    2e66 <main+0x2a6>
30c2:	48 8b 05 57 20 21 00 	mov    rax,QWORD PTR [rip+0x212057]        # 215120 <newtime>
30c9:	48 3b 44 24 20       	cmp    rax,QWORD PTR [rsp+0x20]
30ce:	0f 85 92 fd ff ff    	jne    2e66 <main+0x2a6>
30d4:	48 8b 15 4d 20 21 00 	mov    rdx,QWORD PTR [rip+0x21204d]        # 215128 <newtime+0x8>
30db:	48 3b 54 24 28       	cmp    rdx,QWORD PTR [rsp+0x28]
30e0:	0f 85 80 fd ff ff    	jne    2e66 <main+0x2a6>
30e6:	48 89 54 24 38       	mov    QWORD PTR [rsp+0x38],rdx
30eb:	48 8d 7c 24 40       	lea    rdi,[rsp+0x40]
30f0:	48 8d 54 24 30       	lea    rdx,[rsp+0x30]
30f5:	48 83 f0 01          	xor    rax,0x1
30f9:	4c 89 fe             	mov    rsi,r15
30fc:	48 89 44 24 30       	mov    QWORD PTR [rsp+0x30],rax
3101:	e8 3a 05 00 00       	call   3640 <get_reldate>
3106:	48 8b 44 24 30       	mov    rax,QWORD PTR [rsp+0x30]
310b:	48 39 44 24 40       	cmp    QWORD PTR [rsp+0x40],rax
3110:	0f 85 50 fd ff ff    	jne    2e66 <main+0x2a6>
3116:	48 8b 44 24 38       	mov    rax,QWORD PTR [rsp+0x38]
311b:	48 39 44 24 48       	cmp    QWORD PTR [rsp+0x48],rax
3120:	0f 85 40 fd ff ff    	jne    2e66 <main+0x2a6>
3126:	44 89 e0             	mov    eax,r12d
3129:	2b 05 81 1f 21 00    	sub    eax,DWORD PTR [rip+0x211f81]        # 2150b0 <optind@@GLIBC_2.2.5>
312f:	83 e8 01             	sub    eax,0x1
3132:	0f 8f fe 01 00 00    	jg     3336 <main+0x776>
3138:	83 3d 05 20 21 00 03 	cmp    DWORD PTR [rip+0x212005],0x3        # 215144 <change_times>
313f:	0f 84 e5 01 00 00    	je     332a <main+0x76a>
3145:	48 c7 05 d8 1f 21 00 	mov    QWORD PTR [rip+0x211fd8],0x3fffffff        # 215128 <newtime+0x8>
314c:	ff ff ff 3f
3150:	48 c7 05 dd 1f 21 00 	mov    QWORD PTR [rip+0x211fdd],0x3fffffff        # 215138 <newtime+0x18>
3157:	ff ff ff 3f
315b:	e9 06 fd ff ff       	jmp    2e66 <main+0x2a6>
3160:	41 ba 01 00 00 00    	mov    r10d,0x1
3166:	e9 c8 fd ff ff       	jmp    2f33 <main+0x373>
316b:	48 c7 05 b2 1f 21 00 	mov    QWORD PTR [rip+0x211fb2],0x3ffffffe        # 215128 <newtime+0x8>
3172:	fe ff ff 3f
3176:	e9 48 fe ff ff       	jmp    2fc3 <main+0x403>
317b:	44 0f b6 74 24 0c    	movzx  r14d,BYTE PTR [rsp+0xc]
3181:	41 83 f6 01          	xor    r14d,0x1
3185:	48 8b 94 24 e8 00 00 	mov    rdx,QWORD PTR [rsp+0xe8]
318c:	00
318d:	64 48 33 14 25 28 00 	xor    rdx,QWORD PTR fs:0x28
3194:	00 00
3196:	41 0f b6 c6          	movzx  eax,r14b
319a:	0f 85 40 02 00 00    	jne    33e0 <main+0x820>
31a0:	48 81 c4 f8 00 00 00 	add    rsp,0xf8
31a7:	5b                   	pop    rbx
31a8:	5d                   	pop    rbp
31a9:	41 5c                	pop    r12
31ab:	41 5d                	pop    r13
31ad:	41 5e                	pop    r14
31af:	41 5f                	pop    r15
31b1:	c3                   	ret
31b2:	4c 89 ea             	mov    rdx,r13
31b5:	41 b8 00 01 00 00    	mov    r8d,0x100
31bb:	be 9c ff ff ff       	mov    esi,0xffffff9c
31c0:	44 89 ff             	mov    edi,r15d
31c3:	e8 88 0d 00 00       	call   3f50 <fdutimensat>
31c8:	89 c2                	mov    edx,eax
31ca:	e9 fd fc ff ff       	jmp    2ecc <main+0x30c>
31cf:	4c 89 ee             	mov    rsi,r13
31d2:	bf 04 00 00 00       	mov    edi,0x4
31d7:	44 88 54 24 10       	mov    BYTE PTR [rsp+0x10],r10b
31dc:	e8 df 73 00 00       	call   a5c0 <quotearg_style>
31e1:	48 8d 35 c5 c6 00 00 	lea    rsi,[rip+0xc6c5]        # f8ad <_IO_stdin_used+0x18d>
31e8:	ba 05 00 00 00       	mov    edx,0x5
31ed:	31 ff                	xor    edi,edi
31ef:	49 89 c6             	mov    r14,rax
31f2:	e8 f9 f5 ff ff       	call   27f0 <dcgettext@plt>
31f7:	49 89 c5             	mov    r13,rax
31fa:	e8 51 f5 ff ff       	call   2750 <__errno_location@plt>
31ff:	8b 30                	mov    esi,DWORD PTR [rax]
3201:	4c 89 f1             	mov    rcx,r14
3204:	4c 89 ea             	mov    rdx,r13
3207:	31 ff                	xor    edi,edi
3209:	31 c0                	xor    eax,eax
320b:	e8 60 f8 ff ff       	call   2a70 <error@plt>
3210:	44 0f b6 54 24 10    	movzx  r10d,BYTE PTR [rsp+0x10]
3216:	e9 18 fd ff ff       	jmp    2f33 <main+0x373>
321b:	80 3d 1f 1f 21 00 00 	cmp    BYTE PTR [rip+0x211f1f],0x0        # 215141 <no_dereference>
3222:	4c 8b 2d d7 1e 21 00 	mov    r13,QWORD PTR [rip+0x211ed7]        # 215100 <ref_file>
3229:	48 8d 54 24 50       	lea    rdx,[rsp+0x50]
322e:	bf 01 00 00 00       	mov    edi,0x1
3233:	4c 89 ee             	mov    rsi,r13
3236:	0f 84 df 00 00 00    	je     331b <main+0x75b>
323c:	e8 df f5 ff ff       	call   2820 <__lxstat@plt>
3241:	85 c0                	test   eax,eax
3243:	0f 95 c0             	setne  al
3246:	84 c0                	test   al,al
3248:	0f 85 89 02 00 00    	jne    34d7 <main+0x917>
324e:	48 8b 84 24 98 00 00 	mov    rax,QWORD PTR [rsp+0x98]
3255:	00
3256:	4d 85 ff             	test   r15,r15
3259:	48 89 05 c0 1e 21 00 	mov    QWORD PTR [rip+0x211ec0],rax        # 215120 <newtime>
3260:	48 8b 84 24 a0 00 00 	mov    rax,QWORD PTR [rsp+0xa0]
3267:	00
3268:	48 89 05 b9 1e 21 00 	mov    QWORD PTR [rip+0x211eb9],rax        # 215128 <newtime+0x8>
326f:	48 8b 84 24 a8 00 00 	mov    rax,QWORD PTR [rsp+0xa8]
3276:	00
3277:	48 89 05 b2 1e 21 00 	mov    QWORD PTR [rip+0x211eb2],rax        # 215130 <newtime+0x10>
327e:	48 8b 84 24 b0 00 00 	mov    rax,QWORD PTR [rsp+0xb0]
3285:	00
3286:	48 89 05 ab 1e 21 00 	mov    QWORD PTR [rip+0x211eab],rax        # 215138 <newtime+0x18>
328d:	0f 84 d3 fb ff ff    	je     2e66 <main+0x2a6>
3293:	8b 05 ab 1e 21 00    	mov    eax,DWORD PTR [rip+0x211eab]        # 215144 <change_times>
3299:	a8 01                	test   al,0x1
329b:	74 18                	je     32b5 <main+0x6f5>
329d:	48 8d 15 7c 1e 21 00 	lea    rdx,[rip+0x211e7c]        # 215120 <newtime>
32a4:	4c 89 fe             	mov    rsi,r15
32a7:	48 89 d7             	mov    rdi,rdx
32aa:	e8 91 03 00 00       	call   3640 <get_reldate>
32af:	8b 05 8f 1e 21 00    	mov    eax,DWORD PTR [rip+0x211e8f]        # 215144 <change_times>
32b5:	a8 02                	test   al,0x2
32b7:	0f 84 a9 fb ff ff    	je     2e66 <main+0x2a6>
32bd:	48 8d 15 6c 1e 21 00 	lea    rdx,[rip+0x211e6c]        # 215130 <newtime+0x10>
32c4:	4c 89 fe             	mov    rsi,r15
32c7:	48 89 d7             	mov    rdi,rdx
32ca:	e8 71 03 00 00       	call   3640 <get_reldate>
32cf:	e9 92 fb ff ff       	jmp    2e66 <main+0x2a6>
32d4:	31 ff                	xor    edi,edi
32d6:	b9 b6 01 00 00       	mov    ecx,0x1b6
32db:	ba 41 09 00 00       	mov    edx,0x941
32e0:	4c 89 ee             	mov    rsi,r13
32e3:	45 31 f6             	xor    r14d,r14d
32e6:	e8 05 0c 00 00       	call   3ef0 <fd_reopen>
32eb:	83 f8 ff             	cmp    eax,0xffffffff
32ee:	41 89 c7             	mov    r15d,eax
32f1:	0f 85 a4 fc ff ff    	jne    2f9b <main+0x3db>
32f7:	e8 54 f4 ff ff       	call   2750 <__errno_location@plt>
32fc:	44 8b 30             	mov    r14d,DWORD PTR [rax]
32ff:	41 8d 46 eb          	lea    eax,[r14-0x15]
3303:	83 f8 01             	cmp    eax,0x1
3306:	0f 86 89 fc ff ff    	jbe    2f95 <main+0x3d5>
330c:	41 83 fe 01          	cmp    r14d,0x1
3310:	0f 85 85 fc ff ff    	jne    2f9b <main+0x3db>
3316:	e9 7a fc ff ff       	jmp    2f95 <main+0x3d5>
331b:	e8 a0 f6 ff ff       	call   29c0 <__xstat@plt>
3320:	85 c0                	test   eax,eax
3322:	0f 95 c0             	setne  al
3325:	e9 1c ff ff ff       	jmp    3246 <main+0x686>
332a:	c6 05 0f 1e 21 00 01 	mov    BYTE PTR [rip+0x211e0f],0x1        # 215140 <amtime_now>
3331:	e9 30 fb ff ff       	jmp    2e66 <main+0x2a6>
3336:	e8 b5 57 00 00       	call   8af0 <posix2_version>
333b:	3d af 0d 03 00       	cmp    eax,0x30daf
3340:	0f 8f f2 fd ff ff    	jg     3138 <main+0x578>
3346:	48 63 05 63 1d 21 00 	movsxd rax,DWORD PTR [rip+0x211d63]        # 2150b0 <optind@@GLIBC_2.2.5>
334d:	48 8d 3d cc 1d 21 00 	lea    rdi,[rip+0x211dcc]        # 215120 <newtime>
3354:	ba 09 00 00 00       	mov    edx,0x9
3359:	48 8b 74 c5 00       	mov    rsi,QWORD PTR [rbp+rax*8+0x0]
335e:	e8 9d 54 00 00       	call   8800 <posixtime>
3363:	84 c0                	test   al,al
3365:	0f 84 cd fd ff ff    	je     3138 <main+0x578>
336b:	48 c7 05 b2 1d 21 00 	mov    QWORD PTR [rip+0x211db2],0x0        # 215128 <newtime+0x8>
3372:	00 00 00 00
3376:	48 8d 3d d4 c4 00 00 	lea    rdi,[rip+0xc4d4]        # f851 <_IO_stdin_used+0x131>
337d:	66 0f 6f 05 9b 1d 21 	movdqa xmm0,XMMWORD PTR [rip+0x211d9b]        # 215120 <newtime>
3384:	00
3385:	0f 29 05 a4 1d 21 00 	movaps XMMWORD PTR [rip+0x211da4],xmm0        # 215130 <newtime+0x10>
338c:	e8 5f f3 ff ff       	call   26f0 <getenv@plt>
3391:	48 85 c0             	test   rax,rax
3394:	0f 84 a0 00 00 00    	je     343a <main+0x87a>
339a:	83 05 0f 1d 21 00 01 	add    DWORD PTR [rip+0x211d0f],0x1        # 2150b0 <optind@@GLIBC_2.2.5>
33a1:	e9 c0 fa ff ff       	jmp    2e66 <main+0x2a6>
33a6:	81 fb 7e ff ff ff    	cmp    ebx,0xffffff7e
33ac:	75 28                	jne    33d6 <main+0x816>
33ae:	31 ff                	xor    edi,edi
33b0:	e8 db 02 00 00       	call   3690 <usage>
33b5:	48 8d 35 a5 c4 00 00 	lea    rsi,[rip+0xc4a5]        # f861 <_IO_stdin_used+0x141>
33bc:	ba 05 00 00 00       	mov    edx,0x5
33c1:	31 ff                	xor    edi,edi
33c3:	e8 28 f4 ff ff       	call   27f0 <dcgettext@plt>
33c8:	31 f6                	xor    esi,esi
33ca:	48 89 c2             	mov    rdx,rax
33cd:	31 ff                	xor    edi,edi
33cf:	31 c0                	xor    eax,eax
33d1:	e8 9a f6 ff ff       	call   2a70 <error@plt>
33d6:	bf 01 00 00 00       	mov    edi,0x1
33db:	e8 b0 02 00 00       	call   3690 <usage>
33e0:	e8 4b f4 ff ff       	call   2830 <__stack_chk_fail@plt>
33e5:	48 8d 0d 34 cc 00 00 	lea    rcx,[rip+0xcc34]        # 10020 <__PRETTY_FUNCTION__.6981>
33ec:	48 8d 35 83 c4 00 00 	lea    rsi,[rip+0xc483]        # f876 <_IO_stdin_used+0x156>
33f3:	48 8d 3d 9a c4 00 00 	lea    rdi,[rip+0xc49a]        # f894 <_IO_stdin_used+0x174>
33fa:	ba 99 00 00 00       	mov    edx,0x99
33ff:	e8 cc f4 ff ff       	call   28d0 <__assert_fail@plt>
3404:	48 8b 3d ad 1c 21 00 	mov    rdi,QWORD PTR [rip+0x211cad]        # 2150b8 <optarg@@GLIBC_2.2.5>
340b:	e8 80 74 00 00       	call   a890 <quote>
3410:	48 8d 35 0d c3 00 00 	lea    rsi,[rip+0xc30d]        # f724 <_IO_stdin_used+0x4>
3417:	48 89 c3             	mov    rbx,rax
341a:	ba 05 00 00 00       	mov    edx,0x5
341f:	31 ff                	xor    edi,edi
3421:	e8 ca f3 ff ff       	call   27f0 <dcgettext@plt>
3426:	48 89 d9             	mov    rcx,rbx
3429:	48 89 c2             	mov    rdx,rax
342c:	31 f6                	xor    esi,esi
342e:	bf 01 00 00 00       	mov    edi,0x1
3433:	31 c0                	xor    eax,eax
3435:	e8 36 f6 ff ff       	call   2a70 <error@plt>
343a:	48 8d 3d df 1c 21 00 	lea    rdi,[rip+0x211cdf]        # 215120 <newtime>
3441:	e8 ea f2 ff ff       	call   2730 <localtime@plt>
3446:	48 85 c0             	test   rax,rax
3449:	0f 84 4b ff ff ff    	je     339a <main+0x7da>
344f:	44 8b 10             	mov    r10d,DWORD PTR [rax]
3452:	44 8b 48 04          	mov    r9d,DWORD PTR [rax+0x4]
3456:	48 8d 35 73 cb 00 00 	lea    rsi,[rip+0xcb73]        # ffd0 <_IO_stdin_used+0x8b0>
345d:	44 8b 78 08          	mov    r15d,DWORD PTR [rax+0x8]
3461:	44 8b 70 0c          	mov    r14d,DWORD PTR [rax+0xc]
3465:	31 ff                	xor    edi,edi
3467:	8b 50 10             	mov    edx,DWORD PTR [rax+0x10]
346a:	4c 63 68 14          	movsxd r13,DWORD PTR [rax+0x14]
346e:	48 63 05 3b 1c 21 00 	movsxd rax,DWORD PTR [rip+0x211c3b]        # 2150b0 <optind@@GLIBC_2.2.5>
3475:	44 89 54 24 1c       	mov    DWORD PTR [rsp+0x1c],r10d
347a:	44 89 4c 24 18       	mov    DWORD PTR [rsp+0x18],r9d
347f:	83 c2 01             	add    edx,0x1
3482:	89 54 24 0c          	mov    DWORD PTR [rsp+0xc],edx
3486:	ba 05 00 00 00       	mov    edx,0x5
348b:	49 81 c5 6c 07 00 00 	add    r13,0x76c
3492:	48 8b 4c c5 00       	mov    rcx,QWORD PTR [rbp+rax*8+0x0]
3497:	48 89 4c 24 10       	mov    QWORD PTR [rsp+0x10],rcx
349c:	e8 4f f3 ff ff       	call   27f0 <dcgettext@plt>
34a1:	44 8b 54 24 1c       	mov    r10d,DWORD PTR [rsp+0x1c]
34a6:	48 89 c2             	mov    rdx,rax
34a9:	4d 89 e8             	mov    r8,r13
34ac:	31 f6                	xor    esi,esi
34ae:	31 ff                	xor    edi,edi
34b0:	31 c0                	xor    eax,eax
34b2:	41 52                	push   r10
34b4:	44 8b 4c 24 20       	mov    r9d,DWORD PTR [rsp+0x20]
34b9:	41 51                	push   r9
34bb:	41 57                	push   r15
34bd:	41 56                	push   r14
34bf:	44 8b 4c 24 2c       	mov    r9d,DWORD PTR [rsp+0x2c]
34c4:	48 8b 4c 24 30       	mov    rcx,QWORD PTR [rsp+0x30]
34c9:	e8 a2 f5 ff ff       	call   2a70 <error@plt>
34ce:	48 83 c4 20          	add    rsp,0x20
34d2:	e9 c3 fe ff ff       	jmp    339a <main+0x7da>
34d7:	4c 89 ee             	mov    rsi,r13
34da:	bf 04 00 00 00       	mov    edi,0x4
34df:	e8 dc 70 00 00       	call   a5c0 <quotearg_style>
34e4:	48 8d 35 c5 ca 00 00 	lea    rsi,[rip+0xcac5]        # ffb0 <_IO_stdin_used+0x890>
34eb:	ba 05 00 00 00       	mov    edx,0x5
34f0:	31 ff                	xor    edi,edi
34f2:	48 89 c5             	mov    rbp,rax
34f5:	e8 f6 f2 ff ff       	call   27f0 <dcgettext@plt>
34fa:	48 89 c3             	mov    rbx,rax
34fd:	e8 4e f2 ff ff       	call   2750 <__errno_location@plt>
3502:	8b 30                	mov    esi,DWORD PTR [rax]
3504:	48 89 e9             	mov    rcx,rbp
3507:	48 89 da             	mov    rdx,rbx
350a:	bf 01 00 00 00       	mov    edi,0x1
350f:	31 c0                	xor    eax,eax
3511:	e8 5a f5 ff ff       	call   2a70 <error@plt>
3516:	ba 05 00 00 00       	mov    edx,0x5
351b:	48 8d 35 5e ca 00 00 	lea    rsi,[rip+0xca5e]        # ff80 <_IO_stdin_used+0x860>
3522:	e9 9a fe ff ff       	jmp    33c1 <main+0x801>
3527:	66 0f 1f 84 00 00 00 	nop    WORD PTR [rax+rax*1+0x0]
352e:	00 00

0000000000003530 <_start>:
3530:	31 ed                	xor    ebp,ebp
3532:	49 89 d1             	mov    r9,rdx
3535:	5e                   	pop    rsi
3536:	48 89 e2             	mov    rdx,rsp
3539:	48 83 e4 f0          	and    rsp,0xfffffffffffffff0
353d:	50                   	push   rax
353e:	54                   	push   rsp
353f:	4c 8d 05 aa c1 00 00 	lea    r8,[rip+0xc1aa]        # f6f0 <__libc_csu_fini>
3546:	48 8d 0d 33 c1 00 00 	lea    rcx,[rip+0xc133]        # f680 <__libc_csu_init>
354d:	48 8d 3d 6c f6 ff ff 	lea    rdi,[rip+0xfffffffffffff66c]        # 2bc0 <main>
3554:	ff 15 86 1a 21 00    	call   QWORD PTR [rip+0x211a86]        # 214fe0 <__libc_start_main@GLIBC_2.2.5>
355a:	f4                   	hlt
355b:	0f 1f 44 00 00       	nop    DWORD PTR [rax+rax*1+0x0]

0000000000003560 <deregister_tm_clones>:
3560:	48 8d 3d 39 1b 21 00 	lea    rdi,[rip+0x211b39]        # 2150a0 <__progname@@GLIBC_2.2.5>
3567:	55                   	push   rbp
3568:	48 8d 05 31 1b 21 00 	lea    rax,[rip+0x211b31]        # 2150a0 <__progname@@GLIBC_2.2.5>
356f:	48 39 f8             	cmp    rax,rdi
3572:	48 89 e5             	mov    rbp,rsp
3575:	74 19                	je     3590 <deregister_tm_clones+0x30>
3577:	48 8b 05 5a 1a 21 00 	mov    rax,QWORD PTR [rip+0x211a5a]        # 214fd8 <_ITM_deregisterTMCloneTable>
357e:	48 85 c0             	test   rax,rax
3581:	74 0d                	je     3590 <deregister_tm_clones+0x30>
3583:	5d                   	pop    rbp
3584:	ff e0                	jmp    rax
3586:	66 2e 0f 1f 84 00 00 	nop    WORD PTR cs:[rax+rax*1+0x0]
358d:	00 00 00
3590:	5d                   	pop    rbp
3591:	c3                   	ret
3592:	0f 1f 40 00          	nop    DWORD PTR [rax+0x0]
3596:	66 2e 0f 1f 84 00 00 	nop    WORD PTR cs:[rax+rax*1+0x0]
359d:	00 00 00

00000000000035a0 <register_tm_clones>:
35a0:	48 8d 3d f9 1a 21 00 	lea    rdi,[rip+0x211af9]        # 2150a0 <__progname@@GLIBC_2.2.5>
35a7:	48 8d 35 f2 1a 21 00 	lea    rsi,[rip+0x211af2]        # 2150a0 <__progname@@GLIBC_2.2.5>
35ae:	55                   	push   rbp
35af:	48 29 fe             	sub    rsi,rdi
35b2:	48 89 e5             	mov    rbp,rsp
35b5:	48 c1 fe 03          	sar    rsi,0x3
35b9:	48 89 f0             	mov    rax,rsi
35bc:	48 c1 e8 3f          	shr    rax,0x3f
35c0:	48 01 c6             	add    rsi,rax
35c3:	48 d1 fe             	sar    rsi,1
35c6:	74 18                	je     35e0 <register_tm_clones+0x40>
35c8:	48 8b 05 21 1a 21 00 	mov    rax,QWORD PTR [rip+0x211a21]        # 214ff0 <_ITM_registerTMCloneTable>
35cf:	48 85 c0             	test   rax,rax
35d2:	74 0c                	je     35e0 <register_tm_clones+0x40>
35d4:	5d                   	pop    rbp
35d5:	ff e0                	jmp    rax
35d7:	66 0f 1f 84 00 00 00 	nop    WORD PTR [rax+rax*1+0x0]
35de:	00 00
35e0:	5d                   	pop    rbp
35e1:	c3                   	ret
35e2:	0f 1f 40 00          	nop    DWORD PTR [rax+0x0]
35e6:	66 2e 0f 1f 84 00 00 	nop    WORD PTR cs:[rax+rax*1+0x0]
35ed:	00 00 00

00000000000035f0 <__do_global_dtors_aux>:
35f0:	80 3d f1 1a 21 00 00 	cmp    BYTE PTR [rip+0x211af1],0x0        # 2150e8 <completed.7697>
35f7:	75 2f                	jne    3628 <__do_global_dtors_aux+0x38>
35f9:	48 83 3d f7 19 21 00 	cmp    QWORD PTR [rip+0x2119f7],0x0        # 214ff8 <__cxa_finalize@GLIBC_2.2.5>
3600:	00
3601:	55                   	push   rbp
3602:	48 89 e5             	mov    rbp,rsp
3605:	74 0c                	je     3613 <__do_global_dtors_aux+0x23>
3607:	48 8b 3d fa 19 21 00 	mov    rdi,QWORD PTR [rip+0x2119fa]        # 215008 <__dso_handle>
360e:	e8 3d f5 ff ff       	call   2b50 <__cxa_finalize@plt>
3613:	e8 48 ff ff ff       	call   3560 <deregister_tm_clones>
3618:	c6 05 c9 1a 21 00 01 	mov    BYTE PTR [rip+0x211ac9],0x1        # 2150e8 <completed.7697>
361f:	5d                   	pop    rbp
3620:	c3                   	ret
3621:	0f 1f 80 00 00 00 00 	nop    DWORD PTR [rax+0x0]
3628:	f3 c3                	repz ret
362a:	66 0f 1f 44 00 00    	nop    WORD PTR [rax+rax*1+0x0]

0000000000003630 <frame_dummy>:
3630:	55                   	push   rbp
3631:	48 89 e5             	mov    rbp,rsp
3634:	5d                   	pop    rbp
3635:	e9 66 ff ff ff       	jmp    35a0 <register_tm_clones>
363a:	66 0f 1f 44 00 00    	nop    WORD PTR [rax+rax*1+0x0]

0000000000003640 <get_reldate>:
3640:	53                   	push   rbx
3641:	48 89 f3             	mov    rbx,rsi
3644:	e8 87 50 00 00       	call   86d0 <parse_datetime>
3649:	84 c0                	test   al,al
364b:	74 02                	je     364f <get_reldate+0xf>
364d:	5b                   	pop    rbx
364e:	c3                   	ret
364f:	48 89 df             	mov    rdi,rbx
3652:	e8 39 72 00 00       	call   a890 <quote>
3657:	48 8d 35 c6 c0 00 00 	lea    rsi,[rip+0xc0c6]        # f724 <_IO_stdin_used+0x4>
365e:	48 89 c3             	mov    rbx,rax
3661:	ba 05 00 00 00       	mov    edx,0x5
3666:	31 ff                	xor    edi,edi
3668:	e8 83 f1 ff ff       	call   27f0 <dcgettext@plt>
366d:	48 89 d9             	mov    rcx,rbx
3670:	48 89 c2             	mov    rdx,rax
3673:	31 f6                	xor    esi,esi
3675:	bf 01 00 00 00       	mov    edi,0x1
367a:	31 c0                	xor    eax,eax
367c:	e8 ef f3 ff ff       	call   2a70 <error@plt>
3681:	0f 1f 44 00 00       	nop    DWORD PTR [rax+rax*1+0x0]
3686:	66 2e 0f 1f 84 00 00 	nop    WORD PTR cs:[rax+rax*1+0x0]
368d:	00 00 00

0000000000003690 <usage>:
3690:	41 55                	push   r13
3692:	41 54                	push   r12
3694:	ba 05 00 00 00       	mov    edx,0x5
3699:	55                   	push   rbp
369a:	53                   	push   rbx
369b:	89 fd                	mov    ebp,edi
369d:	48 81 ec 88 00 00 00 	sub    rsp,0x88
36a4:	48 8b 1d ad 1a 21 00 	mov    rbx,QWORD PTR [rip+0x211aad]        # 215158 <program_name>
36ab:	64 48 8b 04 25 28 00 	mov    rax,QWORD PTR fs:0x28
36b2:	00 00
36b4:	48 89 44 24 78       	mov    QWORD PTR [rsp+0x78],rax
36b9:	31 c0                	xor    eax,eax
36bb:	85 ff                	test   edi,edi
36bd:	74 2e                	je     36ed <usage+0x5d>
36bf:	48 8d 35 6a c2 00 00 	lea    rsi,[rip+0xc26a]        # f930 <_IO_stdin_used+0x210>
36c6:	31 ff                	xor    edi,edi
36c8:	e8 23 f1 ff ff       	call   27f0 <dcgettext@plt>
36cd:	48 8b 3d 0c 1a 21 00 	mov    rdi,QWORD PTR [rip+0x211a0c]        # 2150e0 <stderr@@GLIBC_2.2.5>
36d4:	48 89 c2             	mov    rdx,rax
36d7:	48 89 d9             	mov    rcx,rbx
36da:	be 01 00 00 00       	mov    esi,0x1
36df:	31 c0                	xor    eax,eax
36e1:	e8 0a f4 ff ff       	call   2af0 <__fprintf_chk@plt>
36e6:	89 ef                	mov    edi,ebp
36e8:	e8 e3 f3 ff ff       	call   2ad0 <exit@plt>
36ed:	48 8d 35 64 c2 00 00 	lea    rsi,[rip+0xc264]        # f958 <_IO_stdin_used+0x238>
36f4:	31 ff                	xor    edi,edi
36f6:	e8 f5 f0 ff ff       	call   27f0 <dcgettext@plt>
36fb:	48 89 da             	mov    rdx,rbx
36fe:	48 89 c6             	mov    rsi,rax
3701:	bf 01 00 00 00       	mov    edi,0x1
3706:	31 c0                	xor    eax,eax
3708:	e8 33 f3 ff ff       	call   2a40 <__printf_chk@plt>
370d:	48 8b 1d 94 19 21 00 	mov    rbx,QWORD PTR [rip+0x211994]        # 2150a8 <stdout@@GLIBC_2.2.5>
3714:	48 8d 35 5d c2 00 00 	lea    rsi,[rip+0xc25d]        # f978 <_IO_stdin_used+0x258>
371b:	ba 05 00 00 00       	mov    edx,0x5
3720:	31 ff                	xor    edi,edi
3722:	e8 c9 f0 ff ff       	call   27f0 <dcgettext@plt>
3727:	48 89 de             	mov    rsi,rbx
372a:	48 89 c7             	mov    rdi,rax
372d:	e8 fe f1 ff ff       	call   2930 <fputs_unlocked@plt>
3732:	48 8b 1d 6f 19 21 00 	mov    rbx,QWORD PTR [rip+0x21196f]        # 2150a8 <stdout@@GLIBC_2.2.5>
3739:	48 8d 35 60 c3 00 00 	lea    rsi,[rip+0xc360]        # faa0 <_IO_stdin_used+0x380>
3740:	ba 05 00 00 00       	mov    edx,0x5
3745:	31 ff                	xor    edi,edi
3747:	e8 a4 f0 ff ff       	call   27f0 <dcgettext@plt>
374c:	48 89 de             	mov    rsi,rbx
374f:	48 89 c7             	mov    rdi,rax
3752:	e8 d9 f1 ff ff       	call   2930 <fputs_unlocked@plt>
3757:	48 8b 1d 4a 19 21 00 	mov    rbx,QWORD PTR [rip+0x21194a]        # 2150a8 <stdout@@GLIBC_2.2.5>
375e:	48 8d 35 8b c3 00 00 	lea    rsi,[rip+0xc38b]        # faf0 <_IO_stdin_used+0x3d0>
3765:	ba 05 00 00 00       	mov    edx,0x5
376a:	31 ff                	xor    edi,edi
376c:	e8 7f f0 ff ff       	call   27f0 <dcgettext@plt>
3771:	48 89 de             	mov    rsi,rbx
3774:	48 89 c7             	mov    rdi,rax
3777:	e8 b4 f1 ff ff       	call   2930 <fputs_unlocked@plt>
377c:	48 8b 1d 25 19 21 00 	mov    rbx,QWORD PTR [rip+0x211925]        # 2150a8 <stdout@@GLIBC_2.2.5>
3783:	48 8d 35 3e c4 00 00 	lea    rsi,[rip+0xc43e]        # fbc8 <_IO_stdin_used+0x4a8>
378a:	ba 05 00 00 00       	mov    edx,0x5
378f:	31 ff                	xor    edi,edi
3791:	e8 5a f0 ff ff       	call   27f0 <dcgettext@plt>
3796:	48 89 de             	mov    rsi,rbx
3799:	48 89 c7             	mov    rdi,rax
379c:	e8 8f f1 ff ff       	call   2930 <fputs_unlocked@plt>
37a1:	48 8b 1d 00 19 21 00 	mov    rbx,QWORD PTR [rip+0x211900]        # 2150a8 <stdout@@GLIBC_2.2.5>
37a8:	48 8d 35 21 c5 00 00 	lea    rsi,[rip+0xc521]        # fcd0 <_IO_stdin_used+0x5b0>
37af:	ba 05 00 00 00       	mov    edx,0x5
37b4:	31 ff                	xor    edi,edi
37b6:	e8 35 f0 ff ff       	call   27f0 <dcgettext@plt>
37bb:	48 89 de             	mov    rsi,rbx
37be:	48 89 c7             	mov    rdi,rax
37c1:	e8 6a f1 ff ff       	call   2930 <fputs_unlocked@plt>
37c6:	48 8b 1d db 18 21 00 	mov    rbx,QWORD PTR [rip+0x2118db]        # 2150a8 <stdout@@GLIBC_2.2.5>
37cd:	48 8d 35 54 c6 00 00 	lea    rsi,[rip+0xc654]        # fe28 <_IO_stdin_used+0x708>
37d4:	ba 05 00 00 00       	mov    edx,0x5
37d9:	31 ff                	xor    edi,edi
37db:	e8 10 f0 ff ff       	call   27f0 <dcgettext@plt>
37e0:	48 89 de             	mov    rsi,rbx
37e3:	48 89 c7             	mov    rdi,rax
37e6:	e8 45 f1 ff ff       	call   2930 <fputs_unlocked@plt>
37eb:	48 8b 1d b6 18 21 00 	mov    rbx,QWORD PTR [rip+0x2118b6]        # 2150a8 <stdout@@GLIBC_2.2.5>
37f2:	48 8d 35 5f c6 00 00 	lea    rsi,[rip+0xc65f]        # fe58 <_IO_stdin_used+0x738>
37f9:	ba 05 00 00 00       	mov    edx,0x5
37fe:	31 ff                	xor    edi,edi
3800:	e8 eb ef ff ff       	call   27f0 <dcgettext@plt>
3805:	48 89 de             	mov    rsi,rbx
3808:	48 89 c7             	mov    rdi,rax
380b:	e8 20 f1 ff ff       	call   2930 <fputs_unlocked@plt>
3810:	48 8b 1d 91 18 21 00 	mov    rbx,QWORD PTR [rip+0x211891]        # 2150a8 <stdout@@GLIBC_2.2.5>
3817:	48 8d 35 72 c6 00 00 	lea    rsi,[rip+0xc672]        # fe90 <_IO_stdin_used+0x770>
381e:	ba 05 00 00 00       	mov    edx,0x5
3823:	31 ff                	xor    edi,edi
3825:	e8 c6 ef ff ff       	call   27f0 <dcgettext@plt>
382a:	48 89 de             	mov    rsi,rbx
382d:	48 89 c7             	mov    rdi,rax
3830:	48 8d 1d 04 bf 00 00 	lea    rbx,[rip+0xbf04]        # f73b <_IO_stdin_used+0x1b>
3837:	e8 f4 f0 ff ff       	call   2930 <fputs_unlocked@plt>
383c:	48 8d 05 fe be 00 00 	lea    rax,[rip+0xbefe]        # f741 <_IO_stdin_used+0x21>
3843:	48 8d 0d 38 bf 00 00 	lea    rcx,[rip+0xbf38]        # f782 <_IO_stdin_used+0x62>
384a:	48 c7 44 24 60 00 00 	mov    QWORD PTR [rsp+0x60],0x0
3851:	00 00
3853:	48 c7 44 24 68 00 00 	mov    QWORD PTR [rsp+0x68],0x0
385a:	00 00
385c:	48 89 e2             	mov    rdx,rsp
385f:	48 89 04 24          	mov    QWORD PTR [rsp],rax
3863:	48 8d 05 d9 be 00 00 	lea    rax,[rip+0xbed9]        # f743 <_IO_stdin_used+0x23>
386a:	48 89 4c 24 30       	mov    QWORD PTR [rsp+0x30],rcx
386f:	48 8d 0d 16 bf 00 00 	lea    rcx,[rip+0xbf16]        # f78c <_IO_stdin_used+0x6c>
3876:	48 89 44 24 08       	mov    QWORD PTR [rsp+0x8],rax
387b:	48 8d 05 39 bf 00 00 	lea    rax,[rip+0xbf39]        # f7bb <_IO_stdin_used+0x9b>
3882:	48 89 4c 24 40       	mov    QWORD PTR [rsp+0x40],rcx
3887:	48 8d 0d 08 bf 00 00 	lea    rcx,[rip+0xbf08]        # f796 <_IO_stdin_used+0x76>
388e:	48 89 44 24 10       	mov    QWORD PTR [rsp+0x10],rax
3893:	48 8d 05 b9 be 00 00 	lea    rax,[rip+0xbeb9]        # f753 <_IO_stdin_used+0x33>
389a:	48 89 4c 24 50       	mov    QWORD PTR [rsp+0x50],rcx
389f:	48 89 44 24 18       	mov    QWORD PTR [rsp+0x18],rax
38a4:	48 8d 05 be be 00 00 	lea    rax,[rip+0xbebe]        # f769 <_IO_stdin_used+0x49>
38ab:	48 89 44 24 20       	mov    QWORD PTR [rsp+0x20],rax
38b0:	48 8d 05 bc be 00 00 	lea    rax,[rip+0xbebc]        # f773 <_IO_stdin_used+0x53>
38b7:	48 89 44 24 28       	mov    QWORD PTR [rsp+0x28],rax
38bc:	48 89 44 24 38       	mov    QWORD PTR [rsp+0x38],rax
38c1:	48 89 44 24 48       	mov    QWORD PTR [rsp+0x48],rax
38c6:	48 89 44 24 58       	mov    QWORD PTR [rsp+0x58],rax
38cb:	0f 1f 44 00 00       	nop    DWORD PTR [rax+rax*1+0x0]
38d0:	48 83 c2 10          	add    rdx,0x10
38d4:	48 8b 3a             	mov    rdi,QWORD PTR [rdx]
38d7:	48 85 ff             	test   rdi,rdi
38da:	74 13                	je     38ef <usage+0x25f>
38dc:	b9 06 00 00 00       	mov    ecx,0x6
38e1:	48 89 de             	mov    rsi,rbx
38e4:	f3 a6                	repz cmps BYTE PTR ds:[rsi],BYTE PTR es:[rdi]
38e6:	0f 97 c0             	seta   al
38e9:	1c 00                	sbb    al,0x0
38eb:	84 c0                	test   al,al
38ed:	75 e1                	jne    38d0 <usage+0x240>
38ef:	4c 8b 62 08          	mov    r12,QWORD PTR [rdx+0x8]
38f3:	31 ff                	xor    edi,edi
38f5:	ba 05 00 00 00       	mov    edx,0x5
38fa:	48 8d 35 9f be 00 00 	lea    rsi,[rip+0xbe9f]        # f7a0 <_IO_stdin_used+0x80>
3901:	4d 85 e4             	test   r12,r12
3904:	0f 84 c1 00 00 00    	je     39cb <usage+0x33b>
390a:	e8 e1 ee ff ff       	call   27f0 <dcgettext@plt>
390f:	48 8d 0d c2 c5 00 00 	lea    rcx,[rip+0xc5c2]        # fed8 <_IO_stdin_used+0x7b8>
3916:	48 8d 15 9a be 00 00 	lea    rdx,[rip+0xbe9a]        # f7b7 <_IO_stdin_used+0x97>
391d:	48 89 c6             	mov    rsi,rax
3920:	bf 01 00 00 00       	mov    edi,0x1
3925:	31 c0                	xor    eax,eax
3927:	e8 14 f1 ff ff       	call   2a40 <__printf_chk@plt>
392c:	31 f6                	xor    esi,esi
392e:	bf 05 00 00 00       	mov    edi,0x5
3933:	e8 f8 f0 ff ff       	call   2a30 <setlocale@plt>
3938:	48 85 c0             	test   rax,rax
393b:	74 1c                	je     3959 <usage+0x2c9>
393d:	48 8d 35 81 be 00 00 	lea    rsi,[rip+0xbe81]        # f7c5 <_IO_stdin_used+0xa5>
3944:	ba 03 00 00 00       	mov    edx,0x3
3949:	48 89 c7             	mov    rdi,rax
394c:	e8 0f ee ff ff       	call   2760 <strncmp@plt>
3951:	85 c0                	test   eax,eax
3953:	0f 85 07 01 00 00    	jne    3a60 <usage+0x3d0>
3959:	48 8d 35 69 be 00 00 	lea    rsi,[rip+0xbe69]        # f7c9 <_IO_stdin_used+0xa9>
3960:	31 ff                	xor    edi,edi
3962:	ba 05 00 00 00       	mov    edx,0x5
3967:	e8 84 ee ff ff       	call   27f0 <dcgettext@plt>
396c:	48 8d 0d c8 bd 00 00 	lea    rcx,[rip+0xbdc8]        # f73b <_IO_stdin_used+0x1b>
3973:	48 8d 15 5e c5 00 00 	lea    rdx,[rip+0xc55e]        # fed8 <_IO_stdin_used+0x7b8>
397a:	48 89 c6             	mov    rsi,rax
397d:	bf 01 00 00 00       	mov    edi,0x1
3982:	31 c0                	xor    eax,eax
3984:	e8 b7 f0 ff ff       	call   2a40 <__printf_chk@plt>
3989:	49 39 dc             	cmp    r12,rbx
398c:	48 8d 0d ca bd 00 00 	lea    rcx,[rip+0xbdca]        # f75d <_IO_stdin_used+0x3d>
3993:	48 8d 1d dc c9 00 00 	lea    rbx,[rip+0xc9dc]        # 10376 <time_masks+0x346>
399a:	48 0f 44 d9          	cmove  rbx,rcx
399e:	48 8d 35 a3 c5 00 00 	lea    rsi,[rip+0xc5a3]        # ff48 <_IO_stdin_used+0x828>
39a5:	31 ff                	xor    edi,edi
39a7:	ba 05 00 00 00       	mov    edx,0x5
39ac:	e8 3f ee ff ff       	call   27f0 <dcgettext@plt>
39b1:	48 89 d9             	mov    rcx,rbx
39b4:	48 89 c6             	mov    rsi,rax
39b7:	4c 89 e2             	mov    rdx,r12
39ba:	bf 01 00 00 00       	mov    edi,0x1
39bf:	31 c0                	xor    eax,eax
39c1:	e8 7a f0 ff ff       	call   2a40 <__printf_chk@plt>
39c6:	e9 1b fd ff ff       	jmp    36e6 <usage+0x56>
39cb:	e8 20 ee ff ff       	call   27f0 <dcgettext@plt>
39d0:	48 8d 0d 01 c5 00 00 	lea    rcx,[rip+0xc501]        # fed8 <_IO_stdin_used+0x7b8>
39d7:	48 8d 15 d9 bd 00 00 	lea    rdx,[rip+0xbdd9]        # f7b7 <_IO_stdin_used+0x97>
39de:	48 89 c6             	mov    rsi,rax
39e1:	bf 01 00 00 00       	mov    edi,0x1
39e6:	31 c0                	xor    eax,eax
39e8:	e8 53 f0 ff ff       	call   2a40 <__printf_chk@plt>
39ed:	31 f6                	xor    esi,esi
39ef:	bf 05 00 00 00       	mov    edi,0x5
39f4:	e8 37 f0 ff ff       	call   2a30 <setlocale@plt>
39f9:	48 85 c0             	test   rax,rax
39fc:	74 18                	je     3a16 <usage+0x386>
39fe:	48 8d 35 c0 bd 00 00 	lea    rsi,[rip+0xbdc0]        # f7c5 <_IO_stdin_used+0xa5>
3a05:	ba 03 00 00 00       	mov    edx,0x3
3a0a:	48 89 c7             	mov    rdi,rax
3a0d:	e8 4e ed ff ff       	call   2760 <strncmp@plt>
3a12:	85 c0                	test   eax,eax
3a14:	75 43                	jne    3a59 <usage+0x3c9>
3a16:	48 8d 35 ac bd 00 00 	lea    rsi,[rip+0xbdac]        # f7c9 <_IO_stdin_used+0xa9>
3a1d:	ba 05 00 00 00       	mov    edx,0x5
3a22:	31 ff                	xor    edi,edi
3a24:	4c 8d 25 10 bd 00 00 	lea    r12,[rip+0xbd10]        # f73b <_IO_stdin_used+0x1b>
3a2b:	48 8d 1d 2b bd 00 00 	lea    rbx,[rip+0xbd2b]        # f75d <_IO_stdin_used+0x3d>
3a32:	e8 b9 ed ff ff       	call   27f0 <dcgettext@plt>
3a37:	48 8d 0d fd bc 00 00 	lea    rcx,[rip+0xbcfd]        # f73b <_IO_stdin_used+0x1b>
3a3e:	48 8d 15 93 c4 00 00 	lea    rdx,[rip+0xc493]        # fed8 <_IO_stdin_used+0x7b8>
3a45:	48 89 c6             	mov    rsi,rax
3a48:	bf 01 00 00 00       	mov    edi,0x1
3a4d:	31 c0                	xor    eax,eax
3a4f:	e8 ec ef ff ff       	call   2a40 <__printf_chk@plt>
3a54:	e9 45 ff ff ff       	jmp    399e <usage+0x30e>
3a59:	4c 8d 25 db bc 00 00 	lea    r12,[rip+0xbcdb]        # f73b <_IO_stdin_used+0x1b>
3a60:	4c 8b 2d 41 16 21 00 	mov    r13,QWORD PTR [rip+0x211641]        # 2150a8 <stdout@@GLIBC_2.2.5>
3a67:	48 8d 35 92 c4 00 00 	lea    rsi,[rip+0xc492]        # ff00 <_IO_stdin_used+0x7e0>
3a6e:	31 ff                	xor    edi,edi
3a70:	ba 05 00 00 00       	mov    edx,0x5
3a75:	e8 76 ed ff ff       	call   27f0 <dcgettext@plt>
3a7a:	4c 89 ee             	mov    rsi,r13
3a7d:	48 89 c7             	mov    rdi,rax
3a80:	e8 ab ee ff ff       	call   2930 <fputs_unlocked@plt>
3a85:	e9 cf fe ff ff       	jmp    3959 <usage+0x2c9>
3a8a:	66 0f 1f 44 00 00    	nop    WORD PTR [rax+rax*1+0x0]

0000000000003a90 <__argmatch_die>:
3a90:	bf 01 00 00 00       	mov    edi,0x1
3a95:	e9 f6 fb ff ff       	jmp    3690 <usage>
3a9a:	66 0f 1f 44 00 00    	nop    WORD PTR [rax+rax*1+0x0]

0000000000003aa0 <argmatch>:
3aa0:	41 57                	push   r15
3aa2:	41 56                	push   r14
3aa4:	49 89 f7             	mov    r15,rsi
3aa7:	41 55                	push   r13
3aa9:	41 54                	push   r12
3aab:	49 89 cd             	mov    r13,rcx
3aae:	55                   	push   rbp
3aaf:	53                   	push   rbx
3ab0:	48 89 d5             	mov    rbp,rdx
3ab3:	48 83 ec 28          	sub    rsp,0x28
3ab7:	48 89 7c 24 08       	mov    QWORD PTR [rsp+0x8],rdi
3abc:	48 89 54 24 18       	mov    QWORD PTR [rsp+0x18],rdx
3ac1:	e8 4a ed ff ff       	call   2810 <strlen@plt>
3ac6:	4d 8b 37             	mov    r14,QWORD PTR [r15]
3ac9:	48 c7 04 24 ff ff ff 	mov    QWORD PTR [rsp],0xffffffffffffffff
3ad0:	ff
3ad1:	4d 85 f6             	test   r14,r14
3ad4:	0f 84 b3 00 00 00    	je     3b8d <argmatch+0xed>
3ada:	49 89 c4             	mov    r12,rax
3add:	c6 44 24 17 00       	mov    BYTE PTR [rsp+0x17],0x0
3ae2:	31 db                	xor    ebx,ebx
3ae4:	eb 51                	jmp    3b37 <argmatch+0x97>
3ae6:	66 2e 0f 1f 84 00 00 	nop    WORD PTR cs:[rax+rax*1+0x0]
3aed:	00 00 00
3af0:	48 8b 44 24 18       	mov    rax,QWORD PTR [rsp+0x18]
3af5:	48 85 c0             	test   rax,rax
3af8:	0f 84 a2 00 00 00    	je     3ba0 <argmatch+0x100>
3afe:	48 8b 3c 24          	mov    rdi,QWORD PTR [rsp]
3b02:	4c 89 ea             	mov    rdx,r13
3b05:	48 89 ee             	mov    rsi,rbp
3b08:	49 0f af fd          	imul   rdi,r13
3b0c:	48 01 c7             	add    rdi,rax
3b0f:	e8 0c ee ff ff       	call   2920 <memcmp@plt>
3b14:	85 c0                	test   eax,eax
3b16:	0f b6 44 24 17       	movzx  eax,BYTE PTR [rsp+0x17]
3b1b:	b9 01 00 00 00       	mov    ecx,0x1
3b20:	0f 45 c1             	cmovne eax,ecx
3b23:	88 44 24 17          	mov    BYTE PTR [rsp+0x17],al
3b27:	48 83 c3 01          	add    rbx,0x1
3b2b:	4c 01 ed             	add    rbp,r13
3b2e:	4d 8b 34 df          	mov    r14,QWORD PTR [r15+rbx*8]
3b32:	4d 85 f6             	test   r14,r14
3b35:	74 41                	je     3b78 <argmatch+0xd8>
3b37:	48 8b 74 24 08       	mov    rsi,QWORD PTR [rsp+0x8]
3b3c:	4c 89 e2             	mov    rdx,r12
3b3f:	4c 89 f7             	mov    rdi,r14
3b42:	e8 19 ec ff ff       	call   2760 <strncmp@plt>
3b47:	85 c0                	test   eax,eax
3b49:	75 dc                	jne    3b27 <argmatch+0x87>
3b4b:	4c 89 f7             	mov    rdi,r14
3b4e:	e8 bd ec ff ff       	call   2810 <strlen@plt>
3b53:	4c 39 e0             	cmp    rax,r12
3b56:	74 58                	je     3bb0 <argmatch+0x110>
3b58:	48 83 3c 24 ff       	cmp    QWORD PTR [rsp],0xffffffffffffffff
3b5d:	75 91                	jne    3af0 <argmatch+0x50>
3b5f:	48 89 1c 24          	mov    QWORD PTR [rsp],rbx
3b63:	48 83 c3 01          	add    rbx,0x1
3b67:	4c 01 ed             	add    rbp,r13
3b6a:	4d 8b 34 df          	mov    r14,QWORD PTR [r15+rbx*8]
3b6e:	4d 85 f6             	test   r14,r14
3b71:	75 c4                	jne    3b37 <argmatch+0x97>
3b73:	0f 1f 44 00 00       	nop    DWORD PTR [rax+rax*1+0x0]
3b78:	80 7c 24 17 00       	cmp    BYTE PTR [rsp+0x17],0x0
3b7d:	48 c7 c0 fe ff ff ff 	mov    rax,0xfffffffffffffffe
3b84:	48 0f 44 04 24       	cmove  rax,QWORD PTR [rsp]
3b89:	48 89 04 24          	mov    QWORD PTR [rsp],rax
3b8d:	48 8b 04 24          	mov    rax,QWORD PTR [rsp]
3b91:	48 83 c4 28          	add    rsp,0x28
3b95:	5b                   	pop    rbx
3b96:	5d                   	pop    rbp
3b97:	41 5c                	pop    r12
3b99:	41 5d                	pop    r13
3b9b:	41 5e                	pop    r14
3b9d:	41 5f                	pop    r15
3b9f:	c3                   	ret
3ba0:	c6 44 24 17 01       	mov    BYTE PTR [rsp+0x17],0x1
3ba5:	eb 80                	jmp    3b27 <argmatch+0x87>
3ba7:	66 0f 1f 84 00 00 00 	nop    WORD PTR [rax+rax*1+0x0]
3bae:	00 00
3bb0:	48 89 1c 24          	mov    QWORD PTR [rsp],rbx
3bb4:	eb d7                	jmp    3b8d <argmatch+0xed>
3bb6:	66 2e 0f 1f 84 00 00 	nop    WORD PTR cs:[rax+rax*1+0x0]
3bbd:	00 00 00

0000000000003bc0 <argmatch_invalid>:
3bc0:	48 83 fa ff          	cmp    rdx,0xffffffffffffffff
3bc4:	41 54                	push   r12
3bc6:	ba 05 00 00 00       	mov    edx,0x5
3bcb:	55                   	push   rbp
3bcc:	49 89 f4             	mov    r12,rsi
3bcf:	53                   	push   rbx
3bd0:	48 89 fd             	mov    rbp,rdi
3bd3:	74 4b                	je     3c20 <argmatch_invalid+0x60>
3bd5:	48 8d 35 88 c4 00 00 	lea    rsi,[rip+0xc488]        # 10064 <time_masks+0x34>
3bdc:	31 ff                	xor    edi,edi
3bde:	e8 0d ec ff ff       	call   27f0 <dcgettext@plt>
3be3:	48 89 c3             	mov    rbx,rax
3be6:	48 89 ee             	mov    rsi,rbp
3be9:	bf 01 00 00 00       	mov    edi,0x1
3bee:	e8 7d 6c 00 00       	call   a870 <quote_n>
3bf3:	4c 89 e2             	mov    rdx,r12
3bf6:	48 89 c5             	mov    rbp,rax
3bf9:	be 08 00 00 00       	mov    esi,0x8
3bfe:	31 ff                	xor    edi,edi
3c00:	e8 9b 68 00 00       	call   a4a0 <quotearg_n_style>
3c05:	49 89 e8             	mov    r8,rbp
3c08:	48 89 da             	mov    rdx,rbx
3c0b:	48 89 c1             	mov    rcx,rax
3c0e:	5b                   	pop    rbx
3c0f:	5d                   	pop    rbp
3c10:	41 5c                	pop    r12
3c12:	31 f6                	xor    esi,esi
3c14:	31 ff                	xor    edi,edi
3c16:	31 c0                	xor    eax,eax
3c18:	e9 53 ee ff ff       	jmp    2a70 <error@plt>
3c1d:	0f 1f 00             	nop    DWORD PTR [rax]
3c20:	48 8d 35 22 c4 00 00 	lea    rsi,[rip+0xc422]        # 10049 <time_masks+0x19>
3c27:	31 ff                	xor    edi,edi
3c29:	e8 c2 eb ff ff       	call   27f0 <dcgettext@plt>
3c2e:	48 89 c3             	mov    rbx,rax
3c31:	eb b3                	jmp    3be6 <argmatch_invalid+0x26>
3c33:	0f 1f 00             	nop    DWORD PTR [rax]
3c36:	66 2e 0f 1f 84 00 00 	nop    WORD PTR cs:[rax+rax*1+0x0]
3c3d:	00 00 00

0000000000003c40 <argmatch_valid>:
3c40:	41 57                	push   r15
3c42:	41 56                	push   r14
3c44:	49 89 fe             	mov    r14,rdi
3c47:	41 55                	push   r13
3c49:	41 54                	push   r12
3c4b:	31 ff                	xor    edi,edi
3c4d:	55                   	push   rbp
3c4e:	53                   	push   rbx
3c4f:	48 89 f5             	mov    rbp,rsi
3c52:	48 8d 35 28 c4 00 00 	lea    rsi,[rip+0xc428]        # 10081 <time_masks+0x51>
3c59:	49 89 d4             	mov    r12,rdx
3c5c:	ba 05 00 00 00       	mov    edx,0x5
3c61:	48 83 ec 08          	sub    rsp,0x8
3c65:	48 8b 1d 74 14 21 00 	mov    rbx,QWORD PTR [rip+0x211474]        # 2150e0 <stderr@@GLIBC_2.2.5>
3c6c:	e8 7f eb ff ff       	call   27f0 <dcgettext@plt>
3c71:	48 89 c7             	mov    rdi,rax
3c74:	48 89 de             	mov    rsi,rbx
3c77:	e8 b4 ec ff ff       	call   2930 <fputs_unlocked@plt>
3c7c:	4d 8b 3e             	mov    r15,QWORD PTR [r14]
3c7f:	4d 85 ff             	test   r15,r15
3c82:	0f 84 90 00 00 00    	je     3d18 <argmatch_valid+0xd8>
3c88:	45 31 ed             	xor    r13d,r13d
3c8b:	31 db                	xor    ebx,ebx
3c8d:	eb 39                	jmp    3cc8 <argmatch_valid+0x88>
3c8f:	90                   	nop
3c90:	4c 89 ff             	mov    rdi,r15
3c93:	48 83 c3 01          	add    rbx,0x1
3c97:	49 89 ed             	mov    r13,rbp
3c9a:	e8 f1 6b 00 00       	call   a890 <quote>
3c9f:	48 8b 3d 3a 14 21 00 	mov    rdi,QWORD PTR [rip+0x21143a]        # 2150e0 <stderr@@GLIBC_2.2.5>
3ca6:	48 8d 15 e9 c3 00 00 	lea    rdx,[rip+0xc3e9]        # 10096 <time_masks+0x66>
3cad:	48 89 c1             	mov    rcx,rax
3cb0:	be 01 00 00 00       	mov    esi,0x1
3cb5:	31 c0                	xor    eax,eax
3cb7:	4c 01 e5             	add    rbp,r12
3cba:	e8 31 ee ff ff       	call   2af0 <__fprintf_chk@plt>
3cbf:	4d 8b 3c de          	mov    r15,QWORD PTR [r14+rbx*8]
3cc3:	4d 85 ff             	test   r15,r15
3cc6:	74 50                	je     3d18 <argmatch_valid+0xd8>
3cc8:	48 85 db             	test   rbx,rbx
3ccb:	74 c3                	je     3c90 <argmatch_valid+0x50>
3ccd:	4c 89 e2             	mov    rdx,r12
3cd0:	48 89 ee             	mov    rsi,rbp
3cd3:	4c 89 ef             	mov    rdi,r13
3cd6:	e8 45 ec ff ff       	call   2920 <memcmp@plt>
3cdb:	85 c0                	test   eax,eax
3cdd:	75 b1                	jne    3c90 <argmatch_valid+0x50>
3cdf:	4c 89 ff             	mov    rdi,r15
3ce2:	48 83 c3 01          	add    rbx,0x1
3ce6:	4c 01 e5             	add    rbp,r12
3ce9:	e8 a2 6b 00 00       	call   a890 <quote>
3cee:	48 8b 3d eb 13 21 00 	mov    rdi,QWORD PTR [rip+0x2113eb]        # 2150e0 <stderr@@GLIBC_2.2.5>
3cf5:	48 8d 15 a2 c3 00 00 	lea    rdx,[rip+0xc3a2]        # 1009e <time_masks+0x6e>
3cfc:	48 89 c1             	mov    rcx,rax
3cff:	be 01 00 00 00       	mov    esi,0x1
3d04:	31 c0                	xor    eax,eax
3d06:	e8 e5 ed ff ff       	call   2af0 <__fprintf_chk@plt>
3d0b:	4d 8b 3c de          	mov    r15,QWORD PTR [r14+rbx*8]
3d0f:	4d 85 ff             	test   r15,r15
3d12:	75 b4                	jne    3cc8 <argmatch_valid+0x88>
3d14:	0f 1f 40 00          	nop    DWORD PTR [rax+0x0]
3d18:	48 8b 3d c1 13 21 00 	mov    rdi,QWORD PTR [rip+0x2113c1]        # 2150e0 <stderr@@GLIBC_2.2.5>
3d1f:	48 8b 47 28          	mov    rax,QWORD PTR [rdi+0x28]
3d23:	48 3b 47 30          	cmp    rax,QWORD PTR [rdi+0x30]
3d27:	73 1f                	jae    3d48 <argmatch_valid+0x108>
3d29:	48 8d 50 01          	lea    rdx,[rax+0x1]
3d2d:	48 89 57 28          	mov    QWORD PTR [rdi+0x28],rdx
3d31:	c6 00 0a             	mov    BYTE PTR [rax],0xa
3d34:	48 83 c4 08          	add    rsp,0x8
3d38:	5b                   	pop    rbx
3d39:	5d                   	pop    rbp
3d3a:	41 5c                	pop    r12
3d3c:	41 5d                	pop    r13
3d3e:	41 5e                	pop    r14
3d40:	41 5f                	pop    r15
3d42:	c3                   	ret
3d43:	0f 1f 44 00 00       	nop    DWORD PTR [rax+rax*1+0x0]
3d48:	48 83 c4 08          	add    rsp,0x8
3d4c:	be 0a 00 00 00       	mov    esi,0xa
3d51:	5b                   	pop    rbx
3d52:	5d                   	pop    rbp
3d53:	41 5c                	pop    r12
3d55:	41 5d                	pop    r13
3d57:	41 5e                	pop    r14
3d59:	41 5f                	pop    r15
3d5b:	e9 30 eb ff ff       	jmp    2890 <__overflow@plt>

0000000000003d60 <__xargmatch_internal>:
3d60:	41 57                	push   r15
3d62:	41 56                	push   r14
3d64:	49 89 fe             	mov    r14,rdi
3d67:	41 55                	push   r13
3d69:	41 54                	push   r12
3d6b:	49 89 f4             	mov    r12,rsi
3d6e:	55                   	push   rbp
3d6f:	53                   	push   rbx
3d70:	48 89 cd             	mov    rbp,rcx
3d73:	48 89 d3             	mov    rbx,rdx
3d76:	4c 89 c1             	mov    rcx,r8
3d79:	48 89 ea             	mov    rdx,rbp
3d7c:	48 83 ec 08          	sub    rsp,0x8
3d80:	48 89 de             	mov    rsi,rbx
3d83:	4c 89 e7             	mov    rdi,r12
3d86:	4d 89 c7             	mov    r15,r8
3d89:	4d 89 cd             	mov    r13,r9
3d8c:	e8 0f fd ff ff       	call   3aa0 <argmatch>
3d91:	48 85 c0             	test   rax,rax
3d94:	78 0f                	js     3da5 <__xargmatch_internal+0x45>
3d96:	48 83 c4 08          	add    rsp,0x8
3d9a:	5b                   	pop    rbx
3d9b:	5d                   	pop    rbp
3d9c:	41 5c                	pop    r12
3d9e:	41 5d                	pop    r13
3da0:	41 5e                	pop    r14
3da2:	41 5f                	pop    r15
3da4:	c3                   	ret
3da5:	48 89 c2             	mov    rdx,rax
3da8:	4c 89 e6             	mov    rsi,r12
3dab:	4c 89 f7             	mov    rdi,r14
3dae:	e8 0d fe ff ff       	call   3bc0 <argmatch_invalid>
3db3:	4c 89 fa             	mov    rdx,r15
3db6:	48 89 ee             	mov    rsi,rbp
3db9:	48 89 df             	mov    rdi,rbx
3dbc:	e8 7f fe ff ff       	call   3c40 <argmatch_valid>
3dc1:	41 ff d5             	call   r13
3dc4:	48 c7 c0 ff ff ff ff 	mov    rax,0xffffffffffffffff
3dcb:	eb c9                	jmp    3d96 <__xargmatch_internal+0x36>
3dcd:	0f 1f 00             	nop    DWORD PTR [rax]

0000000000003dd0 <argmatch_to_argument>:
3dd0:	41 56                	push   r14
3dd2:	41 55                	push   r13
3dd4:	41 54                	push   r12
3dd6:	55                   	push   rbp
3dd7:	53                   	push   rbx
3dd8:	4c 8b 36             	mov    r14,QWORD PTR [rsi]
3ddb:	4d 85 f6             	test   r14,r14
3dde:	74 31                	je     3e11 <argmatch_to_argument+0x41>
3de0:	49 89 cc             	mov    r12,rcx
3de3:	49 89 fd             	mov    r13,rdi
3de6:	48 89 d5             	mov    rbp,rdx
3de9:	48 8d 5e 08          	lea    rbx,[rsi+0x8]
3ded:	eb 10                	jmp    3dff <argmatch_to_argument+0x2f>
3def:	90                   	nop
3df0:	4c 8b 33             	mov    r14,QWORD PTR [rbx]
3df3:	4c 01 e5             	add    rbp,r12
3df6:	48 83 c3 08          	add    rbx,0x8
3dfa:	4d 85 f6             	test   r14,r14
3dfd:	74 12                	je     3e11 <argmatch_to_argument+0x41>
3dff:	4c 89 e2             	mov    rdx,r12
3e02:	48 89 ee             	mov    rsi,rbp
3e05:	4c 89 ef             	mov    rdi,r13
3e08:	e8 13 eb ff ff       	call   2920 <memcmp@plt>
3e0d:	85 c0                	test   eax,eax
3e0f:	75 df                	jne    3df0 <argmatch_to_argument+0x20>
3e11:	5b                   	pop    rbx
3e12:	4c 89 f0             	mov    rax,r14
3e15:	5d                   	pop    rbp
3e16:	41 5c                	pop    r12
3e18:	41 5d                	pop    r13
3e1a:	41 5e                	pop    r14
3e1c:	c3                   	ret
3e1d:	0f 1f 00             	nop    DWORD PTR [rax]

0000000000003e20 <close_stdout_set_file_name>:
3e20:	48 89 3d 29 13 21 00 	mov    QWORD PTR [rip+0x211329],rdi        # 215150 <file_name>
3e27:	c3                   	ret
3e28:	0f 1f 84 00 00 00 00 	nop    DWORD PTR [rax+rax*1+0x0]
3e2f:	00

0000000000003e30 <close_stdout_set_ignore_EPIPE>:
3e30:	40 88 3d 11 13 21 00 	mov    BYTE PTR [rip+0x211311],dil        # 215148 <ignore_EPIPE>
3e37:	c3                   	ret
3e38:	0f 1f 84 00 00 00 00 	nop    DWORD PTR [rax+rax*1+0x0]
3e3f:	00

0000000000003e40 <close_stdout>:
3e40:	55                   	push   rbp
3e41:	53                   	push   rbx
3e42:	48 83 ec 08          	sub    rsp,0x8
3e46:	48 8b 3d 5b 12 21 00 	mov    rdi,QWORD PTR [rip+0x21125b]        # 2150a8 <stdout@@GLIBC_2.2.5>
3e4d:	e8 1e 7a 00 00       	call   b870 <close_stream>
3e52:	85 c0                	test   eax,eax
3e54:	74 16                	je     3e6c <close_stdout+0x2c>
3e56:	e8 f5 e8 ff ff       	call   2750 <__errno_location@plt>
3e5b:	80 3d e6 12 21 00 00 	cmp    BYTE PTR [rip+0x2112e6],0x0        # 215148 <ignore_EPIPE>
3e62:	48 89 c3             	mov    rbx,rax
3e65:	74 1c                	je     3e83 <close_stdout+0x43>
3e67:	83 38 20             	cmp    DWORD PTR [rax],0x20
3e6a:	75 17                	jne    3e83 <close_stdout+0x43>
3e6c:	48 8b 3d 6d 12 21 00 	mov    rdi,QWORD PTR [rip+0x21126d]        # 2150e0 <stderr@@GLIBC_2.2.5>
3e73:	e8 f8 79 00 00       	call   b870 <close_stream>
3e78:	85 c0                	test   eax,eax
3e7a:	75 46                	jne    3ec2 <close_stdout+0x82>
3e7c:	48 83 c4 08          	add    rsp,0x8
3e80:	5b                   	pop    rbx
3e81:	5d                   	pop    rbp
3e82:	c3                   	ret
3e83:	48 8d 35 19 c2 00 00 	lea    rsi,[rip+0xc219]        # 100a3 <time_masks+0x73>
3e8a:	31 ff                	xor    edi,edi
3e8c:	ba 05 00 00 00       	mov    edx,0x5
3e91:	e8 5a e9 ff ff       	call   27f0 <dcgettext@plt>
3e96:	48 8b 3d b3 12 21 00 	mov    rdi,QWORD PTR [rip+0x2112b3]        # 215150 <file_name>
3e9d:	48 89 c5             	mov    rbp,rax
3ea0:	48 85 ff             	test   rdi,rdi
3ea3:	74 28                	je     3ecd <close_stdout+0x8d>
3ea5:	e8 e6 67 00 00       	call   a690 <quotearg_colon>
3eaa:	8b 33                	mov    esi,DWORD PTR [rbx]
3eac:	48 8d 15 fc c1 00 00 	lea    rdx,[rip+0xc1fc]        # 100af <time_masks+0x7f>
3eb3:	48 89 c1             	mov    rcx,rax
3eb6:	49 89 e8             	mov    r8,rbp
3eb9:	31 ff                	xor    edi,edi
3ebb:	31 c0                	xor    eax,eax
3ebd:	e8 ae eb ff ff       	call   2a70 <error@plt>
3ec2:	8b 3d 58 11 21 00    	mov    edi,DWORD PTR [rip+0x211158]        # 215020 <exit_failure>
3ec8:	e8 b3 e8 ff ff       	call   2780 <_exit@plt>
3ecd:	8b 33                	mov    esi,DWORD PTR [rbx]
3ecf:	48 8d 15 ca c1 00 00 	lea    rdx,[rip+0xc1ca]        # 100a0 <time_masks+0x70>
3ed6:	48 89 c1             	mov    rcx,rax
3ed9:	31 ff                	xor    edi,edi
3edb:	31 c0                	xor    eax,eax
3edd:	e8 8e eb ff ff       	call   2a70 <error@plt>
3ee2:	eb de                	jmp    3ec2 <close_stdout+0x82>
3ee4:	66 2e 0f 1f 84 00 00 	nop    WORD PTR cs:[rax+rax*1+0x0]
3eeb:	00 00 00
3eee:	66 90                	xchg   ax,ax

0000000000003ef0 <fd_reopen>:
3ef0:	41 55                	push   r13
3ef2:	41 54                	push   r12
3ef4:	31 c0                	xor    eax,eax
3ef6:	55                   	push   rbp
3ef7:	53                   	push   rbx
3ef8:	89 fd                	mov    ebp,edi
3efa:	48 89 f7             	mov    rdi,rsi
3efd:	89 d6                	mov    esi,edx
3eff:	89 ca                	mov    edx,ecx
3f01:	48 83 ec 08          	sub    rsp,0x8
3f05:	e8 76 eb ff ff       	call   2a80 <open@plt>
3f0a:	39 c5                	cmp    ebp,eax
3f0c:	89 c3                	mov    ebx,eax
3f0e:	74 29                	je     3f39 <fd_reopen+0x49>
3f10:	85 c0                	test   eax,eax
3f12:	78 25                	js     3f39 <fd_reopen+0x49>
3f14:	89 ee                	mov    esi,ebp
3f16:	89 c7                	mov    edi,eax
3f18:	e8 43 e9 ff ff       	call   2860 <dup2@plt>
3f1d:	41 89 c4             	mov    r12d,eax
3f20:	e8 2b e8 ff ff       	call   2750 <__errno_location@plt>
3f25:	44 8b 28             	mov    r13d,DWORD PTR [rax]
3f28:	48 89 c5             	mov    rbp,rax
3f2b:	89 df                	mov    edi,ebx
3f2d:	e8 ce e9 ff ff       	call   2900 <close@plt>
3f32:	44 89 e3             	mov    ebx,r12d
3f35:	44 89 6d 00          	mov    DWORD PTR [rbp+0x0],r13d
3f39:	48 83 c4 08          	add    rsp,0x8
3f3d:	89 d8                	mov    eax,ebx
3f3f:	5b                   	pop    rbx
3f40:	5d                   	pop    rbp
3f41:	41 5c                	pop    r12
3f43:	41 5d                	pop    r13
3f45:	c3                   	ret
3f46:	66 2e 0f 1f 84 00 00 	nop    WORD PTR cs:[rax+rax*1+0x0]
3f4d:	00 00 00

0000000000003f50 <fdutimensat>:
3f50:	41 55                	push   r13
3f52:	41 54                	push   r12
3f54:	45 89 c5             	mov    r13d,r8d
3f57:	55                   	push   rbp
3f58:	53                   	push   rbx
3f59:	41 89 f4             	mov    r12d,esi
3f5c:	48 89 d3             	mov    rbx,rdx
3f5f:	48 89 cd             	mov    rbp,rcx
3f62:	48 83 ec 08          	sub    rsp,0x8
3f66:	85 ff                	test   edi,edi
3f68:	79 26                	jns    3f90 <fdutimensat+0x40>
3f6a:	48 85 d2             	test   rdx,rdx
3f6d:	74 51                	je     3fc0 <fdutimensat+0x70>
3f6f:	44 89 e9             	mov    ecx,r13d
3f72:	48 89 ea             	mov    rdx,rbp
3f75:	48 89 de             	mov    rsi,rbx
3f78:	44 89 e7             	mov    edi,r12d
3f7b:	e8 a0 e7 ff ff       	call   2720 <utimensat@plt>
3f80:	83 f8 01             	cmp    eax,0x1
3f83:	74 3b                	je     3fc0 <fdutimensat+0x70>
3f85:	48 83 c4 08          	add    rsp,0x8
3f89:	5b                   	pop    rbx
3f8a:	5d                   	pop    rbp
3f8b:	41 5c                	pop    r12
3f8d:	41 5d                	pop    r13
3f8f:	c3                   	ret
3f90:	48 89 ce             	mov    rsi,rcx
3f93:	e8 18 eb ff ff       	call   2ab0 <futimens@plt>
3f98:	48 85 db             	test   rbx,rbx
3f9b:	74 e3                	je     3f80 <fdutimensat+0x30>
3f9d:	83 f8 ff             	cmp    eax,0xffffffff
3fa0:	75 de                	jne    3f80 <fdutimensat+0x30>
3fa2:	e8 a9 e7 ff ff       	call   2750 <__errno_location@plt>
3fa7:	83 38 26             	cmp    DWORD PTR [rax],0x26
3faa:	74 c3                	je     3f6f <fdutimensat+0x1f>
3fac:	48 83 c4 08          	add    rsp,0x8
3fb0:	b8 ff ff ff ff       	mov    eax,0xffffffff
3fb5:	5b                   	pop    rbx
3fb6:	5d                   	pop    rbp
3fb7:	41 5c                	pop    r12
3fb9:	41 5d                	pop    r13
3fbb:	c3                   	ret
3fbc:	0f 1f 40 00          	nop    DWORD PTR [rax+0x0]
3fc0:	e8 8b e7 ff ff       	call   2750 <__errno_location@plt>
3fc5:	c7 00 09 00 00 00    	mov    DWORD PTR [rax],0x9
3fcb:	48 83 c4 08          	add    rsp,0x8
3fcf:	b8 ff ff ff ff       	mov    eax,0xffffffff
3fd4:	5b                   	pop    rbx
3fd5:	5d                   	pop    rbp
3fd6:	41 5c                	pop    r12
3fd8:	41 5d                	pop    r13
3fda:	c3                   	ret
3fdb:	0f 1f 44 00 00       	nop    DWORD PTR [rax+rax*1+0x0]

0000000000003fe0 <gettime>:
3fe0:	48 89 fe             	mov    rsi,rdi
3fe3:	31 ff                	xor    edi,edi
3fe5:	e9 b6 e7 ff ff       	jmp    27a0 <clock_gettime@plt>
3fea:	66 0f 1f 44 00 00    	nop    WORD PTR [rax+rax*1+0x0]

0000000000003ff0 <current_timespec>:
3ff0:	48 83 ec 28          	sub    rsp,0x28
3ff4:	31 ff                	xor    edi,edi
3ff6:	48 89 e6             	mov    rsi,rsp
3ff9:	64 48 8b 04 25 28 00 	mov    rax,QWORD PTR fs:0x28
4000:	00 00
4002:	48 89 44 24 18       	mov    QWORD PTR [rsp+0x18],rax
4007:	31 c0                	xor    eax,eax
4009:	e8 92 e7 ff ff       	call   27a0 <clock_gettime@plt>
400e:	48 8b 4c 24 18       	mov    rcx,QWORD PTR [rsp+0x18]
4013:	64 48 33 0c 25 28 00 	xor    rcx,QWORD PTR fs:0x28
401a:	00 00
401c:	48 8b 04 24          	mov    rax,QWORD PTR [rsp]
4020:	48 8b 54 24 08       	mov    rdx,QWORD PTR [rsp+0x8]
4025:	75 05                	jne    402c <current_timespec+0x3c>
4027:	48 83 c4 28          	add    rsp,0x28
402b:	c3                   	ret
402c:	e8 ff e7 ff ff       	call   2830 <__stack_chk_fail@plt>
4031:	66 2e 0f 1f 84 00 00 	nop    WORD PTR cs:[rax+rax*1+0x0]
4038:	00 00 00
403b:	0f 1f 44 00 00       	nop    DWORD PTR [rax+rax*1+0x0]

0000000000004040 <digits_to_date_time>:
4040:	48 8b 87 a8 00 00 00 	mov    rax,QWORD PTR [rdi+0xa8]
4047:	4c 8b 44 24 10       	mov    r8,QWORD PTR [rsp+0x10]
404c:	4c 8b 4c 24 18       	mov    r9,QWORD PTR [rsp+0x18]
4051:	48 85 c0             	test   rax,rax
4054:	74 42                	je     4098 <digits_to_date_time+0x58>
4056:	48 83 7f 30 00       	cmp    QWORD PTR [rdi+0x30],0x0
405b:	75 3b                	jne    4098 <digits_to_date_time+0x58>
405d:	80 bf a1 00 00 00 00 	cmp    BYTE PTR [rdi+0xa1],0x0
4064:	75 32                	jne    4098 <digits_to_date_time+0x58>
4066:	48 83 bf c8 00 00 00 	cmp    QWORD PTR [rdi+0xc8],0x0
406d:	00
406e:	75 0a                	jne    407a <digits_to_date_time+0x3a>
4070:	49 83 f9 02          	cmp    r9,0x2
4074:	0f 8e 1e 01 00 00    	jle    4198 <digits_to_date_time+0x158>
407a:	48 8b 44 24 18       	mov    rax,QWORD PTR [rsp+0x18]
407f:	c6 87 d8 00 00 00 01 	mov    BYTE PTR [rdi+0xd8],0x1
4086:	f3 0f 6f 44 24 08    	movdqu xmm0,XMMWORD PTR [rsp+0x8]
408c:	48 89 47 30          	mov    QWORD PTR [rdi+0x30],rax
4090:	0f 11 47 20          	movups XMMWORD PTR [rdi+0x20],xmm0
4094:	c3                   	ret
4095:	0f 1f 00             	nop    DWORD PTR [rax]
4098:	49 83 f9 04          	cmp    r9,0x4
409c:	7f 62                	jg     4100 <digits_to_date_time+0xc0>
409e:	48 83 87 c8 00 00 00 	add    QWORD PTR [rdi+0xc8],0x1
40a5:	01
40a6:	49 83 f9 02          	cmp    r9,0x2
40aa:	0f 8e f8 00 00 00    	jle    41a8 <digits_to_date_time+0x168>
40b0:	4c 89 c0             	mov    rax,r8
40b3:	48 ba 0b d7 a3 70 3d 	movabs rdx,0xa3d70a3d70a3d70b
40ba:	0a d7 a3
40bd:	48 f7 ea             	imul   rdx
40c0:	4c 89 c0             	mov    rax,r8
40c3:	48 c1 f8 3f          	sar    rax,0x3f
40c7:	4c 01 c2             	add    rdx,r8
40ca:	48 c1 fa 06          	sar    rdx,0x6
40ce:	48 29 c2             	sub    rdx,rax
40d1:	48 8d 04 92          	lea    rax,[rdx+rdx*4]
40d5:	48 89 57 48          	mov    QWORD PTR [rdi+0x48],rdx
40d9:	48 8d 04 80          	lea    rax,[rax+rax*4]
40dd:	48 c1 e0 02          	shl    rax,0x2
40e1:	49 29 c0             	sub    r8,rax
40e4:	4c 89 47 50          	mov    QWORD PTR [rdi+0x50],r8
40e8:	48 c7 47 58 00 00 00 	mov    QWORD PTR [rdi+0x58],0x0
40ef:	00
40f0:	48 c7 47 60 00 00 00 	mov    QWORD PTR [rdi+0x60],0x0
40f7:	00
40f8:	c7 47 1c 02 00 00 00 	mov    DWORD PTR [rdi+0x1c],0x2
40ff:	c3                   	ret
4100:	48 83 c0 01          	add    rax,0x1
4104:	48 be 0b d7 a3 70 3d 	movabs rsi,0xa3d70a3d70a3d70b
410b:	0a d7 a3
410e:	4d 89 c2             	mov    r10,r8
4111:	48 89 87 a8 00 00 00 	mov    QWORD PTR [rdi+0xa8],rax
4118:	4c 89 c0             	mov    rax,r8
411b:	49 c1 fa 3f          	sar    r10,0x3f
411f:	48 f7 ee             	imul   rsi
4122:	49 83 e9 04          	sub    r9,0x4
4126:	4c 89 4f 30          	mov    QWORD PTR [rdi+0x30],r9
412a:	4a 8d 0c 02          	lea    rcx,[rdx+r8*1]
412e:	4c 89 c2             	mov    rdx,r8
4131:	48 c1 f9 06          	sar    rcx,0x6
4135:	4c 29 d1             	sub    rcx,r10
4138:	48 8d 04 89          	lea    rax,[rcx+rcx*4]
413c:	48 8d 04 80          	lea    rax,[rax+rax*4]
4140:	48 c1 e0 02          	shl    rax,0x2
4144:	48 29 c2             	sub    rdx,rax
4147:	48 89 c8             	mov    rax,rcx
414a:	48 89 57 40          	mov    QWORD PTR [rdi+0x40],rdx
414e:	48 f7 ee             	imul   rsi
4151:	48 89 c8             	mov    rax,rcx
4154:	48 c1 f8 3f          	sar    rax,0x3f
4158:	48 8d 34 0a          	lea    rsi,[rdx+rcx*1]
415c:	48 ba 4b 59 86 38 d6 	movabs rdx,0x346dc5d63886594b
4163:	c5 6d 34
4166:	48 c1 fe 06          	sar    rsi,0x6
416a:	48 29 c6             	sub    rsi,rax
416d:	48 8d 04 b6          	lea    rax,[rsi+rsi*4]
4171:	48 8d 04 80          	lea    rax,[rax+rax*4]
4175:	48 c1 e0 02          	shl    rax,0x2
4179:	48 29 c1             	sub    rcx,rax
417c:	4c 89 c0             	mov    rax,r8
417f:	48 f7 ea             	imul   rdx
4182:	48 89 4f 38          	mov    QWORD PTR [rdi+0x38],rcx
4186:	48 c1 fa 0b          	sar    rdx,0xb
418a:	4c 29 d2             	sub    rdx,r10
418d:	48 89 57 28          	mov    QWORD PTR [rdi+0x28],rdx
4191:	c3                   	ret
4192:	66 0f 1f 44 00 00    	nop    WORD PTR [rax+rax*1+0x0]
4198:	48 c7 87 c8 00 00 00 	mov    QWORD PTR [rdi+0xc8],0x1
419f:	01 00 00 00
41a3:	0f 1f 44 00 00       	nop    DWORD PTR [rax+rax*1+0x0]
41a8:	4c 89 47 48          	mov    QWORD PTR [rdi+0x48],r8
41ac:	48 c7 47 50 00 00 00 	mov    QWORD PTR [rdi+0x50],0x0
41b3:	00
41b4:	e9 2f ff ff ff       	jmp    40e8 <digits_to_date_time+0xa8>
41b9:	0f 1f 80 00 00 00 00 	nop    DWORD PTR [rax+0x0]

00000000000041c0 <time_zone_str>:
41c0:	89 f8                	mov    eax,edi
41c2:	ba c5 b3 a2 91       	mov    edx,0x91a2b3c5
41c7:	41 54                	push   r12
41c9:	f7 ea                	imul   edx
41cb:	55                   	push   rbp
41cc:	53                   	push   rbx
41cd:	89 f8                	mov    eax,edi
41cf:	89 f9                	mov    ecx,edi
41d1:	49 89 f4             	mov    r12,rsi
41d4:	c1 f8 1f             	sar    eax,0x1f
41d7:	c1 f9 1f             	sar    ecx,0x1f
41da:	89 fd                	mov    ebp,edi
41dc:	8d 1c 3a             	lea    ebx,[rdx+rdi*1]
41df:	83 e1 02             	and    ecx,0x2
41e2:	48 c7 c2 ff ff ff ff 	mov    rdx,0xffffffffffffffff
41e9:	44 8d 41 2b          	lea    r8d,[rcx+0x2b]
41ed:	48 8d 0d c2 be 00 00 	lea    rcx,[rip+0xbec2]        # 100b6 <time_masks+0x86>
41f4:	be 01 00 00 00       	mov    esi,0x1
41f9:	c1 fb 0b             	sar    ebx,0xb
41fc:	4c 89 e7             	mov    rdi,r12
41ff:	29 c3                	sub    ebx,eax
4201:	89 d8                	mov    eax,ebx
4203:	c1 f8 1f             	sar    eax,0x1f
4206:	41 89 c1             	mov    r9d,eax
4209:	41 31 d9             	xor    r9d,ebx
420c:	69 db 10 0e 00 00    	imul   ebx,ebx,0xe10
4212:	41 29 c1             	sub    r9d,eax
4215:	31 c0                	xor    eax,eax
4217:	e8 24 e9 ff ff       	call   2b40 <__sprintf_chk@plt>
421c:	29 dd                	sub    ebp,ebx
421e:	74 62                	je     4282 <time_zone_str+0xc2>
4220:	48 98                	cdqe
4222:	b9 89 88 88 88       	mov    ecx,0x88888889
4227:	41 b8 cd cc cc cc    	mov    r8d,0xcccccccd
422d:	49 8d 34 04          	lea    rsi,[r12+rax*1]
4231:	89 e8                	mov    eax,ebp
4233:	c1 f8 1f             	sar    eax,0x1f
4236:	31 c5                	xor    ebp,eax
4238:	c6 06 3a             	mov    BYTE PTR [rsi],0x3a
423b:	29 c5                	sub    ebp,eax
423d:	89 e8                	mov    eax,ebp
423f:	f7 e1                	mul    ecx
4241:	89 e8                	mov    eax,ebp
4243:	89 d1                	mov    ecx,edx
4245:	89 d7                	mov    edi,edx
4247:	ba b5 81 4e 1b       	mov    edx,0x1b4e81b5
424c:	f7 e2                	mul    edx
424e:	c1 e9 05             	shr    ecx,0x5
4251:	c1 ef 05             	shr    edi,0x5
4254:	89 c8                	mov    eax,ecx
4256:	c1 ea 06             	shr    edx,0x6
4259:	83 c2 30             	add    edx,0x30
425c:	88 56 01             	mov    BYTE PTR [rsi+0x1],dl
425f:	41 f7 e0             	mul    r8d
4262:	6b ff 3c             	imul   edi,edi,0x3c
4265:	c1 ea 03             	shr    edx,0x3
4268:	8d 04 92             	lea    eax,[rdx+rdx*4]
426b:	01 c0                	add    eax,eax
426d:	29 c1                	sub    ecx,eax
426f:	48 8d 46 03          	lea    rax,[rsi+0x3]
4273:	83 c1 30             	add    ecx,0x30
4276:	29 fd                	sub    ebp,edi
4278:	88 4e 02             	mov    BYTE PTR [rsi+0x2],cl
427b:	89 ef                	mov    edi,ebp
427d:	75 11                	jne    4290 <time_zone_str+0xd0>
427f:	c6 00 00             	mov    BYTE PTR [rax],0x0
4282:	4c 89 e0             	mov    rax,r12
4285:	5b                   	pop    rbx
4286:	5d                   	pop    rbp
4287:	41 5c                	pop    r12
4289:	c3                   	ret
428a:	66 0f 1f 44 00 00    	nop    WORD PTR [rax+rax*1+0x0]
4290:	89 e8                	mov    eax,ebp
4292:	c6 46 03 3a          	mov    BYTE PTR [rsi+0x3],0x3a
4296:	41 f7 e0             	mul    r8d
4299:	c1 ea 03             	shr    edx,0x3
429c:	8d 42 30             	lea    eax,[rdx+0x30]
429f:	8d 14 92             	lea    edx,[rdx+rdx*4]
42a2:	01 d2                	add    edx,edx
42a4:	88 46 04             	mov    BYTE PTR [rsi+0x4],al
42a7:	48 8d 46 06          	lea    rax,[rsi+0x6]
42ab:	29 d7                	sub    edi,edx
42ad:	83 c7 30             	add    edi,0x30
42b0:	40 88 7e 05          	mov    BYTE PTR [rsi+0x5],dil
42b4:	eb c9                	jmp    427f <time_zone_str+0xbf>
42b6:	66 2e 0f 1f 84 00 00 	nop    WORD PTR cs:[rax+rax*1+0x0]
42bd:	00 00 00

00000000000042c0 <dbg_printf>:
42c0:	53                   	push   rbx
42c1:	48 89 fb             	mov    rbx,rdi
42c4:	48 81 ec d0 00 00 00 	sub    rsp,0xd0
42cb:	84 c0                	test   al,al
42cd:	48 89 74 24 28       	mov    QWORD PTR [rsp+0x28],rsi
42d2:	48 89 54 24 30       	mov    QWORD PTR [rsp+0x30],rdx
42d7:	48 89 4c 24 38       	mov    QWORD PTR [rsp+0x38],rcx
42dc:	4c 89 44 24 40       	mov    QWORD PTR [rsp+0x40],r8
42e1:	4c 89 4c 24 48       	mov    QWORD PTR [rsp+0x48],r9
42e6:	74 37                	je     431f <dbg_printf+0x5f>
42e8:	0f 29 44 24 50       	movaps XMMWORD PTR [rsp+0x50],xmm0
42ed:	0f 29 4c 24 60       	movaps XMMWORD PTR [rsp+0x60],xmm1
42f2:	0f 29 54 24 70       	movaps XMMWORD PTR [rsp+0x70],xmm2
42f7:	0f 29 9c 24 80 00 00 	movaps XMMWORD PTR [rsp+0x80],xmm3
42fe:	00
42ff:	0f 29 a4 24 90 00 00 	movaps XMMWORD PTR [rsp+0x90],xmm4
4306:	00
4307:	0f 29 ac 24 a0 00 00 	movaps XMMWORD PTR [rsp+0xa0],xmm5
430e:	00
430f:	0f 29 b4 24 b0 00 00 	movaps XMMWORD PTR [rsp+0xb0],xmm6
4316:	00
4317:	0f 29 bc 24 c0 00 00 	movaps XMMWORD PTR [rsp+0xc0],xmm7
431e:	00
431f:	48 8d 3d a1 bd 00 00 	lea    rdi,[rip+0xbda1]        # 100c7 <time_masks+0x97>
4326:	ba 06 00 00 00       	mov    edx,0x6
432b:	be 01 00 00 00       	mov    esi,0x1
4330:	64 48 8b 04 25 28 00 	mov    rax,QWORD PTR fs:0x28
4337:	00 00
4339:	48 89 44 24 18       	mov    QWORD PTR [rsp+0x18],rax
433e:	31 c0                	xor    eax,eax
4340:	48 8b 0d 99 0d 21 00 	mov    rcx,QWORD PTR [rip+0x210d99]        # 2150e0 <stderr@@GLIBC_2.2.5>
4347:	e8 94 e7 ff ff       	call   2ae0 <fwrite@plt>
434c:	48 8d 84 24 e0 00 00 	lea    rax,[rsp+0xe0]
4353:	00
4354:	48 8b 3d 85 0d 21 00 	mov    rdi,QWORD PTR [rip+0x210d85]        # 2150e0 <stderr@@GLIBC_2.2.5>
435b:	48 89 e2             	mov    rdx,rsp
435e:	48 89 de             	mov    rsi,rbx
4361:	c7 04 24 08 00 00 00 	mov    DWORD PTR [rsp],0x8
4368:	c7 44 24 04 30 00 00 	mov    DWORD PTR [rsp+0x4],0x30
436f:	00
4370:	48 89 44 24 08       	mov    QWORD PTR [rsp+0x8],rax
4375:	48 8d 44 24 20       	lea    rax,[rsp+0x20]
437a:	48 89 44 24 10       	mov    QWORD PTR [rsp+0x10],rax
437f:	e8 ec 73 00 00       	call   b770 <rpl_vfprintf>
4384:	48 8b 44 24 18       	mov    rax,QWORD PTR [rsp+0x18]
4389:	64 48 33 04 25 28 00 	xor    rax,QWORD PTR fs:0x28
4390:	00 00
4392:	75 09                	jne    439d <dbg_printf+0xdd>
4394:	48 81 c4 d0 00 00 00 	add    rsp,0xd0
439b:	5b                   	pop    rbx
439c:	c3                   	ret
439d:	e8 8e e4 ff ff       	call   2830 <__stack_chk_fail@plt>
43a2:	0f 1f 40 00          	nop    DWORD PTR [rax+0x0]
43a6:	66 2e 0f 1f 84 00 00 	nop    WORD PTR cs:[rax+rax*1+0x0]
43ad:	00 00 00

00000000000043b0 <print_rel_part.part.2>:
43b0:	49 89 d0             	mov    r8,rdx
43b3:	83 f7 01             	xor    edi,0x1
43b6:	48 8d 15 11 bd 00 00 	lea    rdx,[rip+0xbd11]        # 100ce <time_masks+0x9e>
43bd:	40 0f b6 ff          	movzx  edi,dil
43c1:	48 83 ec 08          	sub    rsp,0x8
43c5:	48 89 f1             	mov    rcx,rsi
43c8:	48 01 fa             	add    rdx,rdi
43cb:	48 8b 3d 0e 0d 21 00 	mov    rdi,QWORD PTR [rip+0x210d0e]        # 2150e0 <stderr@@GLIBC_2.2.5>
43d2:	be 01 00 00 00       	mov    esi,0x1
43d7:	31 c0                	xor    eax,eax
43d9:	e8 12 e7 ff ff       	call   2af0 <__fprintf_chk@plt>
43de:	b8 01 00 00 00       	mov    eax,0x1
43e3:	48 83 c4 08          	add    rsp,0x8
43e7:	c3                   	ret
43e8:	0f 1f 84 00 00 00 00 	nop    DWORD PTR [rax+rax*1+0x0]
43ef:	00

00000000000043f0 <time_zone_hhmm.isra.4>:
43f0:	48 83 f9 02          	cmp    rcx,0x2
43f4:	49 89 d1             	mov    r9,rdx
43f7:	7f 47                	jg     4440 <time_zone_hhmm.isra.4+0x50>
43f9:	4d 85 c0             	test   r8,r8
43fc:	0f 88 8e 00 00 00    	js     4490 <time_zone_hhmm.isra.4+0xa0>
4402:	31 c9                	xor    ecx,ecx
4404:	4d 6b c9 3c          	imul   r9,r9,0x3c
4408:	0f 90 c1             	seto   cl
440b:	40 84 f6             	test   sil,sil
440e:	75 70                	jne    4480 <time_zone_hhmm.isra.4+0x90>
4410:	31 d2                	xor    edx,edx
4412:	4d 01 c1             	add    r9,r8
4415:	0f 90 c2             	seto   dl
4418:	31 c0                	xor    eax,eax
441a:	09 d1                	or     ecx,edx
441c:	75 1e                	jne    443c <time_zone_hhmm.isra.4+0x4c>
441e:	49 8d 91 a0 05 00 00 	lea    rdx,[r9+0x5a0]
4425:	31 c0                	xor    eax,eax
4427:	48 81 fa 40 0b 00 00 	cmp    rdx,0xb40
442e:	77 0c                	ja     443c <time_zone_hhmm.isra.4+0x4c>
4430:	45 6b c9 3c          	imul   r9d,r9d,0x3c
4434:	b8 01 00 00 00       	mov    eax,0x1
4439:	44 89 0f             	mov    DWORD PTR [rdi],r9d
443c:	f3 c3                	repz ret
443e:	66 90                	xchg   ax,ax
4440:	4d 85 c0             	test   r8,r8
4443:	79 bd                	jns    4402 <time_zone_hhmm.isra.4+0x12>
4445:	4c 89 c8             	mov    rax,r9
4448:	48 ba 0b d7 a3 70 3d 	movabs rdx,0xa3d70a3d70a3d70b
444f:	0a d7 a3
4452:	48 f7 ea             	imul   rdx
4455:	4c 89 c8             	mov    rax,r9
4458:	48 c1 f8 3f          	sar    rax,0x3f
445c:	4a 8d 0c 0a          	lea    rcx,[rdx+r9*1]
4460:	48 c1 f9 06          	sar    rcx,0x6
4464:	48 29 c1             	sub    rcx,rax
4467:	48 8d 04 89          	lea    rax,[rcx+rcx*4]
446b:	4c 89 c9             	mov    rcx,r9
446e:	48 8d 04 80          	lea    rax,[rax+rax*4]
4472:	48 c1 e0 02          	shl    rax,0x2
4476:	48 29 c1             	sub    rcx,rax
4479:	eb 23                	jmp    449e <time_zone_hhmm.isra.4+0xae>
447b:	0f 1f 44 00 00       	nop    DWORD PTR [rax+rax*1+0x0]
4480:	31 d2                	xor    edx,edx
4482:	4d 29 c1             	sub    r9,r8
4485:	0f 90 c2             	seto   dl
4488:	eb 8e                	jmp    4418 <time_zone_hhmm.isra.4+0x28>
448a:	66 0f 1f 44 00 00    	nop    WORD PTR [rax+rax*1+0x0]
4490:	48 8d 04 92          	lea    rax,[rdx+rdx*4]
4494:	31 c9                	xor    ecx,ecx
4496:	4c 8d 0c 80          	lea    r9,[rax+rax*4]
449a:	49 c1 e1 02          	shl    r9,0x2
449e:	4c 89 c8             	mov    rax,r9
44a1:	48 ba 0b d7 a3 70 3d 	movabs rdx,0xa3d70a3d70a3d70b
44a8:	0a d7 a3
44ab:	48 f7 ea             	imul   rdx
44ae:	4c 01 ca             	add    rdx,r9
44b1:	49 c1 f9 3f          	sar    r9,0x3f
44b5:	48 c1 fa 06          	sar    rdx,0x6
44b9:	4c 29 ca             	sub    rdx,r9
44bc:	48 89 d0             	mov    rax,rdx
44bf:	48 c1 e0 04          	shl    rax,0x4
44c3:	48 29 d0             	sub    rax,rdx
44c6:	4c 8d 0c 81          	lea    r9,[rcx+rax*4]
44ca:	e9 4f ff ff ff       	jmp    441e <time_zone_hhmm.isra.4+0x2e>
44cf:	90                   	nop

00000000000044d0 <mktime_ok.part.6>:
44d0:	8b 07                	mov    eax,DWORD PTR [rdi]
44d2:	8b 57 04             	mov    edx,DWORD PTR [rdi+0x4]
44d5:	33 06                	xor    eax,DWORD PTR [rsi]
44d7:	33 56 04             	xor    edx,DWORD PTR [rsi+0x4]
44da:	09 d0                	or     eax,edx
44dc:	8b 57 08             	mov    edx,DWORD PTR [rdi+0x8]
44df:	33 56 08             	xor    edx,DWORD PTR [rsi+0x8]
44e2:	09 d0                	or     eax,edx
44e4:	8b 57 0c             	mov    edx,DWORD PTR [rdi+0xc]
44e7:	33 56 0c             	xor    edx,DWORD PTR [rsi+0xc]
44ea:	09 d0                	or     eax,edx
44ec:	8b 57 10             	mov    edx,DWORD PTR [rdi+0x10]
44ef:	33 56 10             	xor    edx,DWORD PTR [rsi+0x10]
44f2:	09 d0                	or     eax,edx
44f4:	8b 57 14             	mov    edx,DWORD PTR [rdi+0x14]
44f7:	33 56 14             	xor    edx,DWORD PTR [rsi+0x14]
44fa:	09 d0                	or     eax,edx
44fc:	0f 94 c0             	sete   al
44ff:	c3                   	ret

0000000000004500 <lookup_zone>:
4500:	41 54                	push   r12
4502:	49 89 fc             	mov    r12,rdi
4505:	55                   	push   rbp
4506:	48 89 f5             	mov    rbp,rsi
4509:	53                   	push   rbx
450a:	48 8d 35 c6 bb 00 00 	lea    rsi,[rip+0xbbc6]        # 100d7 <time_masks+0xa7>
4511:	48 8d 1d c8 01 21 00 	lea    rbx,[rip+0x2101c8]        # 2146e0 <universal_time_zone_table>
4518:	eb 12                	jmp    452c <lookup_zone+0x2c>
451a:	66 0f 1f 44 00 00    	nop    WORD PTR [rax+rax*1+0x0]
4520:	48 83 c3 10          	add    rbx,0x10
4524:	48 8b 33             	mov    rsi,QWORD PTR [rbx]
4527:	48 85 f6             	test   rsi,rsi
452a:	74 14                	je     4540 <lookup_zone+0x40>
452c:	48 89 ef             	mov    rdi,rbp
452f:	e8 1c e4 ff ff       	call   2950 <strcmp@plt>
4534:	85 c0                	test   eax,eax
4536:	75 e8                	jne    4520 <lookup_zone+0x20>
4538:	48 89 d8             	mov    rax,rbx
453b:	5b                   	pop    rbx
453c:	5d                   	pop    rbp
453d:	41 5c                	pop    r12
453f:	c3                   	ret
4540:	49 8b b4 24 e8 00 00 	mov    rsi,QWORD PTR [r12+0xe8]
4547:	00
4548:	49 8d 9c 24 e8 00 00 	lea    rbx,[r12+0xe8]
454f:	00
4550:	48 85 f6             	test   rsi,rsi
4553:	75 47                	jne    459c <lookup_zone+0x9c>
4555:	0f 1f 00             	nop    DWORD PTR [rax]
4558:	48 8d 1d 81 fe 20 00 	lea    rbx,[rip+0x20fe81]        # 2143e0 <time_zone_table>
455f:	48 8d 35 75 bb 00 00 	lea    rsi,[rip+0xbb75]        # 100db <time_masks+0xab>
4566:	eb 14                	jmp    457c <lookup_zone+0x7c>
4568:	0f 1f 84 00 00 00 00 	nop    DWORD PTR [rax+rax*1+0x0]
456f:	00
4570:	48 83 c3 10          	add    rbx,0x10
4574:	48 8b 33             	mov    rsi,QWORD PTR [rbx]
4577:	48 85 f6             	test   rsi,rsi
457a:	74 34                	je     45b0 <lookup_zone+0xb0>
457c:	48 89 ef             	mov    rdi,rbp
457f:	e8 cc e3 ff ff       	call   2950 <strcmp@plt>
4584:	85 c0                	test   eax,eax
4586:	75 e8                	jne    4570 <lookup_zone+0x70>
4588:	eb ae                	jmp    4538 <lookup_zone+0x38>
458a:	66 0f 1f 44 00 00    	nop    WORD PTR [rax+rax*1+0x0]
4590:	48 83 c3 10          	add    rbx,0x10
4594:	48 8b 33             	mov    rsi,QWORD PTR [rbx]
4597:	48 85 f6             	test   rsi,rsi
459a:	74 bc                	je     4558 <lookup_zone+0x58>
459c:	48 89 ef             	mov    rdi,rbp
459f:	e8 ac e3 ff ff       	call   2950 <strcmp@plt>
45a4:	85 c0                	test   eax,eax
45a6:	75 e8                	jne    4590 <lookup_zone+0x90>
45a8:	48 89 d8             	mov    rax,rbx
45ab:	5b                   	pop    rbx
45ac:	5d                   	pop    rbp
45ad:	41 5c                	pop    r12
45af:	c3                   	ret
45b0:	31 db                	xor    ebx,ebx
45b2:	48 89 d8             	mov    rax,rbx
45b5:	5b                   	pop    rbx
45b6:	5d                   	pop    rbp
45b7:	41 5c                	pop    r12
45b9:	c3                   	ret
45ba:	66 0f 1f 44 00 00    	nop    WORD PTR [rax+rax*1+0x0]

00000000000045c0 <debug_print_relative_time.part.11>:
45c0:	55                   	push   rbp
45c1:	53                   	push   rbx
45c2:	48 89 f3             	mov    rbx,rsi
45c5:	48 8d 35 13 bb 00 00 	lea    rsi,[rip+0xbb13]        # 100df <time_masks+0xaf>
45cc:	48 89 fd             	mov    rbp,rdi
45cf:	ba 05 00 00 00       	mov    edx,0x5
45d4:	48 83 ec 08          	sub    rsp,0x8
45d8:	31 ff                	xor    edi,edi
45da:	e8 11 e2 ff ff       	call   27f0 <dcgettext@plt>
45df:	48 89 ee             	mov    rsi,rbp
45e2:	48 89 c7             	mov    rdi,rax
45e5:	31 c0                	xor    eax,eax
45e7:	e8 d4 fc ff ff       	call   42c0 <dbg_printf>
45ec:	48 8b 73 68          	mov    rsi,QWORD PTR [rbx+0x68]
45f0:	48 85 f6             	test   rsi,rsi
45f3:	0f 85 87 01 00 00    	jne    4780 <debug_print_relative_time.part.11+0x1c0>
45f9:	48 8b 73 70          	mov    rsi,QWORD PTR [rbx+0x70]
45fd:	48 85 f6             	test   rsi,rsi
4600:	74 7e                	je     4680 <debug_print_relative_time.part.11+0xc0>
4602:	31 ff                	xor    edi,edi
4604:	48 8d 15 fd ba 00 00 	lea    rdx,[rip+0xbafd]        # 10108 <time_masks+0xd8>
460b:	e8 a0 fd ff ff       	call   43b0 <print_rel_part.part.2>
4610:	48 8b 73 78          	mov    rsi,QWORD PTR [rbx+0x78]
4614:	0f b6 f8             	movzx  edi,al
4617:	48 85 f6             	test   rsi,rsi
461a:	0f 85 d0 00 00 00    	jne    46f0 <debug_print_relative_time.part.11+0x130>
4620:	48 8b b3 80 00 00 00 	mov    rsi,QWORD PTR [rbx+0x80]
4627:	48 85 f6             	test   rsi,rsi
462a:	0f 85 df 00 00 00    	jne    470f <debug_print_relative_time.part.11+0x14f>
4630:	48 8b b3 88 00 00 00 	mov    rsi,QWORD PTR [rbx+0x88]
4637:	48 85 f6             	test   rsi,rsi
463a:	0f 85 ee 00 00 00    	jne    472e <debug_print_relative_time.part.11+0x16e>
4640:	48 8b b3 90 00 00 00 	mov    rsi,QWORD PTR [rbx+0x90]
4647:	48 85 f6             	test   rsi,rsi
464a:	0f 85 fd 00 00 00    	jne    474d <debug_print_relative_time.part.11+0x18d>
4650:	48 63 b3 98 00 00 00 	movsxd rsi,DWORD PTR [rbx+0x98]
4657:	48 85 f6             	test   rsi,rsi
465a:	0f 85 0c 01 00 00    	jne    476c <debug_print_relative_time.part.11+0x1ac>
4660:	48 8b 35 79 0a 21 00 	mov    rsi,QWORD PTR [rip+0x210a79]        # 2150e0 <stderr@@GLIBC_2.2.5>
4667:	48 83 c4 08          	add    rsp,0x8
466b:	bf 0a 00 00 00       	mov    edi,0xa
4670:	5b                   	pop    rbx
4671:	5d                   	pop    rbp
4672:	e9 99 e2 ff ff       	jmp    2910 <fputc@plt>
4677:	66 0f 1f 84 00 00 00 	nop    WORD PTR [rax+rax*1+0x0]
467e:	00 00
4680:	48 8b 73 78          	mov    rsi,QWORD PTR [rbx+0x78]
4684:	31 ff                	xor    edi,edi
4686:	48 85 f6             	test   rsi,rsi
4689:	75 65                	jne    46f0 <debug_print_relative_time.part.11+0x130>
468b:	48 83 bb 80 00 00 00 	cmp    QWORD PTR [rbx+0x80],0x0
4692:	00
4693:	75 8b                	jne    4620 <debug_print_relative_time.part.11+0x60>
4695:	48 83 bb 88 00 00 00 	cmp    QWORD PTR [rbx+0x88],0x0
469c:	00
469d:	75 81                	jne    4620 <debug_print_relative_time.part.11+0x60>
469f:	48 83 bb 90 00 00 00 	cmp    QWORD PTR [rbx+0x90],0x0
46a6:	00
46a7:	0f 85 73 ff ff ff    	jne    4620 <debug_print_relative_time.part.11+0x60>
46ad:	8b 83 98 00 00 00    	mov    eax,DWORD PTR [rbx+0x98]
46b3:	85 c0                	test   eax,eax
46b5:	0f 85 65 ff ff ff    	jne    4620 <debug_print_relative_time.part.11+0x60>
46bb:	48 8b 1d 1e 0a 21 00 	mov    rbx,QWORD PTR [rip+0x210a1e]        # 2150e0 <stderr@@GLIBC_2.2.5>
46c2:	48 8d 35 27 ba 00 00 	lea    rsi,[rip+0xba27]        # 100f0 <time_masks+0xc0>
46c9:	31 ff                	xor    edi,edi
46cb:	ba 05 00 00 00       	mov    edx,0x5
46d0:	e8 1b e1 ff ff       	call   27f0 <dcgettext@plt>
46d5:	48 83 c4 08          	add    rsp,0x8
46d9:	48 89 de             	mov    rsi,rbx
46dc:	48 89 c7             	mov    rdi,rax
46df:	5b                   	pop    rbx
46e0:	5d                   	pop    rbp
46e1:	e9 fa e1 ff ff       	jmp    28e0 <fputs@plt>
46e6:	66 2e 0f 1f 84 00 00 	nop    WORD PTR cs:[rax+rax*1+0x0]
46ed:	00 00 00
46f0:	48 8d 15 1a ba 00 00 	lea    rdx,[rip+0xba1a]        # 10111 <time_masks+0xe1>
46f7:	e8 b4 fc ff ff       	call   43b0 <print_rel_part.part.2>
46fc:	48 8b b3 80 00 00 00 	mov    rsi,QWORD PTR [rbx+0x80]
4703:	0f b6 f8             	movzx  edi,al
4706:	48 85 f6             	test   rsi,rsi
4709:	0f 84 21 ff ff ff    	je     4630 <debug_print_relative_time.part.11+0x70>
470f:	48 8d 15 02 ba 00 00 	lea    rdx,[rip+0xba02]        # 10118 <time_masks+0xe8>
4716:	e8 95 fc ff ff       	call   43b0 <print_rel_part.part.2>
471b:	48 8b b3 88 00 00 00 	mov    rsi,QWORD PTR [rbx+0x88]
4722:	0f b6 f8             	movzx  edi,al
4725:	48 85 f6             	test   rsi,rsi
4728:	0f 84 12 ff ff ff    	je     4640 <debug_print_relative_time.part.11+0x80>
472e:	48 8d 15 eb b9 00 00 	lea    rdx,[rip+0xb9eb]        # 10120 <time_masks+0xf0>
4735:	e8 76 fc ff ff       	call   43b0 <print_rel_part.part.2>
473a:	48 8b b3 90 00 00 00 	mov    rsi,QWORD PTR [rbx+0x90]
4741:	0f b6 f8             	movzx  edi,al
4744:	48 85 f6             	test   rsi,rsi
4747:	0f 84 03 ff ff ff    	je     4650 <debug_print_relative_time.part.11+0x90>
474d:	48 8d 15 b1 ba 00 00 	lea    rdx,[rip+0xbab1]        # 10205 <time_masks+0x1d5>
4754:	e8 57 fc ff ff       	call   43b0 <print_rel_part.part.2>
4759:	48 63 b3 98 00 00 00 	movsxd rsi,DWORD PTR [rbx+0x98]
4760:	0f b6 f8             	movzx  edi,al
4763:	48 85 f6             	test   rsi,rsi
4766:	0f 84 f4 fe ff ff    	je     4660 <debug_print_relative_time.part.11+0xa0>
476c:	48 8d 15 b5 b9 00 00 	lea    rdx,[rip+0xb9b5]        # 10128 <time_masks+0xf8>
4773:	e8 38 fc ff ff       	call   43b0 <print_rel_part.part.2>
4778:	e9 e3 fe ff ff       	jmp    4660 <debug_print_relative_time.part.11+0xa0>
477d:	0f 1f 00             	nop    DWORD PTR [rax]
4780:	48 8d 15 79 b9 00 00 	lea    rdx,[rip+0xb979]        # 10100 <time_masks+0xd0>
4787:	31 ff                	xor    edi,edi
4789:	e8 22 fc ff ff       	call   43b0 <print_rel_part.part.2>
478e:	48 8b 73 70          	mov    rsi,QWORD PTR [rbx+0x70]
4792:	0f b6 f8             	movzx  edi,al
4795:	48 85 f6             	test   rsi,rsi
4798:	0f 85 66 fe ff ff    	jne    4604 <debug_print_relative_time.part.11+0x44>
479e:	48 8b 73 78          	mov    rsi,QWORD PTR [rbx+0x78]
47a2:	e9 70 fe ff ff       	jmp    4617 <debug_print_relative_time.part.11+0x57>
47a7:	66 0f 1f 84 00 00 00 	nop    WORD PTR [rax+rax*1+0x0]
47ae:	00 00

00000000000047b0 <debug_strfdatetime.constprop.12>:
47b0:	41 54                	push   r12
47b2:	55                   	push   rbp
47b3:	48 89 f9             	mov    rcx,rdi
47b6:	53                   	push   rbx
47b7:	48 89 d3             	mov    rbx,rdx
47ba:	48 8d 15 73 b9 00 00 	lea    rdx,[rip+0xb973]        # 10134 <time_masks+0x104>
47c1:	49 89 f4             	mov    r12,rsi
47c4:	45 31 c9             	xor    r9d,r9d
47c7:	45 31 c0             	xor    r8d,r8d
47ca:	48 83 ec 30          	sub    rsp,0x30
47ce:	be 64 00 00 00       	mov    esi,0x64
47d3:	48 89 df             	mov    rdi,rbx
47d6:	64 48 8b 04 25 28 00 	mov    rax,QWORD PTR fs:0x28
47dd:	00 00
47df:	48 89 44 24 28       	mov    QWORD PTR [rsp+0x28],rax
47e4:	31 c0                	xor    eax,eax
47e6:	e8 05 8d 00 00       	call   d4f0 <nstrftime>
47eb:	4d 85 e4             	test   r12,r12
47ee:	74 13                	je     4803 <debug_strfdatetime.constprop.12+0x53>
47f0:	83 f8 63             	cmp    eax,0x63
47f3:	48 89 c5             	mov    rbp,rax
47f6:	7f 0b                	jg     4803 <debug_strfdatetime.constprop.12+0x53>
47f8:	49 83 bc 24 d0 00 00 	cmp    QWORD PTR [r12+0xd0],0x0
47ff:	00 00
4801:	75 1d                	jne    4820 <debug_strfdatetime.constprop.12+0x70>
4803:	48 8b 54 24 28       	mov    rdx,QWORD PTR [rsp+0x28]
4808:	64 48 33 14 25 28 00 	xor    rdx,QWORD PTR fs:0x28
480f:	00 00
4811:	48 89 d8             	mov    rax,rbx
4814:	75 46                	jne    485c <debug_strfdatetime.constprop.12+0xac>
4816:	48 83 c4 30          	add    rsp,0x30
481a:	5b                   	pop    rbx
481b:	5d                   	pop    rbp
481c:	41 5c                	pop    r12
481e:	c3                   	ret
481f:	90                   	nop
4820:	41 8b 7c 24 18       	mov    edi,DWORD PTR [r12+0x18]
4825:	48 89 e6             	mov    rsi,rsp
4828:	e8 93 f9 ff ff       	call   41c0 <time_zone_str>
482d:	be 64 00 00 00       	mov    esi,0x64
4832:	48 63 fd             	movsxd rdi,ebp
4835:	4c 8d 05 12 b9 00 00 	lea    r8,[rip+0xb912]        # 1014e <time_masks+0x11e>
483c:	29 ee                	sub    esi,ebp
483e:	49 89 c1             	mov    r9,rax
4841:	48 01 df             	add    rdi,rbx
4844:	48 63 f6             	movsxd rsi,esi
4847:	48 c7 c1 ff ff ff ff 	mov    rcx,0xffffffffffffffff
484e:	ba 01 00 00 00       	mov    edx,0x1
4853:	31 c0                	xor    eax,eax
4855:	e8 a6 de ff ff       	call   2700 <__snprintf_chk@plt>
485a:	eb a7                	jmp    4803 <debug_strfdatetime.constprop.12+0x53>
485c:	e8 cf df ff ff       	call   2830 <__stack_chk_fail@plt>
4861:	0f 1f 44 00 00       	nop    DWORD PTR [rax+rax*1+0x0]
4866:	66 2e 0f 1f 84 00 00 	nop    WORD PTR cs:[rax+rax*1+0x0]
486d:	00 00 00

0000000000004870 <str_days.constprop.13>:
4870:	55                   	push   rbp
4871:	53                   	push   rbx
4872:	48 89 f5             	mov    rbp,rsi
4875:	48 89 fb             	mov    rbx,rdi
4878:	48 83 ec 08          	sub    rsp,0x8
487c:	80 bf e0 00 00 00 00 	cmp    BYTE PTR [rdi+0xe0],0x0
4883:	74 53                	je     48d8 <str_days.constprop.13+0x68>
4885:	4c 8b 4f 08          	mov    r9,QWORD PTR [rdi+0x8]
4889:	49 8d 41 01          	lea    rax,[r9+0x1]
488d:	48 83 f8 0d          	cmp    rax,0xd
4891:	0f 86 91 00 00 00    	jbe    4928 <str_days.constprop.13+0xb8>
4897:	4c 8d 05 24 b9 00 00 	lea    r8,[rip+0xb924]        # 101c2 <time_masks+0x192>
489e:	48 c7 c1 ff ff ff ff 	mov    rcx,0xffffffffffffffff
48a5:	ba 01 00 00 00       	mov    edx,0x1
48aa:	be 64 00 00 00       	mov    esi,0x64
48af:	48 89 ef             	mov    rdi,rbp
48b2:	31 c0                	xor    eax,eax
48b4:	e8 47 de ff ff       	call   2700 <__snprintf_chk@plt>
48b9:	48 63 53 10          	movsxd rdx,DWORD PTR [rbx+0x10]
48bd:	83 fa 06             	cmp    edx,0x6
48c0:	77 09                	ja     48cb <str_days.constprop.13+0x5b>
48c2:	83 f8 63             	cmp    eax,0x63
48c5:	0f 86 8a 00 00 00    	jbe    4955 <str_days.constprop.13+0xe5>
48cb:	48 83 c4 08          	add    rsp,0x8
48cf:	48 89 e8             	mov    rax,rbp
48d2:	5b                   	pop    rbx
48d3:	5d                   	pop    rbp
48d4:	c3                   	ret
48d5:	0f 1f 00             	nop    DWORD PTR [rax]
48d8:	c6 06 00             	mov    BYTE PTR [rsi],0x0
48db:	48 63 57 10          	movsxd rdx,DWORD PTR [rdi+0x10]
48df:	83 fa 06             	cmp    edx,0x6
48e2:	77 e7                	ja     48cb <str_days.constprop.13+0x5b>
48e4:	48 89 f7             	mov    rdi,rsi
48e7:	b9 01 00 00 00       	mov    ecx,0x1
48ec:	be 64 00 00 00       	mov    esi,0x64
48f1:	48 8d 05 28 c7 00 00 	lea    rax,[rip+0xc728]        # 11020 <days_values.5109>
48f8:	4c 8d 0c 90          	lea    r9,[rax+rdx*4]
48fc:	48 8d 05 9c b7 00 00 	lea    rax,[rip+0xb79c]        # 1009f <time_masks+0x6f>
4903:	ba 01 00 00 00       	mov    edx,0x1
4908:	4c 8d 04 08          	lea    r8,[rax+rcx*1]
490c:	48 c7 c1 ff ff ff ff 	mov    rcx,0xffffffffffffffff
4913:	31 c0                	xor    eax,eax
4915:	e8 e6 dd ff ff       	call   2700 <__snprintf_chk@plt>
491a:	48 83 c4 08          	add    rsp,0x8
491e:	48 89 e8             	mov    rax,rbp
4921:	5b                   	pop    rbx
4922:	5d                   	pop    rbp
4923:	c3                   	ret
4924:	0f 1f 40 00          	nop    DWORD PTR [rax+0x0]
4928:	48 8d 14 80          	lea    rdx,[rax+rax*4]
492c:	be 64 00 00 00       	mov    esi,0x64
4931:	48 89 ef             	mov    rdi,rbp
4934:	48 8d 0c 50          	lea    rcx,[rax+rdx*2]
4938:	48 8d 05 01 c7 00 00 	lea    rax,[rip+0xc701]        # 11040 <ordinal_values.5108>
493f:	48 8d 15 5a b7 00 00 	lea    rdx,[rip+0xb75a]        # 100a0 <time_masks+0x70>
4946:	48 01 c1             	add    rcx,rax
4949:	31 c0                	xor    eax,eax
494b:	e8 30 df ff ff       	call   2880 <snprintf@plt>
4950:	e9 64 ff ff ff       	jmp    48b9 <str_days.constprop.13+0x49>
4955:	31 c9                	xor    ecx,ecx
4957:	be 64 00 00 00       	mov    esi,0x64
495c:	85 c0                	test   eax,eax
495e:	0f 94 c1             	sete   cl
4961:	29 c6                	sub    esi,eax
4963:	48 98                	cdqe
4965:	48 63 f6             	movsxd rsi,esi
4968:	48 8d 7c 05 00       	lea    rdi,[rbp+rax*1+0x0]
496d:	eb 82                	jmp    48f1 <str_days.constprop.13+0x81>
496f:	90                   	nop

0000000000004970 <debug_print_current_time.part.10>:
4970:	41 55                	push   r13
4972:	41 54                	push   r12
4974:	ba 05 00 00 00       	mov    edx,0x5
4979:	55                   	push   rbp
497a:	53                   	push   rbx
497b:	48 89 f3             	mov    rbx,rsi
497e:	48 8d 35 5a b7 00 00 	lea    rsi,[rip+0xb75a]        # 100df <time_masks+0xaf>
4985:	48 89 fd             	mov    rbp,rdi
4988:	31 ff                	xor    edi,edi
498a:	48 83 ec 78          	sub    rsp,0x78
498e:	64 48 8b 04 25 28 00 	mov    rax,QWORD PTR fs:0x28
4995:	00 00
4997:	48 89 44 24 68       	mov    QWORD PTR [rsp+0x68],rax
499c:	31 c0                	xor    eax,eax
499e:	e8 4d de ff ff       	call   27f0 <dcgettext@plt>
49a3:	48 89 ee             	mov    rsi,rbp
49a6:	48 89 c7             	mov    rdi,rax
49a9:	31 c0                	xor    eax,eax
49ab:	e8 10 f9 ff ff       	call   42c0 <dbg_printf>
49b0:	48 83 bb a8 00 00 00 	cmp    QWORD PTR [rbx+0xa8],0x0
49b7:	00
49b8:	74 0d                	je     49c7 <debug_print_current_time.part.10+0x57>
49ba:	80 bb da 00 00 00 00 	cmp    BYTE PTR [rbx+0xda],0x0
49c1:	0f 84 f9 01 00 00    	je     4bc0 <debug_print_current_time.part.10+0x250>
49c7:	0f b6 83 df 00 00 00 	movzx  eax,BYTE PTR [rbx+0xdf]
49ce:	38 83 d8 00 00 00    	cmp    BYTE PTR [rbx+0xd8],al
49d4:	0f 84 da 01 00 00    	je     4bb4 <debug_print_current_time.part.10+0x244>
49da:	48 8d 35 9a b7 00 00 	lea    rsi,[rip+0xb79a]        # 1017b <time_masks+0x14b>
49e1:	48 8b 6b 28          	mov    rbp,QWORD PTR [rbx+0x28]
49e5:	ba 05 00 00 00       	mov    edx,0x5
49ea:	31 ff                	xor    edi,edi
49ec:	e8 ff dd ff ff       	call   27f0 <dcgettext@plt>
49f1:	48 8b 3d e8 06 21 00 	mov    rdi,QWORD PTR [rip+0x2106e8]        # 2150e0 <stderr@@GLIBC_2.2.5>
49f8:	48 89 c2             	mov    rdx,rax
49fb:	48 89 e9             	mov    rcx,rbp
49fe:	be 01 00 00 00       	mov    esi,0x1
4a03:	31 c0                	xor    eax,eax
4a05:	e8 e6 e0 ff ff       	call   2af0 <__fprintf_chk@plt>
4a0a:	0f b6 83 d8 00 00 00 	movzx  eax,BYTE PTR [rbx+0xd8]
4a11:	ba 01 00 00 00       	mov    edx,0x1
4a16:	88 83 df 00 00 00    	mov    BYTE PTR [rbx+0xdf],al
4a1c:	48 83 bb c8 00 00 00 	cmp    QWORD PTR [rbx+0xc8],0x0
4a23:	00
4a24:	74 0d                	je     4a33 <debug_print_current_time.part.10+0xc3>
4a26:	80 bb dd 00 00 00 00 	cmp    BYTE PTR [rbx+0xdd],0x0
4a2d:	0f 84 ed 01 00 00    	je     4c20 <debug_print_current_time.part.10+0x2b0>
4a33:	48 83 bb b0 00 00 00 	cmp    QWORD PTR [rbx+0xb0],0x0
4a3a:	00
4a3b:	74 65                	je     4aa2 <debug_print_current_time.part.10+0x132>
4a3d:	80 bb db 00 00 00 00 	cmp    BYTE PTR [rbx+0xdb],0x0
4a44:	75 5c                	jne    4aa2 <debug_print_current_time.part.10+0x132>
4a46:	84 d2                	test   dl,dl
4a48:	0f 85 41 02 00 00    	jne    4c8f <debug_print_current_time.part.10+0x31f>
4a4e:	48 89 e6             	mov    rsi,rsp
4a51:	48 89 df             	mov    rdi,rbx
4a54:	44 8b 6b 10          	mov    r13d,DWORD PTR [rbx+0x10]
4a58:	4c 8b 63 08          	mov    r12,QWORD PTR [rbx+0x8]
4a5c:	e8 0f fe ff ff       	call   4870 <str_days.constprop.13>
4a61:	48 8d 35 90 bc 00 00 	lea    rsi,[rip+0xbc90]        # 106f8 <time_masks+0x6c8>
4a68:	ba 05 00 00 00       	mov    edx,0x5
4a6d:	31 ff                	xor    edi,edi
4a6f:	48 89 c5             	mov    rbp,rax
4a72:	e8 79 dd ff ff       	call   27f0 <dcgettext@plt>
4a77:	48 8b 3d 62 06 21 00 	mov    rdi,QWORD PTR [rip+0x210662]        # 2150e0 <stderr@@GLIBC_2.2.5>
4a7e:	48 89 c2             	mov    rdx,rax
4a81:	45 89 e9             	mov    r9d,r13d
4a84:	4d 89 e0             	mov    r8,r12
4a87:	48 89 e9             	mov    rcx,rbp
4a8a:	be 01 00 00 00       	mov    esi,0x1
4a8f:	31 c0                	xor    eax,eax
4a91:	e8 5a e0 ff ff       	call   2af0 <__fprintf_chk@plt>
4a96:	c6 83 db 00 00 00 01 	mov    BYTE PTR [rbx+0xdb],0x1
4a9d:	ba 01 00 00 00       	mov    edx,0x1
4aa2:	48 83 bb b8 00 00 00 	cmp    QWORD PTR [rbx+0xb8],0x0
4aa9:	00
4aaa:	0f 84 80 00 00 00    	je     4b30 <debug_print_current_time.part.10+0x1c0>
4ab0:	80 bb dc 00 00 00 00 	cmp    BYTE PTR [rbx+0xdc],0x0
4ab7:	75 77                	jne    4b30 <debug_print_current_time.part.10+0x1c0>
4ab9:	48 83 bb c0 00 00 00 	cmp    QWORD PTR [rbx+0xc0],0x0
4ac0:	00
4ac1:	48 8d 05 8d b6 00 00 	lea    rax,[rip+0xb68d]        # 10155 <time_masks+0x125>
4ac8:	4c 8d 05 a7 b8 00 00 	lea    r8,[rip+0xb8a7]        # 10376 <time_masks+0x346>
4acf:	8b 4b 14             	mov    ecx,DWORD PTR [rbx+0x14]
4ad2:	48 8b 3d 07 06 21 00 	mov    rdi,QWORD PTR [rip+0x210607]        # 2150e0 <stderr@@GLIBC_2.2.5>
4ad9:	be 01 00 00 00       	mov    esi,0x1
4ade:	4c 0f 45 c0          	cmovne r8,rax
4ae2:	83 f2 01             	xor    edx,0x1
4ae5:	48 8d 05 b7 b6 00 00 	lea    rax,[rip+0xb6b7]        # 101a3 <time_masks+0x173>
4aec:	0f b6 d2             	movzx  edx,dl
4aef:	48 01 c2             	add    rdx,rax
4af2:	31 c0                	xor    eax,eax
4af4:	e8 f7 df ff ff       	call   2af0 <__fprintf_chk@plt>
4af9:	48 83 bb d0 00 00 00 	cmp    QWORD PTR [rbx+0xd0],0x0
4b00:	00
4b01:	c6 83 dc 00 00 00 01 	mov    BYTE PTR [rbx+0xdc],0x1
4b08:	0f 85 9a 01 00 00    	jne    4ca8 <debug_print_current_time.part.10+0x338>
4b0e:	80 bb a0 00 00 00 00 	cmp    BYTE PTR [rbx+0xa0],0x0
4b15:	74 6d                	je     4b84 <debug_print_current_time.part.10+0x214>
4b17:	48 8b 5b 58          	mov    rbx,QWORD PTR [rbx+0x58]
4b1b:	48 8b 35 be 05 21 00 	mov    rsi,QWORD PTR [rip+0x2105be]        # 2150e0 <stderr@@GLIBC_2.2.5>
4b22:	bf 20 00 00 00       	mov    edi,0x20
4b27:	e8 e4 dd ff ff       	call   2910 <fputc@plt>
4b2c:	eb 2a                	jmp    4b58 <debug_print_current_time.part.10+0x1e8>
4b2e:	66 90                	xchg   ax,ax
4b30:	48 83 bb d0 00 00 00 	cmp    QWORD PTR [rbx+0xd0],0x0
4b37:	00
4b38:	74 0d                	je     4b47 <debug_print_current_time.part.10+0x1d7>
4b3a:	80 bb de 00 00 00 00 	cmp    BYTE PTR [rbx+0xde],0x0
4b41:	0f 84 79 01 00 00    	je     4cc0 <debug_print_current_time.part.10+0x350>
4b47:	80 bb a0 00 00 00 00 	cmp    BYTE PTR [rbx+0xa0],0x0
4b4e:	74 34                	je     4b84 <debug_print_current_time.part.10+0x214>
4b50:	84 d2                	test   dl,dl
4b52:	48 8b 5b 58          	mov    rbx,QWORD PTR [rbx+0x58]
4b56:	75 c3                	jne    4b1b <debug_print_current_time.part.10+0x1ab>
4b58:	48 8d 35 50 b6 00 00 	lea    rsi,[rip+0xb650]        # 101af <time_masks+0x17f>
4b5f:	ba 05 00 00 00       	mov    edx,0x5
4b64:	31 ff                	xor    edi,edi
4b66:	e8 85 dc ff ff       	call   27f0 <dcgettext@plt>
4b6b:	48 8b 3d 6e 05 21 00 	mov    rdi,QWORD PTR [rip+0x21056e]        # 2150e0 <stderr@@GLIBC_2.2.5>
4b72:	48 89 c2             	mov    rdx,rax
4b75:	48 89 d9             	mov    rcx,rbx
4b78:	be 01 00 00 00       	mov    esi,0x1
4b7d:	31 c0                	xor    eax,eax
4b7f:	e8 6c df ff ff       	call   2af0 <__fprintf_chk@plt>
4b84:	48 8b 35 55 05 21 00 	mov    rsi,QWORD PTR [rip+0x210555]        # 2150e0 <stderr@@GLIBC_2.2.5>
4b8b:	bf 0a 00 00 00       	mov    edi,0xa
4b90:	e8 7b dd ff ff       	call   2910 <fputc@plt>
4b95:	48 8b 44 24 68       	mov    rax,QWORD PTR [rsp+0x68]
4b9a:	64 48 33 04 25 28 00 	xor    rax,QWORD PTR fs:0x28
4ba1:	00 00
4ba3:	0f 85 99 01 00 00    	jne    4d42 <debug_print_current_time.part.10+0x3d2>
4ba9:	48 83 c4 78          	add    rsp,0x78
4bad:	5b                   	pop    rbx
4bae:	5d                   	pop    rbp
4baf:	41 5c                	pop    r12
4bb1:	41 5d                	pop    r13
4bb3:	c3                   	ret
4bb4:	31 d2                	xor    edx,edx
4bb6:	e9 61 fe ff ff       	jmp    4a1c <debug_print_current_time.part.10+0xac>
4bbb:	0f 1f 44 00 00       	nop    DWORD PTR [rax+rax*1+0x0]
4bc0:	48 8b 4b 28          	mov    rcx,QWORD PTR [rbx+0x28]
4bc4:	4c 8b 4b 40          	mov    r9,QWORD PTR [rbx+0x40]
4bc8:	48 8d 15 92 b5 00 00 	lea    rdx,[rip+0xb592]        # 10161 <time_masks+0x131>
4bcf:	4c 8b 43 38          	mov    r8,QWORD PTR [rbx+0x38]
4bd3:	48 8b 3d 06 05 21 00 	mov    rdi,QWORD PTR [rip+0x210506]        # 2150e0 <stderr@@GLIBC_2.2.5>
4bda:	31 c0                	xor    eax,eax
4bdc:	be 01 00 00 00       	mov    esi,0x1
4be1:	e8 0a df ff ff       	call   2af0 <__fprintf_chk@plt>
4be6:	0f b6 83 df 00 00 00 	movzx  eax,BYTE PTR [rbx+0xdf]
4bed:	c6 83 da 00 00 00 01 	mov    BYTE PTR [rbx+0xda],0x1
4bf4:	ba 01 00 00 00       	mov    edx,0x1
4bf9:	38 83 d8 00 00 00    	cmp    BYTE PTR [rbx+0xd8],al
4bff:	0f 84 17 fe ff ff    	je     4a1c <debug_print_current_time.part.10+0xac>
4c05:	48 8b 35 d4 04 21 00 	mov    rsi,QWORD PTR [rip+0x2104d4]        # 2150e0 <stderr@@GLIBC_2.2.5>
4c0c:	bf 20 00 00 00       	mov    edi,0x20
4c11:	e8 fa dc ff ff       	call   2910 <fputc@plt>
4c16:	e9 bf fd ff ff       	jmp    49da <debug_print_current_time.part.10+0x6a>
4c1b:	0f 1f 44 00 00       	nop    DWORD PTR [rax+rax*1+0x0]
4c20:	48 8b 4b 48          	mov    rcx,QWORD PTR [rbx+0x48]
4c24:	83 f2 01             	xor    edx,0x1
4c27:	48 8d 05 59 b5 00 00 	lea    rax,[rip+0xb559]        # 10187 <time_masks+0x157>
4c2e:	4c 8b 4b 58          	mov    r9,QWORD PTR [rbx+0x58]
4c32:	4c 8b 43 50          	mov    r8,QWORD PTR [rbx+0x50]
4c36:	0f b6 d2             	movzx  edx,dl
4c39:	48 8b 3d a0 04 21 00 	mov    rdi,QWORD PTR [rip+0x2104a0]        # 2150e0 <stderr@@GLIBC_2.2.5>
4c40:	48 01 c2             	add    rdx,rax
4c43:	be 01 00 00 00       	mov    esi,0x1
4c48:	31 c0                	xor    eax,eax
4c4a:	e8 a1 de ff ff       	call   2af0 <__fprintf_chk@plt>
4c4f:	48 8b 4b 60          	mov    rcx,QWORD PTR [rbx+0x60]
4c53:	48 85 c9             	test   rcx,rcx
4c56:	0f 85 a4 00 00 00    	jne    4d00 <debug_print_current_time.part.10+0x390>
4c5c:	83 7b 1c 01          	cmp    DWORD PTR [rbx+0x1c],0x1
4c60:	0f 84 ba 00 00 00    	je     4d20 <debug_print_current_time.part.10+0x3b0>
4c66:	48 83 bb b0 00 00 00 	cmp    QWORD PTR [rbx+0xb0],0x0
4c6d:	00
4c6e:	c6 83 dd 00 00 00 01 	mov    BYTE PTR [rbx+0xdd],0x1
4c75:	ba 01 00 00 00       	mov    edx,0x1
4c7a:	0f 84 22 fe ff ff    	je     4aa2 <debug_print_current_time.part.10+0x132>
4c80:	0f b6 93 db 00 00 00 	movzx  edx,BYTE PTR [rbx+0xdb]
4c87:	84 d2                	test   dl,dl
4c89:	0f 85 13 fe ff ff    	jne    4aa2 <debug_print_current_time.part.10+0x132>
4c8f:	48 8b 35 4a 04 21 00 	mov    rsi,QWORD PTR [rip+0x21044a]        # 2150e0 <stderr@@GLIBC_2.2.5>
4c96:	bf 20 00 00 00       	mov    edi,0x20
4c9b:	e8 70 dc ff ff       	call   2910 <fputc@plt>
4ca0:	e9 a9 fd ff ff       	jmp    4a4e <debug_print_current_time.part.10+0xde>
4ca5:	0f 1f 00             	nop    DWORD PTR [rax]
4ca8:	80 bb de 00 00 00 00 	cmp    BYTE PTR [rbx+0xde],0x0
4caf:	0f 85 59 fe ff ff    	jne    4b0e <debug_print_current_time.part.10+0x19e>
4cb5:	48 8d 2d 9e b4 00 00 	lea    rbp,[rip+0xb49e]        # 1015a <time_masks+0x12a>
4cbc:	eb 12                	jmp    4cd0 <debug_print_current_time.part.10+0x360>
4cbe:	66 90                	xchg   ax,ax
4cc0:	83 f2 01             	xor    edx,0x1
4cc3:	0f b6 ea             	movzx  ebp,dl
4cc6:	48 8d 15 8d b4 00 00 	lea    rdx,[rip+0xb48d]        # 1015a <time_masks+0x12a>
4ccd:	48 01 d5             	add    rbp,rdx
4cd0:	8b 7b 18             	mov    edi,DWORD PTR [rbx+0x18]
4cd3:	48 89 e6             	mov    rsi,rsp
4cd6:	e8 e5 f4 ff ff       	call   41c0 <time_zone_str>
4cdb:	48 8b 3d fe 03 21 00 	mov    rdi,QWORD PTR [rip+0x2103fe]        # 2150e0 <stderr@@GLIBC_2.2.5>
4ce2:	48 89 c1             	mov    rcx,rax
4ce5:	48 89 ea             	mov    rdx,rbp
4ce8:	be 01 00 00 00       	mov    esi,0x1
4ced:	31 c0                	xor    eax,eax
4cef:	e8 fc dd ff ff       	call   2af0 <__fprintf_chk@plt>
4cf4:	c6 83 de 00 00 00 01 	mov    BYTE PTR [rbx+0xde],0x1
4cfb:	e9 0e fe ff ff       	jmp    4b0e <debug_print_current_time.part.10+0x19e>
4d00:	48 8b 3d d9 03 21 00 	mov    rdi,QWORD PTR [rip+0x2103d9]        # 2150e0 <stderr@@GLIBC_2.2.5>
4d07:	48 8d 15 8c b4 00 00 	lea    rdx,[rip+0xb48c]        # 1019a <time_masks+0x16a>
4d0e:	be 01 00 00 00       	mov    esi,0x1
4d13:	31 c0                	xor    eax,eax
4d15:	e8 d6 dd ff ff       	call   2af0 <__fprintf_chk@plt>
4d1a:	e9 3d ff ff ff       	jmp    4c5c <debug_print_current_time.part.10+0x2ec>
4d1f:	90                   	nop
4d20:	48 8b 0d b9 03 21 00 	mov    rcx,QWORD PTR [rip+0x2103b9]        # 2150e0 <stderr@@GLIBC_2.2.5>
4d27:	48 8d 3d 72 b4 00 00 	lea    rdi,[rip+0xb472]        # 101a0 <time_masks+0x170>
4d2e:	ba 02 00 00 00       	mov    edx,0x2
4d33:	be 01 00 00 00       	mov    esi,0x1
4d38:	e8 a3 dd ff ff       	call   2ae0 <fwrite@plt>
4d3d:	e9 24 ff ff ff       	jmp    4c66 <debug_print_current_time.part.10+0x2f6>
4d42:	e8 e9 da ff ff       	call   2830 <__stack_chk_fail@plt>
4d47:	66 0f 1f 84 00 00 00 	nop    WORD PTR [rax+rax*1+0x0]
4d4e:	00 00

0000000000004d50 <yyparse>:
4d50:	41 57                	push   r15
4d52:	41 56                	push   r14
4d54:	31 d2                	xor    edx,edx
4d56:	41 55                	push   r13
4d58:	41 54                	push   r12
4d5a:	49 89 fb             	mov    r11,rdi
4d5d:	55                   	push   rbp
4d5e:	53                   	push   rbx
4d5f:	41 be 26 00 00 00    	mov    r14d,0x26
4d65:	31 db                	xor    ebx,ebx
4d67:	41 b9 fe ff ff ff    	mov    r9d,0xfffffffe
4d6d:	48 81 ec c8 05 00 00 	sub    rsp,0x5c8
4d74:	4c 8d bc 24 10 01 00 	lea    r15,[rsp+0x110]
4d7b:	00
4d7c:	4c 8d ac 24 40 01 00 	lea    r13,[rsp+0x140]
4d83:	00
4d84:	66 89 94 24 10 01 00 	mov    WORD PTR [rsp+0x110],dx
4d8b:	00
4d8c:	64 48 8b 04 25 28 00 	mov    rax,QWORD PTR fs:0x28
4d93:	00 00
4d95:	48 89 84 24 b8 05 00 	mov    QWORD PTR [rsp+0x5b8],rax
4d9c:	00
4d9d:	31 c0                	xor    eax,eax
4d9f:	4d 89 fc             	mov    r12,r15
4da2:	c7 44 24 34 00 00 00 	mov    DWORD PTR [rsp+0x34],0x0
4da9:	00
4daa:	45 0f be c6          	movsx  r8d,r14b
4dae:	41 83 f8 a3          	cmp    r8d,0xffffffa3
4db2:	74 3c                	je     4df0 <yyparse+0xa0>
4db4:	41 83 f9 fe          	cmp    r9d,0xfffffffe
4db8:	0f 84 82 06 00 00    	je     5440 <yyparse+0x6f0>
4dbe:	45 85 c9             	test   r9d,r9d
4dc1:	0f 8e a9 05 00 00    	jle    5370 <yyparse+0x620>
4dc7:	41 81 f9 15 01 00 00 	cmp    r9d,0x115
4dce:	0f 8e 4c 06 00 00    	jle    5420 <yyparse+0x6d0>
4dd4:	41 83 c0 02          	add    r8d,0x2
4dd8:	b8 02 00 00 00       	mov    eax,0x2
4ddd:	41 83 f8 70          	cmp    r8d,0x70
4de1:	0f 86 98 05 00 00    	jbe    537f <yyparse+0x62f>
4de7:	66 0f 1f 84 00 00 00 	nop    WORD PTR [rax+rax*1+0x0]
4dee:	00 00
4df0:	48 8d 05 e9 c4 00 00 	lea    rax,[rip+0xc4e9]        # 112e0 <yydefact>
4df7:	0f b6 2c 18          	movzx  ebp,BYTE PTR [rax+rbx*1]
4dfb:	85 ed                	test   ebp,ebp
4dfd:	0f 84 15 03 00 00    	je     5118 <yyparse+0x3c8>
4e03:	48 8d 15 d6 c2 00 00 	lea    rdx,[rip+0xc2d6]        # 110e0 <yyr2>
4e0a:	48 63 c5             	movsxd rax,ebp
4e0d:	0f b6 04 02          	movzx  eax,BYTE PTR [rdx+rax*1]
4e11:	ba 01 00 00 00       	mov    edx,0x1
4e16:	29 c2                	sub    edx,eax
4e18:	48 89 c3             	mov    rbx,rax
4e1b:	48 63 d2             	movsxd rdx,edx
4e1e:	48 8d 04 d5 00 00 00 	lea    rax,[rdx*8+0x0]
4e25:	00
4e26:	48 29 d0             	sub    rax,rdx
4e29:	48 c1 e0 03          	shl    rax,0x3
4e2d:	4c 01 e8             	add    rax,r13
4e30:	48 8b 78 10          	mov    rdi,QWORD PTR [rax+0x10]
4e34:	48 8b 50 30          	mov    rdx,QWORD PTR [rax+0x30]
4e38:	f3 0f 6f 00          	movdqu xmm0,XMMWORD PTR [rax]
4e3c:	4c 8b 30             	mov    r14,QWORD PTR [rax]
4e3f:	4c 8b 50 08          	mov    r10,QWORD PTR [rax+0x8]
4e43:	48 89 7c 24 10       	mov    QWORD PTR [rsp+0x10],rdi
4e48:	48 8b 78 18          	mov    rdi,QWORD PTR [rax+0x18]
4e4c:	0f 29 84 24 d0 00 00 	movaps XMMWORD PTR [rsp+0xd0],xmm0
4e53:	00
4e54:	48 89 94 24 00 01 00 	mov    QWORD PTR [rsp+0x100],rdx
4e5b:	00
4e5c:	48 89 7c 24 08       	mov    QWORD PTR [rsp+0x8],rdi
4e61:	48 8b 78 20          	mov    rdi,QWORD PTR [rax+0x20]
4e65:	f3 0f 6f 40 10       	movdqu xmm0,XMMWORD PTR [rax+0x10]
4e6a:	48 89 7c 24 28       	mov    QWORD PTR [rsp+0x28],rdi
4e6f:	48 8b 78 28          	mov    rdi,QWORD PTR [rax+0x28]
4e73:	0f 29 84 24 e0 00 00 	movaps XMMWORD PTR [rsp+0xe0],xmm0
4e7a:	00
4e7b:	f3 0f 6f 40 20       	movdqu xmm0,XMMWORD PTR [rax+0x20]
4e80:	8b 40 30             	mov    eax,DWORD PTR [rax+0x30]
4e83:	48 89 7c 24 20       	mov    QWORD PTR [rsp+0x20],rdi
4e88:	0f 29 84 24 f0 00 00 	movaps XMMWORD PTR [rsp+0xf0],xmm0
4e8f:	00
4e90:	89 44 24 18          	mov    DWORD PTR [rsp+0x18],eax
4e94:	8d 45 fc             	lea    eax,[rbp-0x4]
4e97:	83 f8 57             	cmp    eax,0x57
4e9a:	0f 87 50 01 00 00    	ja     4ff0 <yyparse+0x2a0>
4ea0:	48 8d 15 19 c0 00 00 	lea    rdx,[rip+0xc019]        # 10ec0 <time_masks+0xe90>
4ea7:	48 63 04 82          	movsxd rax,DWORD PTR [rdx+rax*4]
4eab:	48 01 d0             	add    rax,rdx
4eae:	ff e0                	jmp    rax
4eb0:	41 c7 43 18 70 62 00 	mov    DWORD PTR [r11+0x18],0x6270
4eb7:	00
4eb8:	49 8b 45 00          	mov    rax,QWORD PTR [r13+0x0]
4ebc:	45 31 c0             	xor    r8d,r8d
4ebf:	49 8b 55 10          	mov    rdx,QWORD PTR [r13+0x10]
4ec3:	49 8b 4d 18          	mov    rcx,QWORD PTR [r13+0x18]
4ec7:	49 8b 75 20          	mov    rsi,QWORD PTR [r13+0x20]
4ecb:	49 8b 7d 28          	mov    rdi,QWORD PTR [r13+0x28]
4ecf:	48 89 44 24 48       	mov    QWORD PTR [rsp+0x48],rax
4ed4:	49 8b 45 08          	mov    rax,QWORD PTR [r13+0x8]
4ed8:	48 89 44 24 50       	mov    QWORD PTR [rsp+0x50],rax
4edd:	41 8b 45 30          	mov    eax,DWORD PTR [r13+0x30]
4ee1:	41 03 83 98 00 00 00 	add    eax,DWORD PTR [r11+0x98]
4ee8:	0f 80 37 19 00 00    	jo     6825 <yyparse+0x1ad5>
4eee:	41 89 83 98 00 00 00 	mov    DWORD PTR [r11+0x98],eax
4ef5:	31 c0                	xor    eax,eax
4ef7:	49 03 bb 90 00 00 00 	add    rdi,QWORD PTR [r11+0x90]
4efe:	4c 89 54 24 58       	mov    QWORD PTR [rsp+0x58],r10
4f03:	44 89 4c 24 60       	mov    DWORD PTR [rsp+0x60],r9d
4f08:	0f 90 c0             	seto   al
4f0b:	49 89 bb 90 00 00 00 	mov    QWORD PTR [r11+0x90],rdi
4f12:	31 ff                	xor    edi,edi
4f14:	49 03 b3 88 00 00 00 	add    rsi,QWORD PTR [r11+0x88]
4f1b:	40 0f 90 c7          	seto   dil
4f1f:	49 89 b3 88 00 00 00 	mov    QWORD PTR [r11+0x88],rsi
4f26:	31 f6                	xor    esi,esi
4f28:	49 03 8b 80 00 00 00 	add    rcx,QWORD PTR [r11+0x80]
4f2f:	40 0f 90 c6          	seto   sil
4f33:	45 31 d2             	xor    r10d,r10d
4f36:	49 03 53 78          	add    rdx,QWORD PTR [r11+0x78]
4f3a:	49 89 8b 80 00 00 00 	mov    QWORD PTR [r11+0x80],rcx
4f41:	41 0f 90 c2          	seto   r10b
4f45:	49 89 53 78          	mov    QWORD PTR [r11+0x78],rdx
4f49:	45 31 c9             	xor    r9d,r9d
4f4c:	48 8b 54 24 50       	mov    rdx,QWORD PTR [rsp+0x50]
4f51:	49 03 53 70          	add    rdx,QWORD PTR [r11+0x70]
4f55:	41 0f 90 c1          	seto   r9b
4f59:	49 89 53 70          	mov    QWORD PTR [r11+0x70],rdx
4f5d:	31 c9                	xor    ecx,ecx
4f5f:	48 8b 54 24 48       	mov    rdx,QWORD PTR [rsp+0x48]
4f64:	49 03 53 68          	add    rdx,QWORD PTR [r11+0x68]
4f68:	0f 90 c1             	seto   cl
4f6b:	44 09 c0             	or     eax,r8d
4f6e:	49 89 53 68          	mov    QWORD PTR [r11+0x68],rdx
4f72:	09 f8                	or     eax,edi
4f74:	44 89 cf             	mov    edi,r9d
4f77:	09 f0                	or     eax,esi
4f79:	44 09 d0             	or     eax,r10d
4f7c:	40 08 c7             	or     dil,al
4f7f:	0f 85 a3 03 00 00    	jne    5328 <yyparse+0x5d8>
4f85:	48 85 c9             	test   rcx,rcx
4f88:	0f 85 9a 03 00 00    	jne    5328 <yyparse+0x5d8>
4f8e:	48 8d 35 90 b2 00 00 	lea    rsi,[rip+0xb290]        # 10225 <time_masks+0x1f5>
4f95:	41 c6 83 a1 00 00 00 	mov    BYTE PTR [r11+0xa1],0x1
4f9c:	01
4f9d:	31 ff                	xor    edi,edi
4f9f:	ba 05 00 00 00       	mov    edx,0x5
4fa4:	4c 89 5c 24 48       	mov    QWORD PTR [rsp+0x48],r11
4fa9:	e8 42 d8 ff ff       	call   27f0 <dcgettext@plt>
4fae:	4c 8b 5c 24 48       	mov    r11,QWORD PTR [rsp+0x48]
4fb3:	4c 8b 54 24 58       	mov    r10,QWORD PTR [rsp+0x58]
4fb8:	44 8b 4c 24 60       	mov    r9d,DWORD PTR [rsp+0x60]
4fbd:	41 80 bb d9 00 00 00 	cmp    BYTE PTR [r11+0xd9],0x0
4fc4:	00
4fc5:	74 29                	je     4ff0 <yyparse+0x2a0>
4fc7:	44 89 4c 24 58       	mov    DWORD PTR [rsp+0x58],r9d
4fcc:	4c 89 54 24 50       	mov    QWORD PTR [rsp+0x50],r10
4fd1:	4c 89 de             	mov    rsi,r11
4fd4:	48 89 c7             	mov    rdi,rax
4fd7:	e8 e4 f5 ff ff       	call   45c0 <debug_print_relative_time.part.11>
4fdc:	4c 8b 5c 24 48       	mov    r11,QWORD PTR [rsp+0x48]
4fe1:	4c 8b 54 24 50       	mov    r10,QWORD PTR [rsp+0x50]
4fe6:	44 8b 4c 24 58       	mov    r9d,DWORD PTR [rsp+0x58]
4feb:	0f 1f 44 00 00       	nop    DWORD PTR [rax+rax*1+0x0]
4ff0:	48 8b 7c 24 10       	mov    rdi,QWORD PTR [rsp+0x10]
4ff5:	48 8d 04 dd 00 00 00 	lea    rax,[rbx*8+0x0]
4ffc:	00
4ffd:	4c 89 b4 24 d0 00 00 	mov    QWORD PTR [rsp+0xd0],r14
5004:	00
5005:	4c 89 94 24 d8 00 00 	mov    QWORD PTR [rsp+0xd8],r10
500c:	00
500d:	4c 89 e1             	mov    rcx,r12
5010:	48 29 d8             	sub    rax,rbx
5013:	66 0f 6f 84 24 d0 00 	movdqa xmm0,XMMWORD PTR [rsp+0xd0]
501a:	00 00
501c:	48 89 bc 24 e0 00 00 	mov    QWORD PTR [rsp+0xe0],rdi
5023:	00
5024:	48 8b 7c 24 08       	mov    rdi,QWORD PTR [rsp+0x8]
5029:	48 c1 e0 03          	shl    rax,0x3
502d:	49 29 c5             	sub    r13,rax
5030:	48 01 db             	add    rbx,rbx
5033:	4c 89 e8             	mov    rax,r13
5036:	48 29 d9             	sub    rcx,rbx
5039:	4d 8d 6d 38          	lea    r13,[r13+0x38]
503d:	48 89 bc 24 e8 00 00 	mov    QWORD PTR [rsp+0xe8],rdi
5044:	00
5045:	48 8b 7c 24 28       	mov    rdi,QWORD PTR [rsp+0x28]
504a:	0f 11 40 38          	movups XMMWORD PTR [rax+0x38],xmm0
504e:	48 89 bc 24 f0 00 00 	mov    QWORD PTR [rsp+0xf0],rdi
5055:	00
5056:	48 8b 7c 24 20       	mov    rdi,QWORD PTR [rsp+0x20]
505b:	66 0f 6f 84 24 e0 00 	movdqa xmm0,XMMWORD PTR [rsp+0xe0]
5062:	00 00
5064:	48 89 bc 24 f8 00 00 	mov    QWORD PTR [rsp+0xf8],rdi
506b:	00
506c:	8b 7c 24 18          	mov    edi,DWORD PTR [rsp+0x18]
5070:	0f 11 40 48          	movups XMMWORD PTR [rax+0x48],xmm0
5074:	89 bc 24 00 01 00 00 	mov    DWORD PTR [rsp+0x100],edi
507b:	48 8b 94 24 00 01 00 	mov    rdx,QWORD PTR [rsp+0x100]
5082:	00
5083:	66 0f 6f 84 24 f0 00 	movdqa xmm0,XMMWORD PTR [rsp+0xf0]
508a:	00 00
508c:	0f bf 39             	movsx  edi,WORD PTR [rcx]
508f:	48 89 50 68          	mov    QWORD PTR [rax+0x68],rdx
5093:	48 8d 15 26 c2 00 00 	lea    rdx,[rip+0xc226]        # 112c0 <yypgoto>
509a:	0f 11 40 58          	movups XMMWORD PTR [rax+0x58],xmm0
509e:	48 8d 05 9b c0 00 00 	lea    rax,[rip+0xc09b]        # 11140 <yyr1>
50a5:	89 fe                	mov    esi,edi
50a7:	0f b6 04 28          	movzx  eax,BYTE PTR [rax+rbp*1]
50ab:	83 e8 1c             	sub    eax,0x1c
50ae:	48 98                	cdqe
50b0:	0f be 14 02          	movsx  edx,BYTE PTR [rdx+rax*1]
50b4:	01 fa                	add    edx,edi
50b6:	83 fa 70             	cmp    edx,0x70
50b9:	77 18                	ja     50d3 <yyparse+0x383>
50bb:	48 8d 3d de c0 00 00 	lea    rdi,[rip+0xc0de]        # 111a0 <yycheck>
50c2:	48 63 d2             	movsxd rdx,edx
50c5:	66 0f be 3c 17       	movsx  di,BYTE PTR [rdi+rdx*1]
50ca:	66 39 fe             	cmp    si,di
50cd:	0f 84 ad 04 00 00    	je     5580 <yyparse+0x830>
50d3:	48 8d 15 c6 c1 00 00 	lea    rdx,[rip+0xc1c6]        # 112a0 <yydefgoto>
50da:	48 0f be 1c 02       	movsx  rbx,BYTE PTR [rdx+rax*1]
50df:	4c 8d 61 02          	lea    r12,[rcx+0x2]
50e3:	49 8d 47 26          	lea    rax,[r15+0x26]
50e7:	66 89 59 02          	mov    WORD PTR [rcx+0x2],bx
50eb:	49 39 c4             	cmp    r12,rax
50ee:	0f 83 c5 13 00 00    	jae    64b9 <yyparse+0x1769>
50f4:	83 fb 0c             	cmp    ebx,0xc
50f7:	0f 84 c6 13 00 00    	je     64c3 <yyparse+0x1773>
50fd:	48 8d 15 5c c2 00 00 	lea    rdx,[rip+0xc25c]        # 11360 <yypact>
5104:	48 63 c3             	movsxd rax,ebx
5107:	44 0f b6 34 02       	movzx  r14d,BYTE PTR [rdx+rax*1]
510c:	e9 99 fc ff ff       	jmp    4daa <yyparse+0x5a>
5111:	0f 1f 80 00 00 00 00 	nop    DWORD PTR [rax+0x0]
5118:	83 7c 24 34 03       	cmp    DWORD PTR [rsp+0x34],0x3
511d:	75 10                	jne    512f <yyparse+0x3df>
511f:	41 83 f9 00          	cmp    r9d,0x0
5123:	0f 8e 67 04 00 00    	jle    5590 <yyparse+0x840>
5129:	41 b9 fe ff ff ff    	mov    r9d,0xfffffffe
512f:	48 8d 15 2a c2 00 00 	lea    rdx,[rip+0xc22a]        # 11360 <yypact>
5136:	48 8d 0d 63 c0 00 00 	lea    rcx,[rip+0xc063]        # 111a0 <yycheck>
513d:	48 8d 35 dc c0 00 00 	lea    rsi,[rip+0xc0dc]        # 11220 <yytable>
5144:	eb 20                	jmp    5166 <yyparse+0x416>
5146:	66 2e 0f 1f 84 00 00 	nop    WORD PTR cs:[rax+rax*1+0x0]
514d:	00 00 00
5150:	4d 39 fc             	cmp    r12,r15
5153:	0f 84 cf 01 00 00    	je     5328 <yyparse+0x5d8>
5159:	49 83 ec 02          	sub    r12,0x2
515d:	49 0f bf 1c 24       	movsx  rbx,WORD PTR [r12]
5162:	49 83 ed 38          	sub    r13,0x38
5166:	0f be 04 1a          	movsx  eax,BYTE PTR [rdx+rbx*1]
516a:	83 f8 a3             	cmp    eax,0xffffffa3
516d:	74 e1                	je     5150 <yyparse+0x400>
516f:	83 c0 01             	add    eax,0x1
5172:	83 f8 70             	cmp    eax,0x70
5175:	77 d9                	ja     5150 <yyparse+0x400>
5177:	48 98                	cdqe
5179:	80 3c 01 01          	cmp    BYTE PTR [rcx+rax*1],0x1
517d:	75 d1                	jne    5150 <yyparse+0x400>
517f:	0f b6 1c 06          	movzx  ebx,BYTE PTR [rsi+rax*1]
5183:	85 db                	test   ebx,ebx
5185:	74 c9                	je     5150 <yyparse+0x400>
5187:	48 8b 44 24 38       	mov    rax,QWORD PTR [rsp+0x38]
518c:	49 83 c5 38          	add    r13,0x38
5190:	4c 89 e1             	mov    rcx,r12
5193:	c7 44 24 34 03 00 00 	mov    DWORD PTR [rsp+0x34],0x3
519a:	00
519b:	48 89 84 24 98 00 00 	mov    QWORD PTR [rsp+0x98],rax
51a2:	00
51a3:	48 8b 44 24 40       	mov    rax,QWORD PTR [rsp+0x40]
51a8:	66 0f 6f 84 24 90 00 	movdqa xmm0,XMMWORD PTR [rsp+0x90]
51af:	00 00
51b1:	48 89 84 24 a0 00 00 	mov    QWORD PTR [rsp+0xa0],rax
51b8:	00
51b9:	48 8b 84 24 c0 00 00 	mov    rax,QWORD PTR [rsp+0xc0]
51c0:	00
51c1:	41 0f 11 45 00       	movups XMMWORD PTR [r13+0x0],xmm0
51c6:	66 0f 6f 84 24 a0 00 	movdqa xmm0,XMMWORD PTR [rsp+0xa0]
51cd:	00 00
51cf:	49 89 45 30          	mov    QWORD PTR [r13+0x30],rax
51d3:	41 0f 11 45 10       	movups XMMWORD PTR [r13+0x10],xmm0
51d8:	66 0f 6f 84 24 b0 00 	movdqa xmm0,XMMWORD PTR [rsp+0xb0]
51df:	00 00
51e1:	41 0f 11 45 20       	movups XMMWORD PTR [r13+0x20],xmm0
51e6:	e9 f4 fe ff ff       	jmp    50df <yyparse+0x38f>
51eb:	49 8b 45 c8          	mov    rax,QWORD PTR [r13-0x38]
51ef:	49 8b 75 e8          	mov    rsi,QWORD PTR [r13-0x18]
51f3:	49 8b 7d f0          	mov    rdi,QWORD PTR [r13-0x10]
51f7:	45 8b 45 f8          	mov    r8d,DWORD PTR [r13-0x8]
51fb:	41 8b 8b 98 00 00 00 	mov    ecx,DWORD PTR [r11+0x98]
5202:	49 8b 93 90 00 00 00 	mov    rdx,QWORD PTR [r11+0x90]
5209:	48 89 44 24 48       	mov    QWORD PTR [rsp+0x48],rax
520e:	49 8b 45 d0          	mov    rax,QWORD PTR [r13-0x30]
5212:	48 89 44 24 50       	mov    QWORD PTR [rsp+0x50],rax
5217:	49 8b 45 d8          	mov    rax,QWORD PTR [r13-0x28]
521b:	48 89 44 24 58       	mov    QWORD PTR [rsp+0x58],rax
5220:	49 8b 45 e0          	mov    rax,QWORD PTR [r13-0x20]
5224:	48 89 44 24 60       	mov    QWORD PTR [rsp+0x60],rax
5229:	49 8b 83 88 00 00 00 	mov    rax,QWORD PTR [r11+0x88]
5230:	48 89 44 24 70       	mov    QWORD PTR [rsp+0x70],rax
5235:	49 8b 83 80 00 00 00 	mov    rax,QWORD PTR [r11+0x80]
523c:	48 89 84 24 80 00 00 	mov    QWORD PTR [rsp+0x80],rax
5243:	00
5244:	49 8b 43 78          	mov    rax,QWORD PTR [r11+0x78]
5248:	48 89 84 24 88 00 00 	mov    QWORD PTR [rsp+0x88],rax
524f:	00
5250:	49 8b 43 70          	mov    rax,QWORD PTR [r11+0x70]
5254:	48 89 44 24 68       	mov    QWORD PTR [rsp+0x68],rax
5259:	49 8b 43 68          	mov    rax,QWORD PTR [r11+0x68]
525d:	48 89 44 24 78       	mov    QWORD PTR [rsp+0x78],rax
5262:	41 8b 45 00          	mov    eax,DWORD PTR [r13+0x0]
5266:	85 c0                	test   eax,eax
5268:	0f 88 f4 12 00 00    	js     6562 <yyparse+0x1812>
526e:	48 8b 44 24 70       	mov    rax,QWORD PTR [rsp+0x70]
5273:	44 01 c1             	add    ecx,r8d
5276:	41 0f 90 c0          	seto   r8b
527a:	41 89 8b 98 00 00 00 	mov    DWORD PTR [r11+0x98],ecx
5281:	31 c9                	xor    ecx,ecx
5283:	48 01 fa             	add    rdx,rdi
5286:	45 0f b6 c0          	movzx  r8d,r8b
528a:	0f 90 c1             	seto   cl
528d:	31 ff                	xor    edi,edi
528f:	48 01 f0             	add    rax,rsi
5292:	40 0f 90 c7          	seto   dil
5296:	49 89 83 88 00 00 00 	mov    QWORD PTR [r11+0x88],rax
529d:	31 f6                	xor    esi,esi
529f:	48 8b 84 24 80 00 00 	mov    rax,QWORD PTR [rsp+0x80]
52a6:	00
52a7:	48 03 44 24 60       	add    rax,QWORD PTR [rsp+0x60]
52ac:	48 89 7c 24 70       	mov    QWORD PTR [rsp+0x70],rdi
52b1:	49 89 93 90 00 00 00 	mov    QWORD PTR [r11+0x90],rdx
52b8:	40 0f 90 c6          	seto   sil
52bc:	49 89 83 80 00 00 00 	mov    QWORD PTR [r11+0x80],rax
52c3:	31 ff                	xor    edi,edi
52c5:	48 8b 84 24 88 00 00 	mov    rax,QWORD PTR [rsp+0x88]
52cc:	00
52cd:	48 03 44 24 58       	add    rax,QWORD PTR [rsp+0x58]
52d2:	40 0f 90 c7          	seto   dil
52d6:	49 89 43 78          	mov    QWORD PTR [r11+0x78],rax
52da:	31 d2                	xor    edx,edx
52dc:	48 8b 44 24 68       	mov    rax,QWORD PTR [rsp+0x68]
52e1:	48 03 44 24 50       	add    rax,QWORD PTR [rsp+0x50]
52e6:	0f 90 c2             	seto   dl
52e9:	49 89 43 70          	mov    QWORD PTR [r11+0x70],rax
52ed:	48 8b 44 24 78       	mov    rax,QWORD PTR [rsp+0x78]
52f2:	48 03 44 24 48       	add    rax,QWORD PTR [rsp+0x48]
52f7:	48 89 54 24 50       	mov    QWORD PTR [rsp+0x50],rdx
52fc:	49 89 43 68          	mov    QWORD PTR [r11+0x68],rax
5300:	89 c8                	mov    eax,ecx
5302:	0f 90 c2             	seto   dl
5305:	44 09 c0             	or     eax,r8d
5308:	0a 44 24 70          	or     al,BYTE PTR [rsp+0x70]
530c:	0f b6 d2             	movzx  edx,dl
530f:	09 f0                	or     eax,esi
5311:	09 f8                	or     eax,edi
5313:	0a 44 24 50          	or     al,BYTE PTR [rsp+0x50]
5317:	09 d0                	or     eax,edx
5319:	84 c0                	test   al,al
531b:	0f 84 2d 05 00 00    	je     584e <yyparse+0xafe>
5321:	0f 1f 80 00 00 00 00 	nop    DWORD PTR [rax+0x0]
5328:	b8 01 00 00 00       	mov    eax,0x1
532d:	48 8b bc 24 b8 05 00 	mov    rdi,QWORD PTR [rsp+0x5b8]
5334:	00
5335:	64 48 33 3c 25 28 00 	xor    rdi,QWORD PTR fs:0x28
533c:	00 00
533e:	0f 85 ec 14 00 00    	jne    6830 <yyparse+0x1ae0>
5344:	48 81 c4 c8 05 00 00 	add    rsp,0x5c8
534b:	5b                   	pop    rbx
534c:	5d                   	pop    rbp
534d:	41 5c                	pop    r12
534f:	41 5d                	pop    r13
5351:	41 5e                	pop    r14
5353:	41 5f                	pop    r15
5355:	c3                   	ret
5356:	48 8d 47 01          	lea    rax,[rdi+0x1]
535a:	49 89 03             	mov    QWORD PTR [r11],rax
535d:	44 0f b6 0f          	movzx  r9d,BYTE PTR [rdi]
5361:	45 85 c9             	test   r9d,r9d
5364:	0f 8f b6 00 00 00    	jg     5420 <yyparse+0x6d0>
536a:	66 0f 1f 44 00 00    	nop    WORD PTR [rax+rax*1+0x0]
5370:	31 c0                	xor    eax,eax
5372:	45 31 c9             	xor    r9d,r9d
5375:	41 83 f8 70          	cmp    r8d,0x70
5379:	0f 87 71 fa ff ff    	ja     4df0 <yyparse+0xa0>
537f:	48 8d 15 1a be 00 00 	lea    rdx,[rip+0xbe1a]        # 111a0 <yycheck>
5386:	4d 63 c0             	movsxd r8,r8d
5389:	42 0f be 14 02       	movsx  edx,BYTE PTR [rdx+r8*1]
538e:	39 c2                	cmp    edx,eax
5390:	0f 85 5a fa ff ff    	jne    4df0 <yyparse+0xa0>
5396:	48 8d 05 83 be 00 00 	lea    rax,[rip+0xbe83]        # 11220 <yytable>
539d:	42 0f b6 2c 00       	movzx  ebp,BYTE PTR [rax+r8*1]
53a2:	85 ed                	test   ebp,ebp
53a4:	0f 84 e6 02 00 00    	je     5690 <yyparse+0x940>
53aa:	8b 44 24 34          	mov    eax,DWORD PTR [rsp+0x34]
53ae:	4c 89 e1             	mov    rcx,r12
53b1:	48 63 dd             	movsxd rbx,ebp
53b4:	41 b9 fe ff ff ff    	mov    r9d,0xfffffffe
53ba:	83 f8 01             	cmp    eax,0x1
53bd:	83 d0 ff             	adc    eax,0xffffffff
53c0:	49 83 c5 38          	add    r13,0x38
53c4:	89 44 24 34          	mov    DWORD PTR [rsp+0x34],eax
53c8:	48 8b 44 24 38       	mov    rax,QWORD PTR [rsp+0x38]
53cd:	48 89 84 24 98 00 00 	mov    QWORD PTR [rsp+0x98],rax
53d4:	00
53d5:	48 8b 44 24 40       	mov    rax,QWORD PTR [rsp+0x40]
53da:	66 0f 6f 84 24 90 00 	movdqa xmm0,XMMWORD PTR [rsp+0x90]
53e1:	00 00
53e3:	48 89 84 24 a0 00 00 	mov    QWORD PTR [rsp+0xa0],rax
53ea:	00
53eb:	48 8b 84 24 c0 00 00 	mov    rax,QWORD PTR [rsp+0xc0]
53f2:	00
53f3:	41 0f 11 45 00       	movups XMMWORD PTR [r13+0x0],xmm0
53f8:	66 0f 6f 84 24 a0 00 	movdqa xmm0,XMMWORD PTR [rsp+0xa0]
53ff:	00 00
5401:	49 89 45 30          	mov    QWORD PTR [r13+0x30],rax
5405:	41 0f 11 45 10       	movups XMMWORD PTR [r13+0x10],xmm0
540a:	66 0f 6f 84 24 b0 00 	movdqa xmm0,XMMWORD PTR [rsp+0xb0]
5411:	00 00
5413:	41 0f 11 45 20       	movups XMMWORD PTR [r13+0x20],xmm0
5418:	e9 c2 fc ff ff       	jmp    50df <yyparse+0x38f>
541d:	0f 1f 00             	nop    DWORD PTR [rax]
5420:	48 8d 15 b9 bf 00 00 	lea    rdx,[rip+0xbfb9]        # 113e0 <yytranslate>
5427:	49 63 c1             	movsxd rax,r9d
542a:	0f b6 04 02          	movzx  eax,BYTE PTR [rdx+rax*1]
542e:	41 01 c0             	add    r8d,eax
5431:	e9 3f ff ff ff       	jmp    5375 <yyparse+0x625>
5436:	66 2e 0f 1f 84 00 00 	nop    WORD PTR cs:[rax+rax*1+0x0]
543d:	00 00 00
5440:	49 8b 3b             	mov    rdi,QWORD PTR [r11]
5443:	ba 01 00 00 00       	mov    edx,0x1
5448:	49 ba ff ff ff 03 ff 	movabs r10,0x3ffffff03ffffff
544f:	ff ff 03
5452:	0f b6 0f             	movzx  ecx,BYTE PTR [rdi]
5455:	80 f9 20             	cmp    cl,0x20
5458:	89 ce                	mov    esi,ecx
545a:	44 0f b6 c9          	movzx  r9d,cl
545e:	77 4f                	ja     54af <yyparse+0x75f>
5460:	48 89 d0             	mov    rax,rdx
5463:	48 d3 e0             	shl    rax,cl
5466:	48 b9 00 3e 00 00 01 	movabs rcx,0x100003e00
546d:	00 00 00
5470:	48 85 c8             	test   rax,rcx
5473:	0f 84 a1 00 00 00    	je     551a <yyparse+0x7ca>
5479:	48 8d 47 01          	lea    rax,[rdi+0x1]
547d:	eb 1a                	jmp    5499 <yyparse+0x749>
547f:	90                   	nop
5480:	48 89 d6             	mov    rsi,rdx
5483:	49 be 00 3e 00 00 01 	movabs r14,0x100003e00
548a:	00 00 00
548d:	48 83 c0 01          	add    rax,0x1
5491:	48 d3 e6             	shl    rsi,cl
5494:	4c 85 f6             	test   rsi,r14
5497:	74 7f                	je     5518 <yyparse+0x7c8>
5499:	49 89 03             	mov    QWORD PTR [r11],rax
549c:	44 0f b6 08          	movzx  r9d,BYTE PTR [rax]
54a0:	48 89 c7             	mov    rdi,rax
54a3:	41 80 f9 20          	cmp    r9b,0x20
54a7:	44 89 c9             	mov    ecx,r9d
54aa:	44 89 ce             	mov    esi,r9d
54ad:	76 d1                	jbe    5480 <yyparse+0x730>
54af:	8d 46 d5             	lea    eax,[rsi-0x2b]
54b2:	83 e9 30             	sub    ecx,0x30
54b5:	83 e0 fd             	and    eax,0xfffffffd
54b8:	80 f9 09             	cmp    cl,0x9
54bb:	77 63                	ja     5520 <yyparse+0x7d0>
54bd:	40 80 fe 2d          	cmp    sil,0x2d
54c1:	0f 94 c1             	sete   cl
54c4:	84 c0                	test   al,al
54c6:	0f 85 fe 0f 00 00    	jne    64ca <yyparse+0x177a>
54cc:	80 f9 01             	cmp    cl,0x1
54cf:	49 8b 03             	mov    rax,QWORD PTR [r11]
54d2:	45 19 c9             	sbb    r9d,r9d
54d5:	41 83 e1 02          	and    r9d,0x2
54d9:	41 83 e9 01          	sub    r9d,0x1
54dd:	48 83 c0 01          	add    rax,0x1
54e1:	49 89 03             	mov    QWORD PTR [r11],rax
54e4:	0f b6 08             	movzx  ecx,BYTE PTR [rax]
54e7:	48 89 c7             	mov    rdi,rax
54ea:	80 f9 20             	cmp    cl,0x20
54ed:	89 ce                	mov    esi,ecx
54ef:	0f 87 37 0e 00 00    	ja     632c <yyparse+0x15dc>
54f5:	48 89 d6             	mov    rsi,rdx
54f8:	49 be 00 3e 00 00 01 	movabs r14,0x100003e00
54ff:	00 00 00
5502:	48 83 c0 01          	add    rax,0x1
5506:	48 d3 e6             	shl    rsi,cl
5509:	4c 85 f6             	test   rsi,r14
550c:	0f 84 43 ff ff ff    	je     5455 <yyparse+0x705>
5512:	eb cd                	jmp    54e1 <yyparse+0x791>
5514:	0f 1f 40 00          	nop    DWORD PTR [rax+0x0]
5518:	89 ce                	mov    esi,ecx
551a:	8d 46 d5             	lea    eax,[rsi-0x2b]
551d:	83 e0 fd             	and    eax,0xfffffffd
5520:	84 c0                	test   al,al
5522:	0f 84 74 01 00 00    	je     569c <yyparse+0x94c>
5528:	41 8d 49 bf          	lea    ecx,[r9-0x41]
552c:	83 f9 39             	cmp    ecx,0x39
552f:	76 6f                	jbe    55a0 <yyparse+0x850>
5531:	40 80 fe 28          	cmp    sil,0x28
5535:	0f 85 1b fe ff ff    	jne    5356 <yyparse+0x606>
553b:	49 8b 33             	mov    rsi,QWORD PTR [r11]
553e:	31 c9                	xor    ecx,ecx
5540:	eb 1d                	jmp    555f <yyparse+0x80f>
5542:	66 0f 1f 44 00 00    	nop    WORD PTR [rax+rax*1+0x0]
5548:	3c 29                	cmp    al,0x29
554a:	0f 94 c0             	sete   al
554d:	0f b6 c0             	movzx  eax,al
5550:	48 29 c1             	sub    rcx,rax
5553:	48 85 c9             	test   rcx,rcx
5556:	0f 84 4c 01 00 00    	je     56a8 <yyparse+0x958>
555c:	48 89 fe             	mov    rsi,rdi
555f:	48 8d 7e 01          	lea    rdi,[rsi+0x1]
5563:	49 89 3b             	mov    QWORD PTR [r11],rdi
5566:	0f b6 47 ff          	movzx  eax,BYTE PTR [rdi-0x1]
556a:	84 c0                	test   al,al
556c:	0f 84 fe fd ff ff    	je     5370 <yyparse+0x620>
5572:	3c 28                	cmp    al,0x28
5574:	75 d2                	jne    5548 <yyparse+0x7f8>
5576:	48 83 c1 01          	add    rcx,0x1
557a:	eb d7                	jmp    5553 <yyparse+0x803>
557c:	0f 1f 40 00          	nop    DWORD PTR [rax+0x0]
5580:	48 8d 05 99 bc 00 00 	lea    rax,[rip+0xbc99]        # 11220 <yytable>
5587:	0f b6 1c 10          	movzx  ebx,BYTE PTR [rax+rdx*1]
558b:	e9 4f fb ff ff       	jmp    50df <yyparse+0x38f>
5590:	0f 85 99 fb ff ff    	jne    512f <yyparse+0x3df>
5596:	e9 8d fd ff ff       	jmp    5328 <yyparse+0x5d8>
559b:	0f 1f 44 00 00       	nop    DWORD PTR [rax+rax*1+0x0]
55a0:	48 89 d0             	mov    rax,rdx
55a3:	48 d3 e0             	shl    rax,cl
55a6:	4c 85 d0             	test   rax,r10
55a9:	74 86                	je     5531 <yyparse+0x7e1>
55ab:	49 8b 03             	mov    rax,QWORD PTR [r11]
55ae:	4c 8d b4 24 a0 05 00 	lea    r14,[rsp+0x5a0]
55b5:	00
55b6:	41 ba 01 00 00 00    	mov    r10d,0x1
55bc:	49 b9 ff ff ff 03 ff 	movabs r9,0x3ffffff03ffffff
55c3:	ff ff 03
55c6:	4c 89 f2             	mov    rdx,r14
55c9:	49 8d 7e 13          	lea    rdi,[r14+0x13]
55cd:	48 83 c0 01          	add    rax,0x1
55d1:	eb 04                	jmp    55d7 <yyparse+0x887>
55d3:	48 83 c0 01          	add    rax,0x1
55d7:	48 39 fa             	cmp    rdx,rdi
55da:	73 07                	jae    55e3 <yyparse+0x893>
55dc:	40 88 32             	mov    BYTE PTR [rdx],sil
55df:	48 83 c2 01          	add    rdx,0x1
55e3:	49 89 03             	mov    QWORD PTR [r11],rax
55e6:	0f b6 08             	movzx  ecx,BYTE PTR [rax]
55e9:	89 ce                	mov    esi,ecx
55eb:	83 e9 41             	sub    ecx,0x41
55ee:	83 f9 39             	cmp    ecx,0x39
55f1:	77 0b                	ja     55fe <yyparse+0x8ae>
55f3:	4c 89 d5             	mov    rbp,r10
55f6:	48 d3 e5             	shl    rbp,cl
55f9:	4c 85 cd             	test   rbp,r9
55fc:	75 d5                	jne    55d3 <yyparse+0x883>
55fe:	40 80 fe 2e          	cmp    sil,0x2e
5602:	74 cf                	je     55d3 <yyparse+0x883>
5604:	c6 02 00             	mov    BYTE PTR [rdx],0x0
5607:	0f b6 84 24 a0 05 00 	movzx  eax,BYTE PTR [rsp+0x5a0]
560e:	00
560f:	84 c0                	test   al,al
5611:	74 1f                	je     5632 <yyparse+0x8e2>
5613:	4c 89 f2             	mov    rdx,r14
5616:	0f b6 c8             	movzx  ecx,al
5619:	83 e8 61             	sub    eax,0x61
561c:	8d 71 e0             	lea    esi,[rcx-0x20]
561f:	3c 1a                	cmp    al,0x1a
5621:	0f 42 ce             	cmovb  ecx,esi
5624:	48 83 c2 01          	add    rdx,0x1
5628:	88 4a ff             	mov    BYTE PTR [rdx-0x1],cl
562b:	0f b6 02             	movzx  eax,BYTE PTR [rdx]
562e:	84 c0                	test   al,al
5630:	75 e4                	jne    5616 <yyparse+0x8c6>
5632:	48 8d 0d a7 f4 20 00 	lea    rcx,[rip+0x20f4a7]        # 214ae0 <meridian_table>
5639:	48 8d 35 86 ab 00 00 	lea    rsi,[rip+0xab86]        # 101c6 <time_masks+0x196>
5640:	48 89 cd             	mov    rbp,rcx
5643:	eb 11                	jmp    5656 <yyparse+0x906>
5645:	48 83 c5 10          	add    rbp,0x10
5649:	48 8b 75 00          	mov    rsi,QWORD PTR [rbp+0x0]
564d:	48 85 f6             	test   rsi,rsi
5650:	0f 84 9f 0f 00 00    	je     65f5 <yyparse+0x18a5>
5656:	4c 89 f7             	mov    rdi,r14
5659:	4c 89 5c 24 10       	mov    QWORD PTR [rsp+0x10],r11
565e:	44 89 44 24 08       	mov    DWORD PTR [rsp+0x8],r8d
5663:	e8 e8 d2 ff ff       	call   2950 <strcmp@plt>
5668:	85 c0                	test   eax,eax
566a:	44 8b 44 24 08       	mov    r8d,DWORD PTR [rsp+0x8]
566f:	4c 8b 5c 24 10       	mov    r11,QWORD PTR [rsp+0x10]
5674:	75 cf                	jne    5645 <yyparse+0x8f5>
5676:	48 89 e9             	mov    rcx,rbp
5679:	48 63 41 0c          	movsxd rax,DWORD PTR [rcx+0xc]
567d:	44 8b 49 08          	mov    r9d,DWORD PTR [rcx+0x8]
5681:	48 89 84 24 90 00 00 	mov    QWORD PTR [rsp+0x90],rax
5688:	00
5689:	e9 30 f7 ff ff       	jmp    4dbe <yyparse+0x6e>
568e:	66 90                	xchg   ax,ax
5690:	b8 38 00 00 00       	mov    eax,0x38
5695:	31 db                	xor    ebx,ebx
5697:	e9 91 f7 ff ff       	jmp    4e2d <yyparse+0xdd>
569c:	40 80 fe 2d          	cmp    sil,0x2d
56a0:	0f 94 c1             	sete   cl
56a3:	e9 24 fe ff ff       	jmp    54cc <yyparse+0x77c>
56a8:	0f b6 4e 01          	movzx  ecx,BYTE PTR [rsi+0x1]
56ac:	e9 a4 fd ff ff       	jmp    5455 <yyparse+0x705>
56b1:	4d 8b 55 d0          	mov    r10,QWORD PTR [r13-0x30]
56b5:	c7 84 24 04 01 00 00 	mov    DWORD PTR [rsp+0x104],0x0
56bc:	00 00 00 00
56c0:	c7 44 24 18 00 00 00 	mov    DWORD PTR [rsp+0x18],0x0
56c7:	00
56c8:	48 c7 44 24 20 00 00 	mov    QWORD PTR [rsp+0x20],0x0
56cf:	00 00
56d1:	45 31 f6             	xor    r14d,r14d
56d4:	48 c7 44 24 28 00 00 	mov    QWORD PTR [rsp+0x28],0x0
56db:	00 00
56dd:	48 c7 44 24 08 00 00 	mov    QWORD PTR [rsp+0x8],0x0
56e4:	00 00
56e6:	48 c7 44 24 10 00 00 	mov    QWORD PTR [rsp+0x10],0x0
56ed:	00 00
56ef:	e9 fc f8 ff ff       	jmp    4ff0 <yyparse+0x2a0>
56f4:	49 8b 45 d0          	mov    rax,QWORD PTR [r13-0x30]
56f8:	c7 84 24 04 01 00 00 	mov    DWORD PTR [rsp+0x104],0x0
56ff:	00 00 00 00
5703:	48 89 44 24 28       	mov    QWORD PTR [rsp+0x28],rax
5708:	c7 44 24 18 00 00 00 	mov    DWORD PTR [rsp+0x18],0x0
570f:	00
5710:	45 31 d2             	xor    r10d,r10d
5713:	48 c7 44 24 20 00 00 	mov    QWORD PTR [rsp+0x20],0x0
571a:	00 00
571c:	48 c7 44 24 08 00 00 	mov    QWORD PTR [rsp+0x8],0x0
5723:	00 00
5725:	45 31 f6             	xor    r14d,r14d
5728:	48 c7 44 24 10 00 00 	mov    QWORD PTR [rsp+0x10],0x0
572f:	00 00
5731:	e9 ba f8 ff ff       	jmp    4ff0 <yyparse+0x2a0>
5736:	4d 8b 75 d0          	mov    r14,QWORD PTR [r13-0x30]
573a:	c7 84 24 04 01 00 00 	mov    DWORD PTR [rsp+0x104],0x0
5741:	00 00 00 00
5745:	c7 44 24 18 00 00 00 	mov    DWORD PTR [rsp+0x18],0x0
574c:	00
574d:	48 c7 44 24 20 00 00 	mov    QWORD PTR [rsp+0x20],0x0
5754:	00 00
5756:	45 31 d2             	xor    r10d,r10d
5759:	48 c7 44 24 28 00 00 	mov    QWORD PTR [rsp+0x28],0x0
5760:	00 00
5762:	48 c7 44 24 08 00 00 	mov    QWORD PTR [rsp+0x8],0x0
5769:	00 00
576b:	48 c7 44 24 10 00 00 	mov    QWORD PTR [rsp+0x10],0x0
5772:	00 00
5774:	e9 77 f8 ff ff       	jmp    4ff0 <yyparse+0x2a0>
5779:	49 8b 45 00          	mov    rax,QWORD PTR [r13+0x0]
577d:	45 31 c0             	xor    r8d,r8d
5780:	49 8b 55 10          	mov    rdx,QWORD PTR [r13+0x10]
5784:	49 8b 4d 18          	mov    rcx,QWORD PTR [r13+0x18]
5788:	49 8b 75 20          	mov    rsi,QWORD PTR [r13+0x20]
578c:	49 8b 7d 28          	mov    rdi,QWORD PTR [r13+0x28]
5790:	48 89 44 24 48       	mov    QWORD PTR [rsp+0x48],rax
5795:	49 8b 45 08          	mov    rax,QWORD PTR [r13+0x8]
5799:	48 89 44 24 50       	mov    QWORD PTR [rsp+0x50],rax
579e:	41 8b 45 30          	mov    eax,DWORD PTR [r13+0x30]
57a2:	41 03 83 98 00 00 00 	add    eax,DWORD PTR [r11+0x98]
57a9:	0f 80 35 05 00 00    	jo     5ce4 <yyparse+0xf94>
57af:	41 89 83 98 00 00 00 	mov    DWORD PTR [r11+0x98],eax
57b6:	31 c0                	xor    eax,eax
57b8:	49 03 bb 90 00 00 00 	add    rdi,QWORD PTR [r11+0x90]
57bf:	0f 90 c0             	seto   al
57c2:	49 89 bb 90 00 00 00 	mov    QWORD PTR [r11+0x90],rdi
57c9:	31 ff                	xor    edi,edi
57cb:	49 03 b3 88 00 00 00 	add    rsi,QWORD PTR [r11+0x88]
57d2:	40 0f 90 c7          	seto   dil
57d6:	49 89 b3 88 00 00 00 	mov    QWORD PTR [r11+0x88],rsi
57dd:	31 f6                	xor    esi,esi
57df:	49 03 8b 80 00 00 00 	add    rcx,QWORD PTR [r11+0x80]
57e6:	40 0f 90 c6          	seto   sil
57ea:	49 89 8b 80 00 00 00 	mov    QWORD PTR [r11+0x80],rcx
57f1:	31 c9                	xor    ecx,ecx
57f3:	49 03 53 78          	add    rdx,QWORD PTR [r11+0x78]
57f7:	0f 90 c1             	seto   cl
57fa:	49 89 53 78          	mov    QWORD PTR [r11+0x78],rdx
57fe:	48 8b 54 24 50       	mov    rdx,QWORD PTR [rsp+0x50]
5803:	48 89 4c 24 58       	mov    QWORD PTR [rsp+0x58],rcx
5808:	31 c9                	xor    ecx,ecx
580a:	49 03 53 70          	add    rdx,QWORD PTR [r11+0x70]
580e:	0f 90 c1             	seto   cl
5811:	49 89 53 70          	mov    QWORD PTR [r11+0x70],rdx
5815:	48 8b 54 24 48       	mov    rdx,QWORD PTR [rsp+0x48]
581a:	48 89 4c 24 50       	mov    QWORD PTR [rsp+0x50],rcx
581f:	31 c9                	xor    ecx,ecx
5821:	49 03 53 68          	add    rdx,QWORD PTR [r11+0x68]
5825:	0f 90 c1             	seto   cl
5828:	44 09 c0             	or     eax,r8d
582b:	49 89 53 68          	mov    QWORD PTR [r11+0x68],rdx
582f:	09 f8                	or     eax,edi
5831:	0f b6 7c 24 50       	movzx  edi,BYTE PTR [rsp+0x50]
5836:	09 f0                	or     eax,esi
5838:	0a 44 24 58          	or     al,BYTE PTR [rsp+0x58]
583c:	40 08 c7             	or     dil,al
583f:	0f 85 e3 fa ff ff    	jne    5328 <yyparse+0x5d8>
5845:	48 85 c9             	test   rcx,rcx
5848:	0f 85 da fa ff ff    	jne    5328 <yyparse+0x5d8>
584e:	41 c6 83 a1 00 00 00 	mov    BYTE PTR [r11+0xa1],0x1
5855:	01
5856:	e9 95 f7 ff ff       	jmp    4ff0 <yyparse+0x2a0>
585b:	49 8b 45 d0          	mov    rax,QWORD PTR [r13-0x30]
585f:	c7 84 24 04 01 00 00 	mov    DWORD PTR [rsp+0x104],0x0
5866:	00 00 00 00
586a:	48 89 44 24 08       	mov    QWORD PTR [rsp+0x8],rax
586f:	c7 44 24 18 00 00 00 	mov    DWORD PTR [rsp+0x18],0x0
5876:	00
5877:	45 31 d2             	xor    r10d,r10d
587a:	48 c7 44 24 20 00 00 	mov    QWORD PTR [rsp+0x20],0x0
5881:	00 00
5883:	48 c7 44 24 28 00 00 	mov    QWORD PTR [rsp+0x28],0x0
588a:	00 00
588c:	45 31 f6             	xor    r14d,r14d
588f:	48 c7 44 24 10 00 00 	mov    QWORD PTR [rsp+0x10],0x0
5896:	00 00
5898:	e9 53 f7 ff ff       	jmp    4ff0 <yyparse+0x2a0>
589d:	49 8b 45 c8          	mov    rax,QWORD PTR [r13-0x38]
58a1:	c7 84 24 04 01 00 00 	mov    DWORD PTR [rsp+0x104],0x0
58a8:	00 00 00 00
58ac:	48 89 44 24 20       	mov    QWORD PTR [rsp+0x20],rax
58b1:	41 8b 45 d0          	mov    eax,DWORD PTR [r13-0x30]
58b5:	89 44 24 18          	mov    DWORD PTR [rsp+0x18],eax
58b9:	48 c7 44 24 28 00 00 	mov    QWORD PTR [rsp+0x28],0x0
58c0:	00 00
58c2:	48 c7 44 24 08 00 00 	mov    QWORD PTR [rsp+0x8],0x0
58c9:	00 00
58cb:	45 31 d2             	xor    r10d,r10d
58ce:	48 c7 44 24 10 00 00 	mov    QWORD PTR [rsp+0x10],0x0
58d5:	00 00
58d7:	45 31 f6             	xor    r14d,r14d
58da:	e9 11 f7 ff ff       	jmp    4ff0 <yyparse+0x2a0>
58df:	49 8b 45 d0          	mov    rax,QWORD PTR [r13-0x30]
58e3:	c7 84 24 04 01 00 00 	mov    DWORD PTR [rsp+0x104],0x0
58ea:	00 00 00 00
58ee:	48 89 44 24 20       	mov    QWORD PTR [rsp+0x20],rax
58f3:	c7 44 24 18 00 00 00 	mov    DWORD PTR [rsp+0x18],0x0
58fa:	00
58fb:	eb bc                	jmp    58b9 <yyparse+0xb69>
58fd:	4d 8b 75 08          	mov    r14,QWORD PTR [r13+0x8]
5901:	45 31 d2             	xor    r10d,r10d
5904:	e9 e7 f6 ff ff       	jmp    4ff0 <yyparse+0x2a0>
5909:	31 d2                	xor    edx,edx
590b:	49 8b 45 d0          	mov    rax,QWORD PTR [r13-0x30]
590f:	48 c7 84 24 00 01 00 	mov    QWORD PTR [rsp+0x100],0x0
5916:	00 00 00 00 00
591b:	49 0f af 45 00       	imul   rax,QWORD PTR [r13+0x0]
5920:	66 0f ef c0          	pxor   xmm0,xmm0
5924:	0f 29 84 24 d0 00 00 	movaps XMMWORD PTR [rsp+0xd0],xmm0
592b:	00
592c:	0f 29 84 24 e0 00 00 	movaps XMMWORD PTR [rsp+0xe0],xmm0
5933:	00
5934:	0f 29 84 24 f0 00 00 	movaps XMMWORD PTR [rsp+0xf0],xmm0
593b:	00
593c:	0f 80 0a 03 00 00    	jo     5c4c <yyparse+0xefc>
5942:	48 85 d2             	test   rdx,rdx
5945:	48 89 44 24 10       	mov    QWORD PTR [rsp+0x10],rax
594a:	0f 85 d8 f9 ff ff    	jne    5328 <yyparse+0x5d8>
5950:	c7 44 24 18 00 00 00 	mov    DWORD PTR [rsp+0x18],0x0
5957:	00
5958:	48 c7 44 24 20 00 00 	mov    QWORD PTR [rsp+0x20],0x0
595f:	00 00
5961:	45 31 d2             	xor    r10d,r10d
5964:	48 c7 44 24 28 00 00 	mov    QWORD PTR [rsp+0x28],0x0
596b:	00 00
596d:	48 c7 44 24 08 00 00 	mov    QWORD PTR [rsp+0x8],0x0
5974:	00 00
5976:	45 31 f6             	xor    r14d,r14d
5979:	e9 72 f6 ff ff       	jmp    4ff0 <yyparse+0x2a0>
597e:	49 8b 45 00          	mov    rax,QWORD PTR [r13+0x0]
5982:	c7 84 24 04 01 00 00 	mov    DWORD PTR [rsp+0x104],0x0
5989:	00 00 00 00
598d:	48 89 44 24 10       	mov    QWORD PTR [rsp+0x10],rax
5992:	eb bc                	jmp    5950 <yyparse+0xc00>
5994:	49 8b 8d 30 ff ff ff 	mov    rcx,QWORD PTR [r13-0xd0]
599b:	41 0f b6 83 d9 00 00 	movzx  eax,BYTE PTR [r11+0xd9]
59a2:	00
59a3:	48 83 f9 03          	cmp    rcx,0x3
59a7:	0f 8e 5b 0b 00 00    	jle    6508 <yyparse+0x17b8>
59ad:	84 c0                	test   al,al
59af:	74 59                	je     5a0a <yyparse+0xcba>
59b1:	49 8b 85 28 ff ff ff 	mov    rax,QWORD PTR [r13-0xd8]
59b8:	48 8d 35 59 ad 00 00 	lea    rsi,[rip+0xad59]        # 10718 <time_masks+0x6e8>
59bf:	ba 05 00 00 00       	mov    edx,0x5
59c4:	31 ff                	xor    edi,edi
59c6:	4c 89 5c 24 68       	mov    QWORD PTR [rsp+0x68],r11
59cb:	44 89 4c 24 60       	mov    DWORD PTR [rsp+0x60],r9d
59d0:	4c 89 54 24 58       	mov    QWORD PTR [rsp+0x58],r10
59d5:	48 89 4c 24 50       	mov    QWORD PTR [rsp+0x50],rcx
59da:	48 89 44 24 48       	mov    QWORD PTR [rsp+0x48],rax
59df:	e8 0c ce ff ff       	call   27f0 <dcgettext@plt>
59e4:	48 8b 4c 24 50       	mov    rcx,QWORD PTR [rsp+0x50]
59e9:	48 8b 74 24 48       	mov    rsi,QWORD PTR [rsp+0x48]
59ee:	48 89 c7             	mov    rdi,rax
59f1:	31 c0                	xor    eax,eax
59f3:	48 89 ca             	mov    rdx,rcx
59f6:	e8 c5 e8 ff ff       	call   42c0 <dbg_printf>
59fb:	4c 8b 5c 24 68       	mov    r11,QWORD PTR [rsp+0x68]
5a00:	44 8b 4c 24 60       	mov    r9d,DWORD PTR [rsp+0x60]
5a05:	4c 8b 54 24 58       	mov    r10,QWORD PTR [rsp+0x58]
5a0a:	f3 41 0f 6f 85 20 ff 	movdqu xmm0,XMMWORD PTR [r13-0xe0]
5a11:	ff ff
5a13:	49 8b 85 30 ff ff ff 	mov    rax,QWORD PTR [r13-0xd0]
5a1a:	41 0f 11 43 20       	movups XMMWORD PTR [r11+0x20],xmm0
5a1f:	49 89 43 30          	mov    QWORD PTR [r11+0x30],rax
5a23:	49 8b 45 98          	mov    rax,QWORD PTR [r13-0x68]
5a27:	49 89 43 38          	mov    QWORD PTR [r11+0x38],rax
5a2b:	49 8b 45 08          	mov    rax,QWORD PTR [r13+0x8]
5a2f:	49 89 43 40          	mov    QWORD PTR [r11+0x40],rax
5a33:	e9 b8 f5 ff ff       	jmp    4ff0 <yyparse+0x2a0>
5a38:	c7 84 24 04 01 00 00 	mov    DWORD PTR [rsp+0x104],0x0
5a3f:	00 00 00 00
5a43:	c7 44 24 18 00 00 00 	mov    DWORD PTR [rsp+0x18],0x0
5a4a:	00
5a4b:	48 c7 44 24 20 01 00 	mov    QWORD PTR [rsp+0x20],0x1
5a52:	00 00
5a54:	e9 60 fe ff ff       	jmp    58b9 <yyparse+0xb69>
5a59:	c7 84 24 04 01 00 00 	mov    DWORD PTR [rsp+0x104],0x0
5a60:	00 00 00 00
5a64:	c7 44 24 18 00 00 00 	mov    DWORD PTR [rsp+0x18],0x0
5a6b:	00
5a6c:	45 31 d2             	xor    r10d,r10d
5a6f:	48 c7 44 24 20 00 00 	mov    QWORD PTR [rsp+0x20],0x0
5a76:	00 00
5a78:	48 c7 44 24 28 00 00 	mov    QWORD PTR [rsp+0x28],0x0
5a7f:	00 00
5a81:	45 31 f6             	xor    r14d,r14d
5a84:	48 c7 44 24 08 01 00 	mov    QWORD PTR [rsp+0x8],0x1
5a8b:	00 00
5a8d:	48 c7 44 24 10 00 00 	mov    QWORD PTR [rsp+0x10],0x0
5a94:	00 00
5a96:	e9 55 f5 ff ff       	jmp    4ff0 <yyparse+0x2a0>
5a9b:	f3 41 0f 6f 45 00    	movdqu xmm0,XMMWORD PTR [r13+0x0]
5aa1:	48 8d 35 53 a7 00 00 	lea    rsi,[rip+0xa753]        # 101fb <time_masks+0x1cb>
5aa8:	44 89 4c 24 58       	mov    DWORD PTR [rsp+0x58],r9d
5aad:	4c 89 54 24 50       	mov    QWORD PTR [rsp+0x50],r10
5ab2:	ba 05 00 00 00       	mov    edx,0x5
5ab7:	41 0f 11 43 58       	movups XMMWORD PTR [r11+0x58],xmm0
5abc:	41 c6 83 a0 00 00 00 	mov    BYTE PTR [r11+0xa0],0x1
5ac3:	01
5ac4:	4c 89 5c 24 48       	mov    QWORD PTR [rsp+0x48],r11
5ac9:	31 ff                	xor    edi,edi
5acb:	e8 20 cd ff ff       	call   27f0 <dcgettext@plt>
5ad0:	4c 8b 5c 24 48       	mov    r11,QWORD PTR [rsp+0x48]
5ad5:	4c 8b 54 24 50       	mov    r10,QWORD PTR [rsp+0x50]
5ada:	44 8b 4c 24 58       	mov    r9d,DWORD PTR [rsp+0x58]
5adf:	41 80 bb d9 00 00 00 	cmp    BYTE PTR [r11+0xd9],0x0
5ae6:	00
5ae7:	4c 89 de             	mov    rsi,r11
5aea:	0f 84 00 f5 ff ff    	je     4ff0 <yyparse+0x2a0>
5af0:	48 89 c7             	mov    rdi,rax
5af3:	e8 78 ee ff ff       	call   4970 <debug_print_current_time.part.10>
5af8:	4c 8b 5c 24 48       	mov    r11,QWORD PTR [rsp+0x48]
5afd:	4c 8b 54 24 50       	mov    r10,QWORD PTR [rsp+0x50]
5b02:	44 8b 4c 24 58       	mov    r9d,DWORD PTR [rsp+0x58]
5b07:	e9 e4 f4 ff ff       	jmp    4ff0 <yyparse+0x2a0>
5b0c:	44 89 4c 24 58       	mov    DWORD PTR [rsp+0x58],r9d
5b11:	4c 89 54 24 50       	mov    QWORD PTR [rsp+0x50],r10
5b16:	ba 05 00 00 00       	mov    edx,0x5
5b1b:	49 83 83 c8 00 00 00 	add    QWORD PTR [r11+0xc8],0x1
5b22:	01
5b23:	4c 89 5c 24 48       	mov    QWORD PTR [rsp+0x48],r11
5b28:	48 8d 35 cf 9c 00 00 	lea    rsi,[rip+0x9ccf]        # f7fe <_IO_stdin_used+0xde>
5b2f:	eb 98                	jmp    5ac9 <yyparse+0xd79>
5b31:	44 89 4c 24 58       	mov    DWORD PTR [rsp+0x58],r9d
5b36:	4c 89 54 24 50       	mov    QWORD PTR [rsp+0x50],r10
5b3b:	ba 05 00 00 00       	mov    edx,0x5
5b40:	49 83 83 c8 00 00 00 	add    QWORD PTR [r11+0xc8],0x1
5b47:	01
5b48:	49 83 83 a8 00 00 00 	add    QWORD PTR [r11+0xa8],0x1
5b4f:	01
5b50:	48 8d 35 b6 a6 00 00 	lea    rsi,[rip+0xa6b6]        # 1020d <time_masks+0x1dd>
5b57:	4c 89 5c 24 48       	mov    QWORD PTR [rsp+0x48],r11
5b5c:	e9 68 ff ff ff       	jmp    5ac9 <yyparse+0xd79>
5b61:	44 89 4c 24 58       	mov    DWORD PTR [rsp+0x58],r9d
5b66:	4c 89 54 24 50       	mov    QWORD PTR [rsp+0x50],r10
5b6b:	48 83 ec 08          	sub    rsp,0x8
5b6f:	41 ff 75 10          	push   QWORD PTR [r13+0x10]
5b73:	41 ff 75 08          	push   QWORD PTR [r13+0x8]
5b77:	4c 89 df             	mov    rdi,r11
5b7a:	41 ff 75 00          	push   QWORD PTR [r13+0x0]
5b7e:	4c 89 5c 24 68       	mov    QWORD PTR [rsp+0x68],r11
5b83:	e8 b8 e4 ff ff       	call   4040 <digits_to_date_time>
5b88:	48 83 c4 20          	add    rsp,0x20
5b8c:	4c 8b 5c 24 48       	mov    r11,QWORD PTR [rsp+0x48]
5b91:	4c 8b 54 24 50       	mov    r10,QWORD PTR [rsp+0x50]
5b96:	44 8b 4c 24 58       	mov    r9d,DWORD PTR [rsp+0x58]
5b9b:	e9 50 f4 ff ff       	jmp    4ff0 <yyparse+0x2a0>
5ba0:	4d 8b 75 08          	mov    r14,QWORD PTR [r13+0x8]
5ba4:	e9 47 f4 ff ff       	jmp    4ff0 <yyparse+0x2a0>
5ba9:	c7 84 24 04 01 00 00 	mov    DWORD PTR [rsp+0x104],0x0
5bb0:	00 00 00 00
5bb4:	49 8b 45 c8          	mov    rax,QWORD PTR [r13-0x38]
5bb8:	e9 31 fd ff ff       	jmp    58ee <yyparse+0xb9e>
5bbd:	c7 84 24 04 01 00 00 	mov    DWORD PTR [rsp+0x104],0x0
5bc4:	00 00 00 00
5bc8:	c7 44 24 18 00 00 00 	mov    DWORD PTR [rsp+0x18],0x0
5bcf:	00
5bd0:	45 31 d2             	xor    r10d,r10d
5bd3:	48 c7 44 24 20 00 00 	mov    QWORD PTR [rsp+0x20],0x0
5bda:	00 00
5bdc:	48 c7 44 24 28 01 00 	mov    QWORD PTR [rsp+0x28],0x1
5be3:	00 00
5be5:	45 31 f6             	xor    r14d,r14d
5be8:	48 c7 44 24 08 00 00 	mov    QWORD PTR [rsp+0x8],0x0
5bef:	00 00
5bf1:	48 c7 44 24 10 00 00 	mov    QWORD PTR [rsp+0x10],0x0
5bf8:	00 00
5bfa:	e9 f1 f3 ff ff       	jmp    4ff0 <yyparse+0x2a0>
5bff:	c7 84 24 04 01 00 00 	mov    DWORD PTR [rsp+0x104],0x0
5c06:	00 00 00 00
5c0a:	49 8b 45 c8          	mov    rax,QWORD PTR [r13-0x38]
5c0e:	e9 f0 fa ff ff       	jmp    5703 <yyparse+0x9b3>
5c13:	31 d2                	xor    edx,edx
5c15:	49 8b 45 c8          	mov    rax,QWORD PTR [r13-0x38]
5c19:	48 c7 84 24 00 01 00 	mov    QWORD PTR [rsp+0x100],0x0
5c20:	00 00 00 00 00
5c25:	49 0f af 45 00       	imul   rax,QWORD PTR [r13+0x0]
5c2a:	66 0f ef c0          	pxor   xmm0,xmm0
5c2e:	0f 29 84 24 d0 00 00 	movaps XMMWORD PTR [rsp+0xd0],xmm0
5c35:	00
5c36:	0f 29 84 24 e0 00 00 	movaps XMMWORD PTR [rsp+0xe0],xmm0
5c3d:	00
5c3e:	0f 29 84 24 f0 00 00 	movaps XMMWORD PTR [rsp+0xf0],xmm0
5c45:	00
5c46:	0f 81 f6 fc ff ff    	jno    5942 <yyparse+0xbf2>
5c4c:	ba 01 00 00 00       	mov    edx,0x1
5c51:	e9 ec fc ff ff       	jmp    5942 <yyparse+0xbf2>
5c56:	66 2e 0f 1f 84 00 00 	nop    WORD PTR cs:[rax+rax*1+0x0]
5c5d:	00 00 00
5c60:	c7 84 24 04 01 00 00 	mov    DWORD PTR [rsp+0x104],0x0
5c67:	00 00 00 00
5c6b:	49 8b 45 c8          	mov    rax,QWORD PTR [r13-0x38]
5c6f:	e9 f6 fb ff ff       	jmp    586a <yyparse+0xb1a>
5c74:	44 89 4c 24 68       	mov    DWORD PTR [rsp+0x68],r9d
5c79:	4c 89 54 24 60       	mov    QWORD PTR [rsp+0x60],r10
5c7e:	48 83 ec 08          	sub    rsp,0x8
5c82:	41 ff 75 d8          	push   QWORD PTR [r13-0x28]
5c86:	41 ff 75 d0          	push   QWORD PTR [r13-0x30]
5c8a:	4c 89 df             	mov    rdi,r11
5c8d:	41 ff 75 c8          	push   QWORD PTR [r13-0x38]
5c91:	4c 89 5c 24 78       	mov    QWORD PTR [rsp+0x78],r11
5c96:	e8 a5 e3 ff ff       	call   4040 <digits_to_date_time>
5c9b:	49 8b 45 00          	mov    rax,QWORD PTR [r13+0x0]
5c9f:	45 31 c0             	xor    r8d,r8d
5ca2:	49 8b 55 10          	mov    rdx,QWORD PTR [r13+0x10]
5ca6:	49 8b 4d 18          	mov    rcx,QWORD PTR [r13+0x18]
5caa:	49 8b 75 20          	mov    rsi,QWORD PTR [r13+0x20]
5cae:	49 8b 7d 28          	mov    rdi,QWORD PTR [r13+0x28]
5cb2:	48 89 44 24 68       	mov    QWORD PTR [rsp+0x68],rax
5cb7:	49 8b 45 08          	mov    rax,QWORD PTR [r13+0x8]
5cbb:	48 89 44 24 70       	mov    QWORD PTR [rsp+0x70],rax
5cc0:	48 83 c4 20          	add    rsp,0x20
5cc4:	4c 8b 5c 24 58       	mov    r11,QWORD PTR [rsp+0x58]
5cc9:	41 8b 45 30          	mov    eax,DWORD PTR [r13+0x30]
5ccd:	4c 8b 54 24 60       	mov    r10,QWORD PTR [rsp+0x60]
5cd2:	44 8b 4c 24 68       	mov    r9d,DWORD PTR [rsp+0x68]
5cd7:	41 03 83 98 00 00 00 	add    eax,DWORD PTR [r11+0x98]
5cde:	0f 81 cb fa ff ff    	jno    57af <yyparse+0xa5f>
5ce4:	41 b8 01 00 00 00    	mov    r8d,0x1
5cea:	e9 c0 fa ff ff       	jmp    57af <yyparse+0xa5f>
5cef:	90                   	nop
5cf0:	c7 84 24 04 01 00 00 	mov    DWORD PTR [rsp+0x104],0x0
5cf7:	00 00 00 00
5cfb:	c7 44 24 18 00 00 00 	mov    DWORD PTR [rsp+0x18],0x0
5d02:	00
5d03:	41 ba 01 00 00 00    	mov    r10d,0x1
5d09:	48 c7 44 24 20 00 00 	mov    QWORD PTR [rsp+0x20],0x0
5d10:	00 00
5d12:	48 c7 44 24 28 00 00 	mov    QWORD PTR [rsp+0x28],0x0
5d19:	00 00
5d1b:	45 31 f6             	xor    r14d,r14d
5d1e:	48 c7 44 24 08 00 00 	mov    QWORD PTR [rsp+0x8],0x0
5d25:	00 00
5d27:	48 c7 44 24 10 00 00 	mov    QWORD PTR [rsp+0x10],0x0
5d2e:	00 00
5d30:	e9 bb f2 ff ff       	jmp    4ff0 <yyparse+0x2a0>
5d35:	49 c7 c6 ff ff ff ff 	mov    r14,0xffffffffffffffff
5d3c:	e9 af f2 ff ff       	jmp    4ff0 <yyparse+0x2a0>
5d41:	c7 84 24 04 01 00 00 	mov    DWORD PTR [rsp+0x104],0x0
5d48:	00 00 00 00
5d4c:	4d 8b 55 c8          	mov    r10,QWORD PTR [r13-0x38]
5d50:	e9 6b f9 ff ff       	jmp    56c0 <yyparse+0x970>
5d55:	c7 84 24 04 01 00 00 	mov    DWORD PTR [rsp+0x104],0x0
5d5c:	00 00 00 00
5d60:	c7 44 24 18 00 00 00 	mov    DWORD PTR [rsp+0x18],0x0
5d67:	00
5d68:	45 31 d2             	xor    r10d,r10d
5d6b:	48 c7 44 24 20 00 00 	mov    QWORD PTR [rsp+0x20],0x0
5d72:	00 00
5d74:	48 c7 44 24 28 00 00 	mov    QWORD PTR [rsp+0x28],0x0
5d7b:	00 00
5d7d:	41 be 01 00 00 00    	mov    r14d,0x1
5d83:	48 c7 44 24 08 00 00 	mov    QWORD PTR [rsp+0x8],0x0
5d8a:	00 00
5d8c:	48 c7 44 24 10 00 00 	mov    QWORD PTR [rsp+0x10],0x0
5d93:	00 00
5d95:	e9 56 f2 ff ff       	jmp    4ff0 <yyparse+0x2a0>
5d9a:	49 8b 45 a0          	mov    rax,QWORD PTR [r13-0x60]
5d9e:	48 ba 00 00 00 00 00 	movabs rdx,0x8000000000000000
5da5:	00 00 80
5da8:	f3 41 0f 6f 45 90    	movdqu xmm0,XMMWORD PTR [r13-0x70]
5dae:	49 89 43 30          	mov    QWORD PTR [r11+0x30],rax
5db2:	49 8b 45 d0          	mov    rax,QWORD PTR [r13-0x30]
5db6:	41 0f 11 43 20       	movups XMMWORD PTR [r11+0x20],xmm0
5dbb:	48 89 c1             	mov    rcx,rax
5dbe:	48 f7 d9             	neg    rcx
5dc1:	48 39 d0             	cmp    rax,rdx
5dc4:	49 89 4b 38          	mov    QWORD PTR [r11+0x38],rcx
5dc8:	0f 84 5a f5 ff ff    	je     5328 <yyparse+0x5d8>
5dce:	49 8b 45 08          	mov    rax,QWORD PTR [r13+0x8]
5dd2:	48 89 c1             	mov    rcx,rax
5dd5:	48 f7 d9             	neg    rcx
5dd8:	48 39 d0             	cmp    rax,rdx
5ddb:	49 89 4b 40          	mov    QWORD PTR [r11+0x40],rcx
5ddf:	0f 85 0b f2 ff ff    	jne    4ff0 <yyparse+0x2a0>
5de5:	e9 3e f5 ff ff       	jmp    5328 <yyparse+0x5d8>
5dea:	66 0f 1f 44 00 00    	nop    WORD PTR [rax+rax*1+0x0]
5df0:	49 8b 45 d0          	mov    rax,QWORD PTR [r13-0x30]
5df4:	49 89 43 40          	mov    QWORD PTR [r11+0x40],rax
5df8:	49 8b 45 00          	mov    rax,QWORD PTR [r13+0x0]
5dfc:	49 89 43 38          	mov    QWORD PTR [r11+0x38],rax
5e00:	e9 eb f1 ff ff       	jmp    4ff0 <yyparse+0x2a0>
5e05:	49 8b 85 58 ff ff ff 	mov    rax,QWORD PTR [r13-0xa8]
5e0c:	f3 41 0f 6f 45 00    	movdqu xmm0,XMMWORD PTR [r13+0x0]
5e12:	49 89 43 38          	mov    QWORD PTR [r11+0x38],rax
5e16:	49 8b 45 98          	mov    rax,QWORD PTR [r13-0x68]
5e1a:	41 0f 11 43 20       	movups XMMWORD PTR [r11+0x20],xmm0
5e1f:	49 89 43 40          	mov    QWORD PTR [r11+0x40],rax
5e23:	49 8b 45 10          	mov    rax,QWORD PTR [r13+0x10]
5e27:	49 89 43 30          	mov    QWORD PTR [r11+0x30],rax
5e2b:	e9 c0 f1 ff ff       	jmp    4ff0 <yyparse+0x2a0>
5e30:	49 8b 45 98          	mov    rax,QWORD PTR [r13-0x68]
5e34:	f3 41 0f 6f 45 00    	movdqu xmm0,XMMWORD PTR [r13+0x0]
5e3a:	49 89 43 40          	mov    QWORD PTR [r11+0x40],rax
5e3e:	49 8b 45 c8          	mov    rax,QWORD PTR [r13-0x38]
5e42:	41 0f 11 43 20       	movups XMMWORD PTR [r11+0x20],xmm0
5e47:	49 89 43 38          	mov    QWORD PTR [r11+0x38],rax
5e4b:	49 8b 45 10          	mov    rax,QWORD PTR [r13+0x10]
5e4f:	49 89 43 30          	mov    QWORD PTR [r11+0x30],rax
5e53:	e9 98 f1 ff ff       	jmp    4ff0 <yyparse+0x2a0>
5e58:	49 8b 45 c8          	mov    rax,QWORD PTR [r13-0x38]
5e5c:	49 89 43 38          	mov    QWORD PTR [r11+0x38],rax
5e60:	49 8b 45 08          	mov    rax,QWORD PTR [r13+0x8]
5e64:	49 89 43 40          	mov    QWORD PTR [r11+0x40],rax
5e68:	e9 83 f1 ff ff       	jmp    4ff0 <yyparse+0x2a0>
5e6d:	49 8b 45 90          	mov    rax,QWORD PTR [r13-0x70]
5e71:	48 ba 00 00 00 00 00 	movabs rdx,0x8000000000000000
5e78:	00 00 80
5e7b:	49 89 43 38          	mov    QWORD PTR [r11+0x38],rax
5e7f:	49 8b 45 d0          	mov    rax,QWORD PTR [r13-0x30]
5e83:	48 89 c1             	mov    rcx,rax
5e86:	48 f7 d9             	neg    rcx
5e89:	48 39 d0             	cmp    rax,rdx
5e8c:	49 89 4b 40          	mov    QWORD PTR [r11+0x40],rcx
5e90:	0f 84 92 f4 ff ff    	je     5328 <yyparse+0x5d8>
5e96:	49 8b 45 08          	mov    rax,QWORD PTR [r13+0x8]
5e9a:	48 89 c1             	mov    rcx,rax
5e9d:	48 f7 d9             	neg    rcx
5ea0:	48 39 d0             	cmp    rax,rdx
5ea3:	49 89 4b 28          	mov    QWORD PTR [r11+0x28],rcx
5ea7:	0f 85 76 ff ff ff    	jne    5e23 <yyparse+0x10d3>
5ead:	e9 76 f4 ff ff       	jmp    5328 <yyparse+0x5d8>
5eb2:	66 0f 1f 44 00 00    	nop    WORD PTR [rax+rax*1+0x0]
5eb8:	49 8b 45 98          	mov    rax,QWORD PTR [r13-0x68]
5ebc:	49 89 43 40          	mov    QWORD PTR [r11+0x40],rax
5ec0:	49 8b 45 c8          	mov    rax,QWORD PTR [r13-0x38]
5ec4:	49 89 43 38          	mov    QWORD PTR [r11+0x38],rax
5ec8:	49 8b 45 08          	mov    rax,QWORD PTR [r13+0x8]
5ecc:	48 89 c2             	mov    rdx,rax
5ecf:	48 f7 da             	neg    rdx
5ed2:	49 89 53 28          	mov    QWORD PTR [r11+0x28],rdx
5ed6:	48 ba 00 00 00 00 00 	movabs rdx,0x8000000000000000
5edd:	00 00 80
5ee0:	48 39 d0             	cmp    rax,rdx
5ee3:	0f 85 3a ff ff ff    	jne    5e23 <yyparse+0x10d3>
5ee9:	e9 3a f4 ff ff       	jmp    5328 <yyparse+0x5d8>
5eee:	66 90                	xchg   ax,ax
5ef0:	c7 84 24 04 01 00 00 	mov    DWORD PTR [rsp+0x104],0x0
5ef7:	00 00 00 00
5efb:	4d 8b 75 c8          	mov    r14,QWORD PTR [r13-0x38]
5eff:	e9 41 f8 ff ff       	jmp    5745 <yyparse+0x9f5>
5f04:	49 8b 45 d0          	mov    rax,QWORD PTR [r13-0x30]
5f08:	41 c6 83 e0 00 00 00 	mov    BYTE PTR [r11+0xe0],0x1
5f0f:	01
5f10:	49 89 43 08          	mov    QWORD PTR [r11+0x8],rax
5f14:	49 8b 45 00          	mov    rax,QWORD PTR [r13+0x0]
5f18:	41 89 43 10          	mov    DWORD PTR [r11+0x10],eax
5f1c:	e9 cf f0 ff ff       	jmp    4ff0 <yyparse+0x2a0>
5f21:	49 8b 45 c8          	mov    rax,QWORD PTR [r13-0x38]
5f25:	41 c6 83 e0 00 00 00 	mov    BYTE PTR [r11+0xe0],0x1
5f2c:	01
5f2d:	49 89 43 08          	mov    QWORD PTR [r11+0x8],rax
5f31:	49 8b 45 00          	mov    rax,QWORD PTR [r13+0x0]
5f35:	41 89 43 10          	mov    DWORD PTR [r11+0x10],eax
5f39:	e9 b2 f0 ff ff       	jmp    4ff0 <yyparse+0x2a0>
5f3e:	49 8b 45 c8          	mov    rax,QWORD PTR [r13-0x38]
5f42:	49 c7 43 08 00 00 00 	mov    QWORD PTR [r11+0x8],0x0
5f49:	00
5f4a:	41 89 43 10          	mov    DWORD PTR [r11+0x10],eax
5f4e:	e9 9d f0 ff ff       	jmp    4ff0 <yyparse+0x2a0>
5f53:	49 8b 45 00          	mov    rax,QWORD PTR [r13+0x0]
5f57:	49 c7 43 08 00 00 00 	mov    QWORD PTR [r11+0x8],0x0
5f5e:	00
5f5f:	41 89 43 10          	mov    DWORD PTR [r11+0x10],eax
5f63:	e9 88 f0 ff ff       	jmp    4ff0 <yyparse+0x2a0>
5f68:	41 8b 45 c8          	mov    eax,DWORD PTR [r13-0x38]
5f6c:	05 10 0e 00 00       	add    eax,0xe10
5f71:	41 89 43 18          	mov    DWORD PTR [r11+0x18],eax
5f75:	e9 76 f0 ff ff       	jmp    4ff0 <yyparse+0x2a0>
5f7a:	41 8b 45 00          	mov    eax,DWORD PTR [r13+0x0]
5f7e:	05 10 0e 00 00       	add    eax,0xe10
5f83:	41 89 43 18          	mov    DWORD PTR [r11+0x18],eax
5f87:	e9 64 f0 ff ff       	jmp    4ff0 <yyparse+0x2a0>
5f8c:	41 0f b6 75 c8       	movzx  esi,BYTE PTR [r13-0x38]
5f91:	49 8b 4d d8          	mov    rcx,QWORD PTR [r13-0x28]
5f95:	49 8d 7b 18          	lea    rdi,[r11+0x18]
5f99:	49 8b 55 d0          	mov    rdx,QWORD PTR [r13-0x30]
5f9d:	4d 8b 45 00          	mov    r8,QWORD PTR [r13+0x0]
5fa1:	44 89 4c 24 58       	mov    DWORD PTR [rsp+0x58],r9d
5fa6:	4c 89 54 24 50       	mov    QWORD PTR [rsp+0x50],r10
5fab:	4c 89 5c 24 48       	mov    QWORD PTR [rsp+0x48],r11
5fb0:	e8 3b e4 ff ff       	call   43f0 <time_zone_hhmm.isra.4>
5fb5:	84 c0                	test   al,al
5fb7:	0f 84 6b f3 ff ff    	je     5328 <yyparse+0x5d8>
5fbd:	4c 8b 5c 24 48       	mov    r11,QWORD PTR [rsp+0x48]
5fc2:	31 d2                	xor    edx,edx
5fc4:	4c 8b 54 24 50       	mov    r10,QWORD PTR [rsp+0x50]
5fc9:	44 8b 4c 24 58       	mov    r9d,DWORD PTR [rsp+0x58]
5fce:	49 63 43 18          	movsxd rax,DWORD PTR [r11+0x18]
5fd2:	49 03 45 90          	add    rax,QWORD PTR [r13-0x70]
5fd6:	48 63 c8             	movsxd rcx,eax
5fd9:	0f 90 c2             	seto   dl
5fdc:	41 89 43 18          	mov    DWORD PTR [r11+0x18],eax
5fe0:	48 39 c8             	cmp    rax,rcx
5fe3:	b9 01 00 00 00       	mov    ecx,0x1
5fe8:	0f 45 d1             	cmovne edx,ecx
5feb:	85 d2                	test   edx,edx
5fed:	0f 84 fd ef ff ff    	je     4ff0 <yyparse+0x2a0>
5ff3:	e9 30 f3 ff ff       	jmp    5328 <yyparse+0x5d8>
5ff8:	0f 1f 84 00 00 00 00 	nop    DWORD PTR [rax+rax*1+0x0]
5fff:	00
6000:	49 8b 45 c8          	mov    rax,QWORD PTR [r13-0x38]
6004:	41 89 43 18          	mov    DWORD PTR [r11+0x18],eax
6008:	e9 ab ee ff ff       	jmp    4eb8 <yyparse+0x168>
600d:	41 c7 43 18 70 62 00 	mov    DWORD PTR [r11+0x18],0x6270
6014:	00
6015:	e9 d6 ef ff ff       	jmp    4ff0 <yyparse+0x2a0>
601a:	49 8b 45 00          	mov    rax,QWORD PTR [r13+0x0]
601e:	41 89 43 18          	mov    DWORD PTR [r11+0x18],eax
6022:	e9 c9 ef ff ff       	jmp    4ff0 <yyparse+0x2a0>
6027:	41 c7 43 14 01 00 00 	mov    DWORD PTR [r11+0x14],0x1
602e:	00
602f:	49 83 83 c0 00 00 00 	add    QWORD PTR [r11+0xc0],0x1
6036:	01
6037:	e9 b4 ef ff ff       	jmp    4ff0 <yyparse+0x2a0>
603c:	49 8b 45 00          	mov    rax,QWORD PTR [r13+0x0]
6040:	41 89 43 14          	mov    DWORD PTR [r11+0x14],eax
6044:	e9 a7 ef ff ff       	jmp    4ff0 <yyparse+0x2a0>
6049:	49 83 83 d0 00 00 00 	add    QWORD PTR [r11+0xd0],0x1
6050:	01
6051:	41 0f b6 75 c8       	movzx  esi,BYTE PTR [r13-0x38]
6056:	49 8d 7b 18          	lea    rdi,[r11+0x18]
605a:	49 8b 4d d8          	mov    rcx,QWORD PTR [r13-0x28]
605e:	49 8b 55 d0          	mov    rdx,QWORD PTR [r13-0x30]
6062:	4d 8b 45 00          	mov    r8,QWORD PTR [r13+0x0]
6066:	44 89 4c 24 58       	mov    DWORD PTR [rsp+0x58],r9d
606b:	4c 89 54 24 50       	mov    QWORD PTR [rsp+0x50],r10
6070:	4c 89 5c 24 48       	mov    QWORD PTR [rsp+0x48],r11
6075:	e8 76 e3 ff ff       	call   43f0 <time_zone_hhmm.isra.4>
607a:	84 c0                	test   al,al
607c:	4c 8b 5c 24 48       	mov    r11,QWORD PTR [rsp+0x48]
6081:	4c 8b 54 24 50       	mov    r10,QWORD PTR [rsp+0x50]
6086:	44 8b 4c 24 58       	mov    r9d,DWORD PTR [rsp+0x58]
608b:	0f 85 5f ef ff ff    	jne    4ff0 <yyparse+0x2a0>
6091:	e9 92 f2 ff ff       	jmp    5328 <yyparse+0x5d8>
6096:	66 2e 0f 1f 84 00 00 	nop    WORD PTR cs:[rax+rax*1+0x0]
609d:	00 00 00
60a0:	49 8b 45 c8          	mov    rax,QWORD PTR [r13-0x38]
60a4:	49 8b 95 60 ff ff ff 	mov    rdx,QWORD PTR [r13-0xa0]
60ab:	49 8b 8d f0 fe ff ff 	mov    rcx,QWORD PTR [r13-0x110]
60b2:	41 c7 43 1c 02 00 00 	mov    DWORD PTR [r11+0x1c],0x2
60b9:	00
60ba:	49 89 43 58          	mov    QWORD PTR [r11+0x58],rax
60be:	49 63 45 d0          	movsxd rax,DWORD PTR [r13-0x30]
60c2:	49 89 4b 48          	mov    QWORD PTR [r11+0x48],rcx
60c6:	49 89 53 50          	mov    QWORD PTR [r11+0x50],rdx
60ca:	49 89 43 60          	mov    QWORD PTR [r11+0x60],rax
60ce:	e9 1d ef ff ff       	jmp    4ff0 <yyparse+0x2a0>
60d3:	49 8b 45 d0          	mov    rax,QWORD PTR [r13-0x30]
60d7:	49 8b 95 60 ff ff ff 	mov    rdx,QWORD PTR [r13-0xa0]
60de:	49 c7 43 58 00 00 00 	mov    QWORD PTR [r11+0x58],0x0
60e5:	00
60e6:	49 c7 43 60 00 00 00 	mov    QWORD PTR [r11+0x60],0x0
60ed:	00
60ee:	41 c7 43 1c 02 00 00 	mov    DWORD PTR [r11+0x1c],0x2
60f5:	00
60f6:	49 89 53 48          	mov    QWORD PTR [r11+0x48],rdx
60fa:	49 89 43 50          	mov    QWORD PTR [r11+0x50],rax
60fe:	e9 ed ee ff ff       	jmp    4ff0 <yyparse+0x2a0>
6103:	49 8b 45 d0          	mov    rax,QWORD PTR [r13-0x30]
6107:	49 c7 43 50 00 00 00 	mov    QWORD PTR [r11+0x50],0x0
610e:	00
610f:	49 c7 43 58 00 00 00 	mov    QWORD PTR [r11+0x58],0x0
6116:	00
6117:	49 c7 43 60 00 00 00 	mov    QWORD PTR [r11+0x60],0x0
611e:	00
611f:	41 c7 43 1c 02 00 00 	mov    DWORD PTR [r11+0x1c],0x2
6126:	00
6127:	49 89 43 48          	mov    QWORD PTR [r11+0x48],rax
612b:	e9 c0 ee ff ff       	jmp    4ff0 <yyparse+0x2a0>
6130:	49 8b 45 c8          	mov    rax,QWORD PTR [r13-0x38]
6134:	49 8b 95 60 ff ff ff 	mov    rdx,QWORD PTR [r13-0xa0]
613b:	49 8b 8d f0 fe ff ff 	mov    rcx,QWORD PTR [r13-0x110]
6142:	49 89 43 58          	mov    QWORD PTR [r11+0x58],rax
6146:	49 63 45 d0          	movsxd rax,DWORD PTR [r13-0x30]
614a:	49 89 4b 48          	mov    QWORD PTR [r11+0x48],rcx
614e:	49 89 53 50          	mov    QWORD PTR [r11+0x50],rdx
6152:	49 89 43 60          	mov    QWORD PTR [r11+0x60],rax
6156:	49 8b 45 00          	mov    rax,QWORD PTR [r13+0x0]
615a:	41 89 43 1c          	mov    DWORD PTR [r11+0x1c],eax
615e:	e9 8d ee ff ff       	jmp    4ff0 <yyparse+0x2a0>
6163:	49 8b 45 d0          	mov    rax,QWORD PTR [r13-0x30]
6167:	49 8b 95 60 ff ff ff 	mov    rdx,QWORD PTR [r13-0xa0]
616e:	49 c7 43 58 00 00 00 	mov    QWORD PTR [r11+0x58],0x0
6175:	00
6176:	49 c7 43 60 00 00 00 	mov    QWORD PTR [r11+0x60],0x0
617d:	00
617e:	49 89 43 50          	mov    QWORD PTR [r11+0x50],rax
6182:	49 8b 45 00          	mov    rax,QWORD PTR [r13+0x0]
6186:	49 89 53 48          	mov    QWORD PTR [r11+0x48],rdx
618a:	41 89 43 1c          	mov    DWORD PTR [r11+0x1c],eax
618e:	e9 5d ee ff ff       	jmp    4ff0 <yyparse+0x2a0>
6193:	49 8b 45 d0          	mov    rax,QWORD PTR [r13-0x30]
6197:	49 c7 43 50 00 00 00 	mov    QWORD PTR [r11+0x50],0x0
619e:	00
619f:	49 c7 43 58 00 00 00 	mov    QWORD PTR [r11+0x58],0x0
61a6:	00
61a7:	49 c7 43 60 00 00 00 	mov    QWORD PTR [r11+0x60],0x0
61ae:	00
61af:	49 89 43 48          	mov    QWORD PTR [r11+0x48],rax
61b3:	49 8b 45 00          	mov    rax,QWORD PTR [r13+0x0]
61b7:	41 89 43 1c          	mov    DWORD PTR [r11+0x1c],eax
61bb:	e9 30 ee ff ff       	jmp    4ff0 <yyparse+0x2a0>
61c0:	48 8d 35 6e a0 00 00 	lea    rsi,[rip+0xa06e]        # 10235 <time_masks+0x205>
61c7:	4c 89 5c 24 58       	mov    QWORD PTR [rsp+0x58],r11
61cc:	44 89 4c 24 50       	mov    DWORD PTR [rsp+0x50],r9d
61d1:	4c 89 54 24 48       	mov    QWORD PTR [rsp+0x48],r10
61d6:	ba 05 00 00 00       	mov    edx,0x5
61db:	31 ff                	xor    edi,edi
61dd:	e8 0e c6 ff ff       	call   27f0 <dcgettext@plt>
61e2:	4c 8b 5c 24 58       	mov    r11,QWORD PTR [rsp+0x58]
61e7:	4c 8b 54 24 48       	mov    r10,QWORD PTR [rsp+0x48]
61ec:	44 8b 4c 24 50       	mov    r9d,DWORD PTR [rsp+0x50]
61f1:	41 80 bb d9 00 00 00 	cmp    BYTE PTR [r11+0xd9],0x0
61f8:	00
61f9:	0f 84 f1 ed ff ff    	je     4ff0 <yyparse+0x2a0>
61ff:	44 89 4c 24 58       	mov    DWORD PTR [rsp+0x58],r9d
6204:	4c 89 54 24 50       	mov    QWORD PTR [rsp+0x50],r10
6209:	4c 89 de             	mov    rsi,r11
620c:	4c 89 5c 24 48       	mov    QWORD PTR [rsp+0x48],r11
6211:	e9 be ed ff ff       	jmp    4fd4 <yyparse+0x284>
6216:	48 8d 35 11 a0 00 00 	lea    rsi,[rip+0xa011]        # 1022e <time_masks+0x1fe>
621d:	31 ff                	xor    edi,edi
621f:	ba 05 00 00 00       	mov    edx,0x5
6224:	4c 89 5c 24 58       	mov    QWORD PTR [rsp+0x58],r11
6229:	44 89 4c 24 50       	mov    DWORD PTR [rsp+0x50],r9d
622e:	4c 89 54 24 48       	mov    QWORD PTR [rsp+0x48],r10
6233:	e8 b8 c5 ff ff       	call   27f0 <dcgettext@plt>
6238:	4c 8b 5c 24 58       	mov    r11,QWORD PTR [rsp+0x58]
623d:	4c 8b 54 24 48       	mov    r10,QWORD PTR [rsp+0x48]
6242:	44 8b 4c 24 50       	mov    r9d,DWORD PTR [rsp+0x50]
6247:	41 80 bb d9 00 00 00 	cmp    BYTE PTR [r11+0xd9],0x0
624e:	00
624f:	0f 84 9b ed ff ff    	je     4ff0 <yyparse+0x2a0>
6255:	44 89 4c 24 58       	mov    DWORD PTR [rsp+0x58],r9d
625a:	4c 89 54 24 50       	mov    QWORD PTR [rsp+0x50],r10
625f:	4c 89 de             	mov    rsi,r11
6262:	4c 89 5c 24 48       	mov    QWORD PTR [rsp+0x48],r11
6267:	e9 84 f8 ff ff       	jmp    5af0 <yyparse+0xda0>
626c:	4c 89 5c 24 58       	mov    QWORD PTR [rsp+0x58],r11
6271:	44 89 4c 24 50       	mov    DWORD PTR [rsp+0x50],r9d
6276:	ba 05 00 00 00       	mov    edx,0x5
627b:	4c 89 54 24 48       	mov    QWORD PTR [rsp+0x48],r10
6280:	48 8d 35 9e 9f 00 00 	lea    rsi,[rip+0x9f9e]        # 10225 <time_masks+0x1f5>
6287:	e9 4f ff ff ff       	jmp    61db <yyparse+0x148b>
628c:	44 89 4c 24 58       	mov    DWORD PTR [rsp+0x58],r9d
6291:	4c 89 54 24 50       	mov    QWORD PTR [rsp+0x50],r10
6296:	ba 05 00 00 00       	mov    edx,0x5
629b:	49 83 83 b0 00 00 00 	add    QWORD PTR [r11+0xb0],0x1
62a2:	01
62a3:	4c 89 5c 24 48       	mov    QWORD PTR [rsp+0x48],r11
62a8:	48 8d 35 72 9f 00 00 	lea    rsi,[rip+0x9f72]        # 10221 <time_masks+0x1f1>
62af:	e9 15 f8 ff ff       	jmp    5ac9 <yyparse+0xd79>
62b4:	44 89 4c 24 58       	mov    DWORD PTR [rsp+0x58],r9d
62b9:	4c 89 54 24 50       	mov    QWORD PTR [rsp+0x50],r10
62be:	ba 05 00 00 00       	mov    edx,0x5
62c3:	49 83 83 a8 00 00 00 	add    QWORD PTR [r11+0xa8],0x1
62ca:	01
62cb:	4c 89 5c 24 48       	mov    QWORD PTR [rsp+0x48],r11
62d0:	48 8d 35 35 96 00 00 	lea    rsi,[rip+0x9635]        # f90c <_IO_stdin_used+0x1ec>
62d7:	e9 ed f7 ff ff       	jmp    5ac9 <yyparse+0xd79>
62dc:	44 89 4c 24 58       	mov    DWORD PTR [rsp+0x58],r9d
62e1:	4c 89 54 24 50       	mov    QWORD PTR [rsp+0x50],r10
62e6:	ba 05 00 00 00       	mov    edx,0x5
62eb:	49 83 83 d0 00 00 00 	add    QWORD PTR [r11+0xd0],0x1
62f2:	01
62f3:	4c 89 5c 24 48       	mov    QWORD PTR [rsp+0x48],r11
62f8:	48 8d 35 1d 9f 00 00 	lea    rsi,[rip+0x9f1d]        # 1021c <time_masks+0x1ec>
62ff:	e9 c5 f7 ff ff       	jmp    5ac9 <yyparse+0xd79>
6304:	44 89 4c 24 58       	mov    DWORD PTR [rsp+0x58],r9d
6309:	4c 89 54 24 50       	mov    QWORD PTR [rsp+0x50],r10
630e:	ba 05 00 00 00       	mov    edx,0x5
6313:	49 83 83 b8 00 00 00 	add    QWORD PTR [r11+0xb8],0x1
631a:	01
631b:	4c 89 5c 24 48       	mov    QWORD PTR [rsp+0x48],r11
6320:	48 8d 35 ef 9e 00 00 	lea    rsi,[rip+0x9eef]        # 10216 <time_masks+0x1e6>
6327:	e9 9d f7 ff ff       	jmp    5ac9 <yyparse+0xd79>
632c:	8d 41 d0             	lea    eax,[rcx-0x30]
632f:	3c 09                	cmp    al,0x9
6331:	0f 87 1e f1 ff ff    	ja     5455 <yyparse+0x705>
6337:	31 c0                	xor    eax,eax
6339:	48 89 f9             	mov    rcx,rdi
633c:	41 be 30 00 00 00    	mov    r14d,0x30
6342:	49 89 c2             	mov    r10,rax
6345:	eb 1c                	jmp    6363 <yyparse+0x1613>
6347:	66 0f 1f 84 00 00 00 	nop    WORD PTR [rax+rax*1+0x0]
634e:	00 00
6350:	0f b6 71 01          	movzx  esi,BYTE PTR [rcx+0x1]
6354:	48 8d 69 01          	lea    rbp,[rcx+0x1]
6358:	8d 56 d0             	lea    edx,[rsi-0x30]
635b:	80 fa 09             	cmp    dl,0x9
635e:	77 37                	ja     6397 <yyparse+0x1647>
6360:	48 89 e9             	mov    rcx,rbp
6363:	4d 6b d2 0a          	imul   r10,r10,0xa
6367:	70 1e                	jo     6387 <yyparse+0x1637>
6369:	40 0f b6 d6          	movzx  edx,sil
636d:	44 89 f6             	mov    esi,r14d
6370:	8d 42 d0             	lea    eax,[rdx-0x30]
6373:	29 d6                	sub    esi,edx
6375:	41 83 f9 ff          	cmp    r9d,0xffffffff
6379:	0f 45 f0             	cmovne esi,eax
637c:	48 63 c6             	movsxd rax,esi
637f:	4c 01 d0             	add    rax,r10
6382:	49 89 c2             	mov    r10,rax
6385:	71 c9                	jno    6350 <yyparse+0x1600>
6387:	b8 02 00 00 00       	mov    eax,0x2
638c:	41 b9 3f 00 00 00    	mov    r9d,0x3f
6392:	e9 97 f0 ff ff       	jmp    542e <yyparse+0x6de>
6397:	83 e6 fd             	and    esi,0xfffffffd
639a:	49 89 ea             	mov    r10,rbp
639d:	48 89 c2             	mov    rdx,rax
63a0:	40 80 fe 2c          	cmp    sil,0x2c
63a4:	0f 85 ce 00 00 00    	jne    6478 <yyparse+0x1728>
63aa:	0f be 45 01          	movsx  eax,BYTE PTR [rbp+0x1]
63ae:	8d 70 d0             	lea    esi,[rax-0x30]
63b1:	40 80 fe 09          	cmp    sil,0x9
63b5:	0f 87 bd 00 00 00    	ja     6478 <yyparse+0x1728>
63bb:	48 8d 79 03          	lea    rdi,[rcx+0x3]
63bf:	0f be 49 03          	movsx  ecx,BYTE PTR [rcx+0x3]
63c3:	83 e8 30             	sub    eax,0x30
63c6:	41 ba 08 00 00 00    	mov    r10d,0x8
63cc:	8d 04 80             	lea    eax,[rax+rax*4]
63cf:	8d 71 d0             	lea    esi,[rcx-0x30]
63d2:	01 c0                	add    eax,eax
63d4:	40 80 fe 09          	cmp    sil,0x9
63d8:	77 0b                	ja     63e5 <yyparse+0x1695>
63da:	8d 44 08 d0          	lea    eax,[rax+rcx*1-0x30]
63de:	48 83 c7 01          	add    rdi,0x1
63e2:	0f be 0f             	movsx  ecx,BYTE PTR [rdi]
63e5:	41 83 ea 01          	sub    r10d,0x1
63e9:	75 e1                	jne    63cc <yyparse+0x167c>
63eb:	41 83 f9 ff          	cmp    r9d,0xffffffff
63ef:	75 0e                	jne    63ff <yyparse+0x16af>
63f1:	eb 6d                	jmp    6460 <yyparse+0x1710>
63f3:	0f 1f 44 00 00       	nop    DWORD PTR [rax+rax*1+0x0]
63f8:	48 83 c7 01          	add    rdi,0x1
63fc:	0f b6 0f             	movzx  ecx,BYTE PTR [rdi]
63ff:	83 e9 30             	sub    ecx,0x30
6402:	80 f9 09             	cmp    cl,0x9
6405:	76 f1                	jbe    63f8 <yyparse+0x16a8>
6407:	45 85 c9             	test   r9d,r9d
640a:	0f 89 c5 00 00 00    	jns    64d5 <yyparse+0x1785>
6410:	85 c0                	test   eax,eax
6412:	0f 84 bd 00 00 00    	je     64d5 <yyparse+0x1785>
6418:	48 b9 00 00 00 00 00 	movabs rcx,0x8000000000000000
641f:	00 00 80
6422:	48 39 ca             	cmp    rdx,rcx
6425:	0f 84 5c ff ff ff    	je     6387 <yyparse+0x1637>
642b:	48 83 ea 01          	sub    rdx,0x1
642f:	49 89 3b             	mov    QWORD PTR [r11],rdi
6432:	41 b9 14 01 00 00    	mov    r9d,0x114
6438:	48 89 94 24 90 00 00 	mov    QWORD PTR [rsp+0x90],rdx
643f:	00
6440:	ba 00 ca 9a 3b       	mov    edx,0x3b9aca00
6445:	29 c2                	sub    edx,eax
6447:	48 63 c2             	movsxd rax,edx
644a:	48 89 44 24 38       	mov    QWORD PTR [rsp+0x38],rax
644f:	b8 15 00 00 00       	mov    eax,0x15
6454:	e9 d5 ef ff ff       	jmp    542e <yyparse+0x6de>
6459:	48 83 c7 01          	add    rdi,0x1
645d:	0f b6 0f             	movzx  ecx,BYTE PTR [rdi]
6460:	8d 71 d0             	lea    esi,[rcx-0x30]
6463:	40 80 fe 09          	cmp    sil,0x9
6467:	77 96                	ja     63ff <yyparse+0x16af>
6469:	80 f9 30             	cmp    cl,0x30
646c:	74 eb                	je     6459 <yyparse+0x1709>
646e:	83 c0 01             	add    eax,0x1
6471:	eb 8c                	jmp    63ff <yyparse+0x16af>
6473:	0f 1f 44 00 00       	nop    DWORD PTR [rax+rax*1+0x0]
6478:	44 89 c8             	mov    eax,r9d
647b:	4d 89 13             	mov    QWORD PTR [r11],r10
647e:	48 89 54 24 38       	mov    QWORD PTR [rsp+0x38],rdx
6483:	c1 e8 1f             	shr    eax,0x1f
6486:	88 84 24 90 00 00 00 	mov    BYTE PTR [rsp+0x90],al
648d:	4c 89 d0             	mov    rax,r10
6490:	48 29 f8             	sub    rax,rdi
6493:	41 83 f9 01          	cmp    r9d,0x1
6497:	48 89 44 24 40       	mov    QWORD PTR [rsp+0x40],rax
649c:	19 c0                	sbb    eax,eax
649e:	f7 d0                	not    eax
64a0:	83 c0 14             	add    eax,0x14
64a3:	41 83 f9 01          	cmp    r9d,0x1
64a7:	45 19 c9             	sbb    r9d,r9d
64aa:	41 f7 d1             	not    r9d
64ad:	41 81 c1 13 01 00 00 	add    r9d,0x113
64b4:	e9 75 ef ff ff       	jmp    542e <yyparse+0x6de>
64b9:	b8 02 00 00 00       	mov    eax,0x2
64be:	e9 6a ee ff ff       	jmp    532d <yyparse+0x5dd>
64c3:	31 c0                	xor    eax,eax
64c5:	e9 63 ee ff ff       	jmp    532d <yyparse+0x5dd>
64ca:	49 8b 3b             	mov    rdi,QWORD PTR [r11]
64cd:	45 31 c9             	xor    r9d,r9d
64d0:	e9 62 fe ff ff       	jmp    6337 <yyparse+0x15e7>
64d5:	41 83 f9 01          	cmp    r9d,0x1
64d9:	48 98                	cdqe
64db:	48 89 94 24 90 00 00 	mov    QWORD PTR [rsp+0x90],rdx
64e2:	00
64e3:	48 89 44 24 38       	mov    QWORD PTR [rsp+0x38],rax
64e8:	19 c0                	sbb    eax,eax
64ea:	49 89 3b             	mov    QWORD PTR [r11],rdi
64ed:	f7 d0                	not    eax
64ef:	83 c0 16             	add    eax,0x16
64f2:	41 83 f9 01          	cmp    r9d,0x1
64f6:	45 19 c9             	sbb    r9d,r9d
64f9:	41 f7 d1             	not    r9d
64fc:	41 81 c1 15 01 00 00 	add    r9d,0x115
6503:	e9 26 ef ff ff       	jmp    542e <yyparse+0x6de>
6508:	49 8b bd 28 ff ff ff 	mov    rdi,QWORD PTR [r13-0xd8]
650f:	84 c0                	test   al,al
6511:	48 89 7c 24 48       	mov    QWORD PTR [rsp+0x48],rdi
6516:	74 40                	je     6558 <yyparse+0x1808>
6518:	48 8d 35 31 a2 00 00 	lea    rsi,[rip+0xa231]        # 10750 <time_masks+0x720>
651f:	ba 05 00 00 00       	mov    edx,0x5
6524:	31 ff                	xor    edi,edi
6526:	4c 89 5c 24 60       	mov    QWORD PTR [rsp+0x60],r11
652b:	44 89 4c 24 58       	mov    DWORD PTR [rsp+0x58],r9d
6530:	4c 89 54 24 50       	mov    QWORD PTR [rsp+0x50],r10
6535:	e8 b6 c2 ff ff       	call   27f0 <dcgettext@plt>
653a:	48 8b 74 24 48       	mov    rsi,QWORD PTR [rsp+0x48]
653f:	48 89 c7             	mov    rdi,rax
6542:	31 c0                	xor    eax,eax
6544:	e8 77 dd ff ff       	call   42c0 <dbg_printf>
6549:	4c 8b 5c 24 60       	mov    r11,QWORD PTR [rsp+0x60]
654e:	44 8b 4c 24 58       	mov    r9d,DWORD PTR [rsp+0x58]
6553:	4c 8b 54 24 50       	mov    r10,QWORD PTR [rsp+0x50]
6558:	48 8b 44 24 48       	mov    rax,QWORD PTR [rsp+0x48]
655d:	e9 aa f8 ff ff       	jmp    5e0c <yyparse+0x10bc>
6562:	48 8b 44 24 70       	mov    rax,QWORD PTR [rsp+0x70]
6567:	44 29 c1             	sub    ecx,r8d
656a:	41 0f 90 c0          	seto   r8b
656e:	41 89 8b 98 00 00 00 	mov    DWORD PTR [r11+0x98],ecx
6575:	31 c9                	xor    ecx,ecx
6577:	48 29 fa             	sub    rdx,rdi
657a:	45 0f b6 c0          	movzx  r8d,r8b
657e:	0f 90 c1             	seto   cl
6581:	31 ff                	xor    edi,edi
6583:	48 29 f0             	sub    rax,rsi
6586:	40 0f 90 c7          	seto   dil
658a:	49 89 83 88 00 00 00 	mov    QWORD PTR [r11+0x88],rax
6591:	31 f6                	xor    esi,esi
6593:	48 8b 84 24 80 00 00 	mov    rax,QWORD PTR [rsp+0x80]
659a:	00
659b:	48 2b 44 24 60       	sub    rax,QWORD PTR [rsp+0x60]
65a0:	48 89 7c 24 70       	mov    QWORD PTR [rsp+0x70],rdi
65a5:	49 89 93 90 00 00 00 	mov    QWORD PTR [r11+0x90],rdx
65ac:	40 0f 90 c6          	seto   sil
65b0:	49 89 83 80 00 00 00 	mov    QWORD PTR [r11+0x80],rax
65b7:	31 ff                	xor    edi,edi
65b9:	48 8b 84 24 88 00 00 	mov    rax,QWORD PTR [rsp+0x88]
65c0:	00
65c1:	48 2b 44 24 58       	sub    rax,QWORD PTR [rsp+0x58]
65c6:	40 0f 90 c7          	seto   dil
65ca:	49 89 43 78          	mov    QWORD PTR [r11+0x78],rax
65ce:	31 d2                	xor    edx,edx
65d0:	48 8b 44 24 68       	mov    rax,QWORD PTR [rsp+0x68]
65d5:	48 2b 44 24 50       	sub    rax,QWORD PTR [rsp+0x50]
65da:	0f 90 c2             	seto   dl
65dd:	49 89 43 70          	mov    QWORD PTR [r11+0x70],rax
65e1:	48 8b 44 24 78       	mov    rax,QWORD PTR [rsp+0x78]
65e6:	48 89 54 24 50       	mov    QWORD PTR [rsp+0x50],rdx
65eb:	48 2b 44 24 48       	sub    rax,QWORD PTR [rsp+0x48]
65f0:	e9 07 ed ff ff       	jmp    52fc <yyparse+0x5ac>
65f5:	4c 89 f5             	mov    rbp,r14
65f8:	8b 55 00             	mov    edx,DWORD PTR [rbp+0x0]
65fb:	48 83 c5 04          	add    rbp,0x4
65ff:	8d 82 ff fe fe fe    	lea    eax,[rdx-0x1010101]
6605:	f7 d2                	not    edx
6607:	21 d0                	and    eax,edx
6609:	25 80 80 80 80       	and    eax,0x80808080
660e:	74 e8                	je     65f8 <yyparse+0x18a8>
6610:	89 c2                	mov    edx,eax
6612:	41 b9 01 00 00 00    	mov    r9d,0x1
6618:	c1 ea 10             	shr    edx,0x10
661b:	a9 80 80 00 00       	test   eax,0x8080
6620:	0f 44 c2             	cmove  eax,edx
6623:	48 8d 55 02          	lea    rdx,[rbp+0x2]
6627:	89 c7                	mov    edi,eax
6629:	48 0f 44 ea          	cmove  rbp,rdx
662d:	40 00 c7             	add    dil,al
6630:	48 83 dd 03          	sbb    rbp,0x3
6634:	4c 29 f5             	sub    rbp,r14
6637:	48 83 fd 03          	cmp    rbp,0x3
663b:	74 0d                	je     664a <yyparse+0x18fa>
663d:	45 31 c9             	xor    r9d,r9d
6640:	48 83 fd 04          	cmp    rbp,0x4
6644:	0f 84 c7 01 00 00    	je     6811 <yyparse+0x1ac1>
664a:	48 8d 0d ef e2 20 00 	lea    rcx,[rip+0x20e2ef]        # 214940 <month_and_day_table>
6651:	48 8d 35 71 9b 00 00 	lea    rsi,[rip+0x9b71]        # 101c9 <time_masks+0x199>
6658:	89 5c 24 08          	mov    DWORD PTR [rsp+0x8],ebx
665c:	48 89 6c 24 20       	mov    QWORD PTR [rsp+0x20],rbp
6661:	44 89 44 24 10       	mov    DWORD PTR [rsp+0x10],r8d
6666:	44 89 cb             	mov    ebx,r9d
6669:	48 89 cd             	mov    rbp,rcx
666c:	4c 89 5c 24 18       	mov    QWORD PTR [rsp+0x18],r11
6671:	85 db                	test   ebx,ebx
6673:	0f 84 6f 01 00 00    	je     67e8 <yyparse+0x1a98>
6679:	ba 03 00 00 00       	mov    edx,0x3
667e:	4c 89 f7             	mov    rdi,r14
6681:	e8 da c0 ff ff       	call   2760 <strncmp@plt>
6686:	85 c0                	test   eax,eax
6688:	0f 94 c0             	sete   al
668b:	84 c0                	test   al,al
668d:	0f 85 67 01 00 00    	jne    67fa <yyparse+0x1aaa>
6693:	48 83 c5 10          	add    rbp,0x10
6697:	48 8b 75 00          	mov    rsi,QWORD PTR [rbp+0x0]
669b:	48 85 f6             	test   rsi,rsi
669e:	75 d1                	jne    6671 <yyparse+0x1921>
66a0:	4c 8b 5c 24 18       	mov    r11,QWORD PTR [rsp+0x18]
66a5:	44 8b 44 24 10       	mov    r8d,DWORD PTR [rsp+0x10]
66aa:	4c 89 f6             	mov    rsi,r14
66ad:	48 63 5c 24 08       	movsxd rbx,DWORD PTR [rsp+0x8]
66b2:	88 44 24 08          	mov    BYTE PTR [rsp+0x8],al
66b6:	48 8b 6c 24 20       	mov    rbp,QWORD PTR [rsp+0x20]
66bb:	4c 89 df             	mov    rdi,r11
66be:	44 89 44 24 28       	mov    DWORD PTR [rsp+0x28],r8d
66c3:	4c 89 5c 24 10       	mov    QWORD PTR [rsp+0x10],r11
66c8:	e8 33 de ff ff       	call   4500 <lookup_zone>
66cd:	48 85 c0             	test   rax,rax
66d0:	48 89 c1             	mov    rcx,rax
66d3:	4c 8b 5c 24 10       	mov    r11,QWORD PTR [rsp+0x10]
66d8:	44 8b 44 24 28       	mov    r8d,DWORD PTR [rsp+0x28]
66dd:	0f 85 96 ef ff ff    	jne    5679 <yyparse+0x929>
66e3:	48 8d 35 6c 9a 00 00 	lea    rsi,[rip+0x9a6c]        # 10156 <time_masks+0x126>
66ea:	4c 89 f7             	mov    rdi,r14
66ed:	4c 89 5c 24 18       	mov    QWORD PTR [rsp+0x18],r11
66f2:	44 89 44 24 10       	mov    DWORD PTR [rsp+0x10],r8d
66f7:	e8 54 c2 ff ff       	call   2950 <strcmp@plt>
66fc:	85 c0                	test   eax,eax
66fe:	44 8b 44 24 10       	mov    r8d,DWORD PTR [rsp+0x10]
6703:	4c 8b 5c 24 18       	mov    r11,QWORD PTR [rsp+0x18]
6708:	0f 84 27 01 00 00    	je     6835 <yyparse+0x1ae5>
670e:	48 8d 0d 6b e1 20 00 	lea    rcx,[rip+0x20e16b]        # 214880 <time_units_table>
6715:	48 8d 35 b5 9a 00 00 	lea    rsi,[rip+0x9ab5]        # 101d1 <time_masks+0x1a1>
671c:	4c 89 f7             	mov    rdi,r14
671f:	4c 89 5c 24 20       	mov    QWORD PTR [rsp+0x20],r11
6724:	48 89 4c 24 18       	mov    QWORD PTR [rsp+0x18],rcx
6729:	44 89 44 24 10       	mov    DWORD PTR [rsp+0x10],r8d
672e:	e8 1d c2 ff ff       	call   2950 <strcmp@plt>
6733:	85 c0                	test   eax,eax
6735:	44 8b 44 24 10       	mov    r8d,DWORD PTR [rsp+0x10]
673a:	48 8b 4c 24 18       	mov    rcx,QWORD PTR [rsp+0x18]
673f:	4c 8b 5c 24 20       	mov    r11,QWORD PTR [rsp+0x20]
6744:	0f 84 2f ef ff ff    	je     5679 <yyparse+0x929>
674a:	48 83 c1 10          	add    rcx,0x10
674e:	48 8b 31             	mov    rsi,QWORD PTR [rcx]
6751:	48 85 f6             	test   rsi,rsi
6754:	75 c6                	jne    671c <yyparse+0x19cc>
6756:	49 8d 54 2e ff       	lea    rdx,[r14+rbp*1-0x1]
675b:	80 3a 53             	cmp    BYTE PTR [rdx],0x53
675e:	0f 84 dd 00 00 00    	je     6841 <yyparse+0x1af1>
6764:	48 8d 0d b5 df 20 00 	lea    rcx,[rip+0x20dfb5]        # 214720 <relative_time_table>
676b:	48 8d 35 64 9a 00 00 	lea    rsi,[rip+0x9a64]        # 101d6 <time_masks+0x1a6>
6772:	4c 89 f7             	mov    rdi,r14
6775:	4c 89 5c 24 20       	mov    QWORD PTR [rsp+0x20],r11
677a:	48 89 4c 24 18       	mov    QWORD PTR [rsp+0x18],rcx
677f:	44 89 44 24 10       	mov    DWORD PTR [rsp+0x10],r8d
6784:	e8 c7 c1 ff ff       	call   2950 <strcmp@plt>
6789:	85 c0                	test   eax,eax
678b:	44 8b 44 24 10       	mov    r8d,DWORD PTR [rsp+0x10]
6790:	48 8b 4c 24 18       	mov    rcx,QWORD PTR [rsp+0x18]
6795:	4c 8b 5c 24 20       	mov    r11,QWORD PTR [rsp+0x20]
679a:	0f 84 d9 ee ff ff    	je     5679 <yyparse+0x929>
67a0:	48 83 c1 10          	add    rcx,0x10
67a4:	48 8b 31             	mov    rsi,QWORD PTR [rcx]
67a7:	48 85 f6             	test   rsi,rsi
67aa:	75 c6                	jne    6772 <yyparse+0x1a22>
67ac:	48 83 ed 01          	sub    rbp,0x1
67b0:	0f b6 94 24 a0 05 00 	movzx  edx,BYTE PTR [rsp+0x5a0]
67b7:	00
67b8:	0f 84 6e 01 00 00    	je     692c <yyparse+0x1bdc>
67be:	4c 89 f0             	mov    rax,r14
67c1:	4c 89 f2             	mov    rdx,r14
67c4:	0f b6 08             	movzx  ecx,BYTE PTR [rax]
67c7:	84 c9                	test   cl,cl
67c9:	88 0a                	mov    BYTE PTR [rdx],cl
67cb:	0f 84 d7 00 00 00    	je     68a8 <yyparse+0x1b58>
67d1:	80 38 2e             	cmp    BYTE PTR [rax],0x2e
67d4:	0f 84 c4 00 00 00    	je     689e <yyparse+0x1b4e>
67da:	48 83 c2 01          	add    rdx,0x1
67de:	48 83 c0 01          	add    rax,0x1
67e2:	eb e0                	jmp    67c4 <yyparse+0x1a74>
67e4:	0f 1f 40 00          	nop    DWORD PTR [rax+0x0]
67e8:	4c 89 f7             	mov    rdi,r14
67eb:	e8 60 c1 ff ff       	call   2950 <strcmp@plt>
67f0:	85 c0                	test   eax,eax
67f2:	0f 94 c0             	sete   al
67f5:	e9 91 fe ff ff       	jmp    668b <yyparse+0x193b>
67fa:	48 63 5c 24 08       	movsxd rbx,DWORD PTR [rsp+0x8]
67ff:	44 8b 44 24 10       	mov    r8d,DWORD PTR [rsp+0x10]
6804:	48 89 e9             	mov    rcx,rbp
6807:	4c 8b 5c 24 18       	mov    r11,QWORD PTR [rsp+0x18]
680c:	e9 68 ee ff ff       	jmp    5679 <yyparse+0x929>
6811:	45 31 c9             	xor    r9d,r9d
6814:	80 bc 24 a3 05 00 00 	cmp    BYTE PTR [rsp+0x5a3],0x2e
681b:	2e
681c:	41 0f 94 c1          	sete   r9b
6820:	e9 25 fe ff ff       	jmp    664a <yyparse+0x18fa>
6825:	41 b8 01 00 00 00    	mov    r8d,0x1
682b:	e9 be e6 ff ff       	jmp    4eee <yyparse+0x19e>
6830:	e8 fb bf ff ff       	call   2830 <__stack_chk_fail@plt>
6835:	48 8d 0d 94 e2 20 00 	lea    rcx,[rip+0x20e294]        # 214ad0 <dst_table>
683c:	e9 38 ee ff ff       	jmp    5679 <yyparse+0x929>
6841:	48 8d 0d 38 e0 20 00 	lea    rcx,[rip+0x20e038]        # 214880 <time_units_table>
6848:	48 8d 35 82 99 00 00 	lea    rsi,[rip+0x9982]        # 101d1 <time_masks+0x1a1>
684f:	c6 02 00             	mov    BYTE PTR [rdx],0x0
6852:	4c 89 f7             	mov    rdi,r14
6855:	4c 89 5c 24 28       	mov    QWORD PTR [rsp+0x28],r11
685a:	48 89 4c 24 20       	mov    QWORD PTR [rsp+0x20],rcx
685f:	44 89 44 24 10       	mov    DWORD PTR [rsp+0x10],r8d
6864:	48 89 54 24 18       	mov    QWORD PTR [rsp+0x18],rdx
6869:	e8 e2 c0 ff ff       	call   2950 <strcmp@plt>
686e:	85 c0                	test   eax,eax
6870:	44 8b 44 24 10       	mov    r8d,DWORD PTR [rsp+0x10]
6875:	48 8b 4c 24 20       	mov    rcx,QWORD PTR [rsp+0x20]
687a:	4c 8b 5c 24 28       	mov    r11,QWORD PTR [rsp+0x28]
687f:	0f 84 f4 ed ff ff    	je     5679 <yyparse+0x929>
6885:	48 83 c1 10          	add    rcx,0x10
6889:	48 8b 31             	mov    rsi,QWORD PTR [rcx]
688c:	48 8b 54 24 18       	mov    rdx,QWORD PTR [rsp+0x18]
6891:	48 85 f6             	test   rsi,rsi
6894:	75 bc                	jne    6852 <yyparse+0x1b02>
6896:	c6 02 53             	mov    BYTE PTR [rdx],0x53
6899:	e9 c6 fe ff ff       	jmp    6764 <yyparse+0x1a14>
689e:	c6 44 24 08 01       	mov    BYTE PTR [rsp+0x8],0x1
68a3:	e9 36 ff ff ff       	jmp    67de <yyparse+0x1a8e>
68a8:	80 7c 24 08 00       	cmp    BYTE PTR [rsp+0x8],0x0
68ad:	74 2b                	je     68da <yyparse+0x1b8a>
68af:	4c 89 df             	mov    rdi,r11
68b2:	4c 89 f6             	mov    rsi,r14
68b5:	44 89 44 24 10       	mov    DWORD PTR [rsp+0x10],r8d
68ba:	4c 89 5c 24 08       	mov    QWORD PTR [rsp+0x8],r11
68bf:	e8 3c dc ff ff       	call   4500 <lookup_zone>
68c4:	48 85 c0             	test   rax,rax
68c7:	48 89 c1             	mov    rcx,rax
68ca:	4c 8b 5c 24 08       	mov    r11,QWORD PTR [rsp+0x8]
68cf:	44 8b 44 24 10       	mov    r8d,DWORD PTR [rsp+0x10]
68d4:	0f 85 9f ed ff ff    	jne    5679 <yyparse+0x929>
68da:	41 80 bb d9 00 00 00 	cmp    BYTE PTR [r11+0xd9],0x0
68e1:	00
68e2:	0f 84 9f fa ff ff    	je     6387 <yyparse+0x1637>
68e8:	48 8d 35 f2 98 00 00 	lea    rsi,[rip+0x98f2]        # 101e1 <time_masks+0x1b1>
68ef:	ba 05 00 00 00       	mov    edx,0x5
68f4:	31 ff                	xor    edi,edi
68f6:	4c 89 5c 24 10       	mov    QWORD PTR [rsp+0x10],r11
68fb:	44 89 44 24 08       	mov    DWORD PTR [rsp+0x8],r8d
6900:	e8 eb be ff ff       	call   27f0 <dcgettext@plt>
6905:	4c 89 f6             	mov    rsi,r14
6908:	48 89 c7             	mov    rdi,rax
690b:	31 c0                	xor    eax,eax
690d:	e8 ae d9 ff ff       	call   42c0 <dbg_printf>
6912:	b8 02 00 00 00       	mov    eax,0x2
6917:	41 b9 3f 00 00 00    	mov    r9d,0x3f
691d:	44 8b 44 24 08       	mov    r8d,DWORD PTR [rsp+0x8]
6922:	4c 8b 5c 24 10       	mov    r11,QWORD PTR [rsp+0x10]
6927:	e9 02 eb ff ff       	jmp    542e <yyparse+0x6de>
692c:	48 8d 0d 0d d9 20 00 	lea    rcx,[rip+0x20d90d]        # 214240 <military_table>
6933:	48 8d 05 a5 98 00 00 	lea    rax,[rip+0x98a5]        # 101df <time_masks+0x1af>
693a:	38 10                	cmp    BYTE PTR [rax],dl
693c:	0f 84 37 ed ff ff    	je     5679 <yyparse+0x929>
6942:	48 83 c1 10          	add    rcx,0x10
6946:	48 8b 01             	mov    rax,QWORD PTR [rcx]
6949:	48 85 c0             	test   rax,rax
694c:	75 ec                	jne    693a <yyparse+0x1bea>
694e:	e9 6b fe ff ff       	jmp    67be <yyparse+0x1a6e>
6953:	0f 1f 00             	nop    DWORD PTR [rax]
6956:	66 2e 0f 1f 84 00 00 	nop    WORD PTR cs:[rax+rax*1+0x0]
695d:	00 00 00

0000000000006960 <parse_datetime2>:
6960:	41 57                	push   r15
6962:	41 56                	push   r14
6964:	49 89 d6             	mov    r14,rdx
6967:	41 55                	push   r13
6969:	41 54                	push   r12
696b:	55                   	push   rbp
696c:	53                   	push   rbx
696d:	48 89 f5             	mov    rbp,rsi
6970:	48 81 ec 58 04 00 00 	sub    rsp,0x458
6977:	48 89 7c 24 28       	mov    QWORD PTR [rsp+0x28],rdi
697c:	48 89 f7             	mov    rdi,rsi
697f:	89 4c 24 20          	mov    DWORD PTR [rsp+0x20],ecx
6983:	64 48 8b 04 25 28 00 	mov    rax,QWORD PTR fs:0x28
698a:	00 00
698c:	48 89 84 24 48 04 00 	mov    QWORD PTR [rsp+0x448],rax
6993:	00
6994:	31 c0                	xor    eax,eax
6996:	4c 89 04 24          	mov    QWORD PTR [rsp],r8
699a:	4c 89 4c 24 10       	mov    QWORD PTR [rsp+0x10],r9
699f:	e8 6c be ff ff       	call   2810 <strlen@plt>
69a4:	4d 85 f6             	test   r14,r14
69a7:	48 89 44 24 30       	mov    QWORD PTR [rsp+0x30],rax
69ac:	0f 84 be 05 00 00    	je     6f70 <parse_datetime2+0x610>
69b2:	49 8b 46 08          	mov    rax,QWORD PTR [r14+0x8]
69b6:	49 8b 1e             	mov    rbx,QWORD PTR [r14]
69b9:	48 89 44 24 18       	mov    QWORD PTR [rsp+0x18],rax
69be:	0f b6 45 00          	movzx  eax,BYTE PTR [rbp+0x0]
69c2:	3c 20                	cmp    al,0x20
69c4:	0f 87 76 08 00 00    	ja     7240 <parse_datetime2+0x8e0>
69ca:	48 b9 00 3e 00 00 01 	movabs rcx,0x100003e00
69d1:	00 00 00
69d4:	49 89 ed             	mov    r13,rbp
69d7:	be 01 00 00 00       	mov    esi,0x1
69dc:	48 0f a3 c1          	bt     rcx,rax
69e0:	48 89 ca             	mov    rdx,rcx
69e3:	72 16                	jb     69fb <parse_datetime2+0x9b>
69e5:	eb 22                	jmp    6a09 <parse_datetime2+0xa9>
69e7:	66 0f 1f 84 00 00 00 	nop    WORD PTR [rax+rax*1+0x0]
69ee:	00 00
69f0:	48 89 f0             	mov    rax,rsi
69f3:	48 d3 e0             	shl    rax,cl
69f6:	48 85 d0             	test   rax,rdx
69f9:	74 0e                	je     6a09 <parse_datetime2+0xa9>
69fb:	49 83 c5 01          	add    r13,0x1
69ff:	41 0f b6 4d 00       	movzx  ecx,BYTE PTR [r13+0x0]
6a04:	80 f9 20             	cmp    cl,0x20
6a07:	76 e7                	jbe    69f0 <parse_datetime2+0x90>
6a09:	48 8d 3d 34 98 00 00 	lea    rdi,[rip+0x9834]        # 10244 <time_masks+0x214>
6a10:	b9 04 00 00 00       	mov    ecx,0x4
6a15:	4c 89 ee             	mov    rsi,r13
6a18:	f3 a6                	repz cmps BYTE PTR ds:[rsi],BYTE PTR es:[rdi]
6a1a:	0f 97 c0             	seta   al
6a1d:	1c 00                	sbb    al,0x0
6a1f:	84 c0                	test   al,al
6a21:	75 55                	jne    6a78 <parse_datetime2+0x118>
6a23:	45 0f b6 65 04       	movzx  r12d,BYTE PTR [r13+0x4]
6a28:	49 8d 4d 04          	lea    rcx,[r13+0x4]
6a2c:	45 84 e4             	test   r12b,r12b
6a2f:	74 47                	je     6a78 <parse_datetime2+0x118>
6a31:	48 89 ca             	mov    rdx,rcx
6a34:	44 89 e0             	mov    eax,r12d
6a37:	bf 01 00 00 00       	mov    edi,0x1
6a3c:	eb 1d                	jmp    6a5b <parse_datetime2+0xfb>
6a3e:	66 90                	xchg   ax,ax
6a40:	3c 22                	cmp    al,0x22
6a42:	0f 84 f0 03 00 00    	je     6e38 <parse_datetime2+0x4d8>
6a48:	48 89 d0             	mov    rax,rdx
6a4b:	48 8d 50 01          	lea    rdx,[rax+0x1]
6a4f:	0f b6 40 01          	movzx  eax,BYTE PTR [rax+0x1]
6a53:	48 83 c7 01          	add    rdi,0x1
6a57:	84 c0                	test   al,al
6a59:	74 1d                	je     6a78 <parse_datetime2+0x118>
6a5b:	3c 5c                	cmp    al,0x5c
6a5d:	75 e1                	jne    6a40 <parse_datetime2+0xe0>
6a5f:	48 8d 42 01          	lea    rax,[rdx+0x1]
6a63:	0f b6 52 01          	movzx  edx,BYTE PTR [rdx+0x1]
6a67:	80 fa 5c             	cmp    dl,0x5c
6a6a:	74 df                	je     6a4b <parse_datetime2+0xeb>
6a6c:	80 fa 22             	cmp    dl,0x22
6a6f:	74 da                	je     6a4b <parse_datetime2+0xeb>
6a71:	0f 1f 80 00 00 00 00 	nop    DWORD PTR [rax+0x0]
6a78:	4c 8b 3c 24          	mov    r15,QWORD PTR [rsp]
6a7c:	48 8d 94 24 f0 00 00 	lea    rdx,[rsp+0xf0]
6a83:	00
6a84:	4c 89 f6             	mov    rsi,r14
6a87:	4c 89 ff             	mov    rdi,r15
6a8a:	e8 e1 4a 00 00       	call   b570 <localtime_rz>
6a8f:	48 85 c0             	test   rax,rax
6a92:	0f 84 c8 03 00 00    	je     6e60 <parse_datetime2+0x500>
6a98:	48 c7 44 24 08 00 00 	mov    QWORD PTR [rsp+0x8],0x0
6a9f:	00 00
6aa1:	41 80 7d 00 00       	cmp    BYTE PTR [r13+0x0],0x0
6aa6:	48 8d 05 0f 98 00 00 	lea    rax,[rip+0x980f]        # 102bc <time_masks+0x28c>
6aad:	48 c7 84 24 e0 01 00 	mov    QWORD PTR [rsp+0x1e0],0x0
6ab4:	00 00 00 00 00
6ab9:	c7 84 24 cc 01 00 00 	mov    DWORD PTR [rsp+0x1cc],0x2
6ac0:	02 00 00 00
6ac4:	48 c7 84 24 18 02 00 	mov    QWORD PTR [rsp+0x218],0x0
6acb:	00 00 00 00 00
6ad0:	4c 8d a4 24 30 01 00 	lea    r12,[rsp+0x130]
6ad7:	00
6ad8:	48 c7 84 24 20 02 00 	mov    QWORD PTR [rsp+0x220],0x0
6adf:	00 00 00 00 00
6ae4:	48 c7 84 24 28 02 00 	mov    QWORD PTR [rsp+0x228],0x0
6aeb:	00 00 00 00 00
6af0:	41 be 00 a7 76 00    	mov    r14d,0x76a700
6af6:	48 c7 84 24 30 02 00 	mov    QWORD PTR [rsp+0x230],0x0
6afd:	00 00 00 00 00
6b02:	48 c7 84 24 38 02 00 	mov    QWORD PTR [rsp+0x238],0x0
6b09:	00 00 00 00 00
6b0e:	4c 0f 44 e8          	cmove  r13,rax
6b12:	0f b6 44 24 20       	movzx  eax,BYTE PTR [rsp+0x20]
6b17:	48 c7 84 24 40 02 00 	mov    QWORD PTR [rsp+0x240],0x0
6b1e:	00 00 00 00 00
6b23:	4c 89 ac 24 b0 01 00 	mov    QWORD PTR [rsp+0x1b0],r13
6b2a:	00
6b2b:	4c 63 6c 24 18       	movsxd r13,DWORD PTR [rsp+0x18]
6b30:	c7 84 24 48 02 00 00 	mov    DWORD PTR [rsp+0x248],0x0
6b37:	00 00 00 00
6b3b:	c6 84 24 50 02 00 00 	mov    BYTE PTR [rsp+0x250],0x0
6b42:	00
6b43:	88 84 24 89 02 00 00 	mov    BYTE PTR [rsp+0x289],al
6b4a:	48 63 84 24 04 01 00 	movsxd rax,DWORD PTR [rsp+0x104]
6b51:	00
6b52:	4c 89 ac 24 10 02 00 	mov    QWORD PTR [rsp+0x210],r13
6b59:	00
6b5a:	80 a4 24 89 02 00 00 	and    BYTE PTR [rsp+0x289],0x1
6b61:	01
6b62:	4c 8d ac 24 70 01 00 	lea    r13,[rsp+0x170]
6b69:	00
6b6a:	48 05 6c 07 00 00    	add    rax,0x76c
6b70:	48 89 84 24 d8 01 00 	mov    QWORD PTR [rsp+0x1d8],rax
6b77:	00
6b78:	8b 84 24 00 01 00 00 	mov    eax,DWORD PTR [rsp+0x100]
6b7f:	83 c0 01             	add    eax,0x1
6b82:	48 98                	cdqe
6b84:	48 89 84 24 e8 01 00 	mov    QWORD PTR [rsp+0x1e8],rax
6b8b:	00
6b8c:	48 63 84 24 fc 00 00 	movsxd rax,DWORD PTR [rsp+0xfc]
6b93:	00
6b94:	48 89 84 24 f0 01 00 	mov    QWORD PTR [rsp+0x1f0],rax
6b9b:	00
6b9c:	48 63 84 24 f8 00 00 	movsxd rax,DWORD PTR [rsp+0xf8]
6ba3:	00
6ba4:	48 89 84 24 f8 01 00 	mov    QWORD PTR [rsp+0x1f8],rax
6bab:	00
6bac:	48 63 84 24 f4 00 00 	movsxd rax,DWORD PTR [rsp+0xf4]
6bb3:	00
6bb4:	48 89 84 24 00 02 00 	mov    QWORD PTR [rsp+0x200],rax
6bbb:	00
6bbc:	48 63 84 24 f0 00 00 	movsxd rax,DWORD PTR [rsp+0xf0]
6bc3:	00
6bc4:	48 89 84 24 08 02 00 	mov    QWORD PTR [rsp+0x208],rax
6bcb:	00
6bcc:	8b 84 24 10 01 00 00 	mov    eax,DWORD PTR [rsp+0x110]
6bd3:	89 84 24 90 00 00 00 	mov    DWORD PTR [rsp+0x90],eax
6bda:	c6 84 24 51 02 00 00 	mov    BYTE PTR [rsp+0x251],0x0
6be1:	00
6be2:	48 8b 94 24 20 01 00 	mov    rdx,QWORD PTR [rsp+0x120]
6be9:	00
6bea:	48 c7 84 24 58 02 00 	mov    QWORD PTR [rsp+0x258],0x0
6bf1:	00 00 00 00 00
6bf6:	48 c7 84 24 60 02 00 	mov    QWORD PTR [rsp+0x260],0x0
6bfd:	00 00 00 00 00
6c02:	48 c7 84 24 78 02 00 	mov    QWORD PTR [rsp+0x278],0x0
6c09:	00 00 00 00 00
6c0e:	48 c7 84 24 68 02 00 	mov    QWORD PTR [rsp+0x268],0x0
6c15:	00 00 00 00 00
6c1a:	48 c7 84 24 70 02 00 	mov    QWORD PTR [rsp+0x270],0x0
6c21:	00 00 00 00 00
6c26:	48 c7 84 24 80 02 00 	mov    QWORD PTR [rsp+0x280],0x0
6c2d:	00 00 00 00 00
6c32:	c6 84 24 88 02 00 00 	mov    BYTE PTR [rsp+0x288],0x0
6c39:	00
6c3a:	c6 84 24 8a 02 00 00 	mov    BYTE PTR [rsp+0x28a],0x0
6c41:	00
6c42:	c6 84 24 8b 02 00 00 	mov    BYTE PTR [rsp+0x28b],0x0
6c49:	00
6c4a:	c6 84 24 8d 02 00 00 	mov    BYTE PTR [rsp+0x28d],0x0
6c51:	00
6c52:	c6 84 24 8c 02 00 00 	mov    BYTE PTR [rsp+0x28c],0x0
6c59:	00
6c5a:	c6 84 24 8e 02 00 00 	mov    BYTE PTR [rsp+0x28e],0x0
6c61:	00
6c62:	c6 84 24 8f 02 00 00 	mov    BYTE PTR [rsp+0x28f],0x0
6c69:	00
6c6a:	c6 84 24 90 02 00 00 	mov    BYTE PTR [rsp+0x290],0x0
6c71:	00
6c72:	48 89 94 24 98 02 00 	mov    QWORD PTR [rsp+0x298],rdx
6c79:	00
6c7a:	c7 84 24 a0 02 00 00 	mov    DWORD PTR [rsp+0x2a0],0x10d
6c81:	0d 01 00 00
6c85:	89 84 24 a4 02 00 00 	mov    DWORD PTR [rsp+0x2a4],eax
6c8c:	48 c7 84 24 a8 02 00 	mov    QWORD PTR [rsp+0x2a8],0x0
6c93:	00 00 00 00 00
6c98:	49 63 c6             	movsxd rax,r14d
6c9b:	48 01 d8             	add    rax,rbx
6c9e:	70 4c                	jo     6cec <parse_datetime2+0x38c>
6ca0:	4c 89 ea             	mov    rdx,r13
6ca3:	4c 89 e6             	mov    rsi,r12
6ca6:	4c 89 ff             	mov    rdi,r15
6ca9:	48 89 84 24 30 01 00 	mov    QWORD PTR [rsp+0x130],rax
6cb0:	00
6cb1:	e8 ba 48 00 00       	call   b570 <localtime_rz>
6cb6:	48 85 c0             	test   rax,rax
6cb9:	74 21                	je     6cdc <parse_datetime2+0x37c>
6cbb:	48 8b 84 24 a0 01 00 	mov    rax,QWORD PTR [rsp+0x1a0]
6cc2:	00
6cc3:	48 85 c0             	test   rax,rax
6cc6:	74 14                	je     6cdc <parse_datetime2+0x37c>
6cc8:	8b 94 24 90 01 00 00 	mov    edx,DWORD PTR [rsp+0x190]
6ccf:	3b 94 24 a4 02 00 00 	cmp    edx,DWORD PTR [rsp+0x2a4]
6cd6:	0f 85 c2 06 00 00    	jne    739e <parse_datetime2+0xa3e>
6cdc:	41 81 c6 00 a7 76 00 	add    r14d,0x76a700
6ce3:	41 81 fe 00 9c da 01 	cmp    r14d,0x1da9c00
6cea:	75 ac                	jne    6c98 <parse_datetime2+0x338>
6cec:	48 8b bc 24 98 02 00 	mov    rdi,QWORD PTR [rsp+0x298]
6cf3:	00
6cf4:	48 85 ff             	test   rdi,rdi
6cf7:	74 2d                	je     6d26 <parse_datetime2+0x3c6>
6cf9:	48 8b b4 24 a8 02 00 	mov    rsi,QWORD PTR [rsp+0x2a8]
6d00:	00
6d01:	48 85 f6             	test   rsi,rsi
6d04:	74 20                	je     6d26 <parse_datetime2+0x3c6>
6d06:	e8 45 bc ff ff       	call   2950 <strcmp@plt>
6d0b:	85 c0                	test   eax,eax
6d0d:	75 17                	jne    6d26 <parse_datetime2+0x3c6>
6d0f:	c7 84 24 a4 02 00 00 	mov    DWORD PTR [rsp+0x2a4],0xffffffff
6d16:	ff ff ff ff
6d1a:	48 c7 84 24 a8 02 00 	mov    QWORD PTR [rsp+0x2a8],0x0
6d21:	00 00 00 00 00
6d26:	4c 8d ac 24 b0 01 00 	lea    r13,[rsp+0x1b0]
6d2d:	00
6d2e:	4c 89 ef             	mov    rdi,r13
6d31:	e8 1a e0 ff ff       	call   4d50 <yyparse>
6d36:	85 c0                	test   eax,eax
6d38:	0f 85 aa 00 00 00    	jne    6de8 <parse_datetime2+0x488>
6d3e:	80 bc 24 89 02 00 00 	cmp    BYTE PTR [rsp+0x289],0x0
6d45:	00
6d46:	0f 85 3c 02 00 00    	jne    6f88 <parse_datetime2+0x628>
6d4c:	44 0f b6 a4 24 50 02 	movzx  r12d,BYTE PTR [rsp+0x250]
6d53:	00 00
6d55:	45 84 e4             	test   r12b,r12b
6d58:	0f 85 fa 01 00 00    	jne    6f58 <parse_datetime2+0x5f8>
6d5e:	48 8b 84 24 58 02 00 	mov    rax,QWORD PTR [rsp+0x258]
6d65:	00
6d66:	48 0b 84 24 78 02 00 	or     rax,QWORD PTR [rsp+0x278]
6d6d:	00
6d6e:	48 0b 84 24 60 02 00 	or     rax,QWORD PTR [rsp+0x260]
6d75:	00
6d76:	48 8b 94 24 68 02 00 	mov    rdx,QWORD PTR [rsp+0x268]
6d7d:	00
6d7e:	48 0b 84 24 70 02 00 	or     rax,QWORD PTR [rsp+0x270]
6d85:	00
6d86:	48 03 94 24 80 02 00 	add    rdx,QWORD PTR [rsp+0x280]
6d8d:	00
6d8e:	48 09 d0             	or     rax,rdx
6d91:	48 83 f8 01          	cmp    rax,0x1
6d95:	0f 8e 2e 06 00 00    	jle    73c9 <parse_datetime2+0xa69>
6d9b:	45 31 e4             	xor    r12d,r12d
6d9e:	4c 3b 3c 24          	cmp    r15,QWORD PTR [rsp]
6da2:	74 08                	je     6dac <parse_datetime2+0x44c>
6da4:	4c 89 ff             	mov    rdi,r15
6da7:	e8 b4 47 00 00       	call   b560 <tzfree>
6dac:	48 8b 7c 24 08       	mov    rdi,QWORD PTR [rsp+0x8]
6db1:	e8 5a b9 ff ff       	call   2710 <free@plt>
6db6:	48 8b 9c 24 48 04 00 	mov    rbx,QWORD PTR [rsp+0x448]
6dbd:	00
6dbe:	64 48 33 1c 25 28 00 	xor    rbx,QWORD PTR fs:0x28
6dc5:	00 00
6dc7:	44 89 e0             	mov    eax,r12d
6dca:	0f 85 00 11 00 00    	jne    7ed0 <parse_datetime2+0x1570>
6dd0:	48 81 c4 58 04 00 00 	add    rsp,0x458
6dd7:	5b                   	pop    rbx
6dd8:	5d                   	pop    rbp
6dd9:	41 5c                	pop    r12
6ddb:	41 5d                	pop    r13
6ddd:	41 5e                	pop    r14
6ddf:	41 5f                	pop    r15
6de1:	c3                   	ret
6de2:	66 0f 1f 44 00 00    	nop    WORD PTR [rax+rax*1+0x0]
6de8:	44 0f b6 a4 24 89 02 	movzx  r12d,BYTE PTR [rsp+0x289]
6def:	00 00
6df1:	45 84 e4             	test   r12b,r12b
6df4:	74 a8                	je     6d9e <parse_datetime2+0x43e>
6df6:	48 03 6c 24 30       	add    rbp,QWORD PTR [rsp+0x30]
6dfb:	48 8b 9c 24 b0 01 00 	mov    rbx,QWORD PTR [rsp+0x1b0]
6e02:	00
6e03:	ba 05 00 00 00       	mov    edx,0x5
6e08:	48 39 eb             	cmp    rbx,rbp
6e0b:	0f 82 17 04 00 00    	jb     7228 <parse_datetime2+0x8c8>
6e11:	48 8d 35 31 94 00 00 	lea    rsi,[rip+0x9431]        # 10249 <time_masks+0x219>
6e18:	31 ff                	xor    edi,edi
6e1a:	e8 d1 b9 ff ff       	call   27f0 <dcgettext@plt>
6e1f:	48 89 c7             	mov    rdi,rax
6e22:	48 89 de             	mov    rsi,rbx
6e25:	31 c0                	xor    eax,eax
6e27:	45 31 e4             	xor    r12d,r12d
6e2a:	e8 91 d4 ff ff       	call   42c0 <dbg_printf>
6e2f:	e9 6a ff ff ff       	jmp    6d9e <parse_datetime2+0x43e>
6e34:	0f 1f 40 00          	nop    DWORD PTR [rax+0x0]
6e38:	48 83 ff 64          	cmp    rdi,0x64
6e3c:	7e 3a                	jle    6e78 <parse_datetime2+0x518>
6e3e:	48 89 4c 24 38       	mov    QWORD PTR [rsp+0x38],rcx
6e43:	e8 88 bb ff ff       	call   29d0 <malloc@plt>
6e48:	48 85 c0             	test   rax,rax
6e4b:	48 89 44 24 10       	mov    QWORD PTR [rsp+0x10],rax
6e50:	48 89 44 24 08       	mov    QWORD PTR [rsp+0x8],rax
6e55:	48 8b 4c 24 38       	mov    rcx,QWORD PTR [rsp+0x38]
6e5a:	75 32                	jne    6e8e <parse_datetime2+0x52e>
6e5c:	0f 1f 40 00          	nop    DWORD PTR [rax+0x0]
6e60:	48 c7 44 24 08 00 00 	mov    QWORD PTR [rsp+0x8],0x0
6e67:	00 00
6e69:	45 31 e4             	xor    r12d,r12d
6e6c:	e9 3b ff ff ff       	jmp    6dac <parse_datetime2+0x44c>
6e71:	0f 1f 80 00 00 00 00 	nop    DWORD PTR [rax+0x0]
6e78:	48 8d 84 24 70 03 00 	lea    rax,[rsp+0x370]
6e7f:	00
6e80:	48 c7 44 24 08 00 00 	mov    QWORD PTR [rsp+0x8],0x0
6e87:	00 00
6e89:	48 89 44 24 10       	mov    QWORD PTR [rsp+0x10],rax
6e8e:	41 80 fc 22          	cmp    r12b,0x22
6e92:	48 8b 54 24 10       	mov    rdx,QWORD PTR [rsp+0x10]
6e97:	74 2c                	je     6ec5 <parse_datetime2+0x565>
6e99:	0f 1f 80 00 00 00 00 	nop    DWORD PTR [rax+0x0]
6ea0:	31 c0                	xor    eax,eax
6ea2:	41 80 fc 5c          	cmp    r12b,0x5c
6ea6:	0f 94 c0             	sete   al
6ea9:	48 83 c2 01          	add    rdx,0x1
6ead:	48 01 c8             	add    rax,rcx
6eb0:	44 0f b6 60 01       	movzx  r12d,BYTE PTR [rax+0x1]
6eb5:	0f b6 08             	movzx  ecx,BYTE PTR [rax]
6eb8:	41 80 fc 22          	cmp    r12b,0x22
6ebc:	88 4a ff             	mov    BYTE PTR [rdx-0x1],cl
6ebf:	48 8d 48 01          	lea    rcx,[rax+0x1]
6ec3:	75 db                	jne    6ea0 <parse_datetime2+0x540>
6ec5:	48 8b 7c 24 10       	mov    rdi,QWORD PTR [rsp+0x10]
6eca:	c6 02 00             	mov    BYTE PTR [rdx],0x0
6ecd:	45 31 e4             	xor    r12d,r12d
6ed0:	48 89 4c 24 38       	mov    QWORD PTR [rsp+0x38],rcx
6ed5:	e8 d6 43 00 00       	call   b2b0 <tzalloc>
6eda:	48 85 c0             	test   rax,rax
6edd:	49 89 c7             	mov    r15,rax
6ee0:	0f 84 c6 fe ff ff    	je     6dac <parse_datetime2+0x44c>
6ee6:	48 8b 4c 24 38       	mov    rcx,QWORD PTR [rsp+0x38]
6eeb:	0f b6 41 01          	movzx  eax,BYTE PTR [rcx+0x1]
6eef:	4c 8d 69 01          	lea    r13,[rcx+0x1]
6ef3:	3c 20                	cmp    al,0x20
6ef5:	77 3a                	ja     6f31 <parse_datetime2+0x5d1>
6ef7:	48 b9 00 3e 00 00 01 	movabs rcx,0x100003e00
6efe:	00 00 00
6f01:	be 01 00 00 00       	mov    esi,0x1
6f06:	48 0f a3 c1          	bt     rcx,rax
6f0a:	48 89 ca             	mov    rdx,rcx
6f0d:	72 14                	jb     6f23 <parse_datetime2+0x5c3>
6f0f:	eb 20                	jmp    6f31 <parse_datetime2+0x5d1>
6f11:	0f 1f 80 00 00 00 00 	nop    DWORD PTR [rax+0x0]
6f18:	48 89 f0             	mov    rax,rsi
6f1b:	48 d3 e0             	shl    rax,cl
6f1e:	48 85 d0             	test   rax,rdx
6f21:	74 0e                	je     6f31 <parse_datetime2+0x5d1>
6f23:	49 83 c5 01          	add    r13,0x1
6f27:	41 0f b6 4d 00       	movzx  ecx,BYTE PTR [r13+0x0]
6f2c:	80 f9 20             	cmp    cl,0x20
6f2f:	76 e7                	jbe    6f18 <parse_datetime2+0x5b8>
6f31:	48 8d 94 24 f0 00 00 	lea    rdx,[rsp+0xf0]
6f38:	00
6f39:	4c 89 f6             	mov    rsi,r14
6f3c:	4c 89 ff             	mov    rdi,r15
6f3f:	45 31 e4             	xor    r12d,r12d
6f42:	e8 29 46 00 00       	call   b570 <localtime_rz>
6f47:	48 85 c0             	test   rax,rax
6f4a:	0f 85 51 fb ff ff    	jne    6aa1 <parse_datetime2+0x141>
6f50:	e9 49 fe ff ff       	jmp    6d9e <parse_datetime2+0x43e>
6f55:	0f 1f 00             	nop    DWORD PTR [rax]
6f58:	48 8b 44 24 28       	mov    rax,QWORD PTR [rsp+0x28]
6f5d:	f3 0f 6f 84 24 08 02 	movdqu xmm0,XMMWORD PTR [rsp+0x208]
6f64:	00 00
6f66:	0f 11 00             	movups XMMWORD PTR [rax],xmm0
6f69:	e9 30 fe ff ff       	jmp    6d9e <parse_datetime2+0x43e>
6f6e:	66 90                	xchg   ax,ax
6f70:	4c 8d 74 24 60       	lea    r14,[rsp+0x60]
6f75:	4c 89 f7             	mov    rdi,r14
6f78:	e8 63 d0 ff ff       	call   3fe0 <gettime>
6f7d:	e9 30 fa ff ff       	jmp    69b2 <parse_datetime2+0x52>
6f82:	66 0f 1f 44 00 00    	nop    WORD PTR [rax+rax*1+0x0]
6f88:	48 8d 35 d1 92 00 00 	lea    rsi,[rip+0x92d1]        # 10260 <time_masks+0x230>
6f8f:	ba 05 00 00 00       	mov    edx,0x5
6f94:	31 ff                	xor    edi,edi
6f96:	e8 55 b8 ff ff       	call   27f0 <dcgettext@plt>
6f9b:	48 89 c7             	mov    rdi,rax
6f9e:	31 c0                	xor    eax,eax
6fa0:	e8 1b d3 ff ff       	call   42c0 <dbg_printf>
6fa5:	80 bc 24 50 02 00 00 	cmp    BYTE PTR [rsp+0x250],0x0
6fac:	00
6fad:	ba 05 00 00 00       	mov    edx,0x5
6fb2:	48 8d 35 b8 92 00 00 	lea    rsi,[rip+0x92b8]        # 10271 <time_masks+0x241>
6fb9:	75 65                	jne    7020 <parse_datetime2+0x6c0>
6fbb:	48 83 bc 24 80 02 00 	cmp    QWORD PTR [rsp+0x280],0x0
6fc2:	00 00
6fc4:	ba 05 00 00 00       	mov    edx,0x5
6fc9:	48 8d 35 ba 92 00 00 	lea    rsi,[rip+0x92ba]        # 1028a <time_masks+0x25a>
6fd0:	75 4e                	jne    7020 <parse_datetime2+0x6c0>
6fd2:	48 8b 5c 24 10       	mov    rbx,QWORD PTR [rsp+0x10]
6fd7:	48 85 db             	test   rbx,rbx
6fda:	74 38                	je     7014 <parse_datetime2+0x6b4>
6fdc:	4c 39 3c 24          	cmp    QWORD PTR [rsp],r15
6fe0:	0f 84 99 04 00 00    	je     747f <parse_datetime2+0xb1f>
6fe6:	48 8d 35 b5 92 00 00 	lea    rsi,[rip+0x92b5]        # 102a2 <time_masks+0x272>
6fed:	ba 05 00 00 00       	mov    edx,0x5
6ff2:	31 ff                	xor    edi,edi
6ff4:	e8 f7 b7 ff ff       	call   27f0 <dcgettext@plt>
6ff9:	48 89 d9             	mov    rcx,rbx
6ffc:	48 8b 3d dd e0 20 00 	mov    rdi,QWORD PTR [rip+0x20e0dd]        # 2150e0 <stderr@@GLIBC_2.2.5>
7003:	48 89 c2             	mov    rdx,rax
7006:	be 01 00 00 00       	mov    esi,0x1
700b:	31 c0                	xor    eax,eax
700d:	e8 de ba ff ff       	call   2af0 <__fprintf_chk@plt>
7012:	eb 29                	jmp    703d <parse_datetime2+0x6dd>
7014:	48 8d 35 bd 92 00 00 	lea    rsi,[rip+0x92bd]        # 102d8 <time_masks+0x2a8>
701b:	ba 05 00 00 00       	mov    edx,0x5
7020:	31 ff                	xor    edi,edi
7022:	e8 c9 b7 ff ff       	call   27f0 <dcgettext@plt>
7027:	48 8b 3d b2 e0 20 00 	mov    rdi,QWORD PTR [rip+0x20e0b2]        # 2150e0 <stderr@@GLIBC_2.2.5>
702e:	48 89 c2             	mov    rdx,rax
7031:	be 01 00 00 00       	mov    esi,0x1
7036:	31 c0                	xor    eax,eax
7038:	e8 b3 ba ff ff       	call   2af0 <__fprintf_chk@plt>
703d:	48 83 bc 24 68 02 00 	cmp    QWORD PTR [rsp+0x268],0x0
7044:	00 00
7046:	48 8b 84 24 80 02 00 	mov    rax,QWORD PTR [rsp+0x280]
704d:	00
704e:	74 40                	je     7090 <parse_datetime2+0x730>
7050:	48 85 c0             	test   rax,rax
7053:	0f 85 fd 02 00 00    	jne    7356 <parse_datetime2+0x9f6>
7059:	44 8b 84 24 c4 01 00 	mov    r8d,DWORD PTR [rsp+0x1c4]
7060:	00
7061:	48 8b 35 78 e0 20 00 	mov    rsi,QWORD PTR [rip+0x20e078]        # 2150e0 <stderr@@GLIBC_2.2.5>
7068:	45 85 c0             	test   r8d,r8d
706b:	7e 33                	jle    70a0 <parse_datetime2+0x740>
706d:	48 8d 3d 79 92 00 00 	lea    rdi,[rip+0x9279]        # 102ed <time_masks+0x2bd>
7074:	48 89 f1             	mov    rcx,rsi
7077:	ba 05 00 00 00       	mov    edx,0x5
707c:	be 01 00 00 00       	mov    esi,0x1
7081:	e8 5a ba ff ff       	call   2ae0 <fwrite@plt>
7086:	48 8b 84 24 80 02 00 	mov    rax,QWORD PTR [rsp+0x280]
708d:	00
708e:	66 90                	xchg   ax,ax
7090:	48 85 c0             	test   rax,rax
7093:	0f 85 bd 02 00 00    	jne    7356 <parse_datetime2+0x9f6>
7099:	48 8b 35 40 e0 20 00 	mov    rsi,QWORD PTR [rip+0x20e040]        # 2150e0 <stderr@@GLIBC_2.2.5>
70a0:	bf 0a 00 00 00       	mov    edi,0xa
70a5:	e8 66 b8 ff ff       	call   2910 <fputc@plt>
70aa:	80 bc 24 50 02 00 00 	cmp    BYTE PTR [rsp+0x250],0x0
70b1:	00
70b2:	44 0f b6 a4 24 89 02 	movzx  r12d,BYTE PTR [rsp+0x289]
70b9:	00 00
70bb:	0f 84 87 01 00 00    	je     7248 <parse_datetime2+0x8e8>
70c1:	48 8b 44 24 28       	mov    rax,QWORD PTR [rsp+0x28]
70c6:	f3 0f 6f 84 24 08 02 	movdqu xmm0,XMMWORD PTR [rsp+0x208]
70cd:	00 00
70cf:	0f 11 00             	movups XMMWORD PTR [rax],xmm0
70d2:	45 84 e4             	test   r12b,r12b
70d5:	0f 84 b8 02 00 00    	je     7393 <parse_datetime2+0xa33>
70db:	ba 05 00 00 00       	mov    edx,0x5
70e0:	48 8d 35 95 93 00 00 	lea    rsi,[rip+0x9395]        # 1047c <time_masks+0x44c>
70e7:	48 83 7c 24 10 00    	cmp    QWORD PTR [rsp+0x10],0x0
70ed:	0f 84 ff 01 00 00    	je     72f2 <parse_datetime2+0x992>
70f3:	48 8b 74 24 10       	mov    rsi,QWORD PTR [rsp+0x10]
70f8:	48 8d 3d ba 91 00 00 	lea    rdi,[rip+0x91ba]        # 102b9 <time_masks+0x289>
70ff:	b9 05 00 00 00       	mov    ecx,0x5
7104:	ba 05 00 00 00       	mov    edx,0x5
7109:	f3 a6                	repz cmps BYTE PTR ds:[rsi],BYTE PTR es:[rdi]
710b:	0f 97 c0             	seta   al
710e:	1c 00                	sbb    al,0x0
7110:	84 c0                	test   al,al
7112:	0f 84 d3 01 00 00    	je     72eb <parse_datetime2+0x98b>
7118:	48 8d 35 51 9d 00 00 	lea    rsi,[rip+0x9d51]        # 10e70 <time_masks+0xe40>
711f:	31 ff                	xor    edi,edi
7121:	e8 ca b6 ff ff       	call   27f0 <dcgettext@plt>
7126:	48 8b 74 24 10       	mov    rsi,QWORD PTR [rsp+0x10]
712b:	48 89 c7             	mov    rdi,rax
712e:	31 c0                	xor    eax,eax
7130:	e8 8b d1 ff ff       	call   42c0 <dbg_printf>
7135:	4c 8b 74 24 28       	mov    r14,QWORD PTR [rsp+0x28]
713a:	48 8d 35 57 9d 00 00 	lea    rsi,[rip+0x9d57]        # 10e98 <time_masks+0xe68>
7141:	31 ff                	xor    edi,edi
7143:	ba 05 00 00 00       	mov    edx,0x5
7148:	49 8b 1e             	mov    rbx,QWORD PTR [r14]
714b:	49 8b 6e 08          	mov    rbp,QWORD PTR [r14+0x8]
714f:	e8 9c b6 ff ff       	call   27f0 <dcgettext@plt>
7154:	48 89 c7             	mov    rdi,rax
7157:	31 c0                	xor    eax,eax
7159:	48 89 de             	mov    rsi,rbx
715c:	48 8d 9c 24 30 01 00 	lea    rbx,[rsp+0x130]
7163:	00
7164:	89 ea                	mov    edx,ebp
7166:	e8 55 d1 ff ff       	call   42c0 <dbg_printf>
716b:	48 89 de             	mov    rsi,rbx
716e:	4c 89 f7             	mov    rdi,r14
7171:	e8 3a b7 ff ff       	call   28b0 <gmtime_r@plt>
7176:	48 85 c0             	test   rax,rax
7179:	74 35                	je     71b0 <parse_datetime2+0x850>
717b:	48 8d 94 24 00 03 00 	lea    rdx,[rsp+0x300]
7182:	00
7183:	48 89 df             	mov    rdi,rbx
7186:	31 f6                	xor    esi,esi
7188:	e8 23 d6 ff ff       	call   47b0 <debug_strfdatetime.constprop.12>
718d:	48 8d 35 1c 93 00 00 	lea    rsi,[rip+0x931c]        # 104b0 <time_masks+0x480>
7194:	48 89 c3             	mov    rbx,rax
7197:	31 ff                	xor    edi,edi
7199:	ba 05 00 00 00       	mov    edx,0x5
719e:	e8 4d b6 ff ff       	call   27f0 <dcgettext@plt>
71a3:	48 89 de             	mov    rsi,rbx
71a6:	48 89 c7             	mov    rdi,rax
71a9:	31 c0                	xor    eax,eax
71ab:	e8 10 d1 ff ff       	call   42c0 <dbg_printf>
71b0:	48 8d 9c 24 70 01 00 	lea    rbx,[rsp+0x170]
71b7:	00
71b8:	48 8b 74 24 28       	mov    rsi,QWORD PTR [rsp+0x28]
71bd:	4c 89 ff             	mov    rdi,r15
71c0:	48 89 da             	mov    rdx,rbx
71c3:	e8 a8 43 00 00       	call   b570 <localtime_rz>
71c8:	48 85 c0             	test   rax,rax
71cb:	0f 84 cd fb ff ff    	je     6d9e <parse_datetime2+0x43e>
71d1:	8b bc 24 98 01 00 00 	mov    edi,DWORD PTR [rsp+0x198]
71d8:	48 8d b4 24 e0 02 00 	lea    rsi,[rsp+0x2e0]
71df:	00
71e0:	e8 db cf ff ff       	call   41c0 <time_zone_str>
71e5:	48 8d 94 24 00 03 00 	lea    rdx,[rsp+0x300]
71ec:	00
71ed:	31 f6                	xor    esi,esi
71ef:	48 89 df             	mov    rdi,rbx
71f2:	48 89 c5             	mov    rbp,rax
71f5:	e8 b6 d5 ff ff       	call   47b0 <debug_strfdatetime.constprop.12>
71fa:	48 8d 35 c0 92 00 00 	lea    rsi,[rip+0x92c0]        # 104c1 <time_masks+0x491>
7201:	48 89 c3             	mov    rbx,rax
7204:	31 ff                	xor    edi,edi
7206:	ba 05 00 00 00       	mov    edx,0x5
720b:	e8 e0 b5 ff ff       	call   27f0 <dcgettext@plt>
7210:	48 89 ea             	mov    rdx,rbp
7213:	48 89 c7             	mov    rdi,rax
7216:	48 89 de             	mov    rsi,rbx
7219:	31 c0                	xor    eax,eax
721b:	e8 a0 d0 ff ff       	call   42c0 <dbg_printf>
7220:	e9 79 fb ff ff       	jmp    6d9e <parse_datetime2+0x43e>
7225:	0f 1f 00             	nop    DWORD PTR [rax]
7228:	48 8d 35 69 95 00 00 	lea    rsi,[rip+0x9569]        # 10798 <time_masks+0x768>
722f:	31 ff                	xor    edi,edi
7231:	e8 ba b5 ff ff       	call   27f0 <dcgettext@plt>
7236:	48 89 c7             	mov    rdi,rax
7239:	e9 e4 fb ff ff       	jmp    6e22 <parse_datetime2+0x4c2>
723e:	66 90                	xchg   ax,ax
7240:	49 89 ed             	mov    r13,rbp
7243:	e9 c1 f7 ff ff       	jmp    6a09 <parse_datetime2+0xa9>
7248:	48 8b b4 24 78 02 00 	mov    rsi,QWORD PTR [rsp+0x278]
724f:	00
7250:	48 8b 8c 24 58 02 00 	mov    rcx,QWORD PTR [rsp+0x258]
7257:	00
7258:	48 8b 94 24 80 02 00 	mov    rdx,QWORD PTR [rsp+0x280]
725f:	00
7260:	48 03 94 24 68 02 00 	add    rdx,QWORD PTR [rsp+0x268]
7267:	00
7268:	48 89 f0             	mov    rax,rsi
726b:	48 09 c8             	or     rax,rcx
726e:	48 0b 84 24 60 02 00 	or     rax,QWORD PTR [rsp+0x260]
7275:	00
7276:	48 0b 84 24 70 02 00 	or     rax,QWORD PTR [rsp+0x270]
727d:	00
727e:	48 09 d0             	or     rax,rdx
7281:	48 83 f8 01          	cmp    rax,0x1
7285:	0f 8e 3e 01 00 00    	jle    73c9 <parse_datetime2+0xa69>
728b:	45 84 e4             	test   r12b,r12b
728e:	0f 84 07 fb ff ff    	je     6d9b <parse_datetime2+0x43b>
7294:	48 83 fe 01          	cmp    rsi,0x1
7298:	0f 8f 9d 00 00 00    	jg     733b <parse_datetime2+0x9db>
729e:	48 83 f9 01          	cmp    rcx,0x1
72a2:	0f 8f 80 00 00 00    	jg     7328 <parse_datetime2+0x9c8>
72a8:	48 83 bc 24 60 02 00 	cmp    QWORD PTR [rsp+0x260],0x1
72af:	00 01
72b1:	7f 65                	jg     7318 <parse_datetime2+0x9b8>
72b3:	48 83 bc 24 70 02 00 	cmp    QWORD PTR [rsp+0x270],0x1
72ba:	00 01
72bc:	7f 4a                	jg     7308 <parse_datetime2+0x9a8>
72be:	48 8b 84 24 80 02 00 	mov    rax,QWORD PTR [rsp+0x280]
72c5:	00
72c6:	48 03 84 24 68 02 00 	add    rax,QWORD PTR [rsp+0x268]
72cd:	00
72ce:	48 83 f8 01          	cmp    rax,0x1
72d2:	0f 8e c3 fa ff ff    	jle    6d9b <parse_datetime2+0x43b>
72d8:	48 8d 3d b1 95 00 00 	lea    rdi,[rip+0x95b1]        # 10890 <time_masks+0x860>
72df:	31 c0                	xor    eax,eax
72e1:	e8 da cf ff ff       	call   42c0 <dbg_printf>
72e6:	e9 b0 fa ff ff       	jmp    6d9b <parse_datetime2+0x43b>
72eb:	48 8d 35 a4 91 00 00 	lea    rsi,[rip+0x91a4]        # 10496 <time_masks+0x466>
72f2:	31 ff                	xor    edi,edi
72f4:	e8 f7 b4 ff ff       	call   27f0 <dcgettext@plt>
72f9:	48 89 c7             	mov    rdi,rax
72fc:	31 c0                	xor    eax,eax
72fe:	e8 bd cf ff ff       	call   42c0 <dbg_printf>
7303:	e9 2d fe ff ff       	jmp    7135 <parse_datetime2+0x7d5>
7308:	48 8d 3d 51 95 00 00 	lea    rdi,[rip+0x9551]        # 10860 <time_masks+0x830>
730f:	31 c0                	xor    eax,eax
7311:	e8 aa cf ff ff       	call   42c0 <dbg_printf>
7316:	eb a6                	jmp    72be <parse_datetime2+0x95e>
7318:	48 8d 3d 19 95 00 00 	lea    rdi,[rip+0x9519]        # 10838 <time_masks+0x808>
731f:	31 c0                	xor    eax,eax
7321:	e8 9a cf ff ff       	call   42c0 <dbg_printf>
7326:	eb 8b                	jmp    72b3 <parse_datetime2+0x953>
7328:	48 8d 3d e1 94 00 00 	lea    rdi,[rip+0x94e1]        # 10810 <time_masks+0x7e0>
732f:	31 c0                	xor    eax,eax
7331:	e8 8a cf ff ff       	call   42c0 <dbg_printf>
7336:	e9 6d ff ff ff       	jmp    72a8 <parse_datetime2+0x948>
733b:	48 8d 3d a6 94 00 00 	lea    rdi,[rip+0x94a6]        # 107e8 <time_masks+0x7b8>
7342:	31 c0                	xor    eax,eax
7344:	e8 77 cf ff ff       	call   42c0 <dbg_printf>
7349:	48 8b 8c 24 58 02 00 	mov    rcx,QWORD PTR [rsp+0x258]
7350:	00
7351:	e9 48 ff ff ff       	jmp    729e <parse_datetime2+0x93e>
7356:	8b bc 24 c8 01 00 00 	mov    edi,DWORD PTR [rsp+0x1c8]
735d:	48 8d b4 24 e0 02 00 	lea    rsi,[rsp+0x2e0]
7364:	00
7365:	e8 56 ce ff ff       	call   41c0 <time_zone_str>
736a:	48 8b 3d 6f dd 20 00 	mov    rdi,QWORD PTR [rip+0x20dd6f]        # 2150e0 <stderr@@GLIBC_2.2.5>
7371:	48 8d 15 6f 8f 00 00 	lea    rdx,[rip+0x8f6f]        # 102e7 <time_masks+0x2b7>
7378:	48 89 c1             	mov    rcx,rax
737b:	be 01 00 00 00       	mov    esi,0x1
7380:	31 c0                	xor    eax,eax
7382:	e8 69 b7 ff ff       	call   2af0 <__fprintf_chk@plt>
7387:	48 8b 35 52 dd 20 00 	mov    rsi,QWORD PTR [rip+0x20dd52]        # 2150e0 <stderr@@GLIBC_2.2.5>
738e:	e9 0d fd ff ff       	jmp    70a0 <parse_datetime2+0x740>
7393:	41 bc 01 00 00 00    	mov    r12d,0x1
7399:	e9 00 fa ff ff       	jmp    6d9e <parse_datetime2+0x43e>
739e:	48 89 84 24 a8 02 00 	mov    QWORD PTR [rsp+0x2a8],rax
73a5:	00
73a6:	c7 84 24 b0 02 00 00 	mov    DWORD PTR [rsp+0x2b0],0x10d
73ad:	0d 01 00 00
73b1:	89 94 24 b4 02 00 00 	mov    DWORD PTR [rsp+0x2b4],edx
73b8:	48 c7 84 24 b8 02 00 	mov    QWORD PTR [rsp+0x2b8],0x0
73bf:	00 00 00 00 00
73c4:	e9 23 f9 ff ff       	jmp    6cec <parse_datetime2+0x38c>
73c9:	48 8b ac 24 d8 01 00 	mov    rbp,QWORD PTR [rsp+0x1d8]
73d0:	00
73d1:	48 85 ed             	test   rbp,rbp
73d4:	0f 88 2e 05 00 00    	js     7908 <parse_datetime2+0xfa8>
73da:	48 83 bc 24 e0 01 00 	cmp    QWORD PTR [rsp+0x1e0],0x2
73e1:	00 02
73e3:	0f 84 4f 05 00 00    	je     7938 <parse_datetime2+0xfd8>
73e9:	31 db                	xor    ebx,ebx
73eb:	48 81 fd 6c 07 00 00 	cmp    rbp,0x76c
73f2:	48 8d 85 94 f8 ff ff 	lea    rax,[rbp-0x76c]
73f9:	0f 83 29 05 00 00    	jae    7928 <parse_datetime2+0xfc8>
73ff:	48 85 c0             	test   rax,rax
7402:	0f 89 12 05 00 00    	jns    791a <parse_datetime2+0xfba>
7408:	48 63 d0             	movsxd rdx,eax
740b:	89 84 24 84 00 00 00 	mov    DWORD PTR [rsp+0x84],eax
7412:	48 39 d0             	cmp    rax,rdx
7415:	ba 01 00 00 00       	mov    edx,0x1
741a:	0f 45 da             	cmovne ebx,edx
741d:	83 e3 01             	and    ebx,0x1
7420:	84 db                	test   bl,bl
7422:	0f 84 9b 00 00 00    	je     74c3 <parse_datetime2+0xb63>
7428:	45 84 e4             	test   r12b,r12b
742b:	74 20                	je     744d <parse_datetime2+0xaed>
742d:	48 8d 35 bf 8e 00 00 	lea    rsi,[rip+0x8ebf]        # 102f3 <time_masks+0x2c3>
7434:	31 ff                	xor    edi,edi
7436:	ba 05 00 00 00       	mov    edx,0x5
743b:	e8 b0 b3 ff ff       	call   27f0 <dcgettext@plt>
7440:	48 89 ee             	mov    rsi,rbp
7443:	48 89 c7             	mov    rdi,rax
7446:	31 c0                	xor    eax,eax
7448:	e8 73 ce ff ff       	call   42c0 <dbg_printf>
744d:	0f b6 84 24 89 02 00 	movzx  eax,BYTE PTR [rsp+0x289]
7454:	00
7455:	84 c0                	test   al,al
7457:	ba 05 00 00 00       	mov    edx,0x5
745c:	48 8d 35 85 94 00 00 	lea    rsi,[rip+0x9485]        # 108e8 <time_masks+0x8b8>
7463:	0f 84 32 f9 ff ff    	je     6d9b <parse_datetime2+0x43b>
7469:	31 ff                	xor    edi,edi
746b:	e8 80 b3 ff ff       	call   27f0 <dcgettext@plt>
7470:	48 89 c7             	mov    rdi,rax
7473:	31 c0                	xor    eax,eax
7475:	e8 46 ce ff ff       	call   42c0 <dbg_printf>
747a:	e9 1c f9 ff ff       	jmp    6d9b <parse_datetime2+0x43b>
747f:	48 8b 74 24 10       	mov    rsi,QWORD PTR [rsp+0x10]
7484:	48 8d 3d 2e 8e 00 00 	lea    rdi,[rip+0x8e2e]        # 102b9 <time_masks+0x289>
748b:	b9 05 00 00 00       	mov    ecx,0x5
7490:	ba 05 00 00 00       	mov    edx,0x5
7495:	f3 a6                	repz cmps BYTE PTR ds:[rsi],BYTE PTR es:[rdi]
7497:	48 8d 35 22 93 00 00 	lea    rsi,[rip+0x9322]        # 107c0 <time_masks+0x790>
749e:	0f 97 c0             	seta   al
74a1:	1c 00                	sbb    al,0x0
74a3:	84 c0                	test   al,al
74a5:	0f 84 75 fb ff ff    	je     7020 <parse_datetime2+0x6c0>
74ab:	48 8d 35 0c 8e 00 00 	lea    rsi,[rip+0x8e0c]        # 102be <time_masks+0x28e>
74b2:	31 ff                	xor    edi,edi
74b4:	e8 37 b3 ff ff       	call   27f0 <dcgettext@plt>
74b9:	48 8b 4c 24 10       	mov    rcx,QWORD PTR [rsp+0x10]
74be:	e9 39 fb ff ff       	jmp    6ffc <parse_datetime2+0x69c>
74c3:	48 8b 84 24 e8 01 00 	mov    rax,QWORD PTR [rsp+0x1e8]
74ca:	00
74cb:	31 d2                	xor    edx,edx
74cd:	48 83 c0 ff          	add    rax,0xffffffffffffffff
74d1:	0f 80 53 10 00 00    	jo     852a <parse_datetime2+0x1bca>
74d7:	48 63 c8             	movsxd rcx,eax
74da:	89 84 24 80 00 00 00 	mov    DWORD PTR [rsp+0x80],eax
74e1:	48 39 c8             	cmp    rax,rcx
74e4:	b9 01 00 00 00       	mov    ecx,0x1
74e9:	0f b6 84 24 89 02 00 	movzx  eax,BYTE PTR [rsp+0x289]
74f0:	00
74f1:	0f 45 d1             	cmovne edx,ecx
74f4:	85 d2                	test   edx,edx
74f6:	0f 85 59 ff ff ff    	jne    7455 <parse_datetime2+0xaf5>
74fc:	48 8b 94 24 f0 01 00 	mov    rdx,QWORD PTR [rsp+0x1f0]
7503:	00
7504:	48 63 ca             	movsxd rcx,edx
7507:	89 54 24 7c          	mov    DWORD PTR [rsp+0x7c],edx
750b:	48 39 ca             	cmp    rdx,rcx
750e:	41 0f 95 c4          	setne  r12b
7512:	45 0f b6 e4          	movzx  r12d,r12b
7516:	0f 85 39 ff ff ff    	jne    7455 <parse_datetime2+0xaf5>
751c:	48 83 bc 24 78 02 00 	cmp    QWORD PTR [rsp+0x278],0x0
7523:	00 00
7525:	0f 85 68 06 00 00    	jne    7b93 <parse_datetime2+0x1233>
752b:	80 bc 24 51 02 00 00 	cmp    BYTE PTR [rsp+0x251],0x0
7532:	00
7533:	0f 84 09 07 00 00    	je     7c42 <parse_datetime2+0x12e2>
7539:	48 83 bc 24 58 02 00 	cmp    QWORD PTR [rsp+0x258],0x0
7540:	00 00
7542:	0f 85 fa 06 00 00    	jne    7c42 <parse_datetime2+0x12e2>
7548:	48 83 bc 24 60 02 00 	cmp    QWORD PTR [rsp+0x260],0x0
754f:	00 00
7551:	0f 84 3c 06 00 00    	je     7b93 <parse_datetime2+0x1233>
7557:	84 c0                	test   al,al
7559:	48 c7 44 24 70 00 00 	mov    QWORD PTR [rsp+0x70],0x0
7560:	00 00
7562:	c7 44 24 78 00 00 00 	mov    DWORD PTR [rsp+0x78],0x0
7569:	00
756a:	48 c7 84 24 10 02 00 	mov    QWORD PTR [rsp+0x210],0x0
7571:	00 00 00 00 00
7576:	0f 85 e7 06 00 00    	jne    7c63 <parse_datetime2+0x1303>
757c:	c7 84 24 90 00 00 00 	mov    DWORD PTR [rsp+0x90],0xffffffff
7583:	ff ff ff ff
7587:	48 83 bc 24 68 02 00 	cmp    QWORD PTR [rsp+0x268],0x0
758e:	00 00
7590:	0f 85 85 06 00 00    	jne    7c1b <parse_datetime2+0x12bb>
7596:	8b 84 24 90 00 00 00 	mov    eax,DWORD PTR [rsp+0x90]
759d:	8b 54 24 70          	mov    edx,DWORD PTR [rsp+0x70]
75a1:	89 84 24 d0 00 00 00 	mov    DWORD PTR [rsp+0xd0],eax
75a8:	48 8d 44 24 70       	lea    rax,[rsp+0x70]
75ad:	4c 89 ff             	mov    rdi,r15
75b0:	c7 84 24 88 00 00 00 	mov    DWORD PTR [rsp+0x88],0xffffffff
75b7:	ff ff ff ff
75bb:	48 89 c6             	mov    rsi,rax
75be:	48 89 c5             	mov    rbp,rax
75c1:	48 89 44 24 18       	mov    QWORD PTR [rsp+0x18],rax
75c6:	89 94 24 b0 00 00 00 	mov    DWORD PTR [rsp+0xb0],edx
75cd:	8b 54 24 74          	mov    edx,DWORD PTR [rsp+0x74]
75d1:	89 94 24 b4 00 00 00 	mov    DWORD PTR [rsp+0xb4],edx
75d8:	8b 54 24 78          	mov    edx,DWORD PTR [rsp+0x78]
75dc:	89 94 24 b8 00 00 00 	mov    DWORD PTR [rsp+0xb8],edx
75e3:	8b 54 24 7c          	mov    edx,DWORD PTR [rsp+0x7c]
75e7:	89 94 24 bc 00 00 00 	mov    DWORD PTR [rsp+0xbc],edx
75ee:	8b 94 24 80 00 00 00 	mov    edx,DWORD PTR [rsp+0x80]
75f5:	89 94 24 c0 00 00 00 	mov    DWORD PTR [rsp+0xc0],edx
75fc:	8b 94 24 84 00 00 00 	mov    edx,DWORD PTR [rsp+0x84]
7603:	89 94 24 c4 00 00 00 	mov    DWORD PTR [rsp+0xc4],edx
760a:	e8 11 40 00 00       	call   b620 <mktime_z>
760f:	8b 8c 24 88 00 00 00 	mov    ecx,DWORD PTR [rsp+0x88]
7616:	49 89 c6             	mov    r14,rax
7619:	85 c9                	test   ecx,ecx
761b:	78 18                	js     7635 <parse_datetime2+0xcd5>
761d:	48 8d bc 24 b0 00 00 	lea    rdi,[rsp+0xb0]
7624:	00
7625:	48 89 ee             	mov    rsi,rbp
7628:	e8 a3 ce ff ff       	call   44d0 <mktime_ok.part.6>
762d:	84 c0                	test   al,al
762f:	0f 85 23 04 00 00    	jne    7a58 <parse_datetime2+0x10f8>
7635:	48 8b 84 24 80 02 00 	mov    rax,QWORD PTR [rsp+0x280]
763c:	00
763d:	48 85 c0             	test   rax,rax
7640:	48 89 44 24 30       	mov    QWORD PTR [rsp+0x30],rax
7645:	0f 85 13 03 00 00    	jne    795e <parse_datetime2+0xffe>
764b:	44 8b 94 24 b0 00 00 	mov    r10d,DWORD PTR [rsp+0xb0]
7652:	00
7653:	44 8b 4c 24 70       	mov    r9d,DWORD PTR [rsp+0x70]
7658:	8b 84 24 84 00 00 00 	mov    eax,DWORD PTR [rsp+0x84]
765f:	8b 9c 24 b8 00 00 00 	mov    ebx,DWORD PTR [rsp+0xb8]
7666:	8b 74 24 78          	mov    esi,DWORD PTR [rsp+0x78]
766a:	8b bc 24 bc 00 00 00 	mov    edi,DWORD PTR [rsp+0xbc]
7671:	8b 54 24 7c          	mov    edx,DWORD PTR [rsp+0x7c]
7675:	44 8b 9c 24 c4 00 00 	mov    r11d,DWORD PTR [rsp+0xc4]
767c:	00
767d:	45 39 ca             	cmp    r10d,r9d
7680:	89 44 24 28          	mov    DWORD PTR [rsp+0x28],eax
7684:	44 8b 84 24 b4 00 00 	mov    r8d,DWORD PTR [rsp+0xb4]
768b:	00
768c:	8b 4c 24 74          	mov    ecx,DWORD PTR [rsp+0x74]
7690:	89 5c 24 38          	mov    DWORD PTR [rsp+0x38],ebx
7694:	89 74 24 40          	mov    DWORD PTR [rsp+0x40],esi
7698:	89 7c 24 10          	mov    DWORD PTR [rsp+0x10],edi
769c:	89 54 24 20          	mov    DWORD PTR [rsp+0x20],edx
76a0:	44 8b b4 24 c0 00 00 	mov    r14d,DWORD PTR [rsp+0xc0]
76a7:	00
76a8:	8b ac 24 80 00 00 00 	mov    ebp,DWORD PTR [rsp+0x80]
76af:	44 89 5c 24 44       	mov    DWORD PTR [rsp+0x44],r11d
76b4:	0f b6 84 24 89 02 00 	movzx  eax,BYTE PTR [rsp+0x289]
76bb:	00
76bc:	0f 85 6b 0b 00 00    	jne    822d <parse_datetime2+0x18cd>
76c2:	41 39 c8             	cmp    r8d,ecx
76c5:	0f 85 62 0b 00 00    	jne    822d <parse_datetime2+0x18cd>
76cb:	39 d7                	cmp    edi,edx
76cd:	0f 85 5a 0b 00 00    	jne    822d <parse_datetime2+0x18cd>
76d3:	39 f3                	cmp    ebx,esi
76d5:	0f 84 52 0b 00 00    	je     822d <parse_datetime2+0x18cd>
76db:	41 39 ee             	cmp    r14d,ebp
76de:	0f 85 49 0b 00 00    	jne    822d <parse_datetime2+0x18cd>
76e4:	8b 5c 24 28          	mov    ebx,DWORD PTR [rsp+0x28]
76e8:	41 39 db             	cmp    r11d,ebx
76eb:	0f 85 3c 0b 00 00    	jne    822d <parse_datetime2+0x18cd>
76f1:	84 c0                	test   al,al
76f3:	0f 84 a2 f6 ff ff    	je     6d9b <parse_datetime2+0x43b>
76f9:	48 8d 35 a8 92 00 00 	lea    rsi,[rip+0x92a8]        # 109a8 <time_masks+0x978>
7700:	ba 05 00 00 00       	mov    edx,0x5
7705:	31 ff                	xor    edi,edi
7707:	48 8d 9c 24 e0 03 00 	lea    rbx,[rsp+0x3e0]
770e:	00
770f:	e8 dc b0 ff ff       	call   27f0 <dcgettext@plt>
7714:	48 89 c7             	mov    rdi,rax
7717:	31 c0                	xor    eax,eax
7719:	e8 a2 cb ff ff       	call   42c0 <dbg_printf>
771e:	48 8d bc 24 b0 00 00 	lea    rdi,[rsp+0xb0]
7725:	00
7726:	48 89 da             	mov    rdx,rbx
7729:	4c 89 ee             	mov    rsi,r13
772c:	e8 7f d0 ff ff       	call   47b0 <debug_strfdatetime.constprop.12>
7731:	48 8d 35 21 8c 00 00 	lea    rsi,[rip+0x8c21]        # 10359 <time_masks+0x329>
7738:	49 89 c4             	mov    r12,rax
773b:	ba 05 00 00 00       	mov    edx,0x5
7740:	31 ff                	xor    edi,edi
7742:	e8 a9 b0 ff ff       	call   27f0 <dcgettext@plt>
7747:	4c 89 e6             	mov    rsi,r12
774a:	48 89 c7             	mov    rdi,rax
774d:	31 c0                	xor    eax,eax
774f:	e8 6c cb ff ff       	call   42c0 <dbg_printf>
7754:	48 8b 7c 24 18       	mov    rdi,QWORD PTR [rsp+0x18]
7759:	48 89 da             	mov    rdx,rbx
775c:	4c 89 ee             	mov    rsi,r13
775f:	e8 4c d0 ff ff       	call   47b0 <debug_strfdatetime.constprop.12>
7764:	48 8d 35 0c 8c 00 00 	lea    rsi,[rip+0x8c0c]        # 10377 <time_masks+0x347>
776b:	49 89 c4             	mov    r12,rax
776e:	ba 05 00 00 00       	mov    edx,0x5
7773:	31 ff                	xor    edi,edi
7775:	e8 76 b0 ff ff       	call   27f0 <dcgettext@plt>
777a:	4c 89 e6             	mov    rsi,r12
777d:	48 89 c7             	mov    rdi,rax
7780:	31 c0                	xor    eax,eax
7782:	e8 39 cb ff ff       	call   42c0 <dbg_printf>
7787:	48 8d 35 e8 8b 00 00 	lea    rsi,[rip+0x8be8]        # 10376 <time_masks+0x346>
778e:	41 bc 01 00 00 00    	mov    r12d,0x1
7794:	48 89 f0             	mov    rax,rsi
7797:	44 8b 5c 24 40       	mov    r11d,DWORD PTR [rsp+0x40]
779c:	44 39 5c 24 38       	cmp    DWORD PTR [rsp+0x38],r11d
77a1:	48 8d 0d ce 8b 00 00 	lea    rcx,[rip+0x8bce]        # 10376 <time_masks+0x346>
77a8:	48 8d 15 92 8a 00 00 	lea    rdx,[rip+0x8a92]        # 10241 <time_masks+0x211>
77af:	44 8b 5c 24 20       	mov    r11d,DWORD PTR [rsp+0x20]
77b4:	4c 8d 0d 84 8a 00 00 	lea    r9,[rip+0x8a84]        # 1023f <time_masks+0x20f>
77bb:	49 89 c8             	mov    r8,rcx
77be:	48 89 cf             	mov    rdi,rcx
77c1:	4c 0f 45 c2          	cmovne r8,rdx
77c5:	44 39 5c 24 10       	cmp    DWORD PTR [rsp+0x10],r11d
77ca:	44 8b 5c 24 28       	mov    r11d,DWORD PTR [rsp+0x28]
77cf:	48 0f 45 fa          	cmovne rdi,rdx
77d3:	41 39 ee             	cmp    r14d,ebp
77d6:	48 0f 44 d1          	cmove  rdx,rcx
77da:	44 39 5c 24 44       	cmp    DWORD PTR [rsp+0x44],r11d
77df:	4c 0f 44 c9          	cmove  r9,rcx
77e3:	48 83 ec 08          	sub    rsp,0x8
77e7:	b9 64 00 00 00       	mov    ecx,0x64
77ec:	56                   	push   rsi
77ed:	50                   	push   rax
77ee:	be 64 00 00 00       	mov    esi,0x64
77f3:	41 50                	push   r8
77f5:	4c 8d 05 d4 91 00 00 	lea    r8,[rip+0x91d4]        # 109d0 <time_masks+0x9a0>
77fc:	57                   	push   rdi
77fd:	52                   	push   rdx
77fe:	48 89 df             	mov    rdi,rbx
7801:	ba 01 00 00 00       	mov    edx,0x1
7806:	31 c0                	xor    eax,eax
7808:	e8 f3 ae ff ff       	call   2700 <__snprintf_chk@plt>
780d:	48 83 c4 30          	add    rsp,0x30
7811:	b8 34 00 00 00       	mov    eax,0x34
7816:	eb 0a                	jmp    7822 <parse_datetime2+0xec2>
7818:	48 83 e8 01          	sub    rax,0x1
781c:	80 3c 03 20          	cmp    BYTE PTR [rbx+rax*1],0x20
7820:	75 06                	jne    7828 <parse_datetime2+0xec8>
7822:	85 c0                	test   eax,eax
7824:	89 c2                	mov    edx,eax
7826:	75 f0                	jne    7818 <parse_datetime2+0xeb8>
7828:	48 63 c2             	movsxd rax,edx
782b:	48 8d 3d a6 8b 00 00 	lea    rdi,[rip+0x8ba6]        # 103d8 <time_masks+0x3a8>
7832:	48 89 de             	mov    rsi,rbx
7835:	c6 84 04 e0 03 00 00 	mov    BYTE PTR [rsp+rax*1+0x3e0],0x0
783c:	00
783d:	31 c0                	xor    eax,eax
783f:	e8 7c ca ff ff       	call   42c0 <dbg_printf>
7844:	48 8d 35 4a 8b 00 00 	lea    rsi,[rip+0x8b4a]        # 10395 <time_masks+0x365>
784b:	31 ff                	xor    edi,edi
784d:	ba 05 00 00 00       	mov    edx,0x5
7852:	e8 99 af ff ff       	call   27f0 <dcgettext@plt>
7857:	48 89 c7             	mov    rdi,rax
785a:	31 c0                	xor    eax,eax
785c:	e8 5f ca ff ff       	call   42c0 <dbg_printf>
7861:	45 85 e4             	test   r12d,r12d
7864:	74 1d                	je     7883 <parse_datetime2+0xf23>
7866:	48 8d 35 a3 91 00 00 	lea    rsi,[rip+0x91a3]        # 10a10 <time_masks+0x9e0>
786d:	31 ff                	xor    edi,edi
786f:	ba 05 00 00 00       	mov    edx,0x5
7874:	e8 77 af ff ff       	call   27f0 <dcgettext@plt>
7879:	48 89 c7             	mov    rdi,rax
787c:	31 c0                	xor    eax,eax
787e:	e8 3d ca ff ff       	call   42c0 <dbg_printf>
7883:	8b 5c 24 20          	mov    ebx,DWORD PTR [rsp+0x20]
7887:	39 5c 24 10          	cmp    DWORD PTR [rsp+0x10],ebx
788b:	74 22                	je     78af <parse_datetime2+0xf4f>
788d:	41 39 ee             	cmp    r14d,ebp
7890:	74 1d                	je     78af <parse_datetime2+0xf4f>
7892:	48 8d 35 af 91 00 00 	lea    rsi,[rip+0x91af]        # 10a48 <time_masks+0xa18>
7899:	31 ff                	xor    edi,edi
789b:	ba 05 00 00 00       	mov    edx,0x5
78a0:	e8 4b af ff ff       	call   27f0 <dcgettext@plt>
78a5:	48 89 c7             	mov    rdi,rax
78a8:	31 c0                	xor    eax,eax
78aa:	e8 11 ca ff ff       	call   42c0 <dbg_printf>
78af:	48 8d 35 ba 91 00 00 	lea    rsi,[rip+0x91ba]        # 10a70 <time_masks+0xa40>
78b6:	ba 05 00 00 00       	mov    edx,0x5
78bb:	31 ff                	xor    edi,edi
78bd:	e8 2e af ff ff       	call   27f0 <dcgettext@plt>
78c2:	48 89 c7             	mov    rdi,rax
78c5:	31 c0                	xor    eax,eax
78c7:	e8 f4 c9 ff ff       	call   42c0 <dbg_printf>
78cc:	48 83 7c 24 30 00    	cmp    QWORD PTR [rsp+0x30],0x0
78d2:	ba 05 00 00 00       	mov    edx,0x5
78d7:	0f 84 d9 0d 00 00    	je     86b6 <parse_datetime2+0x1d56>
78dd:	48 8d 35 c9 8a 00 00 	lea    rsi,[rip+0x8ac9]        # 103ad <time_masks+0x37d>
78e4:	31 ff                	xor    edi,edi
78e6:	e8 05 af ff ff       	call   27f0 <dcgettext@plt>
78eb:	48 8d 3d df 8a 00 00 	lea    rdi,[rip+0x8adf]        # 103d1 <time_masks+0x3a1>
78f2:	48 89 c6             	mov    rsi,rax
78f5:	31 c0                	xor    eax,eax
78f7:	e8 c4 c9 ff ff       	call   42c0 <dbg_printf>
78fc:	e9 9a f4 ff ff       	jmp    6d9b <parse_datetime2+0x43b>
7901:	0f 1f 80 00 00 00 00 	nop    DWORD PTR [rax+0x0]
7908:	48 c7 c0 94 f8 ff ff 	mov    rax,0xfffffffffffff894
790f:	31 db                	xor    ebx,ebx
7911:	48 29 e8             	sub    rax,rbp
7914:	0f 81 ee fa ff ff    	jno    7408 <parse_datetime2+0xaa8>
791a:	bb 01 00 00 00       	mov    ebx,0x1
791f:	e9 e4 fa ff ff       	jmp    7408 <parse_datetime2+0xaa8>
7924:	0f 1f 40 00          	nop    DWORD PTR [rax+0x0]
7928:	48 85 c0             	test   rax,rax
792b:	0f 89 d7 fa ff ff    	jns    7408 <parse_datetime2+0xaa8>
7931:	eb e7                	jmp    791a <parse_datetime2+0xfba>
7933:	0f 1f 44 00 00       	nop    DWORD PTR [rax+rax*1+0x0]
7938:	48 83 fd 44          	cmp    rbp,0x44
793c:	bb 6c 07 00 00       	mov    ebx,0x76c
7941:	b8 d0 07 00 00       	mov    eax,0x7d0
7946:	48 0f 4e d8          	cmovle rbx,rax
794a:	48 01 eb             	add    rbx,rbp
794d:	45 84 e4             	test   r12b,r12b
7950:	0f 85 12 02 00 00    	jne    7b68 <parse_datetime2+0x1208>
7956:	48 89 dd             	mov    rbp,rbx
7959:	e9 8b fa ff ff       	jmp    73e9 <parse_datetime2+0xa89>
795e:	8b bc 24 c8 01 00 00 	mov    edi,DWORD PTR [rsp+0x1c8]
7965:	48 8d b4 24 e3 03 00 	lea    rsi,[rsp+0x3e3]
796c:	00
796d:	48 8d ac 24 e0 03 00 	lea    rbp,[rsp+0x3e0]
7974:	00
7975:	66 c7 84 24 e0 03 00 	mov    WORD PTR [rsp+0x3e0],0x5858
797c:	00 58 58
797f:	c6 84 24 e2 03 00 00 	mov    BYTE PTR [rsp+0x3e2],0x58
7986:	58
7987:	e8 34 c8 ff ff       	call   41c0 <time_zone_str>
798c:	48 89 ef             	mov    rdi,rbp
798f:	e8 1c 39 00 00       	call   b2b0 <tzalloc>
7994:	48 85 c0             	test   rax,rax
7997:	48 89 c2             	mov    rdx,rax
799a:	0f 84 07 0b 00 00    	je     84a7 <parse_datetime2+0x1b47>
79a0:	8b 84 24 b0 00 00 00 	mov    eax,DWORD PTR [rsp+0xb0]
79a7:	48 8b 74 24 18       	mov    rsi,QWORD PTR [rsp+0x18]
79ac:	48 89 d7             	mov    rdi,rdx
79af:	48 89 54 24 20       	mov    QWORD PTR [rsp+0x20],rdx
79b4:	c7 84 24 88 00 00 00 	mov    DWORD PTR [rsp+0x88],0xffffffff
79bb:	ff ff ff ff
79bf:	89 44 24 70          	mov    DWORD PTR [rsp+0x70],eax
79c3:	8b 84 24 b4 00 00 00 	mov    eax,DWORD PTR [rsp+0xb4]
79ca:	89 44 24 74          	mov    DWORD PTR [rsp+0x74],eax
79ce:	8b 84 24 b8 00 00 00 	mov    eax,DWORD PTR [rsp+0xb8]
79d5:	89 44 24 78          	mov    DWORD PTR [rsp+0x78],eax
79d9:	8b 84 24 bc 00 00 00 	mov    eax,DWORD PTR [rsp+0xbc]
79e0:	89 44 24 7c          	mov    DWORD PTR [rsp+0x7c],eax
79e4:	8b 84 24 c0 00 00 00 	mov    eax,DWORD PTR [rsp+0xc0]
79eb:	89 84 24 80 00 00 00 	mov    DWORD PTR [rsp+0x80],eax
79f2:	8b 84 24 c4 00 00 00 	mov    eax,DWORD PTR [rsp+0xc4]
79f9:	89 84 24 84 00 00 00 	mov    DWORD PTR [rsp+0x84],eax
7a00:	8b 84 24 d0 00 00 00 	mov    eax,DWORD PTR [rsp+0xd0]
7a07:	89 84 24 90 00 00 00 	mov    DWORD PTR [rsp+0x90],eax
7a0e:	e8 0d 3c 00 00       	call   b620 <mktime_z>
7a13:	83 bc 24 88 00 00 00 	cmp    DWORD PTR [rsp+0x88],0x0
7a1a:	00
7a1b:	49 89 c6             	mov    r14,rax
7a1e:	48 8b 54 24 20       	mov    rdx,QWORD PTR [rsp+0x20]
7a23:	0f 88 4b 0b 00 00    	js     8574 <parse_datetime2+0x1c14>
7a29:	48 8b 74 24 18       	mov    rsi,QWORD PTR [rsp+0x18]
7a2e:	48 8d bc 24 b0 00 00 	lea    rdi,[rsp+0xb0]
7a35:	00
7a36:	48 89 54 24 20       	mov    QWORD PTR [rsp+0x20],rdx
7a3b:	e8 90 ca ff ff       	call   44d0 <mktime_ok.part.6>
7a40:	48 8b 54 24 20       	mov    rdx,QWORD PTR [rsp+0x20]
7a45:	89 c5                	mov    ebp,eax
7a47:	48 89 d7             	mov    rdi,rdx
7a4a:	e8 11 3b 00 00       	call   b560 <tzfree>
7a4f:	40 84 ed             	test   bpl,bpl
7a52:	0f 84 f3 fb ff ff    	je     764b <parse_datetime2+0xceb>
7a58:	48 83 bc 24 60 02 00 	cmp    QWORD PTR [rsp+0x260],0x0
7a5f:	00 00
7a61:	0f 84 90 02 00 00    	je     7cf7 <parse_datetime2+0x1397>
7a67:	48 83 bc 24 58 02 00 	cmp    QWORD PTR [rsp+0x258],0x0
7a6e:	00 00
7a70:	0f 85 c8 03 00 00    	jne    7e3e <parse_datetime2+0x14de>
7a76:	48 8b 84 24 b8 01 00 	mov    rax,QWORD PTR [rsp+0x1b8]
7a7d:	00
7a7e:	48 85 c0             	test   rax,rax
7a81:	7e 15                	jle    7a98 <parse_datetime2+0x1138>
7a83:	45 31 e4             	xor    r12d,r12d
7a86:	8b b4 24 c0 01 00 00 	mov    esi,DWORD PTR [rsp+0x1c0]
7a8d:	39 b4 24 88 00 00 00 	cmp    DWORD PTR [rsp+0x88],esi
7a94:	41 0f 95 c4          	setne  r12b
7a98:	4c 29 e0             	sub    rax,r12
7a9b:	48 6b c8 07          	imul   rcx,rax,0x7
7a9f:	70 49                	jo     7aea <parse_datetime2+0x118a>
7aa1:	8b 84 24 c0 01 00 00 	mov    eax,DWORD PTR [rsp+0x1c0]
7aa8:	2b 84 24 88 00 00 00 	sub    eax,DWORD PTR [rsp+0x88]
7aaf:	be 07 00 00 00       	mov    esi,0x7
7ab4:	83 c0 07             	add    eax,0x7
7ab7:	99                   	cdq
7ab8:	f7 fe                	idiv   esi
7aba:	48 63 c2             	movsxd rax,edx
7abd:	48 01 c8             	add    rax,rcx
7ac0:	70 28                	jo     7aea <parse_datetime2+0x118a>
7ac2:	48 63 54 24 7c       	movsxd rdx,DWORD PTR [rsp+0x7c]
7ac7:	48 01 d0             	add    rax,rdx
7aca:	0f 90 c2             	seto   dl
7acd:	48 63 c8             	movsxd rcx,eax
7ad0:	89 44 24 7c          	mov    DWORD PTR [rsp+0x7c],eax
7ad4:	48 39 c8             	cmp    rax,rcx
7ad7:	0f b6 d2             	movzx  edx,dl
7ada:	b9 01 00 00 00       	mov    ecx,0x1
7adf:	0f 45 d1             	cmovne edx,ecx
7ae2:	85 d2                	test   edx,edx
7ae4:	0f 84 89 01 00 00    	je     7c73 <parse_datetime2+0x1313>
7aea:	80 bc 24 89 02 00 00 	cmp    BYTE PTR [rsp+0x289],0x0
7af1:	00
7af2:	0f 84 a3 f2 ff ff    	je     6d9b <parse_datetime2+0x43b>
7af8:	48 8b 7c 24 18       	mov    rdi,QWORD PTR [rsp+0x18]
7afd:	48 8d 94 24 00 03 00 	lea    rdx,[rsp+0x300]
7b04:	00
7b05:	4c 89 ee             	mov    rsi,r13
7b08:	e8 a3 cc ff ff       	call   47b0 <debug_strfdatetime.constprop.12>
7b0d:	48 8d b4 24 e0 03 00 	lea    rsi,[rsp+0x3e0]
7b14:	00
7b15:	44 8b b4 24 c0 01 00 	mov    r14d,DWORD PTR [rsp+0x1c0]
7b1c:	00
7b1d:	48 8b ac 24 b8 01 00 	mov    rbp,QWORD PTR [rsp+0x1b8]
7b24:	00
7b25:	4c 89 ef             	mov    rdi,r13
7b28:	49 89 c4             	mov    r12,rax
7b2b:	e8 40 cd ff ff       	call   4870 <str_days.constprop.13>
7b30:	48 8d 35 61 8f 00 00 	lea    rsi,[rip+0x8f61]        # 10a98 <time_masks+0xa68>
7b37:	48 89 c3             	mov    rbx,rax
7b3a:	31 ff                	xor    edi,edi
7b3c:	ba 05 00 00 00       	mov    edx,0x5
7b41:	e8 aa ac ff ff       	call   27f0 <dcgettext@plt>
7b46:	4d 89 e0             	mov    r8,r12
7b49:	48 89 c7             	mov    rdi,rax
7b4c:	44 89 f1             	mov    ecx,r14d
7b4f:	48 89 ea             	mov    rdx,rbp
7b52:	48 89 de             	mov    rsi,rbx
7b55:	31 c0                	xor    eax,eax
7b57:	e8 64 c7 ff ff       	call   42c0 <dbg_printf>
7b5c:	e9 3a f2 ff ff       	jmp    6d9b <parse_datetime2+0x43b>
7b61:	0f 1f 80 00 00 00 00 	nop    DWORD PTR [rax+0x0]
7b68:	48 8d 35 49 8d 00 00 	lea    rsi,[rip+0x8d49]        # 108b8 <time_masks+0x888>
7b6f:	ba 05 00 00 00       	mov    edx,0x5
7b74:	31 ff                	xor    edi,edi
7b76:	e8 75 ac ff ff       	call   27f0 <dcgettext@plt>
7b7b:	48 89 ee             	mov    rsi,rbp
7b7e:	48 89 c7             	mov    rdi,rax
7b81:	48 89 da             	mov    rdx,rbx
7b84:	31 c0                	xor    eax,eax
7b86:	48 89 dd             	mov    rbp,rbx
7b89:	e8 32 c7 ff ff       	call   42c0 <dbg_printf>
7b8e:	e9 56 f8 ff ff       	jmp    73e9 <parse_datetime2+0xa89>
7b93:	44 8b 8c 24 cc 01 00 	mov    r9d,DWORD PTR [rsp+0x1cc]
7b9a:	00
7b9b:	48 8b ac 24 f8 01 00 	mov    rbp,QWORD PTR [rsp+0x1f8]
7ba2:	00
7ba3:	45 85 c9             	test   r9d,r9d
7ba6:	0f 84 5c 06 00 00    	je     8208 <parse_datetime2+0x18a8>
7bac:	41 83 f9 01          	cmp    r9d,0x1
7bb0:	75 7c                	jne    7c2e <parse_datetime2+0x12ce>
7bb2:	48 8d 55 ff          	lea    rdx,[rbp-0x1]
7bb6:	44 8d 4d 0c          	lea    r9d,[rbp+0xc]
7bba:	48 83 fa 0a          	cmp    rdx,0xa
7bbe:	76 7b                	jbe    7c3b <parse_datetime2+0x12db>
7bc0:	48 83 fd 0c          	cmp    rbp,0xc
7bc4:	0f 85 98 0a 00 00    	jne    8662 <parse_datetime2+0x1d02>
7bca:	c7 44 24 78 0c 00 00 	mov    DWORD PTR [rsp+0x78],0xc
7bd1:	00
7bd2:	41 b9 0c 00 00 00    	mov    r9d,0xc
7bd8:	48 8b 94 24 00 02 00 	mov    rdx,QWORD PTR [rsp+0x200]
7bdf:	00
7be0:	48 8b 8c 24 08 02 00 	mov    rcx,QWORD PTR [rsp+0x208]
7be7:	00
7be8:	84 c0                	test   al,al
7bea:	89 54 24 74          	mov    DWORD PTR [rsp+0x74],edx
7bee:	89 4c 24 70          	mov    DWORD PTR [rsp+0x70],ecx
7bf2:	0f 85 b0 05 00 00    	jne    81a8 <parse_datetime2+0x1848>
7bf8:	48 8b 84 24 58 02 00 	mov    rax,QWORD PTR [rsp+0x258]
7bff:	00
7c00:	48 0b 84 24 60 02 00 	or     rax,QWORD PTR [rsp+0x260]
7c07:	00
7c08:	48 0b 84 24 78 02 00 	or     rax,QWORD PTR [rsp+0x278]
7c0f:	00
7c10:	0f 84 71 f9 ff ff    	je     7587 <parse_datetime2+0xc27>
7c16:	e9 61 f9 ff ff       	jmp    757c <parse_datetime2+0xc1c>
7c1b:	8b 84 24 c4 01 00 00 	mov    eax,DWORD PTR [rsp+0x1c4]
7c22:	89 84 24 90 00 00 00 	mov    DWORD PTR [rsp+0x90],eax
7c29:	e9 6f f9 ff ff       	jmp    759d <parse_datetime2+0xc3d>
7c2e:	48 83 fd 17          	cmp    rbp,0x17
7c32:	0f 87 a2 08 00 00    	ja     84da <parse_datetime2+0x1b7a>
7c38:	41 89 e9             	mov    r9d,ebp
7c3b:	44 89 4c 24 78       	mov    DWORD PTR [rsp+0x78],r9d
7c40:	eb 96                	jmp    7bd8 <parse_datetime2+0x1278>
7c42:	84 c0                	test   al,al
7c44:	48 c7 44 24 70 00 00 	mov    QWORD PTR [rsp+0x70],0x0
7c4b:	00 00
7c4d:	c7 44 24 78 00 00 00 	mov    DWORD PTR [rsp+0x78],0x0
7c54:	00
7c55:	48 c7 84 24 10 02 00 	mov    QWORD PTR [rsp+0x210],0x0
7c5c:	00 00 00 00 00
7c61:	74 95                	je     7bf8 <parse_datetime2+0x1298>
7c63:	48 8d 3d 06 8d 00 00 	lea    rdi,[rip+0x8d06]        # 10970 <time_masks+0x940>
7c6a:	31 c0                	xor    eax,eax
7c6c:	e8 4f c6 ff ff       	call   42c0 <dbg_printf>
7c71:	eb 85                	jmp    7bf8 <parse_datetime2+0x1298>
7c73:	48 8b 74 24 18       	mov    rsi,QWORD PTR [rsp+0x18]
7c78:	4c 89 ff             	mov    rdi,r15
7c7b:	c7 84 24 90 00 00 00 	mov    DWORD PTR [rsp+0x90],0xffffffff
7c82:	ff ff ff ff
7c86:	e8 95 39 00 00       	call   b620 <mktime_z>
7c8b:	48 83 f8 ff          	cmp    rax,0xffffffffffffffff
7c8f:	49 89 c6             	mov    r14,rax
7c92:	0f 84 52 fe ff ff    	je     7aea <parse_datetime2+0x118a>
7c98:	80 bc 24 89 02 00 00 	cmp    BYTE PTR [rsp+0x289],0x0
7c9f:	00
7ca0:	0f 84 a8 01 00 00    	je     7e4e <parse_datetime2+0x14ee>
7ca6:	48 8d ac 24 00 03 00 	lea    rbp,[rsp+0x300]
7cad:	00
7cae:	48 8b 7c 24 18       	mov    rdi,QWORD PTR [rsp+0x18]
7cb3:	4c 89 ee             	mov    rsi,r13
7cb6:	48 89 ea             	mov    rdx,rbp
7cb9:	e8 f2 ca ff ff       	call   47b0 <debug_strfdatetime.constprop.12>
7cbe:	48 8d b4 24 e0 03 00 	lea    rsi,[rsp+0x3e0]
7cc5:	00
7cc6:	4c 89 ef             	mov    rdi,r13
7cc9:	48 89 c5             	mov    rbp,rax
7ccc:	e8 9f cb ff ff       	call   4870 <str_days.constprop.13>
7cd1:	48 8d 35 04 87 00 00 	lea    rsi,[rip+0x8704]        # 103dc <time_masks+0x3ac>
7cd8:	49 89 c4             	mov    r12,rax
7cdb:	ba 05 00 00 00       	mov    edx,0x5
7ce0:	31 ff                	xor    edi,edi
7ce2:	e8 09 ab ff ff       	call   27f0 <dcgettext@plt>
7ce7:	48 89 ea             	mov    rdx,rbp
7cea:	48 89 c7             	mov    rdi,rax
7ced:	4c 89 e6             	mov    rsi,r12
7cf0:	31 c0                	xor    eax,eax
7cf2:	e8 c9 c5 ff ff       	call   42c0 <dbg_printf>
7cf7:	80 bc 24 89 02 00 00 	cmp    BYTE PTR [rsp+0x289],0x0
7cfe:	00
7cff:	0f 84 49 01 00 00    	je     7e4e <parse_datetime2+0x14ee>
7d05:	48 83 bc 24 58 02 00 	cmp    QWORD PTR [rsp+0x258],0x0
7d0c:	00 00
7d0e:	48 8b 84 24 60 02 00 	mov    rax,QWORD PTR [rsp+0x260]
7d15:	00
7d16:	0f 85 43 04 00 00    	jne    815f <parse_datetime2+0x17ff>
7d1c:	48 85 c0             	test   rax,rax
7d1f:	0f 84 5c 08 00 00    	je     8581 <parse_datetime2+0x1c21>
7d25:	48 8d ac 24 00 03 00 	lea    rbp,[rsp+0x300]
7d2c:	00
7d2d:	48 8b 7c 24 18       	mov    rdi,QWORD PTR [rsp+0x18]
7d32:	48 89 ea             	mov    rdx,rbp
7d35:	4c 89 ee             	mov    rsi,r13
7d38:	e8 73 ca ff ff       	call   47b0 <debug_strfdatetime.constprop.12>
7d3d:	48 8d 35 cb 86 00 00 	lea    rsi,[rip+0x86cb]        # 1040f <time_masks+0x3df>
7d44:	48 89 c3             	mov    rbx,rax
7d47:	ba 05 00 00 00       	mov    edx,0x5
7d4c:	31 ff                	xor    edi,edi
7d4e:	e8 9d aa ff ff       	call   27f0 <dcgettext@plt>
7d53:	48 89 de             	mov    rsi,rbx
7d56:	48 89 c7             	mov    rdi,rax
7d59:	31 c0                	xor    eax,eax
7d5b:	e8 60 c5 ff ff       	call   42c0 <dbg_printf>
7d60:	48 8b 84 24 18 02 00 	mov    rax,QWORD PTR [rsp+0x218]
7d67:	00
7d68:	48 8b 94 24 20 02 00 	mov    rdx,QWORD PTR [rsp+0x220]
7d6f:	00
7d70:	0f b6 9c 24 89 02 00 	movzx  ebx,BYTE PTR [rsp+0x289]
7d77:	00
7d78:	48 09 c2             	or     rdx,rax
7d7b:	48 89 d6             	mov    rsi,rdx
7d7e:	48 0b b4 24 28 02 00 	or     rsi,QWORD PTR [rsp+0x228]
7d85:	00
7d86:	0f 84 df 00 00 00    	je     7e6b <parse_datetime2+0x150b>
7d8c:	84 db                	test   bl,bl
7d8e:	0f 84 41 01 00 00    	je     7ed5 <parse_datetime2+0x1575>
7d94:	48 85 d2             	test   rdx,rdx
7d97:	0f 84 ec 08 00 00    	je     8689 <parse_datetime2+0x1d29>
7d9d:	83 7c 24 7c 0f       	cmp    DWORD PTR [rsp+0x7c],0xf
7da2:	74 1d                	je     7dc1 <parse_datetime2+0x1461>
7da4:	48 8d 35 ad 8d 00 00 	lea    rsi,[rip+0x8dad]        # 10b58 <time_masks+0xb28>
7dab:	31 ff                	xor    edi,edi
7dad:	ba 05 00 00 00       	mov    edx,0x5
7db2:	e8 39 aa ff ff       	call   27f0 <dcgettext@plt>
7db7:	48 89 c7             	mov    rdi,rax
7dba:	31 c0                	xor    eax,eax
7dbc:	e8 ff c4 ff ff       	call   42c0 <dbg_printf>
7dc1:	48 83 bc 24 28 02 00 	cmp    QWORD PTR [rsp+0x228],0x0
7dc8:	00 00
7dca:	0f 85 b9 08 00 00    	jne    8689 <parse_datetime2+0x1d29>
7dd0:	48 63 94 24 84 00 00 	movsxd rdx,DWORD PTR [rsp+0x84]
7dd7:	00
7dd8:	31 c0                	xor    eax,eax
7dda:	48 89 d1             	mov    rcx,rdx
7ddd:	48 03 8c 24 18 02 00 	add    rcx,QWORD PTR [rsp+0x218]
7de4:	00
7de5:	48 63 d1             	movsxd rdx,ecx
7de8:	0f 90 c0             	seto   al
7deb:	89 4c 24 20          	mov    DWORD PTR [rsp+0x20],ecx
7def:	48 39 d1             	cmp    rcx,rdx
7df2:	ba 01 00 00 00       	mov    edx,0x1
7df7:	0f 45 c2             	cmovne eax,edx
7dfa:	85 c0                	test   eax,eax
7dfc:	0f 84 fe 00 00 00    	je     7f00 <parse_datetime2+0x15a0>
7e02:	80 bc 24 89 02 00 00 	cmp    BYTE PTR [rsp+0x289],0x0
7e09:	00
7e0a:	0f 84 8b ef ff ff    	je     6d9b <parse_datetime2+0x43b>
7e10:	48 8d 35 12 86 00 00 	lea    rsi,[rip+0x8612]        # 10429 <time_masks+0x3f9>
7e17:	31 ff                	xor    edi,edi
7e19:	ba 05 00 00 00       	mov    edx,0x5
7e1e:	e8 cd a9 ff ff       	call   27f0 <dcgettext@plt>
7e23:	48 8d 35 0d 86 00 00 	lea    rsi,[rip+0x860d]        # 10437 <time_masks+0x407>
7e2a:	48 89 c7             	mov    rdi,rax
7e2d:	ba 77 08 00 00       	mov    edx,0x877
7e32:	31 c0                	xor    eax,eax
7e34:	e8 87 c4 ff ff       	call   42c0 <dbg_printf>
7e39:	e9 5d ef ff ff       	jmp    6d9b <parse_datetime2+0x43b>
7e3e:	0f b6 9c 24 89 02 00 	movzx  ebx,BYTE PTR [rsp+0x289]
7e45:	00
7e46:	84 db                	test   bl,bl
7e48:	0f 85 1a 03 00 00    	jne    8168 <parse_datetime2+0x1808>
7e4e:	48 8b 84 24 18 02 00 	mov    rax,QWORD PTR [rsp+0x218]
7e55:	00
7e56:	48 8b 94 24 20 02 00 	mov    rdx,QWORD PTR [rsp+0x220]
7e5d:	00
7e5e:	48 09 c2             	or     rdx,rax
7e61:	48 0b 94 24 28 02 00 	or     rdx,QWORD PTR [rsp+0x228]
7e68:	00
7e69:	75 6a                	jne    7ed5 <parse_datetime2+0x1575>
7e6b:	48 83 bc 24 80 02 00 	cmp    QWORD PTR [rsp+0x280],0x0
7e72:	00 00
7e74:	0f 84 97 04 00 00    	je     8311 <parse_datetime2+0x19b1>
7e7a:	48 63 84 24 c8 01 00 	movsxd rax,DWORD PTR [rsp+0x1c8]
7e81:	00
7e82:	31 d2                	xor    edx,edx
7e84:	48 89 c5             	mov    rbp,rax
7e87:	48 2b 84 24 98 00 00 	sub    rax,QWORD PTR [rsp+0x98]
7e8e:	00
7e8f:	0f 90 c2             	seto   dl
7e92:	49 29 c6             	sub    r14,rax
7e95:	0f 90 c0             	seto   al
7e98:	0f b6 c0             	movzx  eax,al
7e9b:	48 09 c2             	or     rdx,rax
7e9e:	0f 84 6d 04 00 00    	je     8311 <parse_datetime2+0x19b1>
7ea4:	84 db                	test   bl,bl
7ea6:	0f 84 ef ee ff ff    	je     6d9b <parse_datetime2+0x43b>
7eac:	48 8d 35 a5 8e 00 00 	lea    rsi,[rip+0x8ea5]        # 10d58 <time_masks+0xd28>
7eb3:	31 ff                	xor    edi,edi
7eb5:	ba 05 00 00 00       	mov    edx,0x5
7eba:	e8 31 a9 ff ff       	call   27f0 <dcgettext@plt>
7ebf:	89 ee                	mov    esi,ebp
7ec1:	48 89 c7             	mov    rdi,rax
7ec4:	31 c0                	xor    eax,eax
7ec6:	e8 f5 c3 ff ff       	call   42c0 <dbg_printf>
7ecb:	e9 cb ee ff ff       	jmp    6d9b <parse_datetime2+0x43b>
7ed0:	e8 5b a9 ff ff       	call   2830 <__stack_chk_fail@plt>
7ed5:	48 63 94 24 84 00 00 	movsxd rdx,DWORD PTR [rsp+0x84]
7edc:	00
7edd:	48 01 d0             	add    rax,rdx
7ee0:	0f 90 c2             	seto   dl
7ee3:	48 63 c8             	movsxd rcx,eax
7ee6:	89 44 24 20          	mov    DWORD PTR [rsp+0x20],eax
7eea:	48 39 c8             	cmp    rax,rcx
7eed:	0f b6 d2             	movzx  edx,dl
7ef0:	b9 01 00 00 00       	mov    ecx,0x1
7ef5:	0f 45 d1             	cmovne edx,ecx
7ef8:	85 d2                	test   edx,edx
7efa:	0f 85 9b ee ff ff    	jne    6d9b <parse_datetime2+0x43b>
7f00:	4c 63 a4 24 80 00 00 	movsxd r12,DWORD PTR [rsp+0x80]
7f07:	00
7f08:	31 c0                	xor    eax,eax
7f0a:	4c 03 a4 24 20 02 00 	add    r12,QWORD PTR [rsp+0x220]
7f11:	00
7f12:	49 63 d4             	movsxd rdx,r12d
7f15:	0f 90 c0             	seto   al
7f18:	49 39 d4             	cmp    r12,rdx
7f1b:	0f 85 e1 fe ff ff    	jne    7e02 <parse_datetime2+0x14a2>
7f21:	85 c0                	test   eax,eax
7f23:	0f 85 d9 fe ff ff    	jne    7e02 <parse_datetime2+0x14a2>
7f29:	48 63 6c 24 7c       	movsxd rbp,DWORD PTR [rsp+0x7c]
7f2e:	31 c0                	xor    eax,eax
7f30:	48 03 ac 24 28 02 00 	add    rbp,QWORD PTR [rsp+0x228]
7f37:	00
7f38:	48 63 d5             	movsxd rdx,ebp
7f3b:	0f 90 c0             	seto   al
7f3e:	48 39 d5             	cmp    rbp,rdx
7f41:	0f 85 bb fe ff ff    	jne    7e02 <parse_datetime2+0x14a2>
7f47:	85 c0                	test   eax,eax
7f49:	0f 85 b3 fe ff ff    	jne    7e02 <parse_datetime2+0x14a2>
7f4f:	8b 44 24 20          	mov    eax,DWORD PTR [rsp+0x20]
7f53:	48 8b 74 24 18       	mov    rsi,QWORD PTR [rsp+0x18]
7f58:	4c 89 ff             	mov    rdi,r15
7f5b:	44 89 a4 24 80 00 00 	mov    DWORD PTR [rsp+0x80],r12d
7f62:	00
7f63:	89 6c 24 7c          	mov    DWORD PTR [rsp+0x7c],ebp
7f67:	89 84 24 84 00 00 00 	mov    DWORD PTR [rsp+0x84],eax
7f6e:	8b 84 24 b8 00 00 00 	mov    eax,DWORD PTR [rsp+0xb8]
7f75:	89 44 24 78          	mov    DWORD PTR [rsp+0x78],eax
7f79:	8b 84 24 b4 00 00 00 	mov    eax,DWORD PTR [rsp+0xb4]
7f80:	89 44 24 74          	mov    DWORD PTR [rsp+0x74],eax
7f84:	8b 84 24 b0 00 00 00 	mov    eax,DWORD PTR [rsp+0xb0]
7f8b:	89 44 24 70          	mov    DWORD PTR [rsp+0x70],eax
7f8f:	8b 84 24 d0 00 00 00 	mov    eax,DWORD PTR [rsp+0xd0]
7f96:	89 84 24 90 00 00 00 	mov    DWORD PTR [rsp+0x90],eax
7f9d:	e8 7e 36 00 00       	call   b620 <mktime_z>
7fa2:	48 83 f8 ff          	cmp    rax,0xffffffffffffffff
7fa6:	49 89 c6             	mov    r14,rax
7fa9:	0f 84 68 06 00 00    	je     8617 <parse_datetime2+0x1cb7>
7faf:	0f b6 9c 24 89 02 00 	movzx  ebx,BYTE PTR [rsp+0x289]
7fb6:	00
7fb7:	84 db                	test   bl,bl
7fb9:	0f 84 ac fe ff ff    	je     7e6b <parse_datetime2+0x150b>
7fbf:	48 8b 8c 24 28 02 00 	mov    rcx,QWORD PTR [rsp+0x228]
7fc6:	00
7fc7:	48 8b 84 24 18 02 00 	mov    rax,QWORD PTR [rsp+0x218]
7fce:	00
7fcf:	48 8d 35 72 8c 00 00 	lea    rsi,[rip+0x8c72]        # 10c48 <time_masks+0xc18>
7fd6:	48 8b 9c 24 20 02 00 	mov    rbx,QWORD PTR [rsp+0x220]
7fdd:	00
7fde:	31 ff                	xor    edi,edi
7fe0:	ba 05 00 00 00       	mov    edx,0x5
7fe5:	48 89 4c 24 38       	mov    QWORD PTR [rsp+0x38],rcx
7fea:	48 89 44 24 30       	mov    QWORD PTR [rsp+0x30],rax
7fef:	e8 fc a7 ff ff       	call   27f0 <dcgettext@plt>
7ff4:	48 8b 4c 24 38       	mov    rcx,QWORD PTR [rsp+0x38]
7ff9:	48 8b 74 24 30       	mov    rsi,QWORD PTR [rsp+0x30]
7ffe:	48 89 da             	mov    rdx,rbx
8001:	48 89 c7             	mov    rdi,rax
8004:	31 c0                	xor    eax,eax
8006:	e8 b5 c2 ff ff       	call   42c0 <dbg_printf>
800b:	48 8b 7c 24 18       	mov    rdi,QWORD PTR [rsp+0x18]
8010:	48 8d 94 24 00 03 00 	lea    rdx,[rsp+0x300]
8017:	00
8018:	4c 89 ee             	mov    rsi,r13
801b:	e8 90 c7 ff ff       	call   47b0 <debug_strfdatetime.constprop.12>
8020:	48 8d 35 21 84 00 00 	lea    rsi,[rip+0x8421]        # 10448 <time_masks+0x418>
8027:	31 ff                	xor    edi,edi
8029:	48 89 c3             	mov    rbx,rax
802c:	ba 05 00 00 00       	mov    edx,0x5
8031:	e8 ba a7 ff ff       	call   27f0 <dcgettext@plt>
8036:	48 89 de             	mov    rsi,rbx
8039:	48 89 c7             	mov    rdi,rax
803c:	31 c0                	xor    eax,eax
803e:	e8 7d c2 ff ff       	call   42c0 <dbg_printf>
8043:	8b 84 24 d0 00 00 00 	mov    eax,DWORD PTR [rsp+0xd0]
804a:	83 f8 ff             	cmp    eax,0xffffffff
804d:	74 26                	je     8075 <parse_datetime2+0x1715>
804f:	3b 84 24 90 00 00 00 	cmp    eax,DWORD PTR [rsp+0x90]
8056:	74 1d                	je     8075 <parse_datetime2+0x1715>
8058:	48 8d 35 29 8c 00 00 	lea    rsi,[rip+0x8c29]        # 10c88 <time_masks+0xc58>
805f:	31 ff                	xor    edi,edi
8061:	ba 05 00 00 00       	mov    edx,0x5
8066:	e8 85 a7 ff ff       	call   27f0 <dcgettext@plt>
806b:	48 89 c7             	mov    rdi,rax
806e:	31 c0                	xor    eax,eax
8070:	e8 4b c2 ff ff       	call   42c0 <dbg_printf>
8075:	48 83 bc 24 28 02 00 	cmp    QWORD PTR [rsp+0x228],0x0
807c:	00 00
807e:	0f 85 ce 00 00 00    	jne    8152 <parse_datetime2+0x17f2>
8084:	3b 6c 24 7c          	cmp    ebp,DWORD PTR [rsp+0x7c]
8088:	75 1d                	jne    80a7 <parse_datetime2+0x1747>
808a:	48 83 bc 24 20 02 00 	cmp    QWORD PTR [rsp+0x220],0x0
8091:	00 00
8093:	0f 85 b9 00 00 00    	jne    8152 <parse_datetime2+0x17f2>
8099:	44 3b a4 24 80 00 00 	cmp    r12d,DWORD PTR [rsp+0x80]
80a0:	00
80a1:	0f 84 ab 00 00 00    	je     8152 <parse_datetime2+0x17f2>
80a7:	48 8d 35 1a 8c 00 00 	lea    rsi,[rip+0x8c1a]        # 10cc8 <time_masks+0xc98>
80ae:	ba 05 00 00 00       	mov    edx,0x5
80b3:	31 ff                	xor    edi,edi
80b5:	e8 36 a7 ff ff       	call   27f0 <dcgettext@plt>
80ba:	48 89 c7             	mov    rdi,rax
80bd:	31 c0                	xor    eax,eax
80bf:	e8 fc c1 ff ff       	call   42c0 <dbg_printf>
80c4:	4c 8d 84 24 d3 02 00 	lea    r8,[rsp+0x2d3]
80cb:	00
80cc:	8b 7c 24 20          	mov    edi,DWORD PTR [rsp+0x20]
80d0:	4c 89 c6             	mov    rsi,r8
80d3:	4c 89 44 24 30       	mov    QWORD PTR [rsp+0x30],r8
80d8:	e8 83 aa ff ff       	call   2b60 <tm_year_str>
80dd:	48 8d 35 24 8c 00 00 	lea    rsi,[rip+0x8c24]        # 10d08 <time_masks+0xcd8>
80e4:	ba 05 00 00 00       	mov    edx,0x5
80e9:	31 ff                	xor    edi,edi
80eb:	48 89 c3             	mov    rbx,rax
80ee:	e8 fd a6 ff ff       	call   27f0 <dcgettext@plt>
80f3:	41 8d 54 24 01       	lea    edx,[r12+0x1]
80f8:	89 e9                	mov    ecx,ebp
80fa:	48 89 de             	mov    rsi,rbx
80fd:	48 89 c7             	mov    rdi,rax
8100:	31 c0                	xor    eax,eax
8102:	e8 b9 c1 ff ff       	call   42c0 <dbg_printf>
8107:	4c 8b 44 24 30       	mov    r8,QWORD PTR [rsp+0x30]
810c:	8b 84 24 80 00 00 00 	mov    eax,DWORD PTR [rsp+0x80]
8113:	8b bc 24 84 00 00 00 	mov    edi,DWORD PTR [rsp+0x84]
811a:	44 8b 64 24 7c       	mov    r12d,DWORD PTR [rsp+0x7c]
811f:	4c 89 c6             	mov    rsi,r8
8122:	8d 58 01             	lea    ebx,[rax+0x1]
8125:	e8 36 aa ff ff       	call   2b60 <tm_year_str>
812a:	48 8d 35 ff 8b 00 00 	lea    rsi,[rip+0x8bff]        # 10d30 <time_masks+0xd00>
8131:	48 89 c5             	mov    rbp,rax
8134:	ba 05 00 00 00       	mov    edx,0x5
8139:	31 ff                	xor    edi,edi
813b:	e8 b0 a6 ff ff       	call   27f0 <dcgettext@plt>
8140:	44 89 e1             	mov    ecx,r12d
8143:	48 89 c7             	mov    rdi,rax
8146:	89 da                	mov    edx,ebx
8148:	48 89 ee             	mov    rsi,rbp
814b:	31 c0                	xor    eax,eax
814d:	e8 6e c1 ff ff       	call   42c0 <dbg_printf>
8152:	0f b6 9c 24 89 02 00 	movzx  ebx,BYTE PTR [rsp+0x289]
8159:	00
815a:	e9 0c fd ff ff       	jmp    7e6b <parse_datetime2+0x150b>
815f:	48 85 c0             	test   rax,rax
8162:	0f 84 bd fb ff ff    	je     7d25 <parse_datetime2+0x13c5>
8168:	48 8d ac 24 00 03 00 	lea    rbp,[rsp+0x300]
816f:	00
8170:	48 8d b4 24 e0 03 00 	lea    rsi,[rsp+0x3e0]
8177:	00
8178:	4c 89 ef             	mov    rdi,r13
817b:	e8 f0 c6 ff ff       	call   4870 <str_days.constprop.13>
8180:	48 8d 35 91 89 00 00 	lea    rsi,[rip+0x8991]        # 10b18 <time_masks+0xae8>
8187:	48 89 c3             	mov    rbx,rax
818a:	31 ff                	xor    edi,edi
818c:	ba 05 00 00 00       	mov    edx,0x5
8191:	e8 5a a6 ff ff       	call   27f0 <dcgettext@plt>
8196:	48 89 de             	mov    rsi,rbx
8199:	48 89 c7             	mov    rdi,rax
819c:	31 c0                	xor    eax,eax
819e:	e8 1d c1 ff ff       	call   42c0 <dbg_printf>
81a3:	e9 85 fb ff ff       	jmp    7d2d <parse_datetime2+0x13cd>
81a8:	48 8d ac 24 00 03 00 	lea    rbp,[rsp+0x300]
81af:	00
81b0:	4c 8d 05 75 81 00 00 	lea    r8,[rip+0x8175]        # 1032c <time_masks+0x2fc>
81b7:	51                   	push   rcx
81b8:	52                   	push   rdx
81b9:	be 64 00 00 00       	mov    esi,0x64
81be:	ba 01 00 00 00       	mov    edx,0x1
81c3:	48 89 ef             	mov    rdi,rbp
81c6:	31 c0                	xor    eax,eax
81c8:	b9 64 00 00 00       	mov    ecx,0x64
81cd:	e8 2e a5 ff ff       	call   2700 <__snprintf_chk@plt>
81d2:	5e                   	pop    rsi
81d3:	5f                   	pop    rdi
81d4:	48 83 bc 24 78 02 00 	cmp    QWORD PTR [rsp+0x278],0x0
81db:	00 00
81dd:	ba 05 00 00 00       	mov    edx,0x5
81e2:	0f 84 8e 04 00 00    	je     8676 <parse_datetime2+0x1d16>
81e8:	48 8d 35 21 87 00 00 	lea    rsi,[rip+0x8721]        # 10910 <time_masks+0x8e0>
81ef:	31 ff                	xor    edi,edi
81f1:	e8 fa a5 ff ff       	call   27f0 <dcgettext@plt>
81f6:	48 89 c7             	mov    rdi,rax
81f9:	48 89 ee             	mov    rsi,rbp
81fc:	31 c0                	xor    eax,eax
81fe:	e8 bd c0 ff ff       	call   42c0 <dbg_printf>
8203:	e9 f0 f9 ff ff       	jmp    7bf8 <parse_datetime2+0x1298>
8208:	48 8d 55 ff          	lea    rdx,[rbp-0x1]
820c:	48 83 fa 0a          	cmp    rdx,0xa
8210:	0f 86 22 fa ff ff    	jbe    7c38 <parse_datetime2+0x12d8>
8216:	48 83 fd 0c          	cmp    rbp,0xc
821a:	0f 85 f9 02 00 00    	jne    8519 <parse_datetime2+0x1bb9>
8220:	c7 44 24 78 00 00 00 	mov    DWORD PTR [rsp+0x78],0x0
8227:	00
8228:	e9 ab f9 ff ff       	jmp    7bd8 <parse_datetime2+0x1278>
822d:	84 c0                	test   al,al
822f:	0f 84 66 eb ff ff    	je     6d9b <parse_datetime2+0x43b>
8235:	48 8d 35 6c 87 00 00 	lea    rsi,[rip+0x876c]        # 109a8 <time_masks+0x978>
823c:	ba 05 00 00 00       	mov    edx,0x5
8241:	31 ff                	xor    edi,edi
8243:	89 4c 24 5c          	mov    DWORD PTR [rsp+0x5c],ecx
8247:	44 89 44 24 58       	mov    DWORD PTR [rsp+0x58],r8d
824c:	48 8d 9c 24 e0 03 00 	lea    rbx,[rsp+0x3e0]
8253:	00
8254:	44 89 4c 24 54       	mov    DWORD PTR [rsp+0x54],r9d
8259:	44 89 54 24 50       	mov    DWORD PTR [rsp+0x50],r10d
825e:	e8 8d a5 ff ff       	call   27f0 <dcgettext@plt>
8263:	48 89 c7             	mov    rdi,rax
8266:	31 c0                	xor    eax,eax
8268:	e8 53 c0 ff ff       	call   42c0 <dbg_printf>
826d:	48 8d bc 24 b0 00 00 	lea    rdi,[rsp+0xb0]
8274:	00
8275:	4c 89 ee             	mov    rsi,r13
8278:	48 89 da             	mov    rdx,rbx
827b:	e8 30 c5 ff ff       	call   47b0 <debug_strfdatetime.constprop.12>
8280:	48 8d 35 d2 80 00 00 	lea    rsi,[rip+0x80d2]        # 10359 <time_masks+0x329>
8287:	ba 05 00 00 00       	mov    edx,0x5
828c:	31 ff                	xor    edi,edi
828e:	48 89 44 24 48       	mov    QWORD PTR [rsp+0x48],rax
8293:	e8 58 a5 ff ff       	call   27f0 <dcgettext@plt>
8298:	48 8b 74 24 48       	mov    rsi,QWORD PTR [rsp+0x48]
829d:	48 89 c7             	mov    rdi,rax
82a0:	31 c0                	xor    eax,eax
82a2:	e8 19 c0 ff ff       	call   42c0 <dbg_printf>
82a7:	48 8b 7c 24 18       	mov    rdi,QWORD PTR [rsp+0x18]
82ac:	4c 89 ee             	mov    rsi,r13
82af:	48 89 da             	mov    rdx,rbx
82b2:	e8 f9 c4 ff ff       	call   47b0 <debug_strfdatetime.constprop.12>
82b7:	48 8d 35 b9 80 00 00 	lea    rsi,[rip+0x80b9]        # 10377 <time_masks+0x347>
82be:	ba 05 00 00 00       	mov    edx,0x5
82c3:	31 ff                	xor    edi,edi
82c5:	49 89 c5             	mov    r13,rax
82c8:	e8 23 a5 ff ff       	call   27f0 <dcgettext@plt>
82cd:	4c 89 ee             	mov    rsi,r13
82d0:	48 89 c7             	mov    rdi,rax
82d3:	31 c0                	xor    eax,eax
82d5:	e8 e6 bf ff ff       	call   42c0 <dbg_printf>
82da:	44 8b 54 24 50       	mov    r10d,DWORD PTR [rsp+0x50]
82df:	44 8b 4c 24 54       	mov    r9d,DWORD PTR [rsp+0x54]
82e4:	48 8d 15 8b 80 00 00 	lea    rdx,[rip+0x808b]        # 10376 <time_masks+0x346>
82eb:	44 8b 44 24 58       	mov    r8d,DWORD PTR [rsp+0x58]
82f0:	8b 4c 24 5c          	mov    ecx,DWORD PTR [rsp+0x5c]
82f4:	48 8d 05 46 7f 00 00 	lea    rax,[rip+0x7f46]        # 10241 <time_masks+0x211>
82fb:	48 89 d6             	mov    rsi,rdx
82fe:	45 39 ca             	cmp    r10d,r9d
8301:	48 0f 45 f0          	cmovne rsi,rax
8305:	41 39 c8             	cmp    r8d,ecx
8308:	48 0f 44 c2          	cmove  rax,rdx
830c:	e9 86 f4 ff ff       	jmp    7797 <parse_datetime2+0xe37>
8311:	84 db                	test   bl,bl
8313:	0f 85 1b 02 00 00    	jne    8534 <parse_datetime2+0x1bd4>
8319:	48 8b ac 24 30 02 00 	mov    rbp,QWORD PTR [rsp+0x230]
8320:	00
8321:	44 0f b6 a4 24 89 02 	movzx  r12d,BYTE PTR [rsp+0x289]
8328:	00 00
832a:	4c 69 cd 10 0e 00 00 	imul   r9,rbp,0xe10
8331:	0f 80 56 01 00 00    	jo     848d <parse_datetime2+0x1b2d>
8337:	4d 01 f1             	add    r9,r14
833a:	0f 80 4d 01 00 00    	jo     848d <parse_datetime2+0x1b2d>
8340:	4c 8b ac 24 38 02 00 	mov    r13,QWORD PTR [rsp+0x238]
8347:	00
8348:	49 6b c5 3c          	imul   rax,r13,0x3c
834c:	0f 80 3b 01 00 00    	jo     848d <parse_datetime2+0x1b2d>
8352:	49 01 c1             	add    r9,rax
8355:	0f 80 32 01 00 00    	jo     848d <parse_datetime2+0x1b2d>
835b:	4c 8b b4 24 40 02 00 	mov    r14,QWORD PTR [rsp+0x240]
8362:	00
8363:	4d 01 f1             	add    r9,r14
8366:	0f 80 21 01 00 00    	jo     848d <parse_datetime2+0x1b2d>
836c:	48 63 b4 24 48 02 00 	movsxd rsi,DWORD PTR [rsp+0x248]
8373:	00
8374:	48 8b 8c 24 10 02 00 	mov    rcx,QWORD PTR [rsp+0x210]
837b:	00
837c:	41 b8 00 ca 9a 3b    	mov    r8d,0x3b9aca00
8382:	4c 89 cb             	mov    rbx,r9
8385:	48 01 f1             	add    rcx,rsi
8388:	48 89 c8             	mov    rax,rcx
838b:	48 99                	cqo
838d:	49 f7 f8             	idiv   r8
8390:	48 8d 82 00 ca 9a 3b 	lea    rax,[rdx+0x3b9aca00]
8397:	48 99                	cqo
8399:	49 f7 f8             	idiv   r8
839c:	48 89 c8             	mov    rax,rcx
839f:	48 29 d0             	sub    rax,rdx
83a2:	48 89 d7             	mov    rdi,rdx
83a5:	48 99                	cqo
83a7:	49 f7 f8             	idiv   r8
83aa:	48 98                	cdqe
83ac:	48 01 c3             	add    rbx,rax
83af:	0f 80 d8 00 00 00    	jo     848d <parse_datetime2+0x1b2d>
83b5:	48 8b 44 24 28       	mov    rax,QWORD PTR [rsp+0x28]
83ba:	45 84 e4             	test   r12b,r12b
83bd:	48 89 18             	mov    QWORD PTR [rax],rbx
83c0:	48 89 78 08          	mov    QWORD PTR [rax+0x8],rdi
83c4:	0f 84 08 ed ff ff    	je     70d2 <parse_datetime2+0x772>
83ca:	48 89 e8             	mov    rax,rbp
83cd:	4c 09 e8             	or     rax,r13
83d0:	4c 09 f0             	or     rax,r14
83d3:	48 09 f0             	or     rax,rsi
83d6:	0f 84 f6 ec ff ff    	je     70d2 <parse_datetime2+0x772>
83dc:	89 74 24 18          	mov    DWORD PTR [rsp+0x18],esi
83e0:	48 8d 35 d1 89 00 00 	lea    rsi,[rip+0x89d1]        # 10db8 <time_masks+0xd88>
83e7:	31 ff                	xor    edi,edi
83e9:	ba 05 00 00 00       	mov    edx,0x5
83ee:	e8 fd a3 ff ff       	call   27f0 <dcgettext@plt>
83f3:	44 8b 54 24 18       	mov    r10d,DWORD PTR [rsp+0x18]
83f8:	4c 89 f1             	mov    rcx,r14
83fb:	48 89 c7             	mov    rdi,rax
83fe:	4c 89 ea             	mov    rdx,r13
8401:	31 c0                	xor    eax,eax
8403:	48 89 ee             	mov    rsi,rbp
8406:	45 89 d0             	mov    r8d,r10d
8409:	e8 b2 be ff ff       	call   42c0 <dbg_printf>
840e:	48 8d 35 f3 89 00 00 	lea    rsi,[rip+0x89f3]        # 10e08 <time_masks+0xdd8>
8415:	31 ff                	xor    edi,edi
8417:	ba 05 00 00 00       	mov    edx,0x5
841c:	e8 cf a3 ff ff       	call   27f0 <dcgettext@plt>
8421:	48 89 de             	mov    rsi,rbx
8424:	48 89 c7             	mov    rdi,rax
8427:	31 c0                	xor    eax,eax
8429:	e8 92 be ff ff       	call   42c0 <dbg_printf>
842e:	83 bc 24 90 00 00 00 	cmp    DWORD PTR [rsp+0x90],0xffffffff
8435:	ff
8436:	74 47                	je     847f <parse_datetime2+0x1b1f>
8438:	48 8b 74 24 28       	mov    rsi,QWORD PTR [rsp+0x28]
843d:	48 8d 94 24 70 01 00 	lea    rdx,[rsp+0x170]
8444:	00
8445:	4c 89 ff             	mov    rdi,r15
8448:	e8 23 31 00 00       	call   b570 <localtime_rz>
844d:	48 85 c0             	test   rax,rax
8450:	74 2d                	je     847f <parse_datetime2+0x1b1f>
8452:	8b 84 24 90 01 00 00 	mov    eax,DWORD PTR [rsp+0x190]
8459:	39 84 24 90 00 00 00 	cmp    DWORD PTR [rsp+0x90],eax
8460:	74 1d                	je     847f <parse_datetime2+0x1b1f>
8462:	48 8d 35 c7 89 00 00 	lea    rsi,[rip+0x89c7]        # 10e30 <time_masks+0xe00>
8469:	31 ff                	xor    edi,edi
846b:	ba 05 00 00 00       	mov    edx,0x5
8470:	e8 7b a3 ff ff       	call   27f0 <dcgettext@plt>
8475:	48 89 c7             	mov    rdi,rax
8478:	31 c0                	xor    eax,eax
847a:	e8 41 be ff ff       	call   42c0 <dbg_printf>
847f:	44 0f b6 a4 24 89 02 	movzx  r12d,BYTE PTR [rsp+0x289]
8486:	00 00
8488:	e9 45 ec ff ff       	jmp    70d2 <parse_datetime2+0x772>
848d:	45 84 e4             	test   r12b,r12b
8490:	0f 84 05 e9 ff ff    	je     6d9b <parse_datetime2+0x43b>
8496:	ba 05 00 00 00       	mov    edx,0x5
849b:	48 8d 35 e6 88 00 00 	lea    rsi,[rip+0x88e6]        # 10d88 <time_masks+0xd58>
84a2:	e9 c2 ef ff ff       	jmp    7469 <parse_datetime2+0xb09>
84a7:	80 bc 24 89 02 00 00 	cmp    BYTE PTR [rsp+0x289],0x0
84ae:	00
84af:	0f 84 e6 e8 ff ff    	je     6d9b <parse_datetime2+0x43b>
84b5:	48 8d 35 7f 7e 00 00 	lea    rsi,[rip+0x7e7f]        # 1033b <time_masks+0x30b>
84bc:	31 ff                	xor    edi,edi
84be:	ba 05 00 00 00       	mov    edx,0x5
84c3:	e8 28 a3 ff ff       	call   27f0 <dcgettext@plt>
84c8:	48 89 ee             	mov    rsi,rbp
84cb:	48 89 c7             	mov    rdi,rax
84ce:	31 c0                	xor    eax,eax
84d0:	e8 eb bd ff ff       	call   42c0 <dbg_printf>
84d5:	e9 c1 e8 ff ff       	jmp    6d9b <parse_datetime2+0x43b>
84da:	48 8d 1d 95 7e 00 00 	lea    rbx,[rip+0x7e95]        # 10376 <time_masks+0x346>
84e1:	c7 44 24 78 ff ff ff 	mov    DWORD PTR [rsp+0x78],0xffffffff
84e8:	ff
84e9:	84 c0                	test   al,al
84eb:	0f 84 aa e8 ff ff    	je     6d9b <parse_datetime2+0x43b>
84f1:	48 8d 35 19 7e 00 00 	lea    rsi,[rip+0x7e19]        # 10311 <time_masks+0x2e1>
84f8:	31 ff                	xor    edi,edi
84fa:	ba 05 00 00 00       	mov    edx,0x5
84ff:	e8 ec a2 ff ff       	call   27f0 <dcgettext@plt>
8504:	48 89 da             	mov    rdx,rbx
8507:	48 89 c7             	mov    rdi,rax
850a:	48 89 ee             	mov    rsi,rbp
850d:	31 c0                	xor    eax,eax
850f:	e8 ac bd ff ff       	call   42c0 <dbg_printf>
8514:	e9 82 e8 ff ff       	jmp    6d9b <parse_datetime2+0x43b>
8519:	c7 44 24 78 ff ff ff 	mov    DWORD PTR [rsp+0x78],0xffffffff
8520:	ff
8521:	48 8d 1d 14 7d 00 00 	lea    rbx,[rip+0x7d14]        # 1023c <time_masks+0x20c>
8528:	eb bf                	jmp    84e9 <parse_datetime2+0x1b89>
852a:	ba 01 00 00 00       	mov    edx,0x1
852f:	e9 a3 ef ff ff       	jmp    74d7 <parse_datetime2+0xb77>
8534:	48 8b 7c 24 18       	mov    rdi,QWORD PTR [rsp+0x18]
8539:	48 8d 94 24 00 03 00 	lea    rdx,[rsp+0x300]
8540:	00
8541:	4c 89 ee             	mov    rsi,r13
8544:	e8 67 c2 ff ff       	call   47b0 <debug_strfdatetime.constprop.12>
8549:	48 8d 35 12 7f 00 00 	lea    rsi,[rip+0x7f12]        # 10462 <time_masks+0x432>
8550:	48 89 c3             	mov    rbx,rax
8553:	31 ff                	xor    edi,edi
8555:	ba 05 00 00 00       	mov    edx,0x5
855a:	e8 91 a2 ff ff       	call   27f0 <dcgettext@plt>
855f:	4c 89 f2             	mov    rdx,r14
8562:	48 89 c7             	mov    rdi,rax
8565:	48 89 de             	mov    rsi,rbx
8568:	31 c0                	xor    eax,eax
856a:	e8 51 bd ff ff       	call   42c0 <dbg_printf>
856f:	e9 a5 fd ff ff       	jmp    8319 <parse_datetime2+0x19b9>
8574:	48 89 d7             	mov    rdi,rdx
8577:	e8 e4 2f 00 00       	call   b560 <tzfree>
857c:	e9 ca f0 ff ff       	jmp    764b <parse_datetime2+0xceb>
8581:	8b 84 24 80 00 00 00 	mov    eax,DWORD PTR [rsp+0x80]
8588:	8b bc 24 84 00 00 00 	mov    edi,DWORD PTR [rsp+0x84]
858f:	48 8d b4 24 d3 02 00 	lea    rsi,[rsp+0x2d3]
8596:	00
8597:	44 8b 64 24 7c       	mov    r12d,DWORD PTR [rsp+0x7c]
859c:	48 8d ac 24 00 03 00 	lea    rbp,[rsp+0x300]
85a3:	00
85a4:	8d 58 01             	lea    ebx,[rax+0x1]
85a7:	e8 b4 a5 ff ff       	call   2b60 <tm_year_str>
85ac:	41 54                	push   r12
85ae:	4c 8d 05 45 7e 00 00 	lea    r8,[rip+0x7e45]        # 103fa <time_masks+0x3ca>
85b5:	53                   	push   rbx
85b6:	49 89 c1             	mov    r9,rax
85b9:	b9 64 00 00 00       	mov    ecx,0x64
85be:	ba 01 00 00 00       	mov    edx,0x1
85c3:	be 64 00 00 00       	mov    esi,0x64
85c8:	48 89 ef             	mov    rdi,rbp
85cb:	31 c0                	xor    eax,eax
85cd:	e8 2e a1 ff ff       	call   2700 <__snprintf_chk@plt>
85d2:	48 8d 35 0f 85 00 00 	lea    rsi,[rip+0x850f]        # 10ae8 <time_masks+0xab8>
85d9:	ba 05 00 00 00       	mov    edx,0x5
85de:	31 ff                	xor    edi,edi
85e0:	e8 0b a2 ff ff       	call   27f0 <dcgettext@plt>
85e5:	48 89 ee             	mov    rsi,rbp
85e8:	48 89 c7             	mov    rdi,rax
85eb:	31 c0                	xor    eax,eax
85ed:	e8 ce bc ff ff       	call   42c0 <dbg_printf>
85f2:	58                   	pop    rax
85f3:	5a                   	pop    rdx
85f4:	48 83 bc 24 60 02 00 	cmp    QWORD PTR [rsp+0x260],0x0
85fb:	00 00
85fd:	0f 84 2a f7 ff ff    	je     7d2d <parse_datetime2+0x13cd>
8603:	48 83 bc 24 58 02 00 	cmp    QWORD PTR [rsp+0x258],0x0
860a:	00 00
860c:	0f 85 5e fb ff ff    	jne    8170 <parse_datetime2+0x1810>
8612:	e9 16 f7 ff ff       	jmp    7d2d <parse_datetime2+0x13cd>
8617:	80 bc 24 89 02 00 00 	cmp    BYTE PTR [rsp+0x289],0x0
861e:	00
861f:	0f 84 76 e7 ff ff    	je     6d9b <parse_datetime2+0x43b>
8625:	48 8b 7c 24 18       	mov    rdi,QWORD PTR [rsp+0x18]
862a:	48 8d 94 24 00 03 00 	lea    rdx,[rsp+0x300]
8631:	00
8632:	4c 89 ee             	mov    rsi,r13
8635:	e8 76 c1 ff ff       	call   47b0 <debug_strfdatetime.constprop.12>
863a:	48 8d 35 c7 85 00 00 	lea    rsi,[rip+0x85c7]        # 10c08 <time_masks+0xbd8>
8641:	48 89 c3             	mov    rbx,rax
8644:	31 ff                	xor    edi,edi
8646:	ba 05 00 00 00       	mov    edx,0x5
864b:	e8 a0 a1 ff ff       	call   27f0 <dcgettext@plt>
8650:	48 89 de             	mov    rsi,rbx
8653:	48 89 c7             	mov    rdi,rax
8656:	31 c0                	xor    eax,eax
8658:	e8 63 bc ff ff       	call   42c0 <dbg_printf>
865d:	e9 39 e7 ff ff       	jmp    6d9b <parse_datetime2+0x43b>
8662:	c7 44 24 78 ff ff ff 	mov    DWORD PTR [rsp+0x78],0xffffffff
8669:	ff
866a:	48 8d 1d 2f 7b 00 00 	lea    rbx,[rip+0x7b2f]        # 101a0 <time_masks+0x170>
8671:	e9 73 fe ff ff       	jmp    84e9 <parse_datetime2+0x1b89>
8676:	48 8d 35 c3 82 00 00 	lea    rsi,[rip+0x82c3]        # 10940 <time_masks+0x910>
867d:	31 ff                	xor    edi,edi
867f:	e8 6c a1 ff ff       	call   27f0 <dcgettext@plt>
8684:	e9 6d fb ff ff       	jmp    81f6 <parse_datetime2+0x1896>
8689:	83 7c 24 78 0c       	cmp    DWORD PTR [rsp+0x78],0xc
868e:	0f 84 3c f7 ff ff    	je     7dd0 <parse_datetime2+0x1470>
8694:	48 8d 35 25 85 00 00 	lea    rsi,[rip+0x8525]        # 10bc0 <time_masks+0xb90>
869b:	31 ff                	xor    edi,edi
869d:	ba 05 00 00 00       	mov    edx,0x5
86a2:	e8 49 a1 ff ff       	call   27f0 <dcgettext@plt>
86a7:	48 89 c7             	mov    rdi,rax
86aa:	31 c0                	xor    eax,eax
86ac:	e8 0f bc ff ff       	call   42c0 <dbg_printf>
86b1:	e9 1a f7 ff ff       	jmp    7dd0 <parse_datetime2+0x1470>
86b6:	48 8d 35 03 7d 00 00 	lea    rsi,[rip+0x7d03]        # 103c0 <time_masks+0x390>
86bd:	31 ff                	xor    edi,edi
86bf:	e8 2c a1 ff ff       	call   27f0 <dcgettext@plt>
86c4:	e9 22 f2 ff ff       	jmp    78eb <parse_datetime2+0xf8b>
86c9:	0f 1f 80 00 00 00 00 	nop    DWORD PTR [rax+0x0]

00000000000086d0 <parse_datetime>:
86d0:	41 56                	push   r14
86d2:	41 55                	push   r13
86d4:	49 89 d6             	mov    r14,rdx
86d7:	41 54                	push   r12
86d9:	55                   	push   rbp
86da:	49 89 fc             	mov    r12,rdi
86dd:	53                   	push   rbx
86de:	48 8d 3d ef 7d 00 00 	lea    rdi,[rip+0x7def]        # 104d4 <time_masks+0x4a4>
86e5:	49 89 f5             	mov    r13,rsi
86e8:	48 83 ec 10          	sub    rsp,0x10
86ec:	e8 ff 9f ff ff       	call   26f0 <getenv@plt>
86f1:	48 89 c7             	mov    rdi,rax
86f4:	48 89 c5             	mov    rbp,rax
86f7:	e8 b4 2b 00 00       	call   b2b0 <tzalloc>
86fc:	48 89 c3             	mov    rbx,rax
86ff:	31 c0                	xor    eax,eax
8701:	48 85 db             	test   rbx,rbx
8704:	74 27                	je     872d <parse_datetime+0x5d>
8706:	49 89 e9             	mov    r9,rbp
8709:	49 89 d8             	mov    r8,rbx
870c:	31 c9                	xor    ecx,ecx
870e:	4c 89 f2             	mov    rdx,r14
8711:	4c 89 ee             	mov    rsi,r13
8714:	4c 89 e7             	mov    rdi,r12
8717:	e8 44 e2 ff ff       	call   6960 <parse_datetime2>
871c:	48 89 df             	mov    rdi,rbx
871f:	88 44 24 0f          	mov    BYTE PTR [rsp+0xf],al
8723:	e8 38 2e 00 00       	call   b560 <tzfree>
8728:	0f b6 44 24 0f       	movzx  eax,BYTE PTR [rsp+0xf]
872d:	48 83 c4 10          	add    rsp,0x10
8731:	5b                   	pop    rbx
8732:	5d                   	pop    rbp
8733:	41 5c                	pop    r12
8735:	41 5d                	pop    r13
8737:	41 5e                	pop    r14
8739:	c3                   	ret
873a:	66 0f 1f 44 00 00    	nop    WORD PTR [rax+rax*1+0x0]

0000000000008740 <year.isra.0>:
8740:	55                   	push   rbp
8741:	53                   	push   rbx
8742:	48 89 fb             	mov    rbx,rdi
8745:	48 83 ec 18          	sub    rsp,0x18
8749:	64 48 8b 04 25 28 00 	mov    rax,QWORD PTR fs:0x28
8750:	00 00
8752:	48 89 44 24 08       	mov    QWORD PTR [rsp+0x8],rax
8757:	31 c0                	xor    eax,eax
8759:	48 83 fa 01          	cmp    rdx,0x1
875d:	74 59                	je     87b8 <year.isra.0+0x78>
875f:	72 17                	jb     8778 <year.isra.0+0x38>
8761:	48 83 fa 02          	cmp    rdx,0x2
8765:	0f 85 86 00 00 00    	jne    87f1 <year.isra.0+0xb1>
876b:	83 e1 02             	and    ecx,0x2
876e:	75 68                	jne    87d8 <year.isra.0+0x98>
8770:	31 c0                	xor    eax,eax
8772:	eb 26                	jmp    879a <year.isra.0+0x5a>
8774:	0f 1f 40 00          	nop    DWORD PTR [rax+0x0]
8778:	48 89 e5             	mov    rbp,rsp
877b:	48 89 ef             	mov    rdi,rbp
877e:	e8 0d a2 ff ff       	call   2990 <time@plt>
8783:	48 89 ef             	mov    rdi,rbp
8786:	e8 a5 9f ff ff       	call   2730 <localtime@plt>
878b:	48 85 c0             	test   rax,rax
878e:	74 0a                	je     879a <year.isra.0+0x5a>
8790:	8b 40 14             	mov    eax,DWORD PTR [rax+0x14]
8793:	89 03                	mov    DWORD PTR [rbx],eax
8795:	b8 01 00 00 00       	mov    eax,0x1
879a:	48 8b 7c 24 08       	mov    rdi,QWORD PTR [rsp+0x8]
879f:	64 48 33 3c 25 28 00 	xor    rdi,QWORD PTR fs:0x28
87a6:	00 00
87a8:	75 42                	jne    87ec <year.isra.0+0xac>
87aa:	48 83 c4 18          	add    rsp,0x18
87ae:	5b                   	pop    rbx
87af:	5d                   	pop    rbp
87b0:	c3                   	ret
87b1:	0f 1f 80 00 00 00 00 	nop    DWORD PTR [rax+0x0]
87b8:	8b 16                	mov    edx,DWORD PTR [rsi]
87ba:	b8 01 00 00 00       	mov    eax,0x1
87bf:	89 17                	mov    DWORD PTR [rdi],edx
87c1:	83 3e 44             	cmp    DWORD PTR [rsi],0x44
87c4:	7f d4                	jg     879a <year.isra.0+0x5a>
87c6:	83 e1 08             	and    ecx,0x8
87c9:	75 a5                	jne    8770 <year.isra.0+0x30>
87cb:	83 c2 64             	add    edx,0x64
87ce:	89 17                	mov    DWORD PTR [rdi],edx
87d0:	eb c8                	jmp    879a <year.isra.0+0x5a>
87d2:	66 0f 1f 44 00 00    	nop    WORD PTR [rax+rax*1+0x0]
87d8:	6b 06 64             	imul   eax,DWORD PTR [rsi],0x64
87db:	03 46 04             	add    eax,DWORD PTR [rsi+0x4]
87de:	2d 6c 07 00 00       	sub    eax,0x76c
87e3:	89 07                	mov    DWORD PTR [rdi],eax
87e5:	b8 01 00 00 00       	mov    eax,0x1
87ea:	eb ae                	jmp    879a <year.isra.0+0x5a>
87ec:	e8 3f a0 ff ff       	call   2830 <__stack_chk_fail@plt>
87f1:	e8 4a 9f ff ff       	call   2740 <abort@plt>
87f6:	66 2e 0f 1f 84 00 00 	nop    WORD PTR cs:[rax+rax*1+0x0]
87fd:	00 00 00

0000000000008800 <posixtime>:
8800:	41 57                	push   r15
8802:	41 56                	push   r14
8804:	41 55                	push   r13
8806:	41 54                	push   r12
8808:	49 89 fc             	mov    r12,rdi
880b:	55                   	push   rbp
880c:	53                   	push   rbx
880d:	89 d5                	mov    ebp,edx
880f:	48 89 f7             	mov    rdi,rsi
8812:	48 89 f3             	mov    rbx,rsi
8815:	48 81 ec d8 00 00 00 	sub    rsp,0xd8
881c:	64 48 8b 04 25 28 00 	mov    rax,QWORD PTR fs:0x28
8823:	00 00
8825:	48 89 84 24 c8 00 00 	mov    QWORD PTR [rsp+0xc8],rax
882c:	00
882d:	31 c0                	xor    eax,eax
882f:	e8 dc 9f ff ff       	call   2810 <strlen@plt>
8834:	40 f6 c5 04          	test   bpl,0x4
8838:	49 89 c5             	mov    r13,rax
883b:	0f 84 2f 02 00 00    	je     8a70 <posixtime+0x270>
8841:	be 2e 00 00 00       	mov    esi,0x2e
8846:	48 89 df             	mov    rdi,rbx
8849:	e8 22 a0 ff ff       	call   2870 <strchr@plt>
884e:	48 85 c0             	test   rax,rax
8851:	49 89 c6             	mov    r14,rax
8854:	74 3d                	je     8893 <posixtime+0x93>
8856:	48 29 d8             	sub    rax,rbx
8859:	49 29 c5             	sub    r13,rax
885c:	49 83 fd 03          	cmp    r13,0x3
8860:	74 2e                	je     8890 <posixtime+0x90>
8862:	31 c0                	xor    eax,eax
8864:	48 8b b4 24 c8 00 00 	mov    rsi,QWORD PTR [rsp+0xc8]
886b:	00
886c:	64 48 33 34 25 28 00 	xor    rsi,QWORD PTR fs:0x28
8873:	00 00
8875:	0f 85 64 02 00 00    	jne    8adf <posixtime+0x2df>
887b:	48 81 c4 d8 00 00 00 	add    rsp,0xd8
8882:	5b                   	pop    rbx
8883:	5d                   	pop    rbp
8884:	41 5c                	pop    r12
8886:	41 5d                	pop    r13
8888:	41 5e                	pop    r14
888a:	41 5f                	pop    r15
888c:	c3                   	ret
888d:	0f 1f 00             	nop    DWORD PTR [rax]
8890:	49 89 c5             	mov    r13,rax
8893:	49 8d 45 f8          	lea    rax,[r13-0x8]
8897:	48 83 f8 04          	cmp    rax,0x4
889b:	77 c5                	ja     8862 <posixtime+0x62>
889d:	41 f6 c5 01          	test   r13b,0x1
88a1:	75 bf                	jne    8862 <posixtime+0x62>
88a3:	49 8d 4c 1d 00       	lea    rcx,[r13+rbx*1+0x0]
88a8:	48 89 da             	mov    rdx,rbx
88ab:	0f 1f 44 00 00       	nop    DWORD PTR [rax+rax*1+0x0]
88b0:	0f be 02             	movsx  eax,BYTE PTR [rdx]
88b3:	83 e8 30             	sub    eax,0x30
88b6:	83 f8 09             	cmp    eax,0x9
88b9:	77 a7                	ja     8862 <posixtime+0x62>
88bb:	48 83 c2 01          	add    rdx,0x1
88bf:	48 39 d1             	cmp    rcx,rdx
88c2:	75 ec                	jne    88b0 <posixtime+0xb0>
88c4:	49 d1 ed             	shr    r13,1
88c7:	31 d2                	xor    edx,edx
88c9:	4c 8d bc 24 90 00 00 	lea    r15,[rsp+0x90]
88d0:	00
88d1:	eb 08                	jmp    88db <posixtime+0xdb>
88d3:	0f 1f 44 00 00       	nop    DWORD PTR [rax+rax*1+0x0]
88d8:	48 89 c2             	mov    rdx,rax
88db:	0f be 04 53          	movsx  eax,BYTE PTR [rbx+rdx*2]
88df:	8d 8c 80 10 ff ff ff 	lea    ecx,[rax+rax*4-0xf0]
88e6:	0f be 44 53 01       	movsx  eax,BYTE PTR [rbx+rdx*2+0x1]
88eb:	8d 44 48 d0          	lea    eax,[rax+rcx*2-0x30]
88ef:	41 89 04 97          	mov    DWORD PTR [r15+rdx*4],eax
88f3:	48 8d 42 01          	lea    rax,[rdx+0x1]
88f7:	49 39 c5             	cmp    r13,rax
88fa:	75 dc                	jne    88d8 <posixtime+0xd8>
88fc:	48 83 ea 03          	sub    rdx,0x3
8900:	40 f6 c5 01          	test   bpl,0x1
8904:	0f 84 86 01 00 00    	je     8a90 <posixtime+0x290>
890a:	8b 84 24 90 00 00 00 	mov    eax,DWORD PTR [rsp+0x90]
8911:	49 8d 77 10          	lea    rsi,[r15+0x10]
8915:	48 8d 7c 24 24       	lea    rdi,[rsp+0x24]
891a:	89 e9                	mov    ecx,ebp
891c:	83 e8 01             	sub    eax,0x1
891f:	89 44 24 20          	mov    DWORD PTR [rsp+0x20],eax
8923:	8b 84 24 94 00 00 00 	mov    eax,DWORD PTR [rsp+0x94]
892a:	89 44 24 1c          	mov    DWORD PTR [rsp+0x1c],eax
892e:	8b 84 24 98 00 00 00 	mov    eax,DWORD PTR [rsp+0x98]
8935:	89 44 24 18          	mov    DWORD PTR [rsp+0x18],eax
8939:	8b 84 24 9c 00 00 00 	mov    eax,DWORD PTR [rsp+0x9c]
8940:	89 44 24 14          	mov    DWORD PTR [rsp+0x14],eax
8944:	e8 f7 fd ff ff       	call   8740 <year.isra.0>
8949:	84 c0                	test   al,al
894b:	0f 84 11 ff ff ff    	je     8862 <posixtime+0x62>
8951:	4d 85 f6             	test   r14,r14
8954:	0f 84 76 01 00 00    	je     8ad0 <posixtime+0x2d0>
895a:	41 0f be 46 01       	movsx  eax,BYTE PTR [r14+0x1]
895f:	83 e8 30             	sub    eax,0x30
8962:	83 f8 09             	cmp    eax,0x9
8965:	0f 87 f7 fe ff ff    	ja     8862 <posixtime+0x62>
896b:	41 0f be 56 02       	movsx  edx,BYTE PTR [r14+0x2]
8970:	8d 4a d0             	lea    ecx,[rdx-0x30]
8973:	83 f9 09             	cmp    ecx,0x9
8976:	0f 87 e6 fe ff ff    	ja     8862 <posixtime+0x62>
897c:	8d 04 80             	lea    eax,[rax+rax*4]
897f:	8d 44 42 d0          	lea    eax,[rdx+rax*2-0x30]
8983:	89 44 24 10          	mov    DWORD PTR [rsp+0x10],eax
8987:	89 44 24 50          	mov    DWORD PTR [rsp+0x50],eax
898b:	8b 44 24 14          	mov    eax,DWORD PTR [rsp+0x14]
898f:	48 8d 7c 24 50       	lea    rdi,[rsp+0x50]
8994:	c7 44 24 68 ff ff ff 	mov    DWORD PTR [rsp+0x68],0xffffffff
899b:	ff
899c:	c7 44 24 70 ff ff ff 	mov    DWORD PTR [rsp+0x70],0xffffffff
89a3:	ff
89a4:	89 44 24 54          	mov    DWORD PTR [rsp+0x54],eax
89a8:	8b 44 24 18          	mov    eax,DWORD PTR [rsp+0x18]
89ac:	89 44 24 58          	mov    DWORD PTR [rsp+0x58],eax
89b0:	8b 44 24 1c          	mov    eax,DWORD PTR [rsp+0x1c]
89b4:	89 44 24 5c          	mov    DWORD PTR [rsp+0x5c],eax
89b8:	8b 44 24 20          	mov    eax,DWORD PTR [rsp+0x20]
89bc:	89 44 24 60          	mov    DWORD PTR [rsp+0x60],eax
89c0:	8b 44 24 24          	mov    eax,DWORD PTR [rsp+0x24]
89c4:	89 44 24 64          	mov    DWORD PTR [rsp+0x64],eax
89c8:	e8 33 a0 ff ff       	call   2a00 <mktime@plt>
89cd:	8b 4c 24 68          	mov    ecx,DWORD PTR [rsp+0x68]
89d1:	49 89 c5             	mov    r13,rax
89d4:	31 c0                	xor    eax,eax
89d6:	85 c9                	test   ecx,ecx
89d8:	0f 88 86 fe ff ff    	js     8864 <posixtime+0x64>
89de:	8b 54 24 24          	mov    edx,DWORD PTR [rsp+0x24]
89e2:	8b 4c 24 20          	mov    ecx,DWORD PTR [rsp+0x20]
89e6:	33 54 24 64          	xor    edx,DWORD PTR [rsp+0x64]
89ea:	33 4c 24 60          	xor    ecx,DWORD PTR [rsp+0x60]
89ee:	8b 74 24 10          	mov    esi,DWORD PTR [rsp+0x10]
89f2:	09 ca                	or     edx,ecx
89f4:	8b 4c 24 1c          	mov    ecx,DWORD PTR [rsp+0x1c]
89f8:	33 4c 24 5c          	xor    ecx,DWORD PTR [rsp+0x5c]
89fc:	09 ca                	or     edx,ecx
89fe:	8b 4c 24 18          	mov    ecx,DWORD PTR [rsp+0x18]
8a02:	33 4c 24 58          	xor    ecx,DWORD PTR [rsp+0x58]
8a06:	09 ca                	or     edx,ecx
8a08:	8b 4c 24 14          	mov    ecx,DWORD PTR [rsp+0x14]
8a0c:	33 4c 24 54          	xor    ecx,DWORD PTR [rsp+0x54]
8a10:	09 ca                	or     edx,ecx
8a12:	8b 4c 24 50          	mov    ecx,DWORD PTR [rsp+0x50]
8a16:	31 f1                	xor    ecx,esi
8a18:	09 ca                	or     edx,ecx
8a1a:	74 44                	je     8a60 <posixtime+0x260>
8a1c:	83 fe 3c             	cmp    esi,0x3c
8a1f:	0f 85 3f fe ff ff    	jne    8864 <posixtime+0x64>
8a25:	4c 8d b4 24 b0 00 00 	lea    r14,[rsp+0xb0]
8a2c:	00
8a2d:	ba 10 00 00 00       	mov    edx,0x10
8a32:	48 89 de             	mov    rsi,rbx
8a35:	4c 89 f7             	mov    rdi,r14
8a38:	e8 73 9f ff ff       	call   29b0 <__stpcpy_chk@plt>
8a3d:	ba 35 39 00 00       	mov    edx,0x3935
8a42:	48 8d 7c 24 08       	lea    rdi,[rsp+0x8]
8a47:	c6 00 00             	mov    BYTE PTR [rax],0x0
8a4a:	66 89 50 fe          	mov    WORD PTR [rax-0x2],dx
8a4e:	4c 89 f6             	mov    rsi,r14
8a51:	89 ea                	mov    edx,ebp
8a53:	e8 a8 fd ff ff       	call   8800 <posixtime>
8a58:	84 c0                	test   al,al
8a5a:	0f 84 04 fe ff ff    	je     8864 <posixtime+0x64>
8a60:	4d 89 2c 24          	mov    QWORD PTR [r12],r13
8a64:	b8 01 00 00 00       	mov    eax,0x1
8a69:	e9 f6 fd ff ff       	jmp    8864 <posixtime+0x64>
8a6e:	66 90                	xchg   ax,ax
8a70:	49 8d 45 f8          	lea    rax,[r13-0x8]
8a74:	45 31 f6             	xor    r14d,r14d
8a77:	48 83 f8 04          	cmp    rax,0x4
8a7b:	0f 86 1c fe ff ff    	jbe    889d <posixtime+0x9d>
8a81:	e9 dc fd ff ff       	jmp    8862 <posixtime+0x62>
8a86:	66 2e 0f 1f 84 00 00 	nop    WORD PTR cs:[rax+rax*1+0x0]
8a8d:	00 00 00
8a90:	48 8d 7c 24 24       	lea    rdi,[rsp+0x24]
8a95:	89 e9                	mov    ecx,ebp
8a97:	4c 89 fe             	mov    rsi,r15
8a9a:	e8 a1 fc ff ff       	call   8740 <year.isra.0>
8a9f:	84 c0                	test   al,al
8aa1:	0f 84 bb fd ff ff    	je     8862 <posixtime+0x62>
8aa7:	4b 8d 44 af f0       	lea    rax,[r15+r13*4-0x10]
8aac:	8b 30                	mov    esi,DWORD PTR [rax]
8aae:	8d 56 ff             	lea    edx,[rsi-0x1]
8ab1:	89 54 24 20          	mov    DWORD PTR [rsp+0x20],edx
8ab5:	8b 50 04             	mov    edx,DWORD PTR [rax+0x4]
8ab8:	89 54 24 1c          	mov    DWORD PTR [rsp+0x1c],edx
8abc:	8b 50 08             	mov    edx,DWORD PTR [rax+0x8]
8abf:	8b 40 0c             	mov    eax,DWORD PTR [rax+0xc]
8ac2:	89 54 24 18          	mov    DWORD PTR [rsp+0x18],edx
8ac6:	89 44 24 14          	mov    DWORD PTR [rsp+0x14],eax
8aca:	e9 82 fe ff ff       	jmp    8951 <posixtime+0x151>
8acf:	90                   	nop
8ad0:	c7 44 24 10 00 00 00 	mov    DWORD PTR [rsp+0x10],0x0
8ad7:	00
8ad8:	31 c0                	xor    eax,eax
8ada:	e9 a8 fe ff ff       	jmp    8987 <posixtime+0x187>
8adf:	e8 4c 9d ff ff       	call   2830 <__stack_chk_fail@plt>
8ae4:	66 2e 0f 1f 84 00 00 	nop    WORD PTR cs:[rax+rax*1+0x0]
8aeb:	00 00 00
8aee:	66 90                	xchg   ax,ax

0000000000008af0 <posix2_version>:
8af0:	53                   	push   rbx
8af1:	48 8d 3d fe 89 00 00 	lea    rdi,[rip+0x89fe]        # 114f6 <yytranslate+0x116>
8af8:	bb 69 10 03 00       	mov    ebx,0x31069
8afd:	48 83 ec 10          	sub    rsp,0x10
8b01:	64 48 8b 04 25 28 00 	mov    rax,QWORD PTR fs:0x28
8b08:	00 00
8b0a:	48 89 44 24 08       	mov    QWORD PTR [rsp+0x8],rax
8b0f:	31 c0                	xor    eax,eax
8b11:	e8 da 9b ff ff       	call   26f0 <getenv@plt>
8b16:	48 85 c0             	test   rax,rax
8b19:	74 05                	je     8b20 <posix2_version+0x30>
8b1b:	80 38 00             	cmp    BYTE PTR [rax],0x0
8b1e:	75 20                	jne    8b40 <posix2_version+0x50>
8b20:	48 8b 4c 24 08       	mov    rcx,QWORD PTR [rsp+0x8]
8b25:	64 48 33 0c 25 28 00 	xor    rcx,QWORD PTR fs:0x28
8b2c:	00 00
8b2e:	89 d8                	mov    eax,ebx
8b30:	75 47                	jne    8b79 <posix2_version+0x89>
8b32:	48 83 c4 10          	add    rsp,0x10
8b36:	5b                   	pop    rbx
8b37:	c3                   	ret
8b38:	0f 1f 84 00 00 00 00 	nop    DWORD PTR [rax+rax*1+0x0]
8b3f:	00
8b40:	ba 0a 00 00 00       	mov    edx,0xa
8b45:	48 89 e6             	mov    rsi,rsp
8b48:	48 89 c7             	mov    rdi,rax
8b4b:	e8 10 9e ff ff       	call   2960 <strtol@plt>
8b50:	48 8b 14 24          	mov    rdx,QWORD PTR [rsp]
8b54:	80 3a 00             	cmp    BYTE PTR [rdx],0x0
8b57:	75 c7                	jne    8b20 <posix2_version+0x30>
8b59:	48 3d 00 00 00 80    	cmp    rax,0xffffffff80000000
8b5f:	7c 11                	jl     8b72 <posix2_version+0x82>
8b61:	48 3d ff ff ff 7f    	cmp    rax,0x7fffffff
8b67:	bb ff ff ff 7f       	mov    ebx,0x7fffffff
8b6c:	48 0f 4e d8          	cmovle rbx,rax
8b70:	eb ae                	jmp    8b20 <posix2_version+0x30>
8b72:	bb 00 00 00 80       	mov    ebx,0x80000000
8b77:	eb a7                	jmp    8b20 <posix2_version+0x30>
8b79:	e8 b2 9c ff ff       	call   2830 <__stack_chk_fail@plt>
8b7e:	66 90                	xchg   ax,ax

0000000000008b80 <set_program_name>:
8b80:	48 85 ff             	test   rdi,rdi
8b83:	53                   	push   rbx
8b84:	74 77                	je     8bfd <set_program_name+0x7d>
8b86:	be 2f 00 00 00       	mov    esi,0x2f
8b8b:	48 89 fb             	mov    rbx,rdi
8b8e:	e8 0d 9d ff ff       	call   28a0 <strrchr@plt>
8b93:	48 85 c0             	test   rax,rax
8b96:	74 55                	je     8bed <set_program_name+0x6d>
8b98:	4c 8d 40 01          	lea    r8,[rax+0x1]
8b9c:	4c 89 c2             	mov    rdx,r8
8b9f:	48 29 da             	sub    rdx,rbx
8ba2:	48 83 fa 06          	cmp    rdx,0x6
8ba6:	7e 45                	jle    8bed <set_program_name+0x6d>
8ba8:	48 8d 70 fa          	lea    rsi,[rax-0x6]
8bac:	48 8d 3d 8d 89 00 00 	lea    rdi,[rip+0x898d]        # 11540 <yytranslate+0x160>
8bb3:	b9 07 00 00 00       	mov    ecx,0x7
8bb8:	f3 a6                	repz cmps BYTE PTR ds:[rsi],BYTE PTR es:[rdi]
8bba:	0f 97 c2             	seta   dl
8bbd:	80 da 00             	sbb    dl,0x0
8bc0:	84 d2                	test   dl,dl
8bc2:	75 29                	jne    8bed <set_program_name+0x6d>
8bc4:	48 8d 3d 7d 89 00 00 	lea    rdi,[rip+0x897d]        # 11548 <yytranslate+0x168>
8bcb:	b9 03 00 00 00       	mov    ecx,0x3
8bd0:	4c 89 c6             	mov    rsi,r8
8bd3:	4c 89 c3             	mov    rbx,r8
8bd6:	f3 a6                	repz cmps BYTE PTR ds:[rsi],BYTE PTR es:[rdi]
8bd8:	0f 97 c2             	seta   dl
8bdb:	80 da 00             	sbb    dl,0x0
8bde:	84 d2                	test   dl,dl
8be0:	75 0b                	jne    8bed <set_program_name+0x6d>
8be2:	48 8d 58 04          	lea    rbx,[rax+0x4]
8be6:	48 89 1d b3 c4 20 00 	mov    QWORD PTR [rip+0x20c4b3],rbx        # 2150a0 <__progname@@GLIBC_2.2.5>
8bed:	48 89 1d 64 c5 20 00 	mov    QWORD PTR [rip+0x20c564],rbx        # 215158 <program_name>
8bf4:	48 89 1d c5 c4 20 00 	mov    QWORD PTR [rip+0x20c4c5],rbx        # 2150c0 <__progname_full@@GLIBC_2.2.5>
8bfb:	5b                   	pop    rbx
8bfc:	c3                   	ret
8bfd:	48 8b 0d dc c4 20 00 	mov    rcx,QWORD PTR [rip+0x20c4dc]        # 2150e0 <stderr@@GLIBC_2.2.5>
8c04:	48 8d 3d fd 88 00 00 	lea    rdi,[rip+0x88fd]        # 11508 <yytranslate+0x128>
8c0b:	ba 37 00 00 00       	mov    edx,0x37
8c10:	be 01 00 00 00       	mov    esi,0x1
8c15:	e8 c6 9e ff ff       	call   2ae0 <fwrite@plt>
8c1a:	e8 21 9b ff ff       	call   2740 <abort@plt>
8c1f:	90                   	nop

0000000000008c20 <gettext_quote.part.1>:
8c20:	55                   	push   rbp
8c21:	53                   	push   rbx
8c22:	48 89 fd             	mov    rbp,rdi
8c25:	89 f3                	mov    ebx,esi
8c27:	48 83 ec 08          	sub    rsp,0x8
8c2b:	e8 20 2d 00 00       	call   b950 <locale_charset>
8c30:	0f b6 10             	movzx  edx,BYTE PTR [rax]
8c33:	83 e2 df             	and    edx,0xffffffdf
8c36:	80 fa 55             	cmp    dl,0x55
8c39:	74 75                	je     8cb0 <gettext_quote.part.1+0x90>
8c3b:	80 fa 47             	cmp    dl,0x47
8c3e:	74 20                	je     8c60 <gettext_quote.part.1+0x40>
8c40:	48 8d 05 00 76 00 00 	lea    rax,[rip+0x7600]        # 10247 <time_masks+0x217>
8c47:	48 8d 15 0d 89 00 00 	lea    rdx,[rip+0x890d]        # 1155b <yytranslate+0x17b>
8c4e:	83 fb 09             	cmp    ebx,0x9
8c51:	48 0f 45 c2          	cmovne rax,rdx
8c55:	48 83 c4 08          	add    rsp,0x8
8c59:	5b                   	pop    rbx
8c5a:	5d                   	pop    rbp
8c5b:	c3                   	ret
8c5c:	0f 1f 40 00          	nop    DWORD PTR [rax+0x0]
8c60:	0f b6 50 01          	movzx  edx,BYTE PTR [rax+0x1]
8c64:	83 e2 df             	and    edx,0xffffffdf
8c67:	80 fa 42             	cmp    dl,0x42
8c6a:	75 d4                	jne    8c40 <gettext_quote.part.1+0x20>
8c6c:	80 78 02 31          	cmp    BYTE PTR [rax+0x2],0x31
8c70:	75 ce                	jne    8c40 <gettext_quote.part.1+0x20>
8c72:	80 78 03 38          	cmp    BYTE PTR [rax+0x3],0x38
8c76:	75 c8                	jne    8c40 <gettext_quote.part.1+0x20>
8c78:	80 78 04 30          	cmp    BYTE PTR [rax+0x4],0x30
8c7c:	75 c2                	jne    8c40 <gettext_quote.part.1+0x20>
8c7e:	80 78 05 33          	cmp    BYTE PTR [rax+0x5],0x33
8c82:	75 bc                	jne    8c40 <gettext_quote.part.1+0x20>
8c84:	80 78 06 30          	cmp    BYTE PTR [rax+0x6],0x30
8c88:	75 b6                	jne    8c40 <gettext_quote.part.1+0x20>
8c8a:	80 78 07 00          	cmp    BYTE PTR [rax+0x7],0x0
8c8e:	75 b0                	jne    8c40 <gettext_quote.part.1+0x20>
8c90:	80 7d 00 60          	cmp    BYTE PTR [rbp+0x0],0x60
8c94:	48 8d 05 b9 88 00 00 	lea    rax,[rip+0x88b9]        # 11554 <yytranslate+0x174>
8c9b:	48 8d 15 b6 88 00 00 	lea    rdx,[rip+0x88b6]        # 11558 <yytranslate+0x178>
8ca2:	48 0f 45 c2          	cmovne rax,rdx
8ca6:	48 83 c4 08          	add    rsp,0x8
8caa:	5b                   	pop    rbx
8cab:	5d                   	pop    rbp
8cac:	c3                   	ret
8cad:	0f 1f 00             	nop    DWORD PTR [rax]
8cb0:	0f b6 50 01          	movzx  edx,BYTE PTR [rax+0x1]
8cb4:	83 e2 df             	and    edx,0xffffffdf
8cb7:	80 fa 54             	cmp    dl,0x54
8cba:	75 84                	jne    8c40 <gettext_quote.part.1+0x20>
8cbc:	0f b6 50 02          	movzx  edx,BYTE PTR [rax+0x2]
8cc0:	83 e2 df             	and    edx,0xffffffdf
8cc3:	80 fa 46             	cmp    dl,0x46
8cc6:	0f 85 74 ff ff ff    	jne    8c40 <gettext_quote.part.1+0x20>
8ccc:	80 78 03 2d          	cmp    BYTE PTR [rax+0x3],0x2d
8cd0:	0f 85 6a ff ff ff    	jne    8c40 <gettext_quote.part.1+0x20>
8cd6:	80 78 04 38          	cmp    BYTE PTR [rax+0x4],0x38
8cda:	0f 85 60 ff ff ff    	jne    8c40 <gettext_quote.part.1+0x20>
8ce0:	80 78 05 00          	cmp    BYTE PTR [rax+0x5],0x0
8ce4:	0f 85 56 ff ff ff    	jne    8c40 <gettext_quote.part.1+0x20>
8cea:	80 7d 00 60          	cmp    BYTE PTR [rbp+0x0],0x60
8cee:	48 8d 05 57 88 00 00 	lea    rax,[rip+0x8857]        # 1154c <yytranslate+0x16c>
8cf5:	48 8d 15 54 88 00 00 	lea    rdx,[rip+0x8854]        # 11550 <yytranslate+0x170>
8cfc:	48 0f 45 c2          	cmovne rax,rdx
8d00:	48 83 c4 08          	add    rsp,0x8
8d04:	5b                   	pop    rbx
8d05:	5d                   	pop    rbp
8d06:	c3                   	ret
8d07:	66 0f 1f 84 00 00 00 	nop    WORD PTR [rax+rax*1+0x0]
8d0e:	00 00

0000000000008d10 <quotearg_buffer_restyled>:
8d10:	41 57                	push   r15
8d12:	41 56                	push   r14
8d14:	45 89 c7             	mov    r15d,r8d
8d17:	41 55                	push   r13
8d19:	41 54                	push   r12
8d1b:	49 89 fe             	mov    r14,rdi
8d1e:	55                   	push   rbp
8d1f:	53                   	push   rbx
8d20:	44 89 cb             	mov    ebx,r9d
8d23:	49 89 f5             	mov    r13,rsi
8d26:	48 89 cd             	mov    rbp,rcx
8d29:	83 e3 02             	and    ebx,0x2
8d2c:	48 81 ec b8 00 00 00 	sub    rsp,0xb8
8d33:	48 8b 84 24 f0 00 00 	mov    rax,QWORD PTR [rsp+0xf0]
8d3a:	00
8d3b:	48 89 54 24 10       	mov    QWORD PTR [rsp+0x10],rdx
8d40:	44 89 44 24 08       	mov    DWORD PTR [rsp+0x8],r8d
8d45:	44 89 4c 24 78       	mov    DWORD PTR [rsp+0x78],r9d
8d4a:	48 89 44 24 20       	mov    QWORD PTR [rsp+0x20],rax
8d4f:	48 8b 84 24 f8 00 00 	mov    rax,QWORD PTR [rsp+0xf8]
8d56:	00
8d57:	48 89 44 24 68       	mov    QWORD PTR [rsp+0x68],rax
8d5c:	48 8b 84 24 00 01 00 	mov    rax,QWORD PTR [rsp+0x100]
8d63:	00
8d64:	48 89 44 24 60       	mov    QWORD PTR [rsp+0x60],rax
8d69:	64 48 8b 04 25 28 00 	mov    rax,QWORD PTR fs:0x28
8d70:	00 00
8d72:	48 89 84 24 a8 00 00 	mov    QWORD PTR [rsp+0xa8],rax
8d79:	00
8d7a:	31 c0                	xor    eax,eax
8d7c:	e8 7f 9a ff ff       	call   2800 <__ctype_get_mb_cur_max@plt>
8d81:	41 83 ff 0a          	cmp    r15d,0xa
8d85:	48 89 44 24 58       	mov    QWORD PTR [rsp+0x58],rax
8d8a:	0f 87 af 11 00 00    	ja     9f3f <quotearg_buffer_restyled+0x122f>
8d90:	48 8d 0d 29 88 00 00 	lea    rcx,[rip+0x8829]        # 115c0 <yytranslate+0x1e0>
8d97:	44 89 fa             	mov    edx,r15d
8d9a:	48 63 04 91          	movsxd rax,DWORD PTR [rcx+rdx*4]
8d9e:	48 01 c8             	add    rax,rcx
8da1:	ff e0                	jmp    rax
8da3:	c6 44 24 0e 01       	mov    BYTE PTR [rsp+0xe],0x1
8da8:	c6 44 24 7c 00       	mov    BYTE PTR [rsp+0x7c],0x0
8dad:	45 31 e4             	xor    r12d,r12d
8db0:	48 c7 44 24 50 00 00 	mov    QWORD PTR [rsp+0x50],0x0
8db7:	00 00
8db9:	c6 44 24 0f 01       	mov    BYTE PTR [rsp+0xf],0x1
8dbe:	c6 44 24 0d 00       	mov    BYTE PTR [rsp+0xd],0x0
8dc3:	48 8d 05 91 87 00 00 	lea    rax,[rip+0x8791]        # 1155b <yytranslate+0x17b>
8dca:	48 c7 44 24 18 01 00 	mov    QWORD PTR [rsp+0x18],0x1
8dd1:	00 00
8dd3:	45 31 ff             	xor    r15d,r15d
8dd6:	c7 44 24 08 02 00 00 	mov    DWORD PTR [rsp+0x8],0x2
8ddd:	00
8dde:	48 89 44 24 48       	mov    QWORD PTR [rsp+0x48],rax
8de3:	45 31 db             	xor    r11d,r11d
8de6:	48 89 e8             	mov    rax,rbp
8de9:	45 89 e0             	mov    r8d,r12d
8dec:	4c 89 dd             	mov    rbp,r11
8def:	49 89 c3             	mov    r11,rax
8df2:	66 0f 1f 44 00 00    	nop    WORD PTR [rax+rax*1+0x0]
8df8:	49 39 eb             	cmp    r11,rbp
8dfb:	41 0f 95 c4          	setne  r12b
8dff:	49 83 fb ff          	cmp    r11,0xffffffffffffffff
8e03:	75 0d                	jne    8e12 <quotearg_buffer_restyled+0x102>
8e05:	48 8b 44 24 10       	mov    rax,QWORD PTR [rsp+0x10]
8e0a:	80 3c 28 00          	cmp    BYTE PTR [rax+rbp*1],0x0
8e0e:	41 0f 95 c4          	setne  r12b
8e12:	45 84 e4             	test   r12b,r12b
8e15:	0f 84 55 06 00 00    	je     9470 <quotearg_buffer_restyled+0x760>
8e1b:	83 7c 24 08 02       	cmp    DWORD PTR [rsp+0x8],0x2
8e20:	48 8b 7c 24 10       	mov    rdi,QWORD PTR [rsp+0x10]
8e25:	4c 8d 0c 2f          	lea    r9,[rdi+rbp*1]
8e29:	0f 95 c0             	setne  al
8e2c:	22 44 24 0d          	and    al,BYTE PTR [rsp+0xd]
8e30:	41 89 c2             	mov    r10d,eax
8e33:	0f 84 a7 00 00 00    	je     8ee0 <quotearg_buffer_restyled+0x1d0>
8e39:	48 8b 44 24 18       	mov    rax,QWORD PTR [rsp+0x18]
8e3e:	48 85 c0             	test   rax,rax
8e41:	0f 84 29 04 00 00    	je     9270 <quotearg_buffer_restyled+0x560>
8e47:	49 83 fb ff          	cmp    r11,0xffffffffffffffff
8e4b:	48 8d 5c 05 00       	lea    rbx,[rbp+rax*1+0x0]
8e50:	75 2e                	jne    8e80 <quotearg_buffer_restyled+0x170>
8e52:	48 83 f8 01          	cmp    rax,0x1
8e56:	76 28                	jbe    8e80 <quotearg_buffer_restyled+0x170>
8e58:	44 88 44 24 38       	mov    BYTE PTR [rsp+0x38],r8b
8e5d:	44 88 54 24 30       	mov    BYTE PTR [rsp+0x30],r10b
8e62:	4c 89 4c 24 28       	mov    QWORD PTR [rsp+0x28],r9
8e67:	e8 a4 99 ff ff       	call   2810 <strlen@plt>
8e6c:	44 0f b6 44 24 38    	movzx  r8d,BYTE PTR [rsp+0x38]
8e72:	44 0f b6 54 24 30    	movzx  r10d,BYTE PTR [rsp+0x30]
8e78:	49 89 c3             	mov    r11,rax
8e7b:	4c 8b 4c 24 28       	mov    r9,QWORD PTR [rsp+0x28]
8e80:	4c 39 db             	cmp    rbx,r11
8e83:	44 88 54 24 28       	mov    BYTE PTR [rsp+0x28],r10b
8e88:	0f 87 b2 05 00 00    	ja     9440 <quotearg_buffer_restyled+0x730>
8e8e:	48 8b 54 24 18       	mov    rdx,QWORD PTR [rsp+0x18]
8e93:	48 8b 74 24 48       	mov    rsi,QWORD PTR [rsp+0x48]
8e98:	4c 89 cf             	mov    rdi,r9
8e9b:	4c 89 5c 24 40       	mov    QWORD PTR [rsp+0x40],r11
8ea0:	44 88 44 24 38       	mov    BYTE PTR [rsp+0x38],r8b
8ea5:	4c 89 4c 24 30       	mov    QWORD PTR [rsp+0x30],r9
8eaa:	e8 71 9a ff ff       	call   2920 <memcmp@plt>
8eaf:	85 c0                	test   eax,eax
8eb1:	4c 8b 4c 24 30       	mov    r9,QWORD PTR [rsp+0x30]
8eb6:	44 0f b6 44 24 38    	movzx  r8d,BYTE PTR [rsp+0x38]
8ebc:	4c 8b 5c 24 40       	mov    r11,QWORD PTR [rsp+0x40]
8ec1:	0f 85 79 05 00 00    	jne    9440 <quotearg_buffer_restyled+0x730>
8ec7:	80 7c 24 0f 00       	cmp    BYTE PTR [rsp+0xf],0x0
8ecc:	44 0f b6 54 24 28    	movzx  r10d,BYTE PTR [rsp+0x28]
8ed2:	0f 85 7d 0f 00 00    	jne    9e55 <quotearg_buffer_restyled+0x1145>
8ed8:	0f 1f 84 00 00 00 00 	nop    DWORD PTR [rax+rax*1+0x0]
8edf:	00
8ee0:	41 0f b6 19          	movzx  ebx,BYTE PTR [r9]
8ee4:	80 fb 7e             	cmp    bl,0x7e
8ee7:	0f 87 1b 03 00 00    	ja     9208 <quotearg_buffer_restyled+0x4f8>
8eed:	48 8d 0d f8 86 00 00 	lea    rcx,[rip+0x86f8]        # 115ec <yytranslate+0x20c>
8ef4:	0f b6 d3             	movzx  edx,bl
8ef7:	48 63 04 91          	movsxd rax,DWORD PTR [rcx+rdx*4]
8efb:	48 01 c8             	add    rax,rcx
8efe:	ff e0                	jmp    rax
8f00:	45 31 d2             	xor    r10d,r10d
8f03:	49 83 fb 01          	cmp    r11,0x1
8f07:	0f 95 c0             	setne  al
8f0a:	49 83 fb ff          	cmp    r11,0xffffffffffffffff
8f0e:	75 0c                	jne    8f1c <quotearg_buffer_restyled+0x20c>
8f10:	48 8b 44 24 10       	mov    rax,QWORD PTR [rsp+0x10]
8f15:	80 78 01 00          	cmp    BYTE PTR [rax+0x1],0x0
8f19:	0f 95 c0             	setne  al
8f1c:	83 7c 24 08 02       	cmp    DWORD PTR [rsp+0x8],0x2
8f21:	0f 94 c2             	sete   dl
8f24:	84 c0                	test   al,al
8f26:	0f 84 4c 02 00 00    	je     9178 <quotearg_buffer_restyled+0x468>
8f2c:	45 31 e4             	xor    r12d,r12d
8f2f:	31 c0                	xor    eax,eax
8f31:	0f 1f 80 00 00 00 00 	nop    DWORD PTR [rax+0x0]
8f38:	80 7c 24 0d 01       	cmp    BYTE PTR [rsp+0xd],0x1
8f3d:	0f 85 0f 01 00 00    	jne    9052 <quotearg_buffer_restyled+0x342>
8f43:	84 d2                	test   dl,dl
8f45:	0f 85 07 01 00 00    	jne    9052 <quotearg_buffer_restyled+0x342>
8f4b:	48 8b 74 24 20       	mov    rsi,QWORD PTR [rsp+0x20]
8f50:	48 85 f6             	test   rsi,rsi
8f53:	74 14                	je     8f69 <quotearg_buffer_restyled+0x259>
8f55:	89 da                	mov    edx,ebx
8f57:	c0 ea 05             	shr    dl,0x5
8f5a:	0f b6 d2             	movzx  edx,dl
8f5d:	8b 14 96             	mov    edx,DWORD PTR [rsi+rdx*4]
8f60:	0f a3 da             	bt     edx,ebx
8f63:	0f 82 4a 01 00 00    	jb     90b3 <quotearg_buffer_restyled+0x3a3>
8f69:	45 84 d2             	test   r10b,r10b
8f6c:	0f 85 41 01 00 00    	jne    90b3 <quotearg_buffer_restyled+0x3a3>
8f72:	83 f0 01             	xor    eax,0x1
8f75:	48 83 c5 01          	add    rbp,0x1
8f79:	44 21 c0             	and    eax,r8d
8f7c:	84 c0                	test   al,al
8f7e:	74 20                	je     8fa0 <quotearg_buffer_restyled+0x290>
8f80:	4d 39 fd             	cmp    r13,r15
8f83:	76 05                	jbe    8f8a <quotearg_buffer_restyled+0x27a>
8f85:	43 c6 04 3e 27       	mov    BYTE PTR [r14+r15*1],0x27
8f8a:	49 8d 47 01          	lea    rax,[r15+0x1]
8f8e:	49 39 c5             	cmp    r13,rax
8f91:	76 06                	jbe    8f99 <quotearg_buffer_restyled+0x289>
8f93:	43 c6 44 3e 01 27    	mov    BYTE PTR [r14+r15*1+0x1],0x27
8f99:	49 83 c7 02          	add    r15,0x2
8f9d:	45 31 c0             	xor    r8d,r8d
8fa0:	4d 39 ef             	cmp    r15,r13
8fa3:	73 04                	jae    8fa9 <quotearg_buffer_restyled+0x299>
8fa5:	43 88 1c 3e          	mov    BYTE PTR [r14+r15*1],bl
8fa9:	0f b6 7c 24 0e       	movzx  edi,BYTE PTR [rsp+0xe]
8fae:	49 83 c7 01          	add    r15,0x1
8fb2:	b8 00 00 00 00       	mov    eax,0x0
8fb7:	45 84 e4             	test   r12b,r12b
8fba:	0f 44 f8             	cmove  edi,eax
8fbd:	40 88 7c 24 0e       	mov    BYTE PTR [rsp+0xe],dil
8fc2:	e9 31 fe ff ff       	jmp    8df8 <quotearg_buffer_restyled+0xe8>
8fc7:	66 0f 1f 84 00 00 00 	nop    WORD PTR [rax+rax*1+0x0]
8fce:	00 00
8fd0:	45 31 d2             	xor    r10d,r10d
8fd3:	8b 44 24 08          	mov    eax,DWORD PTR [rsp+0x8]
8fd7:	83 f8 02             	cmp    eax,0x2
8fda:	0f 84 b8 05 00 00    	je     9598 <quotearg_buffer_restyled+0x888>
8fe0:	83 f8 05             	cmp    eax,0x5
8fe3:	0f 84 6f 05 00 00    	je     9558 <quotearg_buffer_restyled+0x848>
8fe9:	83 f8 02             	cmp    eax,0x2
8fec:	bb 3f 00 00 00       	mov    ebx,0x3f
8ff1:	0f 94 c2             	sete   dl
8ff4:	45 31 e4             	xor    r12d,r12d
8ff7:	31 c0                	xor    eax,eax
8ff9:	e9 3a ff ff ff       	jmp    8f38 <quotearg_buffer_restyled+0x228>
8ffe:	66 90                	xchg   ax,ax
9000:	45 31 d2             	xor    r10d,r10d
9003:	83 7c 24 08 02       	cmp    DWORD PTR [rsp+0x8],0x2
9008:	0f 84 02 05 00 00    	je     9510 <quotearg_buffer_restyled+0x800>
900e:	44 88 64 24 7c       	mov    BYTE PTR [rsp+0x7c],r12b
9013:	31 d2                	xor    edx,edx
9015:	31 c0                	xor    eax,eax
9017:	bb 27 00 00 00       	mov    ebx,0x27
901c:	e9 17 ff ff ff       	jmp    8f38 <quotearg_buffer_restyled+0x228>
9021:	0f 1f 80 00 00 00 00 	nop    DWORD PTR [rax+0x0]
9028:	ba 09 00 00 00       	mov    edx,0x9
902d:	bb 74 00 00 00       	mov    ebx,0x74
9032:	83 7c 24 08 02       	cmp    DWORD PTR [rsp+0x8],0x2
9037:	0f 94 c0             	sete   al
903a:	22 44 24 0f          	and    al,BYTE PTR [rsp+0xf]
903e:	0f 85 4a 01 00 00    	jne    918e <quotearg_buffer_restyled+0x47e>
9044:	80 7c 24 0d 00       	cmp    BYTE PTR [rsp+0xd],0x0
9049:	75 65                	jne    90b0 <quotearg_buffer_restyled+0x3a0>
904b:	89 d3                	mov    ebx,edx
904d:	45 31 e4             	xor    r12d,r12d
9050:	31 c0                	xor    eax,eax
9052:	80 7c 24 0f 00       	cmp    BYTE PTR [rsp+0xf],0x0
9057:	0f 85 ee fe ff ff    	jne    8f4b <quotearg_buffer_restyled+0x23b>
905d:	e9 07 ff ff ff       	jmp    8f69 <quotearg_buffer_restyled+0x259>
9062:	66 0f 1f 44 00 00    	nop    WORD PTR [rax+rax*1+0x0]
9068:	ba 08 00 00 00       	mov    edx,0x8
906d:	bb 62 00 00 00       	mov    ebx,0x62
9072:	eb d0                	jmp    9044 <quotearg_buffer_restyled+0x334>
9074:	0f 1f 40 00          	nop    DWORD PTR [rax+0x0]
9078:	83 7c 24 08 02       	cmp    DWORD PTR [rsp+0x8],0x2
907d:	0f 84 cd 03 00 00    	je     9450 <quotearg_buffer_restyled+0x740>
9083:	80 7c 24 0d 00       	cmp    BYTE PTR [rsp+0xd],0x0
9088:	0f 84 12 02 00 00    	je     92a0 <quotearg_buffer_restyled+0x590>
908e:	80 7c 24 0f 00       	cmp    BYTE PTR [rsp+0xf],0x0
9093:	0f 84 07 02 00 00    	je     92a0 <quotearg_buffer_restyled+0x590>
9099:	48 83 7c 24 18 00    	cmp    QWORD PTR [rsp+0x18],0x0
909f:	0f 85 b6 03 00 00    	jne    945b <quotearg_buffer_restyled+0x74b>
90a5:	bb 5c 00 00 00       	mov    ebx,0x5c
90aa:	66 0f 1f 44 00 00    	nop    WORD PTR [rax+rax*1+0x0]
90b0:	45 31 e4             	xor    r12d,r12d
90b3:	83 7c 24 08 02       	cmp    DWORD PTR [rsp+0x8],0x2
90b8:	0f 94 c2             	sete   dl
90bb:	80 7c 24 0f 00       	cmp    BYTE PTR [rsp+0xf],0x0
90c0:	89 d0                	mov    eax,edx
90c2:	0f 85 50 08 00 00    	jne    9918 <quotearg_buffer_restyled+0xc08>
90c8:	44 89 c0             	mov    eax,r8d
90cb:	83 f0 01             	xor    eax,0x1
90ce:	20 d0                	and    al,dl
90d0:	74 2f                	je     9101 <quotearg_buffer_restyled+0x3f1>
90d2:	4d 39 fd             	cmp    r13,r15
90d5:	76 05                	jbe    90dc <quotearg_buffer_restyled+0x3cc>
90d7:	43 c6 04 3e 27       	mov    BYTE PTR [r14+r15*1],0x27
90dc:	49 8d 57 01          	lea    rdx,[r15+0x1]
90e0:	49 39 d5             	cmp    r13,rdx
90e3:	76 06                	jbe    90eb <quotearg_buffer_restyled+0x3db>
90e5:	43 c6 44 3e 01 24    	mov    BYTE PTR [r14+r15*1+0x1],0x24
90eb:	49 8d 57 02          	lea    rdx,[r15+0x2]
90ef:	49 39 d5             	cmp    r13,rdx
90f2:	76 06                	jbe    90fa <quotearg_buffer_restyled+0x3ea>
90f4:	43 c6 44 3e 02 27    	mov    BYTE PTR [r14+r15*1+0x2],0x27
90fa:	49 83 c7 03          	add    r15,0x3
90fe:	41 89 c0             	mov    r8d,eax
9101:	4d 39 fd             	cmp    r13,r15
9104:	76 05                	jbe    910b <quotearg_buffer_restyled+0x3fb>
9106:	43 c6 04 3e 5c       	mov    BYTE PTR [r14+r15*1],0x5c
910b:	49 83 c7 01          	add    r15,0x1
910f:	48 83 c5 01          	add    rbp,0x1
9113:	e9 88 fe ff ff       	jmp    8fa0 <quotearg_buffer_restyled+0x290>
9118:	0f 1f 84 00 00 00 00 	nop    DWORD PTR [rax+rax*1+0x0]
911f:	00
9120:	80 7c 24 0d 00       	cmp    BYTE PTR [rsp+0xd],0x0
9125:	0f 85 c8 01 00 00    	jne    92f3 <quotearg_buffer_restyled+0x5e3>
912b:	31 d2                	xor    edx,edx
912d:	f6 44 24 78 01       	test   BYTE PTR [rsp+0x78],0x1
9132:	0f 84 13 ff ff ff    	je     904b <quotearg_buffer_restyled+0x33b>
9138:	48 83 c5 01          	add    rbp,0x1
913c:	e9 b7 fc ff ff       	jmp    8df8 <quotearg_buffer_restyled+0xe8>
9141:	0f 1f 80 00 00 00 00 	nop    DWORD PTR [rax+0x0]
9148:	83 7c 24 08 02       	cmp    DWORD PTR [rsp+0x8],0x2
914d:	0f 94 c2             	sete   dl
9150:	31 c0                	xor    eax,eax
9152:	e9 e1 fd ff ff       	jmp    8f38 <quotearg_buffer_restyled+0x228>
9157:	66 0f 1f 84 00 00 00 	nop    WORD PTR [rax+rax*1+0x0]
915e:	00 00
9160:	ba 07 00 00 00       	mov    edx,0x7
9165:	bb 61 00 00 00       	mov    ebx,0x61
916a:	e9 d5 fe ff ff       	jmp    9044 <quotearg_buffer_restyled+0x334>
916f:	90                   	nop
9170:	83 7c 24 08 02       	cmp    DWORD PTR [rsp+0x8],0x2
9175:	0f 94 c2             	sete   dl
9178:	48 85 ed             	test   rbp,rbp
917b:	0f 85 ab fd ff ff    	jne    8f2c <quotearg_buffer_restyled+0x21c>
9181:	0f b6 44 24 0f       	movzx  eax,BYTE PTR [rsp+0xf]
9186:	20 d0                	and    al,dl
9188:	0f 84 aa fd ff ff    	je     8f38 <quotearg_buffer_restyled+0x228>
918e:	4c 89 dd             	mov    rbp,r11
9191:	c7 44 24 08 02 00 00 	mov    DWORD PTR [rsp+0x8],0x2
9198:	00
9199:	e9 fb 06 00 00       	jmp    9899 <quotearg_buffer_restyled+0xb89>
919e:	66 90                	xchg   ax,ax
91a0:	83 7c 24 08 02       	cmp    DWORD PTR [rsp+0x8],0x2
91a5:	0f 94 c2             	sete   dl
91a8:	45 31 e4             	xor    r12d,r12d
91ab:	eb d4                	jmp    9181 <quotearg_buffer_restyled+0x471>
91ad:	0f 1f 00             	nop    DWORD PTR [rax]
91b0:	83 7c 24 08 02       	cmp    DWORD PTR [rsp+0x8],0x2
91b5:	bb 20 00 00 00       	mov    ebx,0x20
91ba:	0f 94 c2             	sete   dl
91bd:	eb c2                	jmp    9181 <quotearg_buffer_restyled+0x471>
91bf:	90                   	nop
91c0:	ba 0d 00 00 00       	mov    edx,0xd
91c5:	bb 72 00 00 00       	mov    ebx,0x72
91ca:	e9 63 fe ff ff       	jmp    9032 <quotearg_buffer_restyled+0x322>
91cf:	90                   	nop
91d0:	ba 0c 00 00 00       	mov    edx,0xc
91d5:	bb 66 00 00 00       	mov    ebx,0x66
91da:	e9 65 fe ff ff       	jmp    9044 <quotearg_buffer_restyled+0x334>
91df:	90                   	nop
91e0:	ba 0b 00 00 00       	mov    edx,0xb
91e5:	bb 76 00 00 00       	mov    ebx,0x76
91ea:	e9 55 fe ff ff       	jmp    9044 <quotearg_buffer_restyled+0x334>
91ef:	90                   	nop
91f0:	ba 0a 00 00 00       	mov    edx,0xa
91f5:	bb 6e 00 00 00       	mov    ebx,0x6e
91fa:	e9 33 fe ff ff       	jmp    9032 <quotearg_buffer_restyled+0x322>
91ff:	90                   	nop
9200:	45 31 d2             	xor    r10d,r10d
9203:	0f 1f 44 00 00       	nop    DWORD PTR [rax+rax*1+0x0]
9208:	48 83 7c 24 58 01    	cmp    QWORD PTR [rsp+0x58],0x1
920e:	0f 85 a4 03 00 00    	jne    95b8 <quotearg_buffer_restyled+0x8a8>
9214:	4c 89 5c 24 38       	mov    QWORD PTR [rsp+0x38],r11
9219:	44 88 44 24 30       	mov    BYTE PTR [rsp+0x30],r8b
921e:	44 88 54 24 28       	mov    BYTE PTR [rsp+0x28],r10b
9223:	e8 08 99 ff ff       	call   2b30 <__ctype_b_loc@plt>
9228:	48 8b 08             	mov    rcx,QWORD PTR [rax]
922b:	0f b6 d3             	movzx  edx,bl
922e:	44 0f b6 54 24 28    	movzx  r10d,BYTE PTR [rsp+0x28]
9234:	44 0f b6 44 24 30    	movzx  r8d,BYTE PTR [rsp+0x30]
923a:	4c 8b 5c 24 38       	mov    r11,QWORD PTR [rsp+0x38]
923f:	bf 01 00 00 00       	mov    edi,0x1
9244:	0f b7 04 51          	movzx  eax,WORD PTR [rcx+rdx*2]
9248:	66 25 00 40          	and    ax,0x4000
924c:	41 0f 95 c4          	setne  r12b
9250:	0f 94 c0             	sete   al
9253:	22 44 24 0d          	and    al,BYTE PTR [rsp+0xd]
9257:	84 c0                	test   al,al
9259:	0f 85 92 09 00 00    	jne    9bf1 <quotearg_buffer_restyled+0xee1>
925f:	83 7c 24 08 02       	cmp    DWORD PTR [rsp+0x8],0x2
9264:	0f 94 c2             	sete   dl
9267:	e9 cc fc ff ff       	jmp    8f38 <quotearg_buffer_restyled+0x228>
926c:	0f 1f 40 00          	nop    DWORD PTR [rax+0x0]
9270:	41 0f b6 19          	movzx  ebx,BYTE PTR [r9]
9274:	80 fb 7e             	cmp    bl,0x7e
9277:	77 87                	ja     9200 <quotearg_buffer_restyled+0x4f0>
9279:	48 8d 0d 68 85 00 00 	lea    rcx,[rip+0x8568]        # 117e8 <yytranslate+0x408>
9280:	0f b6 d3             	movzx  edx,bl
9283:	48 63 04 91          	movsxd rax,DWORD PTR [rcx+rdx*4]
9287:	48 01 c8             	add    rax,rcx
928a:	ff e0                	jmp    rax
928c:	0f 1f 40 00          	nop    DWORD PTR [rax+0x0]
9290:	45 31 d2             	xor    r10d,r10d
9293:	80 7c 24 0d 00       	cmp    BYTE PTR [rsp+0xd],0x0
9298:	0f 85 f0 fd ff ff    	jne    908e <quotearg_buffer_restyled+0x37e>
929e:	66 90                	xchg   ax,ax
92a0:	ba 5c 00 00 00       	mov    edx,0x5c
92a5:	bb 5c 00 00 00       	mov    ebx,0x5c
92aa:	e9 95 fd ff ff       	jmp    9044 <quotearg_buffer_restyled+0x334>
92af:	90                   	nop
92b0:	ba 0c 00 00 00       	mov    edx,0xc
92b5:	45 31 d2             	xor    r10d,r10d
92b8:	bb 66 00 00 00       	mov    ebx,0x66
92bd:	e9 82 fd ff ff       	jmp    9044 <quotearg_buffer_restyled+0x334>
92c2:	66 0f 1f 44 00 00    	nop    WORD PTR [rax+rax*1+0x0]
92c8:	ba 0a 00 00 00       	mov    edx,0xa
92cd:	45 31 d2             	xor    r10d,r10d
92d0:	bb 6e 00 00 00       	mov    ebx,0x6e
92d5:	e9 58 fd ff ff       	jmp    9032 <quotearg_buffer_restyled+0x322>
92da:	66 0f 1f 44 00 00    	nop    WORD PTR [rax+rax*1+0x0]
92e0:	bb 61 00 00 00       	mov    ebx,0x61
92e5:	e9 c6 fd ff ff       	jmp    90b0 <quotearg_buffer_restyled+0x3a0>
92ea:	66 0f 1f 44 00 00    	nop    WORD PTR [rax+rax*1+0x0]
92f0:	45 31 d2             	xor    r10d,r10d
92f3:	83 7c 24 08 02       	cmp    DWORD PTR [rsp+0x8],0x2
92f8:	0f 94 c2             	sete   dl
92fb:	80 7c 24 0f 00       	cmp    BYTE PTR [rsp+0xf],0x0
9300:	0f 85 94 0b 00 00    	jne    9e9a <quotearg_buffer_restyled+0x118a>
9306:	44 89 c0             	mov    eax,r8d
9309:	4c 89 f9             	mov    rcx,r15
930c:	83 f0 01             	xor    eax,0x1
930f:	20 d0                	and    al,dl
9311:	74 2d                	je     9340 <quotearg_buffer_restyled+0x630>
9313:	4d 39 fd             	cmp    r13,r15
9316:	76 05                	jbe    931d <quotearg_buffer_restyled+0x60d>
9318:	43 c6 04 3e 27       	mov    BYTE PTR [r14+r15*1],0x27
931d:	49 8d 4f 01          	lea    rcx,[r15+0x1]
9321:	49 39 cd             	cmp    r13,rcx
9324:	76 06                	jbe    932c <quotearg_buffer_restyled+0x61c>
9326:	43 c6 44 3e 01 24    	mov    BYTE PTR [r14+r15*1+0x1],0x24
932c:	49 8d 4f 02          	lea    rcx,[r15+0x2]
9330:	49 39 cd             	cmp    r13,rcx
9333:	0f 87 30 06 00 00    	ja     9969 <quotearg_buffer_restyled+0xc59>
9339:	49 8d 4f 03          	lea    rcx,[r15+0x3]
933d:	41 89 c0             	mov    r8d,eax
9340:	49 39 cd             	cmp    r13,rcx
9343:	76 05                	jbe    934a <quotearg_buffer_restyled+0x63a>
9345:	41 c6 04 0e 5c       	mov    BYTE PTR [r14+rcx*1],0x5c
934a:	83 7c 24 08 02       	cmp    DWORD PTR [rsp+0x8],0x2
934f:	4c 8d 79 01          	lea    r15,[rcx+0x1]
9353:	0f 84 00 06 00 00    	je     9959 <quotearg_buffer_restyled+0xc49>
9359:	48 8d 45 01          	lea    rax,[rbp+0x1]
935d:	4c 39 d8             	cmp    rax,r11
9360:	73 19                	jae    937b <quotearg_buffer_restyled+0x66b>
9362:	48 8b 44 24 10       	mov    rax,QWORD PTR [rsp+0x10]
9367:	0f b6 44 28 01       	movzx  eax,BYTE PTR [rax+rbp*1+0x1]
936c:	88 44 24 28          	mov    BYTE PTR [rsp+0x28],al
9370:	83 e8 30             	sub    eax,0x30
9373:	3c 09                	cmp    al,0x9
9375:	0f 86 2e 08 00 00    	jbe    9ba9 <quotearg_buffer_restyled+0xe99>
937b:	44 89 e0             	mov    eax,r12d
937e:	bb 30 00 00 00       	mov    ebx,0x30
9383:	45 31 e4             	xor    r12d,r12d
9386:	e9 ad fb ff ff       	jmp    8f38 <quotearg_buffer_restyled+0x228>
938b:	0f 1f 44 00 00       	nop    DWORD PTR [rax+rax*1+0x0]
9390:	83 7c 24 08 02       	cmp    DWORD PTR [rsp+0x8],0x2
9395:	45 89 d4             	mov    r12d,r10d
9398:	0f 94 c2             	sete   dl
939b:	45 31 d2             	xor    r10d,r10d
939e:	31 c0                	xor    eax,eax
93a0:	e9 93 fb ff ff       	jmp    8f38 <quotearg_buffer_restyled+0x228>
93a5:	0f 1f 00             	nop    DWORD PTR [rax]
93a8:	83 7c 24 08 02       	cmp    DWORD PTR [rsp+0x8],0x2
93ad:	0f 94 c2             	sete   dl
93b0:	45 31 d2             	xor    r10d,r10d
93b3:	e9 c0 fd ff ff       	jmp    9178 <quotearg_buffer_restyled+0x468>
93b8:	0f 1f 84 00 00 00 00 	nop    DWORD PTR [rax+rax*1+0x0]
93bf:	00
93c0:	83 7c 24 08 02       	cmp    DWORD PTR [rsp+0x8],0x2
93c5:	0f 94 c2             	sete   dl
93c8:	45 31 d2             	xor    r10d,r10d
93cb:	45 31 e4             	xor    r12d,r12d
93ce:	e9 ae fd ff ff       	jmp    9181 <quotearg_buffer_restyled+0x471>
93d3:	0f 1f 44 00 00       	nop    DWORD PTR [rax+rax*1+0x0]
93d8:	83 7c 24 08 02       	cmp    DWORD PTR [rsp+0x8],0x2
93dd:	45 89 d4             	mov    r12d,r10d
93e0:	bb 20 00 00 00       	mov    ebx,0x20
93e5:	0f 94 c2             	sete   dl
93e8:	45 31 d2             	xor    r10d,r10d
93eb:	e9 91 fd ff ff       	jmp    9181 <quotearg_buffer_restyled+0x471>
93f0:	ba 0d 00 00 00       	mov    edx,0xd
93f5:	45 31 d2             	xor    r10d,r10d
93f8:	bb 72 00 00 00       	mov    ebx,0x72
93fd:	e9 30 fc ff ff       	jmp    9032 <quotearg_buffer_restyled+0x322>
9402:	66 0f 1f 44 00 00    	nop    WORD PTR [rax+rax*1+0x0]
9408:	bb 76 00 00 00       	mov    ebx,0x76
940d:	e9 9e fc ff ff       	jmp    90b0 <quotearg_buffer_restyled+0x3a0>
9412:	66 0f 1f 44 00 00    	nop    WORD PTR [rax+rax*1+0x0]
9418:	ba 09 00 00 00       	mov    edx,0x9
941d:	45 31 d2             	xor    r10d,r10d
9420:	bb 74 00 00 00       	mov    ebx,0x74
9425:	e9 08 fc ff ff       	jmp    9032 <quotearg_buffer_restyled+0x322>
942a:	66 0f 1f 44 00 00    	nop    WORD PTR [rax+rax*1+0x0]
9430:	bb 62 00 00 00       	mov    ebx,0x62
9435:	e9 76 fc ff ff       	jmp    90b0 <quotearg_buffer_restyled+0x3a0>
943a:	66 0f 1f 44 00 00    	nop    WORD PTR [rax+rax*1+0x0]
9440:	45 31 d2             	xor    r10d,r10d
9443:	e9 98 fa ff ff       	jmp    8ee0 <quotearg_buffer_restyled+0x1d0>
9448:	0f 1f 84 00 00 00 00 	nop    DWORD PTR [rax+rax*1+0x0]
944f:	00
9450:	80 7c 24 0f 00       	cmp    BYTE PTR [rsp+0xf],0x0
9455:	0f 85 65 09 00 00    	jne    9dc0 <quotearg_buffer_restyled+0x10b0>
945b:	48 83 c5 01          	add    rbp,0x1
945f:	44 89 c0             	mov    eax,r8d
9462:	45 31 e4             	xor    r12d,r12d
9465:	bb 5c 00 00 00       	mov    ebx,0x5c
946a:	e9 0d fb ff ff       	jmp    8f7c <quotearg_buffer_restyled+0x26c>
946f:	90                   	nop
9470:	83 7c 24 08 02       	cmp    DWORD PTR [rsp+0x8],0x2
9475:	0f b6 5c 24 0f       	movzx  ebx,BYTE PTR [rsp+0xf]
947a:	45 89 c4             	mov    r12d,r8d
947d:	4c 89 dd             	mov    rbp,r11
9480:	0f 94 c2             	sete   dl
9483:	89 d8                	mov    eax,ebx
9485:	4d 85 ff             	test   r15,r15
9488:	0f 94 c1             	sete   cl
948b:	21 d0                	and    eax,edx
948d:	20 c8                	and    al,cl
948f:	0f 85 61 0a 00 00    	jne    9ef6 <quotearg_buffer_restyled+0x11e6>
9495:	89 d8                	mov    eax,ebx
9497:	83 f0 01             	xor    eax,0x1
949a:	20 c2                	and    dl,al
949c:	0f 84 6a 09 00 00    	je     9e0c <quotearg_buffer_restyled+0x10fc>
94a2:	80 7c 24 7c 00       	cmp    BYTE PTR [rsp+0x7c],0x0
94a7:	0f 84 5d 09 00 00    	je     9e0a <quotearg_buffer_restyled+0x10fa>
94ad:	80 7c 24 0e 00       	cmp    BYTE PTR [rsp+0xe],0x0
94b2:	0f 85 f5 09 00 00    	jne    9ead <quotearg_buffer_restyled+0x119d>
94b8:	4d 85 ed             	test   r13,r13
94bb:	0f 94 c0             	sete   al
94be:	48 83 7c 24 50 00    	cmp    QWORD PTR [rsp+0x50],0x0
94c4:	0f 95 c2             	setne  dl
94c7:	20 d0                	and    al,dl
94c9:	0f 84 1d 0a 00 00    	je     9eec <quotearg_buffer_restyled+0x11dc>
94cf:	4c 8b 6c 24 50       	mov    r13,QWORD PTR [rsp+0x50]
94d4:	48 8d 1d 80 80 00 00 	lea    rbx,[rip+0x8080]        # 1155b <yytranslate+0x17b>
94db:	41 c6 06 27          	mov    BYTE PTR [r14],0x27
94df:	c7 44 24 08 02 00 00 	mov    DWORD PTR [rsp+0x8],0x2
94e6:	00
94e7:	41 bf 01 00 00 00    	mov    r15d,0x1
94ed:	48 c7 44 24 18 01 00 	mov    QWORD PTR [rsp+0x18],0x1
94f4:	00 00
94f6:	c6 44 24 0f 00       	mov    BYTE PTR [rsp+0xf],0x0
94fb:	48 89 5c 24 48       	mov    QWORD PTR [rsp+0x48],rbx
9500:	88 44 24 7c          	mov    BYTE PTR [rsp+0x7c],al
9504:	e9 da f8 ff ff       	jmp    8de3 <quotearg_buffer_restyled+0xd3>
9509:	0f 1f 80 00 00 00 00 	nop    DWORD PTR [rax+0x0]
9510:	80 7c 24 0f 00       	cmp    BYTE PTR [rsp+0xf],0x0
9515:	0f 85 a5 08 00 00    	jne    9dc0 <quotearg_buffer_restyled+0x10b0>
951b:	4d 85 ed             	test   r13,r13
951e:	0f 84 fc 03 00 00    	je     9920 <quotearg_buffer_restyled+0xc10>
9524:	31 d2                	xor    edx,edx
9526:	48 83 7c 24 50 00    	cmp    QWORD PTR [rsp+0x50],0x0
952c:	0f 85 ee 03 00 00    	jne    9920 <quotearg_buffer_restyled+0xc10>
9532:	4c 89 6c 24 50       	mov    QWORD PTR [rsp+0x50],r13
9537:	49 83 c7 03          	add    r15,0x3
953b:	31 c0                	xor    eax,eax
953d:	44 88 64 24 7c       	mov    BYTE PTR [rsp+0x7c],r12b
9542:	45 31 c0             	xor    r8d,r8d
9545:	49 89 d5             	mov    r13,rdx
9548:	bb 27 00 00 00       	mov    ebx,0x27
954d:	e9 17 fa ff ff       	jmp    8f69 <quotearg_buffer_restyled+0x259>
9552:	66 0f 1f 44 00 00    	nop    WORD PTR [rax+rax*1+0x0]
9558:	f6 44 24 78 04       	test   BYTE PTR [rsp+0x78],0x4
955d:	74 21                	je     9580 <quotearg_buffer_restyled+0x870>
955f:	48 8d 4d 02          	lea    rcx,[rbp+0x2]
9563:	4c 39 d9             	cmp    rcx,r11
9566:	73 18                	jae    9580 <quotearg_buffer_restyled+0x870>
9568:	48 8b 44 24 10       	mov    rax,QWORD PTR [rsp+0x10]
956d:	80 7c 28 01 3f       	cmp    BYTE PTR [rax+rbp*1+0x1],0x3f
9572:	0f 84 8a 07 00 00    	je     9d02 <quotearg_buffer_restyled+0xff2>
9578:	0f 1f 84 00 00 00 00 	nop    DWORD PTR [rax+rax*1+0x0]
957f:	00
9580:	31 d2                	xor    edx,edx
9582:	45 31 e4             	xor    r12d,r12d
9585:	31 c0                	xor    eax,eax
9587:	bb 3f 00 00 00       	mov    ebx,0x3f
958c:	e9 a7 f9 ff ff       	jmp    8f38 <quotearg_buffer_restyled+0x228>
9591:	0f 1f 80 00 00 00 00 	nop    DWORD PTR [rax+0x0]
9598:	80 7c 24 0f 00       	cmp    BYTE PTR [rsp+0xf],0x0
959d:	0f 85 1d 08 00 00    	jne    9dc0 <quotearg_buffer_restyled+0x10b0>
95a3:	45 31 e4             	xor    r12d,r12d
95a6:	31 c0                	xor    eax,eax
95a8:	bb 3f 00 00 00       	mov    ebx,0x3f
95ad:	e9 b7 f9 ff ff       	jmp    8f69 <quotearg_buffer_restyled+0x259>
95b2:	66 0f 1f 44 00 00    	nop    WORD PTR [rax+rax*1+0x0]
95b8:	48 8d 84 24 a0 00 00 	lea    rax,[rsp+0xa0]
95bf:	00
95c0:	49 83 fb ff          	cmp    r11,0xffffffffffffffff
95c4:	48 c7 84 24 a0 00 00 	mov    QWORD PTR [rsp+0xa0],0x0
95cb:	00 00 00 00 00
95d0:	48 89 44 24 28       	mov    QWORD PTR [rsp+0x28],rax
95d5:	75 2d                	jne    9604 <quotearg_buffer_restyled+0x8f4>
95d7:	48 8b 7c 24 10       	mov    rdi,QWORD PTR [rsp+0x10]
95dc:	44 88 44 24 40       	mov    BYTE PTR [rsp+0x40],r8b
95e1:	44 88 54 24 38       	mov    BYTE PTR [rsp+0x38],r10b
95e6:	4c 89 4c 24 30       	mov    QWORD PTR [rsp+0x30],r9
95eb:	e8 20 92 ff ff       	call   2810 <strlen@plt>
95f0:	44 0f b6 44 24 40    	movzx  r8d,BYTE PTR [rsp+0x40]
95f6:	44 0f b6 54 24 38    	movzx  r10d,BYTE PTR [rsp+0x38]
95fc:	49 89 c3             	mov    r11,rax
95ff:	4c 8b 4c 24 30       	mov    r9,QWORD PTR [rsp+0x30]
9604:	48 8d 84 24 9c 00 00 	lea    rax,[rsp+0x9c]
960b:	00
960c:	31 c9                	xor    ecx,ecx
960e:	88 5c 24 7e          	mov    BYTE PTR [rsp+0x7e],bl
9612:	44 88 44 24 7d       	mov    BYTE PTR [rsp+0x7d],r8b
9617:	48 89 cb             	mov    rbx,rcx
961a:	4c 89 8c 24 88 00 00 	mov    QWORD PTR [rsp+0x88],r9
9621:	00
9622:	48 89 44 24 38       	mov    QWORD PTR [rsp+0x38],rax
9627:	44 88 54 24 7f       	mov    BYTE PTR [rsp+0x7f],r10b
962c:	4c 89 bc 24 80 00 00 	mov    QWORD PTR [rsp+0x80],r15
9633:	00
9634:	4c 89 74 24 40       	mov    QWORD PTR [rsp+0x40],r14
9639:	4c 89 6c 24 70       	mov    QWORD PTR [rsp+0x70],r13
963e:	4c 89 5c 24 30       	mov    QWORD PTR [rsp+0x30],r11
9643:	48 8b 44 24 10       	mov    rax,QWORD PTR [rsp+0x10]
9648:	4c 8d 74 1d 00       	lea    r14,[rbp+rbx*1+0x0]
964d:	48 8b 54 24 30       	mov    rdx,QWORD PTR [rsp+0x30]
9652:	48 8b 4c 24 28       	mov    rcx,QWORD PTR [rsp+0x28]
9657:	48 8b 7c 24 38       	mov    rdi,QWORD PTR [rsp+0x38]
965c:	4e 8d 2c 30          	lea    r13,[rax+r14*1]
9660:	4c 29 f2             	sub    rdx,r14
9663:	4c 89 ee             	mov    rsi,r13
9666:	e8 f5 1a 00 00       	call   b160 <rpl_mbrtowc>
966b:	48 85 c0             	test   rax,rax
966e:	49 89 c7             	mov    r15,rax
9671:	74 4e                	je     96c1 <quotearg_buffer_restyled+0x9b1>
9673:	48 83 f8 ff          	cmp    rax,0xffffffffffffffff
9677:	0f 84 18 06 00 00    	je     9c95 <quotearg_buffer_restyled+0xf85>
967d:	48 83 f8 fe          	cmp    rax,0xfffffffffffffffe
9681:	0f 84 9a 05 00 00    	je     9c21 <quotearg_buffer_restyled+0xf11>
9687:	83 7c 24 08 02       	cmp    DWORD PTR [rsp+0x8],0x2
968c:	0f 94 c0             	sete   al
968f:	22 44 24 0f          	and    al,BYTE PTR [rsp+0xf]
9693:	0f 85 97 01 00 00    	jne    9830 <quotearg_buffer_restyled+0xb20>
9699:	8b bc 24 9c 00 00 00 	mov    edi,DWORD PTR [rsp+0x9c]
96a0:	e8 6b 94 ff ff       	call   2b10 <iswprint@plt>
96a5:	48 8b 7c 24 28       	mov    rdi,QWORD PTR [rsp+0x28]
96aa:	85 c0                	test   eax,eax
96ac:	b8 00 00 00 00       	mov    eax,0x0
96b1:	44 0f 44 e0          	cmove  r12d,eax
96b5:	4c 01 fb             	add    rbx,r15
96b8:	e8 43 94 ff ff       	call   2b00 <mbsinit@plt>
96bd:	85 c0                	test   eax,eax
96bf:	74 82                	je     9643 <quotearg_buffer_restyled+0x933>
96c1:	44 89 e2             	mov    edx,r12d
96c4:	48 89 df             	mov    rdi,rbx
96c7:	44 0f b6 44 24 7d    	movzx  r8d,BYTE PTR [rsp+0x7d]
96cd:	83 f2 01             	xor    edx,0x1
96d0:	0f b6 5c 24 7e       	movzx  ebx,BYTE PTR [rsp+0x7e]
96d5:	44 0f b6 54 24 7f    	movzx  r10d,BYTE PTR [rsp+0x7f]
96db:	22 54 24 0d          	and    dl,BYTE PTR [rsp+0xd]
96df:	4c 8b bc 24 80 00 00 	mov    r15,QWORD PTR [rsp+0x80]
96e6:	00
96e7:	4c 8b 74 24 40       	mov    r14,QWORD PTR [rsp+0x40]
96ec:	4c 8b 6c 24 70       	mov    r13,QWORD PTR [rsp+0x70]
96f1:	4c 8b 5c 24 30       	mov    r11,QWORD PTR [rsp+0x30]
96f6:	48 83 ff 01          	cmp    rdi,0x1
96fa:	0f 86 fb 05 00 00    	jbe    9cfb <quotearg_buffer_restyled+0xfeb>
9700:	48 89 f9             	mov    rcx,rdi
9703:	31 f6                	xor    esi,esi
9705:	44 0f b6 4c 24 0f    	movzx  r9d,BYTE PTR [rsp+0xf]
970b:	48 01 e9             	add    rcx,rbp
970e:	48 8b 7c 24 10       	mov    rdi,QWORD PTR [rsp+0x10]
9713:	e9 b6 00 00 00       	jmp    97ce <quotearg_buffer_restyled+0xabe>
9718:	0f 1f 84 00 00 00 00 	nop    DWORD PTR [rax+rax*1+0x0]
971f:	00
9720:	83 7c 24 08 02       	cmp    DWORD PTR [rsp+0x8],0x2
9725:	0f 94 c0             	sete   al
9728:	45 84 c9             	test   r9b,r9b
972b:	0f 85 af 04 00 00    	jne    9be0 <quotearg_buffer_restyled+0xed0>
9731:	44 89 c6             	mov    esi,r8d
9734:	83 f6 01             	xor    esi,0x1
9737:	40 20 f0             	and    al,sil
973a:	74 2f                	je     976b <quotearg_buffer_restyled+0xa5b>
973c:	4d 39 fd             	cmp    r13,r15
973f:	76 05                	jbe    9746 <quotearg_buffer_restyled+0xa36>
9741:	43 c6 04 3e 27       	mov    BYTE PTR [r14+r15*1],0x27
9746:	49 8d 77 01          	lea    rsi,[r15+0x1]
974a:	49 39 f5             	cmp    r13,rsi
974d:	76 06                	jbe    9755 <quotearg_buffer_restyled+0xa45>
974f:	43 c6 44 3e 01 24    	mov    BYTE PTR [r14+r15*1+0x1],0x24
9755:	49 8d 77 02          	lea    rsi,[r15+0x2]
9759:	49 39 f5             	cmp    r13,rsi
975c:	76 06                	jbe    9764 <quotearg_buffer_restyled+0xa54>
975e:	43 c6 44 3e 02 27    	mov    BYTE PTR [r14+r15*1+0x2],0x27
9764:	49 83 c7 03          	add    r15,0x3
9768:	41 89 c0             	mov    r8d,eax
976b:	4d 39 fd             	cmp    r13,r15
976e:	76 05                	jbe    9775 <quotearg_buffer_restyled+0xa65>
9770:	43 c6 04 3e 5c       	mov    BYTE PTR [r14+r15*1],0x5c
9775:	49 8d 47 01          	lea    rax,[r15+0x1]
9779:	49 39 c5             	cmp    r13,rax
977c:	76 0d                	jbe    978b <quotearg_buffer_restyled+0xa7b>
977e:	89 d8                	mov    eax,ebx
9780:	c0 e8 06             	shr    al,0x6
9783:	83 c0 30             	add    eax,0x30
9786:	43 88 44 3e 01       	mov    BYTE PTR [r14+r15*1+0x1],al
978b:	49 8d 47 02          	lea    rax,[r15+0x2]
978f:	49 39 c5             	cmp    r13,rax
9792:	76 10                	jbe    97a4 <quotearg_buffer_restyled+0xa94>
9794:	89 d8                	mov    eax,ebx
9796:	c0 e8 03             	shr    al,0x3
9799:	83 e0 07             	and    eax,0x7
979c:	83 c0 30             	add    eax,0x30
979f:	43 88 44 3e 02       	mov    BYTE PTR [r14+r15*1+0x2],al
97a4:	83 e3 07             	and    ebx,0x7
97a7:	48 83 c5 01          	add    rbp,0x1
97ab:	49 83 c7 03          	add    r15,0x3
97af:	83 c3 30             	add    ebx,0x30
97b2:	48 39 cd             	cmp    rbp,rcx
97b5:	0f 83 e5 f7 ff ff    	jae    8fa0 <quotearg_buffer_restyled+0x290>
97bb:	89 d6                	mov    esi,edx
97bd:	4d 39 fd             	cmp    r13,r15
97c0:	76 04                	jbe    97c6 <quotearg_buffer_restyled+0xab6>
97c2:	43 88 1c 3e          	mov    BYTE PTR [r14+r15*1],bl
97c6:	0f b6 1c 2f          	movzx  ebx,BYTE PTR [rdi+rbp*1]
97ca:	49 83 c7 01          	add    r15,0x1
97ce:	84 d2                	test   dl,dl
97d0:	0f 85 4a ff ff ff    	jne    9720 <quotearg_buffer_restyled+0xa10>
97d6:	89 f0                	mov    eax,esi
97d8:	83 f0 01             	xor    eax,0x1
97db:	44 21 c0             	and    eax,r8d
97de:	45 84 d2             	test   r10b,r10b
97e1:	74 0e                	je     97f1 <quotearg_buffer_restyled+0xae1>
97e3:	4d 39 fd             	cmp    r13,r15
97e6:	76 05                	jbe    97ed <quotearg_buffer_restyled+0xadd>
97e8:	43 c6 04 3e 5c       	mov    BYTE PTR [r14+r15*1],0x5c
97ed:	49 83 c7 01          	add    r15,0x1
97f1:	48 83 c5 01          	add    rbp,0x1
97f5:	48 39 cd             	cmp    rbp,rcx
97f8:	0f 83 7e f7 ff ff    	jae    8f7c <quotearg_buffer_restyled+0x26c>
97fe:	84 c0                	test   al,al
9800:	0f 84 f8 03 00 00    	je     9bfe <quotearg_buffer_restyled+0xeee>
9806:	4d 39 fd             	cmp    r13,r15
9809:	76 05                	jbe    9810 <quotearg_buffer_restyled+0xb00>
980b:	43 c6 04 3e 27       	mov    BYTE PTR [r14+r15*1],0x27
9810:	49 8d 47 01          	lea    rax,[r15+0x1]
9814:	49 39 c5             	cmp    r13,rax
9817:	76 06                	jbe    981f <quotearg_buffer_restyled+0xb0f>
9819:	43 c6 44 3e 01 27    	mov    BYTE PTR [r14+r15*1+0x1],0x27
981f:	49 83 c7 02          	add    r15,0x2
9823:	45 31 d2             	xor    r10d,r10d
9826:	45 31 c0             	xor    r8d,r8d
9829:	eb 92                	jmp    97bd <quotearg_buffer_restyled+0xaad>
982b:	0f 1f 44 00 00       	nop    DWORD PTR [rax+rax*1+0x0]
9830:	49 83 ff 01          	cmp    r15,0x1
9834:	0f 84 5f fe ff ff    	je     9699 <quotearg_buffer_restyled+0x989>
983a:	48 8b 7c 24 10       	mov    rdi,QWORD PTR [rsp+0x10]
983f:	4a 8d 0c 3f          	lea    rcx,[rdi+r15*1]
9843:	4a 8d 54 37 01       	lea    rdx,[rdi+r14*1+0x1]
9848:	4e 8d 04 31          	lea    r8,[rcx+r14*1]
984c:	eb 0f                	jmp    985d <quotearg_buffer_restyled+0xb4d>
984e:	66 90                	xchg   ax,ax
9850:	48 83 c2 01          	add    rdx,0x1
9854:	49 39 d0             	cmp    r8,rdx
9857:	0f 84 3c fe ff ff    	je     9699 <quotearg_buffer_restyled+0x989>
985d:	0f b6 0a             	movzx  ecx,BYTE PTR [rdx]
9860:	83 e9 5b             	sub    ecx,0x5b
9863:	80 f9 21             	cmp    cl,0x21
9866:	77 e8                	ja     9850 <quotearg_buffer_restyled+0xb40>
9868:	be 01 00 00 00       	mov    esi,0x1
986d:	48 d3 e6             	shl    rsi,cl
9870:	48 89 f1             	mov    rcx,rsi
9873:	48 be 2b 00 00 00 02 	movabs rsi,0x20000002b
987a:	00 00 00
987d:	48 85 f1             	test   rcx,rsi
9880:	74 ce                	je     9850 <quotearg_buffer_restyled+0xb40>
9882:	4c 8b 74 24 40       	mov    r14,QWORD PTR [rsp+0x40]
9887:	4c 8b 6c 24 70       	mov    r13,QWORD PTR [rsp+0x70]
988c:	48 8b 6c 24 30       	mov    rbp,QWORD PTR [rsp+0x30]
9891:	c7 44 24 08 02 00 00 	mov    DWORD PTR [rsp+0x8],0x2
9898:	00
9899:	80 7c 24 0d 00       	cmp    BYTE PTR [rsp+0xd],0x0
989e:	74 10                	je     98b0 <quotearg_buffer_restyled+0xba0>
98a0:	84 c0                	test   al,al
98a2:	b8 04 00 00 00       	mov    eax,0x4
98a7:	0f 44 44 24 08       	cmove  eax,DWORD PTR [rsp+0x8]
98ac:	89 44 24 08          	mov    DWORD PTR [rsp+0x8],eax
98b0:	48 83 ec 08          	sub    rsp,0x8
98b4:	48 89 e9             	mov    rcx,rbp
98b7:	4c 89 ee             	mov    rsi,r13
98ba:	ff 74 24 68          	push   QWORD PTR [rsp+0x68]
98be:	ff 74 24 78          	push   QWORD PTR [rsp+0x78]
98c2:	4c 89 f7             	mov    rdi,r14
98c5:	6a 00                	push   0x0
98c7:	44 8b 8c 24 98 00 00 	mov    r9d,DWORD PTR [rsp+0x98]
98ce:	00
98cf:	44 8b 44 24 28       	mov    r8d,DWORD PTR [rsp+0x28]
98d4:	48 8b 54 24 30       	mov    rdx,QWORD PTR [rsp+0x30]
98d9:	41 83 e1 fd          	and    r9d,0xfffffffd
98dd:	e8 2e f4 ff ff       	call   8d10 <quotearg_buffer_restyled>
98e2:	48 83 c4 20          	add    rsp,0x20
98e6:	49 89 c7             	mov    r15,rax
98e9:	48 8b 9c 24 a8 00 00 	mov    rbx,QWORD PTR [rsp+0xa8]
98f0:	00
98f1:	64 48 33 1c 25 28 00 	xor    rbx,QWORD PTR fs:0x28
98f8:	00 00
98fa:	4c 89 f8             	mov    rax,r15
98fd:	0f 85 00 06 00 00    	jne    9f03 <quotearg_buffer_restyled+0x11f3>
9903:	48 81 c4 b8 00 00 00 	add    rsp,0xb8
990a:	5b                   	pop    rbx
990b:	5d                   	pop    rbp
990c:	41 5c                	pop    r12
990e:	41 5d                	pop    r13
9910:	41 5e                	pop    r14
9912:	41 5f                	pop    r15
9914:	c3                   	ret
9915:	0f 1f 00             	nop    DWORD PTR [rax]
9918:	4c 89 dd             	mov    rbp,r11
991b:	e9 79 ff ff ff       	jmp    9899 <quotearg_buffer_restyled+0xb89>
9920:	4d 39 fd             	cmp    r13,r15
9923:	76 05                	jbe    992a <quotearg_buffer_restyled+0xc1a>
9925:	43 c6 04 3e 27       	mov    BYTE PTR [r14+r15*1],0x27
992a:	49 8d 47 01          	lea    rax,[r15+0x1]
992e:	49 39 c5             	cmp    r13,rax
9931:	76 06                	jbe    9939 <quotearg_buffer_restyled+0xc29>
9933:	43 c6 44 3e 01 5c    	mov    BYTE PTR [r14+r15*1+0x1],0x5c
9939:	49 8d 47 02          	lea    rax,[r15+0x2]
993d:	49 39 c5             	cmp    r13,rax
9940:	0f 86 ec 05 00 00    	jbe    9f32 <quotearg_buffer_restyled+0x1222>
9946:	4c 89 ea             	mov    rdx,r13
9949:	43 c6 44 3e 02 27    	mov    BYTE PTR [r14+r15*1+0x2],0x27
994f:	4c 8b 6c 24 50       	mov    r13,QWORD PTR [rsp+0x50]
9954:	e9 d9 fb ff ff       	jmp    9532 <quotearg_buffer_restyled+0x822>
9959:	44 89 e0             	mov    eax,r12d
995c:	bb 30 00 00 00       	mov    ebx,0x30
9961:	45 31 e4             	xor    r12d,r12d
9964:	e9 00 f6 ff ff       	jmp    8f69 <quotearg_buffer_restyled+0x259>
9969:	43 c6 44 3e 02 27    	mov    BYTE PTR [r14+r15*1+0x2],0x27
996f:	e9 c5 f9 ff ff       	jmp    9339 <quotearg_buffer_restyled+0x629>
9974:	85 db                	test   ebx,ebx
9976:	0f 85 27 f4 ff ff    	jne    8da3 <quotearg_buffer_restyled+0x93>
997c:	c6 44 24 0d 01       	mov    BYTE PTR [rsp+0xd],0x1
9981:	4d 85 ed             	test   r13,r13
9984:	0f 85 90 05 00 00    	jne    9f1a <quotearg_buffer_restyled+0x120a>
998a:	48 8d 05 ca 7b 00 00 	lea    rax,[rip+0x7bca]        # 1155b <yytranslate+0x17b>
9991:	48 c7 44 24 50 00 00 	mov    QWORD PTR [rsp+0x50],0x0
9998:	00 00
999a:	c6 44 24 0e 01       	mov    BYTE PTR [rsp+0xe],0x1
999f:	c6 44 24 7c 00       	mov    BYTE PTR [rsp+0x7c],0x0
99a4:	45 31 e4             	xor    r12d,r12d
99a7:	c6 44 24 0f 00       	mov    BYTE PTR [rsp+0xf],0x0
99ac:	48 c7 44 24 18 01 00 	mov    QWORD PTR [rsp+0x18],0x1
99b3:	00 00
99b5:	48 89 44 24 48       	mov    QWORD PTR [rsp+0x48],rax
99ba:	41 bf 01 00 00 00    	mov    r15d,0x1
99c0:	c7 44 24 08 02 00 00 	mov    DWORD PTR [rsp+0x8],0x2
99c7:	00
99c8:	e9 16 f4 ff ff       	jmp    8de3 <quotearg_buffer_restyled+0xd3>
99cd:	0f 1f 00             	nop    DWORD PTR [rax]
99d0:	85 db                	test   ebx,ebx
99d2:	0f 85 f5 03 00 00    	jne    9dcd <quotearg_buffer_restyled+0x10bd>
99d8:	4d 85 ed             	test   r13,r13
99db:	0f 84 25 02 00 00    	je     9c06 <quotearg_buffer_restyled+0xef6>
99e1:	41 c6 06 22          	mov    BYTE PTR [r14],0x22
99e5:	c6 44 24 0e 01       	mov    BYTE PTR [rsp+0xe],0x1
99ea:	45 31 e4             	xor    r12d,r12d
99ed:	c6 44 24 7c 00       	mov    BYTE PTR [rsp+0x7c],0x0
99f2:	48 c7 44 24 50 00 00 	mov    QWORD PTR [rsp+0x50],0x0
99f9:	00 00
99fb:	48 8d 05 45 68 00 00 	lea    rax,[rip+0x6845]        # 10247 <time_masks+0x217>
9a02:	c6 44 24 0f 00       	mov    BYTE PTR [rsp+0xf],0x0
9a07:	c6 44 24 0d 01       	mov    BYTE PTR [rsp+0xd],0x1
9a0c:	48 c7 44 24 18 01 00 	mov    QWORD PTR [rsp+0x18],0x1
9a13:	00 00
9a15:	41 bf 01 00 00 00    	mov    r15d,0x1
9a1b:	48 89 44 24 48       	mov    QWORD PTR [rsp+0x48],rax
9a20:	e9 be f3 ff ff       	jmp    8de3 <quotearg_buffer_restyled+0xd3>
9a25:	48 8d 05 1b 68 00 00 	lea    rax,[rip+0x681b]        # 10247 <time_masks+0x217>
9a2c:	c6 44 24 0e 01       	mov    BYTE PTR [rsp+0xe],0x1
9a31:	c6 44 24 7c 00       	mov    BYTE PTR [rsp+0x7c],0x0
9a36:	45 31 e4             	xor    r12d,r12d
9a39:	48 c7 44 24 50 00 00 	mov    QWORD PTR [rsp+0x50],0x0
9a40:	00 00
9a42:	c6 44 24 0f 01       	mov    BYTE PTR [rsp+0xf],0x1
9a47:	c6 44 24 0d 01       	mov    BYTE PTR [rsp+0xd],0x1
9a4c:	48 c7 44 24 18 01 00 	mov    QWORD PTR [rsp+0x18],0x1
9a53:	00 00
9a55:	45 31 ff             	xor    r15d,r15d
9a58:	48 89 44 24 48       	mov    QWORD PTR [rsp+0x48],rax
9a5d:	c7 44 24 08 05 00 00 	mov    DWORD PTR [rsp+0x8],0x5
9a64:	00
9a65:	e9 79 f3 ff ff       	jmp    8de3 <quotearg_buffer_restyled+0xd3>
9a6a:	c6 44 24 0e 01       	mov    BYTE PTR [rsp+0xe],0x1
9a6f:	c6 44 24 7c 00       	mov    BYTE PTR [rsp+0x7c],0x0
9a74:	45 31 e4             	xor    r12d,r12d
9a77:	48 c7 44 24 50 00 00 	mov    QWORD PTR [rsp+0x50],0x0
9a7e:	00 00
9a80:	c6 44 24 0f 00       	mov    BYTE PTR [rsp+0xf],0x0
9a85:	45 31 ff             	xor    r15d,r15d
9a88:	c6 44 24 0d 01       	mov    BYTE PTR [rsp+0xd],0x1
9a8d:	48 c7 44 24 18 00 00 	mov    QWORD PTR [rsp+0x18],0x0
9a94:	00 00
9a96:	48 c7 44 24 48 00 00 	mov    QWORD PTR [rsp+0x48],0x0
9a9d:	00 00
9a9f:	e9 3f f3 ff ff       	jmp    8de3 <quotearg_buffer_restyled+0xd3>
9aa4:	83 7c 24 08 0a       	cmp    DWORD PTR [rsp+0x8],0xa
9aa9:	74 56                	je     9b01 <quotearg_buffer_restyled+0xdf1>
9aab:	48 8d 35 ab 7a 00 00 	lea    rsi,[rip+0x7aab]        # 1155d <yytranslate+0x17d>
9ab2:	31 ff                	xor    edi,edi
9ab4:	ba 05 00 00 00       	mov    edx,0x5
9ab9:	e8 32 8d ff ff       	call   27f0 <dcgettext@plt>
9abe:	48 89 c1             	mov    rcx,rax
9ac1:	48 89 44 24 68       	mov    QWORD PTR [rsp+0x68],rax
9ac6:	48 8d 05 90 7a 00 00 	lea    rax,[rip+0x7a90]        # 1155d <yytranslate+0x17d>
9acd:	48 39 c1             	cmp    rcx,rax
9ad0:	0f 84 98 03 00 00    	je     9e6e <quotearg_buffer_restyled+0x115e>
9ad6:	48 8d 35 7e 7a 00 00 	lea    rsi,[rip+0x7a7e]        # 1155b <yytranslate+0x17b>
9add:	31 ff                	xor    edi,edi
9adf:	ba 05 00 00 00       	mov    edx,0x5
9ae4:	e8 07 8d ff ff       	call   27f0 <dcgettext@plt>
9ae9:	48 89 c1             	mov    rcx,rax
9aec:	48 89 44 24 60       	mov    QWORD PTR [rsp+0x60],rax
9af1:	48 8d 05 63 7a 00 00 	lea    rax,[rip+0x7a63]        # 1155b <yytranslate+0x17b>
9af8:	48 39 c1             	cmp    rcx,rax
9afb:	0f 84 83 03 00 00    	je     9e84 <quotearg_buffer_restyled+0x1174>
9b01:	45 31 ff             	xor    r15d,r15d
9b04:	85 db                	test   ebx,ebx
9b06:	0f 84 c1 01 00 00    	je     9ccd <quotearg_buffer_restyled+0xfbd>
9b0c:	85 db                	test   ebx,ebx
9b0e:	48 8b 5c 24 60       	mov    rbx,QWORD PTR [rsp+0x60]
9b13:	0f 95 44 24 0f       	setne  BYTE PTR [rsp+0xf]
9b18:	45 31 e4             	xor    r12d,r12d
9b1b:	48 89 df             	mov    rdi,rbx
9b1e:	e8 ed 8c ff ff       	call   2810 <strlen@plt>
9b23:	48 89 5c 24 48       	mov    QWORD PTR [rsp+0x48],rbx
9b28:	48 89 44 24 18       	mov    QWORD PTR [rsp+0x18],rax
9b2d:	c6 44 24 0e 01       	mov    BYTE PTR [rsp+0xe],0x1
9b32:	c6 44 24 7c 00       	mov    BYTE PTR [rsp+0x7c],0x0
9b37:	48 c7 44 24 50 00 00 	mov    QWORD PTR [rsp+0x50],0x0
9b3e:	00 00
9b40:	c6 44 24 0d 01       	mov    BYTE PTR [rsp+0xd],0x1
9b45:	e9 99 f2 ff ff       	jmp    8de3 <quotearg_buffer_restyled+0xd3>
9b4a:	c6 44 24 0e 01       	mov    BYTE PTR [rsp+0xe],0x1
9b4f:	c6 44 24 7c 00       	mov    BYTE PTR [rsp+0x7c],0x0
9b54:	45 31 e4             	xor    r12d,r12d
9b57:	48 c7 44 24 50 00 00 	mov    QWORD PTR [rsp+0x50],0x0
9b5e:	00 00
9b60:	c6 44 24 0f 00       	mov    BYTE PTR [rsp+0xf],0x0
9b65:	45 31 ff             	xor    r15d,r15d
9b68:	c6 44 24 0d 00       	mov    BYTE PTR [rsp+0xd],0x0
9b6d:	48 c7 44 24 18 00 00 	mov    QWORD PTR [rsp+0x18],0x0
9b74:	00 00
9b76:	48 c7 44 24 48 00 00 	mov    QWORD PTR [rsp+0x48],0x0
9b7d:	00 00
9b7f:	e9 5f f2 ff ff       	jmp    8de3 <quotearg_buffer_restyled+0xd3>
9b84:	c6 44 24 0e 01       	mov    BYTE PTR [rsp+0xe],0x1
9b89:	c6 44 24 7c 00       	mov    BYTE PTR [rsp+0x7c],0x0
9b8e:	45 31 e4             	xor    r12d,r12d
9b91:	48 c7 44 24 50 00 00 	mov    QWORD PTR [rsp+0x50],0x0
9b98:	00 00
9b9a:	c6 44 24 0f 01       	mov    BYTE PTR [rsp+0xf],0x1
9b9f:	c6 44 24 0d 01       	mov    BYTE PTR [rsp+0xd],0x1
9ba4:	e9 1a f2 ff ff       	jmp    8dc3 <quotearg_buffer_restyled+0xb3>
9ba9:	4d 39 fd             	cmp    r13,r15
9bac:	76 05                	jbe    9bb3 <quotearg_buffer_restyled+0xea3>
9bae:	43 c6 04 3e 30       	mov    BYTE PTR [r14+r15*1],0x30
9bb3:	48 8d 41 02          	lea    rax,[rcx+0x2]
9bb7:	49 39 c5             	cmp    r13,rax
9bba:	76 06                	jbe    9bc2 <quotearg_buffer_restyled+0xeb2>
9bbc:	41 c6 44 0e 02 30    	mov    BYTE PTR [r14+rcx*1+0x2],0x30
9bc2:	44 89 e0             	mov    eax,r12d
9bc5:	4c 8d 79 03          	lea    r15,[rcx+0x3]
9bc9:	45 31 e4             	xor    r12d,r12d
9bcc:	bb 30 00 00 00       	mov    ebx,0x30
9bd1:	e9 62 f3 ff ff       	jmp    8f38 <quotearg_buffer_restyled+0x228>
9bd6:	66 2e 0f 1f 84 00 00 	nop    WORD PTR cs:[rax+rax*1+0x0]
9bdd:	00 00 00
9be0:	0f b6 5c 24 0f       	movzx  ebx,BYTE PTR [rsp+0xf]
9be5:	4c 89 dd             	mov    rbp,r11
9be8:	88 5c 24 0d          	mov    BYTE PTR [rsp+0xd],bl
9bec:	e9 a8 fc ff ff       	jmp    9899 <quotearg_buffer_restyled+0xb89>
9bf1:	0f b6 54 24 0d       	movzx  edx,BYTE PTR [rsp+0xd]
9bf6:	45 31 e4             	xor    r12d,r12d
9bf9:	e9 02 fb ff ff       	jmp    9700 <quotearg_buffer_restyled+0x9f0>
9bfe:	45 31 d2             	xor    r10d,r10d
9c01:	e9 b7 fb ff ff       	jmp    97bd <quotearg_buffer_restyled+0xaad>
9c06:	48 c7 44 24 50 00 00 	mov    QWORD PTR [rsp+0x50],0x0
9c0d:	00 00
9c0f:	c6 44 24 0e 01       	mov    BYTE PTR [rsp+0xe],0x1
9c14:	45 31 e4             	xor    r12d,r12d
9c17:	c6 44 24 7c 00       	mov    BYTE PTR [rsp+0x7c],0x0
9c1c:	e9 da fd ff ff       	jmp    99fb <quotearg_buffer_restyled+0xceb>
9c21:	4c 8b 5c 24 30       	mov    r11,QWORD PTR [rsp+0x30]
9c26:	4c 89 f6             	mov    rsi,r14
9c29:	4c 89 e9             	mov    rcx,r13
9c2c:	48 89 d8             	mov    rax,rbx
9c2f:	48 89 df             	mov    rdi,rbx
9c32:	44 0f b6 44 24 7d    	movzx  r8d,BYTE PTR [rsp+0x7d]
9c38:	0f b6 5c 24 7e       	movzx  ebx,BYTE PTR [rsp+0x7e]
9c3d:	4c 8b 8c 24 88 00 00 	mov    r9,QWORD PTR [rsp+0x88]
9c44:	00
9c45:	4c 39 de             	cmp    rsi,r11
9c48:	44 0f b6 54 24 7f    	movzx  r10d,BYTE PTR [rsp+0x7f]
9c4e:	4c 8b bc 24 80 00 00 	mov    r15,QWORD PTR [rsp+0x80]
9c55:	00
9c56:	4c 8b 74 24 40       	mov    r14,QWORD PTR [rsp+0x40]
9c5b:	4c 8b 6c 24 70       	mov    r13,QWORD PTR [rsp+0x70]
9c60:	73 26                	jae    9c88 <quotearg_buffer_restyled+0xf78>
9c62:	80 39 00             	cmp    BYTE PTR [rcx],0x0
9c65:	75 10                	jne    9c77 <quotearg_buffer_restyled+0xf67>
9c67:	eb 1f                	jmp    9c88 <quotearg_buffer_restyled+0xf78>
9c69:	0f 1f 80 00 00 00 00 	nop    DWORD PTR [rax+0x0]
9c70:	41 80 3c 01 00       	cmp    BYTE PTR [r9+rax*1],0x0
9c75:	74 0e                	je     9c85 <quotearg_buffer_restyled+0xf75>
9c77:	48 83 c0 01          	add    rax,0x1
9c7b:	48 8d 54 05 00       	lea    rdx,[rbp+rax*1+0x0]
9c80:	49 39 d3             	cmp    r11,rdx
9c83:	77 eb                	ja     9c70 <quotearg_buffer_restyled+0xf60>
9c85:	48 89 c7             	mov    rdi,rax
9c88:	0f b6 54 24 0d       	movzx  edx,BYTE PTR [rsp+0xd]
9c8d:	45 31 e4             	xor    r12d,r12d
9c90:	e9 61 fa ff ff       	jmp    96f6 <quotearg_buffer_restyled+0x9e6>
9c95:	48 89 df             	mov    rdi,rbx
9c98:	44 0f b6 44 24 7d    	movzx  r8d,BYTE PTR [rsp+0x7d]
9c9e:	0f b6 5c 24 7e       	movzx  ebx,BYTE PTR [rsp+0x7e]
9ca3:	44 0f b6 54 24 7f    	movzx  r10d,BYTE PTR [rsp+0x7f]
9ca9:	4c 8b bc 24 80 00 00 	mov    r15,QWORD PTR [rsp+0x80]
9cb0:	00
9cb1:	45 31 e4             	xor    r12d,r12d
9cb4:	4c 8b 74 24 40       	mov    r14,QWORD PTR [rsp+0x40]
9cb9:	4c 8b 6c 24 70       	mov    r13,QWORD PTR [rsp+0x70]
9cbe:	4c 8b 5c 24 30       	mov    r11,QWORD PTR [rsp+0x30]
9cc3:	0f b6 54 24 0d       	movzx  edx,BYTE PTR [rsp+0xd]
9cc8:	e9 29 fa ff ff       	jmp    96f6 <quotearg_buffer_restyled+0x9e6>
9ccd:	48 8b 54 24 68       	mov    rdx,QWORD PTR [rsp+0x68]
9cd2:	0f b6 02             	movzx  eax,BYTE PTR [rdx]
9cd5:	84 c0                	test   al,al
9cd7:	0f 84 2f fe ff ff    	je     9b0c <quotearg_buffer_restyled+0xdfc>
9cdd:	0f 1f 00             	nop    DWORD PTR [rax]
9ce0:	4d 39 fd             	cmp    r13,r15
9ce3:	76 04                	jbe    9ce9 <quotearg_buffer_restyled+0xfd9>
9ce5:	43 88 04 3e          	mov    BYTE PTR [r14+r15*1],al
9ce9:	49 83 c7 01          	add    r15,0x1
9ced:	42 0f b6 04 3a       	movzx  eax,BYTE PTR [rdx+r15*1]
9cf2:	84 c0                	test   al,al
9cf4:	75 ea                	jne    9ce0 <quotearg_buffer_restyled+0xfd0>
9cf6:	e9 11 fe ff ff       	jmp    9b0c <quotearg_buffer_restyled+0xdfc>
9cfb:	89 d0                	mov    eax,edx
9cfd:	e9 55 f5 ff ff       	jmp    9257 <quotearg_buffer_restyled+0x547>
9d02:	0f b6 1c 08          	movzx  ebx,BYTE PTR [rax+rcx*1]
9d06:	80 fb 3e             	cmp    bl,0x3e
9d09:	0f 87 71 f8 ff ff    	ja     9580 <quotearg_buffer_restyled+0x870>
9d0f:	48 b8 00 00 00 00 82 	movabs rax,0x7000a38200000000
9d16:	a3 00 70
9d19:	48 0f a3 d8          	bt     rax,rbx
9d1d:	0f 83 5d f8 ff ff    	jae    9580 <quotearg_buffer_restyled+0x870>
9d23:	80 7c 24 0f 00       	cmp    BYTE PTR [rsp+0xf],0x0
9d28:	0f 85 e4 01 00 00    	jne    9f12 <quotearg_buffer_restyled+0x1202>
9d2e:	4d 39 fd             	cmp    r13,r15
9d31:	76 05                	jbe    9d38 <quotearg_buffer_restyled+0x1028>
9d33:	43 c6 04 3e 3f       	mov    BYTE PTR [r14+r15*1],0x3f
9d38:	49 8d 47 01          	lea    rax,[r15+0x1]
9d3c:	49 39 c5             	cmp    r13,rax
9d3f:	76 06                	jbe    9d47 <quotearg_buffer_restyled+0x1037>
9d41:	43 c6 44 3e 01 22    	mov    BYTE PTR [r14+r15*1+0x1],0x22
9d47:	49 8d 47 02          	lea    rax,[r15+0x2]
9d4b:	49 39 c5             	cmp    r13,rax
9d4e:	76 06                	jbe    9d56 <quotearg_buffer_restyled+0x1046>
9d50:	43 c6 44 3e 02 22    	mov    BYTE PTR [r14+r15*1+0x2],0x22
9d56:	49 8d 47 03          	lea    rax,[r15+0x3]
9d5a:	49 39 c5             	cmp    r13,rax
9d5d:	76 06                	jbe    9d65 <quotearg_buffer_restyled+0x1055>
9d5f:	43 c6 44 3e 03 3f    	mov    BYTE PTR [r14+r15*1+0x3],0x3f
9d65:	49 83 c7 04          	add    r15,0x4
9d69:	31 d2                	xor    edx,edx
9d6b:	45 31 e4             	xor    r12d,r12d
9d6e:	31 c0                	xor    eax,eax
9d70:	48 89 cd             	mov    rbp,rcx
9d73:	e9 c0 f1 ff ff       	jmp    8f38 <quotearg_buffer_restyled+0x228>
9d78:	85 db                	test   ebx,ebx
9d7a:	0f 84 88 01 00 00    	je     9f08 <quotearg_buffer_restyled+0x11f8>
9d80:	48 8d 05 d4 77 00 00 	lea    rax,[rip+0x77d4]        # 1155b <yytranslate+0x17b>
9d87:	c6 44 24 0e 01       	mov    BYTE PTR [rsp+0xe],0x1
9d8c:	c6 44 24 7c 00       	mov    BYTE PTR [rsp+0x7c],0x0
9d91:	45 31 e4             	xor    r12d,r12d
9d94:	48 c7 44 24 50 00 00 	mov    QWORD PTR [rsp+0x50],0x0
9d9b:	00 00
9d9d:	c6 44 24 0f 01       	mov    BYTE PTR [rsp+0xf],0x1
9da2:	c6 44 24 0d 00       	mov    BYTE PTR [rsp+0xd],0x0
9da7:	48 c7 44 24 18 01 00 	mov    QWORD PTR [rsp+0x18],0x1
9dae:	00 00
9db0:	45 31 ff             	xor    r15d,r15d
9db3:	48 89 44 24 48       	mov    QWORD PTR [rsp+0x48],rax
9db8:	e9 26 f0 ff ff       	jmp    8de3 <quotearg_buffer_restyled+0xd3>
9dbd:	0f 1f 00             	nop    DWORD PTR [rax]
9dc0:	4c 89 dd             	mov    rbp,r11
9dc3:	0f b6 44 24 0f       	movzx  eax,BYTE PTR [rsp+0xf]
9dc8:	e9 cc fa ff ff       	jmp    9899 <quotearg_buffer_restyled+0xb89>
9dcd:	48 8d 05 73 64 00 00 	lea    rax,[rip+0x6473]        # 10247 <time_masks+0x217>
9dd4:	c6 44 24 0e 01       	mov    BYTE PTR [rsp+0xe],0x1
9dd9:	c6 44 24 7c 00       	mov    BYTE PTR [rsp+0x7c],0x0
9dde:	45 31 e4             	xor    r12d,r12d
9de1:	48 c7 44 24 50 00 00 	mov    QWORD PTR [rsp+0x50],0x0
9de8:	00 00
9dea:	c6 44 24 0f 01       	mov    BYTE PTR [rsp+0xf],0x1
9def:	c6 44 24 0d 01       	mov    BYTE PTR [rsp+0xd],0x1
9df4:	48 c7 44 24 18 01 00 	mov    QWORD PTR [rsp+0x18],0x1
9dfb:	00 00
9dfd:	45 31 ff             	xor    r15d,r15d
9e00:	48 89 44 24 48       	mov    QWORD PTR [rsp+0x48],rax
9e05:	e9 d9 ef ff ff       	jmp    8de3 <quotearg_buffer_restyled+0xd3>
9e0a:	89 d0                	mov    eax,edx
9e0c:	48 8b 5c 24 48       	mov    rbx,QWORD PTR [rsp+0x48]
9e11:	48 85 db             	test   rbx,rbx
9e14:	74 2c                	je     9e42 <quotearg_buffer_restyled+0x1132>
9e16:	84 c0                	test   al,al
9e18:	74 28                	je     9e42 <quotearg_buffer_restyled+0x1132>
9e1a:	0f b6 0b             	movzx  ecx,BYTE PTR [rbx]
9e1d:	48 89 d8             	mov    rax,rbx
9e20:	84 c9                	test   cl,cl
9e22:	74 1e                	je     9e42 <quotearg_buffer_restyled+0x1132>
9e24:	4c 89 fa             	mov    rdx,r15
9e27:	4c 29 f8             	sub    rax,r15
9e2a:	49 39 d5             	cmp    r13,rdx
9e2d:	76 04                	jbe    9e33 <quotearg_buffer_restyled+0x1123>
9e2f:	41 88 0c 16          	mov    BYTE PTR [r14+rdx*1],cl
9e33:	48 83 c2 01          	add    rdx,0x1
9e37:	0f b6 0c 10          	movzx  ecx,BYTE PTR [rax+rdx*1]
9e3b:	84 c9                	test   cl,cl
9e3d:	75 eb                	jne    9e2a <quotearg_buffer_restyled+0x111a>
9e3f:	49 89 d7             	mov    r15,rdx
9e42:	4d 39 fd             	cmp    r13,r15
9e45:	0f 86 9e fa ff ff    	jbe    98e9 <quotearg_buffer_restyled+0xbd9>
9e4b:	43 c6 04 3e 00       	mov    BYTE PTR [r14+r15*1],0x0
9e50:	e9 94 fa ff ff       	jmp    98e9 <quotearg_buffer_restyled+0xbd9>
9e55:	83 7c 24 08 02       	cmp    DWORD PTR [rsp+0x8],0x2
9e5a:	0f b6 5c 24 0f       	movzx  ebx,BYTE PTR [rsp+0xf]
9e5f:	4c 89 dd             	mov    rbp,r11
9e62:	0f 94 c0             	sete   al
9e65:	88 5c 24 0d          	mov    BYTE PTR [rsp+0xd],bl
9e69:	e9 2b fa ff ff       	jmp    9899 <quotearg_buffer_restyled+0xb89>
9e6e:	8b 74 24 08          	mov    esi,DWORD PTR [rsp+0x8]
9e72:	48 89 cf             	mov    rdi,rcx
9e75:	e8 a6 ed ff ff       	call   8c20 <gettext_quote.part.1>
9e7a:	48 89 44 24 68       	mov    QWORD PTR [rsp+0x68],rax
9e7f:	e9 52 fc ff ff       	jmp    9ad6 <quotearg_buffer_restyled+0xdc6>
9e84:	8b 74 24 08          	mov    esi,DWORD PTR [rsp+0x8]
9e88:	48 89 cf             	mov    rdi,rcx
9e8b:	e8 90 ed ff ff       	call   8c20 <gettext_quote.part.1>
9e90:	48 89 44 24 60       	mov    QWORD PTR [rsp+0x60],rax
9e95:	e9 67 fc ff ff       	jmp    9b01 <quotearg_buffer_restyled+0xdf1>
9e9a:	0f b6 5c 24 0f       	movzx  ebx,BYTE PTR [rsp+0xf]
9e9f:	4c 89 dd             	mov    rbp,r11
9ea2:	89 d0                	mov    eax,edx
9ea4:	88 5c 24 0d          	mov    BYTE PTR [rsp+0xd],bl
9ea8:	e9 ec f9 ff ff       	jmp    9899 <quotearg_buffer_restyled+0xb89>
9ead:	48 83 ec 08          	sub    rsp,0x8
9eb1:	41 b8 05 00 00 00    	mov    r8d,0x5
9eb7:	4c 89 d9             	mov    rcx,r11
9eba:	ff 74 24 68          	push   QWORD PTR [rsp+0x68]
9ebe:	ff 74 24 78          	push   QWORD PTR [rsp+0x78]
9ec2:	4c 89 f7             	mov    rdi,r14
9ec5:	ff 74 24 38          	push   QWORD PTR [rsp+0x38]
9ec9:	44 8b 8c 24 98 00 00 	mov    r9d,DWORD PTR [rsp+0x98]
9ed0:	00
9ed1:	48 8b 54 24 30       	mov    rdx,QWORD PTR [rsp+0x30]
9ed6:	48 8b 74 24 70       	mov    rsi,QWORD PTR [rsp+0x70]
9edb:	e8 30 ee ff ff       	call   8d10 <quotearg_buffer_restyled>
9ee0:	48 83 c4 20          	add    rsp,0x20
9ee4:	49 89 c7             	mov    r15,rax
9ee7:	e9 fd f9 ff ff       	jmp    98e9 <quotearg_buffer_restyled+0xbd9>
9eec:	0f b6 44 24 7c       	movzx  eax,BYTE PTR [rsp+0x7c]
9ef1:	e9 16 ff ff ff       	jmp    9e0c <quotearg_buffer_restyled+0x10fc>
9ef6:	c7 44 24 08 02 00 00 	mov    DWORD PTR [rsp+0x8],0x2
9efd:	00
9efe:	e9 96 f9 ff ff       	jmp    9899 <quotearg_buffer_restyled+0xb89>
9f03:	e8 28 89 ff ff       	call   2830 <__stack_chk_fail@plt>
9f08:	c6 44 24 0d 00       	mov    BYTE PTR [rsp+0xd],0x0
9f0d:	e9 6f fa ff ff       	jmp    9981 <quotearg_buffer_restyled+0xc71>
9f12:	4c 89 dd             	mov    rbp,r11
9f15:	e9 96 f9 ff ff       	jmp    98b0 <quotearg_buffer_restyled+0xba0>
9f1a:	c6 44 24 0e 01       	mov    BYTE PTR [rsp+0xe],0x1
9f1f:	31 c0                	xor    eax,eax
9f21:	45 31 e4             	xor    r12d,r12d
9f24:	48 c7 44 24 50 00 00 	mov    QWORD PTR [rsp+0x50],0x0
9f2b:	00 00
9f2d:	e9 a2 f5 ff ff       	jmp    94d4 <quotearg_buffer_restyled+0x7c4>
9f32:	4c 89 ea             	mov    rdx,r13
9f35:	4c 8b 6c 24 50       	mov    r13,QWORD PTR [rsp+0x50]
9f3a:	e9 f3 f5 ff ff       	jmp    9532 <quotearg_buffer_restyled+0x822>
9f3f:	e8 fc 87 ff ff       	call   2740 <abort@plt>
9f44:	66 90                	xchg   ax,ax
9f46:	66 2e 0f 1f 84 00 00 	nop    WORD PTR cs:[rax+rax*1+0x0]
9f4d:	00 00 00

0000000000009f50 <quotearg_n_options>:
9f50:	41 57                	push   r15
9f52:	41 56                	push   r14
9f54:	4c 63 ff             	movsxd r15,edi
9f57:	41 55                	push   r13
9f59:	41 54                	push   r12
9f5b:	49 89 d6             	mov    r14,rdx
9f5e:	55                   	push   rbp
9f5f:	53                   	push   rbx
9f60:	48 89 cd             	mov    rbp,rcx
9f63:	48 83 ec 28          	sub    rsp,0x28
9f67:	48 89 74 24 08       	mov    QWORD PTR [rsp+0x8],rsi
9f6c:	e8 df 87 ff ff       	call   2750 <__errno_location@plt>
9f71:	49 89 c5             	mov    r13,rax
9f74:	8b 00                	mov    eax,DWORD PTR [rax]
9f76:	45 85 ff             	test   r15d,r15d
9f79:	48 8b 1d 00 b1 20 00 	mov    rbx,QWORD PTR [rip+0x20b100]        # 215080 <slotvec>
9f80:	89 44 24 18          	mov    DWORD PTR [rsp+0x18],eax
9f84:	0f 88 67 01 00 00    	js     a0f1 <quotearg_n_options+0x1a1>
9f8a:	44 39 3d e7 b0 20 00 	cmp    DWORD PTR [rip+0x20b0e7],r15d        # 215078 <nslots>
9f91:	7f 62                	jg     9ff5 <quotearg_n_options+0xa5>
9f93:	41 81 ff ff ff ff 7f 	cmp    r15d,0x7fffffff
9f9a:	0f 84 56 01 00 00    	je     a0f6 <quotearg_n_options+0x1a6>
9fa0:	45 8d 67 01          	lea    r12d,[r15+0x1]
9fa4:	48 8d 05 e5 b0 20 00 	lea    rax,[rip+0x20b0e5]        # 215090 <slotvec0>
9fab:	49 63 f4             	movsxd rsi,r12d
9fae:	48 c1 e6 04          	shl    rsi,0x4
9fb2:	48 39 c3             	cmp    rbx,rax
9fb5:	0f 84 15 01 00 00    	je     a0d0 <quotearg_n_options+0x180>
9fbb:	48 89 df             	mov    rdi,rbx
9fbe:	e8 6d 0f 00 00       	call   af30 <xrealloc>
9fc3:	48 89 c3             	mov    rbx,rax
9fc6:	48 89 05 b3 b0 20 00 	mov    QWORD PTR [rip+0x20b0b3],rax        # 215080 <slotvec>
9fcd:	48 63 3d a4 b0 20 00 	movsxd rdi,DWORD PTR [rip+0x20b0a4]        # 215078 <nslots>
9fd4:	44 89 e2             	mov    edx,r12d
9fd7:	31 f6                	xor    esi,esi
9fd9:	29 fa                	sub    edx,edi
9fdb:	48 c1 e7 04          	shl    rdi,0x4
9fdf:	48 63 d2             	movsxd rdx,edx
9fe2:	48 01 df             	add    rdi,rbx
9fe5:	48 c1 e2 04          	shl    rdx,0x4
9fe9:	e8 02 89 ff ff       	call   28f0 <memset@plt>
9fee:	44 89 25 83 b0 20 00 	mov    DWORD PTR [rip+0x20b083],r12d        # 215078 <nslots>
9ff5:	8b 45 04             	mov    eax,DWORD PTR [rbp+0x4]
9ff8:	49 c1 e7 04          	shl    r15,0x4
9ffc:	48 83 ec 08          	sub    rsp,0x8
a000:	4c 01 fb             	add    rbx,r15
a003:	4c 8d 7d 08          	lea    r15,[rbp+0x8]
a007:	44 8b 45 00          	mov    r8d,DWORD PTR [rbp+0x0]
a00b:	4c 8b 1b             	mov    r11,QWORD PTR [rbx]
a00e:	4c 8b 63 08          	mov    r12,QWORD PTR [rbx+0x8]
a012:	4c 89 f1             	mov    rcx,r14
a015:	83 c8 01             	or     eax,0x1
a018:	89 44 24 24          	mov    DWORD PTR [rsp+0x24],eax
a01c:	ff 75 30             	push   QWORD PTR [rbp+0x30]
a01f:	41 89 c1             	mov    r9d,eax
a022:	ff 75 28             	push   QWORD PTR [rbp+0x28]
a025:	41 57                	push   r15
a027:	4c 89 de             	mov    rsi,r11
a02a:	48 8b 54 24 28       	mov    rdx,QWORD PTR [rsp+0x28]
a02f:	4c 89 e7             	mov    rdi,r12
a032:	4c 89 5c 24 30       	mov    QWORD PTR [rsp+0x30],r11
a037:	e8 d4 ec ff ff       	call   8d10 <quotearg_buffer_restyled>
a03c:	48 83 c4 20          	add    rsp,0x20
a040:	4c 8b 5c 24 10       	mov    r11,QWORD PTR [rsp+0x10]
a045:	49 39 c3             	cmp    r11,rax
a048:	77 67                	ja     a0b1 <quotearg_n_options+0x161>
a04a:	48 8d 70 01          	lea    rsi,[rax+0x1]
a04e:	48 8d 05 0b b1 20 00 	lea    rax,[rip+0x20b10b]        # 215160 <slot0>
a055:	49 39 c4             	cmp    r12,rax
a058:	48 89 33             	mov    QWORD PTR [rbx],rsi
a05b:	74 12                	je     a06f <quotearg_n_options+0x11f>
a05d:	4c 89 e7             	mov    rdi,r12
a060:	48 89 74 24 10       	mov    QWORD PTR [rsp+0x10],rsi
a065:	e8 a6 86 ff ff       	call   2710 <free@plt>
a06a:	48 8b 74 24 10       	mov    rsi,QWORD PTR [rsp+0x10]
a06f:	48 89 f7             	mov    rdi,rsi
a072:	48 89 74 24 10       	mov    QWORD PTR [rsp+0x10],rsi
a077:	e8 54 0e 00 00       	call   aed0 <xmalloc>
a07c:	48 83 ec 08          	sub    rsp,0x8
a080:	48 89 43 08          	mov    QWORD PTR [rbx+0x8],rax
a084:	44 8b 45 00          	mov    r8d,DWORD PTR [rbp+0x0]
a088:	ff 75 30             	push   QWORD PTR [rbp+0x30]
a08b:	ff 75 28             	push   QWORD PTR [rbp+0x28]
a08e:	4c 89 f1             	mov    rcx,r14
a091:	41 57                	push   r15
a093:	44 8b 4c 24 3c       	mov    r9d,DWORD PTR [rsp+0x3c]
a098:	48 89 c7             	mov    rdi,rax
a09b:	48 8b 54 24 28       	mov    rdx,QWORD PTR [rsp+0x28]
a0a0:	48 8b 74 24 30       	mov    rsi,QWORD PTR [rsp+0x30]
a0a5:	49 89 c4             	mov    r12,rax
a0a8:	e8 63 ec ff ff       	call   8d10 <quotearg_buffer_restyled>
a0ad:	48 83 c4 20          	add    rsp,0x20
a0b1:	8b 44 24 18          	mov    eax,DWORD PTR [rsp+0x18]
a0b5:	41 89 45 00          	mov    DWORD PTR [r13+0x0],eax
a0b9:	48 83 c4 28          	add    rsp,0x28
a0bd:	4c 89 e0             	mov    rax,r12
a0c0:	5b                   	pop    rbx
a0c1:	5d                   	pop    rbp
a0c2:	41 5c                	pop    r12
a0c4:	41 5d                	pop    r13
a0c6:	41 5e                	pop    r14
a0c8:	41 5f                	pop    r15
a0ca:	c3                   	ret
a0cb:	0f 1f 44 00 00       	nop    DWORD PTR [rax+rax*1+0x0]
a0d0:	31 ff                	xor    edi,edi
a0d2:	e8 59 0e 00 00       	call   af30 <xrealloc>
a0d7:	66 0f 6f 05 b1 af 20 	movdqa xmm0,XMMWORD PTR [rip+0x20afb1]        # 215090 <slotvec0>
a0de:	00
a0df:	48 89 c3             	mov    rbx,rax
a0e2:	48 89 05 97 af 20 00 	mov    QWORD PTR [rip+0x20af97],rax        # 215080 <slotvec>
a0e9:	0f 11 00             	movups XMMWORD PTR [rax],xmm0
a0ec:	e9 dc fe ff ff       	jmp    9fcd <quotearg_n_options+0x7d>
a0f1:	e8 4a 86 ff ff       	call   2740 <abort@plt>
a0f6:	e8 25 10 00 00       	call   b120 <xalloc_die>
a0fb:	0f 1f 44 00 00       	nop    DWORD PTR [rax+rax*1+0x0]

000000000000a100 <clone_quoting_options>:
a100:	41 54                	push   r12
a102:	55                   	push   rbp
a103:	53                   	push   rbx
a104:	48 89 fb             	mov    rbx,rdi
a107:	e8 44 86 ff ff       	call   2750 <__errno_location@plt>
a10c:	44 8b 20             	mov    r12d,DWORD PTR [rax]
a10f:	48 89 c5             	mov    rbp,rax
a112:	48 8d 05 47 b1 20 00 	lea    rax,[rip+0x20b147]        # 215260 <default_quoting_options>
a119:	48 85 db             	test   rbx,rbx
a11c:	be 38 00 00 00       	mov    esi,0x38
a121:	48 0f 44 d8          	cmove  rbx,rax
a125:	48 89 df             	mov    rdi,rbx
a128:	e8 a3 0f 00 00       	call   b0d0 <xmemdup>
a12d:	44 89 65 00          	mov    DWORD PTR [rbp+0x0],r12d
a131:	5b                   	pop    rbx
a132:	5d                   	pop    rbp
a133:	41 5c                	pop    r12
a135:	c3                   	ret
a136:	66 2e 0f 1f 84 00 00 	nop    WORD PTR cs:[rax+rax*1+0x0]
a13d:	00 00 00

000000000000a140 <get_quoting_style>:
a140:	48 8d 05 19 b1 20 00 	lea    rax,[rip+0x20b119]        # 215260 <default_quoting_options>
a147:	48 85 ff             	test   rdi,rdi
a14a:	48 0f 44 f8          	cmove  rdi,rax
a14e:	8b 07                	mov    eax,DWORD PTR [rdi]
a150:	c3                   	ret
a151:	0f 1f 44 00 00       	nop    DWORD PTR [rax+rax*1+0x0]
a156:	66 2e 0f 1f 84 00 00 	nop    WORD PTR cs:[rax+rax*1+0x0]
a15d:	00 00 00

000000000000a160 <set_quoting_style>:
a160:	48 8d 05 f9 b0 20 00 	lea    rax,[rip+0x20b0f9]        # 215260 <default_quoting_options>
a167:	48 85 ff             	test   rdi,rdi
a16a:	48 0f 44 f8          	cmove  rdi,rax
a16e:	89 37                	mov    DWORD PTR [rdi],esi
a170:	c3                   	ret
a171:	0f 1f 44 00 00       	nop    DWORD PTR [rax+rax*1+0x0]
a176:	66 2e 0f 1f 84 00 00 	nop    WORD PTR cs:[rax+rax*1+0x0]
a17d:	00 00 00

000000000000a180 <set_char_quoting>:
a180:	48 8d 05 d9 b0 20 00 	lea    rax,[rip+0x20b0d9]        # 215260 <default_quoting_options>
a187:	48 85 ff             	test   rdi,rdi
a18a:	89 f1                	mov    ecx,esi
a18c:	48 0f 44 f8          	cmove  rdi,rax
a190:	89 f0                	mov    eax,esi
a192:	83 e1 1f             	and    ecx,0x1f
a195:	c0 e8 05             	shr    al,0x5
a198:	0f b6 c0             	movzx  eax,al
a19b:	48 8d 7c 87 08       	lea    rdi,[rdi+rax*4+0x8]
a1a0:	8b 37                	mov    esi,DWORD PTR [rdi]
a1a2:	89 f0                	mov    eax,esi
a1a4:	d3 e8                	shr    eax,cl
a1a6:	31 c2                	xor    edx,eax
a1a8:	83 e0 01             	and    eax,0x1
a1ab:	83 e2 01             	and    edx,0x1
a1ae:	d3 e2                	shl    edx,cl
a1b0:	31 f2                	xor    edx,esi
a1b2:	89 17                	mov    DWORD PTR [rdi],edx
a1b4:	c3                   	ret
a1b5:	90                   	nop
a1b6:	66 2e 0f 1f 84 00 00 	nop    WORD PTR cs:[rax+rax*1+0x0]
a1bd:	00 00 00

000000000000a1c0 <set_quoting_flags>:
a1c0:	48 8d 05 99 b0 20 00 	lea    rax,[rip+0x20b099]        # 215260 <default_quoting_options>
a1c7:	48 85 ff             	test   rdi,rdi
a1ca:	48 0f 44 f8          	cmove  rdi,rax
a1ce:	8b 47 04             	mov    eax,DWORD PTR [rdi+0x4]
a1d1:	89 77 04             	mov    DWORD PTR [rdi+0x4],esi
a1d4:	c3                   	ret
a1d5:	90                   	nop
a1d6:	66 2e 0f 1f 84 00 00 	nop    WORD PTR cs:[rax+rax*1+0x0]
a1dd:	00 00 00

000000000000a1e0 <set_custom_quoting>:
a1e0:	48 8d 05 79 b0 20 00 	lea    rax,[rip+0x20b079]        # 215260 <default_quoting_options>
a1e7:	48 85 ff             	test   rdi,rdi
a1ea:	48 0f 44 f8          	cmove  rdi,rax
a1ee:	48 85 f6             	test   rsi,rsi
a1f1:	c7 07 0a 00 00 00    	mov    DWORD PTR [rdi],0xa
a1f7:	74 0e                	je     a207 <set_custom_quoting+0x27>
a1f9:	48 85 d2             	test   rdx,rdx
a1fc:	74 09                	je     a207 <set_custom_quoting+0x27>
a1fe:	48 89 77 28          	mov    QWORD PTR [rdi+0x28],rsi
a202:	48 89 57 30          	mov    QWORD PTR [rdi+0x30],rdx
a206:	c3                   	ret
a207:	48 83 ec 08          	sub    rsp,0x8
a20b:	e8 30 85 ff ff       	call   2740 <abort@plt>

000000000000a210 <quotearg_buffer>:
a210:	41 57                	push   r15
a212:	41 56                	push   r14
a214:	48 8d 05 45 b0 20 00 	lea    rax,[rip+0x20b045]        # 215260 <default_quoting_options>
a21b:	41 55                	push   r13
a21d:	41 54                	push   r12
a21f:	49 89 fd             	mov    r13,rdi
a222:	55                   	push   rbp
a223:	53                   	push   rbx
a224:	4c 89 c3             	mov    rbx,r8
a227:	49 89 f6             	mov    r14,rsi
a22a:	49 89 d7             	mov    r15,rdx
a22d:	48 83 ec 18          	sub    rsp,0x18
a231:	4d 85 c0             	test   r8,r8
a234:	48 0f 44 d8          	cmove  rbx,rax
a238:	48 89 4c 24 08       	mov    QWORD PTR [rsp+0x8],rcx
a23d:	e8 0e 85 ff ff       	call   2750 <__errno_location@plt>
a242:	44 8b 20             	mov    r12d,DWORD PTR [rax]
a245:	48 89 c5             	mov    rbp,rax
a248:	48 8d 43 08          	lea    rax,[rbx+0x8]
a24c:	48 83 ec 08          	sub    rsp,0x8
a250:	44 8b 4b 04          	mov    r9d,DWORD PTR [rbx+0x4]
a254:	ff 73 30             	push   QWORD PTR [rbx+0x30]
a257:	44 8b 03             	mov    r8d,DWORD PTR [rbx]
a25a:	ff 73 28             	push   QWORD PTR [rbx+0x28]
a25d:	4c 89 fa             	mov    rdx,r15
a260:	50                   	push   rax
a261:	48 8b 4c 24 28       	mov    rcx,QWORD PTR [rsp+0x28]
a266:	4c 89 f6             	mov    rsi,r14
a269:	4c 89 ef             	mov    rdi,r13
a26c:	e8 9f ea ff ff       	call   8d10 <quotearg_buffer_restyled>
a271:	44 89 65 00          	mov    DWORD PTR [rbp+0x0],r12d
a275:	48 83 c4 38          	add    rsp,0x38
a279:	5b                   	pop    rbx
a27a:	5d                   	pop    rbp
a27b:	41 5c                	pop    r12
a27d:	41 5d                	pop    r13
a27f:	41 5e                	pop    r14
a281:	41 5f                	pop    r15
a283:	c3                   	ret
a284:	66 90                	xchg   ax,ax
a286:	66 2e 0f 1f 84 00 00 	nop    WORD PTR cs:[rax+rax*1+0x0]
a28d:	00 00 00

000000000000a290 <quotearg_alloc_mem>:
a290:	41 57                	push   r15
a292:	41 56                	push   r14
a294:	48 8d 05 c5 af 20 00 	lea    rax,[rip+0x20afc5]        # 215260 <default_quoting_options>
a29b:	41 55                	push   r13
a29d:	41 54                	push   r12
a29f:	49 89 d4             	mov    r12,rdx
a2a2:	55                   	push   rbp
a2a3:	53                   	push   rbx
a2a4:	48 89 cb             	mov    rbx,rcx
a2a7:	49 89 fe             	mov    r14,rdi
a2aa:	49 89 f7             	mov    r15,rsi
a2ad:	48 83 ec 38          	sub    rsp,0x38
a2b1:	48 85 c9             	test   rcx,rcx
a2b4:	48 0f 44 d8          	cmove  rbx,rax
a2b8:	31 ed                	xor    ebp,ebp
a2ba:	e8 91 84 ff ff       	call   2750 <__errno_location@plt>
a2bf:	4d 85 e4             	test   r12,r12
a2c2:	49 89 c5             	mov    r13,rax
a2c5:	8b 00                	mov    eax,DWORD PTR [rax]
a2c7:	40 0f 94 c5          	sete   bpl
a2cb:	0b 6b 04             	or     ebp,DWORD PTR [rbx+0x4]
a2ce:	4c 8d 53 08          	lea    r10,[rbx+0x8]
a2d2:	48 83 ec 08          	sub    rsp,0x8
a2d6:	44 8b 03             	mov    r8d,DWORD PTR [rbx]
a2d9:	4c 89 f9             	mov    rcx,r15
a2dc:	89 44 24 14          	mov    DWORD PTR [rsp+0x14],eax
a2e0:	ff 73 30             	push   QWORD PTR [rbx+0x30]
a2e3:	4c 89 f2             	mov    rdx,r14
a2e6:	ff 73 28             	push   QWORD PTR [rbx+0x28]
a2e9:	41 52                	push   r10
a2eb:	31 f6                	xor    esi,esi
a2ed:	41 89 e9             	mov    r9d,ebp
a2f0:	31 ff                	xor    edi,edi
a2f2:	4c 89 54 24 40       	mov    QWORD PTR [rsp+0x40],r10
a2f7:	e8 14 ea ff ff       	call   8d10 <quotearg_buffer_restyled>
a2fc:	48 8d 70 01          	lea    rsi,[rax+0x1]
a300:	48 89 44 24 48       	mov    QWORD PTR [rsp+0x48],rax
a305:	48 83 c4 20          	add    rsp,0x20
a309:	48 89 f7             	mov    rdi,rsi
a30c:	48 89 74 24 18       	mov    QWORD PTR [rsp+0x18],rsi
a311:	e8 ba 0b 00 00       	call   aed0 <xmalloc>
a316:	48 89 44 24 10       	mov    QWORD PTR [rsp+0x10],rax
a31b:	48 83 ec 08          	sub    rsp,0x8
a31f:	ff 73 30             	push   QWORD PTR [rbx+0x30]
a322:	ff 73 28             	push   QWORD PTR [rbx+0x28]
a325:	4c 8b 54 24 38       	mov    r10,QWORD PTR [rsp+0x38]
a32a:	41 89 e9             	mov    r9d,ebp
a32d:	44 8b 03             	mov    r8d,DWORD PTR [rbx]
a330:	4c 89 f9             	mov    rcx,r15
a333:	4c 89 f2             	mov    rdx,r14
a336:	48 89 c7             	mov    rdi,rax
a339:	41 52                	push   r10
a33b:	48 8b 74 24 38       	mov    rsi,QWORD PTR [rsp+0x38]
a340:	e8 cb e9 ff ff       	call   8d10 <quotearg_buffer_restyled>
a345:	8b 44 24 2c          	mov    eax,DWORD PTR [rsp+0x2c]
a349:	48 83 c4 20          	add    rsp,0x20
a34d:	4d 85 e4             	test   r12,r12
a350:	41 89 45 00          	mov    DWORD PTR [r13+0x0],eax
a354:	74 09                	je     a35f <quotearg_alloc_mem+0xcf>
a356:	4c 8b 5c 24 28       	mov    r11,QWORD PTR [rsp+0x28]
a35b:	4d 89 1c 24          	mov    QWORD PTR [r12],r11
a35f:	48 8b 44 24 10       	mov    rax,QWORD PTR [rsp+0x10]
a364:	48 83 c4 38          	add    rsp,0x38
a368:	5b                   	pop    rbx
a369:	5d                   	pop    rbp
a36a:	41 5c                	pop    r12
a36c:	41 5d                	pop    r13
a36e:	41 5e                	pop    r14
a370:	41 5f                	pop    r15
a372:	c3                   	ret
a373:	0f 1f 00             	nop    DWORD PTR [rax]
a376:	66 2e 0f 1f 84 00 00 	nop    WORD PTR cs:[rax+rax*1+0x0]
a37d:	00 00 00

000000000000a380 <quotearg_alloc>:
a380:	48 89 d1             	mov    rcx,rdx
a383:	31 d2                	xor    edx,edx
a385:	e9 06 ff ff ff       	jmp    a290 <quotearg_alloc_mem>
a38a:	66 0f 1f 44 00 00    	nop    WORD PTR [rax+rax*1+0x0]

000000000000a390 <quotearg_free>:
a390:	8b 05 e2 ac 20 00    	mov    eax,DWORD PTR [rip+0x20ace2]        # 215078 <nslots>
a396:	41 54                	push   r12
a398:	4c 8b 25 e1 ac 20 00 	mov    r12,QWORD PTR [rip+0x20ace1]        # 215080 <slotvec>
a39f:	55                   	push   rbp
a3a0:	53                   	push   rbx
a3a1:	83 f8 01             	cmp    eax,0x1
a3a4:	7e 2b                	jle    a3d1 <quotearg_free+0x41>
a3a6:	83 e8 02             	sub    eax,0x2
a3a9:	49 8d 5c 24 18       	lea    rbx,[r12+0x18]
a3ae:	48 c1 e0 04          	shl    rax,0x4
a3b2:	49 8d 6c 04 28       	lea    rbp,[r12+rax*1+0x28]
a3b7:	66 0f 1f 84 00 00 00 	nop    WORD PTR [rax+rax*1+0x0]
a3be:	00 00
a3c0:	48 8b 3b             	mov    rdi,QWORD PTR [rbx]
a3c3:	48 83 c3 10          	add    rbx,0x10
a3c7:	e8 44 83 ff ff       	call   2710 <free@plt>
a3cc:	48 39 eb             	cmp    rbx,rbp
a3cf:	75 ef                	jne    a3c0 <quotearg_free+0x30>
a3d1:	49 8b 7c 24 08       	mov    rdi,QWORD PTR [r12+0x8]
a3d6:	48 8d 1d 83 ad 20 00 	lea    rbx,[rip+0x20ad83]        # 215160 <slot0>
a3dd:	48 39 df             	cmp    rdi,rbx
a3e0:	74 17                	je     a3f9 <quotearg_free+0x69>
a3e2:	e8 29 83 ff ff       	call   2710 <free@plt>
a3e7:	48 c7 05 9e ac 20 00 	mov    QWORD PTR [rip+0x20ac9e],0x100        # 215090 <slotvec0>
a3ee:	00 01 00 00
a3f2:	48 89 1d 9f ac 20 00 	mov    QWORD PTR [rip+0x20ac9f],rbx        # 215098 <slotvec0+0x8>
a3f9:	48 8d 1d 90 ac 20 00 	lea    rbx,[rip+0x20ac90]        # 215090 <slotvec0>
a400:	49 39 dc             	cmp    r12,rbx
a403:	74 0f                	je     a414 <quotearg_free+0x84>
a405:	4c 89 e7             	mov    rdi,r12
a408:	e8 03 83 ff ff       	call   2710 <free@plt>
a40d:	48 89 1d 6c ac 20 00 	mov    QWORD PTR [rip+0x20ac6c],rbx        # 215080 <slotvec>
a414:	5b                   	pop    rbx
a415:	c7 05 59 ac 20 00 01 	mov    DWORD PTR [rip+0x20ac59],0x1        # 215078 <nslots>
a41c:	00 00 00
a41f:	5d                   	pop    rbp
a420:	41 5c                	pop    r12
a422:	c3                   	ret
a423:	0f 1f 00             	nop    DWORD PTR [rax]
a426:	66 2e 0f 1f 84 00 00 	nop    WORD PTR cs:[rax+rax*1+0x0]
a42d:	00 00 00

000000000000a430 <quotearg_n>:
a430:	48 8d 0d 29 ae 20 00 	lea    rcx,[rip+0x20ae29]        # 215260 <default_quoting_options>
a437:	48 c7 c2 ff ff ff ff 	mov    rdx,0xffffffffffffffff
a43e:	e9 0d fb ff ff       	jmp    9f50 <quotearg_n_options>
a443:	0f 1f 00             	nop    DWORD PTR [rax]
a446:	66 2e 0f 1f 84 00 00 	nop    WORD PTR cs:[rax+rax*1+0x0]
a44d:	00 00 00

000000000000a450 <quotearg_n_mem>:
a450:	48 8d 0d 09 ae 20 00 	lea    rcx,[rip+0x20ae09]        # 215260 <default_quoting_options>
a457:	e9 f4 fa ff ff       	jmp    9f50 <quotearg_n_options>
a45c:	0f 1f 40 00          	nop    DWORD PTR [rax+0x0]

000000000000a460 <quotearg>:
a460:	48 8d 0d f9 ad 20 00 	lea    rcx,[rip+0x20adf9]        # 215260 <default_quoting_options>
a467:	48 89 fe             	mov    rsi,rdi
a46a:	48 c7 c2 ff ff ff ff 	mov    rdx,0xffffffffffffffff
a471:	31 ff                	xor    edi,edi
a473:	e9 d8 fa ff ff       	jmp    9f50 <quotearg_n_options>
a478:	0f 1f 84 00 00 00 00 	nop    DWORD PTR [rax+rax*1+0x0]
a47f:	00

000000000000a480 <quotearg_mem>:
a480:	48 8d 0d d9 ad 20 00 	lea    rcx,[rip+0x20add9]        # 215260 <default_quoting_options>
a487:	48 89 f2             	mov    rdx,rsi
a48a:	48 89 fe             	mov    rsi,rdi
a48d:	31 ff                	xor    edi,edi
a48f:	e9 bc fa ff ff       	jmp    9f50 <quotearg_n_options>
a494:	66 90                	xchg   ax,ax
a496:	66 2e 0f 1f 84 00 00 	nop    WORD PTR cs:[rax+rax*1+0x0]
a49d:	00 00 00

000000000000a4a0 <quotearg_n_style>:
a4a0:	48 83 ec 48          	sub    rsp,0x48
a4a4:	48 89 d0             	mov    rax,rdx
a4a7:	64 48 8b 14 25 28 00 	mov    rdx,QWORD PTR fs:0x28
a4ae:	00 00
a4b0:	48 89 54 24 38       	mov    QWORD PTR [rsp+0x38],rdx
a4b5:	31 d2                	xor    edx,edx
a4b7:	83 fe 0a             	cmp    esi,0xa
a4ba:	74 68                	je     a524 <quotearg_n_style+0x84>
a4bc:	89 34 24             	mov    DWORD PTR [rsp],esi
a4bf:	48 89 e1             	mov    rcx,rsp
a4c2:	48 c7 c2 ff ff ff ff 	mov    rdx,0xffffffffffffffff
a4c9:	48 89 c6             	mov    rsi,rax
a4cc:	48 c7 44 24 04 00 00 	mov    QWORD PTR [rsp+0x4],0x0
a4d3:	00 00
a4d5:	48 c7 44 24 0c 00 00 	mov    QWORD PTR [rsp+0xc],0x0
a4dc:	00 00
a4de:	48 c7 44 24 14 00 00 	mov    QWORD PTR [rsp+0x14],0x0
a4e5:	00 00
a4e7:	48 c7 44 24 1c 00 00 	mov    QWORD PTR [rsp+0x1c],0x0
a4ee:	00 00
a4f0:	48 c7 44 24 24 00 00 	mov    QWORD PTR [rsp+0x24],0x0
a4f7:	00 00
a4f9:	48 c7 44 24 2c 00 00 	mov    QWORD PTR [rsp+0x2c],0x0
a500:	00 00
a502:	c7 44 24 34 00 00 00 	mov    DWORD PTR [rsp+0x34],0x0
a509:	00
a50a:	e8 41 fa ff ff       	call   9f50 <quotearg_n_options>
a50f:	48 8b 4c 24 38       	mov    rcx,QWORD PTR [rsp+0x38]
a514:	64 48 33 0c 25 28 00 	xor    rcx,QWORD PTR fs:0x28
a51b:	00 00
a51d:	75 0a                	jne    a529 <quotearg_n_style+0x89>
a51f:	48 83 c4 48          	add    rsp,0x48
a523:	c3                   	ret
a524:	e8 17 82 ff ff       	call   2740 <abort@plt>
a529:	e8 02 83 ff ff       	call   2830 <__stack_chk_fail@plt>
a52e:	66 90                	xchg   ax,ax

000000000000a530 <quotearg_n_style_mem>:
a530:	48 83 ec 48          	sub    rsp,0x48
a534:	48 89 d0             	mov    rax,rdx
a537:	48 89 ca             	mov    rdx,rcx
a53a:	64 48 8b 0c 25 28 00 	mov    rcx,QWORD PTR fs:0x28
a541:	00 00
a543:	48 89 4c 24 38       	mov    QWORD PTR [rsp+0x38],rcx
a548:	31 c9                	xor    ecx,ecx
a54a:	83 fe 0a             	cmp    esi,0xa
a54d:	74 61                	je     a5b0 <quotearg_n_style_mem+0x80>
a54f:	89 34 24             	mov    DWORD PTR [rsp],esi
a552:	48 89 e1             	mov    rcx,rsp
a555:	48 89 c6             	mov    rsi,rax
a558:	48 c7 44 24 04 00 00 	mov    QWORD PTR [rsp+0x4],0x0
a55f:	00 00
a561:	48 c7 44 24 0c 00 00 	mov    QWORD PTR [rsp+0xc],0x0
a568:	00 00
a56a:	48 c7 44 24 14 00 00 	mov    QWORD PTR [rsp+0x14],0x0
a571:	00 00
a573:	48 c7 44 24 1c 00 00 	mov    QWORD PTR [rsp+0x1c],0x0
a57a:	00 00
a57c:	48 c7 44 24 24 00 00 	mov    QWORD PTR [rsp+0x24],0x0
a583:	00 00
a585:	48 c7 44 24 2c 00 00 	mov    QWORD PTR [rsp+0x2c],0x0
a58c:	00 00
a58e:	c7 44 24 34 00 00 00 	mov    DWORD PTR [rsp+0x34],0x0
a595:	00
a596:	e8 b5 f9 ff ff       	call   9f50 <quotearg_n_options>
a59b:	48 8b 54 24 38       	mov    rdx,QWORD PTR [rsp+0x38]
a5a0:	64 48 33 14 25 28 00 	xor    rdx,QWORD PTR fs:0x28
a5a7:	00 00
a5a9:	75 0a                	jne    a5b5 <quotearg_n_style_mem+0x85>
a5ab:	48 83 c4 48          	add    rsp,0x48
a5af:	c3                   	ret
a5b0:	e8 8b 81 ff ff       	call   2740 <abort@plt>
a5b5:	e8 76 82 ff ff       	call   2830 <__stack_chk_fail@plt>
a5ba:	66 0f 1f 44 00 00    	nop    WORD PTR [rax+rax*1+0x0]

000000000000a5c0 <quotearg_style>:
a5c0:	48 89 f2             	mov    rdx,rsi
a5c3:	89 fe                	mov    esi,edi
a5c5:	31 ff                	xor    edi,edi
a5c7:	e9 d4 fe ff ff       	jmp    a4a0 <quotearg_n_style>
a5cc:	0f 1f 40 00          	nop    DWORD PTR [rax+0x0]

000000000000a5d0 <quotearg_style_mem>:
a5d0:	48 89 d1             	mov    rcx,rdx
a5d3:	48 89 f2             	mov    rdx,rsi
a5d6:	89 fe                	mov    esi,edi
a5d8:	31 ff                	xor    edi,edi
a5da:	e9 51 ff ff ff       	jmp    a530 <quotearg_n_style_mem>
a5df:	90                   	nop

000000000000a5e0 <quotearg_char_mem>:
a5e0:	48 83 ec 48          	sub    rsp,0x48
a5e4:	89 d1                	mov    ecx,edx
a5e6:	64 48 8b 04 25 28 00 	mov    rax,QWORD PTR fs:0x28
a5ed:	00 00
a5ef:	48 89 44 24 38       	mov    QWORD PTR [rsp+0x38],rax
a5f4:	31 c0                	xor    eax,eax
a5f6:	48 8b 05 93 ac 20 00 	mov    rax,QWORD PTR [rip+0x20ac93]        # 215290 <default_quoting_options+0x30>
a5fd:	49 89 e0             	mov    r8,rsp
a600:	83 e1 1f             	and    ecx,0x1f
a603:	66 0f 6f 05 55 ac 20 	movdqa xmm0,XMMWORD PTR [rip+0x20ac55]        # 215260 <default_quoting_options>
a60a:	00
a60b:	48 89 44 24 30       	mov    QWORD PTR [rsp+0x30],rax
a610:	89 d0                	mov    eax,edx
a612:	0f 29 04 24          	movaps XMMWORD PTR [rsp],xmm0
a616:	c0 e8 05             	shr    al,0x5
a619:	0f b6 c0             	movzx  eax,al
a61c:	4d 8d 4c 80 08       	lea    r9,[r8+rax*4+0x8]
a621:	66 0f 6f 05 47 ac 20 	movdqa xmm0,XMMWORD PTR [rip+0x20ac47]        # 215270 <default_quoting_options+0x10>
a628:	00
a629:	0f 29 44 24 10       	movaps XMMWORD PTR [rsp+0x10],xmm0
a62e:	66 0f 6f 05 4a ac 20 	movdqa xmm0,XMMWORD PTR [rip+0x20ac4a]        # 215280 <default_quoting_options+0x20>
a635:	00
a636:	0f 29 44 24 20       	movaps XMMWORD PTR [rsp+0x20],xmm0
a63b:	41 8b 11             	mov    edx,DWORD PTR [r9]
a63e:	89 d0                	mov    eax,edx
a640:	d3 e8                	shr    eax,cl
a642:	f7 d0                	not    eax
a644:	83 e0 01             	and    eax,0x1
a647:	d3 e0                	shl    eax,cl
a649:	4c 89 c1             	mov    rcx,r8
a64c:	31 d0                	xor    eax,edx
a64e:	48 89 f2             	mov    rdx,rsi
a651:	48 89 fe             	mov    rsi,rdi
a654:	41 89 01             	mov    DWORD PTR [r9],eax
a657:	31 ff                	xor    edi,edi
a659:	e8 f2 f8 ff ff       	call   9f50 <quotearg_n_options>
a65e:	48 8b 74 24 38       	mov    rsi,QWORD PTR [rsp+0x38]
a663:	64 48 33 34 25 28 00 	xor    rsi,QWORD PTR fs:0x28
a66a:	00 00
a66c:	75 05                	jne    a673 <quotearg_char_mem+0x93>
a66e:	48 83 c4 48          	add    rsp,0x48
a672:	c3                   	ret
a673:	e8 b8 81 ff ff       	call   2830 <__stack_chk_fail@plt>
a678:	0f 1f 84 00 00 00 00 	nop    DWORD PTR [rax+rax*1+0x0]
a67f:	00

000000000000a680 <quotearg_char>:
a680:	40 0f be d6          	movsx  edx,sil
a684:	48 c7 c6 ff ff ff ff 	mov    rsi,0xffffffffffffffff
a68b:	e9 50 ff ff ff       	jmp    a5e0 <quotearg_char_mem>

000000000000a690 <quotearg_colon>:
a690:	ba 3a 00 00 00       	mov    edx,0x3a
a695:	48 c7 c6 ff ff ff ff 	mov    rsi,0xffffffffffffffff
a69c:	e9 3f ff ff ff       	jmp    a5e0 <quotearg_char_mem>
a6a1:	0f 1f 44 00 00       	nop    DWORD PTR [rax+rax*1+0x0]
a6a6:	66 2e 0f 1f 84 00 00 	nop    WORD PTR cs:[rax+rax*1+0x0]
a6ad:	00 00 00

000000000000a6b0 <quotearg_colon_mem>:
a6b0:	ba 3a 00 00 00       	mov    edx,0x3a
a6b5:	e9 26 ff ff ff       	jmp    a5e0 <quotearg_char_mem>
a6ba:	66 0f 1f 44 00 00    	nop    WORD PTR [rax+rax*1+0x0]

000000000000a6c0 <quotearg_n_style_colon>:
a6c0:	48 83 ec 48          	sub    rsp,0x48
a6c4:	48 89 d0             	mov    rax,rdx
a6c7:	64 48 8b 14 25 28 00 	mov    rdx,QWORD PTR fs:0x28
a6ce:	00 00
a6d0:	48 89 54 24 38       	mov    QWORD PTR [rsp+0x38],rdx
a6d5:	31 d2                	xor    edx,edx
a6d7:	83 fe 0a             	cmp    esi,0xa
a6da:	74 68                	je     a744 <quotearg_n_style_colon+0x84>
a6dc:	89 34 24             	mov    DWORD PTR [rsp],esi
a6df:	48 89 e1             	mov    rcx,rsp
a6e2:	48 c7 c2 ff ff ff ff 	mov    rdx,0xffffffffffffffff
a6e9:	48 89 c6             	mov    rsi,rax
a6ec:	48 c7 44 24 04 00 00 	mov    QWORD PTR [rsp+0x4],0x0
a6f3:	00 00
a6f5:	48 c7 44 24 0c 00 00 	mov    QWORD PTR [rsp+0xc],0x4000000
a6fc:	00 04
a6fe:	48 c7 44 24 14 00 00 	mov    QWORD PTR [rsp+0x14],0x0
a705:	00 00
a707:	48 c7 44 24 1c 00 00 	mov    QWORD PTR [rsp+0x1c],0x0
a70e:	00 00
a710:	48 c7 44 24 24 00 00 	mov    QWORD PTR [rsp+0x24],0x0
a717:	00 00
a719:	48 c7 44 24 2c 00 00 	mov    QWORD PTR [rsp+0x2c],0x0
a720:	00 00
a722:	c7 44 24 34 00 00 00 	mov    DWORD PTR [rsp+0x34],0x0
a729:	00
a72a:	e8 21 f8 ff ff       	call   9f50 <quotearg_n_options>
a72f:	48 8b 4c 24 38       	mov    rcx,QWORD PTR [rsp+0x38]
a734:	64 48 33 0c 25 28 00 	xor    rcx,QWORD PTR fs:0x28
a73b:	00 00
a73d:	75 0a                	jne    a749 <quotearg_n_style_colon+0x89>
a73f:	48 83 c4 48          	add    rsp,0x48
a743:	c3                   	ret
a744:	e8 f7 7f ff ff       	call   2740 <abort@plt>
a749:	e8 e2 80 ff ff       	call   2830 <__stack_chk_fail@plt>
a74e:	66 90                	xchg   ax,ax

000000000000a750 <quotearg_n_custom_mem>:
a750:	48 83 ec 48          	sub    rsp,0x48
a754:	49 89 c9             	mov    r9,rcx
a757:	48 8b 0d 32 ab 20 00 	mov    rcx,QWORD PTR [rip+0x20ab32]        # 215290 <default_quoting_options+0x30>
a75e:	66 0f 6f 05 fa aa 20 	movdqa xmm0,XMMWORD PTR [rip+0x20aafa]        # 215260 <default_quoting_options>
a765:	00
a766:	64 48 8b 04 25 28 00 	mov    rax,QWORD PTR fs:0x28
a76d:	00 00
a76f:	48 89 44 24 38       	mov    QWORD PTR [rsp+0x38],rax
a774:	31 c0                	xor    eax,eax
a776:	0f 29 04 24          	movaps XMMWORD PTR [rsp],xmm0
a77a:	48 85 f6             	test   rsi,rsi
a77d:	48 89 4c 24 30       	mov    QWORD PTR [rsp+0x30],rcx
a782:	c7 04 24 0a 00 00 00 	mov    DWORD PTR [rsp],0xa
a789:	66 0f 6f 05 df aa 20 	movdqa xmm0,XMMWORD PTR [rip+0x20aadf]        # 215270 <default_quoting_options+0x10>
a790:	00
a791:	0f 29 44 24 10       	movaps XMMWORD PTR [rsp+0x10],xmm0
a796:	66 0f 6f 05 e2 aa 20 	movdqa xmm0,XMMWORD PTR [rip+0x20aae2]        # 215280 <default_quoting_options+0x20>
a79d:	00
a79e:	0f 29 44 24 20       	movaps XMMWORD PTR [rsp+0x20],xmm0
a7a3:	74 32                	je     a7d7 <quotearg_n_custom_mem+0x87>
a7a5:	48 85 d2             	test   rdx,rdx
a7a8:	74 2d                	je     a7d7 <quotearg_n_custom_mem+0x87>
a7aa:	48 89 74 24 28       	mov    QWORD PTR [rsp+0x28],rsi
a7af:	48 89 54 24 30       	mov    QWORD PTR [rsp+0x30],rdx
a7b4:	48 89 e1             	mov    rcx,rsp
a7b7:	4c 89 c2             	mov    rdx,r8
a7ba:	4c 89 ce             	mov    rsi,r9
a7bd:	e8 8e f7 ff ff       	call   9f50 <quotearg_n_options>
a7c2:	48 8b 7c 24 38       	mov    rdi,QWORD PTR [rsp+0x38]
a7c7:	64 48 33 3c 25 28 00 	xor    rdi,QWORD PTR fs:0x28
a7ce:	00 00
a7d0:	75 0a                	jne    a7dc <quotearg_n_custom_mem+0x8c>
a7d2:	48 83 c4 48          	add    rsp,0x48
a7d6:	c3                   	ret
a7d7:	e8 64 7f ff ff       	call   2740 <abort@plt>
a7dc:	e8 4f 80 ff ff       	call   2830 <__stack_chk_fail@plt>
a7e1:	0f 1f 44 00 00       	nop    DWORD PTR [rax+rax*1+0x0]
a7e6:	66 2e 0f 1f 84 00 00 	nop    WORD PTR cs:[rax+rax*1+0x0]
a7ed:	00 00 00

000000000000a7f0 <quotearg_n_custom>:
a7f0:	49 c7 c0 ff ff ff ff 	mov    r8,0xffffffffffffffff
a7f7:	e9 54 ff ff ff       	jmp    a750 <quotearg_n_custom_mem>
a7fc:	0f 1f 40 00          	nop    DWORD PTR [rax+0x0]

000000000000a800 <quotearg_custom>:
a800:	48 89 d1             	mov    rcx,rdx
a803:	49 c7 c0 ff ff ff ff 	mov    r8,0xffffffffffffffff
a80a:	48 89 f2             	mov    rdx,rsi
a80d:	48 89 fe             	mov    rsi,rdi
a810:	31 ff                	xor    edi,edi
a812:	e9 39 ff ff ff       	jmp    a750 <quotearg_n_custom_mem>
a817:	66 0f 1f 84 00 00 00 	nop    WORD PTR [rax+rax*1+0x0]
a81e:	00 00

000000000000a820 <quotearg_custom_mem>:
a820:	49 89 c8             	mov    r8,rcx
a823:	48 89 d1             	mov    rcx,rdx
a826:	48 89 f2             	mov    rdx,rsi
a829:	48 89 fe             	mov    rsi,rdi
a82c:	31 ff                	xor    edi,edi
a82e:	e9 1d ff ff ff       	jmp    a750 <quotearg_n_custom_mem>
a833:	0f 1f 00             	nop    DWORD PTR [rax]
a836:	66 2e 0f 1f 84 00 00 	nop    WORD PTR cs:[rax+rax*1+0x0]
a83d:	00 00 00

000000000000a840 <quote_n_mem>:
a840:	48 8d 0d f9 a7 20 00 	lea    rcx,[rip+0x20a7f9]        # 215040 <quote_quoting_options>
a847:	e9 04 f7 ff ff       	jmp    9f50 <quotearg_n_options>
a84c:	0f 1f 40 00          	nop    DWORD PTR [rax+0x0]

000000000000a850 <quote_mem>:
a850:	48 8d 0d e9 a7 20 00 	lea    rcx,[rip+0x20a7e9]        # 215040 <quote_quoting_options>
a857:	48 89 f2             	mov    rdx,rsi
a85a:	48 89 fe             	mov    rsi,rdi
a85d:	31 ff                	xor    edi,edi
a85f:	e9 ec f6 ff ff       	jmp    9f50 <quotearg_n_options>
a864:	66 90                	xchg   ax,ax
a866:	66 2e 0f 1f 84 00 00 	nop    WORD PTR cs:[rax+rax*1+0x0]
a86d:	00 00 00

000000000000a870 <quote_n>:
a870:	48 8d 0d c9 a7 20 00 	lea    rcx,[rip+0x20a7c9]        # 215040 <quote_quoting_options>
a877:	48 c7 c2 ff ff ff ff 	mov    rdx,0xffffffffffffffff
a87e:	e9 cd f6 ff ff       	jmp    9f50 <quotearg_n_options>
a883:	0f 1f 00             	nop    DWORD PTR [rax]
a886:	66 2e 0f 1f 84 00 00 	nop    WORD PTR cs:[rax+rax*1+0x0]
a88d:	00 00 00

000000000000a890 <quote>:
a890:	48 8d 0d a9 a7 20 00 	lea    rcx,[rip+0x20a7a9]        # 215040 <quote_quoting_options>
a897:	48 89 fe             	mov    rsi,rdi
a89a:	48 c7 c2 ff ff ff ff 	mov    rdx,0xffffffffffffffff
a8a1:	31 ff                	xor    edi,edi
a8a3:	e9 a8 f6 ff ff       	jmp    9f50 <quotearg_n_options>
a8a8:	0f 1f 84 00 00 00 00 	nop    DWORD PTR [rax+rax*1+0x0]
a8af:	00

000000000000a8b0 <version_etc_arn>:
a8b0:	41 57                	push   r15
a8b2:	41 56                	push   r14
a8b4:	41 55                	push   r13
a8b6:	41 54                	push   r12
a8b8:	4d 89 cc             	mov    r12,r9
a8bb:	55                   	push   rbp
a8bc:	53                   	push   rbx
a8bd:	48 89 fd             	mov    rbp,rdi
a8c0:	4c 89 c3             	mov    rbx,r8
a8c3:	48 83 ec 28          	sub    rsp,0x28
a8c7:	48 85 f6             	test   rsi,rsi
a8ca:	0f 84 18 01 00 00    	je     a9e8 <version_etc_arn+0x138>
a8d0:	49 89 d0             	mov    r8,rdx
a8d3:	48 8d 15 4e 71 00 00 	lea    rdx,[rip+0x714e]        # 11a28 <quoting_style_vals+0x28>
a8da:	49 89 c9             	mov    r9,rcx
a8dd:	31 c0                	xor    eax,eax
a8df:	48 89 f1             	mov    rcx,rsi
a8e2:	be 01 00 00 00       	mov    esi,0x1
a8e7:	e8 04 82 ff ff       	call   2af0 <__fprintf_chk@plt>
a8ec:	48 8d 35 48 71 00 00 	lea    rsi,[rip+0x7148]        # 11a3b <quoting_style_vals+0x3b>
a8f3:	31 ff                	xor    edi,edi
a8f5:	ba 05 00 00 00       	mov    edx,0x5
a8fa:	e8 f1 7e ff ff       	call   27f0 <dcgettext@plt>
a8ff:	48 8d 15 5a 74 00 00 	lea    rdx,[rip+0x745a]        # 11d60 <version_etc_copyright>
a906:	48 89 c1             	mov    rcx,rax
a909:	41 b8 e3 07 00 00    	mov    r8d,0x7e3
a90f:	be 01 00 00 00       	mov    esi,0x1
a914:	48 89 ef             	mov    rdi,rbp
a917:	31 c0                	xor    eax,eax
a919:	e8 d2 81 ff ff       	call   2af0 <__fprintf_chk@plt>
a91e:	48 8d 35 a3 71 00 00 	lea    rsi,[rip+0x71a3]        # 11ac8 <quoting_style_vals+0xc8>
a925:	31 ff                	xor    edi,edi
a927:	ba 05 00 00 00       	mov    edx,0x5
a92c:	e8 bf 7e ff ff       	call   27f0 <dcgettext@plt>
a931:	48 89 ee             	mov    rsi,rbp
a934:	48 89 c7             	mov    rdi,rax
a937:	e8 f4 7f ff ff       	call   2930 <fputs_unlocked@plt>
a93c:	49 83 fc 09          	cmp    r12,0x9
a940:	0f 87 3a 03 00 00    	ja     ac80 <version_etc_arn+0x3d0>
a946:	48 8d 15 db 73 00 00 	lea    rdx,[rip+0x73db]        # 11d28 <quoting_style_vals+0x328>
a94d:	4a 63 04 a2          	movsxd rax,DWORD PTR [rdx+r12*4]
a951:	48 01 d0             	add    rax,rdx
a954:	ff e0                	jmp    rax
a956:	66 2e 0f 1f 84 00 00 	nop    WORD PTR cs:[rax+rax*1+0x0]
a95d:	00 00 00
a960:	4c 8b 4b 38          	mov    r9,QWORD PTR [rbx+0x38]
a964:	48 8b 43 10          	mov    rax,QWORD PTR [rbx+0x10]
a968:	48 8d 35 c9 72 00 00 	lea    rsi,[rip+0x72c9]        # 11c38 <quoting_style_vals+0x238>
a96f:	4c 8b 43 08          	mov    r8,QWORD PTR [rbx+0x8]
a973:	ba 05 00 00 00       	mov    edx,0x5
a978:	31 ff                	xor    edi,edi
a97a:	4c 8b 6b 30          	mov    r13,QWORD PTR [rbx+0x30]
a97e:	4c 8b 63 28          	mov    r12,QWORD PTR [rbx+0x28]
a982:	4c 89 4c 24 10       	mov    QWORD PTR [rsp+0x10],r9
a987:	4c 8b 7b 20          	mov    r15,QWORD PTR [rbx+0x20]
a98b:	4c 8b 73 18          	mov    r14,QWORD PTR [rbx+0x18]
a98f:	48 89 04 24          	mov    QWORD PTR [rsp],rax
a993:	4c 89 44 24 08       	mov    QWORD PTR [rsp+0x8],r8
a998:	48 8b 1b             	mov    rbx,QWORD PTR [rbx]
a99b:	e8 50 7e ff ff       	call   27f0 <dcgettext@plt>
a9a0:	48 83 ec 08          	sub    rsp,0x8
a9a4:	4c 8b 4c 24 18       	mov    r9,QWORD PTR [rsp+0x18]
a9a9:	48 89 c2             	mov    rdx,rax
a9ac:	48 89 d9             	mov    rcx,rbx
a9af:	be 01 00 00 00       	mov    esi,0x1
a9b4:	48 89 ef             	mov    rdi,rbp
a9b7:	31 c0                	xor    eax,eax
a9b9:	41 51                	push   r9
a9bb:	41 55                	push   r13
a9bd:	41 54                	push   r12
a9bf:	41 57                	push   r15
a9c1:	41 56                	push   r14
a9c3:	4c 8b 4c 24 30       	mov    r9,QWORD PTR [rsp+0x30]
a9c8:	4c 8b 44 24 38       	mov    r8,QWORD PTR [rsp+0x38]
a9cd:	e8 1e 81 ff ff       	call   2af0 <__fprintf_chk@plt>
a9d2:	48 83 c4 30          	add    rsp,0x30
a9d6:	48 83 c4 28          	add    rsp,0x28
a9da:	5b                   	pop    rbx
a9db:	5d                   	pop    rbp
a9dc:	41 5c                	pop    r12
a9de:	41 5d                	pop    r13
a9e0:	41 5e                	pop    r14
a9e2:	41 5f                	pop    r15
a9e4:	c3                   	ret
a9e5:	0f 1f 00             	nop    DWORD PTR [rax]
a9e8:	49 89 c8             	mov    r8,rcx
a9eb:	48 89 d1             	mov    rcx,rdx
a9ee:	48 8d 15 3f 70 00 00 	lea    rdx,[rip+0x703f]        # 11a34 <quoting_style_vals+0x34>
a9f5:	be 01 00 00 00       	mov    esi,0x1
a9fa:	31 c0                	xor    eax,eax
a9fc:	e8 ef 80 ff ff       	call   2af0 <__fprintf_chk@plt>
aa01:	e9 e6 fe ff ff       	jmp    a8ec <version_etc_arn+0x3c>
aa06:	66 2e 0f 1f 84 00 00 	nop    WORD PTR cs:[rax+rax*1+0x0]
aa0d:	00 00 00
aa10:	4c 8b 53 40          	mov    r10,QWORD PTR [rbx+0x40]
aa14:	4c 8b 4b 38          	mov    r9,QWORD PTR [rbx+0x38]
aa18:	48 8d 35 49 72 00 00 	lea    rsi,[rip+0x7249]        # 11c68 <quoting_style_vals+0x268>
aa1f:	48 8b 43 10          	mov    rax,QWORD PTR [rbx+0x10]
aa23:	4c 8b 43 08          	mov    r8,QWORD PTR [rbx+0x8]
aa27:	ba 05 00 00 00       	mov    edx,0x5
aa2c:	4c 8b 6b 30          	mov    r13,QWORD PTR [rbx+0x30]
aa30:	4c 8b 63 28          	mov    r12,QWORD PTR [rbx+0x28]
aa34:	4c 8b 7b 20          	mov    r15,QWORD PTR [rbx+0x20]
aa38:	4c 8b 73 18          	mov    r14,QWORD PTR [rbx+0x18]
aa3c:	48 8b 1b             	mov    rbx,QWORD PTR [rbx]
aa3f:	4c 89 54 24 18       	mov    QWORD PTR [rsp+0x18],r10
aa44:	4c 89 4c 24 10       	mov    QWORD PTR [rsp+0x10],r9
aa49:	48 89 04 24          	mov    QWORD PTR [rsp],rax
aa4d:	4c 89 44 24 08       	mov    QWORD PTR [rsp+0x8],r8
aa52:	31 ff                	xor    edi,edi
aa54:	e8 97 7d ff ff       	call   27f0 <dcgettext@plt>
aa59:	4c 8b 54 24 18       	mov    r10,QWORD PTR [rsp+0x18]
aa5e:	41 52                	push   r10
aa60:	e9 3f ff ff ff       	jmp    a9a4 <version_etc_arn+0xf4>
aa65:	0f 1f 00             	nop    DWORD PTR [rax]
aa68:	48 8b 1b             	mov    rbx,QWORD PTR [rbx]
aa6b:	48 8d 35 cd 6f 00 00 	lea    rsi,[rip+0x6fcd]        # 11a3f <quoting_style_vals+0x3f>
aa72:	ba 05 00 00 00       	mov    edx,0x5
aa77:	31 ff                	xor    edi,edi
aa79:	e8 72 7d ff ff       	call   27f0 <dcgettext@plt>
aa7e:	48 83 c4 28          	add    rsp,0x28
aa82:	48 89 d9             	mov    rcx,rbx
aa85:	48 89 ef             	mov    rdi,rbp
aa88:	5b                   	pop    rbx
aa89:	5d                   	pop    rbp
aa8a:	41 5c                	pop    r12
aa8c:	41 5d                	pop    r13
aa8e:	41 5e                	pop    r14
aa90:	41 5f                	pop    r15
aa92:	48 89 c2             	mov    rdx,rax
aa95:	be 01 00 00 00       	mov    esi,0x1
aa9a:	31 c0                	xor    eax,eax
aa9c:	e9 4f 80 ff ff       	jmp    2af0 <__fprintf_chk@plt>
aaa1:	0f 1f 80 00 00 00 00 	nop    DWORD PTR [rax+0x0]
aaa8:	4c 8b 63 08          	mov    r12,QWORD PTR [rbx+0x8]
aaac:	48 8d 35 9c 6f 00 00 	lea    rsi,[rip+0x6f9c]        # 11a4f <quoting_style_vals+0x4f>
aab3:	48 8b 1b             	mov    rbx,QWORD PTR [rbx]
aab6:	ba 05 00 00 00       	mov    edx,0x5
aabb:	31 ff                	xor    edi,edi
aabd:	e8 2e 7d ff ff       	call   27f0 <dcgettext@plt>
aac2:	48 83 c4 28          	add    rsp,0x28
aac6:	4d 89 e0             	mov    r8,r12
aac9:	48 89 d9             	mov    rcx,rbx
aacc:	48 89 ef             	mov    rdi,rbp
aacf:	48 89 c2             	mov    rdx,rax
aad2:	be 01 00 00 00       	mov    esi,0x1
aad7:	5b                   	pop    rbx
aad8:	5d                   	pop    rbp
aad9:	41 5c                	pop    r12
aadb:	41 5d                	pop    r13
aadd:	41 5e                	pop    r14
aadf:	41 5f                	pop    r15
aae1:	31 c0                	xor    eax,eax
aae3:	e9 08 80 ff ff       	jmp    2af0 <__fprintf_chk@plt>
aae8:	0f 1f 84 00 00 00 00 	nop    DWORD PTR [rax+rax*1+0x0]
aaef:	00
aaf0:	4c 8b 6b 10          	mov    r13,QWORD PTR [rbx+0x10]
aaf4:	4c 8b 63 08          	mov    r12,QWORD PTR [rbx+0x8]
aaf8:	48 8d 35 67 6f 00 00 	lea    rsi,[rip+0x6f67]        # 11a66 <quoting_style_vals+0x66>
aaff:	48 8b 1b             	mov    rbx,QWORD PTR [rbx]
ab02:	ba 05 00 00 00       	mov    edx,0x5
ab07:	31 ff                	xor    edi,edi
ab09:	e8 e2 7c ff ff       	call   27f0 <dcgettext@plt>
ab0e:	48 83 c4 28          	add    rsp,0x28
ab12:	4d 89 e9             	mov    r9,r13
ab15:	4d 89 e0             	mov    r8,r12
ab18:	48 89 d9             	mov    rcx,rbx
ab1b:	48 89 ef             	mov    rdi,rbp
ab1e:	48 89 c2             	mov    rdx,rax
ab21:	5b                   	pop    rbx
ab22:	5d                   	pop    rbp
ab23:	41 5c                	pop    r12
ab25:	41 5d                	pop    r13
ab27:	41 5e                	pop    r14
ab29:	41 5f                	pop    r15
ab2b:	be 01 00 00 00       	mov    esi,0x1
ab30:	31 c0                	xor    eax,eax
ab32:	e9 b9 7f ff ff       	jmp    2af0 <__fprintf_chk@plt>
ab37:	66 0f 1f 84 00 00 00 	nop    WORD PTR [rax+rax*1+0x0]
ab3e:	00 00
ab40:	48 8d 35 51 70 00 00 	lea    rsi,[rip+0x7051]        # 11b98 <quoting_style_vals+0x198>
ab47:	ba 05 00 00 00       	mov    edx,0x5
ab4c:	31 ff                	xor    edi,edi
ab4e:	4c 8b 73 18          	mov    r14,QWORD PTR [rbx+0x18]
ab52:	4c 8b 6b 10          	mov    r13,QWORD PTR [rbx+0x10]
ab56:	4c 8b 63 08          	mov    r12,QWORD PTR [rbx+0x8]
ab5a:	48 8b 1b             	mov    rbx,QWORD PTR [rbx]
ab5d:	e8 8e 7c ff ff       	call   27f0 <dcgettext@plt>
ab62:	48 83 ec 08          	sub    rsp,0x8
ab66:	41 56                	push   r14
ab68:	48 89 c2             	mov    rdx,rax
ab6b:	4d 89 e9             	mov    r9,r13
ab6e:	4d 89 e0             	mov    r8,r12
ab71:	48 89 d9             	mov    rcx,rbx
ab74:	48 89 ef             	mov    rdi,rbp
ab77:	be 01 00 00 00       	mov    esi,0x1
ab7c:	31 c0                	xor    eax,eax
ab7e:	e8 6d 7f ff ff       	call   2af0 <__fprintf_chk@plt>
ab83:	58                   	pop    rax
ab84:	5a                   	pop    rdx
ab85:	48 83 c4 28          	add    rsp,0x28
ab89:	5b                   	pop    rbx
ab8a:	5d                   	pop    rbp
ab8b:	41 5c                	pop    r12
ab8d:	41 5d                	pop    r13
ab8f:	41 5e                	pop    r14
ab91:	41 5f                	pop    r15
ab93:	c3                   	ret
ab94:	0f 1f 40 00          	nop    DWORD PTR [rax+0x0]
ab98:	4c 8b 7b 20          	mov    r15,QWORD PTR [rbx+0x20]
ab9c:	48 8d 35 15 70 00 00 	lea    rsi,[rip+0x7015]        # 11bb8 <quoting_style_vals+0x1b8>
aba3:	ba 05 00 00 00       	mov    edx,0x5
aba8:	31 ff                	xor    edi,edi
abaa:	4c 8b 73 18          	mov    r14,QWORD PTR [rbx+0x18]
abae:	4c 8b 6b 10          	mov    r13,QWORD PTR [rbx+0x10]
abb2:	4c 8b 63 08          	mov    r12,QWORD PTR [rbx+0x8]
abb6:	48 8b 1b             	mov    rbx,QWORD PTR [rbx]
abb9:	e8 32 7c ff ff       	call   27f0 <dcgettext@plt>
abbe:	41 57                	push   r15
abc0:	eb a4                	jmp    ab66 <version_etc_arn+0x2b6>
abc2:	66 0f 1f 44 00 00    	nop    WORD PTR [rax+rax*1+0x0]
abc8:	4c 8b 43 08          	mov    r8,QWORD PTR [rbx+0x8]
abcc:	4c 8b 63 28          	mov    r12,QWORD PTR [rbx+0x28]
abd0:	48 8d 35 09 70 00 00 	lea    rsi,[rip+0x7009]        # 11be0 <quoting_style_vals+0x1e0>
abd7:	4c 8b 7b 20          	mov    r15,QWORD PTR [rbx+0x20]
abdb:	4c 8b 73 18          	mov    r14,QWORD PTR [rbx+0x18]
abdf:	ba 05 00 00 00       	mov    edx,0x5
abe4:	4c 8b 6b 10          	mov    r13,QWORD PTR [rbx+0x10]
abe8:	31 ff                	xor    edi,edi
abea:	48 8b 1b             	mov    rbx,QWORD PTR [rbx]
abed:	4c 89 04 24          	mov    QWORD PTR [rsp],r8
abf1:	e8 fa 7b ff ff       	call   27f0 <dcgettext@plt>
abf6:	48 83 ec 08          	sub    rsp,0x8
abfa:	4d 89 e9             	mov    r9,r13
abfd:	41 54                	push   r12
abff:	41 57                	push   r15
ac01:	41 56                	push   r14
ac03:	4c 8b 44 24 20       	mov    r8,QWORD PTR [rsp+0x20]
ac08:	48 89 d9             	mov    rcx,rbx
ac0b:	48 89 c2             	mov    rdx,rax
ac0e:	48 89 ef             	mov    rdi,rbp
ac11:	be 01 00 00 00       	mov    esi,0x1
ac16:	31 c0                	xor    eax,eax
ac18:	e8 d3 7e ff ff       	call   2af0 <__fprintf_chk@plt>
ac1d:	48 83 c4 20          	add    rsp,0x20
ac21:	48 83 c4 28          	add    rsp,0x28
ac25:	5b                   	pop    rbx
ac26:	5d                   	pop    rbp
ac27:	41 5c                	pop    r12
ac29:	41 5d                	pop    r13
ac2b:	41 5e                	pop    r14
ac2d:	41 5f                	pop    r15
ac2f:	c3                   	ret
ac30:	4c 8b 4b 10          	mov    r9,QWORD PTR [rbx+0x10]
ac34:	4c 8b 6b 30          	mov    r13,QWORD PTR [rbx+0x30]
ac38:	48 8d 35 c9 6f 00 00 	lea    rsi,[rip+0x6fc9]        # 11c08 <quoting_style_vals+0x208>
ac3f:	4c 8b 63 28          	mov    r12,QWORD PTR [rbx+0x28]
ac43:	4c 8b 7b 20          	mov    r15,QWORD PTR [rbx+0x20]
ac47:	ba 05 00 00 00       	mov    edx,0x5
ac4c:	4c 8b 73 18          	mov    r14,QWORD PTR [rbx+0x18]
ac50:	4c 8b 43 08          	mov    r8,QWORD PTR [rbx+0x8]
ac54:	31 ff                	xor    edi,edi
ac56:	4c 89 4c 24 08       	mov    QWORD PTR [rsp+0x8],r9
ac5b:	48 8b 1b             	mov    rbx,QWORD PTR [rbx]
ac5e:	4c 89 04 24          	mov    QWORD PTR [rsp],r8
ac62:	e8 89 7b ff ff       	call   27f0 <dcgettext@plt>
ac67:	41 55                	push   r13
ac69:	41 54                	push   r12
ac6b:	41 57                	push   r15
ac6d:	41 56                	push   r14
ac6f:	4c 8b 4c 24 28       	mov    r9,QWORD PTR [rsp+0x28]
ac74:	eb 8d                	jmp    ac03 <version_etc_arn+0x353>
ac76:	66 2e 0f 1f 84 00 00 	nop    WORD PTR cs:[rax+rax*1+0x0]
ac7d:	00 00 00
ac80:	4c 8b 53 40          	mov    r10,QWORD PTR [rbx+0x40]
ac84:	4c 8b 4b 38          	mov    r9,QWORD PTR [rbx+0x38]
ac88:	ba 05 00 00 00       	mov    edx,0x5
ac8d:	48 8b 43 10          	mov    rax,QWORD PTR [rbx+0x10]
ac91:	4c 8b 43 08          	mov    r8,QWORD PTR [rbx+0x8]
ac95:	48 8d 35 04 70 00 00 	lea    rsi,[rip+0x7004]        # 11ca0 <quoting_style_vals+0x2a0>
ac9c:	4c 8b 6b 30          	mov    r13,QWORD PTR [rbx+0x30]
aca0:	4c 8b 63 28          	mov    r12,QWORD PTR [rbx+0x28]
aca4:	4c 8b 7b 20          	mov    r15,QWORD PTR [rbx+0x20]
aca8:	4c 8b 73 18          	mov    r14,QWORD PTR [rbx+0x18]
acac:	4c 89 54 24 18       	mov    QWORD PTR [rsp+0x18],r10
acb1:	4c 89 4c 24 10       	mov    QWORD PTR [rsp+0x10],r9
acb6:	48 89 04 24          	mov    QWORD PTR [rsp],rax
acba:	4c 89 44 24 08       	mov    QWORD PTR [rsp+0x8],r8
acbf:	48 8b 1b             	mov    rbx,QWORD PTR [rbx]
acc2:	e9 8b fd ff ff       	jmp    aa52 <version_etc_arn+0x1a2>
acc7:	66 0f 1f 84 00 00 00 	nop    WORD PTR [rax+rax*1+0x0]
acce:	00 00

000000000000acd0 <version_etc_ar>:
acd0:	45 31 c9             	xor    r9d,r9d
acd3:	49 83 38 00          	cmp    QWORD PTR [r8],0x0
acd7:	74 12                	je     aceb <version_etc_ar+0x1b>
acd9:	0f 1f 80 00 00 00 00 	nop    DWORD PTR [rax+0x0]
ace0:	49 83 c1 01          	add    r9,0x1
ace4:	4b 83 3c c8 00       	cmp    QWORD PTR [r8+r9*8],0x0
ace9:	75 f5                	jne    ace0 <version_etc_ar+0x10>
aceb:	e9 c0 fb ff ff       	jmp    a8b0 <version_etc_arn>

000000000000acf0 <version_etc_va>:
acf0:	48 83 ec 68          	sub    rsp,0x68
acf4:	4d 89 c2             	mov    r10,r8
acf7:	45 31 c9             	xor    r9d,r9d
acfa:	64 48 8b 04 25 28 00 	mov    rax,QWORD PTR fs:0x28
ad01:	00 00
ad03:	48 89 44 24 58       	mov    QWORD PTR [rsp+0x58],rax
ad08:	31 c0                	xor    eax,eax
ad0a:	49 89 e0             	mov    r8,rsp
ad0d:	0f 1f 00             	nop    DWORD PTR [rax]
ad10:	41 8b 02             	mov    eax,DWORD PTR [r10]
ad13:	83 f8 2f             	cmp    eax,0x2f
ad16:	77 42                	ja     ad5a <version_etc_va+0x6a>
ad18:	41 89 c3             	mov    r11d,eax
ad1b:	4d 03 5a 10          	add    r11,QWORD PTR [r10+0x10]
ad1f:	83 c0 08             	add    eax,0x8
ad22:	41 89 02             	mov    DWORD PTR [r10],eax
ad25:	49 8b 03             	mov    rax,QWORD PTR [r11]
ad28:	48 85 c0             	test   rax,rax
ad2b:	4b 89 04 c8          	mov    QWORD PTR [r8+r9*8],rax
ad2f:	74 0a                	je     ad3b <version_etc_va+0x4b>
ad31:	49 83 c1 01          	add    r9,0x1
ad35:	49 83 f9 0a          	cmp    r9,0xa
ad39:	75 d5                	jne    ad10 <version_etc_va+0x20>
ad3b:	e8 70 fb ff ff       	call   a8b0 <version_etc_arn>
ad40:	48 8b 44 24 58       	mov    rax,QWORD PTR [rsp+0x58]
ad45:	64 48 33 04 25 28 00 	xor    rax,QWORD PTR fs:0x28
ad4c:	00 00
ad4e:	75 05                	jne    ad55 <version_etc_va+0x65>
ad50:	48 83 c4 68          	add    rsp,0x68
ad54:	c3                   	ret
ad55:	e8 d6 7a ff ff       	call   2830 <__stack_chk_fail@plt>
ad5a:	4d 8b 5a 08          	mov    r11,QWORD PTR [r10+0x8]
ad5e:	49 8d 43 08          	lea    rax,[r11+0x8]
ad62:	49 89 42 08          	mov    QWORD PTR [r10+0x8],rax
ad66:	eb bd                	jmp    ad25 <version_etc_va+0x35>
ad68:	0f 1f 84 00 00 00 00 	nop    DWORD PTR [rax+rax*1+0x0]
ad6f:	00

000000000000ad70 <version_etc>:
ad70:	55                   	push   rbp
ad71:	53                   	push   rbx
ad72:	41 ba 20 00 00 00    	mov    r10d,0x20
ad78:	45 31 db             	xor    r11d,r11d
ad7b:	48 81 ec b8 00 00 00 	sub    rsp,0xb8
ad82:	64 48 8b 04 25 28 00 	mov    rax,QWORD PTR fs:0x28
ad89:	00 00
ad8b:	48 89 44 24 78       	mov    QWORD PTR [rsp+0x78],rax
ad90:	31 c0                	xor    eax,eax
ad92:	48 8d 84 24 d0 00 00 	lea    rax,[rsp+0xd0]
ad99:	00
ad9a:	4c 89 84 24 a0 00 00 	mov    QWORD PTR [rsp+0xa0],r8
ada1:	00
ada2:	48 8d 9c 24 d0 00 00 	lea    rbx,[rsp+0xd0]
ada9:	00
adaa:	4c 8d 44 24 20       	lea    r8,[rsp+0x20]
adaf:	4c 89 8c 24 a8 00 00 	mov    QWORD PTR [rsp+0xa8],r9
adb6:	00
adb7:	c7 44 24 08 20 00 00 	mov    DWORD PTR [rsp+0x8],0x20
adbe:	00
adbf:	48 89 44 24 10       	mov    QWORD PTR [rsp+0x10],rax
adc4:	48 8d 84 24 80 00 00 	lea    rax,[rsp+0x80]
adcb:	00
adcc:	45 31 c9             	xor    r9d,r9d
adcf:	48 89 44 24 18       	mov    QWORD PTR [rsp+0x18],rax
add4:	48 89 c5             	mov    rbp,rax
add7:	66 0f 1f 84 00 00 00 	nop    WORD PTR [rax+rax*1+0x0]
adde:	00 00
ade0:	41 83 fa 2f          	cmp    r10d,0x2f
ade4:	77 56                	ja     ae3c <version_etc+0xcc>
ade6:	44 89 d0             	mov    eax,r10d
ade9:	41 bb 01 00 00 00    	mov    r11d,0x1
adef:	41 83 c2 08          	add    r10d,0x8
adf3:	48 01 e8             	add    rax,rbp
adf6:	48 8b 00             	mov    rax,QWORD PTR [rax]
adf9:	48 85 c0             	test   rax,rax
adfc:	4b 89 04 c8          	mov    QWORD PTR [r8+r9*8],rax
ae00:	74 0a                	je     ae0c <version_etc+0x9c>
ae02:	49 83 c1 01          	add    r9,0x1
ae06:	49 83 f9 0a          	cmp    r9,0xa
ae0a:	75 d4                	jne    ade0 <version_etc+0x70>
ae0c:	45 84 db             	test   r11b,r11b
ae0f:	75 24                	jne    ae35 <version_etc+0xc5>
ae11:	e8 9a fa ff ff       	call   a8b0 <version_etc_arn>
ae16:	48 8b 44 24 78       	mov    rax,QWORD PTR [rsp+0x78]
ae1b:	64 48 33 04 25 28 00 	xor    rax,QWORD PTR fs:0x28
ae22:	00 00
ae24:	75 0a                	jne    ae30 <version_etc+0xc0>
ae26:	48 81 c4 b8 00 00 00 	add    rsp,0xb8
ae2d:	5b                   	pop    rbx
ae2e:	5d                   	pop    rbp
ae2f:	c3                   	ret
ae30:	e8 fb 79 ff ff       	call   2830 <__stack_chk_fail@plt>
ae35:	44 89 54 24 08       	mov    DWORD PTR [rsp+0x8],r10d
ae3a:	eb d5                	jmp    ae11 <version_etc+0xa1>
ae3c:	48 89 d8             	mov    rax,rbx
ae3f:	48 83 c3 08          	add    rbx,0x8
ae43:	eb b1                	jmp    adf6 <version_etc+0x86>
ae45:	90                   	nop
ae46:	66 2e 0f 1f 84 00 00 	nop    WORD PTR cs:[rax+rax*1+0x0]
ae4d:	00 00 00

000000000000ae50 <emit_bug_reporting_address>:
ae50:	53                   	push   rbx
ae51:	48 8d 35 2a 6c 00 00 	lea    rsi,[rip+0x6c2a]        # 11a82 <quoting_style_vals+0x82>
ae58:	ba 05 00 00 00       	mov    edx,0x5
ae5d:	31 ff                	xor    edi,edi
ae5f:	e8 8c 79 ff ff       	call   27f0 <dcgettext@plt>
ae64:	48 8d 15 2c 6c 00 00 	lea    rdx,[rip+0x6c2c]        # 11a97 <quoting_style_vals+0x97>
ae6b:	48 89 c6             	mov    rsi,rax
ae6e:	bf 01 00 00 00       	mov    edi,0x1
ae73:	31 c0                	xor    eax,eax
ae75:	e8 c6 7b ff ff       	call   2a40 <__printf_chk@plt>
ae7a:	48 8d 35 2c 6c 00 00 	lea    rsi,[rip+0x6c2c]        # 11aad <quoting_style_vals+0xad>
ae81:	ba 05 00 00 00       	mov    edx,0x5
ae86:	31 ff                	xor    edi,edi
ae88:	e8 63 79 ff ff       	call   27f0 <dcgettext@plt>
ae8d:	48 8d 0d 44 50 00 00 	lea    rcx,[rip+0x5044]        # fed8 <_IO_stdin_used+0x7b8>
ae94:	48 8d 15 1c 49 00 00 	lea    rdx,[rip+0x491c]        # f7b7 <_IO_stdin_used+0x97>
ae9b:	48 89 c6             	mov    rsi,rax
ae9e:	bf 01 00 00 00       	mov    edi,0x1
aea3:	31 c0                	xor    eax,eax
aea5:	e8 96 7b ff ff       	call   2a40 <__printf_chk@plt>
aeaa:	48 8b 1d f7 a1 20 00 	mov    rbx,QWORD PTR [rip+0x20a1f7]        # 2150a8 <stdout@@GLIBC_2.2.5>
aeb1:	48 8d 35 28 6e 00 00 	lea    rsi,[rip+0x6e28]        # 11ce0 <quoting_style_vals+0x2e0>
aeb8:	31 ff                	xor    edi,edi
aeba:	ba 05 00 00 00       	mov    edx,0x5
aebf:	e8 2c 79 ff ff       	call   27f0 <dcgettext@plt>
aec4:	48 89 de             	mov    rsi,rbx
aec7:	48 89 c7             	mov    rdi,rax
aeca:	5b                   	pop    rbx
aecb:	e9 60 7a ff ff       	jmp    2930 <fputs_unlocked@plt>

000000000000aed0 <xmalloc>:
aed0:	53                   	push   rbx
aed1:	48 89 fb             	mov    rbx,rdi
aed4:	e8 f7 7a ff ff       	call   29d0 <malloc@plt>
aed9:	48 85 c0             	test   rax,rax
aedc:	75 05                	jne    aee3 <xmalloc+0x13>
aede:	48 85 db             	test   rbx,rbx
aee1:	75 02                	jne    aee5 <xmalloc+0x15>
aee3:	5b                   	pop    rbx
aee4:	c3                   	ret
aee5:	e8 36 02 00 00       	call   b120 <xalloc_die>
aeea:	66 0f 1f 44 00 00    	nop    WORD PTR [rax+rax*1+0x0]

000000000000aef0 <xnmalloc>:
aef0:	48 89 f8             	mov    rax,rdi
aef3:	48 f7 e6             	mul    rsi
aef6:	48 89 c7             	mov    rdi,rax
aef9:	0f 90 c0             	seto   al
aefc:	48 85 ff             	test   rdi,rdi
aeff:	78 0a                	js     af0b <xnmalloc+0x1b>
af01:	0f b6 c0             	movzx  eax,al
af04:	48 85 c0             	test   rax,rax
af07:	75 02                	jne    af0b <xnmalloc+0x1b>
af09:	eb c5                	jmp    aed0 <xmalloc>
af0b:	48 83 ec 08          	sub    rsp,0x8
af0f:	e8 0c 02 00 00       	call   b120 <xalloc_die>
af14:	66 90                	xchg   ax,ax
af16:	66 2e 0f 1f 84 00 00 	nop    WORD PTR cs:[rax+rax*1+0x0]
af1d:	00 00 00

000000000000af20 <xcharalloc>:
af20:	eb ae                	jmp    aed0 <xmalloc>
af22:	0f 1f 40 00          	nop    DWORD PTR [rax+0x0]
af26:	66 2e 0f 1f 84 00 00 	nop    WORD PTR cs:[rax+rax*1+0x0]
af2d:	00 00 00

000000000000af30 <xrealloc>:
af30:	48 85 f6             	test   rsi,rsi
af33:	53                   	push   rbx
af34:	48 89 f3             	mov    rbx,rsi
af37:	75 05                	jne    af3e <xrealloc+0xe>
af39:	48 85 ff             	test   rdi,rdi
af3c:	75 1a                	jne    af58 <xrealloc+0x28>
af3e:	48 89 de             	mov    rsi,rbx
af41:	e8 da 7a ff ff       	call   2a20 <realloc@plt>
af46:	48 85 c0             	test   rax,rax
af49:	75 05                	jne    af50 <xrealloc+0x20>
af4b:	48 85 db             	test   rbx,rbx
af4e:	75 11                	jne    af61 <xrealloc+0x31>
af50:	5b                   	pop    rbx
af51:	c3                   	ret
af52:	66 0f 1f 44 00 00    	nop    WORD PTR [rax+rax*1+0x0]
af58:	e8 b3 77 ff ff       	call   2710 <free@plt>
af5d:	31 c0                	xor    eax,eax
af5f:	5b                   	pop    rbx
af60:	c3                   	ret
af61:	e8 ba 01 00 00       	call   b120 <xalloc_die>
af66:	66 2e 0f 1f 84 00 00 	nop    WORD PTR cs:[rax+rax*1+0x0]
af6d:	00 00 00

000000000000af70 <xnrealloc>:
af70:	48 89 f0             	mov    rax,rsi
af73:	48 f7 e2             	mul    rdx
af76:	48 89 c6             	mov    rsi,rax
af79:	0f 90 c0             	seto   al
af7c:	48 85 f6             	test   rsi,rsi
af7f:	78 0a                	js     af8b <xnrealloc+0x1b>
af81:	0f b6 c0             	movzx  eax,al
af84:	48 85 c0             	test   rax,rax
af87:	75 02                	jne    af8b <xnrealloc+0x1b>
af89:	eb a5                	jmp    af30 <xrealloc>
af8b:	48 83 ec 08          	sub    rsp,0x8
af8f:	e8 8c 01 00 00       	call   b120 <xalloc_die>
af94:	66 90                	xchg   ax,ax
af96:	66 2e 0f 1f 84 00 00 	nop    WORD PTR cs:[rax+rax*1+0x0]
af9d:	00 00 00

000000000000afa0 <x2nrealloc>:
afa0:	48 85 ff             	test   rdi,rdi
afa3:	49 89 d1             	mov    r9,rdx
afa6:	48 8b 0e             	mov    rcx,QWORD PTR [rsi]
afa9:	74 35                	je     afe0 <x2nrealloc+0x40>
afab:	31 d2                	xor    edx,edx
afad:	48 b8 54 55 55 55 55 	movabs rax,0x5555555555555554
afb4:	55 55 55
afb7:	49 f7 f1             	div    r9
afba:	48 39 c8             	cmp    rax,rcx
afbd:	76 3c                	jbe    affb <x2nrealloc+0x5b>
afbf:	48 89 c8             	mov    rax,rcx
afc2:	48 d1 e8             	shr    rax,1
afc5:	48 8d 4c 08 01       	lea    rcx,[rax+rcx*1+0x1]
afca:	48 89 0e             	mov    QWORD PTR [rsi],rcx
afcd:	49 0f af c9          	imul   rcx,r9
afd1:	48 89 ce             	mov    rsi,rcx
afd4:	e9 57 ff ff ff       	jmp    af30 <xrealloc>
afd9:	0f 1f 80 00 00 00 00 	nop    DWORD PTR [rax+0x0]
afe0:	48 85 c9             	test   rcx,rcx
afe3:	74 23                	je     b008 <x2nrealloc+0x68>
afe5:	48 89 c8             	mov    rax,rcx
afe8:	49 f7 e1             	mul    r9
afeb:	0f 90 c2             	seto   dl
afee:	48 85 c0             	test   rax,rax
aff1:	0f b6 d2             	movzx  edx,dl
aff4:	78 05                	js     affb <x2nrealloc+0x5b>
aff6:	48 85 d2             	test   rdx,rdx
aff9:	74 cf                	je     afca <x2nrealloc+0x2a>
affb:	48 83 ec 08          	sub    rsp,0x8
afff:	e8 1c 01 00 00       	call   b120 <xalloc_die>
b004:	0f 1f 40 00          	nop    DWORD PTR [rax+0x0]
b008:	31 d2                	xor    edx,edx
b00a:	b8 80 00 00 00       	mov    eax,0x80
b00f:	45 31 c0             	xor    r8d,r8d
b012:	49 f7 f1             	div    r9
b015:	48 85 c0             	test   rax,rax
b018:	41 0f 94 c0          	sete   r8b
b01c:	49 8d 0c 00          	lea    rcx,[r8+rax*1]
b020:	eb c3                	jmp    afe5 <x2nrealloc+0x45>
b022:	0f 1f 40 00          	nop    DWORD PTR [rax+0x0]
b026:	66 2e 0f 1f 84 00 00 	nop    WORD PTR cs:[rax+rax*1+0x0]
b02d:	00 00 00

000000000000b030 <x2realloc>:
b030:	48 85 ff             	test   rdi,rdi
b033:	48 8b 06             	mov    rax,QWORD PTR [rsi]
b036:	74 28                	je     b060 <x2realloc+0x30>
b038:	48 ba 53 55 55 55 55 	movabs rdx,0x5555555555555553
b03f:	55 55 55
b042:	48 39 d0             	cmp    rax,rdx
b045:	77 2a                	ja     b071 <x2realloc+0x41>
b047:	48 89 c2             	mov    rdx,rax
b04a:	48 d1 ea             	shr    rdx,1
b04d:	48 8d 44 02 01       	lea    rax,[rdx+rax*1+0x1]
b052:	48 89 06             	mov    QWORD PTR [rsi],rax
b055:	48 89 c6             	mov    rsi,rax
b058:	e9 d3 fe ff ff       	jmp    af30 <xrealloc>
b05d:	0f 1f 00             	nop    DWORD PTR [rax]
b060:	48 85 c0             	test   rax,rax
b063:	ba 80 00 00 00       	mov    edx,0x80
b068:	48 0f 44 c2          	cmove  rax,rdx
b06c:	48 85 c0             	test   rax,rax
b06f:	79 e1                	jns    b052 <x2realloc+0x22>
b071:	48 83 ec 08          	sub    rsp,0x8
b075:	e8 a6 00 00 00       	call   b120 <xalloc_die>
b07a:	66 0f 1f 44 00 00    	nop    WORD PTR [rax+rax*1+0x0]

000000000000b080 <xzalloc>:
b080:	53                   	push   rbx
b081:	48 89 fb             	mov    rbx,rdi
b084:	e8 47 fe ff ff       	call   aed0 <xmalloc>
b089:	48 89 da             	mov    rdx,rbx
b08c:	31 f6                	xor    esi,esi
b08e:	48 89 c7             	mov    rdi,rax
b091:	5b                   	pop    rbx
b092:	e9 59 78 ff ff       	jmp    28f0 <memset@plt>
b097:	66 0f 1f 84 00 00 00 	nop    WORD PTR [rax+rax*1+0x0]
b09e:	00 00

000000000000b0a0 <xcalloc>:
b0a0:	48 89 f8             	mov    rax,rdi
b0a3:	48 83 ec 08          	sub    rsp,0x8
b0a7:	48 f7 e6             	mul    rsi
b0aa:	0f 90 c2             	seto   dl
b0ad:	48 85 c0             	test   rax,rax
b0b0:	78 17                	js     b0c9 <xcalloc+0x29>
b0b2:	0f b6 d2             	movzx  edx,dl
b0b5:	48 85 d2             	test   rdx,rdx
b0b8:	75 0f                	jne    b0c9 <xcalloc+0x29>
b0ba:	e8 81 78 ff ff       	call   2940 <calloc@plt>
b0bf:	48 85 c0             	test   rax,rax
b0c2:	74 05                	je     b0c9 <xcalloc+0x29>
b0c4:	48 83 c4 08          	add    rsp,0x8
b0c8:	c3                   	ret
b0c9:	e8 52 00 00 00       	call   b120 <xalloc_die>
b0ce:	66 90                	xchg   ax,ax

000000000000b0d0 <xmemdup>:
b0d0:	55                   	push   rbp
b0d1:	53                   	push   rbx
b0d2:	48 89 fd             	mov    rbp,rdi
b0d5:	48 89 f7             	mov    rdi,rsi
b0d8:	48 89 f3             	mov    rbx,rsi
b0db:	48 83 ec 08          	sub    rsp,0x8
b0df:	e8 ec fd ff ff       	call   aed0 <xmalloc>
b0e4:	48 83 c4 08          	add    rsp,0x8
b0e8:	48 89 da             	mov    rdx,rbx
b0eb:	48 89 ee             	mov    rsi,rbp
b0ee:	5b                   	pop    rbx
b0ef:	5d                   	pop    rbp
b0f0:	48 89 c7             	mov    rdi,rax
b0f3:	e9 78 78 ff ff       	jmp    2970 <memcpy@plt>
b0f8:	0f 1f 84 00 00 00 00 	nop    DWORD PTR [rax+rax*1+0x0]
b0ff:	00

000000000000b100 <xstrdup>:
b100:	53                   	push   rbx
b101:	48 89 fb             	mov    rbx,rdi
b104:	e8 07 77 ff ff       	call   2810 <strlen@plt>
b109:	48 89 df             	mov    rdi,rbx
b10c:	48 8d 70 01          	lea    rsi,[rax+0x1]
b110:	5b                   	pop    rbx
b111:	eb bd                	jmp    b0d0 <xmemdup>
b113:	66 2e 0f 1f 84 00 00 	nop    WORD PTR cs:[rax+rax*1+0x0]
b11a:	00 00 00
b11d:	0f 1f 00             	nop    DWORD PTR [rax]

000000000000b120 <xalloc_die>:
b120:	48 8d 35 68 6c 00 00 	lea    rsi,[rip+0x6c68]        # 11d8f <version_etc_copyright+0x2f>
b127:	48 83 ec 08          	sub    rsp,0x8
b12b:	ba 05 00 00 00       	mov    edx,0x5
b130:	31 ff                	xor    edi,edi
b132:	e8 b9 76 ff ff       	call   27f0 <dcgettext@plt>
b137:	8b 3d e3 9e 20 00    	mov    edi,DWORD PTR [rip+0x209ee3]        # 215020 <exit_failure>
b13d:	48 8d 15 5c 4f 00 00 	lea    rdx,[rip+0x4f5c]        # 100a0 <time_masks+0x70>
b144:	48 89 c1             	mov    rcx,rax
b147:	31 f6                	xor    esi,esi
b149:	31 c0                	xor    eax,eax
b14b:	e8 20 79 ff ff       	call   2a70 <error@plt>
b150:	e8 eb 75 ff ff       	call   2740 <abort@plt>
b155:	66 2e 0f 1f 84 00 00 	nop    WORD PTR cs:[rax+rax*1+0x0]
b15c:	00 00 00
b15f:	90                   	nop

000000000000b160 <rpl_mbrtowc>:
b160:	41 55                	push   r13
b162:	41 54                	push   r12
b164:	49 89 f5             	mov    r13,rsi
b167:	55                   	push   rbp
b168:	53                   	push   rbx
b169:	48 89 fb             	mov    rbx,rdi
b16c:	49 89 d4             	mov    r12,rdx
b16f:	48 83 ec 18          	sub    rsp,0x18
b173:	64 48 8b 04 25 28 00 	mov    rax,QWORD PTR fs:0x28
b17a:	00 00
b17c:	48 89 44 24 08       	mov    QWORD PTR [rsp+0x8],rax
b181:	31 c0                	xor    eax,eax
b183:	48 8d 44 24 04       	lea    rax,[rsp+0x4]
b188:	48 85 ff             	test   rdi,rdi
b18b:	48 0f 44 d8          	cmove  rbx,rax
b18f:	48 89 df             	mov    rdi,rbx
b192:	e8 b9 76 ff ff       	call   2850 <mbrtowc@plt>
b197:	48 83 f8 fd          	cmp    rax,0xfffffffffffffffd
b19b:	48 89 c5             	mov    rbp,rax
b19e:	76 20                	jbe    b1c0 <rpl_mbrtowc+0x60>
b1a0:	4d 85 e4             	test   r12,r12
b1a3:	74 1b                	je     b1c0 <rpl_mbrtowc+0x60>
b1a5:	31 ff                	xor    edi,edi
b1a7:	e8 44 07 00 00       	call   b8f0 <hard_locale>
b1ac:	84 c0                	test   al,al
b1ae:	75 10                	jne    b1c0 <rpl_mbrtowc+0x60>
b1b0:	41 0f b6 45 00       	movzx  eax,BYTE PTR [r13+0x0]
b1b5:	bd 01 00 00 00       	mov    ebp,0x1
b1ba:	89 03                	mov    DWORD PTR [rbx],eax
b1bc:	0f 1f 40 00          	nop    DWORD PTR [rax+0x0]
b1c0:	48 8b 54 24 08       	mov    rdx,QWORD PTR [rsp+0x8]
b1c5:	64 48 33 14 25 28 00 	xor    rdx,QWORD PTR fs:0x28
b1cc:	00 00
b1ce:	48 89 e8             	mov    rax,rbp
b1d1:	75 0b                	jne    b1de <rpl_mbrtowc+0x7e>
b1d3:	48 83 c4 18          	add    rsp,0x18
b1d7:	5b                   	pop    rbx
b1d8:	5d                   	pop    rbp
b1d9:	41 5c                	pop    r12
b1db:	41 5d                	pop    r13
b1dd:	c3                   	ret
b1de:	e8 4d 76 ff ff       	call   2830 <__stack_chk_fail@plt>
b1e3:	66 2e 0f 1f 84 00 00 	nop    WORD PTR cs:[rax+rax*1+0x0]
b1ea:	00 00 00
b1ed:	0f 1f 00             	nop    DWORD PTR [rax]

000000000000b1f0 <setenv_TZ>:
b1f0:	48 85 ff             	test   rdi,rdi
b1f3:	74 1b                	je     b210 <setenv_TZ+0x20>
b1f5:	48 89 fe             	mov    rsi,rdi
b1f8:	48 8d 3d d5 52 00 00 	lea    rdi,[rip+0x52d5]        # 104d4 <time_masks+0x4a4>
b1ff:	ba 01 00 00 00       	mov    edx,0x1
b204:	e9 a7 75 ff ff       	jmp    27b0 <setenv@plt>
b209:	0f 1f 80 00 00 00 00 	nop    DWORD PTR [rax+0x0]
b210:	48 8d 3d bd 52 00 00 	lea    rdi,[rip+0x52bd]        # 104d4 <time_masks+0x4a4>
b217:	e9 84 78 ff ff       	jmp    2aa0 <unsetenv@plt>
b21c:	0f 1f 40 00          	nop    DWORD PTR [rax+0x0]

000000000000b220 <tzfree.part.0>:
b220:	48 85 ff             	test   rdi,rdi
b223:	74 23                	je     b248 <tzfree.part.0+0x28>
b225:	53                   	push   rbx
b226:	66 2e 0f 1f 84 00 00 	nop    WORD PTR cs:[rax+rax*1+0x0]
b22d:	00 00 00
b230:	48 8b 1f             	mov    rbx,QWORD PTR [rdi]
b233:	e8 d8 74 ff ff       	call   2710 <free@plt>
b238:	48 85 db             	test   rbx,rbx
b23b:	48 89 df             	mov    rdi,rbx
b23e:	75 f0                	jne    b230 <tzfree.part.0+0x10>
b240:	5b                   	pop    rbx
b241:	c3                   	ret
b242:	66 0f 1f 44 00 00    	nop    WORD PTR [rax+rax*1+0x0]
b248:	f3 c3                	repz ret
b24a:	66 0f 1f 44 00 00    	nop    WORD PTR [rax+rax*1+0x0]

000000000000b250 <revert_tz.part.1>:
b250:	41 55                	push   r13
b252:	41 54                	push   r12
b254:	55                   	push   rbp
b255:	53                   	push   rbx
b256:	48 89 fd             	mov    rbp,rdi
b259:	48 83 ec 08          	sub    rsp,0x8
b25d:	e8 ee 74 ff ff       	call   2750 <__errno_location@plt>
b262:	80 7d 08 00          	cmp    BYTE PTR [rbp+0x8],0x0
b266:	48 89 c3             	mov    rbx,rax
b269:	44 8b 20             	mov    r12d,DWORD PTR [rax]
b26c:	48 8d 7d 09          	lea    rdi,[rbp+0x9]
b270:	75 02                	jne    b274 <revert_tz.part.1+0x24>
b272:	31 ff                	xor    edi,edi
b274:	e8 77 ff ff ff       	call   b1f0 <setenv_TZ>
b279:	85 c0                	test   eax,eax
b27b:	74 23                	je     b2a0 <revert_tz.part.1+0x50>
b27d:	44 8b 23             	mov    r12d,DWORD PTR [rbx]
b280:	45 31 ed             	xor    r13d,r13d
b283:	48 89 ef             	mov    rdi,rbp
b286:	e8 95 ff ff ff       	call   b220 <tzfree.part.0>
b28b:	44 89 23             	mov    DWORD PTR [rbx],r12d
b28e:	48 83 c4 08          	add    rsp,0x8
b292:	44 89 e8             	mov    eax,r13d
b295:	5b                   	pop    rbx
b296:	5d                   	pop    rbp
b297:	41 5c                	pop    r12
b299:	41 5d                	pop    r13
b29b:	c3                   	ret
b29c:	0f 1f 40 00          	nop    DWORD PTR [rax+0x0]
b2a0:	e8 db 76 ff ff       	call   2980 <tzset@plt>
b2a5:	41 bd 01 00 00 00    	mov    r13d,0x1
b2ab:	eb d6                	jmp    b283 <revert_tz.part.1+0x33>
b2ad:	0f 1f 00             	nop    DWORD PTR [rax]

000000000000b2b0 <tzalloc>:
b2b0:	48 85 ff             	test   rdi,rdi
b2b3:	41 54                	push   r12
b2b5:	55                   	push   rbp
b2b6:	53                   	push   rbx
b2b7:	74 5f                	je     b318 <tzalloc+0x68>
b2b9:	49 89 fc             	mov    r12,rdi
b2bc:	e8 4f 75 ff ff       	call   2810 <strlen@plt>
b2c1:	48 8d 68 01          	lea    rbp,[rax+0x1]
b2c5:	bf 76 00 00 00       	mov    edi,0x76
b2ca:	48 83 fd 76          	cmp    rbp,0x76
b2ce:	48 0f 43 fd          	cmovae rdi,rbp
b2d2:	48 83 c7 11          	add    rdi,0x11
b2d6:	48 83 e7 f8          	and    rdi,0xfffffffffffffff8
b2da:	e8 f1 76 ff ff       	call   29d0 <malloc@plt>
b2df:	48 85 c0             	test   rax,rax
b2e2:	48 89 c3             	mov    rbx,rax
b2e5:	74 24                	je     b30b <tzalloc+0x5b>
b2e7:	48 c7 00 00 00 00 00 	mov    QWORD PTR [rax],0x0
b2ee:	48 8d 7b 09          	lea    rdi,[rbx+0x9]
b2f2:	b8 01 00 00 00       	mov    eax,0x1
b2f7:	66 89 43 08          	mov    WORD PTR [rbx+0x8],ax
b2fb:	48 89 ea             	mov    rdx,rbp
b2fe:	4c 89 e6             	mov    rsi,r12
b301:	e8 6a 76 ff ff       	call   2970 <memcpy@plt>
b306:	c6 44 2b 09 00       	mov    BYTE PTR [rbx+rbp*1+0x9],0x0
b30b:	48 89 d8             	mov    rax,rbx
b30e:	5b                   	pop    rbx
b30f:	5d                   	pop    rbp
b310:	41 5c                	pop    r12
b312:	c3                   	ret
b313:	0f 1f 44 00 00       	nop    DWORD PTR [rax+rax*1+0x0]
b318:	bf 80 00 00 00       	mov    edi,0x80
b31d:	e8 ae 76 ff ff       	call   29d0 <malloc@plt>
b322:	48 85 c0             	test   rax,rax
b325:	48 89 c3             	mov    rbx,rax
b328:	74 e1                	je     b30b <tzalloc+0x5b>
b32a:	31 d2                	xor    edx,edx
b32c:	48 c7 03 00 00 00 00 	mov    QWORD PTR [rbx],0x0
b333:	48 89 d8             	mov    rax,rbx
b336:	66 89 53 08          	mov    WORD PTR [rbx+0x8],dx
b33a:	5b                   	pop    rbx
b33b:	5d                   	pop    rbp
b33c:	41 5c                	pop    r12
b33e:	c3                   	ret
b33f:	90                   	nop

000000000000b340 <save_abbr>:
b340:	41 57                	push   r15
b342:	41 56                	push   r14
b344:	b8 01 00 00 00       	mov    eax,0x1
b349:	41 55                	push   r13
b34b:	41 54                	push   r12
b34d:	55                   	push   rbp
b34e:	53                   	push   rbx
b34f:	48 83 ec 08          	sub    rsp,0x8
b353:	48 8b 6e 30          	mov    rbp,QWORD PTR [rsi+0x30]
b357:	48 85 ed             	test   rbp,rbp
b35a:	0f 84 90 00 00 00    	je     b3f0 <save_abbr+0xb0>
b360:	48 39 ee             	cmp    rsi,rbp
b363:	49 89 fc             	mov    r12,rdi
b366:	49 89 f5             	mov    r13,rsi
b369:	77 09                	ja     b374 <save_abbr+0x34>
b36b:	48 8d 56 38          	lea    rdx,[rsi+0x38]
b36f:	48 39 d5             	cmp    rbp,rdx
b372:	72 7c                	jb     b3f0 <save_abbr+0xb0>
b374:	80 7d 00 00          	cmp    BYTE PTR [rbp+0x0],0x0
b378:	49 8d 5c 24 09       	lea    rbx,[r12+0x9]
b37d:	74 61                	je     b3e0 <save_abbr+0xa0>
b37f:	90                   	nop
b380:	48 89 ee             	mov    rsi,rbp
b383:	48 89 df             	mov    rdi,rbx
b386:	e8 c5 75 ff ff       	call   2950 <strcmp@plt>
b38b:	85 c0                	test   eax,eax
b38d:	74 58                	je     b3e7 <save_abbr+0xa7>
b38f:	80 3b 00             	cmp    BYTE PTR [rbx],0x0
b392:	75 12                	jne    b3a6 <save_abbr+0x66>
b394:	4d 8d 74 24 09       	lea    r14,[r12+0x9]
b399:	49 39 de             	cmp    r14,rbx
b39c:	75 62                	jne    b400 <save_abbr+0xc0>
b39e:	41 80 7c 24 08 00    	cmp    BYTE PTR [r12+0x8],0x0
b3a4:	74 5a                	je     b400 <save_abbr+0xc0>
b3a6:	48 89 df             	mov    rdi,rbx
b3a9:	e8 62 74 ff ff       	call   2810 <strlen@plt>
b3ae:	48 8d 5c 03 01       	lea    rbx,[rbx+rax*1+0x1]
b3b3:	80 3b 00             	cmp    BYTE PTR [rbx],0x0
b3b6:	75 c8                	jne    b380 <save_abbr+0x40>
b3b8:	49 8b 04 24          	mov    rax,QWORD PTR [r12]
b3bc:	48 85 c0             	test   rax,rax
b3bf:	74 bf                	je     b380 <save_abbr+0x40>
b3c1:	48 8d 58 09          	lea    rbx,[rax+0x9]
b3c5:	48 89 ee             	mov    rsi,rbp
b3c8:	49 89 c4             	mov    r12,rax
b3cb:	48 89 df             	mov    rdi,rbx
b3ce:	e8 7d 75 ff ff       	call   2950 <strcmp@plt>
b3d3:	85 c0                	test   eax,eax
b3d5:	75 b8                	jne    b38f <save_abbr+0x4f>
b3d7:	eb 0e                	jmp    b3e7 <save_abbr+0xa7>
b3d9:	0f 1f 80 00 00 00 00 	nop    DWORD PTR [rax+0x0]
b3e0:	48 8d 1d 8f 4f 00 00 	lea    rbx,[rip+0x4f8f]        # 10376 <time_masks+0x346>
b3e7:	49 89 5d 30          	mov    QWORD PTR [r13+0x30],rbx
b3eb:	b8 01 00 00 00       	mov    eax,0x1
b3f0:	48 83 c4 08          	add    rsp,0x8
b3f4:	5b                   	pop    rbx
b3f5:	5d                   	pop    rbp
b3f6:	41 5c                	pop    r12
b3f8:	41 5d                	pop    r13
b3fa:	41 5e                	pop    r14
b3fc:	41 5f                	pop    r15
b3fe:	c3                   	ret
b3ff:	90                   	nop
b400:	48 89 ef             	mov    rdi,rbp
b403:	e8 08 74 ff ff       	call   2810 <strlen@plt>
b408:	48 8d 50 01          	lea    rdx,[rax+0x1]
b40c:	49 89 c7             	mov    r15,rax
b40f:	48 89 d8             	mov    rax,rbx
b412:	4c 29 f0             	sub    rax,r14
b415:	48 89 c1             	mov    rcx,rax
b418:	48 f7 d1             	not    rcx
b41b:	48 39 d1             	cmp    rcx,rdx
b41e:	72 30                	jb     b450 <save_abbr+0x110>
b420:	48 01 d0             	add    rax,rdx
b423:	48 83 f8 76          	cmp    rax,0x76
b427:	76 37                	jbe    b460 <save_abbr+0x120>
b429:	48 89 ef             	mov    rdi,rbp
b42c:	e8 7f fe ff ff       	call   b2b0 <tzalloc>
b431:	48 89 c3             	mov    rbx,rax
b434:	49 89 04 24          	mov    QWORD PTR [r12],rax
b438:	31 c0                	xor    eax,eax
b43a:	48 85 db             	test   rbx,rbx
b43d:	74 b1                	je     b3f0 <save_abbr+0xb0>
b43f:	c6 43 08 00          	mov    BYTE PTR [rbx+0x8],0x0
b443:	48 83 c3 09          	add    rbx,0x9
b447:	eb 9e                	jmp    b3e7 <save_abbr+0xa7>
b449:	0f 1f 80 00 00 00 00 	nop    DWORD PTR [rax+0x0]
b450:	e8 fb 72 ff ff       	call   2750 <__errno_location@plt>
b455:	c7 00 0c 00 00 00    	mov    DWORD PTR [rax],0xc
b45b:	31 c0                	xor    eax,eax
b45d:	eb 91                	jmp    b3f0 <save_abbr+0xb0>
b45f:	90                   	nop
b460:	48 89 ee             	mov    rsi,rbp
b463:	48 89 df             	mov    rdi,rbx
b466:	e8 05 75 ff ff       	call   2970 <memcpy@plt>
b46b:	42 c6 44 3b 01 00    	mov    BYTE PTR [rbx+r15*1+0x1],0x0
b471:	e9 71 ff ff ff       	jmp    b3e7 <save_abbr+0xa7>
b476:	66 2e 0f 1f 84 00 00 	nop    WORD PTR cs:[rax+rax*1+0x0]
b47d:	00 00 00

000000000000b480 <set_tz>:
b480:	41 54                	push   r12
b482:	55                   	push   rbp
b483:	48 89 fd             	mov    rbp,rdi
b486:	53                   	push   rbx
b487:	48 8d 3d 46 50 00 00 	lea    rdi,[rip+0x5046]        # 104d4 <time_masks+0x4a4>
b48e:	48 83 ec 10          	sub    rsp,0x10
b492:	e8 59 72 ff ff       	call   26f0 <getenv@plt>
b497:	48 85 c0             	test   rax,rax
b49a:	48 89 c3             	mov    rbx,rax
b49d:	0f 84 95 00 00 00    	je     b538 <set_tz+0xb8>
b4a3:	80 7d 08 00          	cmp    BYTE PTR [rbp+0x8],0x0
b4a7:	75 67                	jne    b510 <set_tz+0x90>
b4a9:	48 89 df             	mov    rdi,rbx
b4ac:	e8 ff fd ff ff       	call   b2b0 <tzalloc>
b4b1:	48 85 c0             	test   rax,rax
b4b4:	49 89 c4             	mov    r12,rax
b4b7:	74 44                	je     b4fd <set_tz+0x7d>
b4b9:	31 ff                	xor    edi,edi
b4bb:	80 7d 08 00          	cmp    BYTE PTR [rbp+0x8],0x0
b4bf:	74 04                	je     b4c5 <set_tz+0x45>
b4c1:	48 8d 7d 09          	lea    rdi,[rbp+0x9]
b4c5:	e8 26 fd ff ff       	call   b1f0 <setenv_TZ>
b4ca:	85 c0                	test   eax,eax
b4cc:	0f 84 86 00 00 00    	je     b558 <set_tz+0xd8>
b4d2:	e8 79 72 ff ff       	call   2750 <__errno_location@plt>
b4d7:	49 83 fc 01          	cmp    r12,0x1
b4db:	8b 18                	mov    ebx,DWORD PTR [rax]
b4dd:	74 19                	je     b4f8 <set_tz+0x78>
b4df:	4c 89 e7             	mov    rdi,r12
b4e2:	48 89 44 24 08       	mov    QWORD PTR [rsp+0x8],rax
b4e7:	e8 34 fd ff ff       	call   b220 <tzfree.part.0>
b4ec:	48 8b 44 24 08       	mov    rax,QWORD PTR [rsp+0x8]
b4f1:	0f 1f 80 00 00 00 00 	nop    DWORD PTR [rax+0x0]
b4f8:	89 18                	mov    DWORD PTR [rax],ebx
b4fa:	45 31 e4             	xor    r12d,r12d
b4fd:	48 83 c4 10          	add    rsp,0x10
b501:	4c 89 e0             	mov    rax,r12
b504:	5b                   	pop    rbx
b505:	5d                   	pop    rbp
b506:	41 5c                	pop    r12
b508:	c3                   	ret
b509:	0f 1f 80 00 00 00 00 	nop    DWORD PTR [rax+0x0]
b510:	48 8d 7d 09          	lea    rdi,[rbp+0x9]
b514:	48 89 c6             	mov    rsi,rax
b517:	41 bc 01 00 00 00    	mov    r12d,0x1
b51d:	e8 2e 74 ff ff       	call   2950 <strcmp@plt>
b522:	85 c0                	test   eax,eax
b524:	75 83                	jne    b4a9 <set_tz+0x29>
b526:	48 83 c4 10          	add    rsp,0x10
b52a:	4c 89 e0             	mov    rax,r12
b52d:	5b                   	pop    rbx
b52e:	5d                   	pop    rbp
b52f:	41 5c                	pop    r12
b531:	c3                   	ret
b532:	66 0f 1f 44 00 00    	nop    WORD PTR [rax+rax*1+0x0]
b538:	80 7d 08 00          	cmp    BYTE PTR [rbp+0x8],0x0
b53c:	41 bc 01 00 00 00    	mov    r12d,0x1
b542:	0f 85 61 ff ff ff    	jne    b4a9 <set_tz+0x29>
b548:	48 83 c4 10          	add    rsp,0x10
b54c:	4c 89 e0             	mov    rax,r12
b54f:	5b                   	pop    rbx
b550:	5d                   	pop    rbp
b551:	41 5c                	pop    r12
b553:	c3                   	ret
b554:	0f 1f 40 00          	nop    DWORD PTR [rax+0x0]
b558:	e8 23 74 ff ff       	call   2980 <tzset@plt>
b55d:	eb 9e                	jmp    b4fd <set_tz+0x7d>
b55f:	90                   	nop

000000000000b560 <tzfree>:
b560:	48 83 ff 01          	cmp    rdi,0x1
b564:	74 05                	je     b56b <tzfree+0xb>
b566:	e9 b5 fc ff ff       	jmp    b220 <tzfree.part.0>
b56b:	c3                   	ret
b56c:	0f 1f 40 00          	nop    DWORD PTR [rax+0x0]

000000000000b570 <localtime_rz>:
b570:	41 55                	push   r13
b572:	41 54                	push   r12
b574:	55                   	push   rbp
b575:	53                   	push   rbx
b576:	48 89 f5             	mov    rbp,rsi
b579:	48 83 ec 08          	sub    rsp,0x8
b57d:	48 85 ff             	test   rdi,rdi
b580:	74 6e                	je     b5f0 <localtime_rz+0x80>
b582:	49 89 d5             	mov    r13,rdx
b585:	48 89 fb             	mov    rbx,rdi
b588:	e8 f3 fe ff ff       	call   b480 <set_tz>
b58d:	48 85 c0             	test   rax,rax
b590:	49 89 c4             	mov    r12,rax
b593:	74 49                	je     b5de <localtime_rz+0x6e>
b595:	4c 89 ee             	mov    rsi,r13
b598:	48 89 ef             	mov    rdi,rbp
b59b:	e8 d0 71 ff ff       	call   2770 <localtime_r@plt>
b5a0:	48 85 c0             	test   rax,rax
b5a3:	74 2b                	je     b5d0 <localtime_rz+0x60>
b5a5:	4c 89 ee             	mov    rsi,r13
b5a8:	48 89 df             	mov    rdi,rbx
b5ab:	e8 90 fd ff ff       	call   b340 <save_abbr>
b5b0:	84 c0                	test   al,al
b5b2:	74 1c                	je     b5d0 <localtime_rz+0x60>
b5b4:	49 83 fc 01          	cmp    r12,0x1
b5b8:	75 4b                	jne    b605 <localtime_rz+0x95>
b5ba:	48 83 c4 08          	add    rsp,0x8
b5be:	4c 89 e8             	mov    rax,r13
b5c1:	5b                   	pop    rbx
b5c2:	5d                   	pop    rbp
b5c3:	41 5c                	pop    r12
b5c5:	41 5d                	pop    r13
b5c7:	c3                   	ret
b5c8:	0f 1f 84 00 00 00 00 	nop    DWORD PTR [rax+rax*1+0x0]
b5cf:	00
b5d0:	49 83 fc 01          	cmp    r12,0x1
b5d4:	74 08                	je     b5de <localtime_rz+0x6e>
b5d6:	4c 89 e7             	mov    rdi,r12
b5d9:	e8 72 fc ff ff       	call   b250 <revert_tz.part.1>
b5de:	48 83 c4 08          	add    rsp,0x8
b5e2:	31 c0                	xor    eax,eax
b5e4:	5b                   	pop    rbx
b5e5:	5d                   	pop    rbp
b5e6:	41 5c                	pop    r12
b5e8:	41 5d                	pop    r13
b5ea:	c3                   	ret
b5eb:	0f 1f 44 00 00       	nop    DWORD PTR [rax+rax*1+0x0]
b5f0:	48 83 c4 08          	add    rsp,0x8
b5f4:	48 89 ef             	mov    rdi,rbp
b5f7:	48 89 d6             	mov    rsi,rdx
b5fa:	5b                   	pop    rbx
b5fb:	5d                   	pop    rbp
b5fc:	41 5c                	pop    r12
b5fe:	41 5d                	pop    r13
b600:	e9 ab 72 ff ff       	jmp    28b0 <gmtime_r@plt>
b605:	4c 89 e7             	mov    rdi,r12
b608:	e8 43 fc ff ff       	call   b250 <revert_tz.part.1>
b60d:	84 c0                	test   al,al
b60f:	75 a9                	jne    b5ba <localtime_rz+0x4a>
b611:	eb cb                	jmp    b5de <localtime_rz+0x6e>
b613:	0f 1f 00             	nop    DWORD PTR [rax]
b616:	66 2e 0f 1f 84 00 00 	nop    WORD PTR cs:[rax+rax*1+0x0]
b61d:	00 00 00

000000000000b620 <mktime_z>:
b620:	41 54                	push   r12
b622:	55                   	push   rbp
b623:	53                   	push   rbx
b624:	48 89 f3             	mov    rbx,rsi
b627:	48 83 ec 50          	sub    rsp,0x50
b62b:	64 48 8b 04 25 28 00 	mov    rax,QWORD PTR fs:0x28
b632:	00 00
b634:	48 89 44 24 48       	mov    QWORD PTR [rsp+0x48],rax
b639:	31 c0                	xor    eax,eax
b63b:	48 85 ff             	test   rdi,rdi
b63e:	0f 84 fc 00 00 00    	je     b740 <mktime_z+0x120>
b644:	48 89 fd             	mov    rbp,rdi
b647:	e8 34 fe ff ff       	call   b480 <set_tz>
b64c:	48 85 c0             	test   rax,rax
b64f:	49 89 c4             	mov    r12,rax
b652:	0f 84 f8 00 00 00    	je     b750 <mktime_z+0x130>
b658:	48 89 df             	mov    rdi,rbx
b65b:	e8 a0 73 ff ff       	call   2a00 <mktime@plt>
b660:	48 83 f8 ff          	cmp    rax,0xffffffffffffffff
b664:	48 89 44 24 08       	mov    QWORD PTR [rsp+0x8],rax
b669:	74 55                	je     b6c0 <mktime_z+0xa0>
b66b:	48 89 de             	mov    rsi,rbx
b66e:	48 89 ef             	mov    rdi,rbp
b671:	e8 ca fc ff ff       	call   b340 <save_abbr>
b676:	84 c0                	test   al,al
b678:	75 09                	jne    b683 <mktime_z+0x63>
b67a:	48 c7 44 24 08 ff ff 	mov    QWORD PTR [rsp+0x8],0xffffffffffffffff
b681:	ff ff
b683:	49 83 fc 01          	cmp    r12,0x1
b687:	74 10                	je     b699 <mktime_z+0x79>
b689:	4c 89 e7             	mov    rdi,r12
b68c:	e8 bf fb ff ff       	call   b250 <revert_tz.part.1>
b691:	84 c0                	test   al,al
b693:	0f 84 b7 00 00 00    	je     b750 <mktime_z+0x130>
b699:	48 8b 44 24 08       	mov    rax,QWORD PTR [rsp+0x8]
b69e:	48 8b 4c 24 48       	mov    rcx,QWORD PTR [rsp+0x48]
b6a3:	64 48 33 0c 25 28 00 	xor    rcx,QWORD PTR fs:0x28
b6aa:	00 00
b6ac:	0f 85 aa 00 00 00    	jne    b75c <mktime_z+0x13c>
b6b2:	48 83 c4 50          	add    rsp,0x50
b6b6:	5b                   	pop    rbx
b6b7:	5d                   	pop    rbp
b6b8:	41 5c                	pop    r12
b6ba:	c3                   	ret
b6bb:	0f 1f 44 00 00       	nop    DWORD PTR [rax+rax*1+0x0]
b6c0:	48 8d 74 24 10       	lea    rsi,[rsp+0x10]
b6c5:	48 8d 7c 24 08       	lea    rdi,[rsp+0x8]
b6ca:	e8 a1 70 ff ff       	call   2770 <localtime_r@plt>
b6cf:	48 85 c0             	test   rax,rax
b6d2:	74 af                	je     b683 <mktime_z+0x63>
b6d4:	8b 03                	mov    eax,DWORD PTR [rbx]
b6d6:	8b 53 04             	mov    edx,DWORD PTR [rbx+0x4]
b6d9:	33 44 24 10          	xor    eax,DWORD PTR [rsp+0x10]
b6dd:	33 54 24 14          	xor    edx,DWORD PTR [rsp+0x14]
b6e1:	8b 4c 24 30          	mov    ecx,DWORD PTR [rsp+0x30]
b6e5:	09 d0                	or     eax,edx
b6e7:	8b 53 08             	mov    edx,DWORD PTR [rbx+0x8]
b6ea:	33 54 24 18          	xor    edx,DWORD PTR [rsp+0x18]
b6ee:	09 d0                	or     eax,edx
b6f0:	8b 53 0c             	mov    edx,DWORD PTR [rbx+0xc]
b6f3:	33 54 24 1c          	xor    edx,DWORD PTR [rsp+0x1c]
b6f7:	09 d0                	or     eax,edx
b6f9:	8b 53 10             	mov    edx,DWORD PTR [rbx+0x10]
b6fc:	33 54 24 20          	xor    edx,DWORD PTR [rsp+0x20]
b700:	09 d0                	or     eax,edx
b702:	8b 53 14             	mov    edx,DWORD PTR [rbx+0x14]
b705:	33 54 24 24          	xor    edx,DWORD PTR [rsp+0x24]
b709:	09 d0                	or     eax,edx
b70b:	8b 53 20             	mov    edx,DWORD PTR [rbx+0x20]
b70e:	85 d2                	test   edx,edx
b710:	40 0f 94 c7          	sete   dil
b714:	85 c9                	test   ecx,ecx
b716:	40 0f 94 c6          	sete   sil
b71a:	40 38 f7             	cmp    dil,sil
b71d:	74 0c                	je     b72b <mktime_z+0x10b>
b71f:	85 d2                	test   edx,edx
b721:	78 08                	js     b72b <mktime_z+0x10b>
b723:	85 c9                	test   ecx,ecx
b725:	0f 89 58 ff ff ff    	jns    b683 <mktime_z+0x63>
b72b:	85 c0                	test   eax,eax
b72d:	0f 84 38 ff ff ff    	je     b66b <mktime_z+0x4b>
b733:	e9 4b ff ff ff       	jmp    b683 <mktime_z+0x63>
b738:	0f 1f 84 00 00 00 00 	nop    DWORD PTR [rax+rax*1+0x0]
b73f:	00
b740:	48 89 f7             	mov    rdi,rsi
b743:	e8 08 73 ff ff       	call   2a50 <timegm@plt>
b748:	e9 51 ff ff ff       	jmp    b69e <mktime_z+0x7e>
b74d:	0f 1f 00             	nop    DWORD PTR [rax]
b750:	48 c7 c0 ff ff ff ff 	mov    rax,0xffffffffffffffff
b757:	e9 42 ff ff ff       	jmp    b69e <mktime_z+0x7e>
b75c:	e8 cf 70 ff ff       	call   2830 <__stack_chk_fail@plt>
b761:	66 2e 0f 1f 84 00 00 	nop    WORD PTR cs:[rax+rax*1+0x0]
b768:	00 00 00
b76b:	0f 1f 44 00 00       	nop    DWORD PTR [rax+rax*1+0x0]

000000000000b770 <rpl_vfprintf>:
b770:	41 55                	push   r13
b772:	41 54                	push   r12
b774:	48 89 f0             	mov    rax,rsi
b777:	55                   	push   rbp
b778:	53                   	push   rbx
b779:	49 89 fd             	mov    r13,rdi
b77c:	48 81 ec f8 07 00 00 	sub    rsp,0x7f8
b783:	4c 8d 64 24 10       	lea    r12,[rsp+0x10]
b788:	48 8d 74 24 08       	lea    rsi,[rsp+0x8]
b78d:	48 c7 44 24 08 d0 07 	mov    QWORD PTR [rsp+0x8],0x7d0
b794:	00 00
b796:	64 48 8b 0c 25 28 00 	mov    rcx,QWORD PTR fs:0x28
b79d:	00 00
b79f:	48 89 8c 24 e8 07 00 	mov    QWORD PTR [rsp+0x7e8],rcx
b7a6:	00
b7a7:	31 c9                	xor    ecx,ecx
b7a9:	4c 89 e7             	mov    rdi,r12
b7ac:	48 89 d1             	mov    rcx,rdx
b7af:	48 89 c2             	mov    rdx,rax
b7b2:	e8 b9 1e 00 00       	call   d670 <vasnprintf>
b7b7:	48 85 c0             	test   rax,rax
b7ba:	48 8b 5c 24 08       	mov    rbx,QWORD PTR [rsp+0x8]
b7bf:	0f 84 89 00 00 00    	je     b84e <rpl_vfprintf+0xde>
b7c5:	4c 89 e9             	mov    rcx,r13
b7c8:	48 89 da             	mov    rdx,rbx
b7cb:	be 01 00 00 00       	mov    esi,0x1
b7d0:	48 89 c7             	mov    rdi,rax
b7d3:	48 89 c5             	mov    rbp,rax
b7d6:	e8 05 73 ff ff       	call   2ae0 <fwrite@plt>
b7db:	48 39 d8             	cmp    rax,rbx
b7de:	72 40                	jb     b820 <rpl_vfprintf+0xb0>
b7e0:	4c 39 e5             	cmp    rbp,r12
b7e3:	74 08                	je     b7ed <rpl_vfprintf+0x7d>
b7e5:	48 89 ef             	mov    rdi,rbp
b7e8:	e8 23 6f ff ff       	call   2710 <free@plt>
b7ed:	48 81 fb ff ff ff 7f 	cmp    rbx,0x7fffffff
b7f4:	77 4d                	ja     b843 <rpl_vfprintf+0xd3>
b7f6:	48 8b 8c 24 e8 07 00 	mov    rcx,QWORD PTR [rsp+0x7e8]
b7fd:	00
b7fe:	64 48 33 0c 25 28 00 	xor    rcx,QWORD PTR fs:0x28
b805:	00 00
b807:	89 d8                	mov    eax,ebx
b809:	75 52                	jne    b85d <rpl_vfprintf+0xed>
b80b:	48 81 c4 f8 07 00 00 	add    rsp,0x7f8
b812:	5b                   	pop    rbx
b813:	5d                   	pop    rbp
b814:	41 5c                	pop    r12
b816:	41 5d                	pop    r13
b818:	c3                   	ret
b819:	0f 1f 80 00 00 00 00 	nop    DWORD PTR [rax+0x0]
b820:	4c 39 e5             	cmp    rbp,r12
b823:	bb ff ff ff ff       	mov    ebx,0xffffffff
b828:	74 cc                	je     b7f6 <rpl_vfprintf+0x86>
b82a:	e8 21 6f ff ff       	call   2750 <__errno_location@plt>
b82f:	44 8b 28             	mov    r13d,DWORD PTR [rax]
b832:	49 89 c4             	mov    r12,rax
b835:	48 89 ef             	mov    rdi,rbp
b838:	e8 d3 6e ff ff       	call   2710 <free@plt>
b83d:	45 89 2c 24          	mov    DWORD PTR [r12],r13d
b841:	eb b3                	jmp    b7f6 <rpl_vfprintf+0x86>
b843:	e8 08 6f ff ff       	call   2750 <__errno_location@plt>
b848:	c7 00 4b 00 00 00    	mov    DWORD PTR [rax],0x4b
b84e:	4c 89 ef             	mov    rdi,r13
b851:	bb ff ff ff ff       	mov    ebx,0xffffffff
b856:	e8 05 1e 00 00       	call   d660 <fseterr>
b85b:	eb 99                	jmp    b7f6 <rpl_vfprintf+0x86>
b85d:	e8 ce 6f ff ff       	call   2830 <__stack_chk_fail@plt>
b862:	66 2e 0f 1f 84 00 00 	nop    WORD PTR cs:[rax+rax*1+0x0]
b869:	00 00 00
b86c:	0f 1f 40 00          	nop    DWORD PTR [rax+0x0]

000000000000b870 <close_stream>:
b870:	41 54                	push   r12
b872:	55                   	push   rbp
b873:	48 89 fd             	mov    rbp,rdi
b876:	53                   	push   rbx
b877:	e8 14 6f ff ff       	call   2790 <__fpending@plt>
b87c:	8b 5d 00             	mov    ebx,DWORD PTR [rbp+0x0]
b87f:	48 89 ef             	mov    rdi,rbp
b882:	49 89 c4             	mov    r12,rax
b885:	e8 b6 1c 00 00       	call   d540 <rpl_fclose>
b88a:	83 e3 20             	and    ebx,0x20
b88d:	85 db                	test   ebx,ebx
b88f:	75 17                	jne    b8a8 <close_stream+0x38>
b891:	85 c0                	test   eax,eax
b893:	74 0a                	je     b89f <close_stream+0x2f>
b895:	4d 85 e4             	test   r12,r12
b898:	b8 ff ff ff ff       	mov    eax,0xffffffff
b89d:	74 39                	je     b8d8 <close_stream+0x68>
b89f:	5b                   	pop    rbx
b8a0:	5d                   	pop    rbp
b8a1:	41 5c                	pop    r12
b8a3:	c3                   	ret
b8a4:	0f 1f 40 00          	nop    DWORD PTR [rax+0x0]
b8a8:	85 c0                	test   eax,eax
b8aa:	75 1c                	jne    b8c8 <close_stream+0x58>
b8ac:	e8 9f 6e ff ff       	call   2750 <__errno_location@plt>
b8b1:	c7 00 00 00 00 00    	mov    DWORD PTR [rax],0x0
b8b7:	b8 ff ff ff ff       	mov    eax,0xffffffff
b8bc:	5b                   	pop    rbx
b8bd:	5d                   	pop    rbp
b8be:	41 5c                	pop    r12
b8c0:	c3                   	ret
b8c1:	0f 1f 80 00 00 00 00 	nop    DWORD PTR [rax+0x0]
b8c8:	5b                   	pop    rbx
b8c9:	b8 ff ff ff ff       	mov    eax,0xffffffff
b8ce:	5d                   	pop    rbp
b8cf:	41 5c                	pop    r12
b8d1:	c3                   	ret
b8d2:	66 0f 1f 44 00 00    	nop    WORD PTR [rax+rax*1+0x0]
b8d8:	e8 73 6e ff ff       	call   2750 <__errno_location@plt>
b8dd:	83 38 09             	cmp    DWORD PTR [rax],0x9
b8e0:	5b                   	pop    rbx
b8e1:	5d                   	pop    rbp
b8e2:	41 5c                	pop    r12
b8e4:	0f 95 c0             	setne  al
b8e7:	0f b6 c0             	movzx  eax,al
b8ea:	f7 d8                	neg    eax
b8ec:	c3                   	ret
b8ed:	0f 1f 00             	nop    DWORD PTR [rax]

000000000000b8f0 <hard_locale>:
b8f0:	48 83 ec 08          	sub    rsp,0x8
b8f4:	31 f6                	xor    esi,esi
b8f6:	e8 35 71 ff ff       	call   2a30 <setlocale@plt>
b8fb:	48 89 c2             	mov    rdx,rax
b8fe:	b8 01 00 00 00       	mov    eax,0x1
b903:	48 85 d2             	test   rdx,rdx
b906:	74 1d                	je     b925 <hard_locale+0x35>
b908:	48 8d 3d 35 4d 00 00 	lea    rdi,[rip+0x4d35]        # 10644 <time_masks+0x614>
b90f:	b9 02 00 00 00       	mov    ecx,0x2
b914:	48 89 d6             	mov    rsi,rdx
b917:	f3 a6                	repz cmps BYTE PTR ds:[rsi],BYTE PTR es:[rdi]
b919:	0f 97 c1             	seta   cl
b91c:	80 d9 00             	sbb    cl,0x0
b91f:	31 c0                	xor    eax,eax
b921:	84 c9                	test   cl,cl
b923:	75 0b                	jne    b930 <hard_locale+0x40>
b925:	48 83 c4 08          	add    rsp,0x8
b929:	c3                   	ret
b92a:	66 0f 1f 44 00 00    	nop    WORD PTR [rax+rax*1+0x0]
b930:	48 8d 3d 69 64 00 00 	lea    rdi,[rip+0x6469]        # 11da0 <version_etc_copyright+0x40>
b937:	b9 06 00 00 00       	mov    ecx,0x6
b93c:	48 89 d6             	mov    rsi,rdx
b93f:	f3 a6                	repz cmps BYTE PTR ds:[rsi],BYTE PTR es:[rdi]
b941:	0f 97 c0             	seta   al
b944:	1c 00                	sbb    al,0x0
b946:	84 c0                	test   al,al
b948:	0f 95 c0             	setne  al
b94b:	48 83 c4 08          	add    rsp,0x8
b94f:	c3                   	ret

000000000000b950 <locale_charset>:
b950:	48 83 ec 08          	sub    rsp,0x8
b954:	bf 0e 00 00 00       	mov    edi,0xe
b959:	e8 92 70 ff ff       	call   29f0 <nl_langinfo@plt>
b95e:	48 85 c0             	test   rax,rax
b961:	74 1d                	je     b980 <locale_charset+0x30>
b963:	80 38 00             	cmp    BYTE PTR [rax],0x0
b966:	48 8d 15 39 64 00 00 	lea    rdx,[rip+0x6439]        # 11da6 <version_etc_copyright+0x46>
b96d:	48 0f 44 c2          	cmove  rax,rdx
b971:	48 83 c4 08          	add    rsp,0x8
b975:	c3                   	ret
b976:	66 2e 0f 1f 84 00 00 	nop    WORD PTR cs:[rax+rax*1+0x0]
b97d:	00 00 00
b980:	48 8d 05 1f 64 00 00 	lea    rax,[rip+0x641f]        # 11da6 <version_etc_copyright+0x46>
b987:	48 83 c4 08          	add    rsp,0x8
b98b:	c3                   	ret
b98c:	0f 1f 40 00          	nop    DWORD PTR [rax+0x0]

000000000000b990 <memcpy_lowcase>:
b990:	48 85 d2             	test   rdx,rdx
b993:	41 54                	push   r12
b995:	55                   	push   rbp
b996:	48 89 fd             	mov    rbp,rdi
b999:	53                   	push   rbx
b99a:	74 2d                	je     b9c9 <memcpy_lowcase+0x39>
b99c:	49 89 f4             	mov    r12,rsi
b99f:	48 8d 5a ff          	lea    rbx,[rdx-0x1]
b9a3:	e8 78 71 ff ff       	call   2b20 <__ctype_tolower_loc@plt>
b9a8:	0f 1f 84 00 00 00 00 	nop    DWORD PTR [rax+rax*1+0x0]
b9af:	00
b9b0:	41 0f b6 0c 1c       	movzx  ecx,BYTE PTR [r12+rbx*1]
b9b5:	48 8b 10             	mov    rdx,QWORD PTR [rax]
b9b8:	8b 14 8a             	mov    edx,DWORD PTR [rdx+rcx*4]
b9bb:	88 54 1d 00          	mov    BYTE PTR [rbp+rbx*1+0x0],dl
b9bf:	48 83 eb 01          	sub    rbx,0x1
b9c3:	48 83 fb ff          	cmp    rbx,0xffffffffffffffff
b9c7:	75 e7                	jne    b9b0 <memcpy_lowcase+0x20>
b9c9:	48 89 e8             	mov    rax,rbp
b9cc:	5b                   	pop    rbx
b9cd:	5d                   	pop    rbp
b9ce:	41 5c                	pop    r12
b9d0:	c3                   	ret
b9d1:	0f 1f 44 00 00       	nop    DWORD PTR [rax+rax*1+0x0]
b9d6:	66 2e 0f 1f 84 00 00 	nop    WORD PTR cs:[rax+rax*1+0x0]
b9dd:	00 00 00

000000000000b9e0 <memcpy_uppcase>:
b9e0:	48 85 d2             	test   rdx,rdx
b9e3:	41 54                	push   r12
b9e5:	55                   	push   rbp
b9e6:	48 89 fd             	mov    rbp,rdi
b9e9:	53                   	push   rbx
b9ea:	74 2d                	je     ba19 <memcpy_uppcase+0x39>
b9ec:	49 89 f4             	mov    r12,rsi
b9ef:	48 8d 5a ff          	lea    rbx,[rdx-0x1]
b9f3:	e8 e8 6c ff ff       	call   26e0 <__ctype_toupper_loc@plt>
b9f8:	0f 1f 84 00 00 00 00 	nop    DWORD PTR [rax+rax*1+0x0]
b9ff:	00
ba00:	41 0f b6 0c 1c       	movzx  ecx,BYTE PTR [r12+rbx*1]
ba05:	48 8b 10             	mov    rdx,QWORD PTR [rax]
ba08:	8b 14 8a             	mov    edx,DWORD PTR [rdx+rcx*4]
ba0b:	88 54 1d 00          	mov    BYTE PTR [rbp+rbx*1+0x0],dl
ba0f:	48 83 eb 01          	sub    rbx,0x1
ba13:	48 83 fb ff          	cmp    rbx,0xffffffffffffffff
ba17:	75 e7                	jne    ba00 <memcpy_uppcase+0x20>
ba19:	48 89 e8             	mov    rax,rbp
ba1c:	5b                   	pop    rbx
ba1d:	5d                   	pop    rbp
ba1e:	41 5c                	pop    r12
ba20:	c3                   	ret
ba21:	0f 1f 44 00 00       	nop    DWORD PTR [rax+rax*1+0x0]
ba26:	66 2e 0f 1f 84 00 00 	nop    WORD PTR cs:[rax+rax*1+0x0]
ba2d:	00 00 00

000000000000ba30 <__strftime_internal>:
ba30:	41 57                	push   r15
ba32:	41 56                	push   r14
ba34:	49 89 d3             	mov    r11,rdx
ba37:	41 55                	push   r13
ba39:	41 54                	push   r12
ba3b:	49 89 cd             	mov    r13,rcx
ba3e:	55                   	push   rbp
ba3f:	53                   	push   rbx
ba40:	48 89 fd             	mov    rbp,rdi
ba43:	48 81 ec c8 04 00 00 	sub    rsp,0x4c8
ba4a:	48 8b 79 30          	mov    rdi,QWORD PTR [rcx+0x30]
ba4e:	44 8b 79 08          	mov    r15d,DWORD PTR [rcx+0x8]
ba52:	48 8b 84 24 08 05 00 	mov    rax,QWORD PTR [rsp+0x508]
ba59:	00
ba5a:	48 89 74 24 08       	mov    QWORD PTR [rsp+0x8],rsi
ba5f:	44 89 4c 24 2c       	mov    DWORD PTR [rsp+0x2c],r9d
ba64:	4c 63 94 24 00 05 00 	movsxd r10,DWORD PTR [rsp+0x500]
ba6b:	00
ba6c:	44 88 44 24 2b       	mov    BYTE PTR [rsp+0x2b],r8b
ba71:	48 89 44 24 18       	mov    QWORD PTR [rsp+0x18],rax
ba76:	48 8b 84 24 10 05 00 	mov    rax,QWORD PTR [rsp+0x510]
ba7d:	00
ba7e:	48 89 44 24 10       	mov    QWORD PTR [rsp+0x10],rax
ba83:	64 48 8b 04 25 28 00 	mov    rax,QWORD PTR fs:0x28
ba8a:	00 00
ba8c:	48 89 84 24 b8 04 00 	mov    QWORD PTR [rsp+0x4b8],rax
ba93:	00
ba94:	31 c0                	xor    eax,eax
ba96:	48 8d 05 d9 48 00 00 	lea    rax,[rip+0x48d9]        # 10376 <time_masks+0x346>
ba9d:	48 85 ff             	test   rdi,rdi
baa0:	48 0f 45 c7          	cmovne rax,rdi
baa4:	41 83 ff 0c          	cmp    r15d,0xc
baa8:	48 89 44 24 20       	mov    QWORD PTR [rsp+0x20],rax
baad:	0f 8e ed 00 00 00    	jle    bba0 <__strftime_internal+0x170>
bab3:	41 83 ef 0c          	sub    r15d,0xc
bab7:	41 0f b6 03          	movzx  eax,BYTE PTR [r11]
babb:	45 31 f6             	xor    r14d,r14d
babe:	84 c0                	test   al,al
bac0:	0f 84 b6 00 00 00    	je     bb7c <__strftime_internal+0x14c>
bac6:	44 89 7c 24 68       	mov    DWORD PTR [rsp+0x68],r15d
bacb:	4c 89 db             	mov    rbx,r11
bace:	3c 25                	cmp    al,0x25
bad0:	0f 84 e2 00 00 00    	je     bbb8 <__strftime_internal+0x188>
bad6:	45 85 d2             	test   r10d,r10d
bad9:	41 bc 00 00 00 00    	mov    r12d,0x0
badf:	b8 01 00 00 00       	mov    eax,0x1
bae4:	4d 0f 49 e2          	cmovns r12,r10
bae8:	4d 85 e4             	test   r12,r12
baeb:	4c 0f 44 e0          	cmove  r12,rax
baef:	48 8b 44 24 08       	mov    rax,QWORD PTR [rsp+0x8]
baf4:	4c 29 f0             	sub    rax,r14
baf7:	4c 39 e0             	cmp    rax,r12
bafa:	77 34                	ja     bb30 <__strftime_internal+0x100>
bafc:	45 31 f6             	xor    r14d,r14d
baff:	48 8b 9c 24 b8 04 00 	mov    rbx,QWORD PTR [rsp+0x4b8]
bb06:	00
bb07:	64 48 33 1c 25 28 00 	xor    rbx,QWORD PTR fs:0x28
bb0e:	00 00
bb10:	4c 89 f0             	mov    rax,r14
bb13:	0f 85 ac 19 00 00    	jne    d4c5 <__strftime_internal+0x1a95>
bb19:	48 81 c4 c8 04 00 00 	add    rsp,0x4c8
bb20:	5b                   	pop    rbx
bb21:	5d                   	pop    rbp
bb22:	41 5c                	pop    r12
bb24:	41 5d                	pop    r13
bb26:	41 5e                	pop    r14
bb28:	41 5f                	pop    r15
bb2a:	c3                   	ret
bb2b:	0f 1f 44 00 00       	nop    DWORD PTR [rax+rax*1+0x0]
bb30:	48 85 ed             	test   rbp,rbp
bb33:	74 27                	je     bb5c <__strftime_internal+0x12c>
bb35:	41 83 fa 01          	cmp    r10d,0x1
bb39:	7e 17                	jle    bb52 <__strftime_internal+0x122>
bb3b:	4d 8d 7a ff          	lea    r15,[r10-0x1]
bb3f:	48 89 ef             	mov    rdi,rbp
bb42:	be 20 00 00 00       	mov    esi,0x20
bb47:	4c 89 fa             	mov    rdx,r15
bb4a:	4c 01 fd             	add    rbp,r15
bb4d:	e8 9e 6d ff ff       	call   28f0 <memset@plt>
bb52:	0f b6 03             	movzx  eax,BYTE PTR [rbx]
bb55:	48 83 c5 01          	add    rbp,0x1
bb59:	88 45 ff             	mov    BYTE PTR [rbp-0x1],al
bb5c:	4d 01 e6             	add    r14,r12
bb5f:	49 89 dc             	mov    r12,rbx
bb62:	41 0f b6 44 24 01    	movzx  eax,BYTE PTR [r12+0x1]
bb68:	49 8d 5c 24 01       	lea    rbx,[r12+0x1]
bb6d:	49 c7 c2 ff ff ff ff 	mov    r10,0xffffffffffffffff
bb74:	84 c0                	test   al,al
bb76:	0f 85 52 ff ff ff    	jne    bace <__strftime_internal+0x9e>
bb7c:	48 85 ed             	test   rbp,rbp
bb7f:	0f 84 7a ff ff ff    	je     baff <__strftime_internal+0xcf>
bb85:	48 83 7c 24 08 00    	cmp    QWORD PTR [rsp+0x8],0x0
bb8b:	0f 84 6e ff ff ff    	je     baff <__strftime_internal+0xcf>
bb91:	c6 45 00 00          	mov    BYTE PTR [rbp+0x0],0x0
bb95:	e9 65 ff ff ff       	jmp    baff <__strftime_internal+0xcf>
bb9a:	66 0f 1f 44 00 00    	nop    WORD PTR [rax+rax*1+0x0]
bba0:	45 85 ff             	test   r15d,r15d
bba3:	b8 0c 00 00 00       	mov    eax,0xc
bba8:	44 0f 44 f8          	cmove  r15d,eax
bbac:	e9 06 ff ff ff       	jmp    bab7 <__strftime_internal+0x87>
bbb1:	0f 1f 80 00 00 00 00 	nop    DWORD PTR [rax+0x0]
bbb8:	0f b6 44 24 2b       	movzx  eax,BYTE PTR [rsp+0x2b]
bbbd:	45 31 c0             	xor    r8d,r8d
bbc0:	45 31 ff             	xor    r15d,r15d
bbc3:	ba 01 00 00 00       	mov    edx,0x1
bbc8:	88 44 24 30          	mov    BYTE PTR [rsp+0x30],al
bbcc:	48 83 c3 01          	add    rbx,0x1
bbd0:	0f be 03             	movsx  eax,BYTE PTR [rbx]
bbd3:	8d 48 dd             	lea    ecx,[rax-0x23]
bbd6:	89 c6                	mov    esi,eax
bbd8:	41 89 c1             	mov    r9d,eax
bbdb:	80 f9 3c             	cmp    cl,0x3c
bbde:	77 2c                	ja     bc0c <__strftime_internal+0x1dc>
bbe0:	48 89 d7             	mov    rdi,rdx
bbe3:	49 bb 00 25 00 00 00 	movabs r11,0x1000000000002500
bbea:	00 00 10
bbed:	48 d3 e7             	shl    rdi,cl
bbf0:	4c 85 df             	test   rdi,r11
bbf3:	75 6b                	jne    bc60 <__strftime_internal+0x230>
bbf5:	84 c9                	test   cl,cl
bbf7:	74 77                	je     bc70 <__strftime_internal+0x240>
bbf9:	48 b9 00 00 00 00 00 	movabs rcx,0x800000000000000
bc00:	00 00 08
bc03:	48 85 cf             	test   rdi,rcx
bc06:	0f 85 54 01 00 00    	jne    bd60 <__strftime_internal+0x330>
bc0c:	8d 50 d0             	lea    edx,[rax-0x30]
bc0f:	83 fa 09             	cmp    edx,0x9
bc12:	0f 86 58 01 00 00    	jbe    bd70 <__strftime_internal+0x340>
bc18:	40 80 fe 45          	cmp    sil,0x45
bc1c:	74 2a                	je     bc48 <__strftime_internal+0x218>
bc1e:	45 31 db             	xor    r11d,r11d
bc21:	40 80 fe 4f          	cmp    sil,0x4f
bc25:	74 21                	je     bc48 <__strftime_internal+0x218>
bc27:	40 80 fe 7a          	cmp    sil,0x7a
bc2b:	77 53                	ja     bc80 <__strftime_internal+0x250>
bc2d:	48 8d 15 90 61 00 00 	lea    rdx,[rip+0x6190]        # 11dc4 <version_etc_copyright+0x64>
bc34:	40 0f b6 c6          	movzx  eax,sil
bc38:	48 63 04 82          	movsxd rax,DWORD PTR [rdx+rax*4]
bc3c:	48 01 d0             	add    rax,rdx
bc3f:	ff e0                	jmp    rax
bc41:	0f 1f 80 00 00 00 00 	nop    DWORD PTR [rax+0x0]
bc48:	44 0f be 4b 01       	movsx  r9d,BYTE PTR [rbx+0x1]
bc4d:	41 89 c3             	mov    r11d,eax
bc50:	48 83 c3 01          	add    rbx,0x1
bc54:	44 89 ce             	mov    esi,r9d
bc57:	eb ce                	jmp    bc27 <__strftime_internal+0x1f7>
bc59:	0f 1f 80 00 00 00 00 	nop    DWORD PTR [rax+0x0]
bc60:	41 89 c7             	mov    r15d,eax
bc63:	e9 64 ff ff ff       	jmp    bbcc <__strftime_internal+0x19c>
bc68:	0f 1f 84 00 00 00 00 	nop    DWORD PTR [rax+rax*1+0x0]
bc6f:	00
bc70:	41 b8 01 00 00 00    	mov    r8d,0x1
bc76:	e9 51 ff ff ff       	jmp    bbcc <__strftime_internal+0x19c>
bc7b:	4c 89 cb             	mov    rbx,r9
bc7e:	66 90                	xchg   ax,ax
bc80:	48 8d 43 ff          	lea    rax,[rbx-0x1]
bc84:	41 b8 01 00 00 00    	mov    r8d,0x1
bc8a:	49 89 c1             	mov    r9,rax
bc8d:	48 8d 40 ff          	lea    rax,[rax-0x1]
bc91:	41 83 c0 01          	add    r8d,0x1
bc95:	80 78 01 25          	cmp    BYTE PTR [rax+0x1],0x25
bc99:	75 ef                	jne    bc8a <__strftime_internal+0x25a>
bc9b:	48 8b 54 24 08       	mov    rdx,QWORD PTR [rsp+0x8]
bca0:	b8 00 00 00 00       	mov    eax,0x0
bca5:	4d 63 c0             	movsxd r8,r8d
bca8:	4c 89 c1             	mov    rcx,r8
bcab:	49 89 dc             	mov    r12,rbx
bcae:	4c 29 f2             	sub    rdx,r14
bcb1:	45 85 d2             	test   r10d,r10d
bcb4:	41 0f 49 c2          	cmovns eax,r10d
bcb8:	48 98                	cdqe
bcba:	4c 39 c0             	cmp    rax,r8
bcbd:	48 0f 43 c8          	cmovae rcx,rax
bcc1:	48 39 d1             	cmp    rcx,rdx
bcc4:	0f 83 32 fe ff ff    	jae    bafc <__strftime_internal+0xcc>
bcca:	48 85 ed             	test   rbp,rbp
bccd:	0f 84 82 00 00 00    	je     bd55 <__strftime_internal+0x325>
bcd3:	4c 39 c0             	cmp    rax,r8
bcd6:	76 4d                	jbe    bd25 <__strftime_internal+0x2f5>
bcd8:	49 63 d2             	movsxd rdx,r10d
bcdb:	4c 89 44 24 48       	mov    QWORD PTR [rsp+0x48],r8
bce0:	48 89 4c 24 40       	mov    QWORD PTR [rsp+0x40],rcx
bce5:	4c 29 c2             	sub    rdx,r8
bce8:	41 83 ff 30          	cmp    r15d,0x30
bcec:	4c 89 4c 24 38       	mov    QWORD PTR [rsp+0x38],r9
bcf1:	48 8d 5c 15 00       	lea    rbx,[rbp+rdx*1+0x0]
bcf6:	0f 84 6a 12 00 00    	je     cf66 <__strftime_internal+0x1536>
bcfc:	41 83 ff 2b          	cmp    r15d,0x2b
bd00:	0f 84 60 12 00 00    	je     cf66 <__strftime_internal+0x1536>
bd06:	48 89 ef             	mov    rdi,rbp
bd09:	be 20 00 00 00       	mov    esi,0x20
bd0e:	48 89 dd             	mov    rbp,rbx
bd11:	e8 da 6b ff ff       	call   28f0 <memset@plt>
bd16:	4c 8b 44 24 48       	mov    r8,QWORD PTR [rsp+0x48]
bd1b:	48 8b 4c 24 40       	mov    rcx,QWORD PTR [rsp+0x40]
bd20:	4c 8b 4c 24 38       	mov    r9,QWORD PTR [rsp+0x38]
bd25:	80 7c 24 30 00       	cmp    BYTE PTR [rsp+0x30],0x0
bd2a:	48 89 4c 24 38       	mov    QWORD PTR [rsp+0x38],rcx
bd2f:	4c 89 c2             	mov    rdx,r8
bd32:	4c 89 44 24 30       	mov    QWORD PTR [rsp+0x30],r8
bd37:	4c 89 ce             	mov    rsi,r9
bd3a:	48 89 ef             	mov    rdi,rbp
bd3d:	0f 84 cd 11 00 00    	je     cf10 <__strftime_internal+0x14e0>
bd43:	e8 98 fc ff ff       	call   b9e0 <memcpy_uppcase>
bd48:	4c 8b 44 24 30       	mov    r8,QWORD PTR [rsp+0x30]
bd4d:	48 8b 4c 24 38       	mov    rcx,QWORD PTR [rsp+0x38]
bd52:	4c 01 c5             	add    rbp,r8
bd55:	49 01 ce             	add    r14,rcx
bd58:	e9 05 fe ff ff       	jmp    bb62 <__strftime_internal+0x132>
bd5d:	0f 1f 00             	nop    DWORD PTR [rax]
bd60:	c6 44 24 30 01       	mov    BYTE PTR [rsp+0x30],0x1
bd65:	e9 62 fe ff ff       	jmp    bbcc <__strftime_internal+0x19c>
bd6a:	66 0f 1f 44 00 00    	nop    WORD PTR [rax+rax*1+0x0]
bd70:	45 31 d2             	xor    r10d,r10d
bd73:	0f be 43 01          	movsx  eax,BYTE PTR [rbx+0x1]
bd77:	41 81 fa cc cc cc 0c 	cmp    r10d,0xccccccc
bd7e:	48 8d 4b 01          	lea    rcx,[rbx+0x1]
bd82:	89 c6                	mov    esi,eax
bd84:	8d 50 d0             	lea    edx,[rax-0x30]
bd87:	7f 2d                	jg     bdb6 <__strftime_internal+0x386>
bd89:	0f be 3b             	movsx  edi,BYTE PTR [rbx]
bd8c:	74 22                	je     bdb0 <__strftime_internal+0x380>
bd8e:	47 8d 0c 92          	lea    r9d,[r10+r10*4]
bd92:	48 89 cb             	mov    rbx,rcx
bd95:	46 8d 54 4f d0       	lea    r10d,[rdi+r9*2-0x30]
bd9a:	83 fa 09             	cmp    edx,0x9
bd9d:	76 d4                	jbe    bd73 <__strftime_internal+0x343>
bd9f:	41 89 c1             	mov    r9d,eax
bda2:	e9 71 fe ff ff       	jmp    bc18 <__strftime_internal+0x1e8>
bda7:	66 0f 1f 84 00 00 00 	nop    WORD PTR [rax+rax*1+0x0]
bdae:	00 00
bdb0:	40 80 ff 37          	cmp    dil,0x37
bdb4:	7e d8                	jle    bd8e <__strftime_internal+0x35e>
bdb6:	83 fa 09             	cmp    edx,0x9
bdb9:	77 15                	ja     bdd0 <__strftime_internal+0x3a0>
bdbb:	0f be 43 02          	movsx  eax,BYTE PTR [rbx+0x2]
bdbf:	41 ba ff ff ff 7f    	mov    r10d,0x7fffffff
bdc5:	48 83 c3 02          	add    rbx,0x2
bdc9:	89 c6                	mov    esi,eax
bdcb:	8d 50 d0             	lea    edx,[rax-0x30]
bdce:	eb ca                	jmp    bd9a <__strftime_internal+0x36a>
bdd0:	41 89 c1             	mov    r9d,eax
bdd3:	48 89 cb             	mov    rbx,rcx
bdd6:	41 ba ff ff ff 7f    	mov    r10d,0x7fffffff
bddc:	e9 37 fe ff ff       	jmp    bc18 <__strftime_internal+0x1e8>
bde1:	0f 1f 80 00 00 00 00 	nop    DWORD PTR [rax+0x0]
bde8:	41 83 fb 4f          	cmp    r11d,0x4f
bdec:	0f 84 8e fe ff ff    	je     bc80 <__strftime_internal+0x250>
bdf2:	45 31 c0             	xor    r8d,r8d
bdf5:	b8 20 25 00 00       	mov    eax,0x2520
bdfa:	45 85 db             	test   r11d,r11d
bdfd:	66 89 84 24 ab 00 00 	mov    WORD PTR [rsp+0xab],ax
be04:	00
be05:	0f 85 d0 16 00 00    	jne    d4db <__strftime_internal+0x1aab>
be0b:	48 8d 94 24 ab 00 00 	lea    rdx,[rsp+0xab]
be12:	00
be13:	49 89 dc             	mov    r12,rbx
be16:	48 8d 42 02          	lea    rax,[rdx+0x2]
be1a:	4c 8d 8c 24 b0 00 00 	lea    r9,[rsp+0xb0]
be21:	00
be22:	40 88 30             	mov    BYTE PTR [rax],sil
be25:	c6 40 01 00          	mov    BYTE PTR [rax+0x1],0x0
be29:	4c 89 e9             	mov    rcx,r13
be2c:	be 00 04 00 00       	mov    esi,0x400
be31:	44 89 54 24 38       	mov    DWORD PTR [rsp+0x38],r10d
be36:	4c 89 cf             	mov    rdi,r9
be39:	44 88 44 24 50       	mov    BYTE PTR [rsp+0x50],r8b
be3e:	44 89 5c 24 48       	mov    DWORD PTR [rsp+0x48],r11d
be43:	4c 89 4c 24 40       	mov    QWORD PTR [rsp+0x40],r9
be48:	e8 13 6c ff ff       	call   2a60 <strftime@plt>
be4d:	48 85 c0             	test   rax,rax
be50:	0f 84 0c fd ff ff    	je     bb62 <__strftime_internal+0x132>
be56:	4c 63 54 24 38       	movsxd r10,DWORD PTR [rsp+0x38]
be5b:	48 8d 48 ff          	lea    rcx,[rax-0x1]
be5f:	48 8b 54 24 08       	mov    rdx,QWORD PTR [rsp+0x8]
be64:	b8 00 00 00 00       	mov    eax,0x0
be69:	45 85 d2             	test   r10d,r10d
be6c:	49 0f 49 c2          	cmovns rax,r10
be70:	48 39 c1             	cmp    rcx,rax
be73:	48 89 c3             	mov    rbx,rax
be76:	48 0f 43 d9          	cmovae rbx,rcx
be7a:	4c 29 f2             	sub    rdx,r14
be7d:	48 39 da             	cmp    rdx,rbx
be80:	0f 86 76 fc ff ff    	jbe    bafc <__strftime_internal+0xcc>
be86:	48 85 ed             	test   rbp,rbp
be89:	0f 84 9f 00 00 00    	je     bf2e <__strftime_internal+0x4fe>
be8f:	44 8b 5c 24 48       	mov    r11d,DWORD PTR [rsp+0x48]
be94:	4c 8b 4c 24 40       	mov    r9,QWORD PTR [rsp+0x40]
be99:	44 0f b6 44 24 50    	movzx  r8d,BYTE PTR [rsp+0x50]
be9f:	45 85 db             	test   r11d,r11d
bea2:	75 5a                	jne    befe <__strftime_internal+0x4ce>
bea4:	48 39 c1             	cmp    rcx,rax
bea7:	73 55                	jae    befe <__strftime_internal+0x4ce>
bea9:	49 63 d2             	movsxd rdx,r10d
beac:	4c 89 4c 24 50       	mov    QWORD PTR [rsp+0x50],r9
beb1:	48 89 4c 24 48       	mov    QWORD PTR [rsp+0x48],rcx
beb6:	48 29 ca             	sub    rdx,rcx
beb9:	41 83 ff 30          	cmp    r15d,0x30
bebd:	44 88 44 24 40       	mov    BYTE PTR [rsp+0x40],r8b
bec2:	48 8d 44 15 00       	lea    rax,[rbp+rdx*1+0x0]
bec7:	48 89 44 24 38       	mov    QWORD PTR [rsp+0x38],rax
becc:	0f 84 6d 10 00 00    	je     cf3f <__strftime_internal+0x150f>
bed2:	41 83 ff 2b          	cmp    r15d,0x2b
bed6:	0f 84 63 10 00 00    	je     cf3f <__strftime_internal+0x150f>
bedc:	48 89 ef             	mov    rdi,rbp
bedf:	be 20 00 00 00       	mov    esi,0x20
bee4:	e8 07 6a ff ff       	call   28f0 <memset@plt>
bee9:	44 0f b6 44 24 40    	movzx  r8d,BYTE PTR [rsp+0x40]
beef:	48 8b 6c 24 38       	mov    rbp,QWORD PTR [rsp+0x38]
bef4:	4c 8b 4c 24 50       	mov    r9,QWORD PTR [rsp+0x50]
bef9:	48 8b 4c 24 48       	mov    rcx,QWORD PTR [rsp+0x48]
befe:	45 84 c0             	test   r8b,r8b
bf01:	49 8d 71 01          	lea    rsi,[r9+0x1]
bf05:	48 89 ca             	mov    rdx,rcx
bf08:	0f 85 1a 10 00 00    	jne    cf28 <__strftime_internal+0x14f8>
bf0e:	80 7c 24 30 00       	cmp    BYTE PTR [rsp+0x30],0x0
bf13:	48 89 ef             	mov    rdi,rbp
bf16:	48 89 4c 24 30       	mov    QWORD PTR [rsp+0x30],rcx
bf1b:	0f 84 70 08 00 00    	je     c791 <__strftime_internal+0xd61>
bf21:	e8 ba fa ff ff       	call   b9e0 <memcpy_uppcase>
bf26:	48 8b 4c 24 30       	mov    rcx,QWORD PTR [rsp+0x30]
bf2b:	48 01 cd             	add    rbp,rcx
bf2e:	49 01 de             	add    r14,rbx
bf31:	e9 2c fc ff ff       	jmp    bb62 <__strftime_internal+0x132>
bf36:	45 85 db             	test   r11d,r11d
bf39:	0f 85 41 fd ff ff    	jne    bc80 <__strftime_internal+0x250>
bf3f:	0f b6 44 24 30       	movzx  eax,BYTE PTR [rsp+0x30]
bf44:	45 84 c0             	test   r8b,r8b
bf47:	48 8d 94 24 ab 00 00 	lea    rdx,[rsp+0xab]
bf4e:	00
bf4f:	49 89 dc             	mov    r12,rbx
bf52:	41 0f 45 c0          	cmovne eax,r8d
bf56:	45 31 c0             	xor    r8d,r8d
bf59:	45 31 db             	xor    r11d,r11d
bf5c:	88 44 24 30          	mov    BYTE PTR [rsp+0x30],al
bf60:	b8 20 25 00 00       	mov    eax,0x2520
bf65:	66 89 84 24 ab 00 00 	mov    WORD PTR [rsp+0xab],ax
bf6c:	00
bf6d:	48 8d 42 02          	lea    rax,[rdx+0x2]
bf71:	e9 a4 fe ff ff       	jmp    be1a <__strftime_internal+0x3ea>
bf76:	41 83 fb 45          	cmp    r11d,0x45
bf7a:	0f 84 00 fd ff ff    	je     bc80 <__strftime_internal+0x250>
bf80:	41 8b 4d 00          	mov    ecx,DWORD PTR [r13+0x0]
bf84:	bf 02 00 00 00       	mov    edi,0x2
bf89:	0f 1f 80 00 00 00 00 	nop    DWORD PTR [rax+0x0]
bf90:	89 c8                	mov    eax,ecx
bf92:	31 f6                	xor    esi,esi
bf94:	c6 44 24 40 00       	mov    BYTE PTR [rsp+0x40],0x0
bf99:	c1 e8 1f             	shr    eax,0x1f
bf9c:	89 44 24 38          	mov    DWORD PTR [rsp+0x38],eax
bfa0:	89 c8                	mov    eax,ecx
bfa2:	f7 d0                	not    eax
bfa4:	c1 e8 1f             	shr    eax,0x1f
bfa7:	41 83 fb 4f          	cmp    r11d,0x4f
bfab:	0f 85 7f 0e 00 00    	jne    ce30 <__strftime_internal+0x1400>
bfb1:	84 c0                	test   al,al
bfb3:	0f 84 77 0e 00 00    	je     ce30 <__strftime_internal+0x1400>
bfb9:	44 89 ce             	mov    esi,r9d
bfbc:	ba 20 25 00 00       	mov    edx,0x2520
bfc1:	45 31 c0             	xor    r8d,r8d
bfc4:	66 89 94 24 ab 00 00 	mov    WORD PTR [rsp+0xab],dx
bfcb:	00
bfcc:	48 8d 94 24 ab 00 00 	lea    rdx,[rsp+0xab]
bfd3:	00
bfd4:	44 88 9c 24 ad 00 00 	mov    BYTE PTR [rsp+0xad],r11b
bfdb:	00
bfdc:	49 89 dc             	mov    r12,rbx
bfdf:	41 89 fb             	mov    r11d,edi
bfe2:	48 8d 42 03          	lea    rax,[rdx+0x3]
bfe6:	e9 2f fe ff ff       	jmp    be1a <__strftime_internal+0x3ea>
bfeb:	45 85 d2             	test   r10d,r10d
bfee:	b9 00 00 00 00       	mov    ecx,0x0
bff3:	b8 01 00 00 00       	mov    eax,0x1
bff8:	41 0f 49 ca          	cmovns ecx,r10d
bffc:	48 63 c9             	movsxd rcx,ecx
bfff:	48 85 c9             	test   rcx,rcx
c002:	48 0f 44 c8          	cmove  rcx,rax
c006:	48 8b 44 24 08       	mov    rax,QWORD PTR [rsp+0x8]
c00b:	4c 29 f0             	sub    rax,r14
c00e:	48 39 c8             	cmp    rax,rcx
c011:	0f 86 e5 fa ff ff    	jbe    bafc <__strftime_internal+0xcc>
c017:	48 85 ed             	test   rbp,rbp
c01a:	74 4c                	je     c068 <__strftime_internal+0x638>
c01c:	41 83 fa 01          	cmp    r10d,0x1
c020:	7e 3a                	jle    c05c <__strftime_internal+0x62c>
c022:	49 63 d2             	movsxd rdx,r10d
c025:	48 89 4c 24 30       	mov    QWORD PTR [rsp+0x30],rcx
c02a:	48 83 ea 01          	sub    rdx,0x1
c02e:	41 83 ff 30          	cmp    r15d,0x30
c032:	4c 8d 64 15 00       	lea    r12,[rbp+rdx*1+0x0]
c037:	0f 84 17 13 00 00    	je     d354 <__strftime_internal+0x1924>
c03d:	41 83 ff 2b          	cmp    r15d,0x2b
c041:	0f 84 0d 13 00 00    	je     d354 <__strftime_internal+0x1924>
c047:	48 89 ef             	mov    rdi,rbp
c04a:	be 20 00 00 00       	mov    esi,0x20
c04f:	4c 89 e5             	mov    rbp,r12
c052:	e8 99 68 ff ff       	call   28f0 <memset@plt>
c057:	48 8b 4c 24 30       	mov    rcx,QWORD PTR [rsp+0x30]
c05c:	c6 45 00 09          	mov    BYTE PTR [rbp+0x0],0x9
c060:	48 83 c5 01          	add    rbp,0x1
c064:	0f 1f 40 00          	nop    DWORD PTR [rax+0x0]
c068:	49 01 ce             	add    r14,rcx
c06b:	49 89 dc             	mov    r12,rbx
c06e:	e9 ef fa ff ff       	jmp    bb62 <__strftime_internal+0x132>
c073:	b8 01 00 00 00       	mov    eax,0x1
c078:	45 84 c0             	test   r8b,r8b
c07b:	0f 85 2a 0f 00 00    	jne    cfab <__strftime_internal+0x157b>
c081:	41 89 c0             	mov    r8d,eax
c084:	be 70 00 00 00       	mov    esi,0x70
c089:	e9 67 fd ff ff       	jmp    bdf5 <__strftime_internal+0x3c5>
c08e:	48 8d 05 17 5d 00 00 	lea    rax,[rip+0x5d17]        # 11dac <version_etc_copyright+0x4c>
c095:	c7 44 24 38 ff ff ff 	mov    DWORD PTR [rsp+0x38],0xffffffff
c09c:	ff
c09d:	48 89 44 24 40       	mov    QWORD PTR [rsp+0x40],rax
c0a2:	44 0f b6 44 24 30    	movzx  r8d,BYTE PTR [rsp+0x30]
c0a8:	8b 84 24 18 05 00 00 	mov    eax,DWORD PTR [rsp+0x518]
c0af:	48 c7 c6 ff ff ff ff 	mov    rsi,0xffffffffffffffff
c0b6:	44 89 54 24 48       	mov    DWORD PTR [rsp+0x48],r10d
c0bb:	31 ff                	xor    edi,edi
c0bd:	45 89 f9             	mov    r9d,r15d
c0c0:	4c 89 e9             	mov    rcx,r13
c0c3:	44 89 44 24 30       	mov    DWORD PTR [rsp+0x30],r8d
c0c8:	50                   	push   rax
c0c9:	ff 74 24 18          	push   QWORD PTR [rsp+0x18]
c0cd:	ff 74 24 28          	push   QWORD PTR [rsp+0x28]
c0d1:	8b 44 24 50          	mov    eax,DWORD PTR [rsp+0x50]
c0d5:	50                   	push   rax
c0d6:	48 8b 54 24 60       	mov    rdx,QWORD PTR [rsp+0x60]
c0db:	e8 50 f9 ff ff       	call   ba30 <__strftime_internal>
c0e0:	48 83 c4 20          	add    rsp,0x20
c0e4:	4c 63 54 24 48       	movsxd r10,DWORD PTR [rsp+0x48]
c0e9:	49 89 c3             	mov    r11,rax
c0ec:	48 8b 74 24 08       	mov    rsi,QWORD PTR [rsp+0x8]
c0f1:	b8 00 00 00 00       	mov    eax,0x0
c0f6:	45 85 d2             	test   r10d,r10d
c0f9:	49 0f 49 c2          	cmovns rax,r10
c0fd:	49 39 c3             	cmp    r11,rax
c100:	49 89 c4             	mov    r12,rax
c103:	4d 0f 43 e3          	cmovae r12,r11
c107:	4c 29 f6             	sub    rsi,r14
c10a:	4c 39 e6             	cmp    rsi,r12
c10d:	48 89 74 24 48       	mov    QWORD PTR [rsp+0x48],rsi
c112:	0f 86 e4 f9 ff ff    	jbe    bafc <__strftime_internal+0xcc>
c118:	48 85 ed             	test   rbp,rbp
c11b:	0f 84 3b fa ff ff    	je     bb5c <__strftime_internal+0x12c>
c121:	49 39 c3             	cmp    r11,rax
c124:	73 40                	jae    c166 <__strftime_internal+0x736>
c126:	49 63 d2             	movsxd rdx,r10d
c129:	4c 89 5c 24 58       	mov    QWORD PTR [rsp+0x58],r11
c12e:	4c 29 da             	sub    rdx,r11
c131:	41 83 ff 30          	cmp    r15d,0x30
c135:	48 8d 44 15 00       	lea    rax,[rbp+rdx*1+0x0]
c13a:	48 89 44 24 50       	mov    QWORD PTR [rsp+0x50],rax
c13f:	0f 84 f7 10 00 00    	je     d23c <__strftime_internal+0x180c>
c145:	41 83 ff 2b          	cmp    r15d,0x2b
c149:	0f 84 ed 10 00 00    	je     d23c <__strftime_internal+0x180c>
c14f:	48 89 ef             	mov    rdi,rbp
c152:	be 20 00 00 00       	mov    esi,0x20
c157:	e8 94 67 ff ff       	call   28f0 <memset@plt>
c15c:	48 8b 6c 24 50       	mov    rbp,QWORD PTR [rsp+0x50]
c161:	4c 8b 5c 24 58       	mov    r11,QWORD PTR [rsp+0x58]
c166:	8b 84 24 18 05 00 00 	mov    eax,DWORD PTR [rsp+0x518]
c16d:	4c 89 5c 24 50       	mov    QWORD PTR [rsp+0x50],r11
c172:	48 89 ef             	mov    rdi,rbp
c175:	45 89 f9             	mov    r9d,r15d
c178:	4c 89 e9             	mov    rcx,r13
c17b:	50                   	push   rax
c17c:	ff 74 24 18          	push   QWORD PTR [rsp+0x18]
c180:	ff 74 24 28          	push   QWORD PTR [rsp+0x28]
c184:	8b 44 24 50          	mov    eax,DWORD PTR [rsp+0x50]
c188:	50                   	push   rax
c189:	44 8b 44 24 50       	mov    r8d,DWORD PTR [rsp+0x50]
c18e:	48 8b 54 24 60       	mov    rdx,QWORD PTR [rsp+0x60]
c193:	48 8b 74 24 68       	mov    rsi,QWORD PTR [rsp+0x68]
c198:	e8 93 f8 ff ff       	call   ba30 <__strftime_internal>
c19d:	4c 8b 5c 24 70       	mov    r11,QWORD PTR [rsp+0x70]
c1a2:	48 83 c4 20          	add    rsp,0x20
c1a6:	4c 01 dd             	add    rbp,r11
c1a9:	e9 ae f9 ff ff       	jmp    bb5c <__strftime_internal+0x12c>
c1ae:	48 8b 54 24 08       	mov    rdx,QWORD PTR [rsp+0x8]
c1b3:	b8 00 00 00 00       	mov    eax,0x0
c1b8:	b9 01 00 00 00       	mov    ecx,0x1
c1bd:	4c 29 f2             	sub    rdx,r14
c1c0:	45 85 d2             	test   r10d,r10d
c1c3:	41 0f 49 c2          	cmovns eax,r10d
c1c7:	48 98                	cdqe
c1c9:	48 85 c0             	test   rax,rax
c1cc:	48 0f 45 c8          	cmovne rcx,rax
c1d0:	45 85 db             	test   r11d,r11d
c1d3:	0f 85 2f 10 00 00    	jne    d208 <__strftime_internal+0x17d8>
c1d9:	48 39 d1             	cmp    rcx,rdx
c1dc:	0f 83 1a f9 ff ff    	jae    bafc <__strftime_internal+0xcc>
c1e2:	48 85 ed             	test   rbp,rbp
c1e5:	0f 84 7d fe ff ff    	je     c068 <__strftime_internal+0x638>
c1eb:	41 83 fa 01          	cmp    r10d,0x1
c1ef:	7e 3d                	jle    c22e <__strftime_internal+0x7fe>
c1f1:	49 63 d2             	movsxd rdx,r10d
c1f4:	48 89 4c 24 30       	mov    QWORD PTR [rsp+0x30],rcx
c1f9:	48 83 ea 01          	sub    rdx,0x1
c1fd:	41 83 ff 30          	cmp    r15d,0x30
c201:	4c 8d 64 15 00       	lea    r12,[rbp+rdx*1+0x0]
c206:	0f 84 69 12 00 00    	je     d475 <__strftime_internal+0x1a45>
c20c:	41 83 ff 2b          	cmp    r15d,0x2b
c210:	be 20 00 00 00       	mov    esi,0x20
c215:	0f 84 5a 12 00 00    	je     d475 <__strftime_internal+0x1a45>
c21b:	48 89 ef             	mov    rdi,rbp
c21e:	4c 89 e5             	mov    rbp,r12
c221:	e8 ca 66 ff ff       	call   28f0 <memset@plt>
c226:	0f b6 33             	movzx  esi,BYTE PTR [rbx]
c229:	48 8b 4c 24 30       	mov    rcx,QWORD PTR [rsp+0x30]
c22e:	40 88 75 00          	mov    BYTE PTR [rbp+0x0],sil
c232:	48 83 c5 01          	add    rbp,0x1
c236:	e9 2d fe ff ff       	jmp    c068 <__strftime_internal+0x638>
c23b:	48 8d 05 03 3f 00 00 	lea    rax,[rip+0x3f03]        # 10145 <time_masks+0x115>
c242:	c7 44 24 38 ff ff ff 	mov    DWORD PTR [rsp+0x38],0xffffffff
c249:	ff
c24a:	48 89 44 24 40       	mov    QWORD PTR [rsp+0x40],rax
c24f:	e9 4e fe ff ff       	jmp    c0a2 <__strftime_internal+0x672>
c254:	41 83 fb 45          	cmp    r11d,0x45
c258:	0f 84 22 fa ff ff    	je     bc80 <__strftime_internal+0x250>
c25e:	41 8b 75 1c          	mov    esi,DWORD PTR [r13+0x1c]
c262:	41 2b 75 18          	sub    esi,DWORD PTR [r13+0x18]
c266:	ba 93 24 49 92       	mov    edx,0x92492493
c26b:	83 c6 07             	add    esi,0x7
c26e:	89 f0                	mov    eax,esi
c270:	f7 ea                	imul   edx
c272:	8d 0c 32             	lea    ecx,[rdx+rsi*1]
c275:	c1 fe 1f             	sar    esi,0x1f
c278:	bf 02 00 00 00       	mov    edi,0x2
c27d:	c1 f9 02             	sar    ecx,0x2
c280:	29 f1                	sub    ecx,esi
c282:	e9 09 fd ff ff       	jmp    bf90 <__strftime_internal+0x560>
c287:	41 83 fb 45          	cmp    r11d,0x45
c28b:	0f 84 29 0d 00 00    	je     cfba <__strftime_internal+0x158a>
c291:	41 83 fb 4f          	cmp    r11d,0x4f
c295:	0f 84 e5 f9 ff ff    	je     bc80 <__strftime_internal+0x250>
c29b:	41 8b 45 14          	mov    eax,DWORD PTR [r13+0x14]
c29f:	3d 94 f8 ff ff       	cmp    eax,0xfffff894
c2a4:	8d 88 6c 07 00 00    	lea    ecx,[rax+0x76c]
c2aa:	0f 9c 44 24 38       	setl   BYTE PTR [rsp+0x38]
c2af:	3d 94 f8 ff ff       	cmp    eax,0xfffff894
c2b4:	0f 9d c0             	setge  al
c2b7:	45 85 ff             	test   r15d,r15d
c2ba:	0f 85 79 0e 00 00    	jne    d139 <__strftime_internal+0x1709>
c2c0:	44 8b 7c 24 2c       	mov    r15d,DWORD PTR [rsp+0x2c]
c2c5:	41 83 ff 2b          	cmp    r15d,0x2b
c2c9:	0f 84 74 0e 00 00    	je     d143 <__strftime_internal+0x1713>
c2cf:	c6 44 24 40 00       	mov    BYTE PTR [rsp+0x40],0x0
c2d4:	bf 04 00 00 00       	mov    edi,0x4
c2d9:	31 f6                	xor    esi,esi
c2db:	e9 c7 fc ff ff       	jmp    bfa7 <__strftime_internal+0x577>
c2e0:	0f b6 74 24 30       	movzx  esi,BYTE PTR [rsp+0x30]
c2e5:	48 8b 7c 24 20       	mov    rdi,QWORD PTR [rsp+0x20]
c2ea:	45 84 c0             	test   r8b,r8b
c2ed:	b8 00 00 00 00       	mov    eax,0x0
c2f2:	44 89 54 24 38       	mov    DWORD PTR [rsp+0x38],r10d
c2f7:	44 88 44 24 40       	mov    BYTE PTR [rsp+0x40],r8b
c2fc:	0f 45 f0             	cmovne esi,eax
c2ff:	40 88 74 24 30       	mov    BYTE PTR [rsp+0x30],sil
c304:	e8 07 65 ff ff       	call   2810 <strlen@plt>
c309:	4c 63 54 24 38       	movsxd r10,DWORD PTR [rsp+0x38]
c30e:	49 89 c4             	mov    r12,rax
c311:	48 8b 54 24 08       	mov    rdx,QWORD PTR [rsp+0x8]
c316:	b8 00 00 00 00       	mov    eax,0x0
c31b:	45 85 d2             	test   r10d,r10d
c31e:	49 0f 49 c2          	cmovns rax,r10
c322:	49 39 c4             	cmp    r12,rax
c325:	48 89 c1             	mov    rcx,rax
c328:	49 0f 43 cc          	cmovae rcx,r12
c32c:	4c 29 f2             	sub    rdx,r14
c32f:	48 39 ca             	cmp    rdx,rcx
c332:	0f 86 c4 f7 ff ff    	jbe    bafc <__strftime_internal+0xcc>
c338:	48 85 ed             	test   rbp,rbp
c33b:	0f 84 27 fd ff ff    	je     c068 <__strftime_internal+0x638>
c341:	49 39 c4             	cmp    r12,rax
c344:	44 0f b6 44 24 40    	movzx  r8d,BYTE PTR [rsp+0x40]
c34a:	73 4b                	jae    c397 <__strftime_internal+0x967>
c34c:	49 63 d2             	movsxd rdx,r10d
c34f:	48 89 4c 24 48       	mov    QWORD PTR [rsp+0x48],rcx
c354:	44 88 44 24 40       	mov    BYTE PTR [rsp+0x40],r8b
c359:	4c 29 e2             	sub    rdx,r12
c35c:	41 83 ff 30          	cmp    r15d,0x30
c360:	48 8d 44 15 00       	lea    rax,[rbp+rdx*1+0x0]
c365:	48 89 44 24 38       	mov    QWORD PTR [rsp+0x38],rax
c36a:	0f 84 bf 10 00 00    	je     d42f <__strftime_internal+0x19ff>
c370:	41 83 ff 2b          	cmp    r15d,0x2b
c374:	0f 84 b5 10 00 00    	je     d42f <__strftime_internal+0x19ff>
c37a:	48 89 ef             	mov    rdi,rbp
c37d:	be 20 00 00 00       	mov    esi,0x20
c382:	e8 69 65 ff ff       	call   28f0 <memset@plt>
c387:	44 0f b6 44 24 40    	movzx  r8d,BYTE PTR [rsp+0x40]
c38d:	48 8b 6c 24 38       	mov    rbp,QWORD PTR [rsp+0x38]
c392:	48 8b 4c 24 48       	mov    rcx,QWORD PTR [rsp+0x48]
c397:	45 84 c0             	test   r8b,r8b
c39a:	0f 85 f7 0f 00 00    	jne    d397 <__strftime_internal+0x1967>
c3a0:	80 7c 24 30 00       	cmp    BYTE PTR [rsp+0x30],0x0
c3a5:	4c 89 e2             	mov    rdx,r12
c3a8:	48 89 4c 24 30       	mov    QWORD PTR [rsp+0x30],rcx
c3ad:	48 8b 74 24 20       	mov    rsi,QWORD PTR [rsp+0x20]
c3b2:	48 89 ef             	mov    rdi,rbp
c3b5:	0f 84 cd 0f 00 00    	je     d388 <__strftime_internal+0x1958>
c3bb:	e8 20 f6 ff ff       	call   b9e0 <memcpy_uppcase>
c3c0:	48 8b 4c 24 30       	mov    rcx,QWORD PTR [rsp+0x30]
c3c5:	4c 01 e5             	add    rbp,r12
c3c8:	e9 9b fc ff ff       	jmp    c068 <__strftime_internal+0x638>
c3cd:	41 83 fb 45          	cmp    r11d,0x45
c3d1:	0f 84 e3 0b 00 00    	je     cfba <__strftime_internal+0x158a>
c3d7:	41 8b 75 14          	mov    esi,DWORD PTR [r13+0x14]
c3db:	ba 1f 85 eb 51       	mov    edx,0x51eb851f
c3e0:	89 f0                	mov    eax,esi
c3e2:	f7 ea                	imul   edx
c3e4:	89 f0                	mov    eax,esi
c3e6:	c1 f8 1f             	sar    eax,0x1f
c3e9:	89 d1                	mov    ecx,edx
c3eb:	c1 f9 05             	sar    ecx,0x5
c3ee:	29 c1                	sub    ecx,eax
c3f0:	89 f0                	mov    eax,esi
c3f2:	6b c9 64             	imul   ecx,ecx,0x64
c3f5:	29 c8                	sub    eax,ecx
c3f7:	89 c1                	mov    ecx,eax
c3f9:	79 0e                	jns    c409 <__strftime_internal+0x9d9>
c3fb:	f7 d8                	neg    eax
c3fd:	83 c1 64             	add    ecx,0x64
c400:	81 fe 93 f8 ff ff    	cmp    esi,0xfffff893
c406:	0f 4e c8             	cmovle ecx,eax
c409:	45 85 ff             	test   r15d,r15d
c40c:	0f 84 28 06 00 00    	je     ca3a <__strftime_internal+0x100a>
c412:	b8 01 00 00 00       	mov    eax,0x1
c417:	c6 44 24 38 00       	mov    BYTE PTR [rsp+0x38],0x0
c41c:	41 83 ff 2b          	cmp    r15d,0x2b
c420:	0f 84 6d 07 00 00    	je     cb93 <__strftime_internal+0x1163>
c426:	c6 44 24 40 00       	mov    BYTE PTR [rsp+0x40],0x0
c42b:	bf 02 00 00 00       	mov    edi,0x2
c430:	31 f6                	xor    esi,esi
c432:	e9 70 fb ff ff       	jmp    bfa7 <__strftime_internal+0x577>
c437:	0f b6 44 24 30       	movzx  eax,BYTE PTR [rsp+0x30]
c43c:	45 84 c0             	test   r8b,r8b
c43f:	41 0f 45 c0          	cmovne eax,r8d
c443:	41 83 fb 45          	cmp    r11d,0x45
c447:	0f 84 69 0f 00 00    	je     d3b6 <__strftime_internal+0x1986>
c44d:	44 89 ce             	mov    esi,r9d
c450:	88 44 24 30          	mov    BYTE PTR [rsp+0x30],al
c454:	45 31 c0             	xor    r8d,r8d
c457:	e9 99 f9 ff ff       	jmp    bdf5 <__strftime_internal+0x3c5>
c45c:	45 31 c0             	xor    r8d,r8d
c45f:	41 8b 4d 20          	mov    ecx,DWORD PTR [r13+0x20]
c463:	85 c9                	test   ecx,ecx
c465:	0f 88 a3 0c 00 00    	js     d10e <__strftime_internal+0x16de>
c46b:	49 8b 4d 28          	mov    rcx,QWORD PTR [r13+0x28]
c46f:	c6 44 24 38 01       	mov    BYTE PTR [rsp+0x38],0x1
c474:	85 c9                	test   ecx,ecx
c476:	78 14                	js     c48c <__strftime_internal+0xa5c>
c478:	c6 44 24 38 00       	mov    BYTE PTR [rsp+0x38],0x0
c47d:	75 0d                	jne    c48c <__strftime_internal+0xa5c>
c47f:	48 8b 44 24 20       	mov    rax,QWORD PTR [rsp+0x20]
c484:	80 38 2d             	cmp    BYTE PTR [rax],0x2d
c487:	0f 94 44 24 38       	sete   BYTE PTR [rsp+0x38]
c48c:	89 c8                	mov    eax,ecx
c48e:	ba c5 b3 a2 91       	mov    edx,0x91a2b3c5
c493:	be 89 88 88 88       	mov    esi,0x88888889
c498:	f7 ea                	imul   edx
c49a:	89 c8                	mov    eax,ecx
c49c:	c1 f8 1f             	sar    eax,0x1f
c49f:	89 44 24 40          	mov    DWORD PTR [rsp+0x40],eax
c4a3:	44 8d 24 0a          	lea    r12d,[rdx+rcx*1]
c4a7:	41 c1 fc 0b          	sar    r12d,0xb
c4ab:	41 29 c4             	sub    r12d,eax
c4ae:	89 c8                	mov    eax,ecx
c4b0:	f7 ee                	imul   esi
c4b2:	8d 3c 0a             	lea    edi,[rdx+rcx*1]
c4b5:	c1 ff 05             	sar    edi,0x5
c4b8:	2b 7c 24 40          	sub    edi,DWORD PTR [rsp+0x40]
c4bc:	89 f8                	mov    eax,edi
c4be:	f7 ee                	imul   esi
c4c0:	89 f8                	mov    eax,edi
c4c2:	c1 f8 1f             	sar    eax,0x1f
c4c5:	8d 34 3a             	lea    esi,[rdx+rdi*1]
c4c8:	c1 fe 05             	sar    esi,0x5
c4cb:	29 c6                	sub    esi,eax
c4cd:	89 f8                	mov    eax,edi
c4cf:	6b f6 3c             	imul   esi,esi,0x3c
c4d2:	6b ff 3c             	imul   edi,edi,0x3c
c4d5:	29 f0                	sub    eax,esi
c4d7:	29 f9                	sub    ecx,edi
c4d9:	49 83 f8 01          	cmp    r8,0x1
c4dd:	89 c6                	mov    esi,eax
c4df:	0f 84 4d 0e 00 00    	je     d332 <__strftime_internal+0x1902>
c4e5:	0f 82 25 0f 00 00    	jb     d410 <__strftime_internal+0x19e0>
c4eb:	49 83 f8 02          	cmp    r8,0x2
c4ef:	0f 84 f0 0d 00 00    	je     d2e5 <__strftime_internal+0x18b5>
c4f5:	49 83 f8 03          	cmp    r8,0x3
c4f9:	0f 85 c0 0e 00 00    	jne    d3bf <__strftime_internal+0x198f>
c4ff:	85 c9                	test   ecx,ecx
c501:	0f 85 de 0d 00 00    	jne    d2e5 <__strftime_internal+0x18b5>
c507:	85 c0                	test   eax,eax
c509:	0f 85 23 0e 00 00    	jne    d332 <__strftime_internal+0x1902>
c50f:	0f b6 44 24 38       	movzx  eax,BYTE PTR [rsp+0x38]
c514:	44 89 e1             	mov    ecx,r12d
c517:	c6 44 24 40 01       	mov    BYTE PTR [rsp+0x40],0x1
c51c:	bf 03 00 00 00       	mov    edi,0x3
c521:	83 f0 01             	xor    eax,0x1
c524:	e9 7e fa ff ff       	jmp    bfa7 <__strftime_internal+0x577>
c529:	0f 1f 80 00 00 00 00 	nop    DWORD PTR [rax+0x0]
c530:	41 83 fb 4f          	cmp    r11d,0x4f
c534:	41 8b 45 10          	mov    eax,DWORD PTR [r13+0x10]
c538:	bf 01 00 00 00       	mov    edi,0x1
c53d:	0f 84 79 fa ff ff    	je     bfbc <__strftime_internal+0x58c>
c543:	8d 14 80             	lea    edx,[rax+rax*4]
c546:	c6 44 24 40 00       	mov    BYTE PTR [rsp+0x40],0x0
c54b:	c6 44 24 38 00       	mov    BYTE PTR [rsp+0x38],0x0
c550:	31 f6                	xor    esi,esi
c552:	8d 0c 50             	lea    ecx,[rax+rdx*2]
c555:	c1 f9 05             	sar    ecx,0x5
c558:	83 c1 01             	add    ecx,0x1
c55b:	0f 1f 44 00 00       	nop    DWORD PTR [rax+rax*1+0x0]
c560:	4c 8d 8c 24 b0 00 00 	lea    r9,[rsp+0xb0]
c567:	00
c568:	41 bc cd cc cc cc    	mov    r12d,0xcccccccd
c56e:	4d 8d 59 17          	lea    r11,[r9+0x17]
c572:	66 0f 1f 44 00 00    	nop    WORD PTR [rax+rax*1+0x0]
c578:	40 f6 c6 01          	test   sil,0x1
c57c:	4d 8d 43 ff          	lea    r8,[r11-0x1]
c580:	74 0f                	je     c591 <__strftime_internal+0xb61>
c582:	49 8d 43 fe          	lea    rax,[r11-0x2]
c586:	41 c6 43 ff 3a       	mov    BYTE PTR [r11-0x1],0x3a
c58b:	4d 89 c3             	mov    r11,r8
c58e:	49 89 c0             	mov    r8,rax
c591:	89 c8                	mov    eax,ecx
c593:	d1 fe                	sar    esi,1
c595:	41 f7 e4             	mul    r12d
c598:	c1 ea 03             	shr    edx,0x3
c59b:	8d 04 92             	lea    eax,[rdx+rdx*4]
c59e:	01 c0                	add    eax,eax
c5a0:	29 c1                	sub    ecx,eax
c5a2:	89 f0                	mov    eax,esi
c5a4:	83 c1 30             	add    ecx,0x30
c5a7:	09 d0                	or     eax,edx
c5a9:	41 88 4b ff          	mov    BYTE PTR [r11-0x1],cl
c5ad:	89 d1                	mov    ecx,edx
c5af:	4d 89 c3             	mov    r11,r8
c5b2:	75 c4                	jne    c578 <__strftime_internal+0xb48>
c5b4:	41 39 fa             	cmp    r10d,edi
c5b7:	41 0f 4d fa          	cmovge edi,r10d
c5bb:	80 7c 24 38 00       	cmp    BYTE PTR [rsp+0x38],0x0
c5c0:	89 7c 24 48          	mov    DWORD PTR [rsp+0x48],edi
c5c4:	0f 85 7e 08 00 00    	jne    ce48 <__strftime_internal+0x1418>
c5ca:	80 7c 24 40 00       	cmp    BYTE PTR [rsp+0x40],0x0
c5cf:	0f 84 94 02 00 00    	je     c869 <__strftime_internal+0xe39>
c5d5:	41 83 ff 2d          	cmp    r15d,0x2d
c5d9:	0f 84 24 0b 00 00    	je     d103 <__strftime_internal+0x16d3>
c5df:	c6 44 24 38 2b       	mov    BYTE PTR [rsp+0x38],0x2b
c5e4:	8b 44 24 48          	mov    eax,DWORD PTR [rsp+0x48]
c5e8:	49 8d 49 17          	lea    rcx,[r9+0x17]
c5ec:	48 8b 54 24 08       	mov    rdx,QWORD PTR [rsp+0x8]
c5f1:	4c 29 c1             	sub    rcx,r8
c5f4:	44 8d 60 ff          	lea    r12d,[rax-0x1]
c5f8:	4c 29 f2             	sub    rdx,r14
c5fb:	41 29 cc             	sub    r12d,ecx
c5fe:	45 85 e4             	test   r12d,r12d
c601:	0f 8e 45 0a 00 00    	jle    d04c <__strftime_internal+0x161c>
c607:	41 83 ff 5f          	cmp    r15d,0x5f
c60b:	0f 84 b5 09 00 00    	je     cfc6 <__strftime_internal+0x1596>
c611:	48 63 44 24 48       	movsxd rax,DWORD PTR [rsp+0x48]
c616:	48 39 d0             	cmp    rax,rdx
c619:	48 89 c7             	mov    rdi,rax
c61c:	0f 83 da f4 ff ff    	jae    bafc <__strftime_internal+0xcc>
c622:	45 85 d2             	test   r10d,r10d
c625:	b8 00 00 00 00       	mov    eax,0x0
c62a:	be 01 00 00 00       	mov    esi,0x1
c62f:	41 0f 49 c2          	cmovns eax,r10d
c633:	48 98                	cdqe
c635:	48 85 c0             	test   rax,rax
c638:	48 0f 45 f0          	cmovne rsi,rax
c63c:	48 39 d6             	cmp    rsi,rdx
c63f:	0f 83 b7 f4 ff ff    	jae    bafc <__strftime_internal+0xcc>
c645:	49 01 f6             	add    r14,rsi
c648:	48 85 ed             	test   rbp,rbp
c64b:	4d 63 cc             	movsxd r9,r12d
c64e:	49 89 dc             	mov    r12,rbx
c651:	0f 84 9d 00 00 00    	je     c6f4 <__strftime_internal+0xcc4>
c657:	85 ff                	test   edi,edi
c659:	75 54                	jne    c6af <__strftime_internal+0xc7f>
c65b:	48 83 f8 01          	cmp    rax,0x1
c65f:	76 4e                	jbe    c6af <__strftime_internal+0xc7f>
c661:	49 63 d2             	movsxd rdx,r10d
c664:	4c 89 44 24 58       	mov    QWORD PTR [rsp+0x58],r8
c669:	4c 89 4c 24 50       	mov    QWORD PTR [rsp+0x50],r9
c66e:	48 83 ea 01          	sub    rdx,0x1
c672:	41 83 ff 30          	cmp    r15d,0x30
c676:	48 89 4c 24 40       	mov    QWORD PTR [rsp+0x40],rcx
c67b:	4c 8d 64 15 00       	lea    r12,[rbp+rdx*1+0x0]
c680:	0f 84 cb 0d 00 00    	je     d451 <__strftime_internal+0x1a21>
c686:	41 83 ff 2b          	cmp    r15d,0x2b
c68a:	0f 84 c1 0d 00 00    	je     d451 <__strftime_internal+0x1a21>
c690:	48 89 ef             	mov    rdi,rbp
c693:	be 20 00 00 00       	mov    esi,0x20
c698:	4c 89 e5             	mov    rbp,r12
c69b:	e8 50 62 ff ff       	call   28f0 <memset@plt>
c6a0:	4c 8b 44 24 58       	mov    r8,QWORD PTR [rsp+0x58]
c6a5:	4c 8b 4c 24 50       	mov    r9,QWORD PTR [rsp+0x50]
c6aa:	48 8b 4c 24 40       	mov    rcx,QWORD PTR [rsp+0x40]
c6af:	0f b6 44 24 38       	movzx  eax,BYTE PTR [rsp+0x38]
c6b4:	48 83 c5 01          	add    rbp,0x1
c6b8:	49 89 dc             	mov    r12,rbx
c6bb:	88 45 ff             	mov    BYTE PTR [rbp-0x1],al
c6be:	48 85 ed             	test   rbp,rbp
c6c1:	74 31                	je     c6f4 <__strftime_internal+0xcc4>
c6c3:	4c 89 ca             	mov    rdx,r9
c6c6:	48 89 ef             	mov    rdi,rbp
c6c9:	be 30 00 00 00       	mov    esi,0x30
c6ce:	4c 89 44 24 50       	mov    QWORD PTR [rsp+0x50],r8
c6d3:	48 89 4c 24 40       	mov    QWORD PTR [rsp+0x40],rcx
c6d8:	4c 89 4c 24 38       	mov    QWORD PTR [rsp+0x38],r9
c6dd:	e8 0e 62 ff ff       	call   28f0 <memset@plt>
c6e2:	4c 8b 4c 24 38       	mov    r9,QWORD PTR [rsp+0x38]
c6e7:	4c 8b 44 24 50       	mov    r8,QWORD PTR [rsp+0x50]
c6ec:	48 8b 4c 24 40       	mov    rcx,QWORD PTR [rsp+0x40]
c6f1:	4c 01 cd             	add    rbp,r9
c6f4:	48 8b 54 24 08       	mov    rdx,QWORD PTR [rsp+0x8]
c6f9:	4d 01 ce             	add    r14,r9
c6fc:	45 31 db             	xor    r11d,r11d
c6ff:	45 31 d2             	xor    r10d,r10d
c702:	4c 29 f2             	sub    rdx,r14
c705:	4c 39 d9             	cmp    rcx,r11
c708:	4c 89 db             	mov    rbx,r11
c70b:	48 0f 43 d9          	cmovae rbx,rcx
c70f:	48 39 d3             	cmp    rbx,rdx
c712:	0f 83 e4 f3 ff ff    	jae    bafc <__strftime_internal+0xcc>
c718:	48 85 ed             	test   rbp,rbp
c71b:	0f 84 0d f8 ff ff    	je     bf2e <__strftime_internal+0x4fe>
c721:	8b 74 24 48          	mov    esi,DWORD PTR [rsp+0x48]
c725:	85 f6                	test   esi,esi
c727:	75 4f                	jne    c778 <__strftime_internal+0xd48>
c729:	4c 39 d9             	cmp    rcx,r11
c72c:	73 4a                	jae    c778 <__strftime_internal+0xd48>
c72e:	49 63 d2             	movsxd rdx,r10d
c731:	4c 89 44 24 48       	mov    QWORD PTR [rsp+0x48],r8
c736:	48 89 4c 24 40       	mov    QWORD PTR [rsp+0x40],rcx
c73b:	48 29 ca             	sub    rdx,rcx
c73e:	41 83 ff 30          	cmp    r15d,0x30
c742:	48 8d 44 15 00       	lea    rax,[rbp+rdx*1+0x0]
c747:	48 89 44 24 38       	mov    QWORD PTR [rsp+0x38],rax
c74c:	0f 84 38 08 00 00    	je     cf8a <__strftime_internal+0x155a>
c752:	41 83 ff 2b          	cmp    r15d,0x2b
c756:	0f 84 2e 08 00 00    	je     cf8a <__strftime_internal+0x155a>
c75c:	48 89 ef             	mov    rdi,rbp
c75f:	be 20 00 00 00       	mov    esi,0x20
c764:	e8 87 61 ff ff       	call   28f0 <memset@plt>
c769:	48 8b 6c 24 38       	mov    rbp,QWORD PTR [rsp+0x38]
c76e:	4c 8b 44 24 48       	mov    r8,QWORD PTR [rsp+0x48]
c773:	48 8b 4c 24 40       	mov    rcx,QWORD PTR [rsp+0x40]
c778:	80 7c 24 30 00       	cmp    BYTE PTR [rsp+0x30],0x0
c77d:	48 89 ca             	mov    rdx,rcx
c780:	48 89 4c 24 30       	mov    QWORD PTR [rsp+0x30],rcx
c785:	4c 89 c6             	mov    rsi,r8
c788:	48 89 ef             	mov    rdi,rbp
c78b:	0f 85 90 f7 ff ff    	jne    bf21 <__strftime_internal+0x4f1>
c791:	e8 da 61 ff ff       	call   2970 <memcpy@plt>
c796:	48 8b 4c 24 30       	mov    rcx,QWORD PTR [rsp+0x30]
c79b:	e9 8b f7 ff ff       	jmp    bf2b <__strftime_internal+0x4fb>
c7a0:	f3 41 0f 6f 45 00    	movdqu xmm0,XMMWORD PTR [r13+0x0]
c7a6:	48 8d 74 24 70       	lea    rsi,[rsp+0x70]
c7ab:	49 8b 45 30          	mov    rax,QWORD PTR [r13+0x30]
c7af:	48 8b 7c 24 10       	mov    rdi,QWORD PTR [rsp+0x10]
c7b4:	0f 29 44 24 70       	movaps XMMWORD PTR [rsp+0x70],xmm0
c7b9:	44 89 54 24 38       	mov    DWORD PTR [rsp+0x38],r10d
c7be:	f3 41 0f 6f 45 10    	movdqu xmm0,XMMWORD PTR [r13+0x10]
c7c4:	48 89 84 24 a0 00 00 	mov    QWORD PTR [rsp+0xa0],rax
c7cb:	00
c7cc:	0f 29 84 24 80 00 00 	movaps XMMWORD PTR [rsp+0x80],xmm0
c7d3:	00
c7d4:	f3 41 0f 6f 45 20    	movdqu xmm0,XMMWORD PTR [r13+0x20]
c7da:	0f 29 84 24 90 00 00 	movaps XMMWORD PTR [rsp+0x90],xmm0
c7e1:	00
c7e2:	e8 39 ee ff ff       	call   b620 <mktime_z>
c7e7:	4c 8d 8c 24 b0 00 00 	lea    r9,[rsp+0xb0]
c7ee:	00
c7ef:	48 89 c6             	mov    rsi,rax
c7f2:	48 89 c1             	mov    rcx,rax
c7f5:	49 bb 67 66 66 66 66 	movabs r11,0x6666666666666667
c7fc:	66 66 66
c7ff:	bf 30 00 00 00       	mov    edi,0x30
c804:	44 8b 54 24 38       	mov    r10d,DWORD PTR [rsp+0x38]
c809:	4d 8d 41 17          	lea    r8,[r9+0x17]
c80d:	0f 1f 00             	nop    DWORD PTR [rax]
c810:	48 89 c8             	mov    rax,rcx
c813:	49 f7 eb             	imul   r11
c816:	48 89 c8             	mov    rax,rcx
c819:	48 c1 f8 3f          	sar    rax,0x3f
c81d:	48 c1 fa 02          	sar    rdx,0x2
c821:	48 29 c2             	sub    rdx,rax
c824:	48 89 d0             	mov    rax,rdx
c827:	48 8d 14 92          	lea    rdx,[rdx+rdx*4]
c82b:	48 01 d2             	add    rdx,rdx
c82e:	48 29 d1             	sub    rcx,rdx
c831:	48 89 ca             	mov    rdx,rcx
c834:	48 89 c1             	mov    rcx,rax
c837:	89 f8                	mov    eax,edi
c839:	29 d0                	sub    eax,edx
c83b:	83 c2 30             	add    edx,0x30
c83e:	48 85 f6             	test   rsi,rsi
c841:	0f 48 d0             	cmovs  edx,eax
c844:	49 83 e8 01          	sub    r8,0x1
c848:	48 85 c9             	test   rcx,rcx
c84b:	41 88 10             	mov    BYTE PTR [r8],dl
c84e:	75 c0                	jne    c810 <__strftime_internal+0xde0>
c850:	45 85 d2             	test   r10d,r10d
c853:	bf 01 00 00 00       	mov    edi,0x1
c858:	41 0f 4f fa          	cmovg  edi,r10d
c85c:	48 85 f6             	test   rsi,rsi
c85f:	89 7c 24 48          	mov    DWORD PTR [rsp+0x48],edi
c863:	0f 88 df 05 00 00    	js     ce48 <__strftime_internal+0x1418>
c869:	48 8b 54 24 08       	mov    rdx,QWORD PTR [rsp+0x8]
c86e:	49 8d 49 17          	lea    rcx,[r9+0x17]
c872:	4c 29 c1             	sub    rcx,r8
c875:	4c 29 f2             	sub    rdx,r14
c878:	41 83 ff 2d          	cmp    r15d,0x2d
c87c:	74 11                	je     c88f <__strftime_internal+0xe5f>
c87e:	44 8b 64 24 48       	mov    r12d,DWORD PTR [rsp+0x48]
c883:	41 29 cc             	sub    r12d,ecx
c886:	45 85 e4             	test   r12d,r12d
c889:	0f 8f 8a 09 00 00    	jg     d219 <__strftime_internal+0x17e9>
c88f:	45 85 d2             	test   r10d,r10d
c892:	41 bb 00 00 00 00    	mov    r11d,0x0
c898:	49 89 dc             	mov    r12,rbx
c89b:	45 0f 49 da          	cmovns r11d,r10d
c89f:	4d 63 db             	movsxd r11,r11d
c8a2:	e9 5e fe ff ff       	jmp    c705 <__strftime_internal+0xcd5>
c8a7:	0f b6 43 01          	movzx  eax,BYTE PTR [rbx+0x1]
c8ab:	48 8d 53 01          	lea    rdx,[rbx+0x1]
c8af:	3c 3a                	cmp    al,0x3a
c8b1:	0f 84 13 0b 00 00    	je     d3ca <__strftime_internal+0x199a>
c8b7:	41 b8 01 00 00 00    	mov    r8d,0x1
c8bd:	3c 7a                	cmp    al,0x7a
c8bf:	0f 85 bb f3 ff ff    	jne    bc80 <__strftime_internal+0x250>
c8c5:	48 89 d3             	mov    rbx,rdx
c8c8:	e9 92 fb ff ff       	jmp    c45f <__strftime_internal+0xa2f>
c8cd:	41 83 fb 45          	cmp    r11d,0x45
c8d1:	0f 84 a9 f3 ff ff    	je     bc80 <__strftime_internal+0x250>
c8d7:	41 8b 7d 14          	mov    edi,DWORD PTR [r13+0x14]
c8db:	45 8b 45 1c          	mov    r8d,DWORD PTR [r13+0x1c]
c8df:	ba 93 24 49 92       	mov    edx,0x92492493
c8e4:	89 f8                	mov    eax,edi
c8e6:	44 89 c1             	mov    ecx,r8d
c8e9:	c1 f8 1f             	sar    eax,0x1f
c8ec:	25 90 01 00 00       	and    eax,0x190
c8f1:	44 8d 64 07 9c       	lea    r12d,[rdi+rax*1-0x64]
c8f6:	41 8b 45 18          	mov    eax,DWORD PTR [r13+0x18]
c8fa:	29 c1                	sub    ecx,eax
c8fc:	89 44 24 38          	mov    DWORD PTR [rsp+0x38],eax
c900:	81 c1 7e 01 00 00    	add    ecx,0x17e
c906:	89 c8                	mov    eax,ecx
c908:	f7 ea                	imul   edx
c90a:	8d 04 0a             	lea    eax,[rdx+rcx*1]
c90d:	89 ca                	mov    edx,ecx
c90f:	c1 fa 1f             	sar    edx,0x1f
c912:	c1 f8 02             	sar    eax,0x2
c915:	29 d0                	sub    eax,edx
c917:	8d 14 c5 00 00 00 00 	lea    edx,[rax*8+0x0]
c91e:	29 c2                	sub    edx,eax
c920:	89 d0                	mov    eax,edx
c922:	44 89 c2             	mov    edx,r8d
c925:	29 ca                	sub    edx,ecx
c927:	8d 44 02 03          	lea    eax,[rdx+rax*1+0x3]
c92b:	85 c0                	test   eax,eax
c92d:	89 44 24 40          	mov    DWORD PTR [rsp+0x40],eax
c931:	0f 88 21 09 00 00    	js     d258 <__strftime_internal+0x1828>
c937:	41 f6 c4 03          	test   r12b,0x3
c93b:	b8 6d 01 00 00       	mov    eax,0x16d
c940:	75 45                	jne    c987 <__strftime_internal+0xf57>
c942:	b9 1f 85 eb 51       	mov    ecx,0x51eb851f
c947:	44 89 e0             	mov    eax,r12d
c94a:	f7 e9                	imul   ecx
c94c:	44 89 e0             	mov    eax,r12d
c94f:	c1 f8 1f             	sar    eax,0x1f
c952:	89 44 24 48          	mov    DWORD PTR [rsp+0x48],eax
c956:	89 d1                	mov    ecx,edx
c958:	c1 fa 05             	sar    edx,0x5
c95b:	29 c2                	sub    edx,eax
c95d:	b8 6e 01 00 00       	mov    eax,0x16e
c962:	6b d2 64             	imul   edx,edx,0x64
c965:	41 39 d4             	cmp    r12d,edx
c968:	75 1d                	jne    c987 <__strftime_internal+0xf57>
c96a:	c1 f9 07             	sar    ecx,0x7
c96d:	89 c8                	mov    eax,ecx
c96f:	2b 44 24 48          	sub    eax,DWORD PTR [rsp+0x48]
c973:	69 c0 90 01 00 00    	imul   eax,eax,0x190
c979:	41 39 c4             	cmp    r12d,eax
c97c:	0f 94 c0             	sete   al
c97f:	0f b6 c0             	movzx  eax,al
c982:	05 6d 01 00 00       	add    eax,0x16d
c987:	41 29 c0             	sub    r8d,eax
c98a:	ba 93 24 49 92       	mov    edx,0x92492493
c98f:	44 89 c1             	mov    ecx,r8d
c992:	2b 4c 24 38          	sub    ecx,DWORD PTR [rsp+0x38]
c996:	81 c1 7e 01 00 00    	add    ecx,0x17e
c99c:	89 c8                	mov    eax,ecx
c99e:	41 29 c8             	sub    r8d,ecx
c9a1:	f7 ea                	imul   edx
c9a3:	8d 04 0a             	lea    eax,[rdx+rcx*1]
c9a6:	89 ca                	mov    edx,ecx
c9a8:	c1 fa 1f             	sar    edx,0x1f
c9ab:	c1 f8 02             	sar    eax,0x2
c9ae:	29 d0                	sub    eax,edx
c9b0:	8d 14 c5 00 00 00 00 	lea    edx,[rax*8+0x0]
c9b7:	29 c2                	sub    edx,eax
c9b9:	41 8d 4c 10 03       	lea    ecx,[r8+rdx*1+0x3]
c9be:	41 b8 01 00 00 00    	mov    r8d,0x1
c9c4:	85 c9                	test   ecx,ecx
c9c6:	79 07                	jns    c9cf <__strftime_internal+0xf9f>
c9c8:	8b 4c 24 40          	mov    ecx,DWORD PTR [rsp+0x40]
c9cc:	45 31 c0             	xor    r8d,r8d
c9cf:	40 80 fe 47          	cmp    sil,0x47
c9d3:	0f 84 3d 07 00 00    	je     d116 <__strftime_internal+0x16e6>
c9d9:	40 80 fe 67          	cmp    sil,0x67
c9dd:	0f 85 2c 09 00 00    	jne    d30f <__strftime_internal+0x18df>
c9e3:	b9 1f 85 eb 51       	mov    ecx,0x51eb851f
c9e8:	89 f8                	mov    eax,edi
c9ea:	89 fe                	mov    esi,edi
c9ec:	f7 e9                	imul   ecx
c9ee:	89 d0                	mov    eax,edx
c9f0:	89 fa                	mov    edx,edi
c9f2:	c1 fa 1f             	sar    edx,0x1f
c9f5:	c1 f8 05             	sar    eax,0x5
c9f8:	29 d0                	sub    eax,edx
c9fa:	6b c0 64             	imul   eax,eax,0x64
c9fd:	29 c6                	sub    esi,eax
c9ff:	44 01 c6             	add    esi,r8d
ca02:	89 f0                	mov    eax,esi
ca04:	f7 e9                	imul   ecx
ca06:	89 f0                	mov    eax,esi
ca08:	c1 f8 1f             	sar    eax,0x1f
ca0b:	89 d1                	mov    ecx,edx
ca0d:	c1 f9 05             	sar    ecx,0x5
ca10:	29 c1                	sub    ecx,eax
ca12:	6b c9 64             	imul   ecx,ecx,0x64
ca15:	29 ce                	sub    esi,ecx
ca17:	89 f1                	mov    ecx,esi
ca19:	0f 89 ea f9 ff ff    	jns    c409 <__strftime_internal+0x9d9>
ca1f:	b8 94 f8 ff ff       	mov    eax,0xfffff894
ca24:	44 29 c0             	sub    eax,r8d
ca27:	39 c7                	cmp    edi,eax
ca29:	0f 8d 9b 0a 00 00    	jge    d4ca <__strftime_internal+0x1a9a>
ca2f:	f7 d9                	neg    ecx
ca31:	45 85 ff             	test   r15d,r15d
ca34:	0f 85 d8 f9 ff ff    	jne    c412 <__strftime_internal+0x9e2>
ca3a:	44 8b 7c 24 2c       	mov    r15d,DWORD PTR [rsp+0x2c]
ca3f:	b8 01 00 00 00       	mov    eax,0x1
ca44:	41 83 ff 2b          	cmp    r15d,0x2b
ca48:	0f 84 5c 0a 00 00    	je     d4aa <__strftime_internal+0x1a7a>
ca4e:	c6 44 24 40 00       	mov    BYTE PTR [rsp+0x40],0x0
ca53:	c6 44 24 38 00       	mov    BYTE PTR [rsp+0x38],0x0
ca58:	bf 02 00 00 00       	mov    edi,0x2
ca5d:	31 f6                	xor    esi,esi
ca5f:	e9 43 f5 ff ff       	jmp    bfa7 <__strftime_internal+0x577>
ca64:	41 83 fb 45          	cmp    r11d,0x45
ca68:	0f 84 12 f2 ff ff    	je     bc80 <__strftime_internal+0x250>
ca6e:	41 8b 4d 0c          	mov    ecx,DWORD PTR [r13+0xc]
ca72:	bf 02 00 00 00       	mov    edi,0x2
ca77:	e9 14 f5 ff ff       	jmp    bf90 <__strftime_internal+0x560>
ca7c:	41 8b 45 18          	mov    eax,DWORD PTR [r13+0x18]
ca80:	ba 93 24 49 92       	mov    edx,0x92492493
ca85:	bf 01 00 00 00       	mov    edi,0x1
ca8a:	8d 48 06             	lea    ecx,[rax+0x6]
ca8d:	89 c8                	mov    eax,ecx
ca8f:	f7 ea                	imul   edx
ca91:	8d 04 0a             	lea    eax,[rdx+rcx*1]
ca94:	89 ca                	mov    edx,ecx
ca96:	c1 fa 1f             	sar    edx,0x1f
ca99:	c1 f8 02             	sar    eax,0x2
ca9c:	29 d0                	sub    eax,edx
ca9e:	8d 14 c5 00 00 00 00 	lea    edx,[rax*8+0x0]
caa5:	29 c2                	sub    edx,eax
caa7:	29 d1                	sub    ecx,edx
caa9:	83 c1 01             	add    ecx,0x1
caac:	e9 df f4 ff ff       	jmp    bf90 <__strftime_internal+0x560>
cab1:	41 83 fb 45          	cmp    r11d,0x45
cab5:	0f 84 c5 f1 ff ff    	je     bc80 <__strftime_internal+0x250>
cabb:	41 8b 4d 18          	mov    ecx,DWORD PTR [r13+0x18]
cabf:	bf 01 00 00 00       	mov    edi,0x1
cac4:	e9 c7 f4 ff ff       	jmp    bf90 <__strftime_internal+0x560>
cac9:	41 83 fb 45          	cmp    r11d,0x45
cacd:	0f 84 ad f1 ff ff    	je     bc80 <__strftime_internal+0x250>
cad3:	41 8b 45 18          	mov    eax,DWORD PTR [r13+0x18]
cad7:	b9 93 24 49 92       	mov    ecx,0x92492493
cadc:	8d 70 06             	lea    esi,[rax+0x6]
cadf:	89 f0                	mov    eax,esi
cae1:	f7 e9                	imul   ecx
cae3:	8d 04 32             	lea    eax,[rdx+rsi*1]
cae6:	89 f2                	mov    edx,esi
cae8:	c1 fa 1f             	sar    edx,0x1f
caeb:	c1 f8 02             	sar    eax,0x2
caee:	29 d0                	sub    eax,edx
caf0:	8d 14 c5 00 00 00 00 	lea    edx,[rax*8+0x0]
caf7:	29 c2                	sub    edx,eax
caf9:	89 d0                	mov    eax,edx
cafb:	41 8b 55 1c          	mov    edx,DWORD PTR [r13+0x1c]
caff:	29 f0                	sub    eax,esi
cb01:	8d 74 10 07          	lea    esi,[rax+rdx*1+0x7]
cb05:	89 f0                	mov    eax,esi
cb07:	f7 e9                	imul   ecx
cb09:	e9 64 f7 ff ff       	jmp    c272 <__strftime_internal+0x842>
cb0e:	41 83 fb 45          	cmp    r11d,0x45
cb12:	0f 84 68 f1 ff ff    	je     bc80 <__strftime_internal+0x250>
cb18:	45 84 c0             	test   r8b,r8b
cb1b:	0f 84 d4 f2 ff ff    	je     bdf5 <__strftime_internal+0x3c5>
cb21:	44 88 44 24 30       	mov    BYTE PTR [rsp+0x30],r8b
cb26:	e9 c7 f2 ff ff       	jmp    bdf2 <__strftime_internal+0x3c2>
cb2b:	41 83 fb 45          	cmp    r11d,0x45
cb2f:	0f 84 85 04 00 00    	je     cfba <__strftime_internal+0x158a>
cb35:	41 8b 75 14          	mov    esi,DWORD PTR [r13+0x14]
cb39:	ba 1f 85 eb 51       	mov    edx,0x51eb851f
cb3e:	89 f0                	mov    eax,esi
cb40:	f7 ea                	imul   edx
cb42:	89 d0                	mov    eax,edx
cb44:	89 f2                	mov    edx,esi
cb46:	c1 fa 1f             	sar    edx,0x1f
cb49:	c1 f8 05             	sar    eax,0x5
cb4c:	29 d0                	sub    eax,edx
cb4e:	89 f2                	mov    edx,esi
cb50:	8d 48 13             	lea    ecx,[rax+0x13]
cb53:	6b c0 64             	imul   eax,eax,0x64
cb56:	29 c2                	sub    edx,eax
cb58:	89 d0                	mov    eax,edx
cb5a:	c1 e8 1f             	shr    eax,0x1f
cb5d:	85 c9                	test   ecx,ecx
cb5f:	0f 9f c2             	setg   dl
cb62:	21 d0                	and    eax,edx
cb64:	81 fe 94 f8 ff ff    	cmp    esi,0xfffff894
cb6a:	0f 9c 44 24 38       	setl   BYTE PTR [rsp+0x38]
cb6f:	29 c1                	sub    ecx,eax
cb71:	81 fe 94 f8 ff ff    	cmp    esi,0xfffff894
cb77:	0f 9d c0             	setge  al
cb7a:	45 85 ff             	test   r15d,r15d
cb7d:	0f 85 99 f8 ff ff    	jne    c41c <__strftime_internal+0x9ec>
cb83:	83 7c 24 2c 2b       	cmp    DWORD PTR [rsp+0x2c],0x2b
cb88:	44 8b 7c 24 2c       	mov    r15d,DWORD PTR [rsp+0x2c]
cb8d:	0f 85 93 f8 ff ff    	jne    c426 <__strftime_internal+0x9f6>
cb93:	bf 02 00 00 00       	mov    edi,0x2
cb98:	ba 63 00 00 00       	mov    edx,0x63
cb9d:	39 ca                	cmp    edx,ecx
cb9f:	c6 44 24 40 01       	mov    BYTE PTR [rsp+0x40],0x1
cba4:	41 bf 2b 00 00 00    	mov    r15d,0x2b
cbaa:	0f 82 29 f7 ff ff    	jb     c2d9 <__strftime_internal+0x8a9>
cbb0:	41 39 fa             	cmp    r10d,edi
cbb3:	41 bf 2b 00 00 00    	mov    r15d,0x2b
cbb9:	0f 9f 44 24 40       	setg   BYTE PTR [rsp+0x40]
cbbe:	31 f6                	xor    esi,esi
cbc0:	e9 e2 f3 ff ff       	jmp    bfa7 <__strftime_internal+0x577>
cbc5:	45 85 db             	test   r11d,r11d
cbc8:	0f 85 b2 f0 ff ff    	jne    bc80 <__strftime_internal+0x250>
cbce:	48 8d 05 e6 51 00 00 	lea    rax,[rip+0x51e6]        # 11dbb <version_etc_copyright+0x5b>
cbd5:	c7 44 24 38 ff ff ff 	mov    DWORD PTR [rsp+0x38],0xffffffff
cbdc:	ff
cbdd:	48 89 44 24 40       	mov    QWORD PTR [rsp+0x40],rax
cbe2:	e9 bb f4 ff ff       	jmp    c0a2 <__strftime_internal+0x672>
cbe7:	45 85 db             	test   r11d,r11d
cbea:	0f 85 90 f0 ff ff    	jne    bc80 <__strftime_internal+0x250>
cbf0:	45 85 ff             	test   r15d,r15d
cbf3:	0f 85 f4 07 00 00    	jne    d3ed <__strftime_internal+0x19bd>
cbf9:	45 85 d2             	test   r10d,r10d
cbfc:	0f 89 eb 07 00 00    	jns    d3ed <__strftime_internal+0x19bd>
cc02:	48 8d 05 a9 51 00 00 	lea    rax,[rip+0x51a9]        # 11db2 <version_etc_copyright+0x52>
cc09:	c7 44 24 38 04 00 00 	mov    DWORD PTR [rsp+0x38],0x4
cc10:	00
cc11:	41 bf 2b 00 00 00    	mov    r15d,0x2b
cc17:	48 89 44 24 40       	mov    QWORD PTR [rsp+0x40],rax
cc1c:	e9 81 f4 ff ff       	jmp    c0a2 <__strftime_internal+0x672>
cc21:	0f b6 4b ff          	movzx  ecx,BYTE PTR [rbx-0x1]
cc25:	4c 8d 4b ff          	lea    r9,[rbx-0x1]
cc29:	48 8b 54 24 08       	mov    rdx,QWORD PTR [rsp+0x8]
cc2e:	b8 00 00 00 00       	mov    eax,0x0
cc33:	4c 29 f2             	sub    rdx,r14
cc36:	45 85 d2             	test   r10d,r10d
cc39:	41 0f 49 c2          	cmovns eax,r10d
cc3d:	80 f9 25             	cmp    cl,0x25
cc40:	48 98                	cdqe
cc42:	0f 85 33 f0 ff ff    	jne    bc7b <__strftime_internal+0x24b>
cc48:	48 85 c0             	test   rax,rax
cc4b:	b9 01 00 00 00       	mov    ecx,0x1
cc50:	4d 89 cc             	mov    r12,r9
cc53:	48 0f 45 c8          	cmovne rcx,rax
cc57:	41 b8 01 00 00 00    	mov    r8d,0x1
cc5d:	e9 5f f0 ff ff       	jmp    bcc1 <__strftime_internal+0x291>
cc62:	41 83 fb 45          	cmp    r11d,0x45
cc66:	0f 84 14 f0 ff ff    	je     bc80 <__strftime_internal+0x250>
cc6c:	41 8b 4d 08          	mov    ecx,DWORD PTR [r13+0x8]
cc70:	bf 02 00 00 00       	mov    edi,0x2
cc75:	e9 16 f3 ff ff       	jmp    bf90 <__strftime_internal+0x560>
cc7a:	41 83 fb 45          	cmp    r11d,0x45
cc7e:	0f 84 fc ef ff ff    	je     bc80 <__strftime_internal+0x250>
cc84:	41 8b 4d 04          	mov    ecx,DWORD PTR [r13+0x4]
cc88:	bf 02 00 00 00       	mov    edi,0x2
cc8d:	e9 fe f2 ff ff       	jmp    bf90 <__strftime_internal+0x560>
cc92:	41 83 fb 45          	cmp    r11d,0x45
cc96:	0f 84 e4 ef ff ff    	je     bc80 <__strftime_internal+0x250>
cc9c:	41 83 fa ff          	cmp    r10d,0xffffffff
cca0:	0f 84 4b 05 00 00    	je     d1f1 <__strftime_internal+0x17c1>
cca6:	41 83 fa 08          	cmp    r10d,0x8
ccaa:	0f 8f 09 08 00 00    	jg     d4b9 <__strftime_internal+0x1a89>
ccb0:	8b 8c 24 18 05 00 00 	mov    ecx,DWORD PTR [rsp+0x518]
ccb7:	44 89 d6             	mov    esi,r10d
ccba:	bf 67 66 66 66       	mov    edi,0x66666667
ccbf:	90                   	nop
ccc0:	89 c8                	mov    eax,ecx
ccc2:	83 c6 01             	add    esi,0x1
ccc5:	c1 f9 1f             	sar    ecx,0x1f
ccc8:	f7 ef                	imul   edi
ccca:	c1 fa 02             	sar    edx,0x2
cccd:	29 ca                	sub    edx,ecx
cccf:	83 fe 09             	cmp    esi,0x9
ccd2:	89 d1                	mov    ecx,edx
ccd4:	75 ea                	jne    ccc0 <__strftime_internal+0x1290>
ccd6:	44 89 d7             	mov    edi,r10d
ccd9:	e9 b2 f2 ff ff       	jmp    bf90 <__strftime_internal+0x560>
ccde:	41 83 fb 45          	cmp    r11d,0x45
cce2:	0f 84 98 ef ff ff    	je     bc80 <__strftime_internal+0x250>
cce8:	8b 4c 24 68          	mov    ecx,DWORD PTR [rsp+0x68]
ccec:	bf 02 00 00 00       	mov    edi,0x2
ccf1:	e9 9a f2 ff ff       	jmp    bf90 <__strftime_internal+0x560>
ccf6:	41 83 fb 45          	cmp    r11d,0x45
ccfa:	0f 84 80 ef ff ff    	je     bc80 <__strftime_internal+0x250>
cd00:	8b 4c 24 68          	mov    ecx,DWORD PTR [rsp+0x68]
cd04:	45 85 ff             	test   r15d,r15d
cd07:	bf 02 00 00 00       	mov    edi,0x2
cd0c:	0f 85 7e f2 ff ff    	jne    bf90 <__strftime_internal+0x560>
cd12:	41 bf 5f 00 00 00    	mov    r15d,0x5f
cd18:	e9 73 f2 ff ff       	jmp    bf90 <__strftime_internal+0x560>
cd1d:	41 83 fb 45          	cmp    r11d,0x45
cd21:	0f 84 59 ef ff ff    	je     bc80 <__strftime_internal+0x250>
cd27:	41 8b 45 10          	mov    eax,DWORD PTR [r13+0x10]
cd2b:	c6 44 24 40 00       	mov    BYTE PTR [rsp+0x40],0x0
cd30:	bf 02 00 00 00       	mov    edi,0x2
cd35:	83 f8 ff             	cmp    eax,0xffffffff
cd38:	8d 48 01             	lea    ecx,[rax+0x1]
cd3b:	0f 9c 44 24 38       	setl   BYTE PTR [rsp+0x38]
cd40:	83 f8 ff             	cmp    eax,0xffffffff
cd43:	0f 9d c0             	setge  al
cd46:	31 f6                	xor    esi,esi
cd48:	e9 5a f2 ff ff       	jmp    bfa7 <__strftime_internal+0x577>
cd4d:	45 85 d2             	test   r10d,r10d
cd50:	b9 00 00 00 00       	mov    ecx,0x0
cd55:	b8 01 00 00 00       	mov    eax,0x1
cd5a:	41 0f 49 ca          	cmovns ecx,r10d
cd5e:	48 63 c9             	movsxd rcx,ecx
cd61:	48 85 c9             	test   rcx,rcx
cd64:	48 0f 44 c8          	cmove  rcx,rax
cd68:	48 8b 44 24 08       	mov    rax,QWORD PTR [rsp+0x8]
cd6d:	4c 29 f0             	sub    rax,r14
cd70:	48 39 c8             	cmp    rax,rcx
cd73:	0f 86 83 ed ff ff    	jbe    bafc <__strftime_internal+0xcc>
cd79:	48 85 ed             	test   rbp,rbp
cd7c:	0f 84 e6 f2 ff ff    	je     c068 <__strftime_internal+0x638>
cd82:	41 83 fa 01          	cmp    r10d,0x1
cd86:	7e 3a                	jle    cdc2 <__strftime_internal+0x1392>
cd88:	49 63 d2             	movsxd rdx,r10d
cd8b:	48 89 4c 24 30       	mov    QWORD PTR [rsp+0x30],rcx
cd90:	48 83 ea 01          	sub    rdx,0x1
cd94:	41 83 ff 30          	cmp    r15d,0x30
cd98:	4c 8d 64 15 00       	lea    r12,[rbp+rdx*1+0x0]
cd9d:	0f 84 cb 05 00 00    	je     d36e <__strftime_internal+0x193e>
cda3:	41 83 ff 2b          	cmp    r15d,0x2b
cda7:	0f 84 c1 05 00 00    	je     d36e <__strftime_internal+0x193e>
cdad:	48 89 ef             	mov    rdi,rbp
cdb0:	be 20 00 00 00       	mov    esi,0x20
cdb5:	4c 89 e5             	mov    rbp,r12
cdb8:	e8 33 5b ff ff       	call   28f0 <memset@plt>
cdbd:	48 8b 4c 24 30       	mov    rcx,QWORD PTR [rsp+0x30]
cdc2:	c6 45 00 0a          	mov    BYTE PTR [rbp+0x0],0xa
cdc6:	48 83 c5 01          	add    rbp,0x1
cdca:	e9 99 f2 ff ff       	jmp    c068 <__strftime_internal+0x638>
cdcf:	31 c0                	xor    eax,eax
cdd1:	e9 a2 f2 ff ff       	jmp    c078 <__strftime_internal+0x648>
cdd6:	41 83 fb 45          	cmp    r11d,0x45
cdda:	0f 84 a0 ee ff ff    	je     bc80 <__strftime_internal+0x250>
cde0:	41 8b 45 1c          	mov    eax,DWORD PTR [r13+0x1c]
cde4:	c6 44 24 40 00       	mov    BYTE PTR [rsp+0x40],0x0
cde9:	bf 03 00 00 00       	mov    edi,0x3
cdee:	83 f8 ff             	cmp    eax,0xffffffff
cdf1:	8d 48 01             	lea    ecx,[rax+0x1]
cdf4:	0f 9c 44 24 38       	setl   BYTE PTR [rsp+0x38]
cdf9:	83 f8 ff             	cmp    eax,0xffffffff
cdfc:	0f 9d c0             	setge  al
cdff:	31 f6                	xor    esi,esi
ce01:	e9 a1 f1 ff ff       	jmp    bfa7 <__strftime_internal+0x577>
ce06:	41 83 fb 45          	cmp    r11d,0x45
ce0a:	0f 84 70 ee ff ff    	je     bc80 <__strftime_internal+0x250>
ce10:	41 8b 4d 08          	mov    ecx,DWORD PTR [r13+0x8]
ce14:	e9 eb fe ff ff       	jmp    cd04 <__strftime_internal+0x12d4>
ce19:	41 83 fb 45          	cmp    r11d,0x45
ce1d:	0f 84 5d ee ff ff    	je     bc80 <__strftime_internal+0x250>
ce23:	41 8b 4d 0c          	mov    ecx,DWORD PTR [r13+0xc]
ce27:	e9 d8 fe ff ff       	jmp    cd04 <__strftime_internal+0x12d4>
ce2c:	0f 1f 40 00          	nop    DWORD PTR [rax+0x0]
ce30:	89 c8                	mov    eax,ecx
ce32:	f7 d8                	neg    eax
ce34:	80 7c 24 38 00       	cmp    BYTE PTR [rsp+0x38],0x0
ce39:	0f 45 c8             	cmovne ecx,eax
ce3c:	e9 1f f7 ff ff       	jmp    c560 <__strftime_internal+0xb30>
ce41:	0f 1f 80 00 00 00 00 	nop    DWORD PTR [rax+0x0]
ce48:	41 83 ff 2d          	cmp    r15d,0x2d
ce4c:	c6 44 24 38 2d       	mov    BYTE PTR [rsp+0x38],0x2d
ce51:	0f 85 8d f7 ff ff    	jne    c5e4 <__strftime_internal+0xbb4>
ce57:	45 85 d2             	test   r10d,r10d
ce5a:	41 bb 00 00 00 00    	mov    r11d,0x0
ce60:	48 8b 44 24 08       	mov    rax,QWORD PTR [rsp+0x8]
ce65:	45 0f 49 da          	cmovns r11d,r10d
ce69:	41 bc 01 00 00 00    	mov    r12d,0x1
ce6f:	4d 63 db             	movsxd r11,r11d
ce72:	4d 85 db             	test   r11,r11
ce75:	4d 0f 45 e3          	cmovne r12,r11
ce79:	4c 29 f0             	sub    rax,r14
ce7c:	4c 39 e0             	cmp    rax,r12
ce7f:	0f 86 77 ec ff ff    	jbe    bafc <__strftime_internal+0xcc>
ce85:	48 85 ed             	test   rbp,rbp
ce88:	74 62                	je     ceec <__strftime_internal+0x14bc>
ce8a:	8b 44 24 48          	mov    eax,DWORD PTR [rsp+0x48]
ce8e:	85 c0                	test   eax,eax
ce90:	75 52                	jne    cee4 <__strftime_internal+0x14b4>
ce92:	49 83 fb 01          	cmp    r11,0x1
ce96:	76 4c                	jbe    cee4 <__strftime_internal+0x14b4>
ce98:	49 63 c2             	movsxd rax,r10d
ce9b:	48 89 ef             	mov    rdi,rbp
ce9e:	be 20 00 00 00       	mov    esi,0x20
cea3:	48 8d 48 ff          	lea    rcx,[rax-0x1]
cea7:	4c 89 4c 24 60       	mov    QWORD PTR [rsp+0x60],r9
ceac:	4c 89 44 24 58       	mov    QWORD PTR [rsp+0x58],r8
ceb1:	4c 89 5c 24 50       	mov    QWORD PTR [rsp+0x50],r11
ceb6:	44 89 54 24 40       	mov    DWORD PTR [rsp+0x40],r10d
cebb:	48 89 ca             	mov    rdx,rcx
cebe:	48 89 4c 24 38       	mov    QWORD PTR [rsp+0x38],rcx
cec3:	e8 28 5a ff ff       	call   28f0 <memset@plt>
cec8:	48 8b 4c 24 38       	mov    rcx,QWORD PTR [rsp+0x38]
cecd:	4c 8b 4c 24 60       	mov    r9,QWORD PTR [rsp+0x60]
ced2:	4c 8b 44 24 58       	mov    r8,QWORD PTR [rsp+0x58]
ced7:	4c 8b 5c 24 50       	mov    r11,QWORD PTR [rsp+0x50]
cedc:	44 8b 54 24 40       	mov    r10d,DWORD PTR [rsp+0x40]
cee1:	48 01 cd             	add    rbp,rcx
cee4:	44 88 7d 00          	mov    BYTE PTR [rbp+0x0],r15b
cee8:	48 83 c5 01          	add    rbp,0x1
ceec:	48 8b 54 24 08       	mov    rdx,QWORD PTR [rsp+0x8]
cef1:	49 8d 49 17          	lea    rcx,[r9+0x17]
cef5:	4d 01 e6             	add    r14,r12
cef8:	41 bf 2d 00 00 00    	mov    r15d,0x2d
cefe:	49 89 dc             	mov    r12,rbx
cf01:	4c 29 c1             	sub    rcx,r8
cf04:	4c 29 f2             	sub    rdx,r14
cf07:	e9 f9 f7 ff ff       	jmp    c705 <__strftime_internal+0xcd5>
cf0c:	0f 1f 40 00          	nop    DWORD PTR [rax+0x0]
cf10:	e8 5b 5a ff ff       	call   2970 <memcpy@plt>
cf15:	48 8b 4c 24 38       	mov    rcx,QWORD PTR [rsp+0x38]
cf1a:	4c 8b 44 24 30       	mov    r8,QWORD PTR [rsp+0x30]
cf1f:	e9 2e ee ff ff       	jmp    bd52 <__strftime_internal+0x322>
cf24:	0f 1f 40 00          	nop    DWORD PTR [rax+0x0]
cf28:	48 89 ef             	mov    rdi,rbp
cf2b:	48 89 4c 24 30       	mov    QWORD PTR [rsp+0x30],rcx
cf30:	e8 5b ea ff ff       	call   b990 <memcpy_lowcase>
cf35:	48 8b 4c 24 30       	mov    rcx,QWORD PTR [rsp+0x30]
cf3a:	e9 ec ef ff ff       	jmp    bf2b <__strftime_internal+0x4fb>
cf3f:	48 89 ef             	mov    rdi,rbp
cf42:	be 30 00 00 00       	mov    esi,0x30
cf47:	e8 a4 59 ff ff       	call   28f0 <memset@plt>
cf4c:	48 8b 6c 24 38       	mov    rbp,QWORD PTR [rsp+0x38]
cf51:	44 0f b6 44 24 40    	movzx  r8d,BYTE PTR [rsp+0x40]
cf57:	48 8b 4c 24 48       	mov    rcx,QWORD PTR [rsp+0x48]
cf5c:	4c 8b 4c 24 50       	mov    r9,QWORD PTR [rsp+0x50]
cf61:	e9 98 ef ff ff       	jmp    befe <__strftime_internal+0x4ce>
cf66:	48 89 ef             	mov    rdi,rbp
cf69:	be 30 00 00 00       	mov    esi,0x30
cf6e:	48 89 dd             	mov    rbp,rbx
cf71:	e8 7a 59 ff ff       	call   28f0 <memset@plt>
cf76:	4c 8b 4c 24 38       	mov    r9,QWORD PTR [rsp+0x38]
cf7b:	48 8b 4c 24 40       	mov    rcx,QWORD PTR [rsp+0x40]
cf80:	4c 8b 44 24 48       	mov    r8,QWORD PTR [rsp+0x48]
cf85:	e9 9b ed ff ff       	jmp    bd25 <__strftime_internal+0x2f5>
cf8a:	48 89 ef             	mov    rdi,rbp
cf8d:	be 30 00 00 00       	mov    esi,0x30
cf92:	e8 59 59 ff ff       	call   28f0 <memset@plt>
cf97:	48 8b 6c 24 38       	mov    rbp,QWORD PTR [rsp+0x38]
cf9c:	48 8b 4c 24 40       	mov    rcx,QWORD PTR [rsp+0x40]
cfa1:	4c 8b 44 24 48       	mov    r8,QWORD PTR [rsp+0x48]
cfa6:	e9 cd f7 ff ff       	jmp    c778 <__strftime_internal+0xd48>
cfab:	be 70 00 00 00       	mov    esi,0x70
cfb0:	c6 44 24 30 00       	mov    BYTE PTR [rsp+0x30],0x0
cfb5:	e9 3b ee ff ff       	jmp    bdf5 <__strftime_internal+0x3c5>
cfba:	31 ff                	xor    edi,edi
cfbc:	e9 fb ef ff ff       	jmp    bfbc <__strftime_internal+0x58c>
cfc1:	c6 44 24 38 00       	mov    BYTE PTR [rsp+0x38],0x0
cfc6:	4d 63 fc             	movsxd r15,r12d
cfc9:	49 39 d7             	cmp    r15,rdx
cfcc:	0f 83 2a eb ff ff    	jae    bafc <__strftime_internal+0xcc>
cfd2:	48 85 ed             	test   rbp,rbp
cfd5:	74 31                	je     d008 <__strftime_internal+0x15d8>
cfd7:	48 89 ef             	mov    rdi,rbp
cfda:	4c 89 fa             	mov    rdx,r15
cfdd:	be 20 00 00 00       	mov    esi,0x20
cfe2:	44 89 54 24 58       	mov    DWORD PTR [rsp+0x58],r10d
cfe7:	4c 89 4c 24 50       	mov    QWORD PTR [rsp+0x50],r9
cfec:	4c 01 fd             	add    rbp,r15
cfef:	4c 89 44 24 40       	mov    QWORD PTR [rsp+0x40],r8
cff4:	e8 f7 58 ff ff       	call   28f0 <memset@plt>
cff9:	44 8b 54 24 58       	mov    r10d,DWORD PTR [rsp+0x58]
cffe:	4c 8b 4c 24 50       	mov    r9,QWORD PTR [rsp+0x50]
d003:	4c 8b 44 24 40       	mov    r8,QWORD PTR [rsp+0x40]
d008:	48 8b 54 24 08       	mov    rdx,QWORD PTR [rsp+0x8]
d00d:	44 89 d0             	mov    eax,r10d
d010:	4d 01 fe             	add    r14,r15
d013:	44 29 e0             	sub    eax,r12d
d016:	45 39 e2             	cmp    r10d,r12d
d019:	41 ba 00 00 00 00    	mov    r10d,0x0
d01f:	44 0f 4f d0          	cmovg  r10d,eax
d023:	4c 29 f2             	sub    rdx,r14
d026:	80 7c 24 38 00       	cmp    BYTE PTR [rsp+0x38],0x0
d02b:	0f 85 21 01 00 00    	jne    d152 <__strftime_internal+0x1722>
d031:	49 83 c1 17          	add    r9,0x17
d035:	4d 63 da             	movsxd r11,r10d
d038:	49 89 dc             	mov    r12,rbx
d03b:	4c 89 c9             	mov    rcx,r9
d03e:	41 bf 5f 00 00 00    	mov    r15d,0x5f
d044:	4c 29 c1             	sub    rcx,r8
d047:	e9 b9 f6 ff ff       	jmp    c705 <__strftime_internal+0xcd5>
d04c:	45 85 d2             	test   r10d,r10d
d04f:	41 bb 00 00 00 00    	mov    r11d,0x0
d055:	41 bc 01 00 00 00    	mov    r12d,0x1
d05b:	45 0f 49 da          	cmovns r11d,r10d
d05f:	4d 63 db             	movsxd r11,r11d
d062:	4d 85 db             	test   r11,r11
d065:	4d 0f 45 e3          	cmovne r12,r11
d069:	49 39 d4             	cmp    r12,rdx
d06c:	0f 83 8a ea ff ff    	jae    bafc <__strftime_internal+0xcc>
d072:	48 85 ed             	test   rbp,rbp
d075:	74 79                	je     d0f0 <__strftime_internal+0x16c0>
d077:	8b 7c 24 48          	mov    edi,DWORD PTR [rsp+0x48]
d07b:	85 ff                	test   edi,edi
d07d:	75 65                	jne    d0e4 <__strftime_internal+0x16b4>
d07f:	49 83 fb 01          	cmp    r11,0x1
d083:	76 5f                	jbe    d0e4 <__strftime_internal+0x16b4>
d085:	49 63 d2             	movsxd rdx,r10d
d088:	44 89 54 24 6c       	mov    DWORD PTR [rsp+0x6c],r10d
d08d:	4c 89 44 24 60       	mov    QWORD PTR [rsp+0x60],r8
d092:	48 83 ea 01          	sub    rdx,0x1
d096:	41 83 ff 30          	cmp    r15d,0x30
d09a:	48 89 4c 24 58       	mov    QWORD PTR [rsp+0x58],rcx
d09f:	48 8d 44 15 00       	lea    rax,[rbp+rdx*1+0x0]
d0a4:	4c 89 5c 24 50       	mov    QWORD PTR [rsp+0x50],r11
d0a9:	48 89 44 24 40       	mov    QWORD PTR [rsp+0x40],rax
d0ae:	0f 84 cb 03 00 00    	je     d47f <__strftime_internal+0x1a4f>
d0b4:	41 83 ff 2b          	cmp    r15d,0x2b
d0b8:	0f 84 c1 03 00 00    	je     d47f <__strftime_internal+0x1a4f>
d0be:	48 89 ef             	mov    rdi,rbp
d0c1:	be 20 00 00 00       	mov    esi,0x20
d0c6:	e8 25 58 ff ff       	call   28f0 <memset@plt>
d0cb:	48 8b 6c 24 40       	mov    rbp,QWORD PTR [rsp+0x40]
d0d0:	44 8b 54 24 6c       	mov    r10d,DWORD PTR [rsp+0x6c]
d0d5:	4c 8b 44 24 60       	mov    r8,QWORD PTR [rsp+0x60]
d0da:	48 8b 4c 24 58       	mov    rcx,QWORD PTR [rsp+0x58]
d0df:	4c 8b 5c 24 50       	mov    r11,QWORD PTR [rsp+0x50]
d0e4:	0f b6 44 24 38       	movzx  eax,BYTE PTR [rsp+0x38]
d0e9:	48 83 c5 01          	add    rbp,0x1
d0ed:	88 45 ff             	mov    BYTE PTR [rbp-0x1],al
d0f0:	48 8b 54 24 08       	mov    rdx,QWORD PTR [rsp+0x8]
d0f5:	4d 01 e6             	add    r14,r12
d0f8:	49 89 dc             	mov    r12,rbx
d0fb:	4c 29 f2             	sub    rdx,r14
d0fe:	e9 02 f6 ff ff       	jmp    c705 <__strftime_internal+0xcd5>
d103:	41 bf 2b 00 00 00    	mov    r15d,0x2b
d109:	e9 49 fd ff ff       	jmp    ce57 <__strftime_internal+0x1427>
d10e:	49 89 dc             	mov    r12,rbx
d111:	e9 4c ea ff ff       	jmp    bb62 <__strftime_internal+0x132>
d116:	b8 94 f8 ff ff       	mov    eax,0xfffff894
d11b:	42 8d 8c 07 6c 07 00 	lea    ecx,[rdi+r8*1+0x76c]
d122:	00
d123:	44 29 c0             	sub    eax,r8d
d126:	39 c7                	cmp    edi,eax
d128:	0f 9c 44 24 38       	setl   BYTE PTR [rsp+0x38]
d12d:	0f 9d c0             	setge  al
d130:	45 85 ff             	test   r15d,r15d
d133:	0f 84 87 f1 ff ff    	je     c2c0 <__strftime_internal+0x890>
d139:	41 83 ff 2b          	cmp    r15d,0x2b
d13d:	0f 85 8c f1 ff ff    	jne    c2cf <__strftime_internal+0x89f>
d143:	bf 04 00 00 00       	mov    edi,0x4
d148:	ba 0f 27 00 00       	mov    edx,0x270f
d14d:	e9 4b fa ff ff       	jmp    cb9d <__strftime_internal+0x116d>
d152:	4d 63 fa             	movsxd r15,r10d
d155:	41 bc 01 00 00 00    	mov    r12d,0x1
d15b:	4d 85 ff             	test   r15,r15
d15e:	4d 0f 45 e7          	cmovne r12,r15
d162:	49 39 d4             	cmp    r12,rdx
d165:	0f 83 91 e9 ff ff    	jae    bafc <__strftime_internal+0xcc>
d16b:	48 85 ed             	test   rbp,rbp
d16e:	74 5b                	je     d1cb <__strftime_internal+0x179b>
d170:	44 8b 5c 24 48       	mov    r11d,DWORD PTR [rsp+0x48]
d175:	45 85 db             	test   r11d,r11d
d178:	75 45                	jne    d1bf <__strftime_internal+0x178f>
d17a:	49 83 ff 01          	cmp    r15,0x1
d17e:	76 3f                	jbe    d1bf <__strftime_internal+0x178f>
d180:	49 8d 4f ff          	lea    rcx,[r15-0x1]
d184:	48 89 ef             	mov    rdi,rbp
d187:	be 20 00 00 00       	mov    esi,0x20
d18c:	44 89 54 24 60       	mov    DWORD PTR [rsp+0x60],r10d
d191:	4c 89 4c 24 58       	mov    QWORD PTR [rsp+0x58],r9
d196:	48 89 ca             	mov    rdx,rcx
d199:	4c 89 44 24 50       	mov    QWORD PTR [rsp+0x50],r8
d19e:	48 89 4c 24 40       	mov    QWORD PTR [rsp+0x40],rcx
d1a3:	e8 48 57 ff ff       	call   28f0 <memset@plt>
d1a8:	48 8b 4c 24 40       	mov    rcx,QWORD PTR [rsp+0x40]
d1ad:	44 8b 54 24 60       	mov    r10d,DWORD PTR [rsp+0x60]
d1b2:	4c 8b 4c 24 58       	mov    r9,QWORD PTR [rsp+0x58]
d1b7:	4c 8b 44 24 50       	mov    r8,QWORD PTR [rsp+0x50]
d1bc:	48 01 cd             	add    rbp,rcx
d1bf:	0f b6 44 24 38       	movzx  eax,BYTE PTR [rsp+0x38]
d1c4:	48 83 c5 01          	add    rbp,0x1
d1c8:	88 45 ff             	mov    BYTE PTR [rbp-0x1],al
d1cb:	48 8b 54 24 08       	mov    rdx,QWORD PTR [rsp+0x8]
d1d0:	49 83 c1 17          	add    r9,0x17
d1d4:	4d 01 e6             	add    r14,r12
d1d7:	4c 89 c9             	mov    rcx,r9
d1da:	4d 89 fb             	mov    r11,r15
d1dd:	49 89 dc             	mov    r12,rbx
d1e0:	4c 29 c1             	sub    rcx,r8
d1e3:	41 bf 5f 00 00 00    	mov    r15d,0x5f
d1e9:	4c 29 f2             	sub    rdx,r14
d1ec:	e9 14 f5 ff ff       	jmp    c705 <__strftime_internal+0xcd5>
d1f1:	8b 8c 24 18 05 00 00 	mov    ecx,DWORD PTR [rsp+0x518]
d1f8:	bf 09 00 00 00       	mov    edi,0x9
d1fd:	41 ba 09 00 00 00    	mov    r10d,0x9
d203:	e9 88 ed ff ff       	jmp    bf90 <__strftime_internal+0x560>
d208:	49 89 dc             	mov    r12,rbx
d20b:	49 89 d9             	mov    r9,rbx
d20e:	41 b8 01 00 00 00    	mov    r8d,0x1
d214:	e9 a8 ea ff ff       	jmp    bcc1 <__strftime_internal+0x291>
d219:	41 83 ff 5f          	cmp    r15d,0x5f
d21d:	0f 84 9e fd ff ff    	je     cfc1 <__strftime_internal+0x1591>
d223:	48 63 44 24 48       	movsxd rax,DWORD PTR [rsp+0x48]
d228:	48 39 d0             	cmp    rax,rdx
d22b:	0f 83 cb e8 ff ff    	jae    bafc <__strftime_internal+0xcc>
d231:	4d 63 cc             	movsxd r9,r12d
d234:	49 89 dc             	mov    r12,rbx
d237:	e9 82 f4 ff ff       	jmp    c6be <__strftime_internal+0xc8e>
d23c:	48 89 ef             	mov    rdi,rbp
d23f:	be 30 00 00 00       	mov    esi,0x30
d244:	e8 a7 56 ff ff       	call   28f0 <memset@plt>
d249:	48 8b 6c 24 50       	mov    rbp,QWORD PTR [rsp+0x50]
d24e:	4c 8b 5c 24 58       	mov    r11,QWORD PTR [rsp+0x58]
d253:	e9 0e ef ff ff       	jmp    c166 <__strftime_internal+0x736>
d258:	41 83 ec 01          	sub    r12d,0x1
d25c:	ba 6d 01 00 00       	mov    edx,0x16d
d261:	41 f6 c4 03          	test   r12b,0x3
d265:	75 3c                	jne    d2a3 <__strftime_internal+0x1873>
d267:	44 89 e0             	mov    eax,r12d
d26a:	ba 1f 85 eb 51       	mov    edx,0x51eb851f
d26f:	f7 ea                	imul   edx
d271:	89 d0                	mov    eax,edx
d273:	44 89 e2             	mov    edx,r12d
d276:	c1 fa 1f             	sar    edx,0x1f
d279:	c1 f8 05             	sar    eax,0x5
d27c:	29 d0                	sub    eax,edx
d27e:	ba 6e 01 00 00       	mov    edx,0x16e
d283:	6b c0 64             	imul   eax,eax,0x64
d286:	41 39 c4             	cmp    r12d,eax
d289:	75 18                	jne    d2a3 <__strftime_internal+0x1873>
d28b:	44 89 e0             	mov    eax,r12d
d28e:	b9 90 01 00 00       	mov    ecx,0x190
d293:	99                   	cdq
d294:	f7 f9                	idiv   ecx
d296:	83 fa 01             	cmp    edx,0x1
d299:	19 d2                	sbb    edx,edx
d29b:	f7 d2                	not    edx
d29d:	81 c2 6e 01 00 00    	add    edx,0x16e
d2a3:	41 01 d0             	add    r8d,edx
d2a6:	ba 93 24 49 92       	mov    edx,0x92492493
d2ab:	44 89 c1             	mov    ecx,r8d
d2ae:	2b 4c 24 38          	sub    ecx,DWORD PTR [rsp+0x38]
d2b2:	81 c1 7e 01 00 00    	add    ecx,0x17e
d2b8:	89 c8                	mov    eax,ecx
d2ba:	41 29 c8             	sub    r8d,ecx
d2bd:	f7 ea                	imul   edx
d2bf:	8d 04 0a             	lea    eax,[rdx+rcx*1]
d2c2:	89 ca                	mov    edx,ecx
d2c4:	c1 fa 1f             	sar    edx,0x1f
d2c7:	c1 f8 02             	sar    eax,0x2
d2ca:	29 d0                	sub    eax,edx
d2cc:	8d 14 c5 00 00 00 00 	lea    edx,[rax*8+0x0]
d2d3:	29 c2                	sub    edx,eax
d2d5:	41 8d 4c 10 03       	lea    ecx,[r8+rdx*1+0x3]
d2da:	41 b8 ff ff ff ff    	mov    r8d,0xffffffff
d2e0:	e9 ea f6 ff ff       	jmp    c9cf <__strftime_internal+0xf9f>
d2e5:	6b f6 64             	imul   esi,esi,0x64
d2e8:	c6 44 24 40 01       	mov    BYTE PTR [rsp+0x40],0x1
d2ed:	bf 09 00 00 00       	mov    edi,0x9
d2f2:	41 69 c4 10 27 00 00 	imul   eax,r12d,0x2710
d2f9:	01 f0                	add    eax,esi
d2fb:	be 14 00 00 00       	mov    esi,0x14
d300:	01 c1                	add    ecx,eax
d302:	0f b6 44 24 38       	movzx  eax,BYTE PTR [rsp+0x38]
d307:	83 f0 01             	xor    eax,0x1
d30a:	e9 98 ec ff ff       	jmp    bfa7 <__strftime_internal+0x577>
d30f:	89 c8                	mov    eax,ecx
d311:	ba 93 24 49 92       	mov    edx,0x92492493
d316:	bf 02 00 00 00       	mov    edi,0x2
d31b:	f7 ea                	imul   edx
d31d:	8d 04 0a             	lea    eax,[rdx+rcx*1]
d320:	c1 f9 1f             	sar    ecx,0x1f
d323:	c1 f8 02             	sar    eax,0x2
d326:	29 c8                	sub    eax,ecx
d328:	89 c1                	mov    ecx,eax
d32a:	83 c1 01             	add    ecx,0x1
d32d:	e9 5e ec ff ff       	jmp    bf90 <__strftime_internal+0x560>
d332:	0f b6 44 24 38       	movzx  eax,BYTE PTR [rsp+0x38]
d337:	c6 44 24 40 01       	mov    BYTE PTR [rsp+0x40],0x1
d33c:	bf 06 00 00 00       	mov    edi,0x6
d341:	41 6b cc 64          	imul   ecx,r12d,0x64
d345:	83 f0 01             	xor    eax,0x1
d348:	01 f1                	add    ecx,esi
d34a:	be 04 00 00 00       	mov    esi,0x4
d34f:	e9 53 ec ff ff       	jmp    bfa7 <__strftime_internal+0x577>
d354:	48 89 ef             	mov    rdi,rbp
d357:	be 30 00 00 00       	mov    esi,0x30
d35c:	4c 89 e5             	mov    rbp,r12
d35f:	e8 8c 55 ff ff       	call   28f0 <memset@plt>
d364:	48 8b 4c 24 30       	mov    rcx,QWORD PTR [rsp+0x30]
d369:	e9 ee ec ff ff       	jmp    c05c <__strftime_internal+0x62c>
d36e:	48 89 ef             	mov    rdi,rbp
d371:	be 30 00 00 00       	mov    esi,0x30
d376:	4c 89 e5             	mov    rbp,r12
d379:	e8 72 55 ff ff       	call   28f0 <memset@plt>
d37e:	48 8b 4c 24 30       	mov    rcx,QWORD PTR [rsp+0x30]
d383:	e9 3a fa ff ff       	jmp    cdc2 <__strftime_internal+0x1392>
d388:	e8 e3 55 ff ff       	call   2970 <memcpy@plt>
d38d:	48 8b 4c 24 30       	mov    rcx,QWORD PTR [rsp+0x30]
d392:	e9 2e f0 ff ff       	jmp    c3c5 <__strftime_internal+0x995>
d397:	48 8b 74 24 20       	mov    rsi,QWORD PTR [rsp+0x20]
d39c:	4c 89 e2             	mov    rdx,r12
d39f:	48 89 ef             	mov    rdi,rbp
d3a2:	48 89 4c 24 30       	mov    QWORD PTR [rsp+0x30],rcx
d3a7:	e8 e4 e5 ff ff       	call   b990 <memcpy_lowcase>
d3ac:	48 8b 4c 24 30       	mov    rcx,QWORD PTR [rsp+0x30]
d3b1:	e9 0f f0 ff ff       	jmp    c3c5 <__strftime_internal+0x995>
d3b6:	88 44 24 30          	mov    BYTE PTR [rsp+0x30],al
d3ba:	e9 c1 e8 ff ff       	jmp    bc80 <__strftime_internal+0x250>
d3bf:	0f b6 0b             	movzx  ecx,BYTE PTR [rbx]
d3c2:	49 89 d9             	mov    r9,rbx
d3c5:	e9 5f f8 ff ff       	jmp    cc29 <__strftime_internal+0x11f9>
d3ca:	48 8d 4b 02          	lea    rcx,[rbx+0x2]
d3ce:	41 b8 01 00 00 00    	mov    r8d,0x1
d3d4:	48 89 ca             	mov    rdx,rcx
d3d7:	48 83 c1 01          	add    rcx,0x1
d3db:	0f b6 41 ff          	movzx  eax,BYTE PTR [rcx-0x1]
d3df:	49 83 c0 01          	add    r8,0x1
d3e3:	3c 3a                	cmp    al,0x3a
d3e5:	0f 85 d2 f4 ff ff    	jne    c8bd <__strftime_internal+0xe8d>
d3eb:	eb e7                	jmp    d3d4 <__strftime_internal+0x19a4>
d3ed:	44 89 d6             	mov    esi,r10d
d3f0:	b8 00 00 00 00       	mov    eax,0x0
d3f5:	83 ee 06             	sub    esi,0x6
d3f8:	0f 49 c6             	cmovns eax,esi
d3fb:	89 44 24 38          	mov    DWORD PTR [rsp+0x38],eax
d3ff:	48 8d 05 ac 49 00 00 	lea    rax,[rip+0x49ac]        # 11db2 <version_etc_copyright+0x52>
d406:	48 89 44 24 40       	mov    QWORD PTR [rsp+0x40],rax
d40b:	e9 92 ec ff ff       	jmp    c0a2 <__strftime_internal+0x672>
d410:	41 6b cc 64          	imul   ecx,r12d,0x64
d414:	31 f6                	xor    esi,esi
d416:	c6 44 24 40 01       	mov    BYTE PTR [rsp+0x40],0x1
d41b:	bf 05 00 00 00       	mov    edi,0x5
d420:	01 c1                	add    ecx,eax
d422:	0f b6 44 24 38       	movzx  eax,BYTE PTR [rsp+0x38]
d427:	83 f0 01             	xor    eax,0x1
d42a:	e9 78 eb ff ff       	jmp    bfa7 <__strftime_internal+0x577>
d42f:	48 89 ef             	mov    rdi,rbp
d432:	be 30 00 00 00       	mov    esi,0x30
d437:	e8 b4 54 ff ff       	call   28f0 <memset@plt>
d43c:	48 8b 6c 24 38       	mov    rbp,QWORD PTR [rsp+0x38]
d441:	44 0f b6 44 24 40    	movzx  r8d,BYTE PTR [rsp+0x40]
d447:	48 8b 4c 24 48       	mov    rcx,QWORD PTR [rsp+0x48]
d44c:	e9 46 ef ff ff       	jmp    c397 <__strftime_internal+0x967>
d451:	48 89 ef             	mov    rdi,rbp
d454:	be 30 00 00 00       	mov    esi,0x30
d459:	4c 89 e5             	mov    rbp,r12
d45c:	e8 8f 54 ff ff       	call   28f0 <memset@plt>
d461:	48 8b 4c 24 40       	mov    rcx,QWORD PTR [rsp+0x40]
d466:	4c 8b 4c 24 50       	mov    r9,QWORD PTR [rsp+0x50]
d46b:	4c 8b 44 24 58       	mov    r8,QWORD PTR [rsp+0x58]
d470:	e9 3a f2 ff ff       	jmp    c6af <__strftime_internal+0xc7f>
d475:	be 30 00 00 00       	mov    esi,0x30
d47a:	e9 9c ed ff ff       	jmp    c21b <__strftime_internal+0x7eb>
d47f:	48 89 ef             	mov    rdi,rbp
d482:	be 30 00 00 00       	mov    esi,0x30
d487:	e8 64 54 ff ff       	call   28f0 <memset@plt>
d48c:	48 8b 6c 24 40       	mov    rbp,QWORD PTR [rsp+0x40]
d491:	4c 8b 5c 24 50       	mov    r11,QWORD PTR [rsp+0x50]
d496:	48 8b 4c 24 58       	mov    rcx,QWORD PTR [rsp+0x58]
d49b:	4c 8b 44 24 60       	mov    r8,QWORD PTR [rsp+0x60]
d4a0:	44 8b 54 24 6c       	mov    r10d,DWORD PTR [rsp+0x6c]
d4a5:	e9 3a fc ff ff       	jmp    d0e4 <__strftime_internal+0x16b4>
d4aa:	c6 44 24 38 00       	mov    BYTE PTR [rsp+0x38],0x0
d4af:	bf 02 00 00 00       	mov    edi,0x2
d4b4:	e9 f7 f6 ff ff       	jmp    cbb0 <__strftime_internal+0x1180>
d4b9:	8b 8c 24 18 05 00 00 	mov    ecx,DWORD PTR [rsp+0x518]
d4c0:	e9 11 f8 ff ff       	jmp    ccd6 <__strftime_internal+0x12a6>
d4c5:	e8 66 53 ff ff       	call   2830 <__stack_chk_fail@plt>
d4ca:	83 c1 64             	add    ecx,0x64
d4cd:	45 85 ff             	test   r15d,r15d
d4d0:	0f 84 64 f5 ff ff    	je     ca3a <__strftime_internal+0x100a>
d4d6:	e9 37 ef ff ff       	jmp    c412 <__strftime_internal+0x9e2>
d4db:	31 ff                	xor    edi,edi
d4dd:	e9 ea ea ff ff       	jmp    bfcc <__strftime_internal+0x59c>
d4e2:	0f 1f 40 00          	nop    DWORD PTR [rax+0x0]
d4e6:	66 2e 0f 1f 84 00 00 	nop    WORD PTR cs:[rax+rax*1+0x0]
d4ed:	00 00 00

000000000000d4f0 <nstrftime>:
d4f0:	48 83 ec 18          	sub    rsp,0x18
d4f4:	64 48 8b 04 25 28 00 	mov    rax,QWORD PTR fs:0x28
d4fb:	00 00
d4fd:	48 89 44 24 08       	mov    QWORD PTR [rsp+0x8],rax
d502:	31 c0                	xor    eax,eax
d504:	c6 44 24 07 00       	mov    BYTE PTR [rsp+0x7],0x0
d509:	41 51                	push   r9
d50b:	45 31 c9             	xor    r9d,r9d
d50e:	41 50                	push   r8
d510:	45 31 c0             	xor    r8d,r8d
d513:	48 8d 44 24 17       	lea    rax,[rsp+0x17]
d518:	50                   	push   rax
d519:	6a ff                	push   0xffffffffffffffff
d51b:	e8 10 e5 ff ff       	call   ba30 <__strftime_internal>
d520:	48 83 c4 20          	add    rsp,0x20
d524:	48 8b 54 24 08       	mov    rdx,QWORD PTR [rsp+0x8]
d529:	64 48 33 14 25 28 00 	xor    rdx,QWORD PTR fs:0x28
d530:	00 00
d532:	75 05                	jne    d539 <nstrftime+0x49>
d534:	48 83 c4 18          	add    rsp,0x18
d538:	c3                   	ret
d539:	e8 f2 52 ff ff       	call   2830 <__stack_chk_fail@plt>
d53e:	66 90                	xchg   ax,ax

000000000000d540 <rpl_fclose>:
d540:	41 54                	push   r12
d542:	55                   	push   rbp
d543:	53                   	push   rbx
d544:	48 89 fb             	mov    rbx,rdi
d547:	e8 54 54 ff ff       	call   29a0 <fileno@plt>
d54c:	85 c0                	test   eax,eax
d54e:	48 89 df             	mov    rdi,rbx
d551:	78 54                	js     d5a7 <rpl_fclose+0x67>
d553:	e8 b8 54 ff ff       	call   2a10 <__freading@plt>
d558:	85 c0                	test   eax,eax
d55a:	75 2c                	jne    d588 <rpl_fclose+0x48>
d55c:	48 89 df             	mov    rdi,rbx
d55f:	e8 5c 00 00 00       	call   d5c0 <rpl_fflush>
d564:	85 c0                	test   eax,eax
d566:	74 3c                	je     d5a4 <rpl_fclose+0x64>
d568:	e8 e3 51 ff ff       	call   2750 <__errno_location@plt>
d56d:	44 8b 20             	mov    r12d,DWORD PTR [rax]
d570:	48 89 df             	mov    rdi,rbx
d573:	48 89 c5             	mov    rbp,rax
d576:	e8 55 52 ff ff       	call   27d0 <fclose@plt>
d57b:	45 85 e4             	test   r12d,r12d
d57e:	75 30                	jne    d5b0 <rpl_fclose+0x70>
d580:	5b                   	pop    rbx
d581:	5d                   	pop    rbp
d582:	41 5c                	pop    r12
d584:	c3                   	ret
d585:	0f 1f 00             	nop    DWORD PTR [rax]
d588:	48 89 df             	mov    rdi,rbx
d58b:	e8 10 54 ff ff       	call   29a0 <fileno@plt>
d590:	31 f6                	xor    esi,esi
d592:	ba 01 00 00 00       	mov    edx,0x1
d597:	89 c7                	mov    edi,eax
d599:	e8 22 53 ff ff       	call   28c0 <lseek@plt>
d59e:	48 83 f8 ff          	cmp    rax,0xffffffffffffffff
d5a2:	75 b8                	jne    d55c <rpl_fclose+0x1c>
d5a4:	48 89 df             	mov    rdi,rbx
d5a7:	5b                   	pop    rbx
d5a8:	5d                   	pop    rbp
d5a9:	41 5c                	pop    r12
d5ab:	e9 20 52 ff ff       	jmp    27d0 <fclose@plt>
d5b0:	44 89 65 00          	mov    DWORD PTR [rbp+0x0],r12d
d5b4:	b8 ff ff ff ff       	mov    eax,0xffffffff
d5b9:	eb c5                	jmp    d580 <rpl_fclose+0x40>
d5bb:	0f 1f 44 00 00       	nop    DWORD PTR [rax+rax*1+0x0]

000000000000d5c0 <rpl_fflush>:
d5c0:	48 85 ff             	test   rdi,rdi
d5c3:	53                   	push   rbx
d5c4:	48 89 fb             	mov    rbx,rdi
d5c7:	74 11                	je     d5da <rpl_fflush+0x1a>
d5c9:	e8 42 54 ff ff       	call   2a10 <__freading@plt>
d5ce:	85 c0                	test   eax,eax
d5d0:	74 08                	je     d5da <rpl_fflush+0x1a>
d5d2:	f7 03 00 01 00 00    	test   DWORD PTR [rbx],0x100
d5d8:	75 0e                	jne    d5e8 <rpl_fflush+0x28>
d5da:	48 89 df             	mov    rdi,rbx
d5dd:	5b                   	pop    rbx
d5de:	e9 fd 53 ff ff       	jmp    29e0 <fflush@plt>
d5e3:	0f 1f 44 00 00       	nop    DWORD PTR [rax+rax*1+0x0]
d5e8:	48 89 df             	mov    rdi,rbx
d5eb:	ba 01 00 00 00       	mov    edx,0x1
d5f0:	31 f6                	xor    esi,esi
d5f2:	e8 09 00 00 00       	call   d600 <rpl_fseeko>
d5f7:	48 89 df             	mov    rdi,rbx
d5fa:	5b                   	pop    rbx
d5fb:	e9 e0 53 ff ff       	jmp    29e0 <fflush@plt>

000000000000d600 <rpl_fseeko>:
d600:	48 8b 47 08          	mov    rax,QWORD PTR [rdi+0x8]
d604:	48 39 47 10          	cmp    QWORD PTR [rdi+0x10],rax
d608:	74 06                	je     d610 <rpl_fseeko+0x10>
d60a:	e9 81 54 ff ff       	jmp    2a90 <fseeko@plt>
d60f:	90                   	nop
d610:	48 8b 47 20          	mov    rax,QWORD PTR [rdi+0x20]
d614:	48 39 47 28          	cmp    QWORD PTR [rdi+0x28],rax
d618:	75 f0                	jne    d60a <rpl_fseeko+0xa>
d61a:	48 83 7f 48 00       	cmp    QWORD PTR [rdi+0x48],0x0
d61f:	75 e9                	jne    d60a <rpl_fseeko+0xa>
d621:	41 54                	push   r12
d623:	55                   	push   rbp
d624:	41 89 d4             	mov    r12d,edx
d627:	53                   	push   rbx
d628:	48 89 f5             	mov    rbp,rsi
d62b:	48 89 fb             	mov    rbx,rdi
d62e:	e8 6d 53 ff ff       	call   29a0 <fileno@plt>
d633:	44 89 e2             	mov    edx,r12d
d636:	48 89 ee             	mov    rsi,rbp
d639:	89 c7                	mov    edi,eax
d63b:	e8 80 52 ff ff       	call   28c0 <lseek@plt>
d640:	48 83 f8 ff          	cmp    rax,0xffffffffffffffff
d644:	74 0c                	je     d652 <rpl_fseeko+0x52>
d646:	83 23 ef             	and    DWORD PTR [rbx],0xffffffef
d649:	48 89 83 90 00 00 00 	mov    QWORD PTR [rbx+0x90],rax
d650:	31 c0                	xor    eax,eax
d652:	5b                   	pop    rbx
d653:	5d                   	pop    rbp
d654:	41 5c                	pop    r12
d656:	c3                   	ret
d657:	66 0f 1f 84 00 00 00 	nop    WORD PTR [rax+rax*1+0x0]
d65e:	00 00

000000000000d660 <fseterr>:
d660:	83 0f 20             	or     DWORD PTR [rdi],0x20
d663:	c3                   	ret
d664:	66 2e 0f 1f 84 00 00 	nop    WORD PTR cs:[rax+rax*1+0x0]
d66b:	00 00 00
d66e:	66 90                	xchg   ax,ax

000000000000d670 <vasnprintf>:
d670:	55                   	push   rbp
d671:	48 89 e5             	mov    rbp,rsp
d674:	41 57                	push   r15
d676:	41 56                	push   r14
d678:	41 55                	push   r13
d67a:	41 54                	push   r12
d67c:	4c 8d b5 50 fc ff ff 	lea    r14,[rbp-0x3b0]
d683:	53                   	push   rbx
d684:	48 89 d3             	mov    rbx,rdx
d687:	49 89 cc             	mov    r12,rcx
d68a:	4c 89 f2             	mov    rdx,r14
d68d:	48 81 ec 08 04 00 00 	sub    rsp,0x408
d694:	48 89 b5 e8 fb ff ff 	mov    QWORD PTR [rbp-0x418],rsi
d69b:	48 8d b5 40 fd ff ff 	lea    rsi,[rbp-0x2c0]
d6a2:	48 89 bd 18 fc ff ff 	mov    QWORD PTR [rbp-0x3e8],rdi
d6a9:	48 89 df             	mov    rdi,rbx
d6ac:	4c 89 b5 f0 fb ff ff 	mov    QWORD PTR [rbp-0x410],r14
d6b3:	64 48 8b 04 25 28 00 	mov    rax,QWORD PTR fs:0x28
d6ba:	00 00
d6bc:	48 89 45 c8          	mov    QWORD PTR [rbp-0x38],rax
d6c0:	31 c0                	xor    eax,eax
d6c2:	48 89 b5 f8 fb ff ff 	mov    QWORD PTR [rbp-0x408],rsi
d6c9:	e8 c2 12 00 00       	call   e990 <printf_parse>
d6ce:	85 c0                	test   eax,eax
d6d0:	0f 88 62 0e 00 00    	js     e538 <vasnprintf+0xec8>
d6d6:	4c 89 f6             	mov    rsi,r14
d6d9:	4c 89 e7             	mov    rdi,r12
d6dc:	e8 af 10 00 00       	call   e790 <printf_fetchargs>
d6e1:	85 c0                	test   eax,eax
d6e3:	0f 88 b7 0e 00 00    	js     e5a0 <vasnprintf+0xf30>
d6e9:	48 8b 85 50 fd ff ff 	mov    rax,QWORD PTR [rbp-0x2b0]
d6f0:	48 c7 c2 ff ff ff ff 	mov    rdx,0xffffffffffffffff
d6f7:	48 83 c0 07          	add    rax,0x7
d6fb:	48 83 f8 06          	cmp    rax,0x6
d6ff:	48 0f 46 c2          	cmovbe rax,rdx
d703:	48 03 85 58 fd ff ff 	add    rax,QWORD PTR [rbp-0x2a8]
d70a:	0f 82 28 0a 00 00    	jb     e138 <vasnprintf+0xac8>
d710:	48 89 c7             	mov    rdi,rax
d713:	45 31 c0             	xor    r8d,r8d
d716:	48 83 c7 06          	add    rdi,0x6
d71a:	41 0f 92 c0          	setb   r8b
d71e:	0f 82 14 0a 00 00    	jb     e138 <vasnprintf+0xac8>
d724:	48 81 ff 9f 0f 00 00 	cmp    rdi,0xf9f
d72b:	0f 86 47 01 00 00    	jbe    d878 <vasnprintf+0x208>
d731:	48 83 ff ff          	cmp    rdi,0xffffffffffffffff
d735:	4c 89 85 38 fc ff ff 	mov    QWORD PTR [rbp-0x3c8],r8
d73c:	0f 84 f6 09 00 00    	je     e138 <vasnprintf+0xac8>
d742:	e8 89 52 ff ff       	call   29d0 <malloc@plt>
d747:	48 85 c0             	test   rax,rax
d74a:	48 89 85 28 fc ff ff 	mov    QWORD PTR [rbp-0x3d8],rax
d751:	0f 84 e1 09 00 00    	je     e138 <vasnprintf+0xac8>
d757:	4c 8b 85 38 fc ff ff 	mov    r8,QWORD PTR [rbp-0x3c8]
d75e:	48 89 85 e0 fb ff ff 	mov    QWORD PTR [rbp-0x420],rax
d765:	45 31 e4             	xor    r12d,r12d
d768:	48 83 bd 18 fc ff ff 	cmp    QWORD PTR [rbp-0x3e8],0x0
d76f:	00
d770:	74 0a                	je     d77c <vasnprintf+0x10c>
d772:	48 8b 85 e8 fb ff ff 	mov    rax,QWORD PTR [rbp-0x418]
d779:	4c 8b 20             	mov    r12,QWORD PTR [rax]
d77c:	4c 8b ad 48 fd ff ff 	mov    r13,QWORD PTR [rbp-0x2b8]
d783:	48 8d 85 44 fc ff ff 	lea    rax,[rbp-0x3bc]
d78a:	4c 8b bd 18 fc ff ff 	mov    r15,QWORD PTR [rbp-0x3e8]
d791:	48 c7 85 00 fc ff ff 	mov    QWORD PTR [rbp-0x400],0x0
d798:	00 00 00 00
d79c:	48 89 85 10 fc ff ff 	mov    QWORD PTR [rbp-0x3f0],rax
d7a3:	48 89 d8             	mov    rax,rbx
d7a6:	4c 89 c3             	mov    rbx,r8
d7a9:	49 8b 4d 00          	mov    rcx,QWORD PTR [r13+0x0]
d7ad:	49 89 c0             	mov    r8,rax
d7b0:	4c 39 c1             	cmp    rcx,r8
d7b3:	0f 84 68 09 00 00    	je     e121 <vasnprintf+0xab1>
d7b9:	4c 29 c1             	sub    rcx,r8
d7bc:	48 89 d8             	mov    rax,rbx
d7bf:	48 01 c8             	add    rax,rcx
d7c2:	49 89 c6             	mov    r14,rax
d7c5:	0f 83 dd 00 00 00    	jae    d8a8 <vasnprintf+0x238>
d7cb:	49 83 fc ff          	cmp    r12,0xffffffffffffffff
d7cf:	0f 84 cb 0a 00 00    	je     e2a0 <vasnprintf+0xc30>
d7d5:	e8 76 4f ff ff       	call   2750 <__errno_location@plt>
d7da:	48 89 85 38 fc ff ff 	mov    QWORD PTR [rbp-0x3c8],rax
d7e1:	4c 3b bd 18 fc ff ff 	cmp    r15,QWORD PTR [rbp-0x3e8]
d7e8:	74 09                	je     d7f3 <vasnprintf+0x183>
d7ea:	4d 85 ff             	test   r15,r15
d7ed:	0f 85 dd 0a 00 00    	jne    e2d0 <vasnprintf+0xc60>
d7f3:	48 8b 85 e0 fb ff ff 	mov    rax,QWORD PTR [rbp-0x420]
d7fa:	48 85 c0             	test   rax,rax
d7fd:	74 08                	je     d807 <vasnprintf+0x197>
d7ff:	48 89 c7             	mov    rdi,rax
d802:	e8 09 4f ff ff       	call   2710 <free@plt>
d807:	48 8b 85 f8 fb ff ff 	mov    rax,QWORD PTR [rbp-0x408]
d80e:	48 8b bd 48 fd ff ff 	mov    rdi,QWORD PTR [rbp-0x2b8]
d815:	48 83 c0 20          	add    rax,0x20
d819:	48 39 c7             	cmp    rdi,rax
d81c:	74 05                	je     d823 <vasnprintf+0x1b3>
d81e:	e8 ed 4e ff ff       	call   2710 <free@plt>
d823:	48 8b 85 f0 fb ff ff 	mov    rax,QWORD PTR [rbp-0x410]
d82a:	48 8b bd 58 fc ff ff 	mov    rdi,QWORD PTR [rbp-0x3a8]
d831:	48 83 c0 10          	add    rax,0x10
d835:	48 39 c7             	cmp    rdi,rax
d838:	74 05                	je     d83f <vasnprintf+0x1cf>
d83a:	e8 d1 4e ff ff       	call   2710 <free@plt>
d83f:	48 8b 85 38 fc ff ff 	mov    rax,QWORD PTR [rbp-0x3c8]
d846:	45 31 ff             	xor    r15d,r15d
d849:	c7 00 0c 00 00 00    	mov    DWORD PTR [rax],0xc
d84f:	48 8b 7d c8          	mov    rdi,QWORD PTR [rbp-0x38]
d853:	64 48 33 3c 25 28 00 	xor    rdi,QWORD PTR fs:0x28
d85a:	00 00
d85c:	4c 89 f8             	mov    rax,r15
d85f:	0f 85 02 0f 00 00    	jne    e767 <vasnprintf+0x10f7>
d865:	48 8d 65 d8          	lea    rsp,[rbp-0x28]
d869:	5b                   	pop    rbx
d86a:	41 5c                	pop    r12
d86c:	41 5d                	pop    r13
d86e:	41 5e                	pop    r14
d870:	41 5f                	pop    r15
d872:	5d                   	pop    rbp
d873:	c3                   	ret
d874:	0f 1f 40 00          	nop    DWORD PTR [rax+0x0]
d878:	48 83 c0 24          	add    rax,0x24
d87c:	48 c7 85 e0 fb ff ff 	mov    QWORD PTR [rbp-0x420],0x0
d883:	00 00 00 00
d887:	48 83 e0 f0          	and    rax,0xfffffffffffffff0
d88b:	48 29 c4             	sub    rsp,rax
d88e:	48 8d 44 24 0f       	lea    rax,[rsp+0xf]
d893:	48 83 e0 f0          	and    rax,0xfffffffffffffff0
d897:	48 89 85 28 fc ff ff 	mov    QWORD PTR [rbp-0x3d8],rax
d89e:	e9 c2 fe ff ff       	jmp    d765 <vasnprintf+0xf5>
d8a3:	0f 1f 44 00 00       	nop    DWORD PTR [rax+rax*1+0x0]
d8a8:	49 39 c4             	cmp    r12,rax
d8ab:	73 67                	jae    d914 <vasnprintf+0x2a4>
d8ad:	4d 85 e4             	test   r12,r12
d8b0:	0f 85 2a 09 00 00    	jne    e1e0 <vasnprintf+0xb70>
d8b6:	48 83 f8 0c          	cmp    rax,0xc
d8ba:	0f 87 32 09 00 00    	ja     e1f2 <vasnprintf+0xb82>
d8c0:	41 bc 0c 00 00 00    	mov    r12d,0xc
d8c6:	4c 3b bd 18 fc ff ff 	cmp    r15,QWORD PTR [rbp-0x3e8]
d8cd:	0f 94 c2             	sete   dl
d8d0:	4d 85 ff             	test   r15,r15
d8d3:	0f 84 3f 09 00 00    	je     e218 <vasnprintf+0xba8>
d8d9:	84 d2                	test   dl,dl
d8db:	0f 85 37 09 00 00    	jne    e218 <vasnprintf+0xba8>
d8e1:	4c 89 e6             	mov    rsi,r12
d8e4:	4c 89 ff             	mov    rdi,r15
d8e7:	4c 89 85 30 fc ff ff 	mov    QWORD PTR [rbp-0x3d0],r8
d8ee:	48 89 8d 38 fc ff ff 	mov    QWORD PTR [rbp-0x3c8],rcx
d8f5:	e8 26 51 ff ff       	call   2a20 <realloc@plt>
d8fa:	48 85 c0             	test   rax,rax
d8fd:	48 8b 8d 38 fc ff ff 	mov    rcx,QWORD PTR [rbp-0x3c8]
d904:	4c 8b 85 30 fc ff ff 	mov    r8,QWORD PTR [rbp-0x3d0]
d90b:	0f 84 aa 09 00 00    	je     e2bb <vasnprintf+0xc4b>
d911:	49 89 c7             	mov    r15,rax
d914:	49 8d 3c 1f          	lea    rdi,[r15+rbx*1]
d918:	48 89 ca             	mov    rdx,rcx
d91b:	4c 89 c6             	mov    rsi,r8
d91e:	e8 4d 50 ff ff       	call   2970 <memcpy@plt>
d923:	48 8b 85 00 fc ff ff 	mov    rax,QWORD PTR [rbp-0x400]
d92a:	48 39 85 40 fd ff ff 	cmp    QWORD PTR [rbp-0x2c0],rax
d931:	0f 84 b4 0c 00 00    	je     e5eb <vasnprintf+0xf7b>
d937:	41 0f b6 55 48       	movzx  edx,BYTE PTR [r13+0x48]
d93c:	49 8b 45 50          	mov    rax,QWORD PTR [r13+0x50]
d940:	80 fa 25             	cmp    dl,0x25
d943:	0f 84 8f 07 00 00    	je     e0d8 <vasnprintf+0xa68>
d949:	48 83 f8 ff          	cmp    rax,0xffffffffffffffff
d94d:	0f 84 43 0c 00 00    	je     e596 <vasnprintf+0xf26>
d953:	4c 8b 85 58 fc ff ff 	mov    r8,QWORD PTR [rbp-0x3a8]
d95a:	48 c1 e0 05          	shl    rax,0x5
d95e:	4c 01 c0             	add    rax,r8
d961:	80 fa 6e             	cmp    dl,0x6e
d964:	8b 38                	mov    edi,DWORD PTR [rax]
d966:	89 bd 30 fc ff ff    	mov    DWORD PTR [rbp-0x3d0],edi
d96c:	0f 84 de 07 00 00    	je     e150 <vasnprintf+0xae0>
d972:	41 8b 45 10          	mov    eax,DWORD PTR [r13+0x10]
d976:	48 8b bd 28 fc ff ff 	mov    rdi,QWORD PTR [rbp-0x3d8]
d97d:	a8 01                	test   al,0x1
d97f:	c6 07 25             	mov    BYTE PTR [rdi],0x25
d982:	48 8d 5f 01          	lea    rbx,[rdi+0x1]
d986:	74 0f                	je     d997 <vasnprintf+0x327>
d988:	48 8b bd 28 fc ff ff 	mov    rdi,QWORD PTR [rbp-0x3d8]
d98f:	48 8d 5f 02          	lea    rbx,[rdi+0x2]
d993:	c6 47 01 27          	mov    BYTE PTR [rdi+0x1],0x27
d997:	a8 02                	test   al,0x2
d999:	74 07                	je     d9a2 <vasnprintf+0x332>
d99b:	c6 03 2d             	mov    BYTE PTR [rbx],0x2d
d99e:	48 83 c3 01          	add    rbx,0x1
d9a2:	a8 04                	test   al,0x4
d9a4:	74 07                	je     d9ad <vasnprintf+0x33d>
d9a6:	c6 03 2b             	mov    BYTE PTR [rbx],0x2b
d9a9:	48 83 c3 01          	add    rbx,0x1
d9ad:	a8 08                	test   al,0x8
d9af:	74 07                	je     d9b8 <vasnprintf+0x348>
d9b1:	c6 03 20             	mov    BYTE PTR [rbx],0x20
d9b4:	48 83 c3 01          	add    rbx,0x1
d9b8:	a8 10                	test   al,0x10
d9ba:	74 07                	je     d9c3 <vasnprintf+0x353>
d9bc:	c6 03 23             	mov    BYTE PTR [rbx],0x23
d9bf:	48 83 c3 01          	add    rbx,0x1
d9c3:	a8 40                	test   al,0x40
d9c5:	74 07                	je     d9ce <vasnprintf+0x35e>
d9c7:	c6 03 49             	mov    BYTE PTR [rbx],0x49
d9ca:	48 83 c3 01          	add    rbx,0x1
d9ce:	a8 20                	test   al,0x20
d9d0:	74 07                	je     d9d9 <vasnprintf+0x369>
d9d2:	c6 03 30             	mov    BYTE PTR [rbx],0x30
d9d5:	48 83 c3 01          	add    rbx,0x1
d9d9:	49 8b 75 18          	mov    rsi,QWORD PTR [r13+0x18]
d9dd:	49 8b 55 20          	mov    rdx,QWORD PTR [r13+0x20]
d9e1:	48 39 d6             	cmp    rsi,rdx
d9e4:	74 30                	je     da16 <vasnprintf+0x3a6>
d9e6:	48 89 d1             	mov    rcx,rdx
d9e9:	48 89 df             	mov    rdi,rbx
d9ec:	4c 89 85 20 fc ff ff 	mov    QWORD PTR [rbp-0x3e0],r8
d9f3:	48 29 f1             	sub    rcx,rsi
d9f6:	48 89 ca             	mov    rdx,rcx
d9f9:	48 89 8d 38 fc ff ff 	mov    QWORD PTR [rbp-0x3c8],rcx
da00:	e8 6b 4f ff ff       	call   2970 <memcpy@plt>
da05:	48 8b 8d 38 fc ff ff 	mov    rcx,QWORD PTR [rbp-0x3c8]
da0c:	4c 8b 85 20 fc ff ff 	mov    r8,QWORD PTR [rbp-0x3e0]
da13:	48 01 cb             	add    rbx,rcx
da16:	49 8b 75 30          	mov    rsi,QWORD PTR [r13+0x30]
da1a:	49 8b 55 38          	mov    rdx,QWORD PTR [r13+0x38]
da1e:	48 39 d6             	cmp    rsi,rdx
da21:	74 30                	je     da53 <vasnprintf+0x3e3>
da23:	48 89 d1             	mov    rcx,rdx
da26:	48 89 df             	mov    rdi,rbx
da29:	4c 89 85 20 fc ff ff 	mov    QWORD PTR [rbp-0x3e0],r8
da30:	48 29 f1             	sub    rcx,rsi
da33:	48 89 ca             	mov    rdx,rcx
da36:	48 89 8d 38 fc ff ff 	mov    QWORD PTR [rbp-0x3c8],rcx
da3d:	e8 2e 4f ff ff       	call   2970 <memcpy@plt>
da42:	48 8b 8d 38 fc ff ff 	mov    rcx,QWORD PTR [rbp-0x3c8]
da49:	4c 8b 85 20 fc ff ff 	mov    r8,QWORD PTR [rbp-0x3e0]
da50:	48 01 cb             	add    rbx,rcx
da53:	8b bd 30 fc ff ff    	mov    edi,DWORD PTR [rbp-0x3d0]
da59:	83 ff 10             	cmp    edi,0x10
da5c:	77 2d                	ja     da8b <vasnprintf+0x41b>
da5e:	b8 01 00 00 00       	mov    eax,0x1
da63:	89 f9                	mov    ecx,edi
da65:	48 d3 e0             	shl    rax,cl
da68:	a9 80 41 01 00       	test   eax,0x14180
da6d:	75 15                	jne    da84 <vasnprintf+0x414>
da6f:	f6 c4 10             	test   ah,0x10
da72:	0f 85 58 09 00 00    	jne    e3d0 <vasnprintf+0xd60>
da78:	f6 c4 06             	test   ah,0x6
da7b:	74 0e                	je     da8b <vasnprintf+0x41b>
da7d:	c6 03 6c             	mov    BYTE PTR [rbx],0x6c
da80:	48 83 c3 01          	add    rbx,0x1
da84:	c6 03 6c             	mov    BYTE PTR [rbx],0x6c
da87:	48 83 c3 01          	add    rbx,0x1
da8b:	41 0f b6 45 48       	movzx  eax,BYTE PTR [r13+0x48]
da90:	c6 43 01 00          	mov    BYTE PTR [rbx+0x1],0x0
da94:	88 03                	mov    BYTE PTR [rbx],al
da96:	49 8b 45 28          	mov    rax,QWORD PTR [r13+0x28]
da9a:	48 83 f8 ff          	cmp    rax,0xffffffffffffffff
da9e:	0f 84 2c 07 00 00    	je     e1d0 <vasnprintf+0xb60>
daa4:	48 c1 e0 05          	shl    rax,0x5
daa8:	4c 01 c0             	add    rax,r8
daab:	83 38 05             	cmp    DWORD PTR [rax],0x5
daae:	0f 85 e2 0a 00 00    	jne    e596 <vasnprintf+0xf26>
dab4:	8b 40 10             	mov    eax,DWORD PTR [rax+0x10]
dab7:	c7 85 20 fc ff ff 01 	mov    DWORD PTR [rbp-0x3e0],0x1
dabe:	00 00 00
dac1:	89 85 48 fc ff ff    	mov    DWORD PTR [rbp-0x3b8],eax
dac7:	49 8b 45 40          	mov    rax,QWORD PTR [r13+0x40]
dacb:	48 83 f8 ff          	cmp    rax,0xffffffffffffffff
dacf:	74 2b                	je     dafc <vasnprintf+0x48c>
dad1:	48 c1 e0 05          	shl    rax,0x5
dad5:	49 01 c0             	add    r8,rax
dad8:	41 83 38 05          	cmp    DWORD PTR [r8],0x5
dadc:	0f 85 b4 0a 00 00    	jne    e596 <vasnprintf+0xf26>
dae2:	8b 85 20 fc ff ff    	mov    eax,DWORD PTR [rbp-0x3e0]
dae8:	41 8b 50 10          	mov    edx,DWORD PTR [r8+0x10]
daec:	89 94 85 48 fc ff ff 	mov    DWORD PTR [rbp+rax*4-0x3b8],edx
daf3:	8d 40 01             	lea    eax,[rax+0x1]
daf6:	89 85 20 fc ff ff    	mov    DWORD PTR [rbp-0x3e0],eax
dafc:	4c 89 f0             	mov    rax,r14
daff:	31 d2                	xor    edx,edx
db01:	48 83 c0 02          	add    rax,0x2
db05:	0f 82 61 0c 00 00    	jb     e76c <vasnprintf+0x10fc>
db0b:	49 39 c4             	cmp    r12,rax
db0e:	73 4b                	jae    db5b <vasnprintf+0x4eb>
db10:	4d 85 e4             	test   r12,r12
db13:	0f 85 1f 08 00 00    	jne    e338 <vasnprintf+0xcc8>
db19:	48 83 f8 0c          	cmp    rax,0xc
db1d:	0f 87 2d 08 00 00    	ja     e350 <vasnprintf+0xce0>
db23:	41 bc 0c 00 00 00    	mov    r12d,0xc
db29:	4c 3b bd 18 fc ff ff 	cmp    r15,QWORD PTR [rbp-0x3e8]
db30:	0f 94 c2             	sete   dl
db33:	4d 85 ff             	test   r15,r15
db36:	0f 84 44 08 00 00    	je     e380 <vasnprintf+0xd10>
db3c:	84 d2                	test   dl,dl
db3e:	0f 85 3c 08 00 00    	jne    e380 <vasnprintf+0xd10>
db44:	4c 89 e6             	mov    rsi,r12
db47:	4c 89 ff             	mov    rdi,r15
db4a:	e8 d1 4e ff ff       	call   2a20 <realloc@plt>
db4f:	48 85 c0             	test   rax,rax
db52:	0f 84 7d fc ff ff    	je     d7d5 <vasnprintf+0x165>
db58:	49 89 c7             	mov    r15,rax
db5b:	43 c6 04 37 00       	mov    BYTE PTR [r15+r14*1],0x0
db60:	e8 eb 4b ff ff       	call   2750 <__errno_location@plt>
db65:	48 89 85 38 fc ff ff 	mov    QWORD PTR [rbp-0x3c8],rax
db6c:	8b 00                	mov    eax,DWORD PTR [rax]
db6e:	48 89 9d 08 fc ff ff 	mov    QWORD PTR [rbp-0x3f8],rbx
db75:	89 85 dc fb ff ff    	mov    DWORD PTR [rbp-0x424],eax
db7b:	0f 1f 44 00 00       	nop    DWORD PTR [rax+rax*1+0x0]
db80:	48 8b 85 38 fc ff ff 	mov    rax,QWORD PTR [rbp-0x3c8]
db87:	4c 89 e3             	mov    rbx,r12
db8a:	41 ba ff ff ff 7f    	mov    r10d,0x7fffffff
db90:	4c 29 f3             	sub    rbx,r14
db93:	c7 85 44 fc ff ff ff 	mov    DWORD PTR [rbp-0x3bc],0xffffffff
db9a:	ff ff ff
db9d:	48 81 fb ff ff ff 7f 	cmp    rbx,0x7fffffff
dba4:	c7 00 00 00 00 00    	mov    DWORD PTR [rax],0x0
dbaa:	8b 85 30 fc ff ff    	mov    eax,DWORD PTR [rbp-0x3d0]
dbb0:	4c 0f 46 d3          	cmovbe r10,rbx
dbb4:	83 f8 11             	cmp    eax,0x11
dbb7:	0f 87 d9 09 00 00    	ja     e596 <vasnprintf+0xf26>
dbbd:	48 8d 35 ec 43 00 00 	lea    rsi,[rip+0x43ec]        # 11fb0 <version_etc_copyright+0x250>
dbc4:	48 63 04 86          	movsxd rax,DWORD PTR [rsi+rax*4]
dbc8:	48 01 f0             	add    rax,rsi
dbcb:	ff e0                	jmp    rax
dbcd:	0f 1f 00             	nop    DWORD PTR [rax]
dbd0:	49 8b 45 50          	mov    rax,QWORD PTR [r13+0x50]
dbd4:	4b 8d 3c 37          	lea    rdi,[r15+r14*1]
dbd8:	48 c1 e0 05          	shl    rax,0x5
dbdc:	48 03 85 58 fc ff ff 	add    rax,QWORD PTR [rbp-0x3a8]
dbe3:	4c 8b 48 10          	mov    r9,QWORD PTR [rax+0x10]
dbe7:	8b 85 20 fc ff ff    	mov    eax,DWORD PTR [rbp-0x3e0]
dbed:	83 f8 01             	cmp    eax,0x1
dbf0:	0f 84 c2 04 00 00    	je     e0b8 <vasnprintf+0xa48>
dbf6:	83 f8 02             	cmp    eax,0x2
dbf9:	0f 84 a1 04 00 00    	je     e0a0 <vasnprintf+0xa30>
dbff:	48 83 ec 08          	sub    rsp,0x8
dc03:	ff b5 10 fc ff ff    	push   QWORD PTR [rbp-0x3f0]
dc09:	4c 8b 85 28 fc ff ff 	mov    r8,QWORD PTR [rbp-0x3d8]
dc10:	4c 89 d6             	mov    rsi,r10
dc13:	48 c7 c1 ff ff ff ff 	mov    rcx,0xffffffffffffffff
dc1a:	ba 01 00 00 00       	mov    edx,0x1
dc1f:	31 c0                	xor    eax,eax
dc21:	4c 89 95 d0 fb ff ff 	mov    QWORD PTR [rbp-0x430],r10
dc28:	e8 d3 4a ff ff       	call   2700 <__snprintf_chk@plt>
dc2d:	5e                   	pop    rsi
dc2e:	5f                   	pop    rdi
dc2f:	4c 8b 95 d0 fb ff ff 	mov    r10,QWORD PTR [rbp-0x430]
dc36:	8b 8d 44 fc ff ff    	mov    ecx,DWORD PTR [rbp-0x3bc]
dc3c:	85 c9                	test   ecx,ecx
dc3e:	0f 88 38 01 00 00    	js     dd7c <vasnprintf+0x70c>
dc44:	48 63 d1             	movsxd rdx,ecx
dc47:	4c 39 d2             	cmp    rdx,r10
dc4a:	73 0e                	jae    dc5a <vasnprintf+0x5ea>
dc4c:	4c 01 fa             	add    rdx,r15
dc4f:	42 80 3c 32 00       	cmp    BYTE PTR [rdx+r14*1],0x0
dc54:	0f 85 3c 09 00 00    	jne    e596 <vasnprintf+0xf26>
dc5a:	39 c1                	cmp    ecx,eax
dc5c:	7d 08                	jge    dc66 <vasnprintf+0x5f6>
dc5e:	89 85 44 fc ff ff    	mov    DWORD PTR [rbp-0x3bc],eax
dc64:	89 c1                	mov    ecx,eax
dc66:	8d 41 01             	lea    eax,[rcx+0x1]
dc69:	4c 39 d0             	cmp    rax,r10
dc6c:	0f 82 2e 08 00 00    	jb     e4a0 <vasnprintf+0xe30>
dc72:	48 81 fb fe ff ff 7f 	cmp    rbx,0x7ffffffe
dc79:	0f 87 41 08 00 00    	ja     e4c0 <vasnprintf+0xe50>
dc7f:	4b 8d 34 24          	lea    rsi,[r12+r12*1]
dc83:	8d 51 02             	lea    edx,[rcx+0x2]
dc86:	4d 85 e4             	test   r12,r12
dc89:	48 c7 c0 ff ff ff ff 	mov    rax,0xffffffffffffffff
dc90:	48 0f 49 c6          	cmovns rax,rsi
dc94:	4c 01 f2             	add    rdx,r14
dc97:	0f 82 bb 0a 00 00    	jb     e758 <vasnprintf+0x10e8>
dc9d:	48 39 d0             	cmp    rax,rdx
dca0:	48 0f 42 c2          	cmovb  rax,rdx
dca4:	49 39 c4             	cmp    r12,rax
dca7:	0f 83 d3 fe ff ff    	jae    db80 <vasnprintf+0x510>
dcad:	4d 85 e4             	test   r12,r12
dcb0:	0f 88 2b fb ff ff    	js     d7e1 <vasnprintf+0x171>
dcb6:	48 39 c6             	cmp    rsi,rax
dcb9:	49 89 f4             	mov    r12,rsi
dcbc:	73 0d                	jae    dccb <vasnprintf+0x65b>
dcbe:	48 83 f8 ff          	cmp    rax,0xffffffffffffffff
dcc2:	0f 84 19 fb ff ff    	je     d7e1 <vasnprintf+0x171>
dcc8:	49 89 c4             	mov    r12,rax
dccb:	4c 3b bd 18 fc ff ff 	cmp    r15,QWORD PTR [rbp-0x3e8]
dcd2:	0f 94 c3             	sete   bl
dcd5:	4d 85 ff             	test   r15,r15
dcd8:	0f 84 82 03 00 00    	je     e060 <vasnprintf+0x9f0>
dcde:	84 db                	test   bl,bl
dce0:	0f 85 7a 03 00 00    	jne    e060 <vasnprintf+0x9f0>
dce6:	4c 89 e6             	mov    rsi,r12
dce9:	4c 89 ff             	mov    rdi,r15
dcec:	e8 2f 4d ff ff       	call   2a20 <realloc@plt>
dcf1:	48 85 c0             	test   rax,rax
dcf4:	0f 84 e7 fa ff ff    	je     d7e1 <vasnprintf+0x171>
dcfa:	49 89 c7             	mov    r15,rax
dcfd:	e9 7e fe ff ff       	jmp    db80 <vasnprintf+0x510>
dd02:	66 0f 1f 44 00 00    	nop    WORD PTR [rax+rax*1+0x0]
dd08:	49 8b 45 50          	mov    rax,QWORD PTR [r13+0x50]
dd0c:	4b 8d 3c 37          	lea    rdi,[r15+r14*1]
dd10:	48 c1 e0 05          	shl    rax,0x5
dd14:	48 03 85 58 fc ff ff 	add    rax,QWORD PTR [rbp-0x3a8]
dd1b:	44 8b 48 10          	mov    r9d,DWORD PTR [rax+0x10]
dd1f:	8b 85 20 fc ff ff    	mov    eax,DWORD PTR [rbp-0x3e0]
dd25:	83 f8 01             	cmp    eax,0x1
dd28:	0f 84 32 02 00 00    	je     df60 <vasnprintf+0x8f0>
dd2e:	83 f8 02             	cmp    eax,0x2
dd31:	0f 84 71 02 00 00    	je     dfa8 <vasnprintf+0x938>
dd37:	48 83 ec 08          	sub    rsp,0x8
dd3b:	ff b5 10 fc ff ff    	push   QWORD PTR [rbp-0x3f0]
dd41:	4c 8b 85 28 fc ff ff 	mov    r8,QWORD PTR [rbp-0x3d8]
dd48:	48 c7 c1 ff ff ff ff 	mov    rcx,0xffffffffffffffff
dd4f:	ba 01 00 00 00       	mov    edx,0x1
dd54:	4c 89 d6             	mov    rsi,r10
dd57:	31 c0                	xor    eax,eax
dd59:	4c 89 95 d0 fb ff ff 	mov    QWORD PTR [rbp-0x430],r10
dd60:	e8 9b 49 ff ff       	call   2700 <__snprintf_chk@plt>
dd65:	5a                   	pop    rdx
dd66:	59                   	pop    rcx
dd67:	8b 8d 44 fc ff ff    	mov    ecx,DWORD PTR [rbp-0x3bc]
dd6d:	4c 8b 95 d0 fb ff ff 	mov    r10,QWORD PTR [rbp-0x430]
dd74:	85 c9                	test   ecx,ecx
dd76:	0f 89 c8 fe ff ff    	jns    dc44 <vasnprintf+0x5d4>
dd7c:	48 8b bd 08 fc ff ff 	mov    rdi,QWORD PTR [rbp-0x3f8]
dd83:	80 7f 01 00          	cmp    BYTE PTR [rdi+0x1],0x0
dd87:	0f 85 3b 03 00 00    	jne    e0c8 <vasnprintf+0xa58>
dd8d:	85 c0                	test   eax,eax
dd8f:	0f 89 c9 fe ff ff    	jns    dc5e <vasnprintf+0x5ee>
dd95:	48 8b 85 38 fc ff ff 	mov    rax,QWORD PTR [rbp-0x3c8]
dd9c:	8b 18                	mov    ebx,DWORD PTR [rax]
dd9e:	85 db                	test   ebx,ebx
dda0:	75 1e                	jne    ddc0 <vasnprintf+0x750>
dda2:	41 0f b6 45 48       	movzx  eax,BYTE PTR [r13+0x48]
dda7:	bb 16 00 00 00       	mov    ebx,0x16
ddac:	83 e0 ef             	and    eax,0xffffffef
ddaf:	3c 63                	cmp    al,0x63
ddb1:	b8 54 00 00 00       	mov    eax,0x54
ddb6:	0f 44 d8             	cmove  ebx,eax
ddb9:	0f 1f 80 00 00 00 00 	nop    DWORD PTR [rax+0x0]
ddc0:	4c 3b bd 18 fc ff ff 	cmp    r15,QWORD PTR [rbp-0x3e8]
ddc7:	74 09                	je     ddd2 <vasnprintf+0x762>
ddc9:	4d 85 ff             	test   r15,r15
ddcc:	0f 85 aa 07 00 00    	jne    e57c <vasnprintf+0xf0c>
ddd2:	48 8b 85 e0 fb ff ff 	mov    rax,QWORD PTR [rbp-0x420]
ddd9:	48 85 c0             	test   rax,rax
dddc:	74 08                	je     dde6 <vasnprintf+0x776>
ddde:	48 89 c7             	mov    rdi,rax
dde1:	e8 2a 49 ff ff       	call   2710 <free@plt>
dde6:	48 8b 85 f8 fb ff ff 	mov    rax,QWORD PTR [rbp-0x408]
dded:	48 8b bd 48 fd ff ff 	mov    rdi,QWORD PTR [rbp-0x2b8]
ddf4:	48 83 c0 20          	add    rax,0x20
ddf8:	48 39 c7             	cmp    rdi,rax
ddfb:	74 05                	je     de02 <vasnprintf+0x792>
ddfd:	e8 0e 49 ff ff       	call   2710 <free@plt>
de02:	48 8b 85 f0 fb ff ff 	mov    rax,QWORD PTR [rbp-0x410]
de09:	48 8b bd 58 fc ff ff 	mov    rdi,QWORD PTR [rbp-0x3a8]
de10:	48 83 c0 10          	add    rax,0x10
de14:	48 39 c7             	cmp    rdi,rax
de17:	74 05                	je     de1e <vasnprintf+0x7ae>
de19:	e8 f2 48 ff ff       	call   2710 <free@plt>
de1e:	48 8b 85 38 fc ff ff 	mov    rax,QWORD PTR [rbp-0x3c8]
de25:	45 31 ff             	xor    r15d,r15d
de28:	89 18                	mov    DWORD PTR [rax],ebx
de2a:	e9 20 fa ff ff       	jmp    d84f <vasnprintf+0x1df>
de2f:	90                   	nop
de30:	49 8b 45 50          	mov    rax,QWORD PTR [r13+0x50]
de34:	4b 8d 3c 37          	lea    rdi,[r15+r14*1]
de38:	48 c1 e0 05          	shl    rax,0x5
de3c:	48 03 85 58 fc ff ff 	add    rax,QWORD PTR [rbp-0x3a8]
de43:	db 68 10             	fld    TBYTE PTR [rax+0x10]
de46:	8b 85 20 fc ff ff    	mov    eax,DWORD PTR [rbp-0x3e0]
de4c:	83 f8 01             	cmp    eax,0x1
de4f:	0f 84 2b 06 00 00    	je     e480 <vasnprintf+0xe10>
de55:	83 f8 02             	cmp    eax,0x2
de58:	0f 85 c2 04 00 00    	jne    e320 <vasnprintf+0xcb0>
de5e:	8b 85 4c fc ff ff    	mov    eax,DWORD PTR [rbp-0x3b4]
de64:	48 83 ec 08          	sub    rsp,0x8
de68:	ff b5 10 fc ff ff    	push   QWORD PTR [rbp-0x3f0]
de6e:	44 8b 8d 48 fc ff ff 	mov    r9d,DWORD PTR [rbp-0x3b8]
de75:	4c 8b 85 28 fc ff ff 	mov    r8,QWORD PTR [rbp-0x3d8]
de7c:	4c 89 d6             	mov    rsi,r10
de7f:	48 83 ec 18          	sub    rsp,0x18
de83:	48 c7 c1 ff ff ff ff 	mov    rcx,0xffffffffffffffff
de8a:	ba 01 00 00 00       	mov    edx,0x1
de8f:	db 7c 24 08          	fstp   TBYTE PTR [rsp+0x8]
de93:	50                   	push   rax
de94:	31 c0                	xor    eax,eax
de96:	4c 89 95 d0 fb ff ff 	mov    QWORD PTR [rbp-0x430],r10
de9d:	e8 5e 48 ff ff       	call   2700 <__snprintf_chk@plt>
dea2:	48 83 c4 30          	add    rsp,0x30
dea6:	4c 8b 95 d0 fb ff ff 	mov    r10,QWORD PTR [rbp-0x430]
dead:	e9 84 fd ff ff       	jmp    dc36 <vasnprintf+0x5c6>
deb2:	66 0f 1f 44 00 00    	nop    WORD PTR [rax+rax*1+0x0]
deb8:	49 8b 45 50          	mov    rax,QWORD PTR [r13+0x50]
debc:	4b 8d 3c 37          	lea    rdi,[r15+r14*1]
dec0:	48 c1 e0 05          	shl    rax,0x5
dec4:	48 03 85 58 fc ff ff 	add    rax,QWORD PTR [rbp-0x3a8]
decb:	f2 0f 10 40 10       	movsd  xmm0,QWORD PTR [rax+0x10]
ded0:	8b 85 20 fc ff ff    	mov    eax,DWORD PTR [rbp-0x3e0]
ded6:	83 f8 01             	cmp    eax,0x1
ded9:	0f 84 91 05 00 00    	je     e470 <vasnprintf+0xe00>
dedf:	83 f8 02             	cmp    eax,0x2
dee2:	0f 85 f8 03 00 00    	jne    e2e0 <vasnprintf+0xc70>
dee8:	8b 85 4c fc ff ff    	mov    eax,DWORD PTR [rbp-0x3b4]
deee:	ff b5 10 fc ff ff    	push   QWORD PTR [rbp-0x3f0]
def4:	50                   	push   rax
def5:	44 8b 8d 48 fc ff ff 	mov    r9d,DWORD PTR [rbp-0x3b8]
defc:	4c 8b 85 28 fc ff ff 	mov    r8,QWORD PTR [rbp-0x3d8]
df03:	4c 89 d6             	mov    rsi,r10
df06:	48 c7 c1 ff ff ff ff 	mov    rcx,0xffffffffffffffff
df0d:	ba 01 00 00 00       	mov    edx,0x1
df12:	b8 01 00 00 00       	mov    eax,0x1
df17:	4c 89 95 d0 fb ff ff 	mov    QWORD PTR [rbp-0x430],r10
df1e:	e8 dd 47 ff ff       	call   2700 <__snprintf_chk@plt>
df23:	41 58                	pop    r8
df25:	4c 8b 95 d0 fb ff ff 	mov    r10,QWORD PTR [rbp-0x430]
df2c:	41 59                	pop    r9
df2e:	e9 03 fd ff ff       	jmp    dc36 <vasnprintf+0x5c6>
df33:	0f 1f 44 00 00       	nop    DWORD PTR [rax+rax*1+0x0]
df38:	49 8b 45 50          	mov    rax,QWORD PTR [r13+0x50]
df3c:	4b 8d 3c 37          	lea    rdi,[r15+r14*1]
df40:	48 c1 e0 05          	shl    rax,0x5
df44:	48 03 85 58 fc ff ff 	add    rax,QWORD PTR [rbp-0x3a8]
df4b:	44 0f b7 48 10       	movzx  r9d,WORD PTR [rax+0x10]
df50:	8b 85 20 fc ff ff    	mov    eax,DWORD PTR [rbp-0x3e0]
df56:	83 f8 01             	cmp    eax,0x1
df59:	0f 85 cf fd ff ff    	jne    dd2e <vasnprintf+0x6be>
df5f:	90                   	nop
df60:	ff b5 10 fc ff ff    	push   QWORD PTR [rbp-0x3f0]
df66:	41 51                	push   r9
df68:	44 8b 8d 48 fc ff ff 	mov    r9d,DWORD PTR [rbp-0x3b8]
df6f:	e9 cd fd ff ff       	jmp    dd41 <vasnprintf+0x6d1>
df74:	0f 1f 40 00          	nop    DWORD PTR [rax+0x0]
df78:	49 8b 45 50          	mov    rax,QWORD PTR [r13+0x50]
df7c:	4b 8d 3c 37          	lea    rdi,[r15+r14*1]
df80:	48 c1 e0 05          	shl    rax,0x5
df84:	48 03 85 58 fc ff ff 	add    rax,QWORD PTR [rbp-0x3a8]
df8b:	44 0f bf 48 10       	movsx  r9d,WORD PTR [rax+0x10]
df90:	8b 85 20 fc ff ff    	mov    eax,DWORD PTR [rbp-0x3e0]
df96:	83 f8 01             	cmp    eax,0x1
df99:	74 c5                	je     df60 <vasnprintf+0x8f0>
df9b:	83 f8 02             	cmp    eax,0x2
df9e:	0f 85 93 fd ff ff    	jne    dd37 <vasnprintf+0x6c7>
dfa4:	0f 1f 40 00          	nop    DWORD PTR [rax+0x0]
dfa8:	48 83 ec 08          	sub    rsp,0x8
dfac:	ff b5 10 fc ff ff    	push   QWORD PTR [rbp-0x3f0]
dfb2:	41 51                	push   r9
dfb4:	8b 85 4c fc ff ff    	mov    eax,DWORD PTR [rbp-0x3b4]
dfba:	50                   	push   rax
dfbb:	44 8b 8d 48 fc ff ff 	mov    r9d,DWORD PTR [rbp-0x3b8]
dfc2:	4c 8b 85 28 fc ff ff 	mov    r8,QWORD PTR [rbp-0x3d8]
dfc9:	4c 89 d6             	mov    rsi,r10
dfcc:	48 c7 c1 ff ff ff ff 	mov    rcx,0xffffffffffffffff
dfd3:	ba 01 00 00 00       	mov    edx,0x1
dfd8:	31 c0                	xor    eax,eax
dfda:	4c 89 95 d0 fb ff ff 	mov    QWORD PTR [rbp-0x430],r10
dfe1:	e8 1a 47 ff ff       	call   2700 <__snprintf_chk@plt>
dfe6:	48 83 c4 20          	add    rsp,0x20
dfea:	4c 8b 95 d0 fb ff ff 	mov    r10,QWORD PTR [rbp-0x430]
dff1:	e9 40 fc ff ff       	jmp    dc36 <vasnprintf+0x5c6>
dff6:	66 2e 0f 1f 84 00 00 	nop    WORD PTR cs:[rax+rax*1+0x0]
dffd:	00 00 00
e000:	49 8b 45 50          	mov    rax,QWORD PTR [r13+0x50]
e004:	4b 8d 3c 37          	lea    rdi,[r15+r14*1]
e008:	48 c1 e0 05          	shl    rax,0x5
e00c:	48 03 85 58 fc ff ff 	add    rax,QWORD PTR [rbp-0x3a8]
e013:	44 0f b6 48 10       	movzx  r9d,BYTE PTR [rax+0x10]
e018:	8b 85 20 fc ff ff    	mov    eax,DWORD PTR [rbp-0x3e0]
e01e:	83 f8 01             	cmp    eax,0x1
e021:	0f 85 07 fd ff ff    	jne    dd2e <vasnprintf+0x6be>
e027:	e9 34 ff ff ff       	jmp    df60 <vasnprintf+0x8f0>
e02c:	0f 1f 40 00          	nop    DWORD PTR [rax+0x0]
e030:	49 8b 45 50          	mov    rax,QWORD PTR [r13+0x50]
e034:	4b 8d 3c 37          	lea    rdi,[r15+r14*1]
e038:	48 c1 e0 05          	shl    rax,0x5
e03c:	48 03 85 58 fc ff ff 	add    rax,QWORD PTR [rbp-0x3a8]
e043:	44 0f be 48 10       	movsx  r9d,BYTE PTR [rax+0x10]
e048:	8b 85 20 fc ff ff    	mov    eax,DWORD PTR [rbp-0x3e0]
e04e:	83 f8 01             	cmp    eax,0x1
e051:	0f 85 d7 fc ff ff    	jne    dd2e <vasnprintf+0x6be>
e057:	e9 04 ff ff ff       	jmp    df60 <vasnprintf+0x8f0>
e05c:	0f 1f 40 00          	nop    DWORD PTR [rax+0x0]
e060:	4c 89 e7             	mov    rdi,r12
e063:	e8 68 49 ff ff       	call   29d0 <malloc@plt>
e068:	48 85 c0             	test   rax,rax
e06b:	48 89 c1             	mov    rcx,rax
e06e:	0f 84 6d f7 ff ff    	je     d7e1 <vasnprintf+0x171>
e074:	4d 85 f6             	test   r14,r14
e077:	0f 84 b3 00 00 00    	je     e130 <vasnprintf+0xac0>
e07d:	84 db                	test   bl,bl
e07f:	0f 84 ab 00 00 00    	je     e130 <vasnprintf+0xac0>
e085:	4c 89 fe             	mov    rsi,r15
e088:	4c 89 f2             	mov    rdx,r14
e08b:	48 89 c7             	mov    rdi,rax
e08e:	e8 dd 48 ff ff       	call   2970 <memcpy@plt>
e093:	49 89 c7             	mov    r15,rax
e096:	e9 e5 fa ff ff       	jmp    db80 <vasnprintf+0x510>
e09b:	0f 1f 44 00 00       	nop    DWORD PTR [rax+rax*1+0x0]
e0a0:	48 83 ec 08          	sub    rsp,0x8
e0a4:	ff b5 10 fc ff ff    	push   QWORD PTR [rbp-0x3f0]
e0aa:	41 51                	push   r9
e0ac:	e9 03 ff ff ff       	jmp    dfb4 <vasnprintf+0x944>
e0b1:	0f 1f 80 00 00 00 00 	nop    DWORD PTR [rax+0x0]
e0b8:	ff b5 10 fc ff ff    	push   QWORD PTR [rbp-0x3f0]
e0be:	41 51                	push   r9
e0c0:	e9 a3 fe ff ff       	jmp    df68 <vasnprintf+0x8f8>
e0c5:	0f 1f 00             	nop    DWORD PTR [rax]
e0c8:	c6 47 01 00          	mov    BYTE PTR [rdi+0x1],0x0
e0cc:	e9 af fa ff ff       	jmp    db80 <vasnprintf+0x510>
e0d1:	0f 1f 80 00 00 00 00 	nop    DWORD PTR [rax+0x0]
e0d8:	48 83 f8 ff          	cmp    rax,0xffffffffffffffff
e0dc:	0f 85 b4 04 00 00    	jne    e596 <vasnprintf+0xf26>
e0e2:	4c 89 f0             	mov    rax,r14
e0e5:	48 83 c0 01          	add    rax,0x1
e0e9:	48 89 c3             	mov    rbx,rax
e0ec:	0f 83 86 00 00 00    	jae    e178 <vasnprintf+0xb08>
e0f2:	49 83 fc ff          	cmp    r12,0xffffffffffffffff
e0f6:	0f 85 d9 f6 ff ff    	jne    d7d5 <vasnprintf+0x165>
e0fc:	4c 89 e3             	mov    rbx,r12
e0ff:	43 c6 04 37 25       	mov    BYTE PTR [r15+r14*1],0x25
e104:	4d 8b 45 08          	mov    r8,QWORD PTR [r13+0x8]
e108:	49 83 c5 58          	add    r13,0x58
e10c:	49 8b 4d 00          	mov    rcx,QWORD PTR [r13+0x0]
e110:	48 83 85 00 fc ff ff 	add    QWORD PTR [rbp-0x400],0x1
e117:	01
e118:	4c 39 c1             	cmp    rcx,r8
e11b:	0f 85 98 f6 ff ff    	jne    d7b9 <vasnprintf+0x149>
e121:	49 89 de             	mov    r14,rbx
e124:	e9 fa f7 ff ff       	jmp    d923 <vasnprintf+0x2b3>
e129:	0f 1f 80 00 00 00 00 	nop    DWORD PTR [rax+0x0]
e130:	49 89 cf             	mov    r15,rcx
e133:	e9 48 fa ff ff       	jmp    db80 <vasnprintf+0x510>
e138:	e8 13 46 ff ff       	call   2750 <__errno_location@plt>
e13d:	48 89 85 38 fc ff ff 	mov    QWORD PTR [rbp-0x3c8],rax
e144:	e9 be f6 ff ff       	jmp    d807 <vasnprintf+0x197>
e149:	0f 1f 80 00 00 00 00 	nop    DWORD PTR [rax+0x0]
e150:	89 fa                	mov    edx,edi
e152:	83 ea 12             	sub    edx,0x12
e155:	83 fa 04             	cmp    edx,0x4
e158:	0f 87 38 04 00 00    	ja     e596 <vasnprintf+0xf26>
e15e:	48 8d 3d 93 3e 00 00 	lea    rdi,[rip+0x3e93]        # 11ff8 <version_etc_copyright+0x298>
e165:	48 8b 40 10          	mov    rax,QWORD PTR [rax+0x10]
e169:	48 63 14 97          	movsxd rdx,DWORD PTR [rdi+rdx*4]
e16d:	48 01 fa             	add    rdx,rdi
e170:	ff e2                	jmp    rdx
e172:	66 0f 1f 44 00 00    	nop    WORD PTR [rax+rax*1+0x0]
e178:	49 39 c4             	cmp    r12,rax
e17b:	73 82                	jae    e0ff <vasnprintf+0xa8f>
e17d:	4d 85 e4             	test   r12,r12
e180:	0f 85 ca 03 00 00    	jne    e550 <vasnprintf+0xee0>
e186:	48 83 f8 0c          	cmp    rax,0xc
e18a:	0f 87 d2 03 00 00    	ja     e562 <vasnprintf+0xef2>
e190:	41 bc 0c 00 00 00    	mov    r12d,0xc
e196:	4c 3b bd 18 fc ff ff 	cmp    r15,QWORD PTR [rbp-0x3e8]
e19d:	0f 94 c2             	sete   dl
e1a0:	4d 85 ff             	test   r15,r15
e1a3:	0f 84 67 02 00 00    	je     e410 <vasnprintf+0xda0>
e1a9:	84 d2                	test   dl,dl
e1ab:	0f 85 5f 02 00 00    	jne    e410 <vasnprintf+0xda0>
e1b1:	4c 89 e6             	mov    rsi,r12
e1b4:	4c 89 ff             	mov    rdi,r15
e1b7:	e8 64 48 ff ff       	call   2a20 <realloc@plt>
e1bc:	48 85 c0             	test   rax,rax
e1bf:	0f 84 f6 00 00 00    	je     e2bb <vasnprintf+0xc4b>
e1c5:	49 89 c7             	mov    r15,rax
e1c8:	e9 32 ff ff ff       	jmp    e0ff <vasnprintf+0xa8f>
e1cd:	0f 1f 00             	nop    DWORD PTR [rax]
e1d0:	c7 85 20 fc ff ff 00 	mov    DWORD PTR [rbp-0x3e0],0x0
e1d7:	00 00 00
e1da:	e9 e8 f8 ff ff       	jmp    dac7 <vasnprintf+0x457>
e1df:	90                   	nop
e1e0:	0f 88 ef f5 ff ff    	js     d7d5 <vasnprintf+0x165>
e1e6:	4d 01 e4             	add    r12,r12
e1e9:	49 39 c4             	cmp    r12,rax
e1ec:	0f 83 d4 f6 ff ff    	jae    d8c6 <vasnprintf+0x256>
e1f2:	48 83 f8 ff          	cmp    rax,0xffffffffffffffff
e1f6:	0f 84 d9 f5 ff ff    	je     d7d5 <vasnprintf+0x165>
e1fc:	4c 3b bd 18 fc ff ff 	cmp    r15,QWORD PTR [rbp-0x3e8]
e203:	49 89 c4             	mov    r12,rax
e206:	0f 94 c2             	sete   dl
e209:	4d 85 ff             	test   r15,r15
e20c:	0f 85 c7 f6 ff ff    	jne    d8d9 <vasnprintf+0x269>
e212:	66 0f 1f 44 00 00    	nop    WORD PTR [rax+rax*1+0x0]
e218:	4c 89 e7             	mov    rdi,r12
e21b:	4c 89 85 20 fc ff ff 	mov    QWORD PTR [rbp-0x3e0],r8
e222:	88 95 30 fc ff ff    	mov    BYTE PTR [rbp-0x3d0],dl
e228:	48 89 8d 38 fc ff ff 	mov    QWORD PTR [rbp-0x3c8],rcx
e22f:	e8 9c 47 ff ff       	call   29d0 <malloc@plt>
e234:	48 85 c0             	test   rax,rax
e237:	49 89 c1             	mov    r9,rax
e23a:	48 8b 8d 38 fc ff ff 	mov    rcx,QWORD PTR [rbp-0x3c8]
e241:	0f b6 95 30 fc ff ff 	movzx  edx,BYTE PTR [rbp-0x3d0]
e248:	4c 8b 85 20 fc ff ff 	mov    r8,QWORD PTR [rbp-0x3e0]
e24f:	0f 84 80 f5 ff ff    	je     d7d5 <vasnprintf+0x165>
e255:	48 85 db             	test   rbx,rbx
e258:	0f 84 02 02 00 00    	je     e460 <vasnprintf+0xdf0>
e25e:	84 d2                	test   dl,dl
e260:	0f 84 fa 01 00 00    	je     e460 <vasnprintf+0xdf0>
e266:	4c 89 fe             	mov    rsi,r15
e269:	48 89 da             	mov    rdx,rbx
e26c:	48 89 c7             	mov    rdi,rax
e26f:	4c 89 85 30 fc ff ff 	mov    QWORD PTR [rbp-0x3d0],r8
e276:	48 89 8d 38 fc ff ff 	mov    QWORD PTR [rbp-0x3c8],rcx
e27d:	e8 ee 46 ff ff       	call   2970 <memcpy@plt>
e282:	48 8b 8d 38 fc ff ff 	mov    rcx,QWORD PTR [rbp-0x3c8]
e289:	49 89 c7             	mov    r15,rax
e28c:	4c 8b 85 30 fc ff ff 	mov    r8,QWORD PTR [rbp-0x3d0]
e293:	e9 7c f6 ff ff       	jmp    d914 <vasnprintf+0x2a4>
e298:	0f 1f 84 00 00 00 00 	nop    DWORD PTR [rax+rax*1+0x0]
e29f:	00
e2a0:	4d 89 e6             	mov    r14,r12
e2a3:	e9 6c f6 ff ff       	jmp    d914 <vasnprintf+0x2a4>
e2a8:	0f 1f 84 00 00 00 00 	nop    DWORD PTR [rax+rax*1+0x0]
e2af:	00
e2b0:	4c 89 30             	mov    QWORD PTR [rax],r14
e2b3:	4c 89 f3             	mov    rbx,r14
e2b6:	e9 49 fe ff ff       	jmp    e104 <vasnprintf+0xa94>
e2bb:	e8 90 44 ff ff       	call   2750 <__errno_location@plt>
e2c0:	48 89 85 38 fc ff ff 	mov    QWORD PTR [rbp-0x3c8],rax
e2c7:	66 0f 1f 84 00 00 00 	nop    WORD PTR [rax+rax*1+0x0]
e2ce:	00 00
e2d0:	4c 89 ff             	mov    rdi,r15
e2d3:	e8 38 44 ff ff       	call   2710 <free@plt>
e2d8:	e9 16 f5 ff ff       	jmp    d7f3 <vasnprintf+0x183>
e2dd:	0f 1f 00             	nop    DWORD PTR [rax]
e2e0:	4c 8b 8d 10 fc ff ff 	mov    r9,QWORD PTR [rbp-0x3f0]
e2e7:	4c 8b 85 28 fc ff ff 	mov    r8,QWORD PTR [rbp-0x3d8]
e2ee:	4c 89 d6             	mov    rsi,r10
e2f1:	48 c7 c1 ff ff ff ff 	mov    rcx,0xffffffffffffffff
e2f8:	ba 01 00 00 00       	mov    edx,0x1
e2fd:	b8 01 00 00 00       	mov    eax,0x1
e302:	4c 89 95 d0 fb ff ff 	mov    QWORD PTR [rbp-0x430],r10
e309:	e8 f2 43 ff ff       	call   2700 <__snprintf_chk@plt>
e30e:	4c 8b 95 d0 fb ff ff 	mov    r10,QWORD PTR [rbp-0x430]
e315:	e9 1c f9 ff ff       	jmp    dc36 <vasnprintf+0x5c6>
e31a:	66 0f 1f 44 00 00    	nop    WORD PTR [rax+rax*1+0x0]
e320:	48 83 ec 10          	sub    rsp,0x10
e324:	4c 8b 8d 10 fc ff ff 	mov    r9,QWORD PTR [rbp-0x3f0]
e32b:	db 3c 24             	fstp   TBYTE PTR [rsp]
e32e:	e9 d6 f8 ff ff       	jmp    dc09 <vasnprintf+0x599>
e333:	0f 1f 44 00 00       	nop    DWORD PTR [rax+rax*1+0x0]
e338:	0f 88 97 f4 ff ff    	js     d7d5 <vasnprintf+0x165>
e33e:	4d 01 e4             	add    r12,r12
e341:	49 39 c4             	cmp    r12,rax
e344:	0f 83 df f7 ff ff    	jae    db29 <vasnprintf+0x4b9>
e34a:	66 0f 1f 44 00 00    	nop    WORD PTR [rax+rax*1+0x0]
e350:	48 85 d2             	test   rdx,rdx
e353:	0f 85 7c f4 ff ff    	jne    d7d5 <vasnprintf+0x165>
e359:	48 83 f8 ff          	cmp    rax,0xffffffffffffffff
e35d:	0f 84 72 f4 ff ff    	je     d7d5 <vasnprintf+0x165>
e363:	4c 3b bd 18 fc ff ff 	cmp    r15,QWORD PTR [rbp-0x3e8]
e36a:	49 89 c4             	mov    r12,rax
e36d:	0f 94 c2             	sete   dl
e370:	4d 85 ff             	test   r15,r15
e373:	0f 85 c3 f7 ff ff    	jne    db3c <vasnprintf+0x4cc>
e379:	0f 1f 80 00 00 00 00 	nop    DWORD PTR [rax+0x0]
e380:	4c 89 e7             	mov    rdi,r12
e383:	88 95 38 fc ff ff    	mov    BYTE PTR [rbp-0x3c8],dl
e389:	e8 42 46 ff ff       	call   29d0 <malloc@plt>
e38e:	48 85 c0             	test   rax,rax
e391:	48 89 c1             	mov    rcx,rax
e394:	0f b6 95 38 fc ff ff 	movzx  edx,BYTE PTR [rbp-0x3c8]
e39b:	0f 84 34 f4 ff ff    	je     d7d5 <vasnprintf+0x165>
e3a1:	4d 85 f6             	test   r14,r14
e3a4:	0f 84 96 01 00 00    	je     e540 <vasnprintf+0xed0>
e3aa:	84 d2                	test   dl,dl
e3ac:	0f 84 8e 01 00 00    	je     e540 <vasnprintf+0xed0>
e3b2:	4c 89 fe             	mov    rsi,r15
e3b5:	4c 89 f2             	mov    rdx,r14
e3b8:	48 89 c7             	mov    rdi,rax
e3bb:	e8 b0 45 ff ff       	call   2970 <memcpy@plt>
e3c0:	49 89 c7             	mov    r15,rax
e3c3:	e9 93 f7 ff ff       	jmp    db5b <vasnprintf+0x4eb>
e3c8:	0f 1f 84 00 00 00 00 	nop    DWORD PTR [rax+rax*1+0x0]
e3cf:	00
e3d0:	c6 03 4c             	mov    BYTE PTR [rbx],0x4c
e3d3:	48 83 c3 01          	add    rbx,0x1
e3d7:	e9 af f6 ff ff       	jmp    da8b <vasnprintf+0x41b>
e3dc:	0f 1f 40 00          	nop    DWORD PTR [rax+0x0]
e3e0:	44 88 30             	mov    BYTE PTR [rax],r14b
e3e3:	4c 89 f3             	mov    rbx,r14
e3e6:	e9 19 fd ff ff       	jmp    e104 <vasnprintf+0xa94>
e3eb:	0f 1f 44 00 00       	nop    DWORD PTR [rax+rax*1+0x0]
e3f0:	44 89 30             	mov    DWORD PTR [rax],r14d
e3f3:	4c 89 f3             	mov    rbx,r14
e3f6:	e9 09 fd ff ff       	jmp    e104 <vasnprintf+0xa94>
e3fb:	0f 1f 44 00 00       	nop    DWORD PTR [rax+rax*1+0x0]
e400:	66 44 89 30          	mov    WORD PTR [rax],r14w
e404:	4c 89 f3             	mov    rbx,r14
e407:	e9 f8 fc ff ff       	jmp    e104 <vasnprintf+0xa94>
e40c:	0f 1f 40 00          	nop    DWORD PTR [rax+0x0]
e410:	4c 89 e7             	mov    rdi,r12
e413:	88 95 38 fc ff ff    	mov    BYTE PTR [rbp-0x3c8],dl
e419:	e8 b2 45 ff ff       	call   29d0 <malloc@plt>
e41e:	48 85 c0             	test   rax,rax
e421:	48 89 c1             	mov    rcx,rax
e424:	0f b6 95 38 fc ff ff 	movzx  edx,BYTE PTR [rbp-0x3c8]
e42b:	0f 84 a4 f3 ff ff    	je     d7d5 <vasnprintf+0x165>
e431:	4d 85 f6             	test   r14,r14
e434:	0f 84 3a 01 00 00    	je     e574 <vasnprintf+0xf04>
e43a:	84 d2                	test   dl,dl
e43c:	0f 84 32 01 00 00    	je     e574 <vasnprintf+0xf04>
e442:	4c 89 fe             	mov    rsi,r15
e445:	4c 89 f2             	mov    rdx,r14
e448:	48 89 c7             	mov    rdi,rax
e44b:	e8 20 45 ff ff       	call   2970 <memcpy@plt>
e450:	49 89 c7             	mov    r15,rax
e453:	e9 a7 fc ff ff       	jmp    e0ff <vasnprintf+0xa8f>
e458:	0f 1f 84 00 00 00 00 	nop    DWORD PTR [rax+rax*1+0x0]
e45f:	00
e460:	4d 89 cf             	mov    r15,r9
e463:	e9 ac f4 ff ff       	jmp    d914 <vasnprintf+0x2a4>
e468:	0f 1f 84 00 00 00 00 	nop    DWORD PTR [rax+rax*1+0x0]
e46f:	00
e470:	48 83 ec 08          	sub    rsp,0x8
e474:	ff b5 10 fc ff ff    	push   QWORD PTR [rbp-0x3f0]
e47a:	e9 76 fa ff ff       	jmp    def5 <vasnprintf+0x885>
e47f:	90                   	nop
e480:	48 83 ec 08          	sub    rsp,0x8
e484:	ff b5 10 fc ff ff    	push   QWORD PTR [rbp-0x3f0]
e48a:	48 83 ec 10          	sub    rsp,0x10
e48e:	db 3c 24             	fstp   TBYTE PTR [rsp]
e491:	e9 25 fb ff ff       	jmp    dfbb <vasnprintf+0x94b>
e496:	66 2e 0f 1f 84 00 00 	nop    WORD PTR cs:[rax+rax*1+0x0]
e49d:	00 00 00
e4a0:	48 8b 85 38 fc ff ff 	mov    rax,QWORD PTR [rbp-0x3c8]
e4a7:	8b bd dc fb ff ff    	mov    edi,DWORD PTR [rbp-0x424]
e4ad:	48 63 d9             	movsxd rbx,ecx
e4b0:	4c 01 f3             	add    rbx,r14
e4b3:	89 38                	mov    DWORD PTR [rax],edi
e4b5:	e9 4a fc ff ff       	jmp    e104 <vasnprintf+0xa94>
e4ba:	66 0f 1f 44 00 00    	nop    WORD PTR [rax+rax*1+0x0]
e4c0:	4c 3b bd 18 fc ff ff 	cmp    r15,QWORD PTR [rbp-0x3e8]
e4c7:	74 09                	je     e4d2 <vasnprintf+0xe62>
e4c9:	4d 85 ff             	test   r15,r15
e4cc:	0f 85 b7 00 00 00    	jne    e589 <vasnprintf+0xf19>
e4d2:	48 8b 85 e0 fb ff ff 	mov    rax,QWORD PTR [rbp-0x420]
e4d9:	48 85 c0             	test   rax,rax
e4dc:	74 08                	je     e4e6 <vasnprintf+0xe76>
e4de:	48 89 c7             	mov    rdi,rax
e4e1:	e8 2a 42 ff ff       	call   2710 <free@plt>
e4e6:	48 8b 85 f8 fb ff ff 	mov    rax,QWORD PTR [rbp-0x408]
e4ed:	48 8b bd 48 fd ff ff 	mov    rdi,QWORD PTR [rbp-0x2b8]
e4f4:	48 83 c0 20          	add    rax,0x20
e4f8:	48 39 c7             	cmp    rdi,rax
e4fb:	74 05                	je     e502 <vasnprintf+0xe92>
e4fd:	e8 0e 42 ff ff       	call   2710 <free@plt>
e502:	48 8b 85 f0 fb ff ff 	mov    rax,QWORD PTR [rbp-0x410]
e509:	48 8b bd 58 fc ff ff 	mov    rdi,QWORD PTR [rbp-0x3a8]
e510:	48 83 c0 10          	add    rax,0x10
e514:	48 39 c7             	cmp    rdi,rax
e517:	74 05                	je     e51e <vasnprintf+0xeae>
e519:	e8 f2 41 ff ff       	call   2710 <free@plt>
e51e:	48 8b 85 38 fc ff ff 	mov    rax,QWORD PTR [rbp-0x3c8]
e525:	45 31 ff             	xor    r15d,r15d
e528:	c7 00 4b 00 00 00    	mov    DWORD PTR [rax],0x4b
e52e:	e9 1c f3 ff ff       	jmp    d84f <vasnprintf+0x1df>
e533:	0f 1f 44 00 00       	nop    DWORD PTR [rax+rax*1+0x0]
e538:	45 31 ff             	xor    r15d,r15d
e53b:	e9 0f f3 ff ff       	jmp    d84f <vasnprintf+0x1df>
e540:	49 89 cf             	mov    r15,rcx
e543:	e9 13 f6 ff ff       	jmp    db5b <vasnprintf+0x4eb>
e548:	0f 1f 84 00 00 00 00 	nop    DWORD PTR [rax+rax*1+0x0]
e54f:	00
e550:	0f 88 7f f2 ff ff    	js     d7d5 <vasnprintf+0x165>
e556:	4d 01 e4             	add    r12,r12
e559:	49 39 c4             	cmp    r12,rax
e55c:	0f 83 34 fc ff ff    	jae    e196 <vasnprintf+0xb26>
e562:	48 83 f8 ff          	cmp    rax,0xffffffffffffffff
e566:	0f 84 69 f2 ff ff    	je     d7d5 <vasnprintf+0x165>
e56c:	49 89 c4             	mov    r12,rax
e56f:	e9 22 fc ff ff       	jmp    e196 <vasnprintf+0xb26>
e574:	49 89 cf             	mov    r15,rcx
e577:	e9 83 fb ff ff       	jmp    e0ff <vasnprintf+0xa8f>
e57c:	4c 89 ff             	mov    rdi,r15
e57f:	e8 8c 41 ff ff       	call   2710 <free@plt>
e584:	e9 49 f8 ff ff       	jmp    ddd2 <vasnprintf+0x762>
e589:	4c 89 ff             	mov    rdi,r15
e58c:	e8 7f 41 ff ff       	call   2710 <free@plt>
e591:	e9 3c ff ff ff       	jmp    e4d2 <vasnprintf+0xe62>
e596:	e8 a5 41 ff ff       	call   2740 <abort@plt>
e59b:	0f 1f 44 00 00       	nop    DWORD PTR [rax+rax*1+0x0]
e5a0:	48 8b 85 f8 fb ff ff 	mov    rax,QWORD PTR [rbp-0x408]
e5a7:	48 8b bd 48 fd ff ff 	mov    rdi,QWORD PTR [rbp-0x2b8]
e5ae:	48 83 c0 20          	add    rax,0x20
e5b2:	48 39 c7             	cmp    rdi,rax
e5b5:	74 05                	je     e5bc <vasnprintf+0xf4c>
e5b7:	e8 54 41 ff ff       	call   2710 <free@plt>
e5bc:	48 8b 85 f0 fb ff ff 	mov    rax,QWORD PTR [rbp-0x410]
e5c3:	48 8b bd 58 fc ff ff 	mov    rdi,QWORD PTR [rbp-0x3a8]
e5ca:	48 83 c0 10          	add    rax,0x10
e5ce:	48 39 c7             	cmp    rdi,rax
e5d1:	74 05                	je     e5d8 <vasnprintf+0xf68>
e5d3:	e8 38 41 ff ff       	call   2710 <free@plt>
e5d8:	e8 73 41 ff ff       	call   2750 <__errno_location@plt>
e5dd:	45 31 ff             	xor    r15d,r15d
e5e0:	c7 00 16 00 00 00    	mov    DWORD PTR [rax],0x16
e5e6:	e9 64 f2 ff ff       	jmp    d84f <vasnprintf+0x1df>
e5eb:	4c 89 f3             	mov    rbx,r14
e5ee:	31 c0                	xor    eax,eax
e5f0:	48 83 c3 01          	add    rbx,0x1
e5f4:	0f 82 06 01 00 00    	jb     e700 <vasnprintf+0x1090>
e5fa:	49 39 dc             	cmp    r12,rbx
e5fd:	73 4d                	jae    e64c <vasnprintf+0xfdc>
e5ff:	4d 85 e4             	test   r12,r12
e602:	0f 85 31 01 00 00    	jne    e739 <vasnprintf+0x10c9>
e608:	48 83 fb 0c          	cmp    rbx,0xc
e60c:	0f 87 0c 01 00 00    	ja     e71e <vasnprintf+0x10ae>
e612:	41 bc 0c 00 00 00    	mov    r12d,0xc
e618:	4c 3b bd 18 fc ff ff 	cmp    r15,QWORD PTR [rbp-0x3e8]
e61f:	41 0f 94 c5          	sete   r13b
e623:	4d 85 ff             	test   r15,r15
e626:	0f 84 a0 00 00 00    	je     e6cc <vasnprintf+0x105c>
e62c:	45 84 ed             	test   r13b,r13b
e62f:	0f 85 97 00 00 00    	jne    e6cc <vasnprintf+0x105c>
e635:	4c 89 e6             	mov    rsi,r12
e638:	4c 89 ff             	mov    rdi,r15
e63b:	e8 e0 43 ff ff       	call   2a20 <realloc@plt>
e640:	48 85 c0             	test   rax,rax
e643:	0f 84 72 fc ff ff    	je     e2bb <vasnprintf+0xc4b>
e649:	49 89 c7             	mov    r15,rax
e64c:	4c 3b bd 18 fc ff ff 	cmp    r15,QWORD PTR [rbp-0x3e8]
e653:	43 c6 04 37 00       	mov    BYTE PTR [r15+r14*1],0x0
e658:	74 17                	je     e671 <vasnprintf+0x1001>
e65a:	49 39 dc             	cmp    r12,rbx
e65d:	76 12                	jbe    e671 <vasnprintf+0x1001>
e65f:	4c 89 ff             	mov    rdi,r15
e662:	48 89 de             	mov    rsi,rbx
e665:	e8 b6 43 ff ff       	call   2a20 <realloc@plt>
e66a:	48 85 c0             	test   rax,rax
e66d:	4c 0f 45 f8          	cmovne r15,rax
e671:	48 8b 85 e0 fb ff ff 	mov    rax,QWORD PTR [rbp-0x420]
e678:	48 85 c0             	test   rax,rax
e67b:	74 08                	je     e685 <vasnprintf+0x1015>
e67d:	48 89 c7             	mov    rdi,rax
e680:	e8 8b 40 ff ff       	call   2710 <free@plt>
e685:	48 8b 85 f8 fb ff ff 	mov    rax,QWORD PTR [rbp-0x408]
e68c:	48 8b bd 48 fd ff ff 	mov    rdi,QWORD PTR [rbp-0x2b8]
e693:	48 83 c0 20          	add    rax,0x20
e697:	48 39 c7             	cmp    rdi,rax
e69a:	74 05                	je     e6a1 <vasnprintf+0x1031>
e69c:	e8 6f 40 ff ff       	call   2710 <free@plt>
e6a1:	48 8b 85 f0 fb ff ff 	mov    rax,QWORD PTR [rbp-0x410]
e6a8:	48 8b bd 58 fc ff ff 	mov    rdi,QWORD PTR [rbp-0x3a8]
e6af:	48 83 c0 10          	add    rax,0x10
e6b3:	48 39 c7             	cmp    rdi,rax
e6b6:	74 05                	je     e6bd <vasnprintf+0x104d>
e6b8:	e8 53 40 ff ff       	call   2710 <free@plt>
e6bd:	48 8b 85 e8 fb ff ff 	mov    rax,QWORD PTR [rbp-0x418]
e6c4:	4c 89 30             	mov    QWORD PTR [rax],r14
e6c7:	e9 83 f1 ff ff       	jmp    d84f <vasnprintf+0x1df>
e6cc:	4c 89 e7             	mov    rdi,r12
e6cf:	e8 fc 42 ff ff       	call   29d0 <malloc@plt>
e6d4:	48 85 c0             	test   rax,rax
e6d7:	48 89 c1             	mov    rcx,rax
e6da:	0f 84 f5 f0 ff ff    	je     d7d5 <vasnprintf+0x165>
e6e0:	4d 85 f6             	test   r14,r14
e6e3:	74 6b                	je     e750 <vasnprintf+0x10e0>
e6e5:	45 84 ed             	test   r13b,r13b
e6e8:	74 66                	je     e750 <vasnprintf+0x10e0>
e6ea:	4c 89 fe             	mov    rsi,r15
e6ed:	4c 89 f2             	mov    rdx,r14
e6f0:	48 89 c7             	mov    rdi,rax
e6f3:	e8 78 42 ff ff       	call   2970 <memcpy@plt>
e6f8:	49 89 c7             	mov    r15,rax
e6fb:	e9 4c ff ff ff       	jmp    e64c <vasnprintf+0xfdc>
e700:	49 83 fc ff          	cmp    r12,0xffffffffffffffff
e704:	b8 01 00 00 00       	mov    eax,0x1
e709:	0f 84 3d ff ff ff    	je     e64c <vasnprintf+0xfdc>
e70f:	4d 85 e4             	test   r12,r12
e712:	0f 84 bd f0 ff ff    	je     d7d5 <vasnprintf+0x165>
e718:	0f 88 b7 f0 ff ff    	js     d7d5 <vasnprintf+0x165>
e71e:	48 85 c0             	test   rax,rax
e721:	0f 85 ae f0 ff ff    	jne    d7d5 <vasnprintf+0x165>
e727:	48 83 fb ff          	cmp    rbx,0xffffffffffffffff
e72b:	0f 84 a4 f0 ff ff    	je     d7d5 <vasnprintf+0x165>
e731:	49 89 dc             	mov    r12,rbx
e734:	e9 df fe ff ff       	jmp    e618 <vasnprintf+0xfa8>
e739:	0f 88 96 f0 ff ff    	js     d7d5 <vasnprintf+0x165>
e73f:	4d 01 e4             	add    r12,r12
e742:	49 39 dc             	cmp    r12,rbx
e745:	0f 83 cd fe ff ff    	jae    e618 <vasnprintf+0xfa8>
e74b:	eb d1                	jmp    e71e <vasnprintf+0x10ae>
e74d:	0f 1f 00             	nop    DWORD PTR [rax]
e750:	49 89 cf             	mov    r15,rcx
e753:	e9 f4 fe ff ff       	jmp    e64c <vasnprintf+0xfdc>
e758:	49 83 fc ff          	cmp    r12,0xffffffffffffffff
e75c:	0f 84 1e f4 ff ff    	je     db80 <vasnprintf+0x510>
e762:	e9 7a f0 ff ff       	jmp    d7e1 <vasnprintf+0x171>
e767:	e8 c4 40 ff ff       	call   2830 <__stack_chk_fail@plt>
e76c:	49 83 fc ff          	cmp    r12,0xffffffffffffffff
e770:	ba 01 00 00 00       	mov    edx,0x1
e775:	0f 84 e0 f3 ff ff    	je     db5b <vasnprintf+0x4eb>
e77b:	4d 85 e4             	test   r12,r12
e77e:	0f 84 51 f0 ff ff    	je     d7d5 <vasnprintf+0x165>
e784:	0f 89 c6 fb ff ff    	jns    e350 <vasnprintf+0xce0>
e78a:	e9 46 f0 ff ff       	jmp    d7d5 <vasnprintf+0x165>
e78f:	90                   	nop

000000000000e790 <printf_fetchargs>:
e790:	48 83 3e 00          	cmp    QWORD PTR [rsi],0x0
e794:	48 8b 46 08          	mov    rax,QWORD PTR [rsi+0x8]
e798:	74 63                	je     e7fd <printf_fetchargs+0x6d>
e79a:	4c 8d 05 7f 38 00 00 	lea    r8,[rip+0x387f]        # 12020 <version_etc_copyright+0x2c0>
e7a1:	4c 8d 15 d8 38 00 00 	lea    r10,[rip+0x38d8]        # 12080 <wide_null_string.2696>
e7a8:	4c 8d 0d 5d 38 00 00 	lea    r9,[rip+0x385d]        # 1200c <version_etc_copyright+0x2ac>
e7af:	31 c9                	xor    ecx,ecx
e7b1:	0f 1f 80 00 00 00 00 	nop    DWORD PTR [rax+0x0]
e7b8:	83 38 16             	cmp    DWORD PTR [rax],0x16
e7bb:	77 43                	ja     e800 <printf_fetchargs+0x70>
e7bd:	8b 10                	mov    edx,DWORD PTR [rax]
e7bf:	49 63 14 90          	movsxd rdx,DWORD PTR [r8+rdx*4]
e7c3:	4c 01 c2             	add    rdx,r8
e7c6:	ff e2                	jmp    rdx
e7c8:	0f 1f 84 00 00 00 00 	nop    DWORD PTR [rax+rax*1+0x0]
e7cf:	00
e7d0:	48 8b 57 08          	mov    rdx,QWORD PTR [rdi+0x8]
e7d4:	48 83 c2 0f          	add    rdx,0xf
e7d8:	48 83 e2 f0          	and    rdx,0xfffffffffffffff0
e7dc:	4c 8d 5a 10          	lea    r11,[rdx+0x10]
e7e0:	4c 89 5f 08          	mov    QWORD PTR [rdi+0x8],r11
e7e4:	db 2a                	fld    TBYTE PTR [rdx]
e7e6:	db 78 10             	fstp   TBYTE PTR [rax+0x10]
e7e9:	0f 1f 80 00 00 00 00 	nop    DWORD PTR [rax+0x0]
e7f0:	48 83 c1 01          	add    rcx,0x1
e7f4:	48 83 c0 20          	add    rax,0x20
e7f8:	48 39 0e             	cmp    QWORD PTR [rsi],rcx
e7fb:	77 bb                	ja     e7b8 <printf_fetchargs+0x28>
e7fd:	31 c0                	xor    eax,eax
e7ff:	c3                   	ret
e800:	b8 ff ff ff ff       	mov    eax,0xffffffff
e805:	c3                   	ret
e806:	44 8b 1f             	mov    r11d,DWORD PTR [rdi]
e809:	41 83 fb 2f          	cmp    r11d,0x2f
e80d:	0f 87 37 01 00 00    	ja     e94a <printf_fetchargs+0x1ba>
e813:	44 89 da             	mov    edx,r11d
e816:	48 03 57 10          	add    rdx,QWORD PTR [rdi+0x10]
e81a:	41 83 c3 08          	add    r11d,0x8
e81e:	44 89 1f             	mov    DWORD PTR [rdi],r11d
e821:	48 8b 12             	mov    rdx,QWORD PTR [rdx]
e824:	48 89 50 10          	mov    QWORD PTR [rax+0x10],rdx
e828:	eb c6                	jmp    e7f0 <printf_fetchargs+0x60>
e82a:	44 8b 1f             	mov    r11d,DWORD PTR [rdi]
e82d:	41 83 fb 2f          	cmp    r11d,0x2f
e831:	0f 87 35 01 00 00    	ja     e96c <printf_fetchargs+0x1dc>
e837:	44 89 da             	mov    edx,r11d
e83a:	48 03 57 10          	add    rdx,QWORD PTR [rdi+0x10]
e83e:	41 83 c3 08          	add    r11d,0x8
e842:	44 89 1f             	mov    DWORD PTR [rdi],r11d
e845:	8b 12                	mov    edx,DWORD PTR [rdx]
e847:	89 50 10             	mov    DWORD PTR [rax+0x10],edx
e84a:	eb a4                	jmp    e7f0 <printf_fetchargs+0x60>
e84c:	44 8b 1f             	mov    r11d,DWORD PTR [rdi]
e84f:	41 83 fb 2f          	cmp    r11d,0x2f
e853:	0f 87 02 01 00 00    	ja     e95b <printf_fetchargs+0x1cb>
e859:	44 89 da             	mov    edx,r11d
e85c:	48 03 57 10          	add    rdx,QWORD PTR [rdi+0x10]
e860:	41 83 c3 08          	add    r11d,0x8
e864:	44 89 1f             	mov    DWORD PTR [rdi],r11d
e867:	8b 12                	mov    edx,DWORD PTR [rdx]
e869:	88 50 10             	mov    BYTE PTR [rax+0x10],dl
e86c:	eb 82                	jmp    e7f0 <printf_fetchargs+0x60>
e86e:	44 8b 1f             	mov    r11d,DWORD PTR [rdi]
e871:	41 83 fb 2f          	cmp    r11d,0x2f
e875:	0f 87 9f 00 00 00    	ja     e91a <printf_fetchargs+0x18a>
e87b:	44 89 da             	mov    edx,r11d
e87e:	48 03 57 10          	add    rdx,QWORD PTR [rdi+0x10]
e882:	41 83 c3 08          	add    r11d,0x8
e886:	44 89 1f             	mov    DWORD PTR [rdi],r11d
e889:	8b 12                	mov    edx,DWORD PTR [rdx]
e88b:	66 89 50 10          	mov    WORD PTR [rax+0x10],dx
e88f:	e9 5c ff ff ff       	jmp    e7f0 <printf_fetchargs+0x60>
e894:	44 8b 1f             	mov    r11d,DWORD PTR [rdi]
e897:	41 83 fb 2f          	cmp    r11d,0x2f
e89b:	0f 87 8a 00 00 00    	ja     e92b <printf_fetchargs+0x19b>
e8a1:	44 89 da             	mov    edx,r11d
e8a4:	48 03 57 10          	add    rdx,QWORD PTR [rdi+0x10]
e8a8:	41 83 c3 08          	add    r11d,0x8
e8ac:	44 89 1f             	mov    DWORD PTR [rdi],r11d
e8af:	48 8b 12             	mov    rdx,QWORD PTR [rdx]
e8b2:	48 85 d2             	test   rdx,rdx
e8b5:	49 0f 44 d1          	cmove  rdx,r9
e8b9:	48 89 50 10          	mov    QWORD PTR [rax+0x10],rdx
e8bd:	e9 2e ff ff ff       	jmp    e7f0 <printf_fetchargs+0x60>
e8c2:	44 8b 5f 04          	mov    r11d,DWORD PTR [rdi+0x4]
e8c6:	41 81 fb af 00 00 00 	cmp    r11d,0xaf
e8cd:	0f 87 aa 00 00 00    	ja     e97d <printf_fetchargs+0x1ed>
e8d3:	44 89 da             	mov    edx,r11d
e8d6:	48 03 57 10          	add    rdx,QWORD PTR [rdi+0x10]
e8da:	41 83 c3 10          	add    r11d,0x10
e8de:	44 89 5f 04          	mov    DWORD PTR [rdi+0x4],r11d
e8e2:	f2 0f 10 02          	movsd  xmm0,QWORD PTR [rdx]
e8e6:	f2 0f 11 40 10       	movsd  QWORD PTR [rax+0x10],xmm0
e8eb:	e9 00 ff ff ff       	jmp    e7f0 <printf_fetchargs+0x60>
e8f0:	44 8b 1f             	mov    r11d,DWORD PTR [rdi]
e8f3:	41 83 fb 2f          	cmp    r11d,0x2f
e8f7:	77 43                	ja     e93c <printf_fetchargs+0x1ac>
e8f9:	44 89 da             	mov    edx,r11d
e8fc:	48 03 57 10          	add    rdx,QWORD PTR [rdi+0x10]
e900:	41 83 c3 08          	add    r11d,0x8
e904:	44 89 1f             	mov    DWORD PTR [rdi],r11d
e907:	48 8b 12             	mov    rdx,QWORD PTR [rdx]
e90a:	48 85 d2             	test   rdx,rdx
e90d:	49 0f 44 d2          	cmove  rdx,r10
e911:	48 89 50 10          	mov    QWORD PTR [rax+0x10],rdx
e915:	e9 d6 fe ff ff       	jmp    e7f0 <printf_fetchargs+0x60>
e91a:	48 8b 57 08          	mov    rdx,QWORD PTR [rdi+0x8]
e91e:	4c 8d 5a 08          	lea    r11,[rdx+0x8]
e922:	4c 89 5f 08          	mov    QWORD PTR [rdi+0x8],r11
e926:	e9 5e ff ff ff       	jmp    e889 <printf_fetchargs+0xf9>
e92b:	48 8b 57 08          	mov    rdx,QWORD PTR [rdi+0x8]
e92f:	4c 8d 5a 08          	lea    r11,[rdx+0x8]
e933:	4c 89 5f 08          	mov    QWORD PTR [rdi+0x8],r11
e937:	e9 73 ff ff ff       	jmp    e8af <printf_fetchargs+0x11f>
e93c:	48 8b 57 08          	mov    rdx,QWORD PTR [rdi+0x8]
e940:	4c 8d 5a 08          	lea    r11,[rdx+0x8]
e944:	4c 89 5f 08          	mov    QWORD PTR [rdi+0x8],r11
e948:	eb bd                	jmp    e907 <printf_fetchargs+0x177>
e94a:	48 8b 57 08          	mov    rdx,QWORD PTR [rdi+0x8]
e94e:	4c 8d 5a 08          	lea    r11,[rdx+0x8]
e952:	4c 89 5f 08          	mov    QWORD PTR [rdi+0x8],r11
e956:	e9 c6 fe ff ff       	jmp    e821 <printf_fetchargs+0x91>
e95b:	48 8b 57 08          	mov    rdx,QWORD PTR [rdi+0x8]
e95f:	4c 8d 5a 08          	lea    r11,[rdx+0x8]
e963:	4c 89 5f 08          	mov    QWORD PTR [rdi+0x8],r11
e967:	e9 fb fe ff ff       	jmp    e867 <printf_fetchargs+0xd7>
e96c:	48 8b 57 08          	mov    rdx,QWORD PTR [rdi+0x8]
e970:	4c 8d 5a 08          	lea    r11,[rdx+0x8]
e974:	4c 89 5f 08          	mov    QWORD PTR [rdi+0x8],r11
e978:	e9 c8 fe ff ff       	jmp    e845 <printf_fetchargs+0xb5>
e97d:	48 8b 57 08          	mov    rdx,QWORD PTR [rdi+0x8]
e981:	4c 8d 5a 08          	lea    r11,[rdx+0x8]
e985:	4c 89 5f 08          	mov    QWORD PTR [rdi+0x8],r11
e989:	e9 54 ff ff ff       	jmp    e8e2 <printf_fetchargs+0x152>
e98e:	66 90                	xchg   ax,ax

000000000000e990 <printf_parse>:
e990:	41 57                	push   r15
e992:	41 56                	push   r14
e994:	48 8d 4e 20          	lea    rcx,[rsi+0x20]
e998:	41 55                	push   r13
e99a:	41 54                	push   r12
e99c:	48 8d 42 10          	lea    rax,[rdx+0x10]
e9a0:	55                   	push   rbp
e9a1:	53                   	push   rbx
e9a2:	49 89 f6             	mov    r14,rsi
e9a5:	49 89 d7             	mov    r15,rdx
e9a8:	31 db                	xor    ebx,ebx
e9aa:	41 b9 07 00 00 00    	mov    r9d,0x7
e9b0:	48 83 ec 58          	sub    rsp,0x58
e9b4:	41 ba 07 00 00 00    	mov    r10d,0x7
e9ba:	48 c7 06 00 00 00 00 	mov    QWORD PTR [rsi],0x0
e9c1:	48 89 4e 08          	mov    QWORD PTR [rsi+0x8],rcx
e9c5:	48 89 4c 24 28       	mov    QWORD PTR [rsp+0x28],rcx
e9ca:	49 c7 c0 ff ff ff ff 	mov    r8,0xffffffffffffffff
e9d1:	48 c7 02 00 00 00 00 	mov    QWORD PTR [rdx],0x0
e9d8:	48 89 44 24 08       	mov    QWORD PTR [rsp+0x8],rax
e9dd:	48 89 42 08          	mov    QWORD PTR [rdx+0x8],rax
e9e1:	48 c7 44 24 18 00 00 	mov    QWORD PTR [rsp+0x18],0x0
e9e8:	00 00
e9ea:	48 c7 44 24 10 00 00 	mov    QWORD PTR [rsp+0x10],0x0
e9f1:	00 00
e9f3:	48 c7 44 24 20 00 00 	mov    QWORD PTR [rsp+0x20],0x0
e9fa:	00 00
e9fc:	eb 0d                	jmp    ea0b <printf_parse+0x7b>
e9fe:	66 90                	xchg   ax,ax
ea00:	3c 25                	cmp    al,0x25
ea02:	48 8d 6f 01          	lea    rbp,[rdi+0x1]
ea06:	74 40                	je     ea48 <printf_parse+0xb8>
ea08:	48 89 ef             	mov    rdi,rbp
ea0b:	0f b6 07             	movzx  eax,BYTE PTR [rdi]
ea0e:	84 c0                	test   al,al
ea10:	75 ee                	jne    ea00 <printf_parse+0x70>
ea12:	48 8d 04 9b          	lea    rax,[rbx+rbx*4]
ea16:	48 8d 04 43          	lea    rax,[rbx+rax*2]
ea1a:	48 89 3c c1          	mov    QWORD PTR [rcx+rax*8],rdi
ea1e:	48 8b 44 24 10       	mov    rax,QWORD PTR [rsp+0x10]
ea23:	49 89 46 10          	mov    QWORD PTR [r14+0x10],rax
ea27:	48 8b 44 24 18       	mov    rax,QWORD PTR [rsp+0x18]
ea2c:	49 89 46 18          	mov    QWORD PTR [r14+0x18],rax
ea30:	31 c0                	xor    eax,eax
ea32:	48 83 c4 58          	add    rsp,0x58
ea36:	5b                   	pop    rbx
ea37:	5d                   	pop    rbp
ea38:	41 5c                	pop    r12
ea3a:	41 5d                	pop    r13
ea3c:	41 5e                	pop    r14
ea3e:	41 5f                	pop    r15
ea40:	c3                   	ret
ea41:	0f 1f 80 00 00 00 00 	nop    DWORD PTR [rax+0x0]
ea48:	48 8d 04 9b          	lea    rax,[rbx+rbx*4]
ea4c:	4d 89 c5             	mov    r13,r8
ea4f:	48 8d 04 43          	lea    rax,[rbx+rax*2]
ea53:	4c 8d 24 c1          	lea    r12,[rcx+rax*8]
ea57:	49 89 3c 24          	mov    QWORD PTR [r12],rdi
ea5b:	41 c7 44 24 10 00 00 	mov    DWORD PTR [r12+0x10],0x0
ea62:	00 00
ea64:	49 c7 44 24 18 00 00 	mov    QWORD PTR [r12+0x18],0x0
ea6b:	00 00
ea6d:	49 c7 44 24 20 00 00 	mov    QWORD PTR [r12+0x20],0x0
ea74:	00 00
ea76:	4d 89 44 24 28       	mov    QWORD PTR [r12+0x28],r8
ea7b:	49 c7 44 24 30 00 00 	mov    QWORD PTR [r12+0x30],0x0
ea82:	00 00
ea84:	49 c7 44 24 38 00 00 	mov    QWORD PTR [r12+0x38],0x0
ea8b:	00 00
ea8d:	4d 89 44 24 40       	mov    QWORD PTR [r12+0x40],r8
ea92:	4d 89 44 24 50       	mov    QWORD PTR [r12+0x50],r8
ea97:	0f b6 5f 01          	movzx  ebx,BYTE PTR [rdi+0x1]
ea9b:	8d 43 d0             	lea    eax,[rbx-0x30]
ea9e:	3c 09                	cmp    al,0x9
eaa0:	77 3c                	ja     eade <printf_parse+0x14e>
eaa2:	e9 33 04 00 00       	jmp    eeda <printf_parse+0x54a>
eaa7:	66 0f 1f 84 00 00 00 	nop    WORD PTR [rax+rax*1+0x0]
eaae:	00 00
eab0:	80 fb 2d             	cmp    bl,0x2d
eab3:	74 43                	je     eaf8 <printf_parse+0x168>
eab5:	80 fb 2b             	cmp    bl,0x2b
eab8:	74 46                	je     eb00 <printf_parse+0x170>
eaba:	80 fb 20             	cmp    bl,0x20
eabd:	74 51                	je     eb10 <printf_parse+0x180>
eabf:	80 fb 23             	cmp    bl,0x23
eac2:	74 5c                	je     eb20 <printf_parse+0x190>
eac4:	80 fb 30             	cmp    bl,0x30
eac7:	74 67                	je     eb30 <printf_parse+0x1a0>
eac9:	80 fb 49             	cmp    bl,0x49
eacc:	75 72                	jne    eb40 <printf_parse+0x1b0>
eace:	41 83 4c 24 10 40    	or     DWORD PTR [r12+0x10],0x40
ead4:	0f 1f 40 00          	nop    DWORD PTR [rax+0x0]
ead8:	0f b6 18             	movzx  ebx,BYTE PTR [rax]
eadb:	48 89 c5             	mov    rbp,rax
eade:	48 8d 45 01          	lea    rax,[rbp+0x1]
eae2:	80 fb 27             	cmp    bl,0x27
eae5:	48 89 c2             	mov    rdx,rax
eae8:	75 c6                	jne    eab0 <printf_parse+0x120>
eaea:	41 83 4c 24 10 01    	or     DWORD PTR [r12+0x10],0x1
eaf0:	eb e6                	jmp    ead8 <printf_parse+0x148>
eaf2:	66 0f 1f 44 00 00    	nop    WORD PTR [rax+rax*1+0x0]
eaf8:	41 83 4c 24 10 02    	or     DWORD PTR [r12+0x10],0x2
eafe:	eb d8                	jmp    ead8 <printf_parse+0x148>
eb00:	41 83 4c 24 10 04    	or     DWORD PTR [r12+0x10],0x4
eb06:	eb d0                	jmp    ead8 <printf_parse+0x148>
eb08:	0f 1f 84 00 00 00 00 	nop    DWORD PTR [rax+rax*1+0x0]
eb0f:	00
eb10:	41 83 4c 24 10 08    	or     DWORD PTR [r12+0x10],0x8
eb16:	eb c0                	jmp    ead8 <printf_parse+0x148>
eb18:	0f 1f 84 00 00 00 00 	nop    DWORD PTR [rax+rax*1+0x0]
eb1f:	00
eb20:	41 83 4c 24 10 10    	or     DWORD PTR [r12+0x10],0x10
eb26:	eb b0                	jmp    ead8 <printf_parse+0x148>
eb28:	0f 1f 84 00 00 00 00 	nop    DWORD PTR [rax+rax*1+0x0]
eb2f:	00
eb30:	41 83 4c 24 10 20    	or     DWORD PTR [r12+0x10],0x20
eb36:	eb a0                	jmp    ead8 <printf_parse+0x148>
eb38:	0f 1f 84 00 00 00 00 	nop    DWORD PTR [rax+rax*1+0x0]
eb3f:	00
eb40:	80 fb 2a             	cmp    bl,0x2a
eb43:	0f 84 b0 01 00 00    	je     ecf9 <printf_parse+0x369>
eb49:	8d 4b d0             	lea    ecx,[rbx-0x30]
eb4c:	80 f9 09             	cmp    cl,0x9
eb4f:	0f 86 12 04 00 00    	jbe    ef67 <printf_parse+0x5d7>
eb55:	80 fb 2e             	cmp    bl,0x2e
eb58:	0f 84 d1 02 00 00    	je     ee2f <printf_parse+0x49f>
eb5e:	31 c0                	xor    eax,eax
eb60:	be 01 00 00 00       	mov    esi,0x1
eb65:	eb 30                	jmp    eb97 <printf_parse+0x207>
eb67:	66 0f 1f 84 00 00 00 	nop    WORD PTR [rax+rax*1+0x0]
eb6e:	00 00
eb70:	80 fb 4c             	cmp    bl,0x4c
eb73:	74 3b                	je     ebb0 <printf_parse+0x220>
eb75:	80 fb 6c             	cmp    bl,0x6c
eb78:	74 16                	je     eb90 <printf_parse+0x200>
eb7a:	80 fb 6a             	cmp    bl,0x6a
eb7d:	74 11                	je     eb90 <printf_parse+0x200>
eb7f:	89 da                	mov    edx,ebx
eb81:	83 e2 df             	and    edx,0xffffffdf
eb84:	80 fa 5a             	cmp    dl,0x5a
eb87:	74 07                	je     eb90 <printf_parse+0x200>
eb89:	80 fb 74             	cmp    bl,0x74
eb8c:	75 2a                	jne    ebb8 <printf_parse+0x228>
eb8e:	66 90                	xchg   ax,ax
eb90:	83 c0 08             	add    eax,0x8
eb93:	0f b6 5d 00          	movzx  ebx,BYTE PTR [rbp+0x0]
eb97:	48 83 c5 01          	add    rbp,0x1
eb9b:	80 fb 68             	cmp    bl,0x68
eb9e:	75 d0                	jne    eb70 <printf_parse+0x1e0>
eba0:	89 c1                	mov    ecx,eax
eba2:	89 f2                	mov    edx,esi
eba4:	83 e1 01             	and    ecx,0x1
eba7:	d3 e2                	shl    edx,cl
eba9:	09 d0                	or     eax,edx
ebab:	eb e6                	jmp    eb93 <printf_parse+0x203>
ebad:	0f 1f 00             	nop    DWORD PTR [rax]
ebb0:	83 c8 04             	or     eax,0x4
ebb3:	eb de                	jmp    eb93 <printf_parse+0x203>
ebb5:	0f 1f 00             	nop    DWORD PTR [rax]
ebb8:	8d 53 db             	lea    edx,[rbx-0x25]
ebbb:	80 fa 53             	cmp    dl,0x53
ebbe:	0f 87 17 06 00 00    	ja     f1db <printf_parse+0x84b>
ebc4:	48 8d 0d d1 34 00 00 	lea    rcx,[rip+0x34d1]        # 1209c <wide_null_string.2696+0x1c>
ebcb:	0f b6 d2             	movzx  edx,dl
ebce:	48 63 14 91          	movsxd rdx,DWORD PTR [rcx+rdx*4]
ebd2:	48 01 ca             	add    rdx,rcx
ebd5:	ff e2                	jmp    rdx
ebd7:	41 bb 10 00 00 00    	mov    r11d,0x10
ebdd:	bb 73 00 00 00       	mov    ebx,0x73
ebe2:	66 0f 1f 44 00 00    	nop    WORD PTR [rax+rax*1+0x0]
ebe8:	49 83 fd ff          	cmp    r13,0xffffffffffffffff
ebec:	0f 84 b5 06 00 00    	je     f2a7 <printf_parse+0x917>
ebf2:	4d 89 6c 24 50       	mov    QWORD PTR [r12+0x50],r13
ebf7:	4d 39 e9             	cmp    r9,r13
ebfa:	49 8b 4f 08          	mov    rcx,QWORD PTR [r15+0x8]
ebfe:	0f 86 1c 06 00 00    	jbe    f220 <printf_parse+0x890>
ec04:	49 8b 07             	mov    rax,QWORD PTR [r15]
ec07:	48 89 c2             	mov    rdx,rax
ec0a:	48 c1 e2 05          	shl    rdx,0x5
ec0e:	48 01 ca             	add    rdx,rcx
ec11:	4c 39 e8             	cmp    rax,r13
ec14:	77 20                	ja     ec36 <printf_parse+0x2a6>
ec16:	66 2e 0f 1f 84 00 00 	nop    WORD PTR cs:[rax+rax*1+0x0]
ec1d:	00 00 00
ec20:	48 83 c0 01          	add    rax,0x1
ec24:	c7 02 00 00 00 00    	mov    DWORD PTR [rdx],0x0
ec2a:	48 83 c2 20          	add    rdx,0x20
ec2e:	4c 39 e8             	cmp    rax,r13
ec31:	76 ed                	jbe    ec20 <printf_parse+0x290>
ec33:	49 89 07             	mov    QWORD PTR [r15],rax
ec36:	49 c1 e5 05          	shl    r13,0x5
ec3a:	4a 8d 04 29          	lea    rax,[rcx+r13*1]
ec3e:	8b 10                	mov    edx,DWORD PTR [rax]
ec40:	85 d2                	test   edx,edx
ec42:	0f 85 cb 05 00 00    	jne    f213 <printf_parse+0x883>
ec48:	44 89 18             	mov    DWORD PTR [rax],r11d
ec4b:	41 88 5c 24 48       	mov    BYTE PTR [r12+0x48],bl
ec50:	49 8b 06             	mov    rax,QWORD PTR [r14]
ec53:	49 89 6c 24 08       	mov    QWORD PTR [r12+0x8],rbp
ec58:	48 8d 58 01          	lea    rbx,[rax+0x1]
ec5c:	49 39 da             	cmp    r10,rbx
ec5f:	49 89 1e             	mov    QWORD PTR [r14],rbx
ec62:	0f 87 88 00 00 00    	ja     ecf0 <printf_parse+0x360>
ec68:	4d 85 d2             	test   r10,r10
ec6b:	0f 88 a6 09 00 00    	js     f617 <printf_parse+0xc87>
ec71:	4d 01 d2             	add    r10,r10
ec74:	48 b8 ba e8 a2 8b 2e 	movabs rax,0x2e8ba2e8ba2e8ba
ec7b:	ba e8 02
ec7e:	49 39 c2             	cmp    r10,rax
ec81:	0f 87 90 09 00 00    	ja     f617 <printf_parse+0xc87>
ec87:	4b 8d 04 92          	lea    rax,[r10+r10*4]
ec8b:	49 8b 7e 08          	mov    rdi,QWORD PTR [r14+0x8]
ec8f:	48 39 7c 24 28       	cmp    QWORD PTR [rsp+0x28],rdi
ec94:	4c 89 4c 24 40       	mov    QWORD PTR [rsp+0x40],r9
ec99:	4c 89 54 24 38       	mov    QWORD PTR [rsp+0x38],r10
ec9e:	49 8d 04 42          	lea    rax,[r10+rax*2]
eca2:	4c 89 44 24 30       	mov    QWORD PTR [rsp+0x30],r8
eca7:	48 8d 34 c5 00 00 00 	lea    rsi,[rax*8+0x0]
ecae:	00
ecaf:	0f 84 b8 06 00 00    	je     f36d <printf_parse+0x9dd>
ecb5:	e8 66 3d ff ff       	call   2a20 <realloc@plt>
ecba:	48 85 c0             	test   rax,rax
ecbd:	48 89 c1             	mov    rcx,rax
ecc0:	4c 8b 44 24 30       	mov    r8,QWORD PTR [rsp+0x30]
ecc5:	4c 8b 54 24 38       	mov    r10,QWORD PTR [rsp+0x38]
ecca:	4c 8b 4c 24 40       	mov    r9,QWORD PTR [rsp+0x40]
eccf:	0f 84 42 09 00 00    	je     f617 <printf_parse+0xc87>
ecd5:	48 8b 44 24 28       	mov    rax,QWORD PTR [rsp+0x28]
ecda:	49 3b 46 08          	cmp    rax,QWORD PTR [r14+0x8]
ecde:	49 8b 1e             	mov    rbx,QWORD PTR [r14]
ece1:	0f 84 a9 06 00 00    	je     f390 <printf_parse+0xa00>
ece7:	49 89 4e 08          	mov    QWORD PTR [r14+0x8],rcx
eceb:	e9 18 fd ff ff       	jmp    ea08 <printf_parse+0x78>
ecf0:	49 8b 4e 08          	mov    rcx,QWORD PTR [r14+0x8]
ecf4:	e9 0f fd ff ff       	jmp    ea08 <printf_parse+0x78>
ecf9:	48 8b 74 24 10       	mov    rsi,QWORD PTR [rsp+0x10]
ecfe:	b9 01 00 00 00       	mov    ecx,0x1
ed03:	49 89 6c 24 18       	mov    QWORD PTR [r12+0x18],rbp
ed08:	49 89 44 24 20       	mov    QWORD PTR [r12+0x20],rax
ed0d:	48 85 f6             	test   rsi,rsi
ed10:	48 0f 45 ce          	cmovne rcx,rsi
ed14:	48 89 4c 24 10       	mov    QWORD PTR [rsp+0x10],rcx
ed19:	0f b6 4d 01          	movzx  ecx,BYTE PTR [rbp+0x1]
ed1d:	8d 71 d0             	lea    esi,[rcx-0x30]
ed20:	40 80 fe 09          	cmp    sil,0x9
ed24:	0f 86 db 02 00 00    	jbe    f005 <printf_parse+0x675>
ed2a:	48 8b 74 24 20       	mov    rsi,QWORD PTR [rsp+0x20]
ed2f:	48 83 fe ff          	cmp    rsi,0xffffffffffffffff
ed33:	48 8d 56 01          	lea    rdx,[rsi+0x1]
ed37:	49 89 74 24 28       	mov    QWORD PTR [r12+0x28],rsi
ed3c:	0f 84 99 04 00 00    	je     f1db <printf_parse+0x84b>
ed42:	48 8b 5c 24 20       	mov    rbx,QWORD PTR [rsp+0x20]
ed47:	48 89 c5             	mov    rbp,rax
ed4a:	48 89 54 24 20       	mov    QWORD PTR [rsp+0x20],rdx
ed4f:	49 39 d9             	cmp    r9,rbx
ed52:	49 8b 4f 08          	mov    rcx,QWORD PTR [r15+0x8]
ed56:	0f 87 76 06 00 00    	ja     f3d2 <printf_parse+0xa42>
ed5c:	4d 01 c9             	add    r9,r9
ed5f:	48 8d 43 01          	lea    rax,[rbx+0x1]
ed63:	49 39 d9             	cmp    r9,rbx
ed66:	4c 0f 46 c8          	cmovbe r9,rax
ed6a:	48 b8 ff ff ff ff ff 	movabs rax,0x7ffffffffffffff
ed71:	ff ff 07
ed74:	49 39 c1             	cmp    r9,rax
ed77:	0f 87 9e 08 00 00    	ja     f61b <printf_parse+0xc8b>
ed7d:	4c 89 ce             	mov    rsi,r9
ed80:	4c 89 4c 24 40       	mov    QWORD PTR [rsp+0x40],r9
ed85:	4c 89 54 24 38       	mov    QWORD PTR [rsp+0x38],r10
ed8a:	48 c1 e6 05          	shl    rsi,0x5
ed8e:	48 39 4c 24 08       	cmp    QWORD PTR [rsp+0x8],rcx
ed93:	4c 89 44 24 30       	mov    QWORD PTR [rsp+0x30],r8
ed98:	0f 84 13 07 00 00    	je     f4b1 <printf_parse+0xb21>
ed9e:	48 89 cf             	mov    rdi,rcx
eda1:	e8 7a 3c ff ff       	call   2a20 <realloc@plt>
eda6:	49 8b 57 08          	mov    rdx,QWORD PTR [r15+0x8]
edaa:	4c 8b 44 24 30       	mov    r8,QWORD PTR [rsp+0x30]
edaf:	48 89 c1             	mov    rcx,rax
edb2:	4c 8b 54 24 38       	mov    r10,QWORD PTR [rsp+0x38]
edb7:	4c 8b 4c 24 40       	mov    r9,QWORD PTR [rsp+0x40]
edbc:	48 85 c9             	test   rcx,rcx
edbf:	0f 84 b2 08 00 00    	je     f677 <printf_parse+0xce7>
edc5:	48 39 54 24 08       	cmp    QWORD PTR [rsp+0x8],rdx
edca:	49 8b 07             	mov    rax,QWORD PTR [r15]
edcd:	0f 84 b8 07 00 00    	je     f58b <printf_parse+0xbfb>
edd3:	49 89 4f 08          	mov    QWORD PTR [r15+0x8],rcx
edd7:	48 89 c2             	mov    rdx,rax
edda:	48 c1 e2 05          	shl    rdx,0x5
edde:	48 01 ca             	add    rdx,rcx
ede1:	48 39 d8             	cmp    rax,rbx
ede4:	77 20                	ja     ee06 <printf_parse+0x476>
ede6:	66 2e 0f 1f 84 00 00 	nop    WORD PTR cs:[rax+rax*1+0x0]
eded:	00 00 00
edf0:	48 83 c0 01          	add    rax,0x1
edf4:	c7 02 00 00 00 00    	mov    DWORD PTR [rdx],0x0
edfa:	48 83 c2 20          	add    rdx,0x20
edfe:	48 39 d8             	cmp    rax,rbx
ee01:	76 ed                	jbe    edf0 <printf_parse+0x460>
ee03:	49 89 07             	mov    QWORD PTR [r15],rax
ee06:	48 c1 e3 05          	shl    rbx,0x5
ee0a:	48 8d 04 19          	lea    rax,[rcx+rbx*1]
ee0e:	8b 10                	mov    edx,DWORD PTR [rax]
ee10:	85 d2                	test   edx,edx
ee12:	0f 85 d3 04 00 00    	jne    f2eb <printf_parse+0x95b>
ee18:	c7 00 05 00 00 00    	mov    DWORD PTR [rax],0x5
ee1e:	0f b6 5d 00          	movzx  ebx,BYTE PTR [rbp+0x0]
ee22:	48 8d 55 01          	lea    rdx,[rbp+0x1]
ee26:	80 fb 2e             	cmp    bl,0x2e
ee29:	0f 85 2f fd ff ff    	jne    eb5e <printf_parse+0x1ce>
ee2f:	80 7d 01 2a          	cmp    BYTE PTR [rbp+0x1],0x2a
ee33:	49 89 6c 24 30       	mov    QWORD PTR [r12+0x30],rbp
ee38:	0f 85 80 01 00 00    	jne    efbe <printf_parse+0x62e>
ee3e:	48 8b 74 24 18       	mov    rsi,QWORD PTR [rsp+0x18]
ee43:	4c 8d 5d 02          	lea    r11,[rbp+0x2]
ee47:	b8 02 00 00 00       	mov    eax,0x2
ee4c:	4d 89 5c 24 38       	mov    QWORD PTR [r12+0x38],r11
ee51:	48 83 fe 02          	cmp    rsi,0x2
ee55:	48 0f 43 c6          	cmovae rax,rsi
ee59:	48 89 44 24 18       	mov    QWORD PTR [rsp+0x18],rax
ee5e:	0f be 45 02          	movsx  eax,BYTE PTR [rbp+0x2]
ee62:	8d 50 d0             	lea    edx,[rax-0x30]
ee65:	80 fa 09             	cmp    dl,0x9
ee68:	0f 86 8e 06 00 00    	jbe    f4fc <printf_parse+0xb6c>
ee6e:	49 8b 5c 24 40       	mov    rbx,QWORD PTR [r12+0x40]
ee73:	48 83 fb ff          	cmp    rbx,0xffffffffffffffff
ee77:	0f 84 58 06 00 00    	je     f4d5 <printf_parse+0xb45>
ee7d:	49 39 d9             	cmp    r9,rbx
ee80:	49 8b 4f 08          	mov    rcx,QWORD PTR [r15+0x8]
ee84:	0f 86 65 05 00 00    	jbe    f3ef <printf_parse+0xa5f>
ee8a:	49 8b 07             	mov    rax,QWORD PTR [r15]
ee8d:	48 89 c2             	mov    rdx,rax
ee90:	48 c1 e2 05          	shl    rdx,0x5
ee94:	48 01 ca             	add    rdx,rcx
ee97:	48 39 d8             	cmp    rax,rbx
ee9a:	77 1a                	ja     eeb6 <printf_parse+0x526>
ee9c:	0f 1f 40 00          	nop    DWORD PTR [rax+0x0]
eea0:	48 83 c0 01          	add    rax,0x1
eea4:	c7 02 00 00 00 00    	mov    DWORD PTR [rdx],0x0
eeaa:	48 83 c2 20          	add    rdx,0x20
eeae:	48 39 d8             	cmp    rax,rbx
eeb1:	76 ed                	jbe    eea0 <printf_parse+0x510>
eeb3:	49 89 07             	mov    QWORD PTR [r15],rax
eeb6:	48 c1 e3 05          	shl    rbx,0x5
eeba:	48 8d 04 19          	lea    rax,[rcx+rbx*1]
eebe:	8b 10                	mov    edx,DWORD PTR [rax]
eec0:	85 d2                	test   edx,edx
eec2:	0f 85 12 05 00 00    	jne    f3da <printf_parse+0xa4a>
eec8:	c7 00 05 00 00 00    	mov    DWORD PTR [rax],0x5
eece:	4c 89 dd             	mov    rbp,r11
eed1:	41 0f b6 1b          	movzx  ebx,BYTE PTR [r11]
eed5:	e9 84 fc ff ff       	jmp    eb5e <printf_parse+0x1ce>
eeda:	48 89 e8             	mov    rax,rbp
eedd:	0f 1f 00             	nop    DWORD PTR [rax]
eee0:	48 83 c0 01          	add    rax,0x1
eee4:	0f b6 10             	movzx  edx,BYTE PTR [rax]
eee7:	8d 4a d0             	lea    ecx,[rdx-0x30]
eeea:	80 f9 09             	cmp    cl,0x9
eeed:	76 f1                	jbe    eee0 <printf_parse+0x550>
eeef:	80 fa 24             	cmp    dl,0x24
eef2:	4d 89 c5             	mov    r13,r8
eef5:	0f 85 e3 fb ff ff    	jne    eade <printf_parse+0x14e>
eefb:	31 d2                	xor    edx,edx
eefd:	0f be c3             	movsx  eax,bl
ef00:	48 bf 99 99 99 99 99 	movabs rdi,0x1999999999999999
ef07:	99 99 19
ef0a:	4c 89 c6             	mov    rsi,r8
ef0d:	83 e8 30             	sub    eax,0x30
ef10:	48 39 fa             	cmp    rdx,rdi
ef13:	48 98                	cdqe
ef15:	77 07                	ja     ef1e <printf_parse+0x58e>
ef17:	48 8d 34 92          	lea    rsi,[rdx+rdx*4]
ef1b:	48 01 f6             	add    rsi,rsi
ef1e:	48 89 e9             	mov    rcx,rbp
ef21:	48 01 f0             	add    rax,rsi
ef24:	0f b6 5d 01          	movzx  ebx,BYTE PTR [rbp+0x1]
ef28:	40 0f 92 c6          	setb   sil
ef2c:	48 83 c5 01          	add    rbp,0x1
ef30:	48 89 c2             	mov    rdx,rax
ef33:	40 0f b6 f6          	movzx  esi,sil
ef37:	48 85 f6             	test   rsi,rsi
ef3a:	8d 7b d0             	lea    edi,[rbx-0x30]
ef3d:	0f 85 8b 03 00 00    	jne    f2ce <printf_parse+0x93e>
ef43:	40 80 ff 09          	cmp    dil,0x9
ef47:	76 b4                	jbe    eefd <printf_parse+0x56d>
ef49:	49 89 c5             	mov    r13,rax
ef4c:	49 83 ed 01          	sub    r13,0x1
ef50:	49 83 fd fd          	cmp    r13,0xfffffffffffffffd
ef54:	0f 87 81 02 00 00    	ja     f1db <printf_parse+0x84b>
ef5a:	48 8d 69 02          	lea    rbp,[rcx+0x2]
ef5e:	0f b6 59 02          	movzx  ebx,BYTE PTR [rcx+0x2]
ef62:	e9 77 fb ff ff       	jmp    eade <printf_parse+0x14e>
ef67:	49 89 6c 24 18       	mov    QWORD PTR [r12+0x18],rbp
ef6c:	0f b6 7d 00          	movzx  edi,BYTE PTR [rbp+0x0]
ef70:	48 89 ee             	mov    rsi,rbp
ef73:	8d 4f d0             	lea    ecx,[rdi-0x30]
ef76:	80 f9 09             	cmp    cl,0x9
ef79:	76 0c                	jbe    ef87 <printf_parse+0x5f7>
ef7b:	eb 33                	jmp    efb0 <printf_parse+0x620>
ef7d:	0f 1f 00             	nop    DWORD PTR [rax]
ef80:	48 89 c5             	mov    rbp,rax
ef83:	48 83 c0 01          	add    rax,0x1
ef87:	0f b6 38             	movzx  edi,BYTE PTR [rax]
ef8a:	8d 57 d0             	lea    edx,[rdi-0x30]
ef8d:	80 fa 09             	cmp    dl,0x9
ef90:	76 ee                	jbe    ef80 <printf_parse+0x5f0>
ef92:	48 89 c1             	mov    rcx,rax
ef95:	48 8d 55 02          	lea    rdx,[rbp+0x2]
ef99:	48 89 c5             	mov    rbp,rax
ef9c:	48 29 f1             	sub    rcx,rsi
ef9f:	48 8b 74 24 10       	mov    rsi,QWORD PTR [rsp+0x10]
efa4:	48 39 ce             	cmp    rsi,rcx
efa7:	48 0f 43 ce          	cmovae rcx,rsi
efab:	48 89 4c 24 10       	mov    QWORD PTR [rsp+0x10],rcx
efb0:	49 89 6c 24 20       	mov    QWORD PTR [r12+0x20],rbp
efb5:	0f b6 5d 00          	movzx  ebx,BYTE PTR [rbp+0x0]
efb9:	e9 97 fb ff ff       	jmp    eb55 <printf_parse+0x1c5>
efbe:	0f b6 45 01          	movzx  eax,BYTE PTR [rbp+0x1]
efc2:	83 e8 30             	sub    eax,0x30
efc5:	3c 09                	cmp    al,0x9
efc7:	77 15                	ja     efde <printf_parse+0x64e>
efc9:	0f 1f 80 00 00 00 00 	nop    DWORD PTR [rax+0x0]
efd0:	48 83 c2 01          	add    rdx,0x1
efd4:	0f b6 02             	movzx  eax,BYTE PTR [rdx]
efd7:	83 e8 30             	sub    eax,0x30
efda:	3c 09                	cmp    al,0x9
efdc:	76 f2                	jbe    efd0 <printf_parse+0x640>
efde:	48 8b 74 24 18       	mov    rsi,QWORD PTR [rsp+0x18]
efe3:	48 89 d0             	mov    rax,rdx
efe6:	49 89 54 24 38       	mov    QWORD PTR [r12+0x38],rdx
efeb:	48 29 e8             	sub    rax,rbp
efee:	0f b6 1a             	movzx  ebx,BYTE PTR [rdx]
eff1:	48 89 d5             	mov    rbp,rdx
eff4:	48 39 c6             	cmp    rsi,rax
eff7:	48 0f 43 c6          	cmovae rax,rsi
effb:	48 89 44 24 18       	mov    QWORD PTR [rsp+0x18],rax
f000:	e9 59 fb ff ff       	jmp    eb5e <printf_parse+0x1ce>
f005:	48 89 c6             	mov    rsi,rax
f008:	48 83 c6 01          	add    rsi,0x1
f00c:	0f b6 3e             	movzx  edi,BYTE PTR [rsi]
f00f:	44 8d 5f d0          	lea    r11d,[rdi-0x30]
f013:	41 80 fb 09          	cmp    r11b,0x9
f017:	76 ef                	jbe    f008 <printf_parse+0x678>
f019:	40 80 ff 24          	cmp    dil,0x24
f01d:	0f 85 07 fd ff ff    	jne    ed2a <printf_parse+0x39a>
f023:	31 f6                	xor    esi,esi
f025:	0f be c1             	movsx  eax,cl
f028:	48 bf 99 99 99 99 99 	movabs rdi,0x1999999999999999
f02f:	99 99 19
f032:	4c 89 c1             	mov    rcx,r8
f035:	83 e8 30             	sub    eax,0x30
f038:	48 39 fe             	cmp    rsi,rdi
f03b:	48 98                	cdqe
f03d:	77 07                	ja     f046 <printf_parse+0x6b6>
f03f:	48 8d 0c b6          	lea    rcx,[rsi+rsi*4]
f043:	48 01 c9             	add    rcx,rcx
f046:	48 89 d5             	mov    rbp,rdx
f049:	45 31 db             	xor    r11d,r11d
f04c:	48 01 c8             	add    rax,rcx
f04f:	0f b6 4a 01          	movzx  ecx,BYTE PTR [rdx+0x1]
f053:	41 0f 92 c3          	setb   r11b
f057:	48 83 c2 01          	add    rdx,0x1
f05b:	48 89 c6             	mov    rsi,rax
f05e:	4d 85 db             	test   r11,r11
f061:	8d 79 d0             	lea    edi,[rcx-0x30]
f064:	0f 85 04 05 00 00    	jne    f56e <printf_parse+0xbde>
f06a:	40 80 ff 09          	cmp    dil,0x9
f06e:	76 b5                	jbe    f025 <printf_parse+0x695>
f070:	48 8d 58 ff          	lea    rbx,[rax-0x1]
f074:	48 83 fb fd          	cmp    rbx,0xfffffffffffffffd
f078:	0f 87 5d 01 00 00    	ja     f1db <printf_parse+0x84b>
f07e:	49 89 5c 24 28       	mov    QWORD PTR [r12+0x28],rbx
f083:	48 83 c5 02          	add    rbp,0x2
f087:	e9 c3 fc ff ff       	jmp    ed4f <printf_parse+0x3bf>
f08c:	83 f8 0f             	cmp    eax,0xf
f08f:	41 bb 16 00 00 00    	mov    r11d,0x16
f095:	0f 8f 4d fb ff ff    	jg     ebe8 <printf_parse+0x258>
f09b:	a8 04                	test   al,0x4
f09d:	0f 85 45 fb ff ff    	jne    ebe8 <printf_parse+0x258>
f0a3:	83 f8 07             	cmp    eax,0x7
f0a6:	41 bb 15 00 00 00    	mov    r11d,0x15
f0ac:	0f 8f 36 fb ff ff    	jg     ebe8 <printf_parse+0x258>
f0b2:	a8 02                	test   al,0x2
f0b4:	41 bb 12 00 00 00    	mov    r11d,0x12
f0ba:	0f 85 28 fb ff ff    	jne    ebe8 <printf_parse+0x258>
f0c0:	45 31 db             	xor    r11d,r11d
f0c3:	a8 01                	test   al,0x1
f0c5:	41 0f 94 c3          	sete   r11b
f0c9:	41 83 c3 13          	add    r11d,0x13
f0cd:	e9 16 fb ff ff       	jmp    ebe8 <printf_parse+0x258>
f0d2:	66 0f 1f 44 00 00    	nop    WORD PTR [rax+rax*1+0x0]
f0d8:	45 31 db             	xor    r11d,r11d
f0db:	83 f8 07             	cmp    eax,0x7
f0de:	41 0f 9f c3          	setg   r11b
f0e2:	41 83 c3 0d          	add    r11d,0xd
f0e6:	e9 fd fa ff ff       	jmp    ebe8 <printf_parse+0x258>
f0eb:	83 f8 0f             	cmp    eax,0xf
f0ee:	41 bb 09 00 00 00    	mov    r11d,0x9
f0f4:	0f 8f ee fa ff ff    	jg     ebe8 <printf_parse+0x258>
f0fa:	a8 04                	test   al,0x4
f0fc:	0f 85 e6 fa ff ff    	jne    ebe8 <printf_parse+0x258>
f102:	83 f8 07             	cmp    eax,0x7
f105:	41 bb 07 00 00 00    	mov    r11d,0x7
f10b:	0f 8f d7 fa ff ff    	jg     ebe8 <printf_parse+0x258>
f111:	a8 02                	test   al,0x2
f113:	41 bb 01 00 00 00    	mov    r11d,0x1
f119:	0f 85 c9 fa ff ff    	jne    ebe8 <printf_parse+0x258>
f11f:	83 e0 01             	and    eax,0x1
f122:	83 f8 01             	cmp    eax,0x1
f125:	45 19 db             	sbb    r11d,r11d
f128:	41 83 e3 02          	and    r11d,0x2
f12c:	41 83 c3 03          	add    r11d,0x3
f130:	e9 b3 fa ff ff       	jmp    ebe8 <printf_parse+0x258>
f135:	0f 1f 00             	nop    DWORD PTR [rax]
f138:	45 31 db             	xor    r11d,r11d
f13b:	83 f8 07             	cmp    eax,0x7
f13e:	41 0f 9f c3          	setg   r11b
f142:	41 83 c3 0f          	add    r11d,0xf
f146:	e9 9d fa ff ff       	jmp    ebe8 <printf_parse+0x258>
f14b:	83 f8 0f             	cmp    eax,0xf
f14e:	41 bb 0c 00 00 00    	mov    r11d,0xc
f154:	0f 8f 8e fa ff ff    	jg     ebe8 <printf_parse+0x258>
f15a:	45 31 db             	xor    r11d,r11d
f15d:	a8 04                	test   al,0x4
f15f:	41 0f 95 c3          	setne  r11b
f163:	41 83 c3 0b          	add    r11d,0xb
f167:	e9 7c fa ff ff       	jmp    ebe8 <printf_parse+0x258>
f16c:	41 bb 0e 00 00 00    	mov    r11d,0xe
f172:	bb 63 00 00 00       	mov    ebx,0x63
f177:	e9 6c fa ff ff       	jmp    ebe8 <printf_parse+0x258>
f17c:	83 f8 0f             	cmp    eax,0xf
f17f:	41 bb 0a 00 00 00    	mov    r11d,0xa
f185:	0f 8f 5d fa ff ff    	jg     ebe8 <printf_parse+0x258>
f18b:	a8 04                	test   al,0x4
f18d:	0f 85 55 fa ff ff    	jne    ebe8 <printf_parse+0x258>
f193:	83 f8 07             	cmp    eax,0x7
f196:	41 bb 08 00 00 00    	mov    r11d,0x8
f19c:	0f 8f 46 fa ff ff    	jg     ebe8 <printf_parse+0x258>
f1a2:	a8 02                	test   al,0x2
f1a4:	41 bb 02 00 00 00    	mov    r11d,0x2
f1aa:	0f 85 38 fa ff ff    	jne    ebe8 <printf_parse+0x258>
f1b0:	83 e0 01             	and    eax,0x1
f1b3:	83 f8 01             	cmp    eax,0x1
f1b6:	45 19 db             	sbb    r11d,r11d
f1b9:	41 83 e3 02          	and    r11d,0x2
f1bd:	41 83 c3 04          	add    r11d,0x4
f1c1:	e9 22 fa ff ff       	jmp    ebe8 <printf_parse+0x258>
f1c6:	66 2e 0f 1f 84 00 00 	nop    WORD PTR cs:[rax+rax*1+0x0]
f1cd:	00 00 00
f1d0:	41 bb 11 00 00 00    	mov    r11d,0x11
f1d6:	e9 0d fa ff ff       	jmp    ebe8 <printf_parse+0x258>
f1db:	49 8b 4f 08          	mov    rcx,QWORD PTR [r15+0x8]
f1df:	48 39 4c 24 08       	cmp    QWORD PTR [rsp+0x8],rcx
f1e4:	74 08                	je     f1ee <printf_parse+0x85e>
f1e6:	48 89 cf             	mov    rdi,rcx
f1e9:	e8 22 35 ff ff       	call   2710 <free@plt>
f1ee:	49 8b 7e 08          	mov    rdi,QWORD PTR [r14+0x8]
f1f2:	48 39 7c 24 28       	cmp    QWORD PTR [rsp+0x28],rdi
f1f7:	74 05                	je     f1fe <printf_parse+0x86e>
f1f9:	e8 12 35 ff ff       	call   2710 <free@plt>
f1fe:	e8 4d 35 ff ff       	call   2750 <__errno_location@plt>
f203:	c7 00 16 00 00 00    	mov    DWORD PTR [rax],0x16
f209:	b8 ff ff ff ff       	mov    eax,0xffffffff
f20e:	e9 1f f8 ff ff       	jmp    ea32 <printf_parse+0xa2>
f213:	44 39 da             	cmp    edx,r11d
f216:	0f 84 2f fa ff ff    	je     ec4b <printf_parse+0x2bb>
f21c:	eb c1                	jmp    f1df <printf_parse+0x84f>
f21e:	66 90                	xchg   ax,ax
f220:	4d 01 c9             	add    r9,r9
f223:	49 8d 45 01          	lea    rax,[r13+0x1]
f227:	4d 39 e9             	cmp    r9,r13
f22a:	4c 0f 46 c8          	cmovbe r9,rax
f22e:	48 b8 ff ff ff ff ff 	movabs rax,0x7ffffffffffffff
f235:	ff ff 07
f238:	49 39 c1             	cmp    r9,rax
f23b:	0f 87 da 03 00 00    	ja     f61b <printf_parse+0xc8b>
f241:	4c 89 ce             	mov    rsi,r9
f244:	4c 89 4c 24 48       	mov    QWORD PTR [rsp+0x48],r9
f249:	4c 89 54 24 40       	mov    QWORD PTR [rsp+0x40],r10
f24e:	48 c1 e6 05          	shl    rsi,0x5
f252:	48 39 4c 24 08       	cmp    QWORD PTR [rsp+0x8],rcx
f257:	4c 89 44 24 38       	mov    QWORD PTR [rsp+0x38],r8
f25c:	44 89 5c 24 30       	mov    DWORD PTR [rsp+0x30],r11d
f261:	0f 84 9a 00 00 00    	je     f301 <printf_parse+0x971>
f267:	48 89 cf             	mov    rdi,rcx
f26a:	e8 b1 37 ff ff       	call   2a20 <realloc@plt>
f26f:	48 85 c0             	test   rax,rax
f272:	48 89 c1             	mov    rcx,rax
f275:	44 8b 5c 24 30       	mov    r11d,DWORD PTR [rsp+0x30]
f27a:	4c 8b 44 24 38       	mov    r8,QWORD PTR [rsp+0x38]
f27f:	4c 8b 54 24 40       	mov    r10,QWORD PTR [rsp+0x40]
f284:	4c 8b 4c 24 48       	mov    r9,QWORD PTR [rsp+0x48]
f289:	0f 84 88 03 00 00    	je     f617 <printf_parse+0xc87>
f28f:	48 8b 44 24 08       	mov    rax,QWORD PTR [rsp+0x8]
f294:	49 3b 47 08          	cmp    rax,QWORD PTR [r15+0x8]
f298:	0f 84 8b 00 00 00    	je     f329 <printf_parse+0x999>
f29e:	49 89 4f 08          	mov    QWORD PTR [r15+0x8],rcx
f2a2:	e9 5d f9 ff ff       	jmp    ec04 <printf_parse+0x274>
f2a7:	48 8b 74 24 20       	mov    rsi,QWORD PTR [rsp+0x20]
f2ac:	48 83 fe ff          	cmp    rsi,0xffffffffffffffff
f2b0:	48 8d 46 01          	lea    rax,[rsi+0x1]
f2b4:	49 89 74 24 50       	mov    QWORD PTR [r12+0x50],rsi
f2b9:	0f 84 1c ff ff ff    	je     f1db <printf_parse+0x84b>
f2bf:	4c 8b 6c 24 20       	mov    r13,QWORD PTR [rsp+0x20]
f2c4:	48 89 44 24 20       	mov    QWORD PTR [rsp+0x20],rax
f2c9:	e9 29 f9 ff ff       	jmp    ebf7 <printf_parse+0x267>
f2ce:	40 80 ff 09          	cmp    dil,0x9
f2d2:	0f 87 03 ff ff ff    	ja     f1db <printf_parse+0x84b>
f2d8:	0f be c3             	movsx  eax,bl
f2db:	4c 89 c6             	mov    rsi,r8
f2de:	48 89 e9             	mov    rcx,rbp
f2e1:	83 e8 30             	sub    eax,0x30
f2e4:	48 98                	cdqe
f2e6:	e9 36 fc ff ff       	jmp    ef21 <printf_parse+0x591>
f2eb:	83 fa 05             	cmp    edx,0x5
f2ee:	0f 85 eb fe ff ff    	jne    f1df <printf_parse+0x84f>
f2f4:	0f b6 5d 00          	movzx  ebx,BYTE PTR [rbp+0x0]
f2f8:	48 8d 55 01          	lea    rdx,[rbp+0x1]
f2fc:	e9 54 f8 ff ff       	jmp    eb55 <printf_parse+0x1c5>
f301:	48 89 f7             	mov    rdi,rsi
f304:	e8 c7 36 ff ff       	call   29d0 <malloc@plt>
f309:	48 85 c0             	test   rax,rax
f30c:	48 89 c1             	mov    rcx,rax
f30f:	44 8b 5c 24 30       	mov    r11d,DWORD PTR [rsp+0x30]
f314:	4c 8b 44 24 38       	mov    r8,QWORD PTR [rsp+0x38]
f319:	4c 8b 54 24 40       	mov    r10,QWORD PTR [rsp+0x40]
f31e:	4c 8b 4c 24 48       	mov    r9,QWORD PTR [rsp+0x48]
f323:	0f 84 63 01 00 00    	je     f48c <printf_parse+0xafc>
f329:	49 8b 17             	mov    rdx,QWORD PTR [r15]
f32c:	48 8b 74 24 08       	mov    rsi,QWORD PTR [rsp+0x8]
f331:	48 89 cf             	mov    rdi,rcx
f334:	4c 89 4c 24 48       	mov    QWORD PTR [rsp+0x48],r9
f339:	4c 89 54 24 40       	mov    QWORD PTR [rsp+0x40],r10
f33e:	4c 89 44 24 38       	mov    QWORD PTR [rsp+0x38],r8
f343:	44 89 5c 24 30       	mov    DWORD PTR [rsp+0x30],r11d
f348:	48 c1 e2 05          	shl    rdx,0x5
f34c:	e8 1f 36 ff ff       	call   2970 <memcpy@plt>
f351:	4c 8b 4c 24 48       	mov    r9,QWORD PTR [rsp+0x48]
f356:	4c 8b 54 24 40       	mov    r10,QWORD PTR [rsp+0x40]
f35b:	48 89 c1             	mov    rcx,rax
f35e:	4c 8b 44 24 38       	mov    r8,QWORD PTR [rsp+0x38]
f363:	44 8b 5c 24 30       	mov    r11d,DWORD PTR [rsp+0x30]
f368:	e9 31 ff ff ff       	jmp    f29e <printf_parse+0x90e>
f36d:	48 89 f7             	mov    rdi,rsi
f370:	e8 5b 36 ff ff       	call   29d0 <malloc@plt>
f375:	48 85 c0             	test   rax,rax
f378:	48 89 c1             	mov    rcx,rax
f37b:	4c 8b 44 24 30       	mov    r8,QWORD PTR [rsp+0x30]
f380:	4c 8b 54 24 38       	mov    r10,QWORD PTR [rsp+0x38]
f385:	4c 8b 4c 24 40       	mov    r9,QWORD PTR [rsp+0x40]
f38a:	0f 84 e9 00 00 00    	je     f479 <printf_parse+0xae9>
f390:	48 8d 04 9b          	lea    rax,[rbx+rbx*4]
f394:	48 8b 74 24 28       	mov    rsi,QWORD PTR [rsp+0x28]
f399:	48 89 cf             	mov    rdi,rcx
f39c:	4c 89 4c 24 40       	mov    QWORD PTR [rsp+0x40],r9
f3a1:	4c 89 54 24 38       	mov    QWORD PTR [rsp+0x38],r10
f3a6:	48 8d 14 43          	lea    rdx,[rbx+rax*2]
f3aa:	4c 89 44 24 30       	mov    QWORD PTR [rsp+0x30],r8
f3af:	48 c1 e2 03          	shl    rdx,0x3
f3b3:	e8 b8 35 ff ff       	call   2970 <memcpy@plt>
f3b8:	49 8b 1e             	mov    rbx,QWORD PTR [r14]
f3bb:	48 89 c1             	mov    rcx,rax
f3be:	4c 8b 4c 24 40       	mov    r9,QWORD PTR [rsp+0x40]
f3c3:	4c 8b 54 24 38       	mov    r10,QWORD PTR [rsp+0x38]
f3c8:	4c 8b 44 24 30       	mov    r8,QWORD PTR [rsp+0x30]
f3cd:	e9 15 f9 ff ff       	jmp    ece7 <printf_parse+0x357>
f3d2:	49 8b 07             	mov    rax,QWORD PTR [r15]
f3d5:	e9 fd f9 ff ff       	jmp    edd7 <printf_parse+0x447>
f3da:	83 fa 05             	cmp    edx,0x5
f3dd:	0f 85 fc fd ff ff    	jne    f1df <printf_parse+0x84f>
f3e3:	41 0f b6 1b          	movzx  ebx,BYTE PTR [r11]
f3e7:	4c 89 dd             	mov    rbp,r11
f3ea:	e9 6f f7 ff ff       	jmp    eb5e <printf_parse+0x1ce>
f3ef:	4d 01 c9             	add    r9,r9
f3f2:	48 8d 43 01          	lea    rax,[rbx+0x1]
f3f6:	49 39 d9             	cmp    r9,rbx
f3f9:	4c 0f 46 c8          	cmovbe r9,rax
f3fd:	48 b8 ff ff ff ff ff 	movabs rax,0x7ffffffffffffff
f404:	ff ff 07
f407:	49 39 c1             	cmp    r9,rax
f40a:	0f 87 0b 02 00 00    	ja     f61b <printf_parse+0xc8b>
f410:	4c 89 ce             	mov    rsi,r9
f413:	4c 89 4c 24 48       	mov    QWORD PTR [rsp+0x48],r9
f418:	4c 89 54 24 40       	mov    QWORD PTR [rsp+0x40],r10
f41d:	48 c1 e6 05          	shl    rsi,0x5
f421:	48 39 4c 24 08       	cmp    QWORD PTR [rsp+0x8],rcx
f426:	4c 89 44 24 38       	mov    QWORD PTR [rsp+0x38],r8
f42b:	4c 89 5c 24 30       	mov    QWORD PTR [rsp+0x30],r11
f430:	0f 84 b8 01 00 00    	je     f5ee <printf_parse+0xc5e>
f436:	48 89 cf             	mov    rdi,rcx
f439:	e8 e2 35 ff ff       	call   2a20 <realloc@plt>
f43e:	49 8b 57 08          	mov    rdx,QWORD PTR [r15+0x8]
f442:	4c 8b 5c 24 30       	mov    r11,QWORD PTR [rsp+0x30]
f447:	48 89 c1             	mov    rcx,rax
f44a:	4c 8b 44 24 38       	mov    r8,QWORD PTR [rsp+0x38]
f44f:	4c 8b 54 24 40       	mov    r10,QWORD PTR [rsp+0x40]
f454:	4c 8b 4c 24 48       	mov    r9,QWORD PTR [rsp+0x48]
f459:	48 85 c9             	test   rcx,rcx
f45c:	0f 84 15 02 00 00    	je     f677 <printf_parse+0xce7>
f462:	48 39 54 24 08       	cmp    QWORD PTR [rsp+0x8],rdx
f467:	49 8b 07             	mov    rax,QWORD PTR [r15]
f46a:	0f 84 c0 01 00 00    	je     f630 <printf_parse+0xca0>
f470:	49 89 4f 08          	mov    QWORD PTR [r15+0x8],rcx
f474:	e9 14 fa ff ff       	jmp    ee8d <printf_parse+0x4fd>
f479:	49 8b 4f 08          	mov    rcx,QWORD PTR [r15+0x8]
f47d:	48 39 4c 24 08       	cmp    QWORD PTR [rsp+0x8],rcx
f482:	74 18                	je     f49c <printf_parse+0xb0c>
f484:	48 89 cf             	mov    rdi,rcx
f487:	e8 84 32 ff ff       	call   2710 <free@plt>
f48c:	49 8b 7e 08          	mov    rdi,QWORD PTR [r14+0x8]
f490:	48 39 7c 24 28       	cmp    QWORD PTR [rsp+0x28],rdi
f495:	74 05                	je     f49c <printf_parse+0xb0c>
f497:	e8 74 32 ff ff       	call   2710 <free@plt>
f49c:	e8 af 32 ff ff       	call   2750 <__errno_location@plt>
f4a1:	c7 00 0c 00 00 00    	mov    DWORD PTR [rax],0xc
f4a7:	b8 ff ff ff ff       	mov    eax,0xffffffff
f4ac:	e9 81 f5 ff ff       	jmp    ea32 <printf_parse+0xa2>
f4b1:	48 89 f7             	mov    rdi,rsi
f4b4:	e8 17 35 ff ff       	call   29d0 <malloc@plt>
f4b9:	48 8b 54 24 08       	mov    rdx,QWORD PTR [rsp+0x8]
f4be:	48 89 c1             	mov    rcx,rax
f4c1:	4c 8b 4c 24 40       	mov    r9,QWORD PTR [rsp+0x40]
f4c6:	4c 8b 54 24 38       	mov    r10,QWORD PTR [rsp+0x38]
f4cb:	4c 8b 44 24 30       	mov    r8,QWORD PTR [rsp+0x30]
f4d0:	e9 e7 f8 ff ff       	jmp    edbc <printf_parse+0x42c>
f4d5:	48 8b 74 24 20       	mov    rsi,QWORD PTR [rsp+0x20]
f4da:	48 83 fe ff          	cmp    rsi,0xffffffffffffffff
f4de:	48 8d 46 01          	lea    rax,[rsi+0x1]
f4e2:	49 89 74 24 40       	mov    QWORD PTR [r12+0x40],rsi
f4e7:	0f 84 ee fc ff ff    	je     f1db <printf_parse+0x84b>
f4ed:	48 8b 5c 24 20       	mov    rbx,QWORD PTR [rsp+0x20]
f4f2:	48 89 44 24 20       	mov    QWORD PTR [rsp+0x20],rax
f4f7:	e9 81 f9 ff ff       	jmp    ee7d <printf_parse+0x4ed>
f4fc:	4c 89 da             	mov    rdx,r11
f4ff:	48 83 c2 01          	add    rdx,0x1
f503:	0f b6 0a             	movzx  ecx,BYTE PTR [rdx]
f506:	8d 71 d0             	lea    esi,[rcx-0x30]
f509:	40 80 fe 09          	cmp    sil,0x9
f50d:	76 f0                	jbe    f4ff <printf_parse+0xb6f>
f50f:	80 f9 24             	cmp    cl,0x24
f512:	0f 85 56 f9 ff ff    	jne    ee6e <printf_parse+0x4de>
f518:	31 c9                	xor    ecx,ecx
f51a:	48 be 99 99 99 99 99 	movabs rsi,0x1999999999999999
f521:	99 99 19
f524:	83 e8 30             	sub    eax,0x30
f527:	4c 89 c2             	mov    rdx,r8
f52a:	48 39 f1             	cmp    rcx,rsi
f52d:	48 98                	cdqe
f52f:	77 07                	ja     f538 <printf_parse+0xba8>
f531:	48 8d 14 89          	lea    rdx,[rcx+rcx*4]
f535:	48 01 d2             	add    rdx,rdx
f538:	4c 89 de             	mov    rsi,r11
f53b:	31 db                	xor    ebx,ebx
f53d:	48 01 c2             	add    rdx,rax
f540:	41 0f be 43 01       	movsx  eax,BYTE PTR [r11+0x1]
f545:	0f 92 c3             	setb   bl
f548:	49 83 c3 01          	add    r11,0x1
f54c:	48 89 d1             	mov    rcx,rdx
f54f:	48 85 db             	test   rbx,rbx
f552:	8d 78 d0             	lea    edi,[rax-0x30]
f555:	74 71                	je     f5c8 <printf_parse+0xc38>
f557:	40 80 ff 09          	cmp    dil,0x9
f55b:	0f 87 7a fc ff ff    	ja     f1db <printf_parse+0x84b>
f561:	83 e8 30             	sub    eax,0x30
f564:	4c 89 c2             	mov    rdx,r8
f567:	4c 89 de             	mov    rsi,r11
f56a:	48 98                	cdqe
f56c:	eb cd                	jmp    f53b <printf_parse+0xbab>
f56e:	40 80 ff 09          	cmp    dil,0x9
f572:	0f 87 63 fc ff ff    	ja     f1db <printf_parse+0x84b>
f578:	0f be c1             	movsx  eax,cl
f57b:	48 89 d5             	mov    rbp,rdx
f57e:	4c 89 c1             	mov    rcx,r8
f581:	83 e8 30             	sub    eax,0x30
f584:	48 98                	cdqe
f586:	e9 be fa ff ff       	jmp    f049 <printf_parse+0x6b9>
f58b:	48 8b 74 24 08       	mov    rsi,QWORD PTR [rsp+0x8]
f590:	48 c1 e0 05          	shl    rax,0x5
f594:	48 89 cf             	mov    rdi,rcx
f597:	48 89 c2             	mov    rdx,rax
f59a:	4c 89 4c 24 40       	mov    QWORD PTR [rsp+0x40],r9
f59f:	4c 89 54 24 38       	mov    QWORD PTR [rsp+0x38],r10
f5a4:	4c 89 44 24 30       	mov    QWORD PTR [rsp+0x30],r8
f5a9:	e8 c2 33 ff ff       	call   2970 <memcpy@plt>
f5ae:	4c 8b 4c 24 40       	mov    r9,QWORD PTR [rsp+0x40]
f5b3:	48 89 c1             	mov    rcx,rax
f5b6:	4c 8b 54 24 38       	mov    r10,QWORD PTR [rsp+0x38]
f5bb:	49 8b 07             	mov    rax,QWORD PTR [r15]
f5be:	4c 8b 44 24 30       	mov    r8,QWORD PTR [rsp+0x30]
f5c3:	e9 0b f8 ff ff       	jmp    edd3 <printf_parse+0x443>
f5c8:	40 80 ff 09          	cmp    dil,0x9
f5cc:	0f 86 48 ff ff ff    	jbe    f51a <printf_parse+0xb8a>
f5d2:	48 8d 5a ff          	lea    rbx,[rdx-0x1]
f5d6:	48 83 fb fd          	cmp    rbx,0xfffffffffffffffd
f5da:	0f 87 fb fb ff ff    	ja     f1db <printf_parse+0x84b>
f5e0:	49 89 5c 24 40       	mov    QWORD PTR [r12+0x40],rbx
f5e5:	4c 8d 5e 02          	lea    r11,[rsi+0x2]
f5e9:	e9 8f f8 ff ff       	jmp    ee7d <printf_parse+0x4ed>
f5ee:	48 89 f7             	mov    rdi,rsi
f5f1:	e8 da 33 ff ff       	call   29d0 <malloc@plt>
f5f6:	48 8b 54 24 08       	mov    rdx,QWORD PTR [rsp+0x8]
f5fb:	48 89 c1             	mov    rcx,rax
f5fe:	4c 8b 4c 24 48       	mov    r9,QWORD PTR [rsp+0x48]
f603:	4c 8b 54 24 40       	mov    r10,QWORD PTR [rsp+0x40]
f608:	4c 8b 44 24 38       	mov    r8,QWORD PTR [rsp+0x38]
f60d:	4c 8b 5c 24 30       	mov    r11,QWORD PTR [rsp+0x30]
f612:	e9 42 fe ff ff       	jmp    f459 <printf_parse+0xac9>
f617:	49 8b 4f 08          	mov    rcx,QWORD PTR [r15+0x8]
f61b:	48 39 4c 24 08       	cmp    QWORD PTR [rsp+0x8],rcx
f620:	0f 85 5e fe ff ff    	jne    f484 <printf_parse+0xaf4>
f626:	e9 61 fe ff ff       	jmp    f48c <printf_parse+0xafc>
f62b:	0f 1f 44 00 00       	nop    DWORD PTR [rax+rax*1+0x0]
f630:	48 8b 74 24 08       	mov    rsi,QWORD PTR [rsp+0x8]
f635:	48 c1 e0 05          	shl    rax,0x5
f639:	48 89 cf             	mov    rdi,rcx
f63c:	48 89 c2             	mov    rdx,rax
f63f:	4c 89 4c 24 48       	mov    QWORD PTR [rsp+0x48],r9
f644:	4c 89 54 24 40       	mov    QWORD PTR [rsp+0x40],r10
f649:	4c 89 44 24 38       	mov    QWORD PTR [rsp+0x38],r8
f64e:	4c 89 5c 24 30       	mov    QWORD PTR [rsp+0x30],r11
f653:	e8 18 33 ff ff       	call   2970 <memcpy@plt>
f658:	4c 8b 4c 24 48       	mov    r9,QWORD PTR [rsp+0x48]
f65d:	48 89 c1             	mov    rcx,rax
f660:	4c 8b 54 24 40       	mov    r10,QWORD PTR [rsp+0x40]
f665:	49 8b 07             	mov    rax,QWORD PTR [r15]
f668:	4c 8b 44 24 38       	mov    r8,QWORD PTR [rsp+0x38]
f66d:	4c 8b 5c 24 30       	mov    r11,QWORD PTR [rsp+0x30]
f672:	e9 f9 fd ff ff       	jmp    f470 <printf_parse+0xae0>
f677:	48 89 d1             	mov    rcx,rdx
f67a:	eb 9f                	jmp    f61b <printf_parse+0xc8b>
f67c:	0f 1f 40 00          	nop    DWORD PTR [rax+0x0]

000000000000f680 <__libc_csu_init>:
f680:	41 57                	push   r15
f682:	41 56                	push   r14
f684:	49 89 d7             	mov    r15,rdx
f687:	41 55                	push   r13
f689:	41 54                	push   r12
f68b:	4c 8d 25 5e 4a 20 00 	lea    r12,[rip+0x204a5e]        # 2140f0 <__frame_dummy_init_array_entry>
f692:	55                   	push   rbp
f693:	48 8d 2d 5e 4a 20 00 	lea    rbp,[rip+0x204a5e]        # 2140f8 <__init_array_end>
f69a:	53                   	push   rbx
f69b:	41 89 fd             	mov    r13d,edi
f69e:	49 89 f6             	mov    r14,rsi
f6a1:	4c 29 e5             	sub    rbp,r12
f6a4:	48 83 ec 08          	sub    rsp,0x8
f6a8:	48 c1 fd 03          	sar    rbp,0x3
f6ac:	e8 ff 2f ff ff       	call   26b0 <_init>
f6b1:	48 85 ed             	test   rbp,rbp
f6b4:	74 20                	je     f6d6 <__libc_csu_init+0x56>
f6b6:	31 db                	xor    ebx,ebx
f6b8:	0f 1f 84 00 00 00 00 	nop    DWORD PTR [rax+rax*1+0x0]
f6bf:	00
f6c0:	4c 89 fa             	mov    rdx,r15
f6c3:	4c 89 f6             	mov    rsi,r14
f6c6:	44 89 ef             	mov    edi,r13d
f6c9:	41 ff 14 dc          	call   QWORD PTR [r12+rbx*8]
f6cd:	48 83 c3 01          	add    rbx,0x1
f6d1:	48 39 dd             	cmp    rbp,rbx
f6d4:	75 ea                	jne    f6c0 <__libc_csu_init+0x40>
f6d6:	48 83 c4 08          	add    rsp,0x8
f6da:	5b                   	pop    rbx
f6db:	5d                   	pop    rbp
f6dc:	41 5c                	pop    r12
f6de:	41 5d                	pop    r13
f6e0:	41 5e                	pop    r14
f6e2:	41 5f                	pop    r15
f6e4:	c3                   	ret
f6e5:	90                   	nop
f6e6:	66 2e 0f 1f 84 00 00 	nop    WORD PTR cs:[rax+rax*1+0x0]
f6ed:	00 00 00

000000000000f6f0 <__libc_csu_fini>:
f6f0:	f3 c3                	repz ret
f6f2:	66 2e 0f 1f 84 00 00 	nop    WORD PTR cs:[rax+rax*1+0x0]
f6f9:	00 00 00
f6fc:	0f 1f 40 00          	nop    DWORD PTR [rax+0x0]

000000000000f700 <atexit>:
f700:	48 8b 15 01 59 20 00 	mov    rdx,QWORD PTR [rip+0x205901]        # 215008 <__dso_handle>
f707:	31 f6                	xor    esi,esi
f709:	e9 b2 33 ff ff       	jmp    2ac0 <__cxa_atexit@plt>

Disassembly of section .fini:

000000000000f710 <_fini>:
f710:	48 83 ec 08          	sub    rsp,0x8
f714:	48 83 c4 08          	add    rsp,0x8
f718:	c3                   	ret
